In archive common_ota.a:

Ota_rcp_q_cmd_deal.o:     file format elf32-tradlittlemips

Disassembly of section .text:

00000000 <message_copy>:
   0:	64e3      	save	24,ra,s0
   2:	ed11      	zeb	a1
   4:	7501      	cmpi	a1,1
   6:	6107      	btnez	16 <message_copy+0x16>
   8:	b30e      	lw	v1,40 <message_copy+0x40>
   a:	b20f      	lw	v0,44 <message_copy+0x44>
   c:	9ba0      	lw	a1,0(v1)
   e:	6e10      	li	a2,16
  10:	ea40      	jalr	v0
  12:	6f00      	li	a3,0
  14:	1013      	b	3c <message_copy+0x3c>
  16:	7502      	cmpi	a1,2
  18:	b00b      	lw	s0,44 <message_copy+0x44>
  1a:	b50a      	lw	a1,40 <message_copy+0x40>
  1c:	6104      	btnez	26 <message_copy+0x26>
  1e:	9da0      	lw	a1,0(a1)
  20:	6e10      	li	a2,16
  22:	4d10      	addiu	a1,16
  24:	1009      	b	38 <message_copy+0x38>
  26:	b209      	lw	v0,48 <message_copy+0x48>
  28:	9dc0      	lw	a2,0(a1)
  2a:	f020 a2ee 	lbu	a3,46(v0)
  2e:	f020 c6ec 	sb	a3,44(a2)
  32:	9da0      	lw	a1,0(a1)
  34:	6e0e      	li	a2,14
  36:	4d20      	addiu	a1,32
  38:	e840      	jalr	s0
  3a:	6f00      	li	a3,0
  3c:	6463      	restore	24,ra,s0
  3e:	e8a0      	jrc	ra
	...

0000004c <ota_enquiry_message>:
  4c:	64c8      	save	64,ra
  4e:	040a      	addiu	a0,sp,40
  50:	1800 0000 	jal	0 <message_copy>
  54:	6d03      	li	a1,3
  56:	b215      	lw	v0,a8 <ota_enquiry_message+0x5c>
  58:	9a60      	lw	v1,0(v0)
  5a:	f020 a3b2 	lbu	a1,50(v1)
  5e:	250a      	beqz	a1,74 <ota_enquiry_message+0x28>
  60:	6c00      	li	a0,0
  62:	6d00      	li	a1,0
  64:	b212      	lw	v0,ac <ota_enquiry_message+0x60>
  66:	f020 c392 	sb	a0,50(v1)
  6a:	67c5      	move	a2,a1
  6c:	0c07      	la	a0,88 <ota_enquiry_message+0x3c>
  6e:	ea40      	jalr	v0
  70:	6f4b      	li	a3,75
  72:	1006      	b	80 <ota_enquiry_message+0x34>
  74:	6f0e      	li	a3,14
  76:	b30f      	lw	v1,b0 <ota_enquiry_message+0x64>
  78:	d704      	sw	a3,16(sp)
  7a:	6785      	move	a0,a1
  7c:	eb40      	jalr	v1
  7e:	0606      	addiu	a2,sp,24
  80:	6a00      	li	v0,0
  82:	6448      	restore	64,ra
  84:	e8a0      	jrc	ra
  86:	0000      	addiu	s0,sp,0
  88:	5f67      	sltiu	a3,103
  8a:	6573      	move	s3,v1
  8c:	646e      	restore	112,ra,s0
  8e:	655f      	move	k0,a3
  90:	7272      	cmpi	v0,114
  92:	5f6f      	sltiu	a3,111
  94:	6f63      	li	a3,99
  96:	6e75      	li	a2,117
  98:	2074      	beqz	s0,182 <ota_get_ver_num+0x6>
  9a:	6863      	li	s0,99
  9c:	6e61      	li	a2,97
  9e:	6568      	move	t3,s0
  a0:	7420      	cmpi	a0,32
  a2:	206f      	beqz	s0,182 <ota_get_ver_num+0x6>
  a4:	0030      	addiu	s0,sp,192
	...

000000b4 <ota_enquiry_connect>:
  b4:	64f9      	save	72,ra,s0-s1
  b6:	6d00      	li	a1,0
  b8:	b11f      	lw	s1,134 <ota_enquiry_connect+0x80>
  ba:	0c13      	la	a0,104 <ota_enquiry_connect+0x50>
  bc:	67c5      	move	a2,a1
  be:	e940      	jalr	s1
  c0:	6f4b      	li	a3,75
  c2:	b11e      	lw	s1,138 <ota_enquiry_connect+0x84>
  c4:	000a      	addiu	s0,sp,40
  c6:	9960      	lw	v1,0(s1)
  c8:	a350      	lbu	v0,16(v1)
  ca:	7205      	cmpi	v0,5
  cc:	610d      	btnez	e8 <ota_enquiry_connect+0x34>
  ce:	6790      	move	a0,s0
  d0:	1800 0000 	jal	0 <message_copy>
  d4:	6d02      	li	a1,2
  d6:	9980      	lw	a0,0(s1)
  d8:	6d00      	li	a1,0
  da:	c4b0      	sb	a1,16(a0)
  dc:	6c00      	li	a0,0
  de:	6f10      	li	a3,16
  e0:	67a4      	move	a1,a0
  e2:	67d0      	move	a2,s0
  e4:	d704      	sw	a3,16(sp)
  e6:	1009      	b	fa <ota_enquiry_connect+0x46>
  e8:	6790      	move	a0,s0
  ea:	1800 0000 	jal	0 <message_copy>
  ee:	6d01      	li	a1,1
  f0:	6f10      	li	a3,16
  f2:	6c00      	li	a0,0
  f4:	d704      	sw	a3,16(sp)
  f6:	67a4      	move	a1,a0
  f8:	0606      	addiu	a2,sp,24
  fa:	b211      	lw	v0,13c <ota_enquiry_connect+0x88>
  fc:	eac0      	jalrc	v0
  fe:	6a00      	li	v0,0
 100:	6479      	restore	72,ra,s0-s1
 102:	e8a0      	jrc	ra
 104:	6572      	move	s3,v0
 106:	6563      	move	v1,v1
 108:	7669      	cmpi	a2,105
 10a:	2065      	beqz	s0,1d6 <reboot_system+0x1e>
 10c:	6e65      	li	a2,101
 10e:	7571      	cmpi	a1,113
 110:	7269      	cmpi	v0,105
 112:	2079      	beqz	s0,206 <reboot_system+0x4e>
 114:	6f63      	li	a3,99
 116:	6e6e      	li	a2,110
 118:	6365      	addiu	sp,808
 11a:	2074      	beqz	s0,204 <reboot_system+0x4c>
 11c:	7573      	cmpi	a1,115
 11e:	6363      	addiu	sp,792
 120:	7365      	cmpi	v1,101
 122:	2073      	beqz	s0,20a <reboot_system+0x52>
 124:	726f      	cmpi	v0,111
 126:	6e20      	li	a2,32
 128:	746f      	cmpi	a0,111
 12a:	4320      	addiu	s1,v1,0
 12c:	444d      	addiu	v0,a0,-3
 12e:	2120      	beqz	s1,170 <get_ver_message+0x30>
 130:	0021      	addiu	s0,sp,132
	...

00000140 <get_ver_message>:
 140:	64f4      	save	32,ra,s0-s1
 142:	b10d      	lw	s1,174 <get_ver_message+0x34>
 144:	6704      	move	s0,a0
 146:	e940      	jalr	s1
 148:	6c0a      	li	a0,10
 14a:	c840      	sh	v0,0(s0)
 14c:	e940      	jalr	s1
 14e:	6c0b      	li	a0,11
 150:	b10a      	lw	s1,178 <get_ver_message+0x38>
 152:	4084      	addiu	a0,s0,4
 154:	c841      	sh	v0,2(s0)
 156:	6d08      	li	a1,8
 158:	6e04      	li	a2,4
 15a:	e940      	jalr	s1
 15c:	6f1b      	li	a3,27
 15e:	6790      	move	a0,s0
 160:	4c08      	addiu	a0,8
 162:	f1c0 6d10 	li	a1,464
 166:	6e08      	li	a2,8
 168:	e940      	jalr	s1
 16a:	6f1b      	li	a3,27
 16c:	6a01      	li	v0,1
 16e:	6474      	restore	32,ra,s0-s1
 170:	e8a0      	jrc	ra
	...

0000017c <ota_get_ver_num>:
 17c:	64c8      	save	64,ra
 17e:	6d00      	li	a1,0
 180:	b20c      	lw	v0,1b0 <ota_get_ver_num+0x34>
 182:	67c5      	move	a2,a1
 184:	0c08      	la	a0,1a4 <ota_get_ver_num+0x28>
 186:	ea40      	jalr	v0
 188:	6f4b      	li	a3,75
 18a:	1800 0000 	jal	0 <message_copy>
 18e:	040a      	addiu	a0,sp,40
 190:	6f10      	li	a3,16
 192:	6c00      	li	a0,0
 194:	b208      	lw	v0,1b4 <ota_get_ver_num+0x38>
 196:	d704      	sw	a3,16(sp)
 198:	67a4      	move	a1,a0
 19a:	ea40      	jalr	v0
 19c:	0606      	addiu	a2,sp,24
 19e:	6a00      	li	v0,0
 1a0:	6448      	restore	64,ra
 1a2:	e8a0      	jrc	ra
 1a4:	6567      	move	v1,a3
 1a6:	5f74      	sltiu	a3,116
 1a8:	6576      	move	s3,a2
 1aa:	5f72      	sltiu	a3,114
 1ac:	756e      	cmpi	a1,110
 1ae:	006d      	addiu	s0,sp,436
	...

000001b8 <reboot_system>:
 1b8:	b405      	lw	a0,1cc <reboot_system+0x14>
 1ba:	6d2f      	li	a1,47
 1bc:	9c40      	lw	v0,0(a0)
 1be:	ebab      	neg	v1,a1
 1c0:	ea6c      	and	v0,v1
 1c2:	4b40      	addiu	v1,64
 1c4:	ea6d      	or	v0,v1
 1c6:	dc40      	sw	v0,0(a0)
 1c8:	17ff      	b	1c8 <reboot_system+0x10>
 1ca:	0000      	addiu	s0,sp,0
 1cc:	001c      	addiu	s0,sp,112
 1ce:	c012      	sb	s0,18(s0)
Disassembly of section .reginfo:

00000000 <.reginfo>:
   0:	a10100ff 	sb	at,255(t0)
	...
Disassembly of section .pdr:

00000000 <.pdr>:
   0:	00000000 	nop
   4:	80010000 	lb	at,0(zero)
   8:	fffffffc 	sdc3	$31,-4(ra)
	...
  14:	00000018 	mult	zero,zero
  18:	0000001d 	0x1d
  1c:	0000001f 	0x1f
  20:	00000000 	nop
  24:	80000000 	lb	zero,0(zero)
  28:	fffffffc 	sdc3	$31,-4(ra)
	...
  34:	00000040 	ssnop
  38:	0000001d 	0x1d
  3c:	0000001f 	0x1f
  40:	00000000 	nop
  44:	80030000 	lb	v1,0(zero)
  48:	fffffffc 	sdc3	$31,-4(ra)
	...
  54:	00000048 	0x48
  58:	0000001d 	0x1d
  5c:	0000001f 	0x1f
  60:	00000000 	nop
  64:	80030000 	lb	v1,0(zero)
  68:	fffffffc 	sdc3	$31,-4(ra)
	...
  74:	00000020 	add	zero,zero,zero
  78:	0000001d 	0x1d
  7c:	0000001f 	0x1f
  80:	00000000 	nop
  84:	80000000 	lb	zero,0(zero)
  88:	fffffffc 	sdc3	$31,-4(ra)
	...
  94:	00000040 	ssnop
  98:	0000001d 	0x1d
  9c:	0000001f 	0x1f
	...
  b8:	0000001d 	0x1d
  bc:	0000001f 	0x1f
Disassembly of section .debug_abbrev:

00000000 <.debug_abbrev>:
   0:	10011101 	beq	zero,at,4408 <reboot_system+0x4250>
   4:	11011206 	beq	t0,at,4820 <reboot_system+0x4668>
   8:	130e2501 	beq	t8,t6,9410 <reboot_system+0x9258>
   c:	1b0e030b 	0x1b0e030b
  10:	0200000e 	0x200000e
  14:	0e030024 	jal	80c0090 <reboot_system+0x80bfed8>
  18:	0b3e0b0b 	j	cf82c2c <reboot_system+0xcf82a74>
  1c:	16030000 	bne	s0,v1,20 <.debug_abbrev+0x20>
  20:	3a0e0300 	xori	t6,s0,0x300
  24:	490b3b0b 	bc2tl	$cc2,ec54 <reboot_system+0xea9c>
  28:	04000013 	bltz	zero,78 <.debug_abbrev+0x78>
  2c:	08030024 	j	c0090 <reboot_system+0xbfed8>
  30:	0b3e0b0b 	j	cf82c2c <reboot_system+0xcf82a74>
  34:	0f050000 	jal	c140000 <reboot_system+0xc13fe48>
  38:	000b0b00 	sll	at,t3,0xc
  3c:	01130600 	0x1130600
  40:	0b0b1301 	j	c2c4c04 <reboot_system+0xc2c4a4c>
  44:	0b3b0b3a 	j	cec2ce8 <reboot_system+0xcec2b30>
  48:	0d070000 	jal	41c0000 <reboot_system+0x41bfe48>
  4c:	3a080300 	xori	t0,s0,0x300
  50:	490b3b0b 	bc2tl	$cc2,ec80 <reboot_system+0xeac8>
  54:	000a3813 	0xa3813
  58:	000d0800 	sll	at,t5,0x0
  5c:	0b3a0e03 	j	ce8380c <reboot_system+0xce83654>
  60:	13490b3b 	beq	k0,t1,2d50 <reboot_system+0x2b98>
  64:	00000a38 	0xa38
  68:	01010109 	0x1010109
  6c:	00134913 	0x134913
  70:	00210a00 	0x210a00
  74:	0b2f1349 	j	cbc4d24 <reboot_system+0xcbc4b6c>
  78:	040b0000 	tltiu	zero,0
  7c:	0b130101 	j	c4c0404 <reboot_system+0xc4c024c>
  80:	3b0b3a0b 	xori	t3,t8,0x3a0b
  84:	0c00000b 	jal	2c <.debug_abbrev+0x2c>
  88:	0e030028 	jal	80c00a0 <reboot_system+0x80bfee8>
  8c:	00000d1c 	0xd1c
  90:	0300160d 	break	0x300,0x58
  94:	3b0b3a0e 	xori	t3,t8,0x3a0e
  98:	00134905 	0x134905
  9c:	01130e00 	0x1130e00
  a0:	0b0b1301 	j	c2c4c04 <reboot_system+0xc2c4a4c>
  a4:	053b0b3a 	0x53b0b3a
  a8:	0d0f0000 	jal	43c0000 <reboot_system+0x43bfe48>
  ac:	3a0e0300 	xori	t6,s0,0x300
  b0:	49053b0b 	bc2t	$cc1,ece0 <reboot_system+0xeb28>
  b4:	000a3813 	0xa3813
  b8:	000d1000 	sll	v0,t5,0x0
  bc:	0b3a0e03 	j	ce8380c <reboot_system+0xce83654>
  c0:	1349053b 	beq	k0,t1,15b0 <reboot_system+0x13f8>
  c4:	0b0d0b0b 	j	c342c2c <reboot_system+0xc342a74>
  c8:	0a380b0c 	j	8e02c30 <reboot_system+0x8e02a78>
  cc:	0f110000 	jal	c440000 <reboot_system+0xc43fe48>
  d0:	490b0b00 	bc2tl	$cc2,2cd4 <reboot_system+0x2b1c>
  d4:	12000013 	beqz	s0,124 <.debug_abbrev+0x124>
  d8:	0e03000d 	jal	80c0034 <reboot_system+0x80bfe7c>
  dc:	0b3b0b3a 	j	cec2ce8 <reboot_system+0xcec2b30>
  e0:	0b0b1349 	j	c2c4d24 <reboot_system+0xc2c4b6c>
  e4:	0b0c0b0d 	j	c302c34 <reboot_system+0xc302a7c>
  e8:	00000a38 	0xa38
  ec:	01012e13 	0x1012e13
  f0:	030c3f13 	0x30c3f13
  f4:	3b0b3a0e 	xori	t3,t8,0x3a0e
  f8:	490c270b 	bc2f	$cc3,9d28 <reboot_system+0x9b70>
  fc:	12011113 	beq	s0,at,454c <reboot_system+0x4394>
 100:	000a4001 	0xa4001
 104:	00051400 	sll	v0,a1,0x10
 108:	0b3a0e03 	j	ce8380c <reboot_system+0xce83654>
 10c:	13490b3b 	beq	k0,t1,2dfc <reboot_system+0x2c44>
 110:	00000a02 	srl	at,zero,0x8
 114:	03003415 	0x3003415
 118:	3b0b3a0e 	xori	t3,t8,0x3a0e
 11c:	0213490b 	0x213490b
 120:	1600000a 	bnez	s0,14c <.debug_abbrev+0x14c>
 124:	0e030034 	jal	80c00d0 <reboot_system+0x80bff18>
 128:	0b3b0b3a 	j	cec2ce8 <reboot_system+0xcec2b30>
 12c:	00001349 	0x1349
 130:	01012e17 	0x1012e17
 134:	030c3f13 	0x30c3f13
 138:	3b0b3a0e 	xori	t3,t8,0x3a0e
 13c:	110c270b 	beq	t0,t4,9d6c <reboot_system+0x9bb4>
 140:	40011201 	0x40011201
 144:	1800000a 	blez	zero,170 <get_ver_message+0x30>
 148:	0e030034 	jal	80c00d0 <reboot_system+0x80bff18>
 14c:	0b3b0b3a 	j	cec2ce8 <reboot_system+0xcec2b30>
 150:	0c3f1349 	jal	fc4d24 <reboot_system+0xfc4b6c>
 154:	00000c3c 	0xc3c
 158:	03003419 	0x3003419
 15c:	3b0b3a0e 	xori	t3,t8,0x3a0e
 160:	3f134905 	0x3f134905
 164:	000c3c0c 	syscall	0x30f0
	...
Disassembly of section .debug_info:

00000000 <.debug_info>:
   0:	00000d8e 	0xd8e
   4:	00000002 	srl	zero,zero,0x0
   8:	01040000 	0x1040000
   c:	00000000 	nop
  10:	000001d0 	0x1d0
  14:	00000000 	nop
  18:	00000562 	0x562
  1c:	000c6201 	0xc6201
  20:	000e9800 	sll	s3,t6,0x0
  24:	04ae0200 	tnei	a1,512
  28:	08010000 	j	40000 <reboot_system+0x3fe48>
  2c:	0006ff03 	sra	ra,a2,0x1c
  30:	250f0800 	addiu	t7,t0,2048
  34:	02000000 	0x2000000
  38:	000008cb 	0x8cb
  3c:	61020601 	0x61020601
  40:	02000001 	movf	zero,s0,$fcc0
  44:	0ff30207 	jal	fcc081c <reboot_system+0xfcc0664>
  48:	05020000 	bltzl	t0,4c <.debug_info+0x4c>
  4c:	00040302 	srl	zero,a0,0xc
  50:	02070400 	0x2070400
  54:	000009db 	0x9db
  58:	da020504 	ldc2	$2,1284(s0)
  5c:	04000004 	bltz	zero,70 <.debug_info+0x70>
  60:	0c320204 	jal	c80810 <reboot_system+0xc80658>
  64:	04080000 	tgei	zero,0
  68:	000d7202 	srl	t6,t5,0x8
  6c:	02070800 	0x2070800
  70:	00000505 	0x505
  74:	14020508 	bne	zero,v0,1498 <reboot_system+0x12e0>
  78:	04000000 	bltz	zero,7c <.debug_info+0x7c>
  7c:	025e0307 	0x25e0307
  80:	15020000 	bne	t0,v0,84 <.debug_info+0x84>
  84:	00000025 	move	zero,zero
  88:	000a8903 	sra	s1,t2,0x4
  8c:	3e1d0200 	0x3e1d0200
  90:	03000000 	0x3000000
  94:	00000b15 	0xb15
  98:	00762502 	0x762502
  9c:	69040000 	0x69040000
  a0:	0400746e 	bltz	zero,1d25c <reboot_system+0x1d0a4>
  a4:	0ad30205 	j	b4c0814 <reboot_system+0xb4c065c>
  a8:	06010000 	bgez	s0,ac <.debug_info+0xac>
  ac:	00040302 	srl	zero,a0,0xc
  b0:	05070400 	0x5070400
  b4:	00e80604 	0xe80604
  b8:	05080000 	tgei	t0,0
  bc:	49500778 	0x49500778
  c0:	75050044 	jalx	4140110 <reboot_system+0x413ff58>
  c4:	0000003e 	0x3e
  c8:	07002302 	bltz	t8,8cd4 <reboot_system+0x8b1c>
  cc:	00444956 	0x444956
  d0:	003e7605 	0x3e7605
  d4:	23020000 	addi	v0,t8,0
  d8:	055a0802 	0x55a0802
  dc:	77050000 	jalx	c140000 <reboot_system+0xc13fe48>
  e0:	000000e8 	0xe8
  e4:	00042302 	srl	a0,a0,0xc
  e8:	0000f809 	jalr	zero
  ec:	0000a500 	sll	s4,zero,0x14
  f0:	00ac0a00 	0xac0a00
  f4:	00030000 	sll	zero,v1,0x0
  f8:	00066103 	sra	t4,a2,0x4
  fc:	b5780500 	0xb5780500
 100:	06000000 	bltz	s0,104 <.debug_info+0x104>
 104:	00000128 	0x128
 108:	087e0510 	j	1f81440 <reboot_system+0x1f81288>
 10c:	00000ee6 	0xee6
 110:	00f87c05 	0xf87c05
 114:	23020000 	addi	v0,t8,0
 118:	09720800 	j	5c82000 <reboot_system+0x5c81e48>
 11c:	7d050000 	0x7d050000
 120:	00000128 	0x128
 124:	00082302 	srl	a0,t0,0xc
 128:	00013809 	0x13809
 12c:	0000a500 	sll	s4,zero,0x14
 130:	00ac0a00 	0xac0a00
 134:	00070000 	sll	zero,a3,0x0
 138:	00089303 	sra	s2,t0,0xc
 13c:	037e0500 	0x37e0500
 140:	0b000001 	j	c000004 <reboot_system+0xbfffe4c>
 144:	00000362 	0x362
 148:	0ce00302 	jal	3800c08 <reboot_system+0x3800a50>
 14c:	000003e7 	0x3e7
 150:	0b830c00 	j	e0c3000 <reboot_system+0xe0c2e48>
 154:	0c010000 	jal	40000 <reboot_system+0x3fe48>
 158:	0000071a 	0x71a
 15c:	05d50c02 	0x5d50c02
 160:	0c030000 	jal	c0000 <reboot_system+0xbfe48>
 164:	00000a63 	0xa63
 168:	09790c20 	j	5e43080 <reboot_system+0x5e42ec8>
 16c:	01800000 	0x1800000
 170:	0004930c 	syscall	0x124c
 174:	0c018100 	jal	60400 <reboot_system+0x60248>
 178:	00000264 	0x264
 17c:	c70c0182 	lwc1	$f12,386(t8)
 180:	83000000 	lb	zero,0(t8)
 184:	02c80c01 	0x2c80c01
 188:	01840000 	0x1840000
 18c:	000cca0c 	syscall	0x3328
 190:	0c018500 	jal	61400 <reboot_system+0x61248>
 194:	00000dde 	0xdde
 198:	ed0c01a1 	swc3	$12,417(t0)
 19c:	ff000001 	sdc3	$0,1(t8)
 1a0:	04bc0c01 	0x4bc0c01
 1a4:	02800000 	0x2800000
 1a8:	0007510c 	syscall	0x1d44
 1ac:	0c028100 	jal	a0400 <reboot_system+0xa0248>
 1b0:	000009f9 	0x9f9
 1b4:	3d0c0282 	0x3d0c0282
 1b8:	83000005 	lb	zero,5(t8)
 1bc:	0e370c02 	jal	8dc3008 <reboot_system+0x8dc2e50>
 1c0:	02840000 	0x2840000
 1c4:	0000360c 	syscall	0xd8
 1c8:	0c028500 	jal	a1400 <reboot_system+0xa1248>
 1cc:	0000018c 	syscall	0x6
 1d0:	ef0c0286 	swc3	$12,646(t8)
 1d4:	87000004 	lh	zero,4(t8)
 1d8:	08650c02 	j	1943008 <reboot_system+0x1942e50>
 1dc:	02880000 	0x2880000
 1e0:	0004470c 	syscall	0x111c
 1e4:	0c028900 	jal	a2400 <reboot_system+0xa2248>
 1e8:	00000986 	0x986
 1ec:	dc0c028a 	ldc3	$12,650(zero)
 1f0:	8b000001 	lwl	zero,1(t8)
 1f4:	00b60c02 	0xb60c02
 1f8:	028c0000 	0x28c0000
 1fc:	0008d70c 	syscall	0x235c
 200:	0c028d00 	jal	a3400 <reboot_system+0xa3248>
 204:	00000351 	0x351
 208:	bc0c028e 	cache	0xc,654(zero)
 20c:	8f000005 	lw	zero,5(t8)
 210:	0a1e0c02 	j	8783008 <reboot_system+0x8782e50>
 214:	02900000 	0x2900000
 218:	0000e90c 	syscall	0x3a4
 21c:	0c029100 	jal	a4400 <reboot_system+0xa4248>
 220:	000005e8 	0x5e8
 224:	330c0292 	andi	t4,t8,0x292
 228:	9300000a 	lbu	zero,10(t8)
 22c:	010e0c02 	0x10e0c02
 230:	02940000 	0x2940000
 234:	000bf30c 	syscall	0x2fcc
 238:	0c029500 	jal	a5400 <reboot_system+0xa5248>
 23c:	000009e4 	0x9e4
 240:	050c0296 	teqi	t0,662
 244:	97000007 	lhu	zero,7(t8)
 248:	02aa0c02 	0x2aa0c02
 24c:	02980000 	0x2980000
 250:	00078f0c 	syscall	0x1e3c
 254:	0c029900 	jal	a6400 <reboot_system+0xa6248>
 258:	00000ed2 	0xed2
 25c:	3e0c029a 	0x3e0c029a
 260:	9b000001 	lwr	zero,1(t8)
 264:	02240c02 	0x2240c02
 268:	029c0000 	0x29c0000
 26c:	000fca0c 	syscall	0x3f28
 270:	0c029d00 	jal	a7400 <reboot_system+0xa7248>
 274:	00000174 	teq	zero,zero,0x5
 278:	260c029e 	addiu	t4,s0,670
 27c:	9f00000f 	0x9f00000f
 280:	06c20c02 	bltzl	s6,328c <reboot_system+0x30d4>
 284:	02a00000 	0x2a00000
 288:	000c390c 	syscall	0x30e4
 28c:	0c02a100 	jal	a8400 <reboot_system+0xa8248>
 290:	0000082c 	0x82c
 294:	1d0c02a2 	0x1d0c02a2
 298:	a300000e 	sb	zero,14(t8)
 29c:	0b9d0c02 	j	e743008 <reboot_system+0xe742e50>
 2a0:	02a40000 	0x2a40000
 2a4:	000f400c 	syscall	0x3d00
 2a8:	0c02a500 	jal	a9400 <reboot_system+0xa9248>
 2ac:	0000090e 	0x90e
 2b0:	420c02a6 	c0	0xc02a6
 2b4:	a700000b 	sh	zero,11(t8)
 2b8:	0dbc0c02 	jal	6f03008 <reboot_system+0x6f02e50>
 2bc:	02a80000 	0x2a80000
 2c0:	0007d80c 	syscall	0x1f60
 2c4:	0c02a900 	jal	aa400 <reboot_system+0xaa248>
 2c8:	00000ab8 	0xab8
 2cc:	e80c02aa 	swc2	$12,682(zero)
 2d0:	ab000002 	swl	zero,2(t8)
 2d4:	02fe0c02 	0x2fe0c02
 2d8:	02ac0000 	0x2ac0000
 2dc:	0003140c 	syscall	0xc50
 2e0:	0c02ad00 	jal	ab400 <reboot_system+0xab248>
 2e4:	0000032a 	0x32a
 2e8:	650c02ae 	0x650c02ae
 2ec:	af000003 	sw	zero,3(t8)
 2f0:	037b0c02 	0x37b0c02
 2f4:	02b00000 	0x2b00000
 2f8:	00073b0c 	syscall	0x1cec
 2fc:	0c02b100 	jal	ac400 <reboot_system+0xac248>
 300:	00000391 	0x391
 304:	a70c02b2 	sh	t4,690(t8)
 308:	b3000003 	0xb3000003
 30c:	03bd0c02 	0x3bd0c02
 310:	02b40000 	0x2b40000
 314:	000d020c 	syscall	0x3408
 318:	0c048000 	jal	120000 <reboot_system+0x11fe48>
 31c:	00000e59 	0xe59
 320:	a90c0481 	swl	t4,1153(t0)
 324:	82000009 	lb	zero,9(s0)
 328:	05290c04 	tgeiu	t1,3076
 32c:	04830000 	bgezl	a0,330 <.debug_info+0x330>
 330:	0009480c 	syscall	0x2520
 334:	0c048400 	jal	121000 <reboot_system+0x120e48>
 338:	00000997 	0x997
 33c:	b90c0485 	swr	t4,1157(t0)
 340:	8600000c 	lh	zero,12(s0)
 344:	0e6e0c04 	jal	9b83010 <reboot_system+0x9b82e58>
 348:	04870000 	0x4870000
 34c:	00062e0c 	syscall	0x18b8
 350:	0c048800 	jal	122000 <reboot_system+0x121e48>
 354:	0000069a 	0x69a
 358:	2d0c0489 	sltiu	t4,t0,1161
 35c:	8a000004 	lwl	zero,4(s0)
 360:	860d0004 	lh	t5,4(s0)
 364:	03000008 	jr	t8
 368:	0143017a 	0x143017a
 36c:	7e090000 	0x7e090000
 370:	7d000003 	0x7d000003
 374:	0a000000 	j	8000000 <reboot_system+0x7fffe48>
 378:	000000ac 	0xac
 37c:	c30e0005 	ll	t6,5(t8)
 380:	1c000004 	bgtz	zero,394 <.debug_info+0x394>
 384:	0f014007 	jal	c05001c <reboot_system+0xc04fe64>
 388:	000001c1 	0x1c1
 38c:	7d011807 	0x7d011807
 390:	02000000 	0x2000000
 394:	240f0023 	li	t7,35
 398:	07000009 	bltz	t8,3c0 <.debug_info+0x3c0>
 39c:	007d011a 	0x7d011a
 3a0:	23020000 	addi	v0,t8,0
 3a4:	0f570f01 	jal	d5c3c04 <reboot_system+0xd5c3a4c>
 3a8:	1c070000 	0x1c070000
 3ac:	00007d01 	0x7d01
 3b0:	02230200 	0x2230200
 3b4:	0004800f 	0x4800f
 3b8:	011e0700 	0x11e0700
 3bc:	0000007d 	0x7d
 3c0:	0f032302 	jal	c0c8c08 <reboot_system+0xc0c8a50>
 3c4:	00000513 	0x513
 3c8:	7d012307 	0x7d012307
 3cc:	02000000 	0x2000000
 3d0:	d30f0423 	0xd30f0423
 3d4:	07000003 	bltz	t8,3e4 <.debug_info+0x3e4>
 3d8:	007d0124 	0x7d0124
 3dc:	23020000 	addi	v0,t8,0
 3e0:	04cc1005 	teqi	a2,4101
 3e4:	25070000 	addiu	a3,t0,0
 3e8:	00007d01 	0x7d01
 3ec:	04040100 	0x4040100
 3f0:	10062302 	beq	zero,a2,8ffc <reboot_system+0x8e44>
 3f4:	00000be4 	0xbe4
 3f8:	7d012607 	0x7d012607
 3fc:	01000000 	0x1000000
 400:	23020004 	addi	v0,t8,4
 404:	07e90f06 	tgeiu	ra,3846
 408:	29070000 	slti	a3,t0,0
 40c:	00007d01 	0x7d01
 410:	07230200 	bgezl	t9,c14 <.debug_info+0xc14>
 414:	00095d0f 	0x95d0f
 418:	012b0700 	0x12b0700
 41c:	0000007d 	0x7d
 420:	0f082302 	jal	c208c08 <reboot_system+0xc208a50>
 424:	00000c1c 	0xc1c
 428:	7d012e07 	0x7d012e07
 42c:	02000000 	0x2000000
 430:	790f0923 	0x790f0923
 434:	0700000f 	bltz	t8,474 <.debug_info+0x474>
 438:	002c0131 	tgeu	at,t4,0x4
 43c:	23020000 	addi	v0,t8,0
 440:	01cd0f0a 	0x1cd0f0a
 444:	32070000 	andi	a3,s0,0x0
 448:	0004c301 	0x4c301
 44c:	0c230200 	jal	8c0800 <reboot_system+0x8c0648>
 450:	000d370f 	0xd370f
 454:	01350700 	0x1350700
 458:	000004c3 	sra	zero,zero,0x13
 45c:	0f102302 	jal	c408c08 <reboot_system+0xc408a50>
 460:	00000b1c 	0xb1c
 464:	c3013607 	ll	at,13831(t8)
 468:	02000004 	sllv	zero,zero,s0
 46c:	500f1423 	beql	zero,t7,54fc <reboot_system+0x5344>
 470:	0700000a 	bltz	t8,49c <.debug_info+0x49c>
 474:	007d0139 	0x7d0139
 478:	23020000 	addi	v0,t8,0
 47c:	05870f18 	0x5870f18
 480:	3a070000 	xori	a3,s0,0x0
 484:	00007d01 	0x7d01
 488:	19230200 	0x19230200
 48c:	00045810 	0x45810
 490:	013c0700 	0x13c0700
 494:	0000007d 	0x7d
 498:	02050301 	0x2050301
 49c:	74101a23 	jalx	40688c <reboot_system+0x4066d4>
 4a0:	07000007 	bltz	t8,4c0 <.debug_info+0x4c0>
 4a4:	007d013d 	0x7d013d
 4a8:	01010000 	0x1010000
 4ac:	1a230204 	0x1a230204
 4b0:	000a8110 	0xa8110
 4b4:	013e0700 	0x13e0700
 4b8:	0000007d 	0x7d
 4bc:	02000401 	0x2000401
 4c0:	11001a23 	beqz	t0,6d50 <reboot_system+0x6b98>
 4c4:	00004504 	0x4504
 4c8:	06ea0d00 	tlti	s7,3328
 4cc:	40070000 	mfc0	a3,c0_index
 4d0:	00037e01 	0x37e01
 4d4:	065c0e00 	0x65c0e00
 4d8:	07180000 	0x7180000
 4dc:	210f017a 	addi	t7,t0,378
 4e0:	07000000 	bltz	t8,4e4 <.debug_info+0x4e4>
 4e4:	002c0149 	0x2c0149
 4e8:	23020000 	addi	v0,t8,0
 4ec:	0a480f00 	j	9203c00 <reboot_system+0x9203a48>
 4f0:	4b070000 	c2	0x1070000
 4f4:	00002c01 	0x2c01
 4f8:	01230200 	0x1230200
 4fc:	000bda0f 	0xbda0f
 500:	014d0700 	0x14d0700
 504:	0000007d 	0x7d
 508:	0f022302 	jal	c088c08 <reboot_system+0xc088a50>
 50c:	00000124 	0x124
 510:	7d014f07 	0x7d014f07
 514:	02000000 	0x2000000
 518:	560f0323 	bnel	s0,t7,11a8 <reboot_system+0xff0>
 51c:	07000006 	bltz	t8,538 <.debug_info+0x538>
 520:	007d0151 	0x7d0151
 524:	23020000 	addi	v0,t8,0
 528:	0f8f0f04 	jal	e3c3c10 <reboot_system+0xe3c3a58>
 52c:	53070000 	beql	t8,a3,530 <.debug_info+0x530>
 530:	00007d01 	0x7d01
 534:	05230200 	bgezl	t1,d38 <.debug_info+0xd38>
 538:	0008be0f 	0x8be0f
 53c:	01550700 	0x1550700
 540:	0000007d 	0x7d
 544:	0f062302 	jal	c188c08 <reboot_system+0xc188a50>
 548:	00000b09 	0xb09
 54c:	7d015707 	0x7d015707
 550:	02000000 	0x2000000
 554:	b40f0723 	0xb40f0723
 558:	07000006 	bltz	t8,574 <.debug_info+0x574>
 55c:	002c0159 	0x2c0159
 560:	23020000 	addi	v0,t8,0
 564:	05af0f08 	0x5af0f08
 568:	5b070000 	0x5b070000
 56c:	00007d01 	0x7d01
 570:	09230200 	j	48c0800 <reboot_system+0x48c0648>
 574:	0001340f 	0x1340f
 578:	015d0700 	0x15d0700
 57c:	0000007d 	0x7d
 580:	0f0a2302 	jal	c288c08 <reboot_system+0xc288a50>
 584:	00000415 	0x415
 588:	2c015f07 	sltiu	at,zero,24327
 58c:	02000000 	0x2000000
 590:	46100b23 	c1	0x100b23
 594:	07000006 	bltz	t8,5b0 <.debug_info+0x5b0>
 598:	007d0161 	0x7d0161
 59c:	07010000 	bgez	t8,5a0 <.debug_info+0x5a0>
 5a0:	0c230201 	jal	8c0804 <reboot_system+0x8c064c>
 5a4:	00058710 	0x58710
 5a8:	01620700 	0x1620700
 5ac:	0000007d 	0x7d
 5b0:	02000101 	0x2000101
 5b4:	bc0f0c23 	cache	0xf,3107(zero)
 5b8:	0700000f 	bltz	t8,5f8 <.debug_info+0x5f8>
 5bc:	007d0164 	0x7d0164
 5c0:	23020000 	addi	v0,t8,0
 5c4:	0efd0f0d 	jal	bf43c34 <reboot_system+0xbf43a7c>
 5c8:	67070000 	0x67070000
 5cc:	00002c01 	0x2c01
 5d0:	0e230200 	jal	88c0800 <reboot_system+0x88c0648>
 5d4:	0008a30f 	0x8a30f
 5d8:	01690700 	0x1690700
 5dc:	0000002c 	0x2c
 5e0:	0f0f2302 	jal	c3c8c08 <reboot_system+0xc3c8a50>
 5e4:	00000da3 	0xda3
 5e8:	2c016b07 	sltiu	at,zero,27399
 5ec:	02000000 	0x2000000
 5f0:	910f1023 	lbu	t7,4131(t0)
 5f4:	0700000b 	bltz	t8,624 <.debug_info+0x624>
 5f8:	002c016d 	0x2c016d
 5fc:	23020000 	addi	v0,t8,0
 600:	02760f11 	0x2760f11
 604:	6f070000 	0x6f070000
 608:	00007d01 	0x7d01
 60c:	12230200 	beq	s1,v1,e10 <reboot_system+0xc58>
 610:	0001b50f 	0x1b50f
 614:	01710700 	0x1710700
 618:	0000007d 	0x7d
 61c:	0f132302 	jal	c4c8c08 <reboot_system+0xc4c8a50>
 620:	00000b67 	0xb67
 624:	7d017307 	0x7d017307
 628:	02000000 	0x2000000
 62c:	000f1423 	0xf1423
 630:	07000000 	bltz	t8,634 <.debug_info+0x634>
 634:	007d0175 	0x7d0175
 638:	23020000 	addi	v0,t8,0
 63c:	0f110f15 	jal	c443c54 <reboot_system+0xc443a9c>
 640:	77070000 	jalx	c1c0000 <reboot_system+0xc1bfe48>
 644:	00007d01 	0x7d01
 648:	16230200 	bne	s1,v1,e4c <reboot_system+0xc94>
 64c:	0007b50f 	0x7b50f
 650:	01790700 	0x1790700
 654:	0000007d 	0x7d
 658:	00172302 	srl	a0,s7,0xc
 65c:	000b720d 	break	0xb,0x1c8
 660:	017a0700 	0x17a0700
 664:	000004d5 	0x4d5
 668:	0006ae0e 	0x6ae0e
 66c:	8a070400 	lwl	a3,1024(s0)
 670:	05500f01 	bltzal	t2,4278 <reboot_system+0x40c0>
 674:	83070000 	lb	a3,0(t8)
 678:	00007d01 	0x7d01
 67c:	00230200 	0x230200
 680:	000aa80f 	0xaa80f
 684:	01850700 	0x1850700
 688:	0000007d 	0x7d
 68c:	0f012302 	jal	c048c08 <reboot_system+0xc048a50>
 690:	00000f9b 	0xf9b
 694:	7d018707 	0x7d018707
 698:	02000000 	0x2000000
 69c:	4f0f0223 	c3	0x10f0223
 6a0:	07000002 	bltz	t8,6ac <.debug_info+0x6ac>
 6a4:	007d0189 	0x7d0189
 6a8:	23020000 	addi	v0,t8,0
 6ac:	400d0003 	mfc0	t5,$0,3
 6b0:	07000003 	bltz	t8,6c0 <.debug_info+0x6c0>
 6b4:	0668018a 	tgei	s3,394
 6b8:	d50b0000 	ldc1	$f11,0(t0)
 6bc:	01000006 	srlv	zero,zero,t0
 6c0:	b00c4909 	0xb00c4909
 6c4:	0000000b 	movn	zero,zero,zero
 6c8:	000fdd0c 	syscall	0x3f74
 6cc:	830c0100 	lb	t4,256(t8)
 6d0:	02000000 	0x2000000
 6d4:	04e00300 	bltz	a3,12d8 <reboot_system+0x1120>
 6d8:	4d090000 	0x4d090000
 6dc:	000006ba 	0x6ba
 6e0:	0006f706 	0x6f706
 6e4:	53090600 	beql	t8,t1,1ee8 <reboot_system+0x1d30>
 6e8:	000d9d08 	0xd9d08
 6ec:	6e520900 	0x6e520900
 6f0:	02000003 	0x2000003
 6f4:	03000023 	subu	zero,t8,zero
 6f8:	00000e06 	0xe06
 6fc:	06e05309 	bltz	s7,15324 <reboot_system+0x1516c>
 700:	2f0b0000 	sltiu	t3,t8,0
 704:	01000007 	srav	zero,zero,t0
 708:	4c0c8f09 	0x4c0c8f09
 70c:	0000000d 	break
 710:	000c030c 	syscall	0x300c
 714:	230c0100 	addi	t4,t8,256
 718:	0200000d 	break	0x200
 71c:	00020a0c 	syscall	0x828
 720:	0a0c0300 	j	8300c00 <reboot_system+0x8300a48>
 724:	04000008 	bltz	zero,748 <.debug_info+0x748>
 728:	000f610c 	syscall	0x3d84
 72c:	03000500 	0x3000500
 730:	0000093f 	0x93f
 734:	07029609 	bltzl	t8,fffe5f5c <reboot_system+0xfffe5da4>
 738:	84060000 	lh	a2,0(zero)
 73c:	02000007 	srav	zero,zero,s0
 740:	0608d209 	tgei	s0,-11767
 744:	09000010 	j	4000040 <reboot_system+0x3fffe88>
 748:	00007dce 	0x7dce
 74c:	00230200 	0x230200
 750:	000bc912 	0xbc912
 754:	7dcf0900 	0x7dcf0900
 758:	01000000 	0x1000000
 75c:	23020701 	addi	v0,t8,1793
 760:	02991201 	0x2991201
 764:	d0090000 	0xd0090000
 768:	0000007d 	0x7d
 76c:	02060101 	0x2060101
 770:	51120123 	beql	t0,s2,c00 <.debug_info+0xc00>
 774:	09000001 	j	4000004 <reboot_system+0x3fffe4c>
 778:	00007dd1 	0x7dd1
 77c:	05010100 	bgez	t0,b80 <.debug_info+0xb80>
 780:	00012302 	srl	a0,at,0xc
 784:	0007f006 	srlv	s8,a3,zero
 788:	dd090400 	ldc3	$9,1024(t0)
 78c:	000ca312 	0xca312
 790:	7dd50900 	0x7dd50900
 794:	01000000 	0x1000000
 798:	23020701 	addi	v0,t8,1793
 79c:	08461200 	j	1184800 <reboot_system+0x1184648>
 7a0:	d6090000 	ldc1	$f9,0(s0)
 7a4:	0000007d 	0x7d
 7a8:	02060101 	0x2060101
 7ac:	2c120023 	sltiu	s2,zero,35
 7b0:	09000000 	j	4000000 <reboot_system+0x3fffe48>
 7b4:	00007dd7 	0x7dd7
 7b8:	04020100 	bltzl	zero,bbc <.debug_info+0xbbc>
 7bc:	12002302 	beqz	s0,93c8 <reboot_system+0x9210>
 7c0:	00000763 	0x763
 7c4:	06d5d909 	0x6d5d909
 7c8:	02010000 	0x2010000
 7cc:	00230202 	ror	zero,v1,0x8
 7d0:	000cac12 	0xcac12
 7d4:	7ddb0900 	0x7ddb0900
 7d8:	01000000 	0x1000000
 7dc:	23020101 	addi	v0,t8,257
 7e0:	09cf0800 	j	73c2000 <reboot_system+0x73c1e48>
 7e4:	dc090000 	ldc3	$9,0(zero)
 7e8:	00000088 	0x88
 7ec:	00022302 	srl	a0,v0,0xc
 7f0:	00086906 	0x86906
 7f4:	e7091200 	swc1	$f9,4608(t8)
 7f8:	0005a508 	0x5a508
 7fc:	7dca0900 	0x7dca0900
 800:	02000000 	0x2000000
 804:	bd080023 	cache	0x8,35(t0)
 808:	09000006 	j	4000018 <reboot_system+0x3fffe60>
 80c:	0006f7cb 	0x6f7cb
 810:	01230200 	0x1230200
 814:	000d6808 	0xd6808
 818:	3ad20900 	xori	s2,s6,0x900
 81c:	02000007 	srav	zero,zero,s0
 820:	90080723 	lbu	t0,1827(zero)
 824:	0900000a 	j	4000028 <reboot_system+0x3fffe70>
 828:	000784dd 	0x784dd
 82c:	0a230200 	j	88c0800 <reboot_system+0x88c0648>
 830:	00068608 	0x68608
 834:	7dde0900 	0x7dde0900
 838:	02000000 	0x2000000
 83c:	ab080e23 	swl	t0,3619(t8)
 840:	09000000 	j	4000000 <reboot_system+0x3fffe48>
 844:	00007ddf 	0x7ddf
 848:	0f230200 	jal	c8c0800 <reboot_system+0xc8c0648>
 84c:	00062108 	0x62108
 850:	7de00900 	0x7de00900
 854:	02000000 	0x2000000
 858:	b3081023 	0xb3081023
 85c:	0900000d 	j	4000034 <reboot_system+0x3fffe7c>
 860:	00007de5 	0x7de5
 864:	11230200 	beq	t1,v1,1068 <reboot_system+0xeb0>
 868:	0d890300 	jal	6240c00 <reboot_system+0x6240a48>
 86c:	e7090000 	swc1	$f9,0(t8)
 870:	000007f0 	tge	zero,zero,0x1f
 874:	0009e10e 	0x9e10e
 878:	08093c00 	j	24f000 <reboot_system+0x24ee48>
 87c:	006a0801 	0x6a0801
 880:	eb090000 	swc2	$9,0(t8)
 884:	0000007d 	0x7d
 888:	08002302 	j	8c08 <reboot_system+0x8a50>
 88c:	0000067b 	0x67b
 890:	072fec09 	0x72fec09
 894:	23020000 	addi	v0,t8,0
 898:	01a30801 	0x1a30801
 89c:	ed090000 	swc3	$9,0(t0)
 8a0:	0000007d 	0x7d
 8a4:	08022302 	j	88c08 <reboot_system+0x88a50>
 8a8:	000002ba 	0x2ba
 8ac:	007dee09 	0x7dee09
 8b0:	23020000 	addi	v0,t8,0
 8b4:	0c770803 	jal	1dc200c <reboot_system+0x1dc1e54>
 8b8:	ef090000 	swc3	$9,0(t8)
 8bc:	000009e1 	0x9e1
 8c0:	08042302 	j	108c08 <reboot_system+0x108a50>
 8c4:	00000dcf 	0xdcf
 8c8:	007df009 	0x7df009
 8cc:	23020000 	addi	v0,t8,0
 8d0:	0e4b0828 	jal	92c20a0 <reboot_system+0x92c1ee8>
 8d4:	f1090000 	0xf1090000
 8d8:	0000007d 	0x7d
 8dc:	08292302 	j	a48c08 <reboot_system+0xa48a50>
 8e0:	00000595 	0x595
 8e4:	007df209 	0x7df209
 8e8:	23020000 	addi	v0,t8,0
 8ec:	07f5082a 	0x7f5082a
 8f0:	f3090000 	0xf3090000
 8f4:	0000007d 	0x7d
 8f8:	082b2302 	j	ac8c08 <reboot_system+0xac8a50>
 8fc:	00000076 	tne	zero,zero,0x1
 900:	007df409 	0x7df409
 904:	23020000 	addi	v0,t8,0
 908:	0242082c 	0x242082c
 90c:	f5090000 	sdc1	$f9,0(t0)
 910:	0000007d 	0x7d
 914:	082d2302 	j	b48c08 <reboot_system+0xb48a50>
 918:	00000c4e 	0xc4e
 91c:	007df709 	0x7df709
 920:	23020000 	addi	v0,t8,0
 924:	0805082e 	j	1420b8 <reboot_system+0x141f00>
 928:	f8090000 	sdc2	$9,0(zero)
 92c:	0000007d 	0x7d
 930:	082f2302 	j	bc8c08 <reboot_system+0xbc8a50>
 934:	00000ce0 	0xce0
 938:	007df909 	0x7df909
 93c:	23020000 	addi	v0,t8,0
 940:	0cf10830 	jal	3c420c0 <reboot_system+0x3c41f08>
 944:	fa090000 	sdc2	$9,0(s0)
 948:	0000007d 	0x7d
 94c:	08312302 	j	c48c08 <reboot_system+0xc48a50>
 950:	00000610 	0x610
 954:	007dfb09 	0x7dfb09
 958:	23020000 	addi	v0,t8,0
 95c:	081d0832 	j	7420c8 <reboot_system+0x741f10>
 960:	fc090000 	sdc3	$9,0(zero)
 964:	0000007d 	0x7d
 968:	08332302 	j	cc8c08 <reboot_system+0xcc8a50>
 96c:	00000a99 	0xa99
 970:	007dfd09 	0x7dfd09
 974:	23020000 	addi	v0,t8,0
 978:	02850834 	teq	s4,a1,0x20
 97c:	fe090000 	sdc3	$9,0(s0)
 980:	0000007d 	0x7d
 984:	08352302 	j	d48c08 <reboot_system+0xd48a50>
 988:	000007ab 	0x7ab
 98c:	007dff09 	0x7dff09
 990:	23020000 	addi	v0,t8,0
 994:	048a0f36 	tlti	a0,3894
 998:	00090000 	sll	zero,t1,0x0
 99c:	00007d01 	0x7d01
 9a0:	37230200 	ori	v1,t9,0x200
 9a4:	0008fc0f 	0x8fc0f
 9a8:	01010900 	0x1010900
 9ac:	0000007d 	0x7d
 9b0:	0f382302 	jal	ce08c08 <reboot_system+0xce08a50>
 9b4:	00000855 	0x855
 9b8:	7d010209 	0x7d010209
 9bc:	02000000 	0x2000000
 9c0:	0f0f3923 	jal	c3ce48c <reboot_system+0xc3ce2d4>
 9c4:	0900000e 	j	4000038 <reboot_system+0x3fffe80>
 9c8:	007d0104 	0x7d0104
 9cc:	23020000 	addi	v0,t8,0
 9d0:	04710f3a 	bgezal	v1,46bc <reboot_system+0x4504>
 9d4:	07090000 	tgeiu	t8,0
 9d8:	00007d01 	0x7d01
 9dc:	3b230200 	xori	v1,t9,0x200
 9e0:	09f10900 	j	7c42400 <reboot_system+0x7c42248>
 9e4:	08690000 	j	1a40000 <reboot_system+0x1a3fe48>
 9e8:	ac0a0000 	sw	t2,0(zero)
 9ec:	01000000 	0x1000000
 9f0:	0d580d00 	jal	5603400 <reboot_system+0x5603248>
 9f4:	08090000 	j	240000 <reboot_system+0x23fe48>
 9f8:	00087401 	0x87401
 9fc:	0a0d0900 	j	8342400 <reboot_system+0x8342248>
 a00:	007d0000 	0x7d0000
 a04:	ac0a0000 	sw	t2,0(zero)
 a08:	1f000000 	bgtz	t8,a0c <.debug_info+0xa0c>
 a0c:	0a1d0900 	j	8742400 <reboot_system+0x8742248>
 a10:	007d0000 	0x7d0000
 a14:	ac0a0000 	sw	t2,0(zero)
 a18:	1d000000 	bgtz	t0,a1c <.debug_info+0xa1c>
 a1c:	0a7a0600 	j	9e81800 <reboot_system+0x9e81648>
 a20:	040e0000 	tnei	zero,0
 a24:	00570826 	xor	at,v0,s7
 a28:	1f040000 	0x1f040000
 a2c:	000000f8 	0xf8
 a30:	08002302 	j	8c08 <reboot_system+0x8a50>
 a34:	000008af 	0x8af
 a38:	00882004 	sllv	a0,t0,a0
 a3c:	23020000 	addi	v0,t8,0
 a40:	06920808 	bltzall	s4,2a64 <reboot_system+0x28ac>
 a44:	21040000 	addi	a0,t0,0
 a48:	0000007d 	0x7d
 a4c:	080a2302 	j	288c08 <reboot_system+0x288a50>
 a50:	00000df7 	0xdf7
 a54:	007d2204 	0x7d2204
 a58:	23020000 	addi	v0,t8,0
 a5c:	0d13080b 	jal	44c202c <reboot_system+0x44c1e74>
 a60:	24040000 	li	a0,0
 a64:	0000007d 	0x7d
 a68:	080c2302 	j	308c08 <reboot_system+0x308a50>
 a6c:	000007a2 	0x7a2
 a70:	007d2504 	0x7d2504
 a74:	23020000 	addi	v0,t8,0
 a78:	0c03000d 	jal	c0034 <reboot_system+0xbfe7c>
 a7c:	0400000a 	bltz	zero,aa8 <.debug_info+0xaa8>
 a80:	000a1d26 	0xa1d26
 a84:	0aaa0600 	j	aa81800 <reboot_system+0xaa81648>
 a88:	04100000 	bltzal	zero,a8c <.debug_info+0xa8c>
 a8c:	0463082c 	bgezl	v1,2b40 <reboot_system+0x2988>
 a90:	2a040000 	slti	a0,s0,0
 a94:	0000007d 	0x7d
 a98:	08002302 	j	8c08 <reboot_system+0x8a50>
 a9c:	000007a2 	0x7a2
 aa0:	0aaa2b04 	j	aa8ac10 <reboot_system+0xaa8aa58>
 aa4:	23020000 	addi	v0,t8,0
 aa8:	ba090001 	swr	t1,1(s0)
 aac:	7d00000a 	0x7d00000a
 ab0:	0a000000 	j	8000000 <reboot_system+0x7fffe48>
 ab4:	000000ac 	0xac
 ab8:	f903000e 	sdc2	$3,14(t0)
 abc:	0400000a 	bltz	zero,ae8 <.debug_info+0xae8>
 ac0:	000a852c 	0xa852c
 ac4:	0b300600 	j	cc01800 <reboot_system+0xcc01648>
 ac8:	04100000 	bltzal	zero,acc <.debug_info+0xacc>
 acc:	04630838 	bgezl	v1,2bb0 <reboot_system+0x29f8>
 ad0:	31040000 	andi	a0,t0,0x0
 ad4:	0000007d 	0x7d
 ad8:	08002302 	j	8c08 <reboot_system+0x8a50>
 adc:	00000a79 	0xa79
 ae0:	007d3204 	0x7d3204
 ae4:	23020000 	addi	v0,t8,0
 ae8:	08af0801 	j	2bc2004 <reboot_system+0x2bc1e4c>
 aec:	33040000 	andi	a0,t8,0x0
 af0:	00000088 	0x88
 af4:	08022302 	j	88c08 <reboot_system+0x88a50>
 af8:	00000601 	0x601
 afc:	00933404 	0x933404
 b00:	23020000 	addi	v0,t8,0
 b04:	06920804 	bltzall	s4,2b18 <reboot_system+0x2960>
 b08:	35040000 	ori	a0,t0,0x0
 b0c:	0000007d 	0x7d
 b10:	08082302 	j	208c08 <reboot_system+0x208a50>
 b14:	00000df7 	0xdf7
 b18:	007d3604 	0x7d3604
 b1c:	23020000 	addi	v0,t8,0
 b20:	0ffd0809 	jal	ff42024 <reboot_system+0xff41e6c>
 b24:	37040000 	ori	a0,t8,0x0
 b28:	0000036e 	0x36e
 b2c:	000a2302 	srl	a0,t2,0xc
 b30:	00042003 	sra	a0,a0,0x0
 b34:	c5380400 	lwc1	$f24,1024(t1)
 b38:	0600000a 	bltz	s0,b64 <.debug_info+0xb64>
 b3c:	00000b98 	0xb98
 b40:	08630434 	j	18c10d0 <reboot_system+0x18c0f18>
 b44:	0000072c 	0x72c
 b48:	0aba5d04 	j	ae97410 <reboot_system+0xae97258>
 b4c:	23020000 	addi	v0,t8,0
 b50:	0c0d0800 	jal	342000 <reboot_system+0x341e48>
 b54:	5e040000 	0x5e040000
 b58:	00000b30 	tge	zero,zero,0x2c
 b5c:	08102302 	j	408c08 <reboot_system+0x408a50>
 b60:	00000e88 	0xe88
 b64:	0a7a5f04 	j	9e97c10 <reboot_system+0x9e97a58>
 b68:	23020000 	addi	v0,t8,0
 b6c:	0c900820 	jal	2402080 <reboot_system+0x2401ec8>
 b70:	60040000 	0x60040000
 b74:	00000088 	0x88
 b78:	082e2302 	j	b88c08 <reboot_system+0xb88a50>
 b7c:	0000066a 	0x66a
 b80:	00886104 	0x886104
 b84:	23020000 	addi	v0,t8,0
 b88:	09bd0830 	j	6f420c0 <reboot_system+0x6f41f08>
 b8c:	62040000 	0x62040000
 b90:	0000007d 	0x7d
 b94:	00322302 	ror	a0,s2,0xc
 b98:	00009803 	sra	s3,zero,0x0
 b9c:	3b630400 	xori	v1,k1,0x400
 ba0:	1300000b 	beqz	t8,bd0 <.debug_info+0xbd0>
 ba4:	00000bd9 	0xbd9
 ba8:	000ad801 	0xad801
 bac:	01500100 	0x1500100
 bb0:	00000093 	0x93
 bb4:	00000000 	nop
 bb8:	00000040 	ssnop
 bbc:	8b146d01 	lwl	s4,27905(t8)
 bc0:	0100000c 	syscall	0x40000
 bc4:	0000b34f 	0xb34f
 bc8:	14540100 	bne	v0,s4,fcc <reboot_system+0xe14>
 bcc:	00000b5a 	0xb5a
 bd0:	007d4f01 	0x7d4f01
 bd4:	55010000 	bnel	t0,at,bd8 <.debug_info+0xbd8>
 bd8:	0c281300 	jal	a04c00 <reboot_system+0xa04a48>
 bdc:	e5010000 	swc1	$f1,0(t0)
 be0:	0100000a 	movz	zero,t0,zero
 be4:	0362013b 	0x362013b
 be8:	00000000 	nop
 bec:	00880000 	0x880000
 bf0:	6d010000 	0x6d010000
 bf4:	000c7f14 	0xc7f14
 bf8:	933a0100 	lbu	k0,256(t9)
 bfc:	01000000 	0x1000000
 c00:	0c851454 	jal	2145150 <reboot_system+0x2144f98>
 c04:	3a010000 	xori	at,s0,0x0
 c08:	00000093 	0x93
 c0c:	31155501 	andi	s5,t0,0x5501
 c10:	0100000b 	movn	zero,t0,zero
 c14:	000a0d3c 	0xa0d3c
 c18:	18910200 	0x18910200
 c1c:	0000ff16 	0xff16
 c20:	283e0100 	slti	s8,at,256
 c24:	0000000c 	syscall
 c28:	0a7a0411 	j	9e81044 <reboot_system+0x9e80e8c>
 c2c:	8a130000 	lwl	s3,0(s0)
 c30:	0100000c 	syscall	0x40000
 c34:	00000043 	sra	zero,zero,0x1
 c38:	62011e01 	0x62011e01
 c3c:	00000003 	sra	zero,zero,0x0
 c40:	04000000 	bltz	zero,c44 <.debug_info+0xc44>
 c44:	01000001 	movf	zero,t0,$fcc0
 c48:	0c7f146d 	jal	1fc51b4 <reboot_system+0x1fc4ffc>
 c4c:	1d010000 	0x1d010000
 c50:	00000093 	0x93
 c54:	85145401 	lh	s4,21505(t0)
 c58:	0100000c 	syscall	0x40000
 c5c:	0000931d 	0x931d
 c60:	15550100 	bne	t2,s5,1064 <reboot_system+0xeac>
 c64:	00000b31 	tgeu	zero,zero,0x2c
 c68:	09fd1f01 	j	7f47c04 <reboot_system+0x7f47a4c>
 c6c:	91020000 	lbu	v0,0(t0)
 c70:	00ff1518 	0xff1518
 c74:	20010000 	addi	at,zero,0
 c78:	00000c8a 	0xc8a
 c7c:	ab166001 	swl	s6,24577(t8)
 c80:	0100000f 	0x100000f
 c84:	000c9021 	addu	s2,zero,t4
 c88:	04110000 	bal	c8c <.debug_info+0xc8c>
 c8c:	00000aba 	0xaba
 c90:	0b300411 	j	cc01044 <reboot_system+0xcc00e8c>
 c94:	bf130000 	cache	0x13,0(t8)
 c98:	0100000c 	syscall	0x40000
 c9c:	00000eed 	0xeed
 ca0:	93016701 	lbu	at,26369(t8)
 ca4:	00000000 	nop
 ca8:	74000000 	jalx	0 <.debug_info>
 cac:	01000001 	movf	zero,t0,$fcc0
 cb0:	0062146d 	0x62146d
 cb4:	66010000 	0x66010000
 cb8:	00000cbf 	0xcbf
 cbc:	11006001 	beqz	t0,18cc4 <reboot_system+0x18b0c>
 cc0:	00013804 	sllv	a3,at,zero
 cc4:	0d141300 	jal	4504c00 <reboot_system+0x4504a48>
 cc8:	f3010000 	0xf3010000
 ccc:	01000003 	0x1000003
 cd0:	0362010e 	0x362010e
 cd4:	00000000 	nop
 cd8:	01a40000 	0x1a40000
 cdc:	6d010000 	0x6d010000
 ce0:	000c7f14 	0xc7f14
 ce4:	930d0100 	lbu	t5,256(t8)
 ce8:	01000000 	0x1000000
 cec:	0c851454 	jal	2145150 <reboot_system+0x2144f98>
 cf0:	0d010000 	jal	4040000 <reboot_system+0x403fe48>
 cf4:	00000093 	0x93
 cf8:	31155501 	andi	s5,t0,0x5501
 cfc:	0100000b 	movn	zero,t0,zero
 d00:	0009fd10 	0x9fd10
 d04:	18910200 	0x18910200
 d08:	0000ff16 	0xff16
 d0c:	bf110100 	cache	0x11,256(t8)
 d10:	0000000c 	syscall
 d14:	000d3917 	0xd3917
 d18:	09310100 	j	4c40400 <reboot_system+0x4c40248>
 d1c:	78010000 	0x78010000
 d20:	00000001 	movf	zero,zero,$fcc0
 d24:	0001cc00 	sll	t9,at,0x10
 d28:	156d0100 	bne	t3,t5,112c <reboot_system+0xf74>
 d2c:	00000c57 	0xc57
 d30:	00937901 	0x937901
 d34:	52010000 	beql	s0,at,d38 <.debug_info+0xd38>
 d38:	06d51800 	0x6d51800
 d3c:	8a060000 	lwl	a2,0(s0)
 d40:	0000007d 	0x7d
 d44:	c3190101 	ll	t9,257(t8)
 d48:	07000007 	bltz	t8,d68 <.debug_info+0xd68>
 d4c:	04c9019e 	tgeiu	a2,414
 d50:	01010000 	0x1010000
 d54:	00102519 	0x102519
 d58:	01a40700 	0x1a40700
 d5c:	000006ae 	0x6ae
 d60:	eb190101 	swc2	$25,257(t8)
 d64:	07000008 	bltz	t8,d88 <.debug_info+0xd88>
 d68:	065c01aa 	0x65c01aa
 d6c:	01010000 	0x1010000
 d70:	00101119 	0x101119
 d74:	01160900 	0x1160900
 d78:	000009f1 	tgeu	zero,zero,0x27
 d7c:	00180101 	0x180101
 d80:	04000002 	bltz	zero,d8c <.debug_info+0xd8c>
 d84:	000d8b67 	0xd8b67
 d88:	11010100 	beq	t0,at,118c <reboot_system+0xfd4>
 d8c:	000b9804 	sllv	s3,t3,zero
	...
Disassembly of section .debug_line:

00000000 <.debug_line>:
   0:	00000154 	0x154
   4:	00fa0002 	0xfa0002
   8:	01010000 	0x1010000
   c:	000a0efb 	0xa0efb
  10:	01010101 	0x1010101
  14:	01000000 	0x1000000
  18:	2e2e2f2e 	sltiu	t6,s1,12078
  1c:	2f2e2e2f 	sltiu	t6,t9,11823
  20:	2e2f2e2e 	sltiu	t7,s1,11822
  24:	73702f2e 	0x73702f2e
  28:	65725f70 	0x65725f70
  2c:	6e692f6c 	0x6e692f6c
  30:	64756c63 	0x64756c63
  34:	2f2e0065 	sltiu	t6,t9,101
  38:	2e2f2e2e 	sltiu	t7,s1,11822
  3c:	2e2e2f2e 	sltiu	t6,s1,12078
  40:	636e692f 	0x636e692f
  44:	2e2f2e00 	sltiu	t7,s1,11776
  48:	2e2e2f2e 	sltiu	t6,s1,12078
  4c:	2f2e2e2f 	sltiu	t6,t9,11823
  50:	702f2e2e 	0x702f2e2e
  54:	725f7073 	0x725f7073
  58:	692f6c65 	0x692f6c65
  5c:	756c636e 	jalx	5b18db8 <reboot_system+0x5b18c00>
  60:	752f6564 	jalx	4bd9590 <reboot_system+0x4bd93d8>
  64:	00736f63 	0x736f63
  68:	61744f00 	0x61744f00
  6c:	7063725f 	udi15	v1,v1,t6,0x9
  70:	635f715f 	0x635f715f
  74:	645f646d 	0x645f646d
  78:	2e6c6165 	sltiu	t4,s3,24933
  7c:	00000063 	0x63
  80:	70797400 	0x70797400
  84:	74786565 	jalx	1e19594 <reboot_system+0x1e193dc>
  88:	0100682e 	0x100682e
  8c:	61630000 	0x61630000
  90:	745f6573 	jalx	17d95cc <reboot_system+0x17d9414>
  94:	2e657079 	sltiu	a1,s3,28793
  98:	00020068 	0x20068
  9c:	6d6f4300 	0x6d6f4300
  a0:	5f6e6f6d 	0x5f6e6f6d
  a4:	2e61746f 	sltiu	at,s3,29807
  a8:	00020068 	0x20068
  ac:	73797300 	0x73797300
  b0:	61746f5f 	0x61746f5f
  b4:	746e695f 	jalx	1b9a57c <reboot_system+0x1b9a3c4>
  b8:	61667265 	0x61667265
  bc:	682e6563 	0x682e6563
  c0:	00000100 	sll	zero,zero,0x4
  c4:	5f707061 	0x5f707061
  c8:	656d6974 	0x656d6974
  cc:	00682e72 	tlt	v1,t0,0xb9
  d0:	61000002 	0x61000002
  d4:	696c7070 	0x696c7070
  d8:	00682e62 	0x682e62
  dc:	75000002 	jalx	4000008 <reboot_system+0x3fffe50>
  e0:	5f736f63 	0x5f736f63
  e4:	65707974 	0x65707974
  e8:	00682e73 	tltu	v1,t0,0xb9
  ec:	62000003 	0x62000003
  f0:	61747374 	0x61747374
  f4:	635f6b63 	0x635f6b63
  f8:	6f6d6d6f 	0x6f6d6d6f
  fc:	00682e6e 	0x682e6e
 100:	00000002 	srl	zero,zero,0x0
 104:	01020500 	0x1020500
 108:	03000000 	0x3000000
 10c:	2b0100cf 	slti	at,t8,207
 110:	81d6492c 	lb	s6,18732(t6)
 114:	039dbd84 	0x39dbd84
 118:	8030ef56 	lb	s0,-4266(at)
 11c:	48462c9d 	0x48462c9d
 120:	03ba3080 	0x3ba3080
 124:	01340251 	0x1340251
 128:	3026b930 	andi	a2,at,0xb930
 12c:	bc648081 	cache	0x4,-32639(v1)
 130:	3303d880 	andi	v1,t8,0xd880
 134:	2d014202 	sltiu	at,t0,16898
 138:	4a642d29 	c2	0x642d29
 13c:	d6802e44 	ldc1	$f0,11844(s4)
 140:	ef7f9d03 	swc3	$31,-25341(k1)
 144:	d665b930 	ldc1	$f5,-18128(s3)
 148:	0800e203 	j	3880c <reboot_system+0x38654>
 14c:	2c2a2c8d 	sltiu	t2,at,11405
 150:	022c4848 	0x22c4848
 154:	01010007 	srav	zero,at,t0
Disassembly of section .debug_frame:

00000000 <.debug_frame>:
   0:	0000000c 	syscall
   4:	ffffffff 	sdc3	$31,-1(ra)
   8:	04010001 	b	10 <.debug_frame+0x10>
   c:	001d0c1f 	0x1d0c1f
  10:	0000001c 	0x1c
	...
  1c:	0000003f 	0x3f
  20:	0e040e42 	jal	8103908 <reboot_system+0x8103750>
  24:	11180e08 	beq	t0,t8,3848 <reboot_system+0x3690>
  28:	1f117e10 	0x1f117e10
  2c:	0000007f 	0x7f
  30:	00000014 	0x14
	...
  3c:	0000003b 	0x3b
  40:	0e040e42 	jal	8103908 <reboot_system+0x8103750>
  44:	7f1f1140 	0x7f1f1140
  48:	00000020 	add	zero,zero,zero
	...
  54:	0000004f 	0x4f
  58:	0e040e42 	jal	8103908 <reboot_system+0x8103750>
  5c:	0e0c0e08 	jal	8303820 <reboot_system+0x8303668>
  60:	7d101148 	0x7d101148
  64:	117e1111 	beq	t3,s8,44ac <reboot_system+0x42f4>
  68:	00007f1f 	0x7f1f
  6c:	00000020 	add	zero,zero,zero
	...
  78:	00000033 	tltu	zero,zero
  7c:	0e040e42 	jal	8103908 <reboot_system+0x8103750>
  80:	0e0c0e08 	jal	8303820 <reboot_system+0x8303668>
  84:	7d101120 	0x7d101120
  88:	117e1111 	beq	t3,s8,44d0 <reboot_system+0x4318>
  8c:	00007f1f 	0x7f1f
  90:	00000014 	0x14
	...
  9c:	00000027 	nor	zero,zero,zero
  a0:	0e040e42 	jal	8103908 <reboot_system+0x8103750>
  a4:	7f1f1140 	0x7f1f1140
  a8:	0000000c 	syscall
	...
  b4:	00000013 	mtlo	zero
Disassembly of section .debug_pubnames:

00000000 <.debug_pubnames>:
   0:	00000089 	0x89
   4:	00000002 	srl	zero,zero,0x0
   8:	0d920000 	jal	6480000 <reboot_system+0x647fe48>
   c:	0ba30000 	j	e8c0000 <reboot_system+0xe8bfe48>
  10:	656d0000 	0x656d0000
  14:	67617373 	0x67617373
  18:	6f635f65 	0x6f635f65
  1c:	d9007970 	ldc2	$0,31088(t0)
  20:	6f00000b 	0x6f00000b
  24:	655f6174 	0x655f6174
  28:	6975716e 	0x6975716e
  2c:	6d5f7972 	0x6d5f7972
  30:	61737365 	0x61737365
  34:	2e006567 	sltiu	zero,s0,25959
  38:	6f00000c 	0x6f00000c
  3c:	655f6174 	0x655f6174
  40:	6975716e 	0x6975716e
  44:	635f7972 	0x635f7972
  48:	656e6e6f 	0x656e6e6f
  4c:	96007463 	lhu	zero,29795(s0)
  50:	6700000c 	0x6700000c
  54:	765f7465 	jalx	97dd194 <reboot_system+0x97dcfdc>
  58:	6d5f7265 	0x6d5f7265
  5c:	61737365 	0x61737365
  60:	c5006567 	lwc1	$f0,25959(t0)
  64:	6f00000c 	0x6f00000c
  68:	675f6174 	0x675f6174
  6c:	765f7465 	jalx	97dd194 <reboot_system+0x97dcfdc>
  70:	6e5f7265 	0x6e5f7265
  74:	14006d75 	bnez	zero,1b64c <reboot_system+0x1b494>
  78:	7200000d 	0x7200000d
  7c:	6f6f6265 	0x6f6f6265
  80:	79735f74 	0x79735f74
  84:	6d657473 	0x6d657473
  88:	00000000 	nop
	...
Disassembly of section .debug_aranges:

00000000 <.debug_aranges>:
   0:	0000001c 	0x1c
   4:	00000002 	srl	zero,zero,0x0
   8:	00040000 	sll	zero,a0,0x0
	...
  14:	000001d0 	0x1d0
	...
Disassembly of section .debug_str:

00000000 <.debug_str>:
       0:	69726576 	0x69726576
       4:	61636966 	0x61636966
       8:	6e6f6974 	0x6e6f6974
       c:	6174735f 	0x6174735f
      10:	00737574 	teq	v1,s3,0x1d5
      14:	69736e75 	0x69736e75
      18:	64656e67 	0x64656e67
      1c:	746e6920 	jalx	1b9a480 <reboot_system+0x1b9a2c8>
      20:	74756d00 	jalx	1d5b400 <reboot_system+0x1d5b248>
      24:	74735f65 	jalx	1cd7d94 <reboot_system+0x1cd7bdc>
      28:	00657461 	0x657461
      2c:	725f6270 	0x725f6270
      30:	6c757365 	0x6c757365
      34:	45520074 	0x45520074
      38:	544c5553 	bnel	v0,t4,15588 <reboot_system+0x153d0>
      3c:	4441525f 	0x4441525f
      40:	6f004f49 	0x6f004f49
      44:	655f6174 	0x655f6174
      48:	6975716e 	0x6975716e
      4c:	635f7972 	0x635f7972
      50:	656e6e6f 	0x656e6e6f
      54:	63007463 	0x63007463
      58:	755f7572 	jalx	57dd5c8 <reboot_system+0x57dd410>
      5c:	74616470 	jalx	18591c0 <reboot_system+0x1859008>
      60:	65760061 	0x65760061
      64:	75625f72 	jalx	5897dc8 <reboot_system+0x5897c10>
      68:	6f630066 	0x6f630066
      6c:	735f6e6e 	0x735f6e6e
      70:	75746174 	jalx	5d185d0 <reboot_system+0x5d18418>
      74:	70730073 	0x70730073
      78:	6f635f70 	0x6f635f70
      7c:	6c665f6e 	0x6c665f6e
      80:	54006761 	bnezl	zero,19e08 <reboot_system+0x19c50>
      84:	45455248 	0x45455248
      88:	5941575f 	0x5941575f
      8c:	4c4f485f 	0x4c4f485f
      90:	58455f44 	0x58455f44
      94:	00545349 	0x545349
      98:	5f41544f 	0x5f41544f
      9c:	6c6c616d 	0x6c6c616d
      a0:	705f636f 	0x705f636f
      a4:	6d617261 	0x6d617261
      a8:	6800745f 	0x6800745f
      ac:	735f7066 	0x735f7066
      b0:	75746174 	jalx	5d185d0 <reboot_system+0x5d18418>
      b4:	45520073 	0x45520073
      b8:	544c5553 	bnel	v0,t4,15608 <reboot_system+0x15450>
      bc:	4253555f 	c0	0x53555f
      c0:	4152545f 	0x4152545f
      c4:	5200534e 	beqzl	s0,14e00 <reboot_system+0x14c48>
      c8:	4c555345 	0x4c555345
      cc:	454b5f54 	0x454b5f54
      d0:	56455f59 	bnel	s2,a1,17e38 <reboot_system+0x17c80>
      d4:	5f544e45 	0x5f544e45
      d8:	45444552 	0x45444552
      dc:	425f4c41 	c0	0x5f4c41
      e0:	4f435f59 	c3	0x1435f59
      e4:	4e4f4d4d 	c3	0x4f4d4d
      e8:	53455200 	beql	k0,a1,148ec <reboot_system+0x14734>
      ec:	5f544c55 	0x5f544c55
      f0:	4f434552 	c3	0x1434552
      f4:	4d5f4452 	0x4d5f4452
      f8:	545f4349 	bnel	v0,ra,10e20 <reboot_system+0x10c68>
      fc:	7000434f 	0x7000434f
     100:	6d6f635f 	0x6d6f635f
     104:	7063725f 	udi15	v1,v1,t6,0x9
     108:	666e695f 	0x666e695f
     10c:	4552006f 	0x4552006f
     110:	544c5553 	bnel	v0,t4,15660 <reboot_system+0x154a8>
     114:	4345525f 	c0	0x145525f
     118:	5f44524f 	0x5f44524f
     11c:	5f43494d 	0x5f43494d
     120:	00554f54 	0x554f54
     124:	6b636162 	0x6b636162
     128:	6867696c 	0x6867696c
     12c:	74735f74 	jalx	1cd7dd0 <reboot_system+0x1cd7c18>
     130:	00657461 	0x657461
     134:	5f746162 	0x5f746162
     138:	756c6176 	jalx	5b185d8 <reboot_system+0x5b18420>
     13c:	45520065 	0x45520065
     140:	544c5553 	bnel	v0,t4,15690 <reboot_system+0x154d8>
     144:	414c415f 	0x414c415f
     148:	435f4d52 	c0	0x15f4d52
     14c:	45534f4c 	0x45534f4c
     150:	64766100 	0x64766100
     154:	645f7074 	0x645f7074
     158:	5f617461 	0x5f617461
     15c:	67616c66 	0x67616c66
     160:	6f687300 	0x6f687300
     164:	75207472 	jalx	481d1c8 <reboot_system+0x481d010>
     168:	6769736e 	0x6769736e
     16c:	2064656e 	addi	a0,v1,25966
     170:	00746e69 	0x746e69
     174:	55534552 	bnel	t2,s3,116c0 <reboot_system+0x11508>
     178:	4d5f544c 	0x4d5f544c
     17c:	41554e41 	0x41554e41
     180:	45535f4c 	0x45535f4c
     184:	48435241 	0x48435241
     188:	0050555f 	0x50555f
     18c:	55534552 	bnel	t2,s3,116d8 <reboot_system+0x11520>
     190:	425f544c 	c0	0x5f544c
     194:	5445554c 	bnel	v0,a1,156c8 <reboot_system+0x15510>
     198:	48544545 	0x48544545
     19c:	554f535f 	bnel	t2,t7,14f1c <reboot_system+0x14d64>
     1a0:	6300444e 	0x6300444e
     1a4:	72746e6f 	0x72746e6f
     1a8:	656c6c6f 	0x656c6c6f
     1ac:	74735f72 	jalx	1cd7dc8 <reboot_system+0x1cd7c10>
     1b0:	73757461 	0x73757461
     1b4:	72756300 	0x72756300
     1b8:	6e75665f 	0x6e75665f
     1bc:	64695f63 	0x64695f63
     1c0:	676e6500 	0x676e6500
     1c4:	5f656e69 	0x5f656e69
     1c8:	65707974 	0x65707974
     1cc:	655f7000 	0x655f7000
     1d0:	6772656e 	0x6772656e
     1d4:	61765f79 	0x61765f79
     1d8:	0065756c 	0x65756c
     1dc:	55534552 	bnel	t2,s3,11728 <reboot_system+0x11570>
     1e0:	4c5f544c 	0x4c5f544c
     1e4:	505f574f 	beql	v0,ra,15f24 <reboot_system+0x15d6c>
     1e8:	5245574f 	beql	s2,a1,15f28 <reboot_system+0x15d70>
     1ec:	53455200 	beql	k0,a1,149f0 <reboot_system+0x14838>
     1f0:	5f544c55 	0x5f544c55
     1f4:	54534554 	bnel	v0,s3,11748 <reboot_system+0x11590>
     1f8:	515f5041 	beql	t2,ra,14300 <reboot_system+0x14148>
     1fc:	00544955 	0x544955
     200:	544f5f67 	bnel	v0,t7,17fa0 <reboot_system+0x17de8>
     204:	61765f41 	0x61765f41
     208:	54420072 	bnel	v0,v0,3d4 <.debug_str+0x3d4>
     20c:	5252455f 	beql	s2,s2,1178c <reboot_system+0x115d4>
     210:	4e4f435f 	c3	0x4f435f
     214:	5443454e 	bnel	v0,v1,11750 <reboot_system+0x11598>
     218:	5f4e4f49 	0x5f4e4f49
     21c:	454d4954 	0x454d4954
     220:	0054554f 	0x54554f
     224:	55534552 	bnel	t2,s3,11770 <reboot_system+0x115b8>
     228:	415f544c 	0x415f544c
     22c:	4d52414c 	0x4d52414c
     230:	4e49525f 	c3	0x49525f
     234:	4f465f47 	c3	0x1465f47
     238:	5245444c 	beql	s2,a1,1136c <reboot_system+0x111b4>
     23c:	4143535f 	0x4143535f
     240:	6c62004e 	0x6c62004e
     244:	6f635f65 	0x6f635f65
     248:	6c665f6e 	0x6c665f6e
     24c:	6c006761 	0x6c006761
     250:	5f747361 	0x5f747361
     254:	735f6975 	0x735f6975
     258:	75746174 	jalx	5d185d0 <reboot_system+0x5d18418>
     25c:	69750073 	0x69750073
     260:	0038746e 	0x38746e
     264:	55534552 	bnel	t2,s3,117b0 <reboot_system+0x115f8>
     268:	535f544c 	beql	k0,ra,1539c <reboot_system+0x151e4>
     26c:	454e4543 	0x454e4543
     270:	4958455f 	0x4958455f
     274:	75630054 	jalx	58c0150 <reboot_system+0x58bff98>
     278:	75665f72 	jalx	5997dc8 <reboot_system+0x5997c10>
     27c:	695f636e 	0x695f636e
     280:	7865646e 	0x7865646e
     284:	73777400 	0x73777400
     288:	73616d5f 	udi15	k1,at,t5,0x15
     28c:	5f726574 	0x5f726574
     290:	6e6f6870 	0x6e6f6870
     294:	6e6f6365 	0x6e6f6365
     298:	72766100 	0x72766100
     29c:	705f7063 	0x705f7063
     2a0:	65737561 	0x65737561
     2a4:	616c665f 	0x616c665f
     2a8:	45520067 	0x45520067
     2ac:	544c5553 	bnel	v0,t4,157fc <reboot_system+0x15644>
     2b0:	49414d5f 	0x49414d5f
     2b4:	50415f4e 	beql	v0,at,17ff0 <reboot_system+0x17e38>
     2b8:	756e0050 	jalx	5b80140 <reboot_system+0x5b7ff88>
     2bc:	6f635f6d 	0x6f635f6d
     2c0:	63656e6e 	0x63656e6e
     2c4:	00646574 	teq	v1,a0,0x195
     2c8:	55534552 	bnel	t2,s3,11814 <reboot_system+0x1165c>
     2cc:	535f544c 	beql	k0,ra,15400 <reboot_system+0x15248>
     2d0:	4d5f5359 	0x4d5f5359
     2d4:	525f4753 	beql	s2,ra,12024 <reboot_system+0x11e6c>
     2d8:	41454445 	0x41454445
     2dc:	59425f4c 	0x59425f4c
     2e0:	4d4f435f 	0x4d4f435f
     2e4:	004e4f4d 	break	0x4e,0x13d
     2e8:	55534552 	bnel	t2,s3,11834 <reboot_system+0x1167c>
     2ec:	505f544c 	beql	v0,ra,15420 <reboot_system+0x15268>
     2f0:	5f59414c 	0x5f59414c
     2f4:	5f444453 	0x5f444453
     2f8:	31444946 	andi	a0,t2,0x4946
     2fc:	45520036 	0x45520036
     300:	544c5553 	bnel	v0,t4,15850 <reboot_system+0x15698>
     304:	414c505f 	0x414c505f
     308:	44535f59 	0x44535f59
     30c:	49465f44 	0x49465f44
     310:	00373144 	0x373144
     314:	55534552 	bnel	t2,s3,11860 <reboot_system+0x116a8>
     318:	505f544c 	beql	v0,ra,1544c <reboot_system+0x15294>
     31c:	5f59414c 	0x5f59414c
     320:	5f444453 	0x5f444453
     324:	31444946 	andi	a0,t2,0x4946
     328:	45520038 	0x45520038
     32c:	544c5553 	bnel	v0,t4,1587c <reboot_system+0x156c4>
     330:	414c505f 	0x414c505f
     334:	44535f59 	0x44535f59
     338:	49465f44 	0x49465f44
     33c:	00393144 	0x393144
     340:	5f707061 	0x5f707061
     344:	7473616c 	jalx	1cd85b0 <reboot_system+0x1cd83f8>
     348:	6174735f 	0x6174735f
     34c:	745f6574 	jalx	17d95d0 <reboot_system+0x17d9418>
     350:	53455200 	beql	k0,a1,14b54 <reboot_system+0x1499c>
     354:	5f544c55 	0x5f544c55
     358:	4f434552 	c3	0x1434552
     35c:	555f4452 	bnel	t2,ra,114a8 <reboot_system+0x112f0>
     360:	59414c50 	0x59414c50
     364:	53455200 	beql	k0,a1,14b68 <reboot_system+0x149b0>
     368:	5f544c55 	0x5f544c55
     36c:	59414c50 	0x59414c50
     370:	4444535f 	0x4444535f
     374:	4449465f 	0x4449465f
     378:	52003032 	beqzl	s0,c444 <reboot_system+0xc28c>
     37c:	4c555345 	0x4c555345
     380:	4c505f54 	0x4c505f54
     384:	535f5941 	beql	k0,ra,1688c <reboot_system+0x166d4>
     388:	465f4444 	c1	0x5f4444
     38c:	31324449 	andi	s2,t1,0x4449
     390:	53455200 	beql	k0,a1,14b94 <reboot_system+0x149dc>
     394:	5f544c55 	0x5f544c55
     398:	59414c50 	0x59414c50
     39c:	4444535f 	0x4444535f
     3a0:	4449465f 	0x4449465f
     3a4:	52003332 	beqzl	s0,d070 <reboot_system+0xceb8>
     3a8:	4c555345 	0x4c555345
     3ac:	4c505f54 	0x4c505f54
     3b0:	535f5941 	beql	k0,ra,168b8 <reboot_system+0x16700>
     3b4:	465f4444 	c1	0x5f4444
     3b8:	34324449 	ori	s2,at,0x4449
     3bc:	53455200 	beql	k0,a1,14bc0 <reboot_system+0x14a08>
     3c0:	5f544c55 	0x5f544c55
     3c4:	59414c50 	0x59414c50
     3c8:	4444535f 	0x4444535f
     3cc:	4449465f 	0x4449465f
     3d0:	67003532 	0x67003532
     3d4:	6e65735f 	0x6e65735f
     3d8:	78655f64 	0x78655f64
     3dc:	6d5f7469 	0x6d5f7469
     3e0:	745f6d6d 	jalx	17db5b4 <reboot_system+0x17db3fc>
     3e4:	52007374 	beqzl	s0,1d1b8 <reboot_system+0x1d000>
     3e8:	4c555345 	0x4c555345
     3ec:	554e5f54 	bnel	t2,t6,18140 <reboot_system+0x17f88>
     3f0:	6f004c4c 	0x6f004c4c
     3f4:	675f6174 	0x675f6174
     3f8:	765f7465 	jalx	97dd194 <reboot_system+0x97dcfdc>
     3fc:	6e5f7265 	0x6e5f7265
     400:	6c006d75 	0x6c006d75
     404:	20676e6f 	addi	a3,v1,28271
     408:	69736e75 	0x69736e75
     40c:	64656e67 	0x64656e67
     410:	746e6920 	jalx	1b9a480 <reboot_system+0x1b9a2c8>
     414:	6e697200 	0x6e697200
     418:	6c615f67 	0x6c615f67
     41c:	006d7261 	0x6d7261
     420:	5f61746f 	0x5f61746f
     424:	6e696b62 	0x6e696b62
     428:	745f6f66 	jalx	17dbd98 <reboot_system+0x17dbbe0>
     42c:	53455200 	beql	k0,a1,14c30 <reboot_system+0x14a78>
     430:	5f544c55 	0x5f544c55
     434:	5f444948 	0x5f444948
     438:	444e4553 	0x444e4553
     43c:	59454b5f 	0x59454b5f
     440:	4556455f 	0x4556455f
     444:	5200544e 	beqzl	s0,15580 <reboot_system+0x153c8>
     448:	4c555345 	0x4c555345
     44c:	53555f54 	beql	k0,s5,181a0 <reboot_system+0x17fe8>
     450:	4f535f42 	c3	0x1535f42
     454:	00444e55 	0x444e55
     458:	5f6e6962 	0x5f6e6962
     45c:	626d756e 	0x626d756e
     460:	63007265 	0x63007265
     464:	656e6e6f 	0x656e6e6f
     468:	735f7463 	0x735f7463
     46c:	65746174 	0x65746174
     470:	62736d00 	0x62736d00
     474:	6f635f63 	0x6f635f63
     478:	665f6564 	0x665f6564
     47c:	0067616c 	0x67616c
     480:	735f6975 	0x735f6975
     484:	75746174 	jalx	5d185d0 <reboot_system+0x5d18418>
     488:	69730073 	0x69730073
     48c:	5f615f6d 	0x5f615f6d
     490:	52006e65 	beqzl	s0,1be28 <reboot_system+0x1bc70>
     494:	4c555345 	0x4c555345
     498:	41425f54 	0x41425f54
     49c:	535f4b43 	beql	k0,ra,131ac <reboot_system+0x12ff4>
     4a0:	454e4543 	0x454e4543
     4a4:	5349445f 	beql	k0,t1,11624 <reboot_system+0x1146c>
     4a8:	43544150 	c0	0x1544150
     4ac:	6e750048 	0x6e750048
     4b0:	6e676973 	0x6e676973
     4b4:	63206465 	0x63206465
     4b8:	00726168 	0x726168
     4bc:	55534552 	bnel	t2,s3,11a08 <reboot_system+0x11850>
     4c0:	415f544c 	0x415f544c
     4c4:	515f5050 	beql	t2,ra,14608 <reboot_system+0x14450>
     4c8:	00544955 	0x544955
     4cc:	65776f70 	0x65776f70
     4d0:	6e6f5f72 	0x6e6f5f72
     4d4:	616c665f 	0x616c665f
     4d8:	6c660067 	0x6c660067
     4dc:	0074616f 	0x74616f
     4e0:	335f7462 	andi	ra,k0,0x7462
     4e4:	5f796177 	0x5f796177
     4e8:	74617473 	jalx	185d1cc <reboot_system+0x185d014>
     4ec:	52007375 	beqzl	s0,1d2c4 <reboot_system+0x1d10c>
     4f0:	4c555345 	0x4c555345
     4f4:	4c425f54 	0x4c425f54
     4f8:	45544555 	0x45544555
     4fc:	5f485445 	0x5f485445
     500:	4c4c4143 	0x4c4c4143
     504:	6e6f6c00 	0x6e6f6c00
     508:	6f6c2067 	0x6f6c2067
     50c:	6920676e 	0x6920676e
     510:	6700746e 	0x6700746e
     514:	5f6f6e5f 	0x5f6f6e5f
     518:	70707573 	0x70707573
     51c:	5f74726f 	0x5f74726f
     520:	5f737474 	0x5f737474
     524:	67616c66 	0x67616c66
     528:	53455200 	beql	k0,a1,14d2c <reboot_system+0x14b74>
     52c:	5f544c55 	0x5f544c55
     530:	4c414944 	0x4c414944
     534:	525f474f 	beql	s2,ra,12274 <reboot_system+0x120bc>
     538:	59525445 	0x59525445
     53c:	53455200 	beql	k0,a1,14d40 <reboot_system+0x14b88>
     540:	5f544c55 	0x5f544c55
     544:	4953554d 	0x4953554d
     548:	50555f43 	beql	v0,s5,18258 <reboot_system+0x180a0>
     54c:	0059414c 	syscall	0x16505
     550:	7473616c 	jalx	1cd85b0 <reboot_system+0x1cd83f8>
     554:	7369645f 	udi15	k1,t1,t4,0x11
     558:	6556006b 	0x6556006b
     55c:	6f697372 	0x6f697372
     560:	4e47006e 	c3	0x47006e
     564:	20432055 	addi	v1,v0,8277
     568:	2e342e33 	sltiu	s4,s1,11827
     56c:	696d2034 	0x696d2034
     570:	64737370 	0x64737370
     574:	2e362d65 	sltiu	s6,s1,11621
     578:	302e3630 	andi	t6,at,0x3630
     57c:	30322d31 	andi	s2,at,0x2d31
     580:	34303730 	ori	s0,at,0x3730
     584:	73003032 	0x73003032
     588:	5f627574 	0x5f627574
     58c:	5f796870 	0x5f796870
     590:	65707974 	0x65707974
     594:	70666800 	0x70666800
     598:	7473655f 	jalx	1cd957c <reboot_system+0x1cd93c4>
     59c:	696c6261 	0x696c6261
     5a0:	64656873 	0x64656873
     5a4:	72657300 	0x72657300
     5a8:	6f635f76 	0x6f635f76
     5ac:	63006e6e 	0x63006e6e
     5b0:	67726168 	0x67726168
     5b4:	74735f65 	jalx	1cd7d94 <reboot_system+0x1cd7bdc>
     5b8:	00657461 	0x657461
     5bc:	55534552 	bnel	t2,s3,11b08 <reboot_system+0x11950>
     5c0:	525f544c 	beql	s2,ra,156f4 <reboot_system+0x1553c>
     5c4:	524f4345 	beql	s2,t7,112dc <reboot_system+0x11124>
     5c8:	494c5f44 	0x494c5f44
     5cc:	4e49454e 	c3	0x49454e
     5d0:	434f545f 	c0	0x14f545f
     5d4:	53455200 	beql	k0,a1,14dd8 <reboot_system+0x14c20>
     5d8:	5f544c55 	0x5f544c55
     5dc:	5f504352 	0x5f504352
     5e0:	575f434c 	bnel	k0,ra,11314 <reboot_system+0x1115c>
     5e4:	00544941 	0x544941
     5e8:	55534552 	bnel	t2,s3,11b34 <reboot_system+0x1197c>
     5ec:	525f544c 	beql	s2,ra,15720 <reboot_system+0x15568>
     5f0:	524f4345 	beql	s2,t7,11308 <reboot_system+0x11150>
     5f4:	494c5f44 	0x494c5f44
     5f8:	4e49454e 	c3	0x49454e
     5fc:	554f545f 	bnel	t2,t7,1577c <reboot_system+0x155c4>
     600:	6e617200 	0x6e617200
     604:	5f6d6f64 	0x5f6d6f64
     608:	5f677075 	0x5f677075
     60c:	0079656b 	0x79656b
     610:	5f737774 	0x5f737774
     614:	5f706668 	0x5f706668
     618:	5f6e6f63 	0x5f6e6f63
     61c:	67616c66 	0x67616c66
     620:	696e7300 	0x696e7300
     624:	735f6666 	0x735f6666
     628:	75746174 	jalx	5d185d0 <reboot_system+0x5d18418>
     62c:	45520073 	0x45520073
     630:	544c5553 	bnel	v0,t4,15b80 <reboot_system+0x159c8>
     634:	4149445f 	0x4149445f
     638:	5f474f4c 	0x5f474f4c
     63c:	5f425355 	0x5f425355
     640:	4e554f53 	c3	0x554f53
     644:	74730044 	jalx	1cc0110 <reboot_system+0x1cbff58>
     648:	745f6275 	jalx	17d89d4 <reboot_system+0x17d881c>
     64c:	736c6f6f 	0x736c6f6f
     650:	7079745f 	udi15	v1,t9,t6,0x11
     654:	61630065 	0x61630065
     658:	735f6472 	0x735f6472
     65c:	65746174 	0x65746174
     660:	5f774600 	0x5f774600
     664:	5f726556 	0x5f726556
     668:	5f670074 	0x5f670074
     66c:	5f757263 	0x5f757263
     670:	6b636170 	0x6b636170
     674:	756f635f 	jalx	5bd8d7c <reboot_system+0x5bd8bc4>
     678:	6500746e 	0x6500746e
     67c:	735f7272 	0x735f7272
     680:	75746174 	jalx	5d185d0 <reboot_system+0x5d18418>
     684:	32610073 	andi	at,s3,0x73
     688:	735f7064 	0x735f7064
     68c:	75746174 	jalx	5d185d0 <reboot_system+0x5d18418>
     690:	61700073 	0x61700073
     694:	695f7472 	0x695f7472
     698:	45520064 	0x45520064
     69c:	544c5553 	bnel	v0,t4,15bec <reboot_system+0x15a34>
     6a0:	4149445f 	0x4149445f
     6a4:	5f474f4c 	0x5f474f4c
     6a8:	594c4e4f 	0x594c4e4f
     6ac:	4148435f 	0x4148435f
     6b0:	00454752 	0x454752
     6b4:	735f7068 	0x735f7068
     6b8:	65746174 	0x65746174
     6bc:	64646100 	0x64646100
     6c0:	45520072 	0x45520072
     6c4:	544c5553 	bnel	v0,t4,15c14 <reboot_system+0x15a5c>
     6c8:	4f54535f 	c3	0x154535f
     6cc:	45535f50 	0x45535f50
     6d0:	48435241 	0x48435241
     6d4:	745f6700 	jalx	17d9c00 <reboot_system+0x17d9a48>
     6d8:	5f736968 	0x5f736968
     6dc:	5f707061 	0x5f707061
     6e0:	656d6974 	0x656d6974
     6e4:	61745f72 	0x61745f72
     6e8:	70610067 	0x70610067
     6ec:	6e695f70 	0x6e695f70
     6f0:	735f6f66 	0x735f6f66
     6f4:	65746174 	0x65746174
     6f8:	6c6c615f 	0x6c6c615f
     6fc:	4900745f 	bc2f	1d87c <reboot_system+0x1d6c4>
     700:	5538544e 	bnel	t1,t8,1583c <reboot_system+0x15684>
     704:	53455200 	beql	k0,a1,14f08 <reboot_system+0x14d50>
     708:	5f544c55 	0x5f544c55
     70c:	45544e45 	0x45544e45
     710:	50555f52 	beql	v0,s5,1845c <reboot_system+0x182a4>
     714:	44415247 	0x44415247
     718:	45520045 	0x45520045
     71c:	544c5553 	bnel	v0,t4,15c6c <reboot_system+0x15ab4>
     720:	4e4f4e5f 	c3	0x4f4e5f
     724:	56455f45 	bnel	s2,a1,1843c <reboot_system+0x18284>
     728:	00544e45 	0x544e45
     72c:	6f635f67 	0x6f635f67
     730:	63656e6e 	0x63656e6e
     734:	65725f74 	0x65725f74
     738:	52007970 	beqzl	s0,1ecfc <reboot_system+0x1eb44>
     73c:	4c555345 	0x4c555345
     740:	4c505f54 	0x4c505f54
     744:	535f5941 	beql	k0,ra,16c4c <reboot_system+0x16a94>
     748:	465f4444 	c1	0x5f4444
     74c:	32324449 	andi	s2,s1,0x4449
     750:	53455200 	beql	k0,a1,14f54 <reboot_system+0x14d9c>
     754:	5f544c55 	0x5f544c55
     758:	4953554d 	0x4953554d
     75c:	4c505f43 	0x4c505f43
     760:	74005941 	jalx	16504 <reboot_system+0x1634c>
     764:	65657268 	0x65657268
     768:	7961775f 	0x7961775f
     76c:	6174735f 	0x6174735f
     770:	00737574 	teq	v1,s3,0x1d5
     774:	65766177 	0x65766177
     778:	61645f73 	0x61645f73
     77c:	61705f65 	0x61705f65
     780:	755f6172 	jalx	57d85c8 <reboot_system+0x57d8410>
     784:	74616470 	jalx	18591c0 <reboot_system+0x1859008>
     788:	6c665f65 	0x6c665f65
     78c:	52006761 	beqzl	s0,1a514 <reboot_system+0x1a35c>
     790:	4c555345 	0x4c555345
     794:	4e455f54 	c3	0x455f54
     798:	5f524554 	0x5f524554
     79c:	52414c41 	beql	s2,at,138a4 <reboot_system+0x136ec>
     7a0:	6572004d 	0x6572004d
     7a4:	76726573 	jalx	9c995cc <reboot_system+0x9c99414>
     7a8:	73006465 	0x73006465
     7ac:	696c5f64 	0x696c5f64
     7b0:	766f5f73 	jalx	9bd7dcc <reboot_system+0x9bd7c14>
     7b4:	74786500 	jalx	1e19400 <reboot_system+0x1e19248>
     7b8:	5f6e7265 	0x5f6e7265
     7bc:	5f746162 	0x5f746162
     7c0:	67006e69 	0x67006e69
     7c4:	7070615f 	udi15	v1,s0,t4,0x5
     7c8:	666e695f 	0x666e695f
     7cc:	74735f6f 	jalx	1cd7dbc <reboot_system+0x1cd7c04>
     7d0:	5f657461 	0x5f657461
     7d4:	006c6c61 	0x6c6c61
     7d8:	55534552 	bnel	t2,s3,11d24 <reboot_system+0x11b6c>
     7dc:	495f544c 	0x495f544c
     7e0:	5f454c44 	0x5f454c44
     7e4:	45444f4d 	0x45444f4d
     7e8:	756f7300 	jalx	5bdcc00 <reboot_system+0x5bdca48>
     7ec:	735f646e 	0x735f646e
     7f0:	65746174 	0x65746174
     7f4:	76656400 	jalx	9959000 <reboot_system+0x9958e48>
     7f8:	7369645f 	udi15	k1,t1,t4,0x11
     7fc:	5f6e6f63 	0x5f6e6f63
     800:	6b636f6c 	0x6b636f6c
     804:	69617000 	0x69617000
     808:	54420072 	bnel	v0,v0,9d4 <.debug_str+0x9d4>
     80c:	5252455f 	beql	s2,s2,11d8c <reboot_system+0x11bd4>
     810:	4e494c5f 	c3	0x494c5f
     814:	5f59454b 	0x5f59454b
     818:	5353494d 	beql	k0,s3,12d50 <reboot_system+0x12b98>
     81c:	73777400 	0x73777400
     820:	7665645f 	jalx	995917c <reboot_system+0x9958fc4>
     824:	7369645f 	udi15	k1,t1,t4,0x11
     828:	006e6f63 	0x6e6f63
     82c:	55534552 	bnel	t2,s3,11d78 <reboot_system+0x11bc0>
     830:	435f544c 	c0	0x15f544c
     834:	49464e4f 	0x49464e4f
     838:	48435f47 	0x48435f47
     83c:	45475241 	0x45475241
     840:	4955515f 	0x4955515f
     844:	61620054 	0x61620054
     848:	735f7474 	0x735f7474
     84c:	6f707075 	0x6f707075
     850:	64657472 	0x64657472
     854:	73777400 	0x73777400
     858:	6961705f 	0x6961705f
     85c:	74735f72 	jalx	1cd7dc8 <reboot_system+0x1cd7c10>
     860:	73757461 	0x73757461
     864:	53455200 	beql	k0,a1,15068 <reboot_system+0x14eb0>
     868:	5f544c55 	0x5f544c55
     86c:	45554c42 	0x45554c42
     870:	54454554 	bnel	v0,a1,11dc4 <reboot_system+0x11c0c>
     874:	41435f48 	0x41435f48
     878:	425f4c4c 	c0	0x5f4c4c
     87c:	474b4341 	c1	0x14b4341
     880:	4e554f52 	c3	0x554f52
     884:	70610044 	0x70610044
     888:	65725f70 	0x65725f70
     88c:	746c7573 	jalx	1b1d5cc <reboot_system+0x1b1d414>
     890:	4600655f 	c1	0x655f
     894:	65565f77 	0x65565f77
     898:	6f4d5f72 	0x6f4d5f72
     89c:	656c7564 	0x656c7564
     8a0:	6200745f 	0x6200745f
     8a4:	6f705f74 	0x6f705f74
     8a8:	5f726577 	0x5f726577
     8ac:	63006e6f 	0x63006e6f
     8b0:	705f7572 	0x705f7572
     8b4:	5f6b6361 	0x5f6b6361
     8b8:	6e756f63 	0x6e756f63
     8bc:	696c0074 	0x696c0074
     8c0:	6e69656e 	0x6e69656e
     8c4:	6174735f 	0x6174735f
     8c8:	73006574 	0x73006574
     8cc:	656e6769 	0x656e6769
     8d0:	68632064 	0x68632064
     8d4:	52007261 	beqzl	s0,1d25c <reboot_system+0x1d0a4>
     8d8:	4c555345 	0x4c555345
     8dc:	45525f54 	0x45525f54
     8e0:	44524f43 	0x44524f43
     8e4:	4c50435f 	0x4c50435f
     8e8:	67005941 	0x67005941
     8ec:	7070615f 	udi15	v1,s0,t4,0x5
     8f0:	666e695f 	0x666e695f
     8f4:	74735f6f 	jalx	1cd7dbc <reboot_system+0x1cd7c04>
     8f8:	00657461 	0x657461
     8fc:	5f766564 	0x5f766564
     900:	63736964 	0x63736964
     904:	656e6e6f 	0x656e6e6f
     908:	6e697463 	0x6e697463
     90c:	45520067 	0x45520067
     910:	544c5553 	bnel	v0,t4,15e60 <reboot_system+0x15ca8>
     914:	5359535f 	beql	k0,t9,15694 <reboot_system+0x154dc>
     918:	5f4d4554 	0x5f4d4554
     91c:	54495845 	bnel	v0,t1,16a34 <reboot_system+0x1687c>
     920:	0033535f 	0x33535f
     924:	69676e65 	0x69676e65
     928:	735f656e 	0x735f656e
     92c:	65746174 	0x65746174
     930:	62657200 	0x62657200
     934:	5f746f6f 	0x5f746f6f
     938:	74737973 	jalx	1cde5cc <reboot_system+0x1cde414>
     93c:	62006d65 	0x62006d65
     940:	72655f74 	0x72655f74
     944:	00655f72 	tlt	v1,a1,0x17d
     948:	55534552 	bnel	t2,s3,11e94 <reboot_system+0x11cdc>
     94c:	445f544c 	0x445f544c
     950:	4f4c4149 	c3	0x14c4149
     954:	47495f47 	c1	0x1495f47
     958:	45524f4e 	0x45524f4e
     95c:	78696600 	0x78696600
     960:	6d61735f 	0x6d61735f
     964:	5f656c70 	0x5f656c70
     968:	65746172 	0x65746172
     96c:	616c665f 	0x616c665f
     970:	6f6d0067 	0x6f6d0067
     974:	656c7564 	0x656c7564
     978:	53455200 	beql	k0,a1,1517c <reboot_system+0x14fc4>
     97c:	5f544c55 	0x5f544c55
     980:	4f525245 	c3	0x1525245
     984:	45520052 	0x45520052
     988:	544c5553 	bnel	v0,t4,15ed8 <reboot_system+0x15d20>
     98c:	574f505f 	bnel	k0,t7,14b0c <reboot_system+0x14954>
     990:	4f5f5245 	c3	0x15f5245
     994:	52004646 	beqzl	s0,122b0 <reboot_system+0x120f8>
     998:	4c555345 	0x4c555345
     99c:	49445f54 	0x49445f54
     9a0:	474f4c41 	c1	0x14f4c41
     9a4:	5345595f 	beql	k0,a1,16f24 <reboot_system+0x16d6c>
     9a8:	53455200 	beql	k0,a1,151ac <reboot_system+0x14ff4>
     9ac:	5f544c55 	0x5f544c55
     9b0:	4c414944 	0x4c414944
     9b4:	415f474f 	0x415f474f
     9b8:	54524f42 	bnel	v0,s2,146c4 <reboot_system+0x1450c>
     9bc:	735f6700 	0x735f6700
     9c0:	5f646e65 	0x5f646e65
     9c4:	6f727265 	0x6f727265
     9c8:	756f635f 	jalx	5bd8d7c <reboot_system+0x5bd8bc4>
     9cc:	6100746e 	0x6100746e
     9d0:	705f7269 	0x705f7269
     9d4:	6c5f746b 	0x6c5f746b
     9d8:	6c006e65 	0x6c006e65
     9dc:	20676e6f 	addi	a3,v1,28271
     9e0:	00746e69 	0x746e69
     9e4:	55534552 	bnel	t2,s3,11f30 <reboot_system+0x11d78>
     9e8:	4e5f544c 	c3	0x5f544c
     9ec:	5f545845 	0x5f545845
     9f0:	434e5546 	c0	0x14e5546
     9f4:	4e4f4954 	c3	0x4f4954
     9f8:	53455200 	beql	k0,a1,151fc <reboot_system+0x15044>
     9fc:	5f544c55 	0x5f544c55
     a00:	4953554d 	0x4953554d
     a04:	50435f43 	beql	v0,v1,18714 <reboot_system+0x1855c>
     a08:	0059414c 	syscall	0x16505
     a0c:	75716e65 	jalx	5c5b994 <reboot_system+0x5c5b7dc>
     a10:	5f797269 	0x5f797269
     a14:	7373656d 	0x7373656d
     a18:	5f656761 	0x5f656761
     a1c:	45520074 	0x45520074
     a20:	544c5553 	bnel	v0,t4,15f70 <reboot_system+0x15db8>
     a24:	4345525f 	c0	0x145525f
     a28:	5f44524f 	0x5f44524f
     a2c:	545f4d46 	bnel	v0,ra,13f48 <reboot_system+0x13d90>
     a30:	5200434f 	beqzl	s0,11770 <reboot_system+0x115b8>
     a34:	4c555345 	0x4c555345
     a38:	45525f54 	0x45525f54
     a3c:	44524f43 	0x44524f43
     a40:	5f4d465f 	0x5f4d465f
     a44:	00554f54 	0x554f54
     a48:	6d5f6170 	0x6d5f6170
     a4c:	0065646f 	0x65646f
     a50:	62757473 	0x62757473
     a54:	5f63705f 	0x5f63705f
     a58:	6c6f6f74 	0x6c6f6f74
     a5c:	79745f73 	0x79745f73
     a60:	52006570 	beqzl	s0,1a024 <reboot_system+0x19e6c>
     a64:	4c555345 	0x4c555345
     a68:	4f435f54 	c3	0x1435f54
     a6c:	4e4f4d4d 	c3	0x4f4d4d
     a70:	5345525f 	beql	k0,a1,153f0 <reboot_system+0x15238>
     a74:	45565245 	0x45565245
     a78:	73657200 	0x73657200
     a7c:	64767265 	0x64767265
     a80:	73657200 	0x73657200
     a84:	65767265 	0x65767265
     a88:	6e697500 	0x6e697500
     a8c:	00363174 	teq	at,s6,0xc5
     a90:	5f706668 	0x5f706668
     a94:	72747461 	0x72747461
     a98:	616c7000 	0x616c7000
     a9c:	6e615f79 	0x6e615f79
     aa0:	61705f64 	0x61705f64
     aa4:	00657375 	0x657375
     aa8:	7473616c 	jalx	1cd85b0 <reboot_system+0x1cd83f8>
     aac:	6e75665f 	0x6e75665f
     ab0:	6e695f63 	0x6e695f63
     ab4:	00786564 	0x786564
     ab8:	55534552 	bnel	t2,s3,12004 <reboot_system+0x11e4c>
     abc:	455f544c 	0x455f544c
     ac0:	5245544e 	beql	s2,a1,15bfc <reboot_system+0x15a44>
     ac4:	41544f5f 	0x41544f5f
     ac8:	4e4f535f 	c3	0x4f535f
     acc:	45545f47 	0x45545f47
     ad0:	63005453 	0x63005453
     ad4:	00726168 	0x726168
     ad8:	7373656d 	0x7373656d
     adc:	5f656761 	0x5f656761
     ae0:	79706f63 	0x79706f63
     ae4:	61746f00 	0x61746f00
     ae8:	716e655f 	udi15	t3,t6,t4,0x15
     aec:	79726975 	0x79726975
     af0:	73656d5f 	udi15	k1,a1,t5,0x15
     af4:	65676173 	0x65676173
     af8:	6e6f6300 	0x6e6f6300
     afc:	7463656e 	jalx	18d95b8 <reboot_system+0x18d9400>
     b00:	7065725f 	udi15	v1,a1,t6,0x9
     b04:	745f796c 	jalx	17de5b0 <reboot_system+0x17de3f8>
     b08:	62616300 	0x62616300
     b0c:	735f656c 	0x735f656c
     b10:	65746174 	0x65746174
     b14:	6e697500 	0x6e697500
     b18:	00323374 	teq	at,s2,0xcd
     b1c:	6e655f70 	0x6e655f70
     b20:	79677265 	0x79677265
     b24:	6c61765f 	0x6c61765f
     b28:	665f6575 	0x665f6575
     b2c:	73716572 	0x73716572
     b30:	706d7400 	0x706d7400
     b34:	6d6f635f 	0x6d6f635f
     b38:	7063725f 	udi15	v1,v1,t6,0x9
     b3c:	666e695f 	0x666e695f
     b40:	4552006f 	0x4552006f
     b44:	544c5553 	bnel	v0,t4,16094 <reboot_system+0x15edc>
     b48:	544e455f 	bnel	v0,t6,120c8 <reboot_system+0x11f10>
     b4c:	535f5245 	beql	k0,ra,15464 <reboot_system+0x152ac>
     b50:	5f425554 	0x5f425554
     b54:	55424544 	bnel	t2,v0,12068 <reboot_system+0x11eb0>
     b58:	656d0047 	0x656d0047
     b5c:	67617373 	0x67617373
     b60:	79745f65 	0x79745f65
     b64:	61006570 	0x61006570
     b68:	735f6b70 	0x735f6b70
     b6c:	75746174 	jalx	5d185d0 <reboot_system+0x5d18418>
     b70:	70610073 	0x70610073
     b74:	6e695f70 	0x6e695f70
     b78:	735f6f66 	0x735f6f66
     b7c:	65746174 	0x65746174
     b80:	5200745f 	beqzl	s0,1dd00 <reboot_system+0x1db48>
     b84:	4c555345 	0x4c555345
     b88:	47495f54 	c1	0x1495f54
     b8c:	45524f4e 	0x45524f4e
     b90:	74756f00 	jalx	1d5bc00 <reboot_system+0x1d5ba48>
     b94:	705f7265 	0x705f7265
     b98:	6e6f5f61 	0x6e6f5f61
     b9c:	53455200 	beql	k0,a1,153a0 <reboot_system+0x151e8>
     ba0:	5f544c55 	0x5f544c55
     ba4:	45544e45 	0x45544e45
     ba8:	53555f52 	beql	k0,s5,188f4 <reboot_system+0x1873c>
     bac:	00315245 	0x315245
     bb0:	45524854 	0x45524854
     bb4:	41575f45 	0x41575f45
     bb8:	4f485f59 	c3	0x1485f59
     bbc:	4e5f444c 	c3	0x5f444c
     bc0:	455f544f 	0x455f544f
     bc4:	54534958 	bnel	v0,s3,13128 <reboot_system+0x12f70>
     bc8:	616c7000 	0x616c7000
     bcc:	74735f79 	jalx	1cd7de4 <reboot_system+0x1cd7c2c>
     bd0:	73757461 	0x73757461
     bd4:	616c665f 	0x616c665f
     bd8:	6f610067 	0x6f610067
     bdc:	6d5f7475 	0x6d5f7475
     be0:	0065646f 	0x65646f
     be4:	62757473 	0x62757473
     be8:	646f6d5f 	0x646f6d5f
     bec:	6c665f65 	0x6c665f65
     bf0:	52006761 	beqzl	s0,1a978 <reboot_system+0x1a7c0>
     bf4:	4c555345 	0x4c555345
     bf8:	414c5f54 	0x414c5f54
     bfc:	4c505453 	0x4c505453
     c00:	42005941 	c0	0x5941
     c04:	52455f54 	beql	s2,a1,18958 <reboot_system+0x187a0>
     c08:	57485f52 	bnel	k0,t0,18954 <reboot_system+0x1879c>
     c0c:	725f6700 	0x725f6700
     c10:	796c7065 	0x796c7065
     c14:	696b625f 	0x696b625f
     c18:	006f666e 	0x6f666e
     c1c:	74746162 	jalx	1d18588 <reboot_system+0x1d183d0>
     c20:	5f797265 	0x5f797265
     c24:	6f706572 	0x6f706572
     c28:	655f7472 	0x655f7472
     c2c:	6c62616e 	0x6c62616e
     c30:	6f640065 	0x6f640065
     c34:	656c6275 	0x656c6275
     c38:	53455200 	beql	k0,a1,1543c <reboot_system+0x15284>
     c3c:	5f544c55 	0x5f544c55
     c40:	464e4f43 	c1	0x4e4f43
     c44:	435f4749 	c0	0x15f4749
     c48:	47524148 	c1	0x1524148
     c4c:	65640045 	0x65640045
     c50:	6f725f76 	0x6f725f76
     c54:	7700656c 	jalx	c0195b0 <reboot_system+0xc0193f8>
     c58:	74635f64 	jalx	18d7d90 <reboot_system+0x18d7bd8>
     c5c:	6d745f6c 	0x6d745f6c
     c60:	744f0070 	jalx	13c01c0 <reboot_system+0x13c0008>
     c64:	63725f61 	0x63725f61
     c68:	5f715f70 	0x5f715f70
     c6c:	5f646d63 	0x5f646d63
     c70:	6c616564 	0x6c616564
     c74:	7200632e 	0x7200632e
     c78:	645f746d 	0x645f746d
     c7c:	64007665 	0x64007665
     c80:	31617461 	andi	at,t3,0x7461
     c84:	74616400 	jalx	1859000 <reboot_system+0x1858e48>
     c88:	64003261 	0x64003261
     c8c:	00617461 	0x617461
     c90:	61625f67 	0x61625f67
     c94:	70756b63 	0x70756b63
     c98:	7261705f 	udi15	s3,at,t6,0x1
     c9c:	64615f74 	0x64615f74
     ca0:	73007264 	0x73007264
     ca4:	6c5f6f63 	0x6c5f6f63
     ca8:	006b6e69 	0x6b6e69
     cac:	5f646c6f 	0x5f646c6f
     cb0:	5f6f6373 	0x5f6f6373
     cb4:	6b6e696c 	0x6b6e696c
     cb8:	53455200 	beql	k0,a1,154bc <reboot_system+0x15304>
     cbc:	5f544c55 	0x5f544c55
     cc0:	4c414944 	0x4c414944
     cc4:	4e5f474f 	c3	0x5f474f
     cc8:	4552004f 	0x4552004f
     ccc:	544c5553 	bnel	v0,t4,1621c <reboot_system+0x16064>
     cd0:	524f465f 	beql	s2,t7,12650 <reboot_system+0x12498>
     cd4:	545f4543 	bnel	v0,ra,121e4 <reboot_system+0x1202c>
     cd8:	535f5354 	beql	k0,ra,15a2c <reboot_system+0x15874>
     cdc:	00504f54 	0x504f54
     ce0:	6e6f6870 	0x6e6f6870
     ce4:	6d6f7465 	0x6d6f7465
     ce8:	65747361 	0x65747361
     cec:	6e6f6372 	0x6e6f6372
     cf0:	6f687000 	0x6f687000
     cf4:	6f74656e 	0x6f74656e
     cf8:	7473616d 	jalx	1cd85b4 <reboot_system+0x1cd83fc>
     cfc:	69647265 	0x69647265
     d00:	45520073 	0x45520073
     d04:	544c5553 	bnel	v0,t4,16254 <reboot_system+0x1609c>
     d08:	4149445f 	0x4149445f
     d0c:	5f474f4c 	0x5f474f4c
     d10:	74004b4f 	jalx	12d3c <reboot_system+0x12b84>
     d14:	635f7377 	0x635f7377
     d18:	656e6e6f 	0x656e6e6f
     d1c:	735f7463 	0x735f7463
     d20:	42006174 	c0	0x6174
     d24:	52455f54 	beql	s2,a1,18a78 <reboot_system+0x188c0>
     d28:	41505f52 	0x41505f52
     d2c:	545f4547 	bnel	v0,ra,1224c <reboot_system+0x12094>
     d30:	4f454d49 	c3	0x1454d49
     d34:	70005455 	udi5	zero,zero,t2,0x11
     d38:	656e655f 	0x656e655f
     d3c:	5f796772 	0x5f796772
     d40:	756c6176 	jalx	5b185d8 <reboot_system+0x5b18420>
     d44:	61625f65 	0x61625f65
     d48:	0073646e 	0x73646e
     d4c:	455f5442 	0x455f5442
     d50:	4e5f5252 	c3	0x5f5252
     d54:	00454e4f 	0x454e4f
     d58:	735f7462 	0x735f7462
     d5c:	6b636174 	0x6b636174
     d60:	666e695f 	0x666e695f
     d64:	00745f6f 	0x745f6f
     d68:	70643261 	0x70643261
     d6c:	7474615f 	jalx	1d1857c <reboot_system+0x1d183c4>
     d70:	6f6c0072 	0x6f6c0072
     d74:	6c20676e 	0x6c20676e
     d78:	20676e6f 	addi	a3,v1,28271
     d7c:	69736e75 	0x69736e75
     d80:	64656e67 	0x64656e67
     d84:	746e6920 	jalx	1b9a480 <reboot_system+0x1b9a2c8>
     d88:	5f746200 	0x5f746200
     d8c:	63617473 	0x63617473
     d90:	75735f6b 	jalx	5cd7dac <reboot_system+0x5cd7bf4>
     d94:	6e695f62 	0x6e695f62
     d98:	745f6f66 	jalx	17dbd98 <reboot_system+0x17dbbe0>
     d9c:	74796200 	jalx	1e58800 <reboot_system+0x1e58648>
     da0:	69007365 	0x69007365
     da4:	72656e6e 	0x72656e6e
     da8:	5f61705f 	0x5f61705f
     dac:	74696e69 	jalx	1a5b9a4 <reboot_system+0x1a5b7ec>
     db0:	64006465 	0x64006465
     db4:	745f7665 	jalx	17dd994 <reboot_system+0x17dd7dc>
     db8:	00657079 	0x657079
     dbc:	55534552 	bnel	t2,s3,12308 <reboot_system+0x12150>
     dc0:	455f544c 	0x455f544c
     dc4:	525f4453 	beql	s2,ra,11f14 <reboot_system+0x11d5c>
     dc8:	41545345 	0x41545345
     dcc:	61005452 	0x61005452
     dd0:	5f706432 	0x5f706432
     dd4:	69746361 	0x69746361
     dd8:	695f6576 	0x695f6576
     ddc:	45520064 	0x45520064
     de0:	544c5553 	bnel	v0,t4,16330 <reboot_system+0x16178>
     de4:	544e455f 	bnel	v0,t6,12364 <reboot_system+0x121ac>
     de8:	4f5f5245 	c3	0x15f5245
     dec:	555f4154 	bnel	t2,ra,11340 <reboot_system+0x11188>
     df0:	41524750 	0x41524750
     df4:	72004544 	0x72004544
     df8:	645f6365 	0x645f6365
     dfc:	5f617461 	0x5f617461
     e00:	74617473 	jalx	185d1cc <reboot_system+0x185d014>
     e04:	5f740065 	0x5f740065
     e08:	64616462 	0x64616462
     e0c:	65007264 	0x65007264
     e10:	725f6473 	0x725f6473
     e14:	74657365 	jalx	195cd94 <reboot_system+0x195cbdc>
     e18:	616c665f 	0x616c665f
     e1c:	53455200 	beql	k0,a1,15620 <reboot_system+0x15468>
     e20:	5f544c55 	0x5f544c55
     e24:	45544e45 	0x45544e45
     e28:	53415f52 	beql	k0,at,18b74 <reboot_system+0x189bc>
     e2c:	485f5451 	0x485f5451
     e30:	45545f46 	0x45545f46
     e34:	52005453 	beqzl	s0,15f84 <reboot_system+0x15dcc>
     e38:	4c555345 	0x4c555345
     e3c:	4e455f54 	c3	0x455f54
     e40:	5f524554 	0x5f524554
     e44:	454e494c 	0x454e494c
     e48:	68004e49 	0x68004e49
     e4c:	615f7066 	0x615f7066
     e50:	76697463 	jalx	9a5d18c <reboot_system+0x9a5cfd4>
     e54:	64695f65 	0x64695f65
     e58:	53455200 	beql	k0,a1,1565c <reboot_system+0x154a4>
     e5c:	5f544c55 	0x5f544c55
     e60:	4c414944 	0x4c414944
     e64:	435f474f 	c0	0x15f474f
     e68:	45434e41 	0x45434e41
     e6c:	4552004c 	0x4552004c
     e70:	544c5553 	bnel	v0,t4,163c0 <reboot_system+0x16208>
     e74:	4149445f 	0x4149445f
     e78:	5f474f4c 	0x5f474f4c
     e7c:	434e4143 	c0	0x14e4143
     e80:	415f4c45 	0x415f4c45
     e84:	004f5455 	0x4f5455
     e88:	75635f67 	jalx	58d7d9c <reboot_system+0x58d7be4>
     e8c:	65725f72 	0x65725f72
     e90:	74735f63 	jalx	1cd7d8c <reboot_system+0x1cd7bd4>
     e94:	00657461 	0x657461
     e98:	6779632f 	0x6779632f
     e9c:	76697264 	jalx	9a5c990 <reboot_system+0x9a5c7d8>
     ea0:	2f662f65 	sltiu	a2,k1,12133
     ea4:	74666f53 	jalx	199bd4c <reboot_system+0x199bb94>
     ea8:	6b64735f 	0x6b64735f
     eac:	3253552f 	andi	s3,s2,0x552f
     eb0:	5f413238 	0x5f413238
     eb4:	2f4b4453 	sltiu	t3,k0,17491
     eb8:	65736163 	0x65736163
     ebc:	2f70612f 	sltiu	s0,k1,24879
     ec0:	6d6d6f63 	0x6d6d6f63
     ec4:	632f6e6f 	0x632f6e6f
     ec8:	6f6d6d6f 	0x6f6d6d6f
     ecc:	746f5f6e 	jalx	1bd7db8 <reboot_system+0x1bd7c00>
     ed0:	45520061 	0x45520061
     ed4:	544c5553 	bnel	v0,t4,16424 <reboot_system+0x1626c>
     ed8:	414c415f 	0x414c415f
     edc:	535f4d52 	beql	k0,ra,14428 <reboot_system+0x14270>
     ee0:	5a4f4f4e 	0x5a4f4f4e
     ee4:	77660045 	jalx	d980114 <reboot_system+0xd97ff5c>
     ee8:	7265765f 	udi15	s3,a1,t6,0x19
     eec:	74656700 	jalx	1959c00 <reboot_system+0x1959a48>
     ef0:	7265765f 	udi15	s3,a1,t6,0x19
     ef4:	73656d5f 	udi15	k1,a1,t5,0x15
     ef8:	65676173 	0x65676173
     efc:	74617000 	jalx	185c000 <reboot_system+0x185be48>
     f00:	645f6863 	0x645f6863
     f04:	6c6e776f 	0x6c6e776f
     f08:	5f64616f 	0x5f64616f
     f0c:	67616c66 	0x67616c66
     f10:	65656e00 	0x65656e00
     f14:	70755f64 	0x70755f64
     f18:	65746164 	0x65746164
     f1c:	616c705f 	0x616c705f
     f20:	73696c79 	0x73696c79
     f24:	45520074 	0x45520074
     f28:	544c5553 	bnel	v0,t4,16478 <reboot_system+0x162c0>
     f2c:	4e414d5f 	c3	0x414d5f
     f30:	5f4c4155 	0x5f4c4155
     f34:	52414553 	beql	s2,at,12484 <reboot_system+0x122cc>
     f38:	445f4843 	0x445f4843
     f3c:	004e574f 	0x4e574f
     f40:	55534552 	bnel	t2,s3,1248c <reboot_system+0x122d4>
     f44:	535f544c 	beql	k0,ra,16078 <reboot_system+0x15ec0>
     f48:	45545359 	0x45545359
     f4c:	4e455f4d 	c3	0x455f4d
     f50:	5f524554 	0x5f524554
     f54:	61003353 	0x61003353
     f58:	735f7070 	0x735f7070
     f5c:	65746174 	0x65746174
     f60:	5f544200 	0x5f544200
     f64:	5f525245 	0x5f525245
     f68:	5f544f4e 	0x5f544f4e
     f6c:	55504f50 	bnel	t2,s0,14cb0 <reboot_system+0x14af8>
     f70:	49575f50 	0x49575f50
     f74:	574f444e 	bnel	k0,t7,120b0 <reboot_system+0x11ef8>
     f78:	656e6500 	0x656e6500
     f7c:	5f796772 	0x5f796772
     f80:	69617661 	0x69617661
     f84:	6c62616c 	0x6c62616c
     f88:	6c665f65 	0x6c665f65
     f8c:	75006761 	jalx	4019d84 <reboot_system+0x4019bcc>
     f90:	74736f68 	jalx	1cdbda0 <reboot_system+0x1cdbbe8>
     f94:	6174735f 	0x6174735f
     f98:	6c006574 	0x6c006574
     f9c:	5f747361 	0x5f747361
     fa0:	5f737973 	0x5f737973
     fa4:	74617473 	jalx	185d1cc <reboot_system+0x185d014>
     fa8:	70007375 	0x70007375
     fac:	6d6f635f 	0x6d6f635f
     fb0:	7063725f 	udi15	v1,v1,t6,0x9
     fb4:	696b625f 	0x696b625f
     fb8:	006f666e 	0x6f666e
     fbc:	6f747561 	0x6f747561
     fc0:	74736574 	jalx	1cd95d0 <reboot_system+0x1cd9418>
     fc4:	646f6d5f 	0x646f6d5f
     fc8:	45520065 	0x45520065
     fcc:	544c5553 	bnel	v0,t4,1651c <reboot_system+0x16364>
     fd0:	5455415f 	bnel	v0,s5,11550 <reboot_system+0x11398>
     fd4:	45535f4f 	0x45535f4f
     fd8:	48435241 	0x48435241
     fdc:	52485400 	beql	s2,t0,15fe0 <reboot_system+0x15e28>
     fe0:	575f4545 	bnel	k0,ra,124f8 <reboot_system+0x12340>
     fe4:	4e5f5941 	c3	0x5f5941
     fe8:	435f5745 	c0	0x15f5745
     fec:	5f4c4c41 	0x5f4c4c41
     ff0:	73004e49 	0x73004e49
     ff4:	74726f68 	jalx	1c9bda0 <reboot_system+0x1c9bbe8>
     ff8:	746e6920 	jalx	1b9a480 <reboot_system+0x1b9a2c8>
     ffc:	73657200 	0x73657200
    1000:	64767265 	0x64767265
    1004:	656d0032 	0x656d0032
    1008:	5f616964 	0x5f616964
    100c:	65707974 	0x65707974
    1010:	625f6700 	0x625f6700
    1014:	74735f74 	jalx	1cd7dd0 <reboot_system+0x1cd7c18>
    1018:	5f6b6361 	0x5f6b6361
    101c:	5f727563 	0x5f727563
    1020:	6f666e69 	0x6f666e69
    1024:	615f6700 	0x615f6700
    1028:	6c5f7070 	0x6c5f7070
    102c:	5f747361 	0x5f747361
    1030:	74617473 	jalx	185d1cc <reboot_system+0x185d014>
    1034:	Address 0x1034 is out of bounds.

Disassembly of section .comment:

00000000 <.comment>:
   0:	43434700 	c0	0x1434700
   4:	4728203a 	c1	0x128203a
   8:	2029554e 	addi	t1,at,21838
   c:	2e342e33 	sltiu	s4,s1,11827
  10:	696d2034 	0x696d2034
  14:	64737370 	0x64737370
  18:	2e362d65 	sltiu	s6,s1,11621
  1c:	302e3630 	andi	t6,at,0x3630
  20:	30322d31 	andi	s2,at,0x2d31
  24:	34303730 	ori	s0,at,0x3730
  28:	Address 0x28 is out of bounds.


Ota_rcp_reboot_cmd.o:     file format elf32-tradlittlemips

Disassembly of section .text:

00000000 <ota_restart_to_upgrade>:
   0:	64f4      	save	32,ra,s0-s1
   2:	b00b      	lw	s0,2c <ota_restart_to_upgrade+0x2c>
   4:	b10c      	lw	s1,34 <ota_restart_to_upgrade+0x34>
   6:	b50b      	lw	a1,30 <ota_restart_to_upgrade+0x30>
   8:	6790      	move	a0,s0
   a:	6e14      	li	a2,20
   c:	e940      	jalr	s1
   e:	6f12      	li	a3,18
  10:	b508      	lw	a1,30 <ota_restart_to_upgrade+0x30>
  12:	6a01      	li	v0,1
  14:	6790      	move	a0,s0
  16:	6e14      	li	a2,20
  18:	6f13      	li	a3,19
  1a:	e940      	jalr	s1
  1c:	c04a      	sb	v0,10(s0)
  1e:	1800 0000 	jal	0 <ota_restart_to_upgrade>
  22:	6500      	nop
  24:	6a00      	li	v0,0
  26:	6474      	restore	32,ra,s0-s1
  28:	e8a0      	jrc	ra
	...
  32:	0015      	addiu	s0,sp,84
  34:	0000      	addiu	s0,sp,0
	...

00000038 <ota_restart_to_clean_data>:
  38:	64f4      	save	32,ra,s0-s1
  3a:	6d00      	li	a1,0
  3c:	b120      	lw	s1,bc <ota_restart_to_clean_data+0x84>
  3e:	67c5      	move	a2,a1
  40:	0c11      	la	a0,84 <ota_restart_to_clean_data+0x4c>
  42:	e940      	jalr	s1
  44:	6f4b      	li	a3,75
  46:	b01f      	lw	s0,c0 <ota_restart_to_clean_data+0x88>
  48:	b51f      	lw	a1,c4 <ota_restart_to_clean_data+0x8c>
  4a:	6790      	move	a0,s0
  4c:	6e14      	li	a2,20
  4e:	e940      	jalr	s1
  50:	6f12      	li	a3,18
  52:	6c00      	li	a0,0
  54:	6b03      	li	v1,3
  56:	6d00      	li	a1,0
  58:	b21c      	lw	v0,c8 <ota_restart_to_clean_data+0x90>
  5a:	c083      	sb	a0,3(s0)
  5c:	c089      	sb	a0,9(s0)
  5e:	c062      	sb	v1,2(s0)
  60:	6c11      	li	a0,17
  62:	67c5      	move	a2,a1
  64:	ea40      	jalr	v0
  66:	6f06      	li	a3,6
  68:	2a05      	bnez	v0,74 <ota_restart_to_clean_data+0x3c>
  6a:	0c0f      	la	a0,a4 <ota_restart_to_clean_data+0x6c>
  6c:	67a2      	move	a1,v0
  6e:	67c2      	move	a2,v0
  70:	e940      	jalr	s1
  72:	6f4b      	li	a3,75
  74:	b514      	lw	a1,c4 <ota_restart_to_clean_data+0x8c>
  76:	6790      	move	a0,s0
  78:	6e14      	li	a2,20
  7a:	e940      	jalr	s1
  7c:	6f13      	li	a3,19
  7e:	6a00      	li	v0,0
  80:	6474      	restore	32,ra,s0-s1
  82:	e8a0      	jrc	ra
  84:	6572      	move	s3,v0
  86:	6563      	move	v1,v1
  88:	7669      	cmpi	a2,105
  8a:	2065      	beqz	s0,156 <ota_send_complete+0x8a>
  8c:	6572      	move	s3,v0
  8e:	7473      	cmpi	a0,115
  90:	7461      	cmpi	a0,97
  92:	6320      	addiu	sp,256
  94:	656c      	move	t3,a0
  96:	6e61      	li	a2,97
  98:	645f      	restore	120,ra,s1
  9a:	7461      	cmpi	a0,97
  9c:	2061      	beqz	s0,160 <ota_send_complete+0x94>
  9e:	4d43      	addiu	a1,67
  a0:	2144      	beqz	s1,12a <ota_send_complete+0x5e>
  a2:	0000      	addiu	s0,sp,0
  a4:	6c63      	li	a0,99
  a6:	6165      	btnez	172 <ota_send_complete+0xa6>
  a8:	2072      	beqz	s0,18e <ota_send_complete+0xc2>
  aa:	544f      	slti	a0,79
  ac:	2041      	beqz	s0,130 <ota_send_complete+0x64>
  ae:	6164      	btnez	178 <ota_send_complete+0xac>
  b0:	6174      	btnez	19a <ota_send_complete+0xce>
  b2:	6620      	0x6620
  b4:	6961      	li	s1,97
  b6:	216c      	beqz	s1,190 <ota_send_complete+0xc4>
  b8:	0021      	addiu	s0,sp,132
	...
  c6:	0015      	addiu	s0,sp,84
  c8:	0000      	addiu	s0,sp,0
	...

000000cc <ota_send_complete>:
  cc:	64f4      	save	32,ra,s0-s1
  ce:	b112      	lw	s1,114 <ota_send_complete+0x48>
  d0:	6d00      	li	a1,0
  d2:	67c5      	move	a2,a1
  d4:	0c0c      	la	a0,104 <ota_send_complete+0x38>
  d6:	e940      	jalr	s1
  d8:	6f4b      	li	a3,75
  da:	b010      	lw	s0,118 <ota_send_complete+0x4c>
  dc:	b510      	lw	a1,11c <ota_send_complete+0x50>
  de:	6790      	move	a0,s0
  e0:	6e14      	li	a2,20
  e2:	e940      	jalr	s1
  e4:	6f12      	li	a3,18
  e6:	b40f      	lw	a0,120 <ota_send_complete+0x54>
  e8:	6b02      	li	v1,2
  ea:	9c40      	lw	v0,0(a0)
  ec:	b50c      	lw	a1,11c <ota_send_complete+0x50>
  ee:	c062      	sb	v1,2(s0)
  f0:	6790      	move	a0,s0
  f2:	f020 c26b 	sb	v1,43(v0)
  f6:	6e14      	li	a2,20
  f8:	e940      	jalr	s1
  fa:	6f13      	li	a3,19
  fc:	6a00      	li	v0,0
  fe:	6474      	restore	32,ra,s0-s1
 100:	e8a0      	jrc	ra
 102:	0000      	addiu	s0,sp,0
 104:	6573      	move	s3,v1
 106:	646e      	restore	112,ra,s0
 108:	6320      	addiu	sp,256
 10a:	6d6f      	li	a1,111
 10c:	6c70      	li	a0,112
 10e:	7465      	cmpi	a0,101
 110:	0065      	addiu	s0,sp,404
	...
 11e:	0015      	addiu	s0,sp,84
 120:	0000      	addiu	s0,sp,0
	...
Disassembly of section .reginfo:

00000000 <.reginfo>:
   0:	800100ff 	lb	at,255(zero)
	...
Disassembly of section .pdr:

00000000 <.pdr>:
   0:	00000000 	nop
   4:	80030000 	lb	v1,0(zero)
   8:	fffffffc 	sdc3	$31,-4(ra)
	...
  14:	00000020 	add	zero,zero,zero
  18:	0000001d 	0x1d
  1c:	0000001f 	0x1f
  20:	00000000 	nop
  24:	80030000 	lb	v1,0(zero)
  28:	fffffffc 	sdc3	$31,-4(ra)
	...
  34:	00000020 	add	zero,zero,zero
  38:	0000001d 	0x1d
  3c:	0000001f 	0x1f
  40:	00000000 	nop
  44:	80030000 	lb	v1,0(zero)
  48:	fffffffc 	sdc3	$31,-4(ra)
	...
  54:	00000020 	add	zero,zero,zero
  58:	0000001d 	0x1d
  5c:	0000001f 	0x1f
Disassembly of section .debug_abbrev:

00000000 <.debug_abbrev>:
   0:	10011101 	beq	zero,at,4408 <ota_send_complete+0x433c>
   4:	11011206 	beq	t0,at,4820 <ota_send_complete+0x4754>
   8:	130e2501 	beq	t8,t6,9410 <ota_send_complete+0x9344>
   c:	1b0e030b 	0x1b0e030b
  10:	0200000e 	0x200000e
  14:	0e030024 	jal	80c0090 <ota_send_complete+0x80bffc4>
  18:	0b3e0b0b 	j	cf82c2c <ota_send_complete+0xcf82b60>
  1c:	16030000 	bne	s0,v1,20 <.debug_abbrev+0x20>
  20:	3a0e0300 	xori	t6,s0,0x300
  24:	490b3b0b 	bc2tl	$cc2,ec54 <ota_send_complete+0xeb88>
  28:	04000013 	bltz	zero,78 <.debug_abbrev+0x78>
  2c:	08030024 	j	c0090 <ota_send_complete+0xbffc4>
  30:	0b3e0b0b 	j	cf82c2c <ota_send_complete+0xcf82b60>
  34:	0f050000 	jal	c140000 <ota_send_complete+0xc13ff34>
  38:	000b0b00 	sll	at,t3,0xc
  3c:	01130600 	0x1130600
  40:	0b0b1301 	j	c2c4c04 <ota_send_complete+0xc2c4b38>
  44:	0b3b0b3a 	j	cec2ce8 <ota_send_complete+0xcec2c1c>
  48:	0d070000 	jal	41c0000 <ota_send_complete+0x41bff34>
  4c:	3a080300 	xori	t0,s0,0x300
  50:	490b3b0b 	bc2tl	$cc2,ec80 <ota_send_complete+0xebb4>
  54:	000a3813 	0xa3813
  58:	000d0800 	sll	at,t5,0x0
  5c:	0b3a0e03 	j	ce8380c <ota_send_complete+0xce83740>
  60:	13490b3b 	beq	k0,t1,2d50 <ota_send_complete+0x2c84>
  64:	00000a38 	0xa38
  68:	01010109 	0x1010109
  6c:	00134913 	0x134913
  70:	00210a00 	0x210a00
  74:	0b2f1349 	j	cbc4d24 <ota_send_complete+0xcbc4c58>
  78:	040b0000 	tltiu	zero,0
  7c:	0b130101 	j	c4c0404 <ota_send_complete+0xc4c0338>
  80:	3b0b3a0b 	xori	t3,t8,0x3a0b
  84:	0c00000b 	jal	2c <.debug_abbrev+0x2c>
  88:	0e030028 	jal	80c00a0 <ota_send_complete+0x80bffd4>
  8c:	00000d1c 	0xd1c
  90:	0300160d 	break	0x300,0x58
  94:	3b0b3a0e 	xori	t3,t8,0x3a0e
  98:	00134905 	0x134905
  9c:	01130e00 	0x1130e00
  a0:	0b0b1301 	j	c2c4c04 <ota_send_complete+0xc2c4b38>
  a4:	053b0b3a 	0x53b0b3a
  a8:	0d0f0000 	jal	43c0000 <ota_send_complete+0x43bff34>
  ac:	3a0e0300 	xori	t6,s0,0x300
  b0:	49053b0b 	bc2t	$cc1,ece0 <ota_send_complete+0xec14>
  b4:	000a3813 	0xa3813
  b8:	000d1000 	sll	v0,t5,0x0
  bc:	0b3a0e03 	j	ce8380c <ota_send_complete+0xce83740>
  c0:	1349053b 	beq	k0,t1,15b0 <ota_send_complete+0x14e4>
  c4:	0b0d0b0b 	j	c342c2c <ota_send_complete+0xc342b60>
  c8:	0a380b0c 	j	8e02c30 <ota_send_complete+0x8e02b64>
  cc:	0f110000 	jal	c440000 <ota_send_complete+0xc43ff34>
  d0:	490b0b00 	bc2tl	$cc2,2cd4 <ota_send_complete+0x2c08>
  d4:	12000013 	beqz	s0,124 <.debug_abbrev+0x124>
  d8:	1301012e 	beq	t8,at,594 <ota_send_complete+0x4c8>
  dc:	0e030c3f 	jal	80c30fc <ota_send_complete+0x80c3030>
  e0:	0b3b0b3a 	j	cec2ce8 <ota_send_complete+0xcec2c1c>
  e4:	13490c27 	beq	k0,t1,3184 <ota_send_complete+0x30b8>
  e8:	01120111 	0x1120111
  ec:	00000a40 	sll	at,zero,0x9
  f0:	03000513 	0x3000513
  f4:	3b0b3a0e 	xori	t3,t8,0x3a0e
  f8:	0213490b 	0x213490b
  fc:	1400000a 	bnez	zero,128 <.debug_abbrev+0x128>
 100:	08030034 	j	c00d0 <ota_send_complete+0xc0004>
 104:	0b3b0b3a 	j	cec2ce8 <ota_send_complete+0xcec2c1c>
 108:	0a021349 	j	8084d24 <ota_send_complete+0x8084c58>
 10c:	34150000 	li	s5,0x0
 110:	3a0e0300 	xori	t6,s0,0x300
 114:	490b3b0b 	bc2tl	$cc2,ed44 <ota_send_complete+0xec78>
 118:	3c0c3f13 	lui	t4,0x3f13
 11c:	1600000c 	bnez	s0,150 <ota_send_complete+0x84>
 120:	0e030034 	jal	80c00d0 <ota_send_complete+0x80c0004>
 124:	053b0b3a 	0x53b0b3a
 128:	0c3f1349 	jal	fc4d24 <ota_send_complete+0xfc4c58>
 12c:	00000c3c 	0xc3c
	...
Disassembly of section .debug_info:

00000000 <.debug_info>:
   0:	00000a01 	0xa01
   4:	00000002 	srl	zero,zero,0x0
   8:	01040000 	0x1040000
   c:	00000000 	nop
  10:	00000124 	0x124
  14:	00000000 	nop
  18:	00000492 	0x492
  1c:	00053e01 	0x53e01
  20:	000bbd00 	sll	s7,t3,0x14
  24:	03db0200 	0x3db0200
  28:	08010000 	j	40000 <ota_send_complete+0x3ff34>
  2c:	00062003 	sra	a0,a2,0x0
  30:	250f0600 	addiu	t7,t0,1536
  34:	02000000 	0x2000000
  38:	00000771 	tgeu	zero,zero,0x1d
  3c:	10020601 	beq	zero,v0,1844 <ota_send_complete+0x1778>
  40:	02000001 	movf	zero,s0,$fcc0
  44:	0cc20207 	jal	308081c <ota_send_complete+0x3080750>
  48:	05020000 	bltzl	t0,4c <.debug_info+0x4c>
  4c:	00033d02 	srl	a3,v1,0x14
  50:	02070400 	0x2070400
  54:	00000845 	0x845
  58:	07020504 	bltzl	t8,146c <ota_send_complete+0x13a0>
  5c:	04000004 	bltz	zero,70 <.debug_info+0x70>
  60:	0a330204 	j	8cc0810 <ota_send_complete+0x8cc0744>
  64:	04080000 	tgei	zero,0
  68:	000ad902 	srl	k1,t2,0x4
  6c:	02070800 	0x2070800
  70:	00000423 	0x423
  74:	14020508 	bne	zero,v0,1498 <ota_send_complete+0x13cc>
  78:	04000000 	bltz	zero,7c <.debug_info+0x7c>
  7c:	01db0307 	0x1db0307
  80:	15030000 	bne	t0,v1,84 <.debug_info+0x84>
  84:	00000025 	move	zero,zero
  88:	0008f303 	sra	s8,t0,0xc
  8c:	3e1d0300 	0x3e1d0300
  90:	03000000 	0x3000000
  94:	00000946 	0x946
  98:	00762503 	0x762503
  9c:	69040000 	0x69040000
  a0:	0400746e 	bltz	zero,1d25c <ota_send_complete+0x1d190>
  a4:	09250205 	j	4940814 <ota_send_complete+0x4940748>
  a8:	06010000 	bgez	s0,ac <.debug_info+0xac>
  ac:	00033d02 	srl	a3,v1,0x14
  b0:	05070400 	0x5070400
  b4:	00e80604 	0xe80604
  b8:	08080000 	j	200000 <ota_send_complete+0x1fff34>
  bc:	49500778 	0x49500778
  c0:	75080044 	jalx	4200110 <ota_send_complete+0x4200044>
  c4:	0000003e 	0x3e
  c8:	07002302 	bltz	t8,8cd4 <ota_send_complete+0x8c08>
  cc:	00444956 	0x444956
  d0:	003e7608 	0x3e7608
  d4:	23020000 	addi	v0,t8,0
  d8:	04780802 	0x4780802
  dc:	77080000 	jalx	c200000 <ota_send_complete+0xc1fff34>
  e0:	000000e8 	0xe8
  e4:	00042302 	srl	a0,a0,0xc
  e8:	0000f809 	jalr	zero
  ec:	0000a500 	sll	s4,zero,0x14
  f0:	00ac0a00 	0xac0a00
  f4:	00030000 	sll	zero,v1,0x0
  f8:	00056e03 	sra	t5,a1,0x18
  fc:	b5780800 	0xb5780800
 100:	06000000 	bltz	s0,104 <.debug_info+0x104>
 104:	00000198 	0x198
 108:	088f0814 	j	23c2050 <ota_send_complete+0x23c1f84>
 10c:	00000715 	0x715
 110:	00888408 	0x888408
 114:	23020000 	addi	v0,t8,0
 118:	05b30800 	bgezall	t5,211c <ota_send_complete+0x2050>
 11c:	85080000 	lh	t0,0(t0)
 120:	0000007d 	0x7d
 124:	08022302 	j	88c08 <ota_send_complete+0x88b3c>
 128:	000005c3 	sra	zero,zero,0x17
 12c:	007d8608 	0x7d8608
 130:	23020000 	addi	v0,t8,0
 134:	097a0803 	j	5e8200c <ota_send_complete+0x5e81f40>
 138:	87080000 	lh	t0,0(t8)
 13c:	00000088 	0x88
 140:	08042302 	j	108c08 <ota_send_complete+0x108b3c>
 144:	0000060e 	0x60e
 148:	00888808 	0x888808
 14c:	23020000 	addi	v0,t8,0
 150:	05880806 	tgei	t4,2054
 154:	89080000 	lwl	t0,0(t0)
 158:	0000007d 	0x7d
 15c:	08082302 	j	208c08 <ota_send_complete+0x208b3c>
 160:	0000019d 	0x19d
 164:	007d8a08 	0x7d8a08
 168:	23020000 	addi	v0,t8,0
 16c:	03810809 	0x3810809
 170:	8b080000 	lwl	t0,0(t8)
 174:	0000007d 	0x7d
 178:	080a2302 	j	288c08 <ota_send_complete+0x288b3c>
 17c:	000006b2 	tlt	zero,zero,0x1a
 180:	01988c08 	0x1988c08
 184:	23020000 	addi	v0,t8,0
 188:	004c080b 	movn	at,v0,t4
 18c:	8d080000 	lw	t0,0(t0)
 190:	000000f8 	0xf8
 194:	000c2302 	srl	a0,t4,0xc
 198:	0001a809 	0x1a809
 19c:	00007d00 	sll	t7,zero,0x14
 1a0:	00ac0a00 	0xac0a00
 1a4:	00000000 	nop
 1a8:	000b3b03 	sra	a3,t3,0xc
 1ac:	038f0800 	0x38f0800
 1b0:	0b000001 	j	c000004 <ota_send_complete+0xbffff38>
 1b4:	000003d2 	0x3d2
 1b8:	0ce00202 	jal	3800808 <ota_send_complete+0x380073c>
 1bc:	00000331 	tgeu	zero,zero,0xc
 1c0:	09b80c00 	j	6e03000 <ota_send_complete+0x6e02f34>
 1c4:	0c010000 	jal	40000 <ota_send_complete+0x3ff34>
 1c8:	0000063b 	0x63b
 1cc:	04eb0c02 	tltiu	a3,3074
 1d0:	0c030000 	jal	c0000 <ota_send_complete+0xbff34>
 1d4:	000008cd 	break	0x0,0x23
 1d8:	07ef0c20 	0x7ef0c20
 1dc:	01800000 	0x1800000
 1e0:	0003c00c 	syscall	0xf00
 1e4:	0c018100 	jal	60400 <ota_send_complete+0x60334>
 1e8:	000001e1 	0x1e1
 1ec:	950c0182 	lhu	t4,386(t0)
 1f0:	83000000 	lb	zero,0(t8)
 1f4:	02120c01 	0x2120c01
 1f8:	01840000 	0x1840000
 1fc:	000a840c 	syscall	0x2a10
 200:	0c018500 	jal	61400 <ota_send_complete+0x61334>
 204:	00000b13 	0xb13
 208:	8a0c01a1 	lwl	t4,417(s0)
 20c:	ff000001 	sdc3	$0,1(t8)
 210:	03e90c01 	0x3e90c01
 214:	02800000 	0x2800000
 218:	0006720c 	syscall	0x19c8
 21c:	0c028100 	jal	a0400 <ota_send_complete+0xa0334>
 220:	00000863 	0x863
 224:	5b0c0282 	0x5b0c0282
 228:	83000004 	lb	zero,4(t8)
 22c:	0b6a0c02 	j	da83008 <ota_send_complete+0xda82f3c>
 230:	02840000 	0x2840000
 234:	00002c0c 	syscall	0xb0
 238:	0c028500 	jal	a1400 <ota_send_complete+0xa1334>
 23c:	0000013b 	0x13b
 240:	0d0c0286 	jal	4300a18 <ota_send_complete+0x430094c>
 244:	87000004 	lh	zero,4(t8)
 248:	071b0c02 	0x71b0c02
 24c:	02880000 	0x2880000
 250:	00038c0c 	syscall	0xe30
 254:	0c028900 	jal	a2400 <ota_send_complete+0xa2334>
 258:	000007fc 	0x7fc
 25c:	790c028a 	0x790c028a
 260:	8b000001 	lwl	zero,1(t8)
 264:	00840c02 	0x840c02
 268:	028c0000 	0x28c0000
 26c:	00077d0c 	syscall	0x1df4
 270:	0c028d00 	jal	a3400 <ota_send_complete+0xa3334>
 274:	0000029b 	0x29b
 278:	d20c028e 	0xd20c028e
 27c:	8f000004 	lw	zero,4(t8)
 280:	08880c02 	j	2203008 <ota_send_complete+0x2202f3c>
 284:	02900000 	0x2900000
 288:	0000b70c 	syscall	0x2dc
 28c:	0c029100 	jal	a4400 <ota_send_complete+0xa4334>
 290:	000004fe 	0x4fe
 294:	9d0c0292 	0x9d0c0292
 298:	93000008 	lbu	zero,8(t8)
 29c:	00cd0c02 	0xcd0c02
 2a0:	02940000 	0x2940000
 2a4:	0009fe0c 	syscall	0x27f8
 2a8:	0c029500 	jal	a5400 <ota_send_complete+0xa5334>
 2ac:	0000084e 	0x84e
 2b0:	260c0296 	addiu	t4,s0,662
 2b4:	97000006 	lhu	zero,6(t8)
 2b8:	02020c02 	0x2020c02
 2bc:	02980000 	0x2980000
 2c0:	00069f0c 	syscall	0x1a7c
 2c4:	0c029900 	jal	a6400 <ota_send_complete+0xa6334>
 2c8:	00000bf7 	0xbf7
 2cc:	fd0c029a 	sdc3	$12,666(t0)
 2d0:	9b000000 	lwr	zero,0(t8)
 2d4:	01ae0c02 	0x1ae0c02
 2d8:	029c0000 	0x29c0000
 2dc:	000caf0c 	syscall	0x32bc
 2e0:	0c029d00 	jal	a7400 <ota_send_complete+0xa7334>
 2e4:	00000123 	0x123
 2e8:	340c029e 	li	t4,0x29e
 2ec:	9f00000c 	0x9f00000c
 2f0:	05d10c02 	bgezal	t6,32fc <ota_send_complete+0x3230>
 2f4:	02a00000 	0x2a00000
 2f8:	000a3a0c 	syscall	0x28e8
 2fc:	0c02a100 	jal	a8400 <ota_send_complete+0xa8334>
 300:	000006fb 	0x6fb
 304:	500c02a2 	beql	zero,t4,d90 <ota_send_complete+0xcc4>
 308:	a300000b 	sb	zero,11(t8)
 30c:	09d20c02 	j	7483008 <ota_send_complete+0x7482f3c>
 310:	02a40000 	0x2a40000
 314:	000c4e0c 	syscall	0x3138
 318:	0c02a500 	jal	a9400 <ota_send_complete+0xa9334>
 31c:	000007a2 	0x7a2
 320:	620c02a6 	0x620c02a6
 324:	a7000009 	sh	zero,9(t8)
 328:	0b000c02 	j	c003008 <ota_send_complete+0xc002f3c>
 32c:	02a80000 	0x2a80000
 330:	0006de0c 	syscall	0x1b78
 334:	0c02a900 	jal	aa400 <ota_send_complete+0xaa334>
 338:	0000090a 	0x90a
 33c:	320c02aa 	andi	t4,s0,0x2aa
 340:	ab000002 	swl	zero,2(t8)
 344:	02480c02 	0x2480c02
 348:	02ac0000 	0x2ac0000
 34c:	00025e0c 	syscall	0x978
 350:	0c02ad00 	jal	ab400 <ota_send_complete+0xab334>
 354:	00000274 	teq	zero,zero,0x9
 358:	af0c02ae 	sw	t4,686(t8)
 35c:	af000002 	sw	zero,2(t8)
 360:	02c50c02 	0x2c50c02
 364:	02b00000 	0x2b00000
 368:	00065c0c 	syscall	0x1970
 36c:	0c02b100 	jal	ac400 <ota_send_complete+0xac334>
 370:	000002db 	0x2db
 374:	f10c02b2 	0xf10c02b2
 378:	b3000002 	0xb3000002
 37c:	03070c02 	0x3070c02
 380:	02b40000 	0x2b40000
 384:	000aa30c 	syscall	0x2a8c
 388:	0c048000 	jal	120000 <ota_send_complete+0x11ff34>
 38c:	00000b7e 	0xb7e
 390:	1f0c0481 	0x1f0c0481
 394:	82000008 	lb	zero,8(s0)
 398:	04470c04 	0x4470c04
 39c:	04830000 	bgezl	a0,3a0 <.debug_info+0x3a0>
 3a0:	0007c50c 	syscall	0x1f14
 3a4:	0c048400 	jal	121000 <ota_send_complete+0x120f34>
 3a8:	0000080d 	break	0x0,0x20
 3ac:	730c0485 	0x730c0485
 3b0:	8600000a 	lh	zero,10(s0)
 3b4:	0b930c04 	j	e4c3010 <ota_send_complete+0xe4c2f44>
 3b8:	04870000 	0x4870000
 3bc:	0005260c 	syscall	0x1498
 3c0:	0c048800 	jal	122000 <ota_send_complete+0x121f34>
 3c4:	00000590 	0x590
 3c8:	670c0489 	0x670c0489
 3cc:	8a000003 	lwl	zero,3(s0)
 3d0:	3c0d0004 	lui	t5,0x4
 3d4:	02000007 	srav	zero,zero,s0
 3d8:	01b3017a 	0x1b3017a
 3dc:	ee090000 	swc3	$9,0(s0)
 3e0:	7d000003 	0x7d000003
 3e4:	0a000000 	j	8000000 <ota_send_complete+0x7ffff34>
 3e8:	000000ac 	0xac
 3ec:	330e0005 	andi	t6,t8,0x5
 3f0:	1c000005 	bgtz	zero,408 <.debug_info+0x408>
 3f4:	0f014005 	jal	c050014 <ota_send_complete+0xc04ff48>
 3f8:	0000015e 	0x15e
 3fc:	7d011805 	0x7d011805
 400:	02000000 	0x2000000
 404:	b80f0023 	swr	t7,35(zero)
 408:	05000007 	bltz	t0,428 <.debug_info+0x428>
 40c:	007d011a 	0x7d011a
 410:	23020000 	addi	v0,t8,0
 414:	0c650f01 	jal	1943c04 <ota_send_complete+0x1943b38>
 418:	1c050000 	0x1c050000
 41c:	00007d01 	0x7d01
 420:	02230200 	0x2230200
 424:	0003b60f 	0x3b60f
 428:	011e0500 	0x11e0500
 42c:	0000007d 	0x7d
 430:	0f032302 	jal	c0c8c08 <ota_send_complete+0xc0c8b3c>
 434:	00000431 	tgeu	zero,zero,0x10
 438:	7d012305 	0x7d012305
 43c:	02000000 	0x2000000
 440:	1d0f0423 	0x1d0f0423
 444:	05000003 	bltz	t0,454 <.debug_info+0x454>
 448:	007d0124 	0x7d0124
 44c:	23020000 	addi	v0,t8,0
 450:	03f91005 	0x3f91005
 454:	25050000 	addiu	a1,t0,0
 458:	00007d01 	0x7d01
 45c:	04040100 	0x4040100
 460:	10062302 	beq	zero,a2,906c <ota_send_complete+0x8fa0>
 464:	000009ef 	0x9ef
 468:	7d012605 	0x7d012605
 46c:	01000000 	0x1000000
 470:	23020004 	addi	v0,t8,4
 474:	06ef0f06 	0x6ef0f06
 478:	29050000 	slti	a1,t0,0
 47c:	00007d01 	0x7d01
 480:	07230200 	bgezl	t9,c84 <ota_send_complete+0xbb8>
 484:	0007da0f 	0x7da0f
 488:	012b0500 	0x12b0500
 48c:	0000007d 	0x7d
 490:	0f082302 	jal	c208c08 <ota_send_complete+0xc208b3c>
 494:	00000a1d 	0xa1d
 498:	7d012e05 	0x7d012e05
 49c:	02000000 	0x2000000
 4a0:	6f0f0923 	0x6f0f0923
 4a4:	0500000c 	bltz	t0,4d8 <.debug_info+0x4d8>
 4a8:	002c0131 	tgeu	at,t4,0x4
 4ac:	23020000 	addi	v0,t8,0
 4b0:	016a0f0a 	0x16a0f0a
 4b4:	32050000 	andi	a1,s0,0x0
 4b8:	00053301 	0x53301
 4bc:	0c230200 	jal	8c0800 <ota_send_complete+0x8c0734>
 4c0:	000ac40f 	0xac40f
 4c4:	01350500 	0x1350500
 4c8:	00000533 	tltu	zero,zero,0x14
 4cc:	0f102302 	jal	c408c08 <ota_send_complete+0xc408b3c>
 4d0:	0000094d 	break	0x0,0x25
 4d4:	33013605 	andi	at,t8,0x3605
 4d8:	02000005 	0x2000005
 4dc:	ba0f1423 	swr	t7,5155(s0)
 4e0:	05000008 	bltz	t0,504 <.debug_info+0x504>
 4e4:	007d0139 	0x7d0139
 4e8:	23020000 	addi	v0,t8,0
 4ec:	04b70f18 	0x4b70f18
 4f0:	3a050000 	xori	a1,s0,0x0
 4f4:	00007d01 	0x7d01
 4f8:	19230200 	0x19230200
 4fc:	00039d10 	0x39d10
 500:	013c0500 	0x13c0500
 504:	0000007d 	0x7d
 508:	02050301 	0x2050301
 50c:	84101a23 	lh	s0,6691(zero)
 510:	05000006 	bltz	t0,52c <.debug_info+0x52c>
 514:	007d013d 	0x7d013d
 518:	01010000 	0x1010000
 51c:	1a230204 	0x1a230204
 520:	0008eb10 	0x8eb10
 524:	013e0500 	0x13e0500
 528:	0000007d 	0x7d
 52c:	02000401 	0x2000401
 530:	11001a23 	beqz	t0,6dc0 <ota_send_complete+0x6cf4>
 534:	00004504 	0x4504
 538:	05f90d00 	0x5f90d00
 53c:	40050000 	mfc0	a1,c0_index
 540:	0003ee01 	0x3ee01
 544:	06cc0e00 	teqi	s6,3584
 548:	05180000 	0x5180000
 54c:	210f017a 	addi	t7,t0,378
 550:	05000000 	bltz	t0,554 <.debug_info+0x554>
 554:	002c0149 	0x2c0149
 558:	23020000 	addi	v0,t8,0
 55c:	08b20f00 	j	2c83c00 <ota_send_complete+0x2c83b34>
 560:	4b050000 	c2	0x1050000
 564:	00002c01 	0x2c01
 568:	01230200 	0x1230200
 56c:	0009e50f 	0x9e50f
 570:	014d0500 	0x14d0500
 574:	0000007d 	0x7d
 578:	0f022302 	jal	c088c08 <ota_send_complete+0xc088b3c>
 57c:	000000e3 	0xe3
 580:	7d014f05 	0x7d014f05
 584:	02000000 	0x2000000
 588:	630f0323 	0x630f0323
 58c:	05000005 	bltz	t0,5a4 <.debug_info+0x5a4>
 590:	007d0151 	0x7d0151
 594:	23020000 	addi	v0,t8,0
 598:	0c850f04 	jal	2143c10 <ota_send_complete+0x2143b44>
 59c:	53050000 	beql	t8,a1,5a0 <.debug_info+0x5a0>
 5a0:	00007d01 	0x7d01
 5a4:	05230200 	bgezl	t1,da8 <ota_send_complete+0xcdc>
 5a8:	0007640f 	0x7640f
 5ac:	01550500 	0x1550500
 5b0:	0000007d 	0x7d
 5b4:	0f062302 	jal	c188c08 <ota_send_complete+0xc188b3c>
 5b8:	0000093a 	0x93a
 5bc:	7d015705 	0x7d015705
 5c0:	02000000 	0x2000000
 5c4:	aa0f0723 	swl	t7,1827(s0)
 5c8:	05000005 	bltz	t0,5e0 <.debug_info+0x5e0>
 5cc:	002c0159 	0x2c0159
 5d0:	23020000 	addi	v0,t8,0
 5d4:	04c50f08 	0x4c50f08
 5d8:	5b050000 	0x5b050000
 5dc:	00007d01 	0x7d01
 5e0:	09230200 	j	48c0800 <ota_send_complete+0x48c0734>
 5e4:	0000f30f 	0xf30f
 5e8:	015d0500 	0x15d0500
 5ec:	0000007d 	0x7d
 5f0:	0f0a2302 	jal	c288c08 <ota_send_complete+0xc288b3c>
 5f4:	0000034f 	0x34f
 5f8:	2c015f05 	sltiu	at,zero,24325
 5fc:	02000000 	0x2000000
 600:	53100b23 	beql	t8,s0,3290 <ota_send_complete+0x31c4>
 604:	05000005 	bltz	t0,61c <.debug_info+0x61c>
 608:	007d0161 	0x7d0161
 60c:	07010000 	bgez	t8,610 <.debug_info+0x610>
 610:	0c230201 	jal	8c0804 <ota_send_complete+0x8c0738>
 614:	0004b710 	0x4b710
 618:	01620500 	0x1620500
 61c:	0000007d 	0x7d
 620:	02000101 	0x2000101
 624:	a10f0c23 	sb	t7,3107(t0)
 628:	0500000c 	bltz	t0,65c <.debug_info+0x65c>
 62c:	007d0164 	0x7d0164
 630:	23020000 	addi	v0,t8,0
 634:	0c0b0f0d 	jal	2c3c34 <ota_send_complete+0x2c3b68>
 638:	67050000 	0x67050000
 63c:	00002c01 	0x2c01
 640:	0e230200 	jal	88c0800 <ota_send_complete+0x88c0734>
 644:	0007490f 	0x7490f
 648:	01690500 	0x1690500
 64c:	0000002c 	0x2c
 650:	0f0f2302 	jal	c3c8c08 <ota_send_complete+0xc3c8b3c>
 654:	00000af0 	tge	zero,zero,0x2b
 658:	2c016b05 	sltiu	at,zero,27397
 65c:	02000000 	0x2000000
 660:	c60f1023 	lwc1	$f15,4131(s0)
 664:	05000009 	bltz	t0,68c <.debug_info+0x68c>
 668:	002c016d 	0x2c016d
 66c:	23020000 	addi	v0,t8,0
 670:	01f30f11 	0x1f30f11
 674:	6f050000 	0x6f050000
 678:	00007d01 	0x7d01
 67c:	12230200 	beq	s1,v1,e80 <ota_send_complete+0xdb4>
 680:	0001520f 	0x1520f
 684:	01710500 	0x1710500
 688:	0000007d 	0x7d
 68c:	0f132302 	jal	c4c8c08 <ota_send_complete+0xc4c8b3c>
 690:	0000099c 	0x99c
 694:	7d017305 	0x7d017305
 698:	02000000 	0x2000000
 69c:	000f1423 	0xf1423
 6a0:	05000000 	bltz	t0,6a4 <.debug_info+0x6a4>
 6a4:	007d0175 	0x7d0175
 6a8:	23020000 	addi	v0,t8,0
 6ac:	0c1f0f15 	jal	7c3c54 <ota_send_complete+0x7c3b88>
 6b0:	77050000 	jalx	c140000 <ota_send_complete+0xc13ff34>
 6b4:	00007d01 	0x7d01
 6b8:	16230200 	bne	s1,v1,ebc <ota_send_complete+0xdf0>
 6bc:	0006bb0f 	0x6bb0f
 6c0:	01790500 	0x1790500
 6c4:	0000007d 	0x7d
 6c8:	00172302 	srl	a0,s7,0xc
 6cc:	0009a70d 	break	0x9,0x29c
 6d0:	017a0500 	0x17a0500
 6d4:	00000545 	0x545
 6d8:	00071e0e 	0x71e0e
 6dc:	8a050400 	lwl	a1,1024(s0)
 6e0:	046e0f01 	tnei	v1,3841
 6e4:	83050000 	lb	a1,0(t8)
 6e8:	00007d01 	0x7d01
 6ec:	00230200 	0x230200
 6f0:	0008fa0f 	0x8fa0f
 6f4:	01850500 	0x1850500
 6f8:	0000007d 	0x7d
 6fc:	0f012302 	jal	c048c08 <ota_send_complete+0xc048b3c>
 700:	00000c91 	0xc91
 704:	7d018705 	0x7d018705
 708:	02000000 	0x2000000
 70c:	cc0f0223 	pref	0xf,547(zero)
 710:	05000001 	bltz	t0,718 <.debug_info+0x718>
 714:	007d0189 	0x7d0189
 718:	23020000 	addi	v0,t8,0
 71c:	8a0d0003 	lwl	t5,3(s0)
 720:	05000002 	bltz	t0,72c <.debug_info+0x72c>
 724:	06d8018a 	0x6d8018a
 728:	87060000 	lh	a2,0(t8)
 72c:	0e000007 	jal	800001c <ota_send_complete+0x7ffff50>
 730:	4c082607 	0x4c082607
 734:	07000000 	bltz	t8,738 <.debug_info+0x738>
 738:	0000f81f 	0xf81f
 73c:	00230200 	0x230200
 740:	00075508 	0x75508
 744:	88200700 	lwl	zero,1792(at)
 748:	02000000 	0x2000000
 74c:	88080823 	lwl	t0,2083(zero)
 750:	07000005 	bltz	t8,768 <.debug_info+0x768>
 754:	00007d21 	0x7d21
 758:	0a230200 	j	88c0800 <ota_send_complete+0x88c0734>
 75c:	000b2c08 	0xb2c08
 760:	7d220700 	0x7d220700
 764:	02000000 	0x2000000
 768:	b4080b23 	0xb4080b23
 76c:	0700000a 	bltz	t8,798 <.debug_info+0x798>
 770:	00007d24 	0x7d24
 774:	0c230200 	jal	8c0800 <ota_send_complete+0x8c0734>
 778:	0006b208 	0x6b208
 77c:	7d250700 	0x7d250700
 780:	02000000 	0x2000000
 784:	03000d23 	0x3000d23
 788:	00000876 	tne	zero,zero,0x21
 78c:	072a2607 	tlti	t9,9735
 790:	b7060000 	0xb7060000
 794:	10000007 	b	7b4 <.debug_info+0x7b4>
 798:	a8082c07 	swl	t0,11271(zero)
 79c:	07000003 	bltz	t8,7ac <.debug_info+0x7ac>
 7a0:	00007d2a 	0x7d2a
 7a4:	00230200 	0x230200
 7a8:	0006b208 	0x6b208
 7ac:	b72b0700 	0xb72b0700
 7b0:	02000007 	srav	zero,zero,s0
 7b4:	09000123 	j	400048c <ota_send_complete+0x40003c0>
 7b8:	000007c7 	0x7c7
 7bc:	0000007d 	0x7d
 7c0:	0000ac0a 	0xac0a
 7c4:	03000e00 	0x3000e00
 7c8:	0000092a 	0x92a
 7cc:	07922c07 	bltzall	gp,b7ec <ota_send_complete+0xb720>
 7d0:	3d060000 	0x3d060000
 7d4:	10000008 	b	7f8 <.debug_info+0x7f8>
 7d8:	a8083807 	swl	t0,14343(zero)
 7dc:	07000003 	bltz	t8,7ec <.debug_info+0x7ec>
 7e0:	00007d31 	tgeu	zero,zero,0x1f4
 7e4:	00230200 	0x230200
 7e8:	0008e308 	0x8e308
 7ec:	7d320700 	0x7d320700
 7f0:	02000000 	0x2000000
 7f4:	55080123 	bnel	t0,t0,c84 <ota_send_complete+0xbb8>
 7f8:	07000007 	bltz	t8,818 <.debug_info+0x818>
 7fc:	00008833 	tltu	zero,zero,0x220
 800:	02230200 	0x2230200
 804:	00051708 	0x51708
 808:	93340700 	lbu	s4,1792(t9)
 80c:	02000000 	0x2000000
 810:	88080423 	lwl	t0,1059(zero)
 814:	07000005 	bltz	t8,82c <.debug_info+0x82c>
 818:	00007d35 	0x7d35
 81c:	08230200 	j	8c0800 <ota_send_complete+0x8c0734>
 820:	000b2c08 	0xb2c08
 824:	7d360700 	0x7d360700
 828:	02000000 	0x2000000
 82c:	cc080923 	pref	0x8,2339(zero)
 830:	0700000c 	bltz	t8,864 <.debug_info+0x864>
 834:	0003de37 	0x3de37
 838:	0a230200 	j	88c0800 <ota_send_complete+0x88c0734>
 83c:	035a0300 	0x35a0300
 840:	38070000 	xori	a3,zero,0x0
 844:	000007d2 	0x7d2
 848:	0008a506 	0x8a506
 84c:	63073400 	0x63073400
 850:	00064d08 	0x64d08
 854:	c75d0700 	lwc1	$f29,1792(k0)
 858:	02000007 	srav	zero,zero,s0
 85c:	0e080023 	jal	820008c <ota_send_complete+0x81fffc0>
 860:	0700000a 	bltz	t8,88c <.debug_info+0x88c>
 864:	00083d5e 	0x83d5e
 868:	10230200 	beq	at,v1,106c <ota_send_complete+0xfa0>
 86c:	000bad08 	0xbad08
 870:	875f0700 	lh	ra,1792(k0)
 874:	02000007 	srav	zero,zero,s0
 878:	60082023 	0x60082023
 87c:	0700000a 	bltz	t8,8a8 <.debug_info+0x8a8>
 880:	00008860 	0x8860
 884:	2e230200 	sltiu	v1,s1,512
 888:	00057708 	0x57708
 88c:	88610700 	lwl	at,1792(v1)
 890:	02000000 	0x2000000
 894:	33083023 	andi	t0,t8,0x3023
 898:	07000008 	bltz	t8,8bc <.debug_info+0x8bc>
 89c:	00007d62 	0x7d62
 8a0:	32230200 	andi	v1,s1,0x200
 8a4:	00570300 	0x570300
 8a8:	63070000 	0x63070000
 8ac:	00000848 	0x848
 8b0:	00090012 	0x90012
 8b4:	09850100 	j	6140400 <ota_send_complete+0x6140334>
 8b8:	0f010000 	jal	c040000 <ota_send_complete+0xc03ff34>
 8bc:	0003d201 	0x3d201
 8c0:	00000000 	nop
 8c4:	00002c00 	sll	a1,zero,0x10
 8c8:	136d0100 	beq	k1,t5,ccc <ota_send_complete+0xc00>
 8cc:	00000a4f 	0xa4f
 8d0:	00930e01 	0x930e01
 8d4:	54010000 	bnel	zero,at,8d8 <.debug_info+0x8d8>
 8d8:	000a5513 	0xa5513
 8dc:	930e0100 	lbu	t6,256(t8)
 8e0:	01000000 	0x1000000
 8e4:	0a5b1355 	j	96c4d54 <ota_send_complete+0x96c4c88>
 8e8:	0e010000 	jal	8040000 <ota_send_complete+0x803ff34>
 8ec:	000000b3 	tltu	zero,zero,0x2
 8f0:	9a135601 	lwr	s3,22017(s0)
 8f4:	0100000a 	movz	zero,t0,zero
 8f8:	0000880e 	0x880e
 8fc:	00570100 	0x570100
 900:	00095d12 	0x95d12
 904:	006a0100 	0x6a0100
 908:	24010000 	li	at,0
 90c:	0003d201 	0x3d201
 910:	00000000 	nop
 914:	00008400 	sll	s0,zero,0x10
 918:	136d0100 	beq	k1,t5,d1c <ota_send_complete+0xc50>
 91c:	00000a4f 	0xa4f
 920:	00932301 	0x932301
 924:	54010000 	bnel	zero,at,928 <.debug_info+0x928>
 928:	000a5513 	0xa5513
 92c:	93230100 	lbu	v1,256(t9)
 930:	01000000 	0x1000000
 934:	0a5b1355 	j	96c4d54 <ota_send_complete+0x96c4c88>
 938:	23010000 	addi	at,t8,0
 93c:	000000b3 	tltu	zero,zero,0x2
 940:	9a135601 	lwr	s3,22017(s0)
 944:	0100000a 	movz	zero,t0,zero
 948:	00008823 	negu	s1,zero
 94c:	14570100 	bne	v0,s7,d50 <ota_send_complete+0xc84>
 950:	00746572 	tlt	v1,s4,0x195
 954:	00932601 	0x932601
 958:	52010000 	beql	s0,at,95c <.debug_info+0x95c>
 95c:	09ad1200 	j	6b44800 <ota_send_complete+0x6b44734>
 960:	80010000 	lb	at,0(zero)
 964:	01000004 	sllv	zero,zero,t0
 968:	03d20139 	0x3d20139
 96c:	00000000 	nop
 970:	01040000 	0x1040000
 974:	6d010000 	0x6d010000
 978:	000a4f13 	0xa4f13
 97c:	93380100 	lbu	t8,256(t9)
 980:	01000000 	0x1000000
 984:	0a551354 	j	9544d50 <ota_send_complete+0x9544c84>
 988:	38010000 	xori	at,zero,0x0
 98c:	00000093 	0x93
 990:	5b135501 	0x5b135501
 994:	0100000a 	movz	zero,t0,zero
 998:	0000b338 	0xb338
 99c:	13560100 	beq	k0,s6,da0 <ota_send_complete+0xcd4>
 9a0:	00000a9a 	0xa9a
 9a4:	00883801 	movf	a3,a0,$fcc2
 9a8:	57010000 	bnel	t8,at,9ac <.debug_info+0x9ac>
 9ac:	05e41500 	0x5e41500
 9b0:	8a040000 	lwl	a0,0(s0)
 9b4:	0000007d 	0x7d
 9b8:	c9160101 	lwc2	$22,257(t0)
 9bc:	05000006 	bltz	t0,9d8 <.debug_info+0x9d8>
 9c0:	0539019e 	0x539019e
 9c4:	01010000 	0x1010000
 9c8:	000cd516 	0xcd516
 9cc:	01a40500 	0x1a40500
 9d0:	0000071e 	0x71e
 9d4:	91160101 	lbu	s6,257(t0)
 9d8:	05000007 	bltz	t0,9f8 <.debug_info+0x9f8>
 9dc:	06cc01aa 	teqi	s6,426
 9e0:	01010000 	0x1010000
 9e4:	00003915 	0x3915
 9e8:	a8660700 	swl	a2,1792(v1)
 9ec:	01000001 	movf	zero,t0,$fcc0
 9f0:	01a41501 	0x1a41501
 9f4:	67070000 	0x67070000
 9f8:	000009fe 	0x9fe
 9fc:	04110101 	bal	e04 <ota_send_complete+0xd38>
 a00:	000008a5 	0x8a5
	...
Disassembly of section .debug_line:

00000000 <.debug_line>:
   0:	00000121 	0x121
   4:	00e60002 	0xe60002
   8:	01010000 	0x1010000
   c:	000a0efb 	0xa0efb
  10:	01010101 	0x1010101
  14:	01000000 	0x1000000
  18:	2e2e2f2e 	sltiu	t6,s1,12078
  1c:	2f2e2e2f 	sltiu	t6,t9,11823
  20:	692f2e2e 	0x692f2e2e
  24:	2e00636e 	sltiu	zero,s0,25454
  28:	2f2e2e2f 	sltiu	t6,t9,11823
  2c:	2e2f2e2e 	sltiu	t7,s1,11822
  30:	2e2e2f2e 	sltiu	t6,s1,12078
  34:	7073702f 	0x7073702f
  38:	6c65725f 	0x6c65725f
  3c:	636e692f 	0x636e692f
  40:	6564756c 	0x6564756c
  44:	2e2f2e00 	sltiu	t7,s1,11776
  48:	2e2e2f2e 	sltiu	t6,s1,12078
  4c:	2f2e2e2f 	sltiu	t6,t9,11823
  50:	702f2e2e 	0x702f2e2e
  54:	725f7073 	0x725f7073
  58:	692f6c65 	0x692f6c65
  5c:	756c636e 	jalx	5b18db8 <ota_send_complete+0x5b18cec>
  60:	752f6564 	jalx	4bd9590 <ota_send_complete+0x4bd94c4>
  64:	00736f63 	0x736f63
  68:	61744f00 	0x61744f00
  6c:	7063725f 	udi15	v1,v1,t6,0x9
  70:	6265725f 	0x6265725f
  74:	5f746f6f 	0x5f746f6f
  78:	2e646d63 	sltiu	a0,s3,28003
  7c:	00000063 	0x63
  80:	73616300 	0x73616300
  84:	79745f65 	0x79745f65
  88:	682e6570 	0x682e6570
  8c:	00000100 	sll	zero,zero,0x4
  90:	65707974 	0x65707974
  94:	2e747865 	sltiu	s4,s3,30821
  98:	00020068 	0x20068
  9c:	70706100 	0x70706100
  a0:	6d69745f 	0x6d69745f
  a4:	682e7265 	0x682e7265
  a8:	00000100 	sll	zero,zero,0x4
  ac:	6c707061 	0x6c707061
  b0:	682e6269 	0x682e6269
  b4:	00000100 	sll	zero,zero,0x4
  b8:	736f6375 	0x736f6375
  bc:	7079745f 	udi15	v1,t9,t6,0x11
  c0:	682e7365 	0x682e7365
  c4:	00000300 	sll	zero,zero,0xc
  c8:	6d6d6f43 	0x6d6d6f43
  cc:	6f5f6e6f 	0x6f5f6e6f
  d0:	682e6174 	0x682e6174
  d4:	00000100 	sll	zero,zero,0x4
  d8:	5f737973 	0x5f737973
  dc:	5f61746f 	0x5f61746f
  e0:	65746e69 	0x65746e69
  e4:	63616672 	0x63616672
  e8:	00682e65 	0x682e65
  ec:	00000002 	srl	zero,zero,0x0
  f0:	01020500 	0x1020500
  f4:	03000000 	0x3000000
  f8:	d52d010e 	ldc1	$f13,270(t1)
  fc:	03632c2a 	0x3632c2a
 100:	0865470a 	j	1951c28 <ota_send_complete+0x1951b5c>
 104:	b8b82e3e 	swr	t8,11838(a1)
 108:	2d442d2c 	sltiu	a0,t2,11564
 10c:	2d802d2a 	sltiu	zero,t4,11562
 110:	4e029f9d 	c3	0x29f9d
 114:	b9b82c13 	swr	t8,11283(t5)
 118:	292c2c2a 	slti	t4,t1,11306
 11c:	66482a2d 	0x66482a2d
 120:	01002702 	0x1002702
 124:	Address 0x124 is out of bounds.

Disassembly of section .debug_frame:

00000000 <.debug_frame>:
   0:	0000000c 	syscall
   4:	ffffffff 	sdc3	$31,-1(ra)
   8:	04010001 	b	10 <.debug_frame+0x10>
   c:	001d0c1f 	0x1d0c1f
  10:	00000020 	add	zero,zero,zero
	...
  1c:	0000002b 	sltu	zero,zero,zero
  20:	0e040e42 	jal	8103908 <ota_send_complete+0x810383c>
  24:	0e0c0e08 	jal	8303820 <ota_send_complete+0x8303754>
  28:	7d101120 	0x7d101120
  2c:	117e1111 	beq	t3,s8,4474 <ota_send_complete+0x43a8>
  30:	00007f1f 	0x7f1f
  34:	00000020 	add	zero,zero,zero
	...
  40:	0000004b 	0x4b
  44:	0e040e42 	jal	8103908 <ota_send_complete+0x810383c>
  48:	0e0c0e08 	jal	8303820 <ota_send_complete+0x8303754>
  4c:	7d101120 	0x7d101120
  50:	117e1111 	beq	t3,s8,4498 <ota_send_complete+0x43cc>
  54:	00007f1f 	0x7f1f
  58:	00000020 	add	zero,zero,zero
	...
  64:	00000037 	0x37
  68:	0e040e42 	jal	8103908 <ota_send_complete+0x810383c>
  6c:	0e0c0e08 	jal	8303820 <ota_send_complete+0x8303754>
  70:	7d101120 	0x7d101120
  74:	117e1111 	beq	t3,s8,44bc <ota_send_complete+0x43f0>
  78:	00007f1f 	0x7f1f
Disassembly of section .debug_pubnames:

00000000 <.debug_pubnames>:
   0:	0000005d 	0x5d
   4:	00000002 	srl	zero,zero,0x0
   8:	0a050000 	j	8140000 <ota_send_complete+0x813ff34>
   c:	08b00000 	j	2c00000 <ota_send_complete+0x2bfff34>
  10:	746f0000 	jalx	1bc0000 <ota_send_complete+0x1bbff34>
  14:	65725f61 	0x65725f61
  18:	72617473 	0x72617473
  1c:	6f745f74 	0x6f745f74
  20:	6770755f 	0x6770755f
  24:	65646172 	0x65646172
  28:	00090000 	sll	zero,t1,0x0
  2c:	61746f00 	0x61746f00
  30:	7365725f 	udi15	k1,a1,t6,0x9
  34:	74726174 	jalx	1c985d0 <ota_send_complete+0x1c98504>
  38:	5f6f745f 	0x5f6f745f
  3c:	61656c63 	0x61656c63
  40:	61645f6e 	0x61645f6e
  44:	5d006174 	bgtzl	t0,18618 <ota_send_complete+0x1854c>
  48:	6f000009 	0x6f000009
  4c:	735f6174 	0x735f6174
  50:	5f646e65 	0x5f646e65
  54:	706d6f63 	0x706d6f63
  58:	6574656c 	0x6574656c
  5c:	00000000 	nop
	...
Disassembly of section .debug_aranges:

00000000 <.debug_aranges>:
   0:	0000001c 	0x1c
   4:	00000002 	srl	zero,zero,0x0
   8:	00040000 	sll	zero,a0,0x0
	...
  14:	00000124 	0x124
	...
Disassembly of section .debug_str:

00000000 <.debug_str>:
   0:	69726576 	0x69726576
   4:	61636966 	0x61636966
   8:	6e6f6974 	0x6e6f6974
   c:	6174735f 	0x6174735f
  10:	00737574 	teq	v1,s3,0x1d5
  14:	69736e75 	0x69736e75
  18:	64656e67 	0x64656e67
  1c:	746e6920 	jalx	1b9a480 <ota_send_complete+0x1b9a3b4>
  20:	74756d00 	jalx	1d5b400 <ota_send_complete+0x1d5b334>
  24:	74735f65 	jalx	1cd7d94 <ota_send_complete+0x1cd7cc8>
  28:	00657461 	0x657461
  2c:	55534552 	bnel	t2,s3,11578 <ota_send_complete+0x114ac>
  30:	525f544c 	beql	s2,ra,15164 <ota_send_complete+0x15098>
  34:	4f494441 	c3	0x1494441
  38:	6f5f6700 	0x6f5f6700
  3c:	725f6174 	0x725f6174
  40:	6f747365 	0x6f747365
  44:	645f6572 	0x645f6572
  48:	00617461 	0x617461
  4c:	5f757263 	0x5f757263
  50:	61647075 	0x61647075
  54:	4f006174 	c3	0x1006174
  58:	6d5f4154 	0x6d5f4154
  5c:	6f6c6c61 	0x6f6c6c61
  60:	61705f63 	0x61705f63
  64:	5f6d6172 	0x5f6d6172
  68:	746f0074 	jalx	1bc01d0 <ota_send_complete+0x1bc0104>
  6c:	65725f61 	0x65725f61
  70:	72617473 	0x72617473
  74:	6f745f74 	0x6f745f74
  78:	656c635f 	0x656c635f
  7c:	645f6e61 	0x645f6e61
  80:	00617461 	0x617461
  84:	55534552 	bnel	t2,s3,115d0 <ota_send_complete+0x11504>
  88:	555f544c 	bnel	t2,ra,151bc <ota_send_complete+0x150f0>
  8c:	545f4253 	bnel	v0,ra,109dc <ota_send_complete+0x10910>
  90:	534e4152 	beql	k0,t6,105dc <ota_send_complete+0x10510>
  94:	53455200 	beql	k0,a1,14898 <ota_send_complete+0x147cc>
  98:	5f544c55 	0x5f544c55
  9c:	5f59454b 	0x5f59454b
  a0:	4e455645 	c3	0x455645
  a4:	45525f54 	0x45525f54
  a8:	4c414544 	0x4c414544
  ac:	5f59425f 	0x5f59425f
  b0:	4d4d4f43 	0x4d4d4f43
  b4:	52004e4f 	beqzl	s0,139f4 <ota_send_complete+0x13928>
  b8:	4c555345 	0x4c555345
  bc:	45525f54 	0x45525f54
  c0:	44524f43 	0x44524f43
  c4:	43494d5f 	c0	0x1494d5f
  c8:	434f545f 	c0	0x14f545f
  cc:	53455200 	beql	k0,a1,148d0 <ota_send_complete+0x14804>
  d0:	5f544c55 	0x5f544c55
  d4:	4f434552 	c3	0x1434552
  d8:	4d5f4452 	0x4d5f4452
  dc:	545f4349 	bnel	v0,ra,10e04 <ota_send_complete+0x10d38>
  e0:	6200554f 	0x6200554f
  e4:	6c6b6361 	0x6c6b6361
  e8:	74686769 	jalx	1a19da4 <ota_send_complete+0x1a19cd8>
  ec:	6174735f 	0x6174735f
  f0:	62006574 	0x62006574
  f4:	765f7461 	jalx	97dd184 <ota_send_complete+0x97dd0b8>
  f8:	65756c61 	0x65756c61
  fc:	53455200 	beql	k0,a1,14900 <ota_send_complete+0x14834>
 100:	5f544c55 	0x5f544c55
 104:	52414c41 	beql	s2,at,1320c <ota_send_complete+0x13140>
 108:	4c435f4d 	0x4c435f4d
 10c:	0045534f 	0x45534f
 110:	726f6873 	0x726f6873
 114:	6e752074 	0x6e752074
 118:	6e676973 	0x6e676973
 11c:	69206465 	0x69206465
 120:	5200746e 	beqzl	s0,1d2dc <ota_send_complete+0x1d210>
 124:	4c555345 	0x4c555345
 128:	414d5f54 	0x414d5f54
 12c:	4c41554e 	0x4c41554e
 130:	4145535f 	0x4145535f
 134:	5f484352 	0x5f484352
 138:	52005055 	beqzl	s0,14290 <ota_send_complete+0x141c4>
 13c:	4c555345 	0x4c555345
 140:	4c425f54 	0x4c425f54
 144:	45544555 	0x45544555
 148:	5f485445 	0x5f485445
 14c:	4e554f53 	c3	0x554f53
 150:	75630044 	jalx	58c0110 <ota_send_complete+0x58c0044>
 154:	75665f72 	jalx	5997dc8 <ota_send_complete+0x5997cfc>
 158:	695f636e 	0x695f636e
 15c:	6e650064 	0x6e650064
 160:	656e6967 	0x656e6967
 164:	7079745f 	udi15	v1,t9,t6,0x11
 168:	5f700065 	0x5f700065
 16c:	72656e65 	0x72656e65
 170:	765f7967 	jalx	97de59c <ota_send_complete+0x97de4d0>
 174:	65756c61 	0x65756c61
 178:	53455200 	beql	k0,a1,1497c <ota_send_complete+0x148b0>
 17c:	5f544c55 	0x5f544c55
 180:	5f574f4c 	0x5f574f4c
 184:	45574f50 	0x45574f50
 188:	45520052 	0x45520052
 18c:	544c5553 	bnel	v0,t4,156dc <ota_send_complete+0x15610>
 190:	5345545f 	beql	k0,a1,15310 <ota_send_complete+0x15244>
 194:	5f504154 	0x5f504154
 198:	54495551 	bnel	v0,t1,156e0 <ota_send_complete+0x15614>
 19c:	5f647500 	0x5f647500
 1a0:	00747461 	0x747461
 1a4:	544f5f67 	bnel	v0,t7,17f44 <ota_send_complete+0x17e78>
 1a8:	61765f41 	0x61765f41
 1ac:	45520072 	0x45520072
 1b0:	544c5553 	bnel	v0,t4,15700 <ota_send_complete+0x15634>
 1b4:	414c415f 	0x414c415f
 1b8:	525f4d52 	beql	s2,ra,13704 <ota_send_complete+0x13638>
 1bc:	5f474e49 	0x5f474e49
 1c0:	444c4f46 	0x444c4f46
 1c4:	535f5245 	beql	k0,ra,14adc <ota_send_complete+0x14a10>
 1c8:	004e4143 	0x4e4143
 1cc:	7473616c 	jalx	1cd85b0 <ota_send_complete+0x1cd84e4>
 1d0:	5f69755f 	0x5f69755f
 1d4:	74617473 	jalx	185d1cc <ota_send_complete+0x185d100>
 1d8:	75007375 	jalx	401cdd4 <ota_send_complete+0x401cd08>
 1dc:	38746e69 	xori	s4,v1,0x6e69
 1e0:	53455200 	beql	k0,a1,149e4 <ota_send_complete+0x14918>
 1e4:	5f544c55 	0x5f544c55
 1e8:	4e454353 	c3	0x454353
 1ec:	58455f45 	0x58455f45
 1f0:	63005449 	0x63005449
 1f4:	665f7275 	0x665f7275
 1f8:	5f636e75 	0x5f636e75
 1fc:	65646e69 	0x65646e69
 200:	45520078 	0x45520078
 204:	544c5553 	bnel	v0,t4,15754 <ota_send_complete+0x15688>
 208:	49414d5f 	0x49414d5f
 20c:	50415f4e 	beql	v0,at,17f48 <ota_send_complete+0x17e7c>
 210:	45520050 	0x45520050
 214:	544c5553 	bnel	v0,t4,15764 <ota_send_complete+0x15698>
 218:	5359535f 	beql	k0,t9,14f98 <ota_send_complete+0x14ecc>
 21c:	47534d5f 	c1	0x1534d5f
 220:	4445525f 	0x4445525f
 224:	5f4c4145 	0x5f4c4145
 228:	435f5942 	c0	0x15f5942
 22c:	4f4d4d4f 	c3	0x14d4d4f
 230:	4552004e 	0x4552004e
 234:	544c5553 	bnel	v0,t4,15784 <ota_send_complete+0x156b8>
 238:	414c505f 	0x414c505f
 23c:	44535f59 	0x44535f59
 240:	49465f44 	0x49465f44
 244:	00363144 	0x363144
 248:	55534552 	bnel	t2,s3,11794 <ota_send_complete+0x116c8>
 24c:	505f544c 	beql	v0,ra,15380 <ota_send_complete+0x152b4>
 250:	5f59414c 	0x5f59414c
 254:	5f444453 	0x5f444453
 258:	31444946 	andi	a0,t2,0x4946
 25c:	45520037 	0x45520037
 260:	544c5553 	bnel	v0,t4,157b0 <ota_send_complete+0x156e4>
 264:	414c505f 	0x414c505f
 268:	44535f59 	0x44535f59
 26c:	49465f44 	0x49465f44
 270:	00383144 	0x383144
 274:	55534552 	bnel	t2,s3,117c0 <ota_send_complete+0x116f4>
 278:	505f544c 	beql	v0,ra,153ac <ota_send_complete+0x152e0>
 27c:	5f59414c 	0x5f59414c
 280:	5f444453 	0x5f444453
 284:	31444946 	andi	a0,t2,0x4946
 288:	70610039 	0x70610039
 28c:	616c5f70 	0x616c5f70
 290:	735f7473 	0x735f7473
 294:	65746174 	0x65746174
 298:	5200745f 	beqzl	s0,1d418 <ota_send_complete+0x1d34c>
 29c:	4c555345 	0x4c555345
 2a0:	45525f54 	0x45525f54
 2a4:	44524f43 	0x44524f43
 2a8:	4c50555f 	0x4c50555f
 2ac:	52005941 	beqzl	s0,167b4 <ota_send_complete+0x166e8>
 2b0:	4c555345 	0x4c555345
 2b4:	4c505f54 	0x4c505f54
 2b8:	535f5941 	beql	k0,ra,167c0 <ota_send_complete+0x166f4>
 2bc:	465f4444 	c1	0x5f4444
 2c0:	30324449 	andi	s2,at,0x4449
 2c4:	53455200 	beql	k0,a1,14ac8 <ota_send_complete+0x149fc>
 2c8:	5f544c55 	0x5f544c55
 2cc:	59414c50 	0x59414c50
 2d0:	4444535f 	0x4444535f
 2d4:	4449465f 	0x4449465f
 2d8:	52003132 	beqzl	s0,c7a4 <ota_send_complete+0xc6d8>
 2dc:	4c555345 	0x4c555345
 2e0:	4c505f54 	0x4c505f54
 2e4:	535f5941 	beql	k0,ra,167ec <ota_send_complete+0x16720>
 2e8:	465f4444 	c1	0x5f4444
 2ec:	33324449 	andi	s2,t9,0x4449
 2f0:	53455200 	beql	k0,a1,14af4 <ota_send_complete+0x14a28>
 2f4:	5f544c55 	0x5f544c55
 2f8:	59414c50 	0x59414c50
 2fc:	4444535f 	0x4444535f
 300:	4449465f 	0x4449465f
 304:	52003432 	beqzl	s0,d3d0 <ota_send_complete+0xd304>
 308:	4c555345 	0x4c555345
 30c:	4c505f54 	0x4c505f54
 310:	535f5941 	beql	k0,ra,16818 <ota_send_complete+0x1674c>
 314:	465f4444 	c1	0x5f4444
 318:	35324449 	ori	s2,t1,0x4449
 31c:	735f6700 	0x735f6700
 320:	5f646e65 	0x5f646e65
 324:	74697865 	jalx	1a5e194 <ota_send_complete+0x1a5e0c8>
 328:	6d6d6d5f 	0x6d6d6d5f
 32c:	7374745f 	udi15	k1,s4,t6,0x11
 330:	53455200 	beql	k0,a1,14b34 <ota_send_complete+0x14a68>
 334:	5f544c55 	0x5f544c55
 338:	4c4c554e 	0x4c4c554e
 33c:	6e6f6c00 	0x6e6f6c00
 340:	6e752067 	0x6e752067
 344:	6e676973 	0x6e676973
 348:	69206465 	0x69206465
 34c:	7200746e 	0x7200746e
 350:	5f676e69 	0x5f676e69
 354:	72616c61 	0x72616c61
 358:	746f006d 	jalx	1bc01b4 <ota_send_complete+0x1bc00e8>
 35c:	6b625f61 	0x6b625f61
 360:	6f666e69 	0x6f666e69
 364:	5200745f 	beqzl	s0,1d4e4 <ota_send_complete+0x1d418>
 368:	4c555345 	0x4c555345
 36c:	49485f54 	0x49485f54
 370:	45535f44 	0x45535f44
 374:	4b5f444e 	c2	0x15f444e
 378:	455f5945 	0x455f5945
 37c:	544e4556 	bnel	v0,t6,118d8 <ota_send_complete+0x1180c>
 380:	62657200 	0x62657200
 384:	5f746f6f 	0x5f746f6f
 388:	00676c66 	0x676c66
 38c:	55534552 	bnel	t2,s3,118d8 <ota_send_complete+0x1180c>
 390:	555f544c 	bnel	t2,ra,154c4 <ota_send_complete+0x153f8>
 394:	535f4253 	beql	k0,ra,10ce4 <ota_send_complete+0x10c18>
 398:	444e554f 	0x444e554f
 39c:	6e696200 	0x6e696200
 3a0:	6d756e5f 	0x6d756e5f
 3a4:	00726562 	0x726562
 3a8:	6e6e6f63 	0x6e6e6f63
 3ac:	5f746365 	0x5f746365
 3b0:	74617473 	jalx	185d1cc <ota_send_complete+0x185d100>
 3b4:	69750065 	0x69750065
 3b8:	6174735f 	0x6174735f
 3bc:	00737574 	teq	v1,s3,0x1d5
 3c0:	55534552 	bnel	t2,s3,1190c <ota_send_complete+0x11840>
 3c4:	425f544c 	c0	0x5f544c
 3c8:	5f4b4341 	0x5f4b4341
 3cc:	4e454353 	c3	0x454353
 3d0:	49445f45 	0x49445f45
 3d4:	54415053 	bnel	v0,at,14524 <ota_send_complete+0x14458>
 3d8:	75004843 	jalx	401210c <ota_send_complete+0x4012040>
 3dc:	6769736e 	0x6769736e
 3e0:	2064656e 	addi	a0,v1,25966
 3e4:	72616863 	0x72616863
 3e8:	53455200 	beql	k0,a1,14bec <ota_send_complete+0x14b20>
 3ec:	5f544c55 	0x5f544c55
 3f0:	5f505041 	0x5f505041
 3f4:	54495551 	bnel	v0,t1,1593c <ota_send_complete+0x15870>
 3f8:	776f7000 	jalx	dbdc000 <ota_send_complete+0xdbdbf34>
 3fc:	6f5f7265 	0x6f5f7265
 400:	6c665f6e 	0x6c665f6e
 404:	66006761 	0x66006761
 408:	74616f6c 	jalx	185bdb0 <ota_send_complete+0x185bce4>
 40c:	53455200 	beql	k0,a1,14c10 <ota_send_complete+0x14b44>
 410:	5f544c55 	0x5f544c55
 414:	45554c42 	0x45554c42
 418:	54454554 	bnel	v0,a1,1196c <ota_send_complete+0x118a0>
 41c:	41435f48 	0x41435f48
 420:	6c004c4c 	0x6c004c4c
 424:	20676e6f 	addi	a3,v1,28271
 428:	676e6f6c 	0x676e6f6c
 42c:	746e6920 	jalx	1b9a480 <ota_send_complete+0x1b9a3b4>
 430:	6e5f6700 	0x6e5f6700
 434:	75735f6f 	jalx	5cd7dbc <ota_send_complete+0x5cd7cf0>
 438:	726f7070 	0x726f7070
 43c:	74745f74 	jalx	1d17dd0 <ota_send_complete+0x1d17d04>
 440:	6c665f73 	0x6c665f73
 444:	52006761 	beqzl	s0,1a1cc <ota_send_complete+0x1a100>
 448:	4c555345 	0x4c555345
 44c:	49445f54 	0x49445f54
 450:	474f4c41 	c1	0x14f4c41
 454:	5445525f 	bnel	v0,a1,14dd4 <ota_send_complete+0x14d08>
 458:	52005952 	beqzl	s0,169a4 <ota_send_complete+0x168d8>
 45c:	4c555345 	0x4c555345
 460:	554d5f54 	bnel	t2,t5,181b4 <ota_send_complete+0x180e8>
 464:	5f434953 	0x5f434953
 468:	414c5055 	0x414c5055
 46c:	616c0059 	0x616c0059
 470:	645f7473 	0x645f7473
 474:	006b7369 	0x6b7369
 478:	73726556 	udi6	k1,s2,t4,0x15
 47c:	006e6f69 	0x6e6f69
 480:	5f61746f 	0x5f61746f
 484:	646e6573 	0x646e6573
 488:	6d6f635f 	0x6d6f635f
 48c:	74656c70 	jalx	195b1c0 <ota_send_complete+0x195b0f4>
 490:	4e470065 	c3	0x470065
 494:	20432055 	addi	v1,v0,8277
 498:	2e342e33 	sltiu	s4,s1,11827
 49c:	696d2034 	0x696d2034
 4a0:	64737370 	0x64737370
 4a4:	2e362d65 	sltiu	s6,s1,11621
 4a8:	302e3630 	andi	t6,at,0x3630
 4ac:	30322d31 	andi	s2,at,0x2d31
 4b0:	34303730 	ori	s0,at,0x3730
 4b4:	73003032 	0x73003032
 4b8:	5f627574 	0x5f627574
 4bc:	5f796870 	0x5f796870
 4c0:	65707974 	0x65707974
 4c4:	61686300 	0x61686300
 4c8:	5f656772 	0x5f656772
 4cc:	74617473 	jalx	185d1cc <ota_send_complete+0x185d100>
 4d0:	45520065 	0x45520065
 4d4:	544c5553 	bnel	v0,t4,15a24 <ota_send_complete+0x15958>
 4d8:	4345525f 	c0	0x145525f
 4dc:	5f44524f 	0x5f44524f
 4e0:	454e494c 	0x454e494c
 4e4:	545f4e49 	bnel	v0,ra,13e0c <ota_send_complete+0x13d40>
 4e8:	5200434f 	beqzl	s0,11228 <ota_send_complete+0x1115c>
 4ec:	4c555345 	0x4c555345
 4f0:	43525f54 	c0	0x1525f54
 4f4:	434c5f50 	c0	0x14c5f50
 4f8:	4941575f 	0x4941575f
 4fc:	45520054 	0x45520054
 500:	544c5553 	bnel	v0,t4,15a50 <ota_send_complete+0x15984>
 504:	4345525f 	c0	0x145525f
 508:	5f44524f 	0x5f44524f
 50c:	454e494c 	0x454e494c
 510:	545f4e49 	bnel	v0,ra,13e38 <ota_send_complete+0x13d6c>
 514:	7200554f 	0x7200554f
 518:	6f646e61 	0x6f646e61
 51c:	70755f6d 	0x70755f6d
 520:	656b5f67 	0x656b5f67
 524:	45520079 	0x45520079
 528:	544c5553 	bnel	v0,t4,15a78 <ota_send_complete+0x159ac>
 52c:	4149445f 	0x4149445f
 530:	5f474f4c 	0x5f474f4c
 534:	5f425355 	0x5f425355
 538:	4e554f53 	c3	0x554f53
 53c:	744f0044 	jalx	13c0110 <ota_send_complete+0x13c0044>
 540:	63725f61 	0x63725f61
 544:	65725f70 	0x65725f70
 548:	746f6f62 	jalx	1bdbd88 <ota_send_complete+0x1bdbcbc>
 54c:	646d635f 	0x646d635f
 550:	7300632e 	0x7300632e
 554:	5f627574 	0x5f627574
 558:	6c6f6f74 	0x6c6f6f74
 55c:	79745f73 	0x79745f73
 560:	63006570 	0x63006570
 564:	5f647261 	0x5f647261
 568:	74617473 	jalx	185d1cc <ota_send_complete+0x185d100>
 56c:	77460065 	jalx	d180194 <ota_send_complete+0xd1800c8>
 570:	7265565f 	udi15	s3,a1,t2,0x19
 574:	6700745f 	0x6700745f
 578:	7572635f 	jalx	5c98d7c <ota_send_complete+0x5c98cb0>
 57c:	6361705f 	0x6361705f
 580:	6f635f6b 	0x6f635f6b
 584:	00746e75 	0x746e75
 588:	74726170 	jalx	1c985c0 <ota_send_complete+0x1c984f4>
 58c:	0064695f 	0x64695f
 590:	55534552 	bnel	t2,s3,11adc <ota_send_complete+0x11a10>
 594:	445f544c 	0x445f544c
 598:	4f4c4149 	c3	0x14c4149
 59c:	4e4f5f47 	c3	0x4f5f47
 5a0:	435f594c 	c0	0x15f594c
 5a4:	47524148 	c1	0x1524148
 5a8:	70680045 	0x70680045
 5ac:	6174735f 	0x6174735f
 5b0:	64006574 	0x64006574
 5b4:	6c6d776f 	0x6c6d776f
 5b8:	5f64616f 	0x5f64616f
 5bc:	74617473 	jalx	185d1cc <ota_send_complete+0x185d100>
 5c0:	75006575 	jalx	40195d4 <ota_send_complete+0x4019508>
 5c4:	74616470 	jalx	18591c0 <ota_send_complete+0x18590f4>
 5c8:	74735f61 	jalx	1cd7d84 <ota_send_complete+0x1cd7cb8>
 5cc:	65757461 	0x65757461
 5d0:	53455200 	beql	k0,a1,14dd4 <ota_send_complete+0x14d08>
 5d4:	5f544c55 	0x5f544c55
 5d8:	504f5453 	beql	v0,t7,15728 <ota_send_complete+0x1565c>
 5dc:	4145535f 	0x4145535f
 5e0:	00484352 	0x484352
 5e4:	68745f67 	0x68745f67
 5e8:	615f7369 	0x615f7369
 5ec:	745f7070 	jalx	17dc1c0 <ota_send_complete+0x17dc0f4>
 5f0:	72656d69 	0x72656d69
 5f4:	6761745f 	0x6761745f
 5f8:	70706100 	0x70706100
 5fc:	666e695f 	0x666e695f
 600:	74735f6f 	jalx	1cd7dbc <ota_send_complete+0x1cd7cf0>
 604:	5f657461 	0x5f657461
 608:	5f6c6c61 	0x5f6c6c61
 60c:	6f630074 	0x6f630074
 610:	656c706d 	0x656c706d
 614:	735f6574 	0x735f6574
 618:	5f646e65 	0x5f646e65
 61c:	006d756e 	0x6d756e
 620:	38544e49 	xori	s4,v0,0x4e49
 624:	45520055 	0x45520055
 628:	544c5553 	bnel	v0,t4,15b78 <ota_send_complete+0x15aac>
 62c:	544e455f 	bnel	v0,t6,11bac <ota_send_complete+0x11ae0>
 630:	555f5245 	bnel	t2,ra,14f48 <ota_send_complete+0x14e7c>
 634:	41524750 	0x41524750
 638:	52004544 	beqzl	s0,11b4c <ota_send_complete+0x11a80>
 63c:	4c555345 	0x4c555345
 640:	4f4e5f54 	c3	0x14e5f54
 644:	455f454e 	0x455f454e
 648:	544e4556 	bnel	v0,t6,11ba4 <ota_send_complete+0x11ad8>
 64c:	635f6700 	0x635f6700
 650:	656e6e6f 	0x656e6e6f
 654:	725f7463 	0x725f7463
 658:	00797065 	0x797065
 65c:	55534552 	bnel	t2,s3,11ba8 <ota_send_complete+0x11adc>
 660:	505f544c 	beql	v0,ra,15794 <ota_send_complete+0x156c8>
 664:	5f59414c 	0x5f59414c
 668:	5f444453 	0x5f444453
 66c:	32444946 	andi	a0,s2,0x4946
 670:	45520032 	0x45520032
 674:	544c5553 	bnel	v0,t4,15bc4 <ota_send_complete+0x15af8>
 678:	53554d5f 	beql	k0,s5,13bf8 <ota_send_complete+0x13b2c>
 67c:	505f4349 	beql	v0,ra,113a4 <ota_send_complete+0x112d8>
 680:	0059414c 	syscall	0x16505
 684:	65766177 	0x65766177
 688:	61645f73 	0x61645f73
 68c:	61705f65 	0x61705f65
 690:	755f6172 	jalx	57d85c8 <ota_send_complete+0x57d84fc>
 694:	74616470 	jalx	18591c0 <ota_send_complete+0x18590f4>
 698:	6c665f65 	0x6c665f65
 69c:	52006761 	beqzl	s0,1a424 <ota_send_complete+0x1a358>
 6a0:	4c555345 	0x4c555345
 6a4:	4e455f54 	c3	0x455f54
 6a8:	5f524554 	0x5f524554
 6ac:	52414c41 	beql	s2,at,137b4 <ota_send_complete+0x136e8>
 6b0:	6572004d 	0x6572004d
 6b4:	76726573 	jalx	9c995cc <ota_send_complete+0x9c99500>
 6b8:	65006465 	0x65006465
 6bc:	72657478 	0x72657478
 6c0:	61625f6e 	0x61625f6e
 6c4:	6e695f74 	0x6e695f74
 6c8:	615f6700 	0x615f6700
 6cc:	695f7070 	0x695f7070
 6d0:	5f6f666e 	0x5f6f666e
 6d4:	74617473 	jalx	185d1cc <ota_send_complete+0x185d100>
 6d8:	6c615f65 	0x6c615f65
 6dc:	4552006c 	0x4552006c
 6e0:	544c5553 	bnel	v0,t4,15c30 <ota_send_complete+0x15b64>
 6e4:	4c44495f 	0x4c44495f
 6e8:	4f4d5f45 	c3	0x14d5f45
 6ec:	73004544 	0x73004544
 6f0:	646e756f 	0x646e756f
 6f4:	6174735f 	0x6174735f
 6f8:	52006574 	beqzl	s0,19ccc <ota_send_complete+0x19c00>
 6fc:	4c555345 	0x4c555345
 700:	4f435f54 	c3	0x1435f54
 704:	4749464e 	c1	0x149464e
 708:	4148435f 	0x4148435f
 70c:	5f454752 	0x5f454752
 710:	54495551 	bnel	v0,t1,15c58 <ota_send_complete+0x15b8c>
 714:	67616d00 	0x67616d00
 718:	52006369 	beqzl	s0,194c0 <ota_send_complete+0x193f4>
 71c:	4c555345 	0x4c555345
 720:	4c425f54 	0x4c425f54
 724:	45544555 	0x45544555
 728:	5f485445 	0x5f485445
 72c:	4c4c4143 	0x4c4c4143
 730:	4341425f 	c0	0x141425f
 734:	4f52474b 	c3	0x152474b
 738:	00444e55 	0x444e55
 73c:	5f707061 	0x5f707061
 740:	75736572 	jalx	5cd95c8 <ota_send_complete+0x5cd94fc>
 744:	655f746c 	0x655f746c
 748:	5f746200 	0x5f746200
 74c:	65776f70 	0x65776f70
 750:	6e6f5f72 	0x6e6f5f72
 754:	75726300 	jalx	5c98c00 <ota_send_complete+0x5c98b34>
 758:	6361705f 	0x6361705f
 75c:	6f635f6b 	0x6f635f6b
 760:	00746e75 	0x746e75
 764:	656e696c 	0x656e696c
 768:	735f6e69 	0x735f6e69
 76c:	65746174 	0x65746174
 770:	67697300 	0x67697300
 774:	2064656e 	addi	a0,v1,25966
 778:	72616863 	0x72616863
 77c:	53455200 	beql	k0,a1,14f80 <ota_send_complete+0x14eb4>
 780:	5f544c55 	0x5f544c55
 784:	4f434552 	c3	0x1434552
 788:	435f4452 	c0	0x15f4452
 78c:	59414c50 	0x59414c50
 790:	615f6700 	0x615f6700
 794:	695f7070 	0x695f7070
 798:	5f6f666e 	0x5f6f666e
 79c:	74617473 	jalx	185d1cc <ota_send_complete+0x185d100>
 7a0:	45520065 	0x45520065
 7a4:	544c5553 	bnel	v0,t4,15cf4 <ota_send_complete+0x15c28>
 7a8:	5359535f 	beql	k0,t9,15528 <ota_send_complete+0x1545c>
 7ac:	5f4d4554 	0x5f4d4554
 7b0:	54495845 	bnel	v0,t1,168c8 <ota_send_complete+0x167fc>
 7b4:	0033535f 	0x33535f
 7b8:	69676e65 	0x69676e65
 7bc:	735f656e 	0x735f656e
 7c0:	65746174 	0x65746174
 7c4:	53455200 	beql	k0,a1,14fc8 <ota_send_complete+0x14efc>
 7c8:	5f544c55 	0x5f544c55
 7cc:	4c414944 	0x4c414944
 7d0:	495f474f 	0x495f474f
 7d4:	524f4e47 	beql	s2,t7,140f4 <ota_send_complete+0x14028>
 7d8:	69660045 	0x69660045
 7dc:	61735f78 	0x61735f78
 7e0:	656c706d 	0x656c706d
 7e4:	7461725f 	jalx	185c97c <ota_send_complete+0x185c8b0>
 7e8:	6c665f65 	0x6c665f65
 7ec:	52006761 	beqzl	s0,1a574 <ota_send_complete+0x1a4a8>
 7f0:	4c555345 	0x4c555345
 7f4:	52455f54 	beql	s2,a1,18548 <ota_send_complete+0x1847c>
 7f8:	00524f52 	0x524f52
 7fc:	55534552 	bnel	t2,s3,11d48 <ota_send_complete+0x11c7c>
 800:	505f544c 	beql	v0,ra,15934 <ota_send_complete+0x15868>
 804:	5245574f 	beql	s2,a1,16544 <ota_send_complete+0x16478>
 808:	46464f5f 	c1	0x464f5f
 80c:	53455200 	beql	k0,a1,15010 <ota_send_complete+0x14f44>
 810:	5f544c55 	0x5f544c55
 814:	4c414944 	0x4c414944
 818:	595f474f 	0x595f474f
 81c:	52005345 	beqzl	s0,15534 <ota_send_complete+0x15468>
 820:	4c555345 	0x4c555345
 824:	49445f54 	0x49445f54
 828:	474f4c41 	c1	0x14f4c41
 82c:	4f42415f 	c3	0x142415f
 830:	67005452 	0x67005452
 834:	6e65735f 	0x6e65735f
 838:	72655f64 	0x72655f64
 83c:	635f6f72 	0x635f6f72
 840:	746e756f 	jalx	1b9d5bc <ota_send_complete+0x1b9d4f0>
 844:	6e6f6c00 	0x6e6f6c00
 848:	6e692067 	0x6e692067
 84c:	45520074 	0x45520074
 850:	544c5553 	bnel	v0,t4,15da0 <ota_send_complete+0x15cd4>
 854:	58454e5f 	0x58454e5f
 858:	55465f54 	bnel	t2,a2,185ac <ota_send_complete+0x184e0>
 85c:	4954434e 	0x4954434e
 860:	52004e4f 	beqzl	s0,141a0 <ota_send_complete+0x140d4>
 864:	4c555345 	0x4c555345
 868:	554d5f54 	bnel	t2,t5,185bc <ota_send_complete+0x184f0>
 86c:	5f434953 	0x5f434953
 870:	414c5043 	0x414c5043
 874:	6e650059 	0x6e650059
 878:	72697571 	0x72697571
 87c:	656d5f79 	0x656d5f79
 880:	67617373 	0x67617373
 884:	00745f65 	0x745f65
 888:	55534552 	bnel	t2,s3,11dd4 <ota_send_complete+0x11d08>
 88c:	525f544c 	beql	s2,ra,159c0 <ota_send_complete+0x158f4>
 890:	524f4345 	beql	s2,t7,115a8 <ota_send_complete+0x114dc>
 894:	4d465f44 	0x4d465f44
 898:	434f545f 	c0	0x14f545f
 89c:	53455200 	beql	k0,a1,150a0 <ota_send_complete+0x14fd4>
 8a0:	5f544c55 	0x5f544c55
 8a4:	4f434552 	c3	0x1434552
 8a8:	465f4452 	c1	0x5f4452
 8ac:	4f545f4d 	c3	0x1545f4d
 8b0:	61700055 	0x61700055
 8b4:	646f6d5f 	0x646f6d5f
 8b8:	74730065 	jalx	1cc0194 <ota_send_complete+0x1cc00c8>
 8bc:	705f6275 	0x705f6275
 8c0:	6f745f63 	0x6f745f63
 8c4:	5f736c6f 	0x5f736c6f
 8c8:	65707974 	0x65707974
 8cc:	53455200 	beql	k0,a1,150d0 <ota_send_complete+0x15004>
 8d0:	5f544c55 	0x5f544c55
 8d4:	4d4d4f43 	0x4d4d4f43
 8d8:	525f4e4f 	beql	s2,ra,14218 <ota_send_complete+0x1414c>
 8dc:	52455345 	beql	s2,a1,155f4 <ota_send_complete+0x15528>
 8e0:	72004556 	udi6	s0,zero,t0,0x15
 8e4:	72657365 	0x72657365
 8e8:	72006476 	0x72006476
 8ec:	72657365 	0x72657365
 8f0:	75006576 	jalx	40195d8 <ota_send_complete+0x401950c>
 8f4:	31746e69 	andi	s4,t3,0x6e69
 8f8:	616c0036 	0x616c0036
 8fc:	665f7473 	0x665f7473
 900:	5f636e75 	0x5f636e75
 904:	65646e69 	0x65646e69
 908:	45520078 	0x45520078
 90c:	544c5553 	bnel	v0,t4,15e5c <ota_send_complete+0x15d90>
 910:	544e455f 	bnel	v0,t6,11e90 <ota_send_complete+0x11dc4>
 914:	4f5f5245 	c3	0x15f5245
 918:	535f4154 	beql	k0,ra,10e6c <ota_send_complete+0x10da0>
 91c:	5f474e4f 	0x5f474e4f
 920:	54534554 	bnel	v0,s3,11e74 <ota_send_complete+0x11da8>
 924:	61686300 	0x61686300
 928:	6f630072 	0x6f630072
 92c:	63656e6e 	0x63656e6e
 930:	65725f74 	0x65725f74
 934:	5f796c70 	0x5f796c70
 938:	61630074 	0x61630074
 93c:	5f656c62 	0x5f656c62
 940:	74617473 	jalx	185d1cc <ota_send_complete+0x185d100>
 944:	69750065 	0x69750065
 948:	3233746e 	andi	s3,s1,0x746e
 94c:	655f7000 	0x655f7000
 950:	6772656e 	0x6772656e
 954:	61765f79 	0x61765f79
 958:	5f65756c 	0x5f65756c
 95c:	71657266 	0x71657266
 960:	45520073 	0x45520073
 964:	544c5553 	bnel	v0,t4,15eb4 <ota_send_complete+0x15de8>
 968:	544e455f 	bnel	v0,t6,11ee8 <ota_send_complete+0x11e1c>
 96c:	535f5245 	beql	k0,ra,15284 <ota_send_complete+0x151b8>
 970:	5f425554 	0x5f425554
 974:	55424544 	bnel	t2,v0,11e88 <ota_send_complete+0x11dbc>
 978:	61700047 	0x61700047
 97c:	635f6b63 	0x635f6b63
 980:	746e756f 	jalx	1b9d5bc <ota_send_complete+0x1b9d4f0>
 984:	61746f00 	0x61746f00
 988:	7365725f 	udi15	k1,a1,t6,0x9
 98c:	74726174 	jalx	1c985d0 <ota_send_complete+0x1c98504>
 990:	5f6f745f 	0x5f6f745f
 994:	72677075 	0x72677075
 998:	00656461 	0x656461
 99c:	5f6b7061 	0x5f6b7061
 9a0:	74617473 	jalx	185d1cc <ota_send_complete+0x185d100>
 9a4:	61007375 	0x61007375
 9a8:	695f7070 	0x695f7070
 9ac:	5f6f666e 	0x5f6f666e
 9b0:	74617473 	jalx	185d1cc <ota_send_complete+0x185d100>
 9b4:	00745f65 	0x745f65
 9b8:	55534552 	bnel	t2,s3,11f04 <ota_send_complete+0x11e38>
 9bc:	495f544c 	0x495f544c
 9c0:	524f4e47 	beql	s2,t7,142e0 <ota_send_complete+0x14214>
 9c4:	756f0045 	jalx	5bc0114 <ota_send_complete+0x5bc0048>
 9c8:	5f726574 	0x5f726574
 9cc:	6f5f6170 	0x6f5f6170
 9d0:	4552006e 	0x4552006e
 9d4:	544c5553 	bnel	v0,t4,15f24 <ota_send_complete+0x15e58>
 9d8:	544e455f 	bnel	v0,t6,11f58 <ota_send_complete+0x11e8c>
 9dc:	555f5245 	bnel	t2,ra,152f4 <ota_send_complete+0x15228>
 9e0:	31524553 	andi	s2,t2,0x4553
 9e4:	756f6100 	jalx	5bd8400 <ota_send_complete+0x5bd8334>
 9e8:	6f6d5f74 	0x6f6d5f74
 9ec:	73006564 	0x73006564
 9f0:	5f627574 	0x5f627574
 9f4:	65646f6d 	0x65646f6d
 9f8:	616c665f 	0x616c665f
 9fc:	45520067 	0x45520067
 a00:	544c5553 	bnel	v0,t4,15f50 <ota_send_complete+0x15e84>
 a04:	53414c5f 	beql	k0,at,13b84 <ota_send_complete+0x13ab8>
 a08:	414c5054 	0x414c5054
 a0c:	5f670059 	0x5f670059
 a10:	6c706572 	0x6c706572
 a14:	6b625f79 	0x6b625f79
 a18:	6f666e69 	0x6f666e69
 a1c:	74616200 	jalx	1858800 <ota_send_complete+0x1858734>
 a20:	79726574 	0x79726574
 a24:	7065725f 	udi15	v1,a1,t6,0x9
 a28:	5f74726f 	0x5f74726f
 a2c:	62616e65 	0x62616e65
 a30:	6400656c 	0x6400656c
 a34:	6c62756f 	0x6c62756f
 a38:	45520065 	0x45520065
 a3c:	544c5553 	bnel	v0,t4,15f8c <ota_send_complete+0x15ec0>
 a40:	4e4f435f 	c3	0x4f435f
 a44:	5f474946 	0x5f474946
 a48:	52414843 	beql	s2,at,12b58 <ota_send_complete+0x12a8c>
 a4c:	64004547 	0x64004547
 a50:	31617461 	andi	at,t3,0x7461
 a54:	74616400 	jalx	1859000 <ota_send_complete+0x1858f34>
 a58:	64003261 	0x64003261
 a5c:	00617461 	0x617461
 a60:	61625f67 	0x61625f67
 a64:	70756b63 	0x70756b63
 a68:	7261705f 	udi15	s3,at,t6,0x1
 a6c:	64615f74 	0x64615f74
 a70:	52007264 	beqzl	s0,1d404 <ota_send_complete+0x1d338>
 a74:	4c555345 	0x4c555345
 a78:	49445f54 	0x49445f54
 a7c:	474f4c41 	c1	0x14f4c41
 a80:	004f4e5f 	0x4f4e5f
 a84:	55534552 	bnel	t2,s3,11fd0 <ota_send_complete+0x11f04>
 a88:	465f544c 	c1	0x5f544c
 a8c:	4543524f 	0x4543524f
 a90:	5354545f 	beql	k0,s4,15c10 <ota_send_complete+0x15b44>
 a94:	4f54535f 	c3	0x154535f
 a98:	61640050 	0x61640050
 a9c:	6c5f6174 	0x6c5f6174
 aa0:	52006e65 	beqzl	s0,1c438 <ota_send_complete+0x1c36c>
 aa4:	4c555345 	0x4c555345
 aa8:	49445f54 	0x49445f54
 aac:	474f4c41 	c1	0x14f4c41
 ab0:	004b4f5f 	0x4b4f5f
 ab4:	5f737774 	0x5f737774
 ab8:	6e6e6f63 	0x6e6e6f63
 abc:	5f746365 	0x5f746365
 ac0:	00617473 	tltu	v1,at,0x1d1
 ac4:	6e655f70 	0x6e655f70
 ac8:	79677265 	0x79677265
 acc:	6c61765f 	0x6c61765f
 ad0:	625f6575 	0x625f6575
 ad4:	73646e61 	0x73646e61
 ad8:	6e6f6c00 	0x6e6f6c00
 adc:	6f6c2067 	0x6f6c2067
 ae0:	7520676e 	jalx	4819db8 <ota_send_complete+0x4819cec>
 ae4:	6769736e 	0x6769736e
 ae8:	2064656e 	addi	a0,v1,25966
 aec:	00746e69 	0x746e69
 af0:	656e6e69 	0x656e6e69
 af4:	61705f72 	0x61705f72
 af8:	696e695f 	0x696e695f
 afc:	00646574 	teq	v1,a0,0x195
 b00:	55534552 	bnel	t2,s3,1204c <ota_send_complete+0x11f80>
 b04:	455f544c 	0x455f544c
 b08:	525f4453 	beql	s2,ra,11c58 <ota_send_complete+0x11b8c>
 b0c:	41545345 	0x41545345
 b10:	52005452 	beqzl	s0,15c5c <ota_send_complete+0x15b90>
 b14:	4c555345 	0x4c555345
 b18:	4e455f54 	c3	0x455f54
 b1c:	5f524554 	0x5f524554
 b20:	5f41544f 	0x5f41544f
 b24:	52475055 	beql	s2,a3,14c7c <ota_send_complete+0x14bb0>
 b28:	00454441 	0x454441
 b2c:	5f636572 	0x5f636572
 b30:	61746164 	0x61746164
 b34:	6174735f 	0x6174735f
 b38:	72006574 	0x72006574
 b3c:	6f747365 	0x6f747365
 b40:	625f6572 	0x625f6572
 b44:	6b616572 	0x6b616572
 b48:	6e696f70 	0x6e696f70
 b4c:	00745f74 	teq	v1,s4,0x17d
 b50:	55534552 	bnel	t2,s3,1209c <ota_send_complete+0x11fd0>
 b54:	455f544c 	0x455f544c
 b58:	5245544e 	beql	s2,a1,15c94 <ota_send_complete+0x15bc8>
 b5c:	5153415f 	beql	t2,s3,110dc <ota_send_complete+0x11010>
 b60:	46485f54 	c1	0x485f54
 b64:	5345545f 	beql	k0,a1,15ce4 <ota_send_complete+0x15c18>
 b68:	45520054 	0x45520054
 b6c:	544c5553 	bnel	v0,t4,160bc <ota_send_complete+0x15ff0>
 b70:	544e455f 	bnel	v0,t6,120f0 <ota_send_complete+0x12024>
 b74:	4c5f5245 	0x4c5f5245
 b78:	49454e49 	0x49454e49
 b7c:	4552004e 	0x4552004e
 b80:	544c5553 	bnel	v0,t4,160d0 <ota_send_complete+0x16004>
 b84:	4149445f 	0x4149445f
 b88:	5f474f4c 	0x5f474f4c
 b8c:	434e4143 	c0	0x14e4143
 b90:	52004c45 	beqzl	s0,13ca8 <ota_send_complete+0x13bdc>
 b94:	4c555345 	0x4c555345
 b98:	49445f54 	0x49445f54
 b9c:	474f4c41 	c1	0x14f4c41
 ba0:	4e41435f 	c3	0x41435f
 ba4:	5f4c4543 	0x5f4c4543
 ba8:	4f545541 	c3	0x1545541
 bac:	635f6700 	0x635f6700
 bb0:	725f7275 	0x725f7275
 bb4:	735f6365 	0x735f6365
 bb8:	65746174 	0x65746174
 bbc:	79632f00 	0x79632f00
 bc0:	69726467 	0x69726467
 bc4:	662f6576 	0x662f6576
 bc8:	666f532f 	0x666f532f
 bcc:	64735f74 	0x64735f74
 bd0:	53552f6b 	beql	k0,s5,c980 <ota_send_complete+0xc8b4>
 bd4:	41323832 	0x41323832
 bd8:	4b44535f 	c2	0x144535f
 bdc:	7361632f 	0x7361632f
 be0:	70612f65 	0x70612f65
 be4:	6d6f632f 	0x6d6f632f
 be8:	2f6e6f6d 	sltiu	t6,k1,28525
 bec:	6d6d6f63 	0x6d6d6f63
 bf0:	6f5f6e6f 	0x6f5f6e6f
 bf4:	52006174 	beqzl	s0,191c8 <ota_send_complete+0x190fc>
 bf8:	4c555345 	0x4c555345
 bfc:	4c415f54 	0x4c415f54
 c00:	5f4d5241 	0x5f4d5241
 c04:	4f4f4e53 	c3	0x14f4e53
 c08:	7000455a 	udi10	zero,zero,t0,0x15
 c0c:	68637461 	0x68637461
 c10:	776f645f 	jalx	dbd917c <ota_send_complete+0xdbd90b0>
 c14:	616f6c6e 	0x616f6c6e
 c18:	6c665f64 	0x6c665f64
 c1c:	6e006761 	0x6e006761
 c20:	5f646565 	0x5f646565
 c24:	61647075 	0x61647075
 c28:	705f6574 	0x705f6574
 c2c:	6c79616c 	0x6c79616c
 c30:	00747369 	0x747369
 c34:	55534552 	bnel	t2,s3,12180 <ota_send_complete+0x120b4>
 c38:	4d5f544c 	0x4d5f544c
 c3c:	41554e41 	0x41554e41
 c40:	45535f4c 	0x45535f4c
 c44:	48435241 	0x48435241
 c48:	574f445f 	bnel	k0,t7,11dc8 <ota_send_complete+0x11cfc>
 c4c:	4552004e 	0x4552004e
 c50:	544c5553 	bnel	v0,t4,161a0 <ota_send_complete+0x160d4>
 c54:	5359535f 	beql	k0,t9,159d4 <ota_send_complete+0x15908>
 c58:	5f4d4554 	0x5f4d4554
 c5c:	45544e45 	0x45544e45
 c60:	33535f52 	andi	s3,k0,0x5f52
 c64:	70706100 	0x70706100
 c68:	6174735f 	0x6174735f
 c6c:	65006574 	0x65006574
 c70:	6772656e 	0x6772656e
 c74:	76615f79 	jalx	9857de4 <ota_send_complete+0x9857d18>
 c78:	616c6961 	0x616c6961
 c7c:	5f656c62 	0x5f656c62
 c80:	67616c66 	0x67616c66
 c84:	6f687500 	0x6f687500
 c88:	735f7473 	0x735f7473
 c8c:	65746174 	0x65746174
 c90:	73616c00 	0x73616c00
 c94:	79735f74 	0x79735f74
 c98:	74735f73 	jalx	1cd7dcc <ota_send_complete+0x1cd7d00>
 c9c:	73757461 	0x73757461
 ca0:	74756100 	jalx	1d58400 <ota_send_complete+0x1d58334>
 ca4:	7365746f 	0x7365746f
 ca8:	6f6d5f74 	0x6f6d5f74
 cac:	52006564 	beqzl	s0,1a240 <ota_send_complete+0x1a174>
 cb0:	4c555345 	0x4c555345
 cb4:	55415f54 	bnel	t2,at,18a08 <ota_send_complete+0x1893c>
 cb8:	535f4f54 	beql	k0,ra,14a0c <ota_send_complete+0x14940>
 cbc:	43524145 	c0	0x1524145
 cc0:	68730048 	0x68730048
 cc4:	2074726f 	addi	s4,v1,29295
 cc8:	00746e69 	0x746e69
 ccc:	65736572 	0x65736572
 cd0:	32647672 	andi	a0,s3,0x7672
 cd4:	615f6700 	0x615f6700
 cd8:	6c5f7070 	0x6c5f7070
 cdc:	5f747361 	0x5f747361
 ce0:	74617473 	jalx	185d1cc <ota_send_complete+0x185d100>
 ce4:	Address 0xce4 is out of bounds.

Disassembly of section .comment:

00000000 <.comment>:
   0:	43434700 	c0	0x1434700
   4:	4728203a 	c1	0x128203a
   8:	2029554e 	addi	t1,at,21838
   c:	2e342e33 	sltiu	s4,s1,11827
  10:	696d2034 	0x696d2034
  14:	64737370 	0x64737370
  18:	2e362d65 	sltiu	s6,s1,11621
  1c:	302e3630 	andi	t6,at,0x3630
  20:	30322d31 	andi	s2,at,0x2d31
  24:	34303730 	ori	s0,at,0x3730
  28:	Address 0x28 is out of bounds.


Ota_rcp_s_cmd_deal.o:     file format elf32-tradlittlemips

Disassembly of section .text:

00000000 <CheckSum16>:
   0:	6b00      	li	v1,0
   2:	2507      	beqz	a1,12 <CheckSum16+0x12>
   4:	acc0      	lhu	a2,0(a0)
   6:	45af      	addiu	a1,a1,-1
   8:	e3c9      	addu	v0,v1,a2
   a:	6762      	move	v1,v0
   c:	eb31      	zeh	v1
   e:	4482      	addiu	a0,a0,2
  10:	2df9      	bnez	a1,4 <CheckSum16+0x4>
  12:	e820      	jr	ra
  14:	6743      	move	v0,v1
	...

00000018 <ota_receive_connect_data>:
  18:	64f6      	save	48,ra,s0-s1
  1a:	ae40      	lhu	v0,0(a2)
  1c:	6706      	move	s0,a2
  1e:	f440 b108 	lw	s1,464 <.L25+0x270>
  22:	f200 6c00 	li	a0,512
  26:	6d20      	li	a1,32
  28:	6e00      	li	a2,0
  2a:	6f16      	li	a3,22
  2c:	4004      	addiu	s0,s0,4
  2e:	e940      	jalr	s1
  30:	d204      	sw	v0,16(sp)
  32:	d007      	sw	s0,28(sp)
  34:	f420 b014 	lw	s0,468 <.L25+0x274>
  38:	f420 b514 	lw	a1,46c <.L25+0x278>
  3c:	d206      	sw	v0,24(sp)
  3e:	6790      	move	a0,s0
  40:	6e14      	li	a2,20
  42:	e940      	jalr	s1
  44:	6f12      	li	a3,18
  46:	2a03      	bnez	v0,4e <ota_receive_connect_data+0x36>
  48:	a062      	lbu	v1,2(s0)
  4a:	7303      	cmpi	v1,3
  4c:	6102      	btnez	52 <ota_receive_connect_data+0x3a>
  4e:	6c00      	li	a0,0
  50:	c082      	sb	a0,2(s0)
  52:	f400 b618 	lw	a2,468 <.L25+0x274>
  56:	f400 b51c 	lw	a1,470 <.L25+0x27c>
  5a:	a622      	lbu	s1,2(a2)
  5c:	9d80      	lw	a0,0(a1)
  5e:	f080 2909 	bnez	s1,174 <ota_receive_connect_data+0x15c>
  62:	6f00      	li	a3,0
  64:	f020 c4eb 	sb	a3,43(a0)
  68:	9607      	lw	a2,28(sp)
  6a:	cc38      	sh	s1,48(a0)
  6c:	cc34      	sh	s1,40(a0)
  6e:	a6b0      	lbu	a1,16(a2)
  70:	6c0a      	li	a0,10
  72:	ed98      	mult	a1,a0
  74:	9407      	lw	a0,28(sp)
  76:	eb12      	mflo	v1
  78:	4342      	addiu	v0,v1,2
  7a:	3546      	srl	a1,v0,1
  7c:	4d08      	addiu	a1,8
  7e:	1800 0000 	jal	0 <CheckSum16>
  82:	ed11      	zeb	a1
  84:	9704      	lw	a3,16(sp)
  86:	eaee      	xor	v0,a3
  88:	2a6a      	bnez	v0,15e <ota_receive_connect_data+0x146>
  8a:	9607      	lw	a2,28(sp)
  8c:	6c0a      	li	a0,10
  8e:	a6b0      	lbu	a1,16(a2)
  90:	9007      	lw	s0,28(sp)
  92:	ed98      	mult	a1,a0
  94:	4810      	addiu	s0,16
  96:	ef12      	mflo	a3
  98:	b5f7      	lw	a1,474 <.L25+0x280>
  9a:	b3f3      	lw	v1,464 <.L25+0x270>
  9c:	47c2      	addiu	a2,a3,2
  9e:	6790      	move	a0,s0
  a0:	eb40      	jalr	v1
  a2:	6f13      	li	a3,19
  a4:	b2f5      	lw	v0,478 <.L25+0x284>
  a6:	6c10      	li	a0,16
  a8:	67b0      	move	a1,s0
  aa:	67d1      	move	a2,s1
  ac:	ea40      	jalr	v0
  ae:	6f06      	li	a3,6
  b0:	d205      	sw	v0,20(sp)
  b2:	2a09      	bnez	v0,c6 <ota_receive_connect_data+0xae>
  b4:	b7ef      	lw	a3,470 <.L25+0x27c>
  b6:	6a03      	li	v0,3
  b8:	9f60      	lw	v1,0(a3)
  ba:	0cb6      	la	a0,390 <.L25+0x19c>
  bc:	c340      	sb	v0,0(v1)
  be:	1054      	b	168 <ota_receive_connect_data+0x150>
  c0:	b0ea      	lw	s0,468 <.L25+0x274>
  c2:	c0c9      	sb	a2,9(s0)
  c4:	1040      	b	146 <ota_receive_connect_data+0x12e>
  c6:	9505      	lw	a1,20(sp)
  c8:	6c0a      	li	a0,10
  ca:	a5e0      	lbu	a3,0(a1)
  cc:	b0e6      	lw	s0,464 <.L25+0x270>
  ce:	ef98      	mult	a3,a0
  d0:	b5eb      	lw	a1,47c <.L25+0x288>
  d2:	ea12      	mflo	v0
  d4:	9405      	lw	a0,20(sp)
  d6:	42c2      	addiu	a2,v0,2
  d8:	e840      	jalr	s0
  da:	6f13      	li	a3,19
  dc:	b6e5      	lw	a2,470 <.L25+0x27c>
  de:	b0e9      	lw	s0,480 <.L25+0x28c>
  e0:	9e80      	lw	a0,0(a2)
  e2:	9507      	lw	a1,28(sp)
  e4:	4c20      	addiu	a0,32
  e6:	6e08      	li	a2,8
  e8:	e840      	jalr	s0
  ea:	67f1      	move	a3,s1
  ec:	b7e1      	lw	a3,470 <.L25+0x27c>
  ee:	6b02      	li	v1,2
  f0:	9fa0      	lw	a1,0(a3)
  f2:	b4de      	lw	a0,468 <.L25+0x274>
  f4:	c560      	sb	v1,0(a1)
  f6:	9fa0      	lw	a1,0(a3)
  f8:	4c0c      	addiu	a0,12
  fa:	4d20      	addiu	a1,32
  fc:	6e08      	li	a2,8
  fe:	e840      	jalr	s0
 100:	67f1      	move	a3,s1
 102:	b4da      	lw	a0,468 <.L25+0x274>
 104:	9207      	lw	v0,28(sp)
 106:	cc22      	sh	s1,4(a0)
 108:	b5da      	lw	a1,470 <.L25+0x27c>
 10a:	a2d3      	lbu	a2,19(v0)
 10c:	b0d7      	lw	s0,468 <.L25+0x274>
 10e:	9de0      	lw	a3,0(a1)
 110:	c0c8      	sb	a2,8(s0)
 112:	6b00      	li	v1,0
 114:	6e01      	li	a2,1
 116:	c0c2      	sb	a2,2(s0)
 118:	f020 c772 	sb	v1,50(a3)
 11c:	9207      	lw	v0,28(sp)
 11e:	9d60      	lw	v1,0(a1)
 120:	a213      	lbu	s0,19(v0)
 122:	b7d4      	lw	a3,470 <.L25+0x27c>
 124:	f020 c30a 	sb	s0,42(v1)
 128:	9405      	lw	a0,20(sp)
 12a:	9f60      	lw	v1,0(a3)
 12c:	aca4      	lhu	a1,8(a0)
 12e:	cbb7      	sh	a1,46(v1)
 130:	a480      	lbu	a0,0(a0)
 132:	67b1      	move	a1,s1
 134:	e983      	sltu	s1,a0
 136:	6007      	bteqz	146 <ota_receive_connect_data+0x12e>
 138:	f020 a30a 	lbu	s0,42(v1)
 13c:	5810      	sltiu	s0,16
 13e:	61c0      	btnez	c0 <ota_receive_connect_data+0xa8>
 140:	45a1      	addiu	a1,a1,1
 142:	ed83      	sltu	a1,a0
 144:	61fd      	btnez	140 <ota_receive_connect_data+0x128>
 146:	b4c9      	lw	a0,468 <.L25+0x274>
 148:	b5c9      	lw	a1,46c <.L25+0x278>
 14a:	b0c7      	lw	s0,464 <.L25+0x270>
 14c:	6e14      	li	a2,20
 14e:	e840      	jalr	s0
 150:	6f13      	li	a3,19
 152:	6d00      	li	a1,0
 154:	0c96      	la	a0,3ac <.L25+0x1b8>
 156:	67c5      	move	a2,a1
 158:	e840      	jalr	s0
 15a:	6f4b      	li	a3,75
 15c:	110f      	b	37c <.L25+0x188>
 15e:	b2c5      	lw	v0,470 <.L25+0x27c>
 160:	6e01      	li	a2,1
 162:	9a60      	lw	v1,0(v0)
 164:	0c97      	la	a0,3c0 <.L25+0x1cc>
 166:	c3c0      	sb	a2,0(v1)
 168:	b3bf      	lw	v1,464 <.L25+0x270>
 16a:	67b1      	move	a1,s1
 16c:	67d1      	move	a2,s1
 16e:	eb40      	jalr	v1
 170:	6f4b      	li	a3,75
 172:	1104      	b	37c <.L25+0x188>
 174:	b1c3      	lw	s1,480 <.L25+0x28c>
 176:	9507      	lw	a1,28(sp)
 178:	4c20      	addiu	a0,32
 17a:	6e08      	li	a2,8
 17c:	e940      	jalr	s1
 17e:	6f00      	li	a3,0
 180:	b0bd      	lw	s0,474 <.L25+0x280>
 182:	9406      	lw	a0,24(sp)
 184:	b3b8      	lw	v1,464 <.L25+0x270>
 186:	67b0      	move	a1,s0
 188:	6e01      	li	a2,1
 18a:	eb40      	jalr	v1
 18c:	6f12      	li	a3,18
 18e:	9406      	lw	a0,24(sp)
 190:	6d0a      	li	a1,10
 192:	a4c0      	lbu	a2,0(a0)
 194:	b3b4      	lw	v1,464 <.L25+0x270>
 196:	eeb8      	mult	a2,a1
 198:	67b0      	move	a1,s0
 19a:	ef12      	mflo	a3
 19c:	47c2      	addiu	a2,a3,2
 19e:	eb40      	jalr	v1
 1a0:	6f12      	li	a3,18
 1a2:	9406      	lw	a0,24(sp)
 1a4:	6e0a      	li	a2,10
 1a6:	a440      	lbu	v0,0(a0)
 1a8:	b3b7      	lw	v1,484 <.L25+0x290>
 1aa:	ead8      	mult	v0,a2
 1ac:	9ba0      	lw	a1,0(v1)
 1ae:	ef12      	mflo	a3
 1b0:	4d24      	addiu	a1,36
 1b2:	47c2      	addiu	a2,a3,2
 1b4:	e940      	jalr	s1
 1b6:	6f02      	li	a3,2
 1b8:	b4ae      	lw	a0,470 <.L25+0x27c>
 1ba:	6722      	move	s1,v0
 1bc:	9c60      	lw	v1,0(a0)
 1be:	220f      	beqz	v0,1de <ota_receive_connect_data+0x1c6>
 1c0:	6c04      	li	a0,4
 1c2:	c380      	sb	a0,0(v1)
 1c4:	6d00      	li	a1,0
 1c6:	b3a8      	lw	v1,464 <.L25+0x270>
 1c8:	67c5      	move	a2,a1
 1ca:	0c84      	la	a0,3d8 <.L25+0x1e4>
 1cc:	eb40      	jalr	v1
 1ce:	6f4b      	li	a3,75
 1d0:	9406      	lw	a0,24(sp)
 1d2:	b3a5      	lw	v1,464 <.L25+0x270>
 1d4:	6d20      	li	a1,32
 1d6:	6e00      	li	a2,0
 1d8:	eb40      	jalr	v1
 1da:	6f17      	li	a3,23
 1dc:	10d5      	b	388 <.L25+0x194>
 1de:	a300      	lbu	s0,0(v1)
 1e0:	7002      	cmpi	s0,2
 1e2:	615f      	btnez	2a2 <.L25+0xae>
 1e4:	9707      	lw	a3,28(sp)
 1e6:	f020 a34a 	lbu	v0,42(v1)
 1ea:	a78e      	lbu	a0,14(a3)
 1ec:	67c4      	move	a2,a0
 1ee:	ee11      	zeb	a2
 1f0:	eace      	xor	v0,a2
 1f2:	2a0f      	bnez	v0,212 <.L25+0x1e>

000001f4 <.L25>:
 1f4:	6d00      	li	a1,0
 1f6:	b09c      	lw	s0,464 <.L25+0x270>
 1f8:	67c5      	move	a2,a1
 1fa:	0c80      	la	a0,3f8 <.L25+0x204>
 1fc:	e840      	jalr	s0
 1fe:	6f4b      	li	a3,75
 200:	9406      	lw	a0,24(sp)
 202:	6d20      	li	a1,32
 204:	6e00      	li	a2,0
 206:	e840      	jalr	s0
 208:	6f17      	li	a3,23
 20a:	10be      	b	388 <.L25+0x194>
 20c:	afa4      	lhu	a1,8(a3)
 20e:	cbb7      	sh	a1,46(v1)
 210:	1035      	b	27c <.L25+0x88>
 212:	76ff      	cmpi	a2,255
 214:	60ef      	bteqz	1f4 <.L25>
 216:	b09a      	lw	s0,47c <.L25+0x288>
 218:	f020 c38a 	sb	a0,42(v1)
 21c:	9406      	lw	a0,24(sp)
 21e:	b392      	lw	v1,464 <.L25+0x270>
 220:	67b0      	move	a1,s0
 222:	6e01      	li	a2,1
 224:	eb40      	jalr	v1
 226:	6f12      	li	a3,18
 228:	9406      	lw	a0,24(sp)
 22a:	6d0a      	li	a1,10
 22c:	a4c0      	lbu	a2,0(a0)
 22e:	b38e      	lw	v1,464 <.L25+0x270>
 230:	eeb8      	mult	a2,a1
 232:	67b0      	move	a1,s0
 234:	e812      	mflo	s0
 236:	6f12      	li	a3,18
 238:	eb40      	jalr	v1
 23a:	40c2      	addiu	a2,s0,2
 23c:	b78d      	lw	a3,470 <.L25+0x27c>
 23e:	b08a      	lw	s0,464 <.L25+0x270>
 240:	9f40      	lw	v0,0(a3)
 242:	0c73      	la	a0,40c <.L25+0x218>
 244:	f020 a2aa 	lbu	a1,42(v0)
 248:	6e02      	li	a2,2
 24a:	e840      	jalr	s0
 24c:	6f4b      	li	a3,75
 24e:	b489      	lw	a0,470 <.L25+0x27c>
 250:	67b1      	move	a1,s1
 252:	9c60      	lw	v1,0(a0)
 254:	f020 c32b 	sb	s1,43(v1)
 258:	9606      	lw	a2,24(sp)
 25a:	cb38      	sh	s1,48(v1)
 25c:	cb34      	sh	s1,40(v1)
 25e:	a680      	lbu	a0,0(a2)
 260:	e983      	sltu	s1,a0
 262:	600c      	bteqz	27c <.L25+0x88>
 264:	b283      	lw	v0,470 <.L25+0x27c>
 266:	9706      	lw	a3,24(sp)
 268:	9a60      	lw	v1,0(v0)
 26a:	f020 a3ca 	lbu	a2,42(v1)
 26e:	a703      	lbu	s0,3(a3)
 270:	e8ce      	xor	s0,a2
 272:	20cc      	beqz	s0,20c <.L25+0x18>
 274:	45a1      	addiu	a1,a1,1
 276:	ed83      	sltu	a1,a0
 278:	4f0a      	addiu	a3,10
 27a:	61f9      	btnez	26e <.L25+0x7a>
 27c:	b47b      	lw	a0,468 <.L25+0x274>
 27e:	b57c      	lw	a1,46c <.L25+0x278>
 280:	b079      	lw	s0,464 <.L25+0x270>
 282:	6e14      	li	a2,20
 284:	e840      	jalr	s0
 286:	6f13      	li	a3,19
 288:	b47a      	lw	a0,470 <.L25+0x27c>
 28a:	6e02      	li	a2,2
 28c:	9ce0      	lw	a3,0(a0)
 28e:	0c66      	la	a0,424 <.L25+0x230>
 290:	afb7      	lhu	a1,46(a3)
 292:	e840      	jalr	s0
 294:	6f4b      	li	a3,75
 296:	1063      	b	35e <.L25+0x16a>
 298:	b676      	lw	a2,470 <.L25+0x27c>
 29a:	afa4      	lhu	a1,8(a3)
 29c:	9e20      	lw	s1,0(a2)
 29e:	c9b7      	sh	a1,46(s1)
 2a0:	1031      	b	304 <.L25+0x110>
 2a2:	b077      	lw	s0,47c <.L25+0x288>
 2a4:	b370      	lw	v1,464 <.L25+0x270>
 2a6:	9406      	lw	a0,24(sp)
 2a8:	67b0      	move	a1,s0
 2aa:	6e01      	li	a2,1
 2ac:	eb40      	jalr	v1
 2ae:	6f12      	li	a3,18
 2b0:	9406      	lw	a0,24(sp)
 2b2:	6e0a      	li	a2,10
 2b4:	a4e0      	lbu	a3,0(a0)
 2b6:	67b0      	move	a1,s0
 2b8:	efd8      	mult	a3,a2
 2ba:	b06b      	lw	s0,464 <.L25+0x270>
 2bc:	ea12      	mflo	v0
 2be:	6f12      	li	a3,18
 2c0:	e840      	jalr	s0
 2c2:	42c2      	addiu	a2,v0,2
 2c4:	b368      	lw	v1,464 <.L25+0x270>
 2c6:	0c5d      	la	a0,438 <.L25+0x244>
 2c8:	67b1      	move	a1,s1
 2ca:	67d1      	move	a2,s1
 2cc:	eb40      	jalr	v1
 2ce:	6f4b      	li	a3,75
 2d0:	9407      	lw	a0,28(sp)
 2d2:	6f0a      	li	a3,10
 2d4:	a4b0      	lbu	a1,16(a0)
 2d6:	b364      	lw	v1,464 <.L25+0x270>
 2d8:	edf8      	mult	a1,a3
 2da:	9406      	lw	a0,24(sp)
 2dc:	e812      	mflo	s0
 2de:	6e03      	li	a2,3
 2e0:	40a2      	addiu	a1,s0,2
 2e2:	eb40      	jalr	v1
 2e4:	6f4b      	li	a3,75
 2e6:	9206      	lw	v0,24(sp)
 2e8:	67b1      	move	a1,s1
 2ea:	a260      	lbu	v1,0(v0)
 2ec:	e963      	sltu	s1,v1
 2ee:	600a      	bteqz	304 <.L25+0x110>
 2f0:	b15e      	lw	s1,468 <.L25+0x274>
 2f2:	9706      	lw	a3,24(sp)
 2f4:	a188      	lbu	a0,8(s1)
 2f6:	a743      	lbu	v0,3(a3)
 2f8:	ea8e      	xor	v0,a0
 2fa:	22ce      	beqz	v0,298 <.L25+0xa4>
 2fc:	45a1      	addiu	a1,a1,1
 2fe:	ed63      	sltu	a1,v1
 300:	4f0a      	addiu	a3,10
 302:	61f9      	btnez	2f6 <.L25+0x102>
 304:	b05b      	lw	s0,470 <.L25+0x27c>
 306:	0c50      	la	a0,444 <.L25+0x250>
 308:	9820      	lw	s1,0(s0)
 30a:	6e02      	li	a2,2
 30c:	a9b7      	lhu	a1,46(s1)
 30e:	b156      	lw	s1,464 <.L25+0x270>
 310:	e940      	jalr	s1
 312:	6f4b      	li	a3,75
 314:	98c0      	lw	a2,0(s0)
 316:	b355      	lw	v1,468 <.L25+0x274>
 318:	6d02      	li	a1,2
 31a:	c6a0      	sb	a1,0(a2)
 31c:	abe2      	lhu	a3,4(v1)
 31e:	9880      	lw	a0,0(s0)
 320:	ccf8      	sh	a3,48(a0)
 322:	a348      	lbu	v0,8(v1)
 324:	f020 c44a 	sb	v0,42(a0)
 328:	aba2      	lhu	a1,4(v1)
 32a:	98c0      	lw	a2,0(s0)
 32c:	6c05      	li	a0,5
 32e:	ceb4      	sh	a1,40(a2)
 330:	6d00      	li	a1,0
 332:	f020 c6ab 	sb	a1,43(a2)
 336:	98e0      	lw	a3,0(s0)
 338:	f020 c7b2 	sb	a1,50(a3)
 33c:	98c0      	lw	a2,0(s0)
 33e:	c690      	sb	a0,16(a2)
 340:	98e0      	lw	a3,0(s0)
 342:	f020 a76a 	lbu	v1,42(a3)
 346:	af58      	lhu	v0,48(a3)
 348:	c778      	sb	v1,24(a3)
 34a:	9880      	lw	a0,0(s0)
 34c:	cf49      	sh	v0,18(a3)
 34e:	c4b9      	sb	a1,25(a0)
 350:	98c0      	lw	a2,0(s0)
 352:	0c2f      	la	a0,40c <.L25+0x218>
 354:	f020 a6aa 	lbu	a1,42(a2)
 358:	6f4b      	li	a3,75
 35a:	e940      	jalr	s1
 35c:	6e02      	li	a2,2
 35e:	b443      	lw	a0,468 <.L25+0x274>
 360:	a462      	lbu	v1,2(a0)
 362:	7302      	cmpi	v1,2
 364:	610b      	btnez	37c <.L25+0x188>
 366:	b543      	lw	a1,470 <.L25+0x27c>
 368:	6e02      	li	a2,2
 36a:	9de0      	lw	a3,0(a1)
 36c:	b23e      	lw	v0,464 <.L25+0x270>
 36e:	6d00      	li	a1,0
 370:	f020 c7cb 	sb	a2,43(a3)
 374:	0c39      	la	a0,458 <.L25+0x264>
 376:	67c5      	move	a2,a1
 378:	ea40      	jalr	v0
 37a:	6f4b      	li	a3,75
 37c:	9406      	lw	a0,24(sp)
 37e:	b23a      	lw	v0,464 <.L25+0x270>
 380:	6d20      	li	a1,32
 382:	6e00      	li	a2,0
 384:	ea40      	jalr	v0
 386:	6f17      	li	a3,23
 388:	6a00      	li	v0,0
 38a:	6476      	restore	48,ra,s0-s1
 38c:	e8a0      	jrc	ra
 38e:	0000      	addiu	s0,sp,0
 390:	6f63      	li	a3,99
 392:	6e6e      	li	a2,110
 394:	6365      	addiu	sp,808
 396:	2074      	beqz	s0,480 <.L25+0x28c>
 398:	6166      	btnez	466 <.L25+0x272>
 39a:	6c69      	li	a0,105
 39c:	2820      	bnez	s0,3de <.L25+0x1ea>
 39e:	5746      	slti	a3,70
 3a0:	7420      	cmpi	a0,32
 3a2:	6f6f      	li	a3,111
 3a4:	4220      	addiu	s1,v0,0
 3a6:	6769      	move	v1,t1
 3a8:	2921      	bnez	s1,3ec <.L25+0x1f8>
 3aa:	0000      	addiu	s0,sp,0
 3ac:	6f63      	li	a3,99
 3ae:	6e6e      	li	a2,110
 3b0:	6365      	addiu	sp,808
 3b2:	2074      	beqz	s0,49c <fw_download_new+0x14>
 3b4:	7573      	cmpi	a1,115
 3b6:	6363      	addiu	sp,792
 3b8:	7365      	cmpi	v1,101
 3ba:	2173      	beqz	s1,4a2 <fw_download_new+0x1a>
 3bc:	0021      	addiu	s0,sp,132
 3be:	0000      	addiu	s0,sp,0
 3c0:	6f63      	li	a3,99
 3c2:	6e6e      	li	a2,110
 3c4:	6365      	addiu	sp,808
 3c6:	2074      	beqz	s0,4b0 <fw_download_new+0x28>
 3c8:	656d      	move	t3,a1
 3ca:	7373      	cmpi	v1,115
 3cc:	6761      	move	v1,at
 3ce:	2065      	beqz	s0,49a <fw_download_new+0x12>
 3d0:	5245      	slti	v0,69
 3d2:	4f52      	addiu	a3,82
 3d4:	2121      	beqz	s1,418 <.L25+0x224>
 3d6:	0000      	addiu	s0,sp,0
 3d8:	6f63      	li	a3,99
 3da:	6e6e      	li	a2,110
 3dc:	6365      	addiu	sp,808
 3de:	2074      	beqz	s0,4c8 <fw_download_new+0x40>
 3e0:	656d      	move	t3,a1
 3e2:	7373      	cmpi	v1,115
 3e4:	6761      	move	v1,at
 3e6:	2065      	beqz	s0,4b2 <fw_download_new+0x2a>
 3e8:	7369      	cmpi	v1,105
 3ea:	6420      	restore	128,s0
 3ec:	6669      	0x6669
 3ee:	6566      	move	v1,a2
 3f0:	6572      	move	s3,v0
 3f2:	746e      	cmpi	a0,110
 3f4:	0000      	addiu	s0,sp,0
 3f6:	0000      	addiu	s0,sp,0
 3f8:	6863      	li	s0,99
 3fa:	6e61      	li	a2,97
 3fc:	6567      	move	v1,a3
 3fe:	6120      	btnez	440 <.L25+0x24c>
 400:	7070      	cmpi	s0,112
 402:	696c      	li	s1,108
 404:	6163      	btnez	4cc <fw_download_new+0x44>
 406:	746e      	cmpi	a0,110
 408:	2121      	beqz	s1,44c <.L25+0x258>
 40a:	0000      	addiu	s0,sp,0
 40c:	5f67      	sltiu	a3,103
 40e:	7563      	cmpi	a1,99
 410:	5f72      	sltiu	a3,114
 412:	6572      	move	s3,v0
 414:	5f63      	sltiu	a3,99
 416:	7473      	cmpi	a0,115
 418:	7461      	cmpi	a0,97
 41a:	2e65      	bnez	a2,4e6 <fw_download_new+0x5e>
 41c:	6170      	btnez	4fe <fw_download_new+0x76>
 41e:	7472      	cmpi	a0,114
 420:	695f      	li	s1,95
 422:	0064      	addiu	s0,sp,400
 424:	5f67      	sltiu	a3,103
 426:	6162      	btnez	4ec <fw_download_new+0x64>
 428:	6b63      	li	v1,99
 42a:	7075      	cmpi	s0,117
 42c:	705f      	cmpi	s0,95
 42e:	7261      	cmpi	v0,97
 430:	5f74      	sltiu	a3,116
 432:	6461      	restore	8,ra,s0
 434:	7264      	cmpi	v0,100
 436:	0000      	addiu	s0,sp,0
 438:	643c      	restore	96,s0-s1
 43a:	7672      	cmpi	a2,114
 43c:	6420      	restore	128,s0
 43e:	7461      	cmpi	a0,97
 440:	3e61      	ld	v1,8(a2)
 442:	0020      	addiu	s0,sp,128
 444:	5f67      	sltiu	a3,103
 446:	6162      	btnez	50c <fw_download_new+0x84>
 448:	6b63      	li	v1,99
 44a:	7075      	cmpi	s0,117
 44c:	705f      	cmpi	s0,95
 44e:	7261      	cmpi	v0,97
 450:	5f74      	sltiu	a3,116
 452:	6461      	restore	8,ra,s0
 454:	7264      	cmpi	v0,100
 456:	0020      	addiu	s0,sp,128
 458:	7073      	cmpi	s0,115
 45a:	2165      	beqz	s1,526 <fw_download_new+0x9e>
 45c:	2121      	beqz	s1,4a0 <fw_download_new+0x18>
 45e:	7e7e      	sd	v1,240(a2)
 460:	7e7e      	sd	v1,240(a2)
	...
 46e:	0015      	addiu	s0,sp,84
 470:	0000      	addiu	s0,sp,0
 472:	0000      	addiu	s0,sp,0
 474:	0000      	addiu	s0,sp,0
 476:	0017      	addiu	s0,sp,92
 478:	0000      	addiu	s0,sp,0
 47a:	0000      	addiu	s0,sp,0
 47c:	0000      	addiu	s0,sp,0
 47e:	0016      	addiu	s0,sp,88
	...

00000488 <fw_download_new>:
 488:	64f6      	save	48,ra,s0-s1
 48a:	6901      	li	s1,1
 48c:	b422      	lw	a0,514 <fw_download_new+0x8c>
 48e:	d106      	sw	s1,24(sp)
 490:	b122      	lw	s1,518 <fw_download_new+0x90>
 492:	9c40      	lw	v0,0(a0)
 494:	9960      	lw	v1,0(s1)
 496:	4a14      	addiu	v0,20
 498:	abd7      	lhu	a2,46(v1)
 49a:	d205      	sw	v0,20(sp)
 49c:	679d      	move	a0,sp
 49e:	f020 a3ea 	lbu	a3,42(v1)
 4a2:	ccce      	sh	a2,28(a0)
 4a4:	abb8      	lhu	a1,48(v1)
 4a6:	b21e      	lw	v0,51c <fw_download_new+0x94>
 4a8:	ccaf      	sh	a1,30(a0)
 4aa:	6d00      	li	a1,0
 4ac:	d704      	sw	a3,16(sp)
 4ae:	0404      	addiu	a0,sp,16
 4b0:	67c5      	move	a2,a1
 4b2:	ea40      	jalr	v0
 4b4:	6f04      	li	a3,4
 4b6:	ea4f      	not	v0
 4b8:	6b00      	li	v1,0
 4ba:	2229      	beqz	v0,50e <fw_download_new+0x86>
 4bc:	9940      	lw	v0,0(s1)
 4be:	6c01      	li	a0,1
 4c0:	f020 c28b 	sb	a0,43(v0)
 4c4:	9960      	lw	v1,0(s1)
 4c6:	aab8      	lhu	a1,48(v0)
 4c8:	abf8      	lhu	a3,48(v1)
 4ca:	cab4      	sh	a1,40(v0)
 4cc:	47c1      	addiu	a2,a3,1
 4ce:	cbd8      	sh	a2,48(v1)
 4d0:	6766      	move	v1,a2
 4d2:	eb31      	zeh	v1
 4d4:	6d7f      	li	a1,127
 4d6:	ed6c      	and	a1,v1
 4d8:	2502      	beqz	a1,4de <fw_download_new+0x56>
 4da:	7301      	cmpi	v1,1
 4dc:	6117      	btnez	50c <fw_download_new+0x84>
 4de:	b011      	lw	s0,520 <fw_download_new+0x98>
 4e0:	b511      	lw	a1,524 <fw_download_new+0x9c>
 4e2:	b312      	lw	v1,528 <fw_download_new+0xa0>
 4e4:	6790      	move	a0,s0
 4e6:	6e14      	li	a2,20
 4e8:	eb40      	jalr	v1
 4ea:	6f12      	li	a3,18
 4ec:	9980      	lw	a0,0(s1)
 4ee:	6d01      	li	a1,1
 4f0:	c0a2      	sb	a1,2(s0)
 4f2:	f020 a44a 	lbu	v0,42(a0)
 4f6:	6e00      	li	a2,0
 4f8:	c048      	sb	v0,8(s0)
 4fa:	acf8      	lhu	a3,48(a0)
 4fc:	b50a      	lw	a1,524 <fw_download_new+0x9c>
 4fe:	b30b      	lw	v1,528 <fw_download_new+0xa0>
 500:	c8e2      	sh	a3,4(s0)
 502:	c0c3      	sb	a2,3(s0)
 504:	6790      	move	a0,s0
 506:	6e14      	li	a2,20
 508:	eb40      	jalr	v1
 50a:	6f13      	li	a3,19
 50c:	6b01      	li	v1,1
 50e:	6743      	move	v0,v1
 510:	6476      	restore	48,ra,s0-s1
 512:	e8a0      	jrc	ra
	...
 524:	0000      	addiu	s0,sp,0
 526:	0015      	addiu	s0,sp,84
 528:	0000      	addiu	s0,sp,0
	...

0000052c <ota_receive_data>:
 52c:	64f4      	save	32,ra,s0-s1
 52e:	b323      	lw	v1,5b8 <ota_receive_data+0x8c>
 530:	ae00      	lhu	s0,0(a2)
 532:	a342      	lbu	v0,2(v1)
 534:	ae21      	lhu	s1,2(a2)
 536:	7203      	cmpi	v0,3
 538:	4682      	addiu	a0,a2,2
 53a:	6107      	btnez	54a <ota_receive_data+0x1e>
 53c:	6d00      	li	a1,0
 53e:	b220      	lw	v0,5bc <ota_receive_data+0x90>
 540:	0c15      	la	a0,594 <ota_receive_data+0x68>
 542:	67c5      	move	a2,a1
 544:	ea40      	jalr	v0
 546:	6f4b      	li	a3,75
 548:	1021      	b	58c <ota_receive_data+0x60>
 54a:	6dff      	li	a1,255
 54c:	1800 0000 	jal	0 <CheckSum16>
 550:	45a2      	addiu	a1,a1,2
 552:	ea0e      	xor	v0,s0
 554:	b01b      	lw	s0,5c0 <ota_receive_data+0x94>
 556:	98a0      	lw	a1,0(s0)
 558:	2a14      	bnez	v0,582 <ota_receive_data+0x56>
 55a:	adb8      	lhu	a1,48(a1)
 55c:	6785      	move	a0,a1
 55e:	ec2e      	xor	a0,s1
 560:	240c      	beqz	a0,57a <ota_receive_data+0x4e>
 562:	b217      	lw	v0,5bc <ota_receive_data+0x90>
 564:	6e02      	li	a2,2
 566:	0c10      	la	a0,5a4 <ota_receive_data+0x78>
 568:	ea40      	jalr	v0
 56a:	6f4b      	li	a3,75
 56c:	98c0      	lw	a2,0(s0)
 56e:	f020 a672 	lbu	v1,50(a2)
 572:	43e1      	addiu	a3,v1,1
 574:	f020 c6f2 	sb	a3,50(a2)
 578:	1009      	b	58c <ota_receive_data+0x60>
 57a:	1800 0000 	jal	0 <CheckSum16>
 57e:	6500      	nop
 580:	1005      	b	58c <ota_receive_data+0x60>
 582:	add8      	lhu	a2,48(a1)
 584:	6c00      	li	a0,0
 586:	cdd4      	sh	a2,40(a1)
 588:	f020 c58b 	sb	a0,43(a1)
 58c:	6a00      	li	v0,0
 58e:	6474      	restore	32,ra,s0-s1
 590:	e8a0      	jrc	ra
 592:	0000      	addiu	s0,sp,0
 594:	544f      	slti	a0,79
 596:	2041      	beqz	s0,61a <CheckSum32+0x52>
 598:	7473      	cmpi	a0,115
 59a:	7461      	cmpi	a0,97
 59c:	2065      	beqz	s0,668 <CheckSum32+0xa0>
 59e:	7265      	cmpi	v0,101
 5a0:	2172      	beqz	s1,686 <CheckSum32+0xbe>
 5a2:	0021      	addiu	s0,sp,132
 5a4:	6170      	btnez	686 <CheckSum32+0xbe>
 5a6:	676b      	move	v1,t3
 5a8:	6920      	li	s1,32
 5aa:	2073      	beqz	s0,692 <CheckSum32+0xca>
 5ac:	6f6e      	li	a3,110
 5ae:	2074      	beqz	s0,698 <CheckSum32+0xd0>
 5b0:	656e      	move	t3,a2
 5b2:	6465      	restore	40,ra,s0
 5b4:	0021      	addiu	s0,sp,132
	...

000005c4 <ota_receive_vram_data>:
 5c4:	e820      	jr	ra
 5c6:	6a00      	li	v0,0

000005c8 <CheckSum32>:
 5c8:	6b00      	li	v1,0
 5ca:	2505      	beqz	a1,5d6 <CheckSum32+0xe>
 5cc:	9c40      	lw	v0,0(a0)
 5ce:	45af      	addiu	a1,a1,-1
 5d0:	e34d      	addu	v1,v0
 5d2:	4484      	addiu	a0,a0,4
 5d4:	2dfb      	bnez	a1,5cc <CheckSum32+0x4>
 5d6:	e820      	jr	ra
 5d8:	6743      	move	v0,v1
 5da:	6500      	nop
Disassembly of section .reginfo:

00000000 <.reginfo>:
   0:	a10300ff 	sb	v1,255(t0)
	...
Disassembly of section .pdr:

00000000 <.pdr>:
	...
  18:	0000001d 	0x1d
  1c:	0000001f 	0x1f
  20:	00000000 	nop
  24:	80030000 	lb	v1,0(zero)
  28:	fffffffc 	sdc3	$31,-4(ra)
	...
  34:	00000030 	tge	zero,zero
  38:	0000001d 	0x1d
  3c:	0000001f 	0x1f
  40:	00000000 	nop
  44:	80030000 	lb	v1,0(zero)
  48:	fffffffc 	sdc3	$31,-4(ra)
	...
  54:	00000030 	tge	zero,zero
  58:	0000001d 	0x1d
  5c:	0000001f 	0x1f
  60:	00000000 	nop
  64:	80030000 	lb	v1,0(zero)
  68:	fffffffc 	sdc3	$31,-4(ra)
	...
  74:	00000020 	add	zero,zero,zero
  78:	0000001d 	0x1d
  7c:	0000001f 	0x1f
	...
  98:	0000001d 	0x1d
  9c:	0000001f 	0x1f
	...
  b8:	0000001d 	0x1d
  bc:	0000001f 	0x1f
Disassembly of section .debug_abbrev:

00000000 <.debug_abbrev>:
   0:	10011101 	beq	zero,at,4408 <CheckSum32+0x3e40>
   4:	11011206 	beq	t0,at,4820 <CheckSum32+0x4258>
   8:	130e2501 	beq	t8,t6,9410 <CheckSum32+0x8e48>
   c:	1b0e030b 	0x1b0e030b
  10:	0200000e 	0x200000e
  14:	0e030024 	jal	80c0090 <CheckSum32+0x80bfac8>
  18:	0b3e0b0b 	j	cf82c2c <CheckSum32+0xcf82664>
  1c:	16030000 	bne	s0,v1,20 <.debug_abbrev+0x20>
  20:	3a0e0300 	xori	t6,s0,0x300
  24:	490b3b0b 	bc2tl	$cc2,ec54 <CheckSum32+0xe68c>
  28:	04000013 	bltz	zero,78 <.debug_abbrev+0x78>
  2c:	08030024 	j	c0090 <CheckSum32+0xbfac8>
  30:	0b3e0b0b 	j	cf82c2c <CheckSum32+0xcf82664>
  34:	0f050000 	jal	c140000 <CheckSum32+0xc13fa38>
  38:	000b0b00 	sll	at,t3,0xc
  3c:	000f0600 	sll	zero,t7,0x18
  40:	13490b0b 	beq	k0,t1,2c70 <CheckSum32+0x26a8>
  44:	13070000 	beq	t8,a3,48 <.debug_abbrev+0x48>
  48:	0b130101 	j	c4c0404 <CheckSum32+0xc4bfe3c>
  4c:	3b0b3a0b 	xori	t3,t8,0x3a0b
  50:	0800000b 	j	2c <.debug_abbrev+0x2c>
  54:	0e03000d 	jal	80c0034 <CheckSum32+0x80bfa6c>
  58:	0b3b0b3a 	j	cec2ce8 <CheckSum32+0xcec2720>
  5c:	0a381349 	j	8e04d24 <CheckSum32+0x8e0475c>
  60:	01090000 	0x1090000
  64:	49130101 	bc2tl	$cc4,46c <.L25+0x278>
  68:	0a000013 	j	800004c <CheckSum32+0x7fffa84>
  6c:	13490021 	beq	k0,t1,f4 <.debug_abbrev+0xf4>
  70:	0d0b0000 	jal	42c0000 <CheckSum32+0x42bfa38>
  74:	3a080300 	xori	t0,s0,0x300
  78:	490b3b0b 	bc2tl	$cc2,eca8 <CheckSum32+0xe6e0>
  7c:	000a3813 	0xa3813
  80:	00210c00 	0x210c00
  84:	0b2f1349 	j	cbc4d24 <CheckSum32+0xcbc475c>
  88:	040d0000 	0x40d0000
  8c:	0b130101 	j	c4c0404 <CheckSum32+0xc4bfe3c>
  90:	3b0b3a0b 	xori	t3,t8,0x3a0b
  94:	0e00000b 	jal	800002c <CheckSum32+0x7fffa64>
  98:	0e030028 	jal	80c00a0 <CheckSum32+0x80bfad8>
  9c:	00000d1c 	0xd1c
  a0:	0300160f 	0x300160f
  a4:	3b0b3a0e 	xori	t3,t8,0x3a0e
  a8:	00134905 	0x134905
  ac:	01131000 	0x1131000
  b0:	0b0b1301 	j	c2c4c04 <CheckSum32+0xc2c463c>
  b4:	053b0b3a 	0x53b0b3a
  b8:	0d110000 	jal	4440000 <CheckSum32+0x443fa38>
  bc:	3a0e0300 	xori	t6,s0,0x300
  c0:	49053b0b 	bc2t	$cc1,ecf0 <CheckSum32+0xe728>
  c4:	000a3813 	0xa3813
  c8:	000d1200 	sll	v0,t5,0x8
  cc:	0b3a0e03 	j	ce8380c <CheckSum32+0xce83244>
  d0:	1349053b 	beq	k0,t1,15c0 <CheckSum32+0xff8>
  d4:	0b0d0b0b 	j	c342c2c <CheckSum32+0xc342664>
  d8:	0a380b0c 	j	8e02c30 <CheckSum32+0x8e02668>
  dc:	2e130000 	sltiu	s3,s0,0
  e0:	3f130101 	0x3f130101
  e4:	3a0e030c 	xori	t6,s0,0x30c
  e8:	27053b0b 	addiu	a1,t8,15115
  ec:	1113490c 	beq	t0,s3,12520 <CheckSum32+0x11f58>
  f0:	40011201 	0x40011201
  f4:	1400000a 	bnez	zero,120 <.debug_abbrev+0x120>
  f8:	08030005 	j	c0014 <CheckSum32+0xbfa4c>
  fc:	053b0b3a 	0x53b0b3a
 100:	0a021349 	j	8084d24 <CheckSum32+0x808475c>
 104:	34150000 	li	s5,0x0
 108:	3a0e0300 	xori	t6,s0,0x300
 10c:	49053b0b 	bc2t	$cc1,ed3c <CheckSum32+0xe774>
 110:	000a0213 	0xa0213
 114:	00341600 	0x341600
 118:	0b3a0803 	j	ce8200c <CheckSum32+0xce81a44>
 11c:	1349053b 	beq	k0,t1,160c <CheckSum32+0x1044>
 120:	00000a02 	srl	at,zero,0x8
 124:	01012e17 	0x1012e17
 128:	030c3f13 	0x30c3f13
 12c:	3b0b3a0e 	xori	t3,t8,0x3a0e
 130:	490c270b 	bc2f	$cc3,9d60 <CheckSum32+0x9798>
 134:	12011113 	beq	s0,at,4584 <CheckSum32+0x3fbc>
 138:	000a4001 	0xa4001
 13c:	00051800 	sll	v1,a1,0x0
 140:	0b3a0e03 	j	ce8380c <CheckSum32+0xce83244>
 144:	13490b3b 	beq	k0,t1,2e34 <CheckSum32+0x286c>
 148:	00000a02 	srl	at,zero,0x8
 14c:	03003419 	0x3003419
 150:	3b0b3a08 	xori	t3,t8,0x3a08
 154:	0213490b 	0x213490b
 158:	1a00000a 	blez	s0,184 <.debug_abbrev+0x184>
 15c:	08030034 	j	c00d0 <CheckSum32+0xbfb08>
 160:	0b3b0b3a 	j	cec2ce8 <CheckSum32+0xcec2720>
 164:	00001349 	0x1349
 168:	0300341b 	0x300341b
 16c:	3b0b3a0e 	xori	t3,t8,0x3a0e
 170:	0013490b 	0x13490b
 174:	00341c00 	0x341c00
 178:	0b3a0e03 	j	ce8380c <CheckSum32+0xce83244>
 17c:	13490b3b 	beq	k0,t1,2e6c <CheckSum32+0x28a4>
 180:	00000a02 	srl	at,zero,0x8
 184:	03000a1d 	0x3000a1d
 188:	3b0b3a0e 	xori	t3,t8,0x3a0e
 18c:	0001110b 	0x1110b
 190:	00341e00 	0x341e00
 194:	0b3a0e03 	j	ce8380c <CheckSum32+0xce83244>
 198:	1349053b 	beq	k0,t1,1688 <CheckSum32+0x10c0>
 19c:	341f0000 	li	ra,0x0
 1a0:	3a0e0300 	xori	t6,s0,0x300
 1a4:	490b3b0b 	bc2tl	$cc2,edd4 <CheckSum32+0xe80c>
 1a8:	3c0c3f13 	lui	t4,0x3f13
 1ac:	2000000c 	addi	zero,zero,12
 1b0:	0e030034 	jal	80c00d0 <CheckSum32+0x80bfb08>
 1b4:	053b0b3a 	0x53b0b3a
 1b8:	0c3f1349 	jal	fc4d24 <CheckSum32+0xfc475c>
 1bc:	00000c3c 	0xc3c
	...
Disassembly of section .debug_info:

00000000 <.debug_info>:
   0:	00000d54 	0xd54
   4:	00000002 	srl	zero,zero,0x0
   8:	01040000 	0x1040000
   c:	00000000 	nop
  10:	000005da 	0x5da
  14:	00000000 	nop
  18:	00000135 	0x135
  1c:	000d5f01 	0xd5f01
  20:	0003b600 	sll	s6,v1,0x18
  24:	06b50200 	0x6b50200
  28:	08010000 	j	40000 <CheckSum32+0x3fa38>
  2c:	00043303 	sra	a2,a0,0xc
  30:	250f0800 	addiu	t7,t0,2048
  34:	02000000 	0x2000000
  38:	00000c2f 	0xc2f
  3c:	1e020601 	0x1e020601
  40:	02000006 	srlv	zero,zero,s0
  44:	09920207 	j	648081c <CheckSum32+0x6480254>
  48:	05020000 	bltzl	t0,4c <.debug_info+0x4c>
  4c:	00007602 	srl	t6,zero,0x18
  50:	02070400 	0x2070400
  54:	00000e0c 	syscall	0x38
  58:	8f020504 	lw	v0,1284(t8)
  5c:	04000006 	bltz	zero,78 <.debug_info+0x78>
  60:	03490204 	0x3490204
  64:	04080000 	tgei	zero,0
  68:	000c9202 	srl	s2,t4,0x8
  6c:	02070800 	0x2070800
  70:	00000000 	nop
  74:	90020508 	lbu	v0,1288(zero)
  78:	0400000e 	bltz	zero,b4 <.debug_info+0xb4>
  7c:	03430307 	0x3430307
  80:	15020000 	bne	t0,v0,84 <.debug_info+0x84>
  84:	00000025 	move	zero,zero
  88:	000e6103 	sra	t4,t6,0x4
  8c:	3e1d0200 	0x3e1d0200
  90:	03000000 	0x3000000
  94:	00000e89 	0xe89
  98:	00762502 	0x762502
  9c:	ab030000 	swl	v1,0(t8)
  a0:	0200000b 	movn	zero,s0,zero
  a4:	0000a929 	0xa929
  a8:	6e690400 	0x6e690400
  ac:	05040074 	0x5040074
  b0:	000d4402 	srl	t0,t5,0x10
  b4:	03060100 	0x3060100
  b8:	00000166 	0x166
  bc:	003e6802 	ror	t5,s8,0x0
  c0:	48030000 	mfc2	v1,$0
  c4:	02000007 	srav	zero,zero,s0
  c8:	00007670 	tge	zero,zero,0x1d9
  cc:	00760200 	0x760200
  d0:	07040000 	0x7040000
  d4:	04060405 	0x4060405
  d8:	0000007d 	0x7d
  dc:	00013907 	0x13907
  e0:	62050a00 	0x62050a00
  e4:	00018a08 	0x18a08
  e8:	7d5c0500 	0x7d5c0500
  ec:	02000000 	0x2000000
  f0:	54080023 	bnel	zero,t0,180 <.debug_info+0x180>
  f4:	05000006 	bltz	t0,110 <.debug_info+0x110>
  f8:	00007d5d 	0x7d5d
  fc:	01230200 	0x1230200
 100:	00051c08 	0x51c08
 104:	885e0500 	lwl	s8,1280(v0)
 108:	02000000 	0x2000000
 10c:	33080223 	andi	t0,t8,0x223
 110:	0500000a 	bltz	t0,13c <.debug_info+0x13c>
 114:	0000885f 	0x885f
 118:	04230200 	bgezl	at,91c <.debug_info+0x91c>
 11c:	0008e408 	0x8e408
 120:	88600500 	lwl	zero,1280(v1)
 124:	02000000 	0x2000000
 128:	8a080623 	lwl	t0,1571(s0)
 12c:	0500000a 	bltz	t0,158 <.debug_info+0x158>
 130:	00008861 	0x8861
 134:	08230200 	j	8c0800 <CheckSum32+0x8c0238>
 138:	0d080300 	jal	4200c00 <CheckSum32+0x4200638>
 13c:	62050000 	0x62050000
 140:	000000dc 	0xdc
 144:	00017707 	0x17707
 148:	6a050200 	0x6a050200
 14c:	00022308 	0x22308
 150:	7d660500 	0x7d660500
 154:	02000000 	0x2000000
 158:	36080023 	ori	t0,s0,0x23
 15c:	0500000e 	bltz	t0,198 <.debug_info+0x198>
 160:	00007d68 	0x7d68
 164:	01230200 	0x1230200
 168:	000c2508 	0xc2508
 16c:	77690500 	jalx	da41400 <CheckSum32+0xda40e38>
 170:	02000001 	movf	zero,s0,$fcc0
 174:	09000223 	j	400088c <CheckSum32+0x40002c4>
 178:	00000186 	0x186
 17c:	00000139 	0x139
 180:	0000cd0a 	0xcd0a
 184:	ce030000 	pref	0x3,0(s0)
 188:	0500000b 	bltz	t0,1b8 <.debug_info+0x1b8>
 18c:	0001446a 	0x1446a
 190:	01c40700 	0x1c40700
 194:	05080000 	tgei	t0,0
 198:	49500b78 	0x49500b78
 19c:	75050044 	jalx	4140110 <CheckSum32+0x413fb48>
 1a0:	0000003e 	0x3e
 1a4:	0b002302 	j	c008c08 <CheckSum32+0xc008640>
 1a8:	00444956 	0x444956
 1ac:	003e7605 	0x3e7605
 1b0:	23020000 	addi	v0,t8,0
 1b4:	0bdf0802 	j	f7c2008 <CheckSum32+0xf7c1a40>
 1b8:	77050000 	jalx	c140000 <CheckSum32+0xc13fa38>
 1bc:	000001c4 	0x1c4
 1c0:	00042302 	srl	a0,a0,0xc
 1c4:	0001d409 	0x1d409
 1c8:	0000b000 	sll	s6,zero,0x0
 1cc:	00cd0c00 	0xcd0c00
 1d0:	00030000 	sll	zero,v1,0x0
 1d4:	00099c03 	sra	s3,t1,0x10
 1d8:	91780500 	lbu	t8,1280(t3)
 1dc:	07000001 	bltz	t8,1e4 <.debug_info+0x1e4>
 1e0:	00000274 	teq	zero,zero,0x9
 1e4:	088f0514 	j	23c1450 <CheckSum32+0x23c0e88>
 1e8:	0000045d 	0x45d
 1ec:	00888405 	0x888405
 1f0:	23020000 	addi	v0,t8,0
 1f4:	0c3b0800 	jal	ec2000 <CheckSum32+0xec1a38>
 1f8:	85050000 	lh	a1,0(t0)
 1fc:	0000007d 	0x7d
 200:	08022302 	j	88c08 <CheckSum32+0x88640>
 204:	00000bf8 	0xbf8
 208:	007d8605 	0x7d8605
 20c:	23020000 	addi	v0,t8,0
 210:	0c750803 	jal	1d4200c <CheckSum32+0x1d41a44>
 214:	87050000 	lh	a1,0(t8)
 218:	00000088 	0x88
 21c:	08042302 	j	108c08 <CheckSum32+0x108640>
 220:	00000a6c 	0xa6c
 224:	00888805 	0x888805
 228:	23020000 	addi	v0,t8,0
 22c:	06540806 	0x6540806
 230:	89050000 	lwl	a1,0(t0)
 234:	0000007d 	0x7d
 238:	08082302 	j	208c08 <CheckSum32+0x208640>
 23c:	00000799 	0x799
 240:	007d8a05 	0x7d8a05
 244:	23020000 	addi	v0,t8,0
 248:	03ab0809 	0x3ab0809
 24c:	8b050000 	lwl	a1,0(t8)
 250:	0000007d 	0x7d
 254:	080a2302 	j	288c08 <CheckSum32+0x288640>
 258:	000005ba 	0x5ba
 25c:	02748c05 	0x2748c05
 260:	23020000 	addi	v0,t8,0
 264:	0088080b 	movn	at,a0,t0
 268:	8d050000 	lw	a1,0(t0)
 26c:	000001d4 	0x1d4
 270:	000c2302 	srl	a0,t4,0xc
 274:	00028409 	0x28409
 278:	00007d00 	sll	t7,zero,0x14
 27c:	00cd0c00 	0xcd0c00
 280:	00000000 	nop
 284:	00069503 	sra	s2,a2,0x14
 288:	df8f0500 	ldc3	$15,1280(gp)
 28c:	07000001 	bltz	t8,294 <.debug_info+0x294>
 290:	000002de 	0x2de
 294:	08990510 	j	2641440 <CheckSum32+0x2640e78>
 298:	00000654 	0x654
 29c:	00939405 	0x939405
 2a0:	23020000 	addi	v0,t8,0
 2a4:	097b0800 	j	5ec2000 <CheckSum32+0x5ec1a38>
 2a8:	95050000 	lhu	a1,0(t0)
 2ac:	000000d6 	0xd6
 2b0:	08042302 	j	108c08 <CheckSum32+0x108640>
 2b4:	00000242 	srl	zero,zero,0x9
 2b8:	00939605 	0x939605
 2bc:	23020000 	addi	v0,t8,0
 2c0:	0dfb0808 	jal	7ec2020 <CheckSum32+0x7ec1a58>
 2c4:	97050000 	lhu	a1,0(t8)
 2c8:	00000088 	0x88
 2cc:	080c2302 	j	308c08 <CheckSum32+0x308640>
 2d0:	00000cdc 	0xcdc
 2d4:	00889805 	0x889805
 2d8:	23020000 	addi	v0,t8,0
 2dc:	5003000e 	beql	zero,v1,318 <.debug_info+0x318>
 2e0:	05000003 	bltz	t0,2f0 <.debug_info+0x2f0>
 2e4:	00028f99 	0x28f99
 2e8:	05080d00 	tgei	t0,3328
 2ec:	03020000 	0x3020000
 2f0:	05260ee0 	0x5260ee0
 2f4:	0e000000 	jal	8000000 <CheckSum32+0x7fffa38>
 2f8:	00000e68 	0xe68
 2fc:	095a0e01 	j	5683804 <CheckSum32+0x568323c>
 300:	0e020000 	jal	8080000 <CheckSum32+0x807fa38>
 304:	00000786 	0x786
 308:	0d490e03 	jal	524380c <CheckSum32+0x5243244>
 30c:	0e200000 	jal	8800000 <CheckSum32+0x87ffa38>
 310:	00000bc1 	0xbc1
 314:	890e0180 	lwl	t6,384(t0)
 318:	8100000d 	lb	zero,13(t0)
 31c:	00380e01 	0x380e01
 320:	01820000 	0x1820000
 324:	0000cf0e 	0xcf0e
 328:	0e018300 	jal	8060c00 <CheckSum32+0x8060638>
 32c:	000009f3 	tltu	zero,zero,0x27
 330:	000e0184 	0xe0184
 334:	85000005 	lh	zero,5(t0)
 338:	08790e01 	j	1e43804 <CheckSum32+0x1e4323c>
 33c:	01a10000 	0x1a10000
 340:	0008040e 	0x8040e
 344:	0e01ff00 	jal	807fc00 <CheckSum32+0x807f638>
 348:	00000db3 	tltu	zero,zero,0x36
 34c:	010e0280 	0x10e0280
 350:	81000007 	lb	zero,7(t0)
 354:	06ee0e02 	tnei	s7,3586
 358:	02820000 	0x2820000
 35c:	0003980e 	0x3980e
 360:	0e028300 	jal	80a0c00 <CheckSum32+0x80a0638>
 364:	00000631 	tgeu	zero,zero,0x18
 368:	5b0e0284 	0x5b0e0284
 36c:	8500000c 	lh	zero,12(t0)
 370:	00a80e02 	0xa80e02
 374:	02860000 	0x2860000
 378:	0007ee0e 	0x7ee0e
 37c:	0e028700 	jal	80a1c00 <CheckSum32+0x80a1638>
 380:	00000e15 	0xe15
 384:	4b0e0288 	c2	0x10e0288
 388:	89000002 	lwl	zero,2(t0)
 38c:	01950e02 	0x1950e02
 390:	028a0000 	0x28a0000
 394:	00025c0e 	0x25c0e
 398:	0e028b00 	jal	80a2c00 <CheckSum32+0x80a2638>
 39c:	000006c3 	sra	zero,zero,0x1b
 3a0:	250e028c 	addiu	t6,t0,652
 3a4:	8d000003 	lw	zero,3(t0)
 3a8:	0b860e02 	j	e183808 <CheckSum32+0xe183240>
 3ac:	028e0000 	0x28e0000
 3b0:	0008170e 	0x8170e
 3b4:	0e028f00 	jal	80a3c00 <CheckSum32+0x80a3638>
 3b8:	00000362 	0x362
 3bc:	c30e0290 	ll	t6,656(t8)
 3c0:	91000005 	lbu	zero,5(t0)
 3c4:	08300e02 	j	c03808 <CheckSum32+0xc03240>
 3c8:	02920000 	0x2920000
 3cc:	000de60e 	0xde60e
 3d0:	0e029300 	jal	80a4c00 <CheckSum32+0x80a4638>
 3d4:	000005e7 	0x5e7
 3d8:	b10e0294 	0xb10e0294
 3dc:	9500000b 	lhu	zero,11(t0)
 3e0:	04ad0e02 	0x4ad0e02
 3e4:	02960000 	0x2960000
 3e8:	00000e0e 	0xe0e
 3ec:	0e029700 	jal	80a5c00 <CheckSum32+0x80a5638>
 3f0:	00000cf8 	0xcf8
 3f4:	760e0298 	jalx	8380a60 <CheckSum32+0x8380498>
 3f8:	9900000e 	lwr	zero,14(t0)
 3fc:	0a980e02 	j	a603808 <CheckSum32+0xa603240>
 400:	029a0000 	0x29a0000
 404:	0005680e 	0x5680e
 408:	0e029b00 	jal	80a6c00 <CheckSum32+0x80a6638>
 40c:	00000479 	0x479
 410:	a00e029c 	sb	t6,668(zero)
 414:	9d000007 	0x9d000007
 418:	0a540e02 	j	9503808 <CheckSum32+0x9503240>
 41c:	029e0000 	0x29e0000
 420:	0000fe0e 	0xfe0e
 424:	0e029f00 	jal	80a7c00 <CheckSum32+0x80a7638>
 428:	00000205 	0x205
 42c:	740e02a0 	jalx	380a80 <CheckSum32+0x3804b8>
 430:	a100000d 	sb	zero,13(t0)
 434:	057b0e02 	0x57b0e02
 438:	02a20000 	0x2a20000
 43c:	000ca90e 	0xca90e
 440:	0e02a300 	jal	80a8c00 <CheckSum32+0x80a8638>
 444:	00000e4e 	0xe4e
 448:	5c0e02a4 	0x5c0e02a4
 44c:	a5000006 	sh	zero,6(t0)
 450:	04630e02 	bgezl	v1,3c5c <CheckSum32+0x3694>
 454:	02a60000 	0x2a60000
 458:	000b5c0e 	0xb5c0e
 45c:	0e02a700 	jal	80a9c00 <CheckSum32+0x80a9638>
 460:	00000725 	0x725
 464:	ed0e02a8 	swc3	$14,680(t0)
 468:	a9000002 	swl	zero,2(t0)
 46c:	030a0e02 	0x30a0e02
 470:	02aa0000 	0x2aa0000
 474:	000aac0e 	0xaac0e
 478:	0e02ab00 	jal	80aac00 <CheckSum32+0x80aa638>
 47c:	00000ac2 	srl	at,zero,0xb
 480:	d80e02ac 	ldc2	$14,684(zero)
 484:	ad00000a 	sw	zero,10(t0)
 488:	0aee0e02 	j	bb83808 <CheckSum32+0xbb83240>
 48c:	02ae0000 	0x2ae0000
 490:	000b040e 	0xb040e
 494:	0e02af00 	jal	80abc00 <CheckSum32+0x80ab638>
 498:	000007b3 	tltu	zero,zero,0x1e
 49c:	1a0e02b0 	0x1a0e02b0
 4a0:	b100000b 	0xb100000b
 4a4:	0b300e02 	j	cc03808 <CheckSum32+0xcc03240>
 4a8:	02b20000 	0x2b20000
 4ac:	0007c90e 	0x7c90e
 4b0:	0e02b300 	jal	80acc00 <CheckSum32+0x80ac638>
 4b4:	00000b46 	0xb46
 4b8:	e70e02b4 	swc1	$f14,692(t8)
 4bc:	8000000b 	lb	zero,11(zero)
 4c0:	074f0e04 	0x74f0e04
 4c4:	04810000 	bgez	a0,4c8 <.debug_info+0x4c8>
 4c8:	00022e0e 	0x22e0e
 4cc:	0e048200 	jal	8120800 <CheckSum32+0x8120238>
 4d0:	00000946 	0x946
 4d4:	930e0483 	lbu	t6,1155(t8)
 4d8:	84000000 	lh	zero,0(zero)
 4dc:	0c800e04 	jal	2003810 <CheckSum32+0x2003248>
 4e0:	04850000 	0x4850000
 4e4:	000b9a0e 	0xb9a0e
 4e8:	0e048600 	jal	8121800 <CheckSum32+0x8121238>
 4ec:	000006d4 	0x6d4
 4f0:	450e0487 	bc1fl	$fcc3,1710 <CheckSum32+0x1148>
 4f4:	88000005 	lwl	zero,5(zero)
 4f8:	02d30e04 	0x2d30e04
 4fc:	04890000 	tgeiu	a0,0
 500:	00027b0e 	0x27b0e
 504:	00048a00 	sll	s1,a0,0x8
 508:	000a260f 	0xa260f
 50c:	017a0300 	0x17a0300
 510:	000002e9 	0x2e9
 514:	00052409 	0x52409
 518:	00007d00 	sll	t7,zero,0x14
 51c:	00cd0c00 	0xcd0c00
 520:	00050000 	sll	zero,a1,0x0
 524:	00066910 	0x66910
 528:	40071c00 	0x40071c00
 52c:	06121101 	bltzall	s0,4934 <CheckSum32+0x436c>
 530:	18070000 	0x18070000
 534:	00007d01 	0x7d01
 538:	00230200 	0x230200
 53c:	00017d11 	0x17d11
 540:	011a0700 	0x11a0700
 544:	0000007d 	0x7d
 548:	11012302 	beq	t0,at,9154 <CheckSum32+0x8b8c>
 54c:	00000cc3 	sra	at,zero,0x13
 550:	7d011c07 	0x7d011c07
 554:	02000000 	0x2000000
 558:	39110223 	xori	s1,t0,0x223
 55c:	07000003 	bltz	t8,56c <.debug_info+0x56c>
 560:	007d011e 	0x7d011e
 564:	23020000 	addi	v0,t8,0
 568:	07641103 	0x7641103
 56c:	23070000 	addi	a3,t8,0
 570:	00007d01 	0x7d01
 574:	04230200 	bgezl	at,d78 <CheckSum32+0x7b0>
 578:	0001cc11 	0x1cc11
 57c:	01240700 	0x1240700
 580:	0000007d 	0x7d
 584:	12052302 	beq	s0,a1,9190 <CheckSum32+0x8bc8>
 588:	0000026d 	0x26d
 58c:	7d012507 	0x7d012507
 590:	01000000 	0x1000000
 594:	23020404 	addi	v0,t8,1028
 598:	0ccd1206 	jal	3344818 <CheckSum32+0x3344250>
 59c:	26070000 	addiu	a3,s0,0
 5a0:	00007d01 	0x7d01
 5a4:	00040100 	sll	zero,a0,0x4
 5a8:	11062302 	beq	t0,a2,91b4 <CheckSum32+0x8bec>
 5ac:	0000077a 	0x77a
 5b0:	7d012907 	0x7d012907
 5b4:	02000000 	0x2000000
 5b8:	c2110723 	ll	s1,1827(s0)
 5bc:	07000004 	bltz	t8,5d0 <.debug_info+0x5d0>
 5c0:	007d012b 	0x7d012b
 5c4:	23020000 	addi	v0,t8,0
 5c8:	08ff1108 	j	3fc4420 <CheckSum32+0x3fc3e58>
 5cc:	2e070000 	sltiu	a3,s0,0
 5d0:	00007d01 	0x7d01
 5d4:	09230200 	j	48c0800 <CheckSum32+0x48c0238>
 5d8:	00049711 	0x49711
 5dc:	01310700 	0x1310700
 5e0:	0000002c 	0x2c
 5e4:	110a2302 	beq	t0,t2,91f0 <CheckSum32+0x8c28>
 5e8:	00000849 	0x849
 5ec:	69013207 	0x69013207
 5f0:	02000006 	srlv	zero,zero,s0
 5f4:	95110c23 	lhu	s1,3107(t0)
 5f8:	07000005 	bltz	t8,610 <.debug_info+0x610>
 5fc:	06690135 	tgeiu	s3,309
 600:	23020000 	addi	v0,t8,0
 604:	005b1110 	0x5b1110
 608:	36070000 	ori	a3,s0,0x0
 60c:	00066901 	0x66901
 610:	14230200 	bne	at,v1,e14 <CheckSum32+0x84c>
 614:	0009ba11 	0x9ba11
 618:	01390700 	0x1390700
 61c:	0000007d 	0x7d
 620:	11182302 	beq	t0,t8,922c <CheckSum32+0x8c64>
 624:	000005d9 	0x5d9
 628:	7d013a07 	0x7d013a07
 62c:	02000000 	0x2000000
 630:	bc121923 	cache	0x12,6435(zero)
 634:	07000008 	bltz	t8,658 <.debug_info+0x658>
 638:	007d013c 	0x7d013c
 63c:	03010000 	0x3010000
 640:	1a230205 	0x1a230205
 644:	0001ea12 	0x1ea12
 648:	013d0700 	0x13d0700
 64c:	0000007d 	0x7d
 650:	02040101 	0x2040101
 654:	b2121a23 	0xb2121a23
 658:	07000005 	bltz	t8,670 <.debug_info+0x670>
 65c:	007d013e 	0x7d013e
 660:	04010000 	b	664 <.debug_info+0x664>
 664:	1a230200 	0x1a230200
 668:	45040600 	bc1f	$fcc1,1e6c <CheckSum32+0x18a4>
 66c:	0f000000 	jal	c000000 <CheckSum32+0xbfffa38>
 670:	00000dc3 	sra	at,zero,0x17
 674:	24014007 	li	at,16391
 678:	10000005 	b	690 <.debug_info+0x690>
 67c:	00000802 	srl	at,zero,0x0
 680:	017a0718 	0x17a0718
 684:	00055d11 	0x55d11
 688:	01490700 	0x1490700
 68c:	0000002c 	0x2c
 690:	11002302 	beqz	t0,929c <CheckSum32+0x8cd4>
 694:	00000121 	0x121
 698:	2c014b07 	sltiu	at,zero,19207
 69c:	02000000 	0x2000000
 6a0:	de110123 	ldc3	$17,291(s0)
 6a4:	07000009 	bltz	t8,6cc <.debug_info+0x6cc>
 6a8:	007d014d 	break	0x7d,0x5
 6ac:	23020000 	addi	v0,t8,0
 6b0:	016d1102 	0x16d1102
 6b4:	4f070000 	c3	0x1070000
 6b8:	00007d01 	0x7d01
 6bc:	03230200 	0x3230200
 6c0:	00092411 	0x92411
 6c4:	01510700 	0x1510700
 6c8:	0000007d 	0x7d
 6cc:	11042302 	beq	t0,a0,92d8 <CheckSum32+0x8d10>
 6d0:	0000093a 	0x93a
 6d4:	7d015307 	0x7d015307
 6d8:	02000000 	0x2000000
 6dc:	28110523 	slti	s1,zero,1315
 6e0:	0700000d 	bltz	t8,718 <.debug_info+0x718>
 6e4:	007d0155 	0x7d0155
 6e8:	23020000 	addi	v0,t8,0
 6ec:	0a7e1106 	j	9f84418 <CheckSum32+0x9f83e50>
 6f0:	57070000 	bnel	t8,a3,6f4 <.debug_info+0x6f4>
 6f4:	00007d01 	0x7d01
 6f8:	07230200 	bgezl	t9,efc <CheckSum32+0x934>
 6fc:	00002311 	0x2311
 700:	01590700 	0x1590700
 704:	0000002c 	0x2c
 708:	11082302 	beq	t0,t0,9314 <CheckSum32+0x8d4c>
 70c:	00000c68 	0xc68
 710:	7d015b07 	0x7d015b07
 714:	02000000 	0x2000000
 718:	95110923 	lhu	s1,2339(t0)
 71c:	07000002 	bltz	t8,728 <.debug_info+0x728>
 720:	007d015d 	0x7d015d
 724:	23020000 	addi	v0,t8,0
 728:	08d9110a 	j	3644428 <CheckSum32+0x3643e60>
 72c:	5f070000 	0x5f070000
 730:	00002c01 	0x2c01
 734:	0b230200 	j	c8c0800 <CheckSum32+0xc8c0238>
 738:	000c0b12 	0xc0b12
 73c:	01610700 	0x1610700
 740:	0000007d 	0x7d
 744:	02010701 	0x2010701
 748:	d9120c23 	ldc2	$18,3107(t0)
 74c:	07000005 	bltz	t8,764 <.debug_info+0x764>
 750:	007d0162 	0x7d0162
 754:	01010000 	0x1010000
 758:	0c230200 	jal	8c0800 <CheckSum32+0x8c0238>
 75c:	000dd811 	0xdd811
 760:	01640700 	0x1640700
 764:	0000007d 	0x7d
 768:	110d2302 	beq	t0,t5,9374 <CheckSum32+0x8dac>
 76c:	000003f0 	tge	zero,zero,0xf
 770:	2c016707 	sltiu	at,zero,26375
 774:	02000000 	0x2000000
 778:	ae110e23 	sw	s1,3619(s0)
 77c:	07000009 	bltz	t8,7a4 <.debug_info+0x7a4>
 780:	002c0169 	0x2c0169
 784:	23020000 	addi	v0,t8,0
 788:	0c4b110f 	jal	12c443c <CheckSum32+0x12c3e74>
 78c:	6b070000 	0x6b070000
 790:	00002c01 	0x2c01
 794:	10230200 	beq	at,v1,f98 <CheckSum32+0x9d0>
 798:	0002fe11 	0x2fe11
 79c:	016d0700 	0x16d0700
 7a0:	0000002c 	0x2c
 7a4:	11112302 	beq	t0,s1,93b0 <CheckSum32+0x8de8>
 7a8:	000008ad 	0x8ad
 7ac:	7d016f07 	0x7d016f07
 7b0:	02000000 	0x2000000
 7b4:	29111223 	slti	s1,t0,4643
 7b8:	07000001 	bltz	t8,7c0 <.debug_info+0x7c0>
 7bc:	007d0171 	tgeu	v1,sp,0x5
 7c0:	23020000 	addi	v0,t8,0
 7c4:	02181113 	0x2181113
 7c8:	73070000 	madd	t8,a3
 7cc:	00007d01 	0x7d01
 7d0:	14230200 	bne	at,v1,fd4 <CheckSum32+0xa0c>
 7d4:	0001b811 	0x1b811
 7d8:	01750700 	0x1750700
 7dc:	0000007d 	0x7d
 7e0:	11152302 	beq	t0,s5,93ec <CheckSum32+0x8e24>
 7e4:	00000892 	0x892
 7e8:	7d017707 	0x7d017707
 7ec:	02000000 	0x2000000
 7f0:	39111623 	xori	s1,t0,0x1623
 7f4:	07000004 	bltz	t8,808 <.debug_info+0x808>
 7f8:	007d0179 	0x7d0179
 7fc:	23020000 	addi	v0,t8,0
 800:	cd0f0017 	pref	0xf,23(t0)
 804:	07000009 	bltz	t8,82c <.debug_info+0x82c>
 808:	067b017a 	0x67b017a
 80c:	54100000 	bnel	zero,s0,810 <.debug_info+0x810>
 810:	04000008 	bltz	zero,834 <.debug_info+0x834>
 814:	11018a07 	beq	t0,at,fffe3034 <CheckSum32+0xfffe2a6c>
 818:	00000cee 	0xcee
 81c:	7d018307 	0x7d018307
 820:	02000000 	0x2000000
 824:	bf110023 	cache	0x11,35(t8)
 828:	07000000 	bltz	t8,82c <.debug_info+0x82c>
 82c:	007d0185 	0x7d0185
 830:	23020000 	addi	v0,t8,0
 834:	08691101 	j	1a44404 <CheckSum32+0x1a43e3c>
 838:	87070000 	lh	a3,0(t8)
 83c:	00007d01 	0x7d01
 840:	02230200 	0x2230200
 844:	00064511 	0x64511
 848:	01890700 	0x1890700
 84c:	0000007d 	0x7d
 850:	00032302 	srl	a0,v1,0xc
 854:	00040c0f 	0x40c0f
 858:	018a0700 	0x18a0700
 85c:	0000080e 	0x80e
 860:	00880406 	0x880406
 864:	c3070000 	ll	a3,0(t8)
 868:	0e000008 	jal	8000020 <CheckSum32+0x7fffa58>
 86c:	88082604 	lwl	t0,9732(zero)
 870:	04000000 	bltz	zero,874 <.debug_info+0x874>
 874:	0001d41f 	0x1d41f
 878:	00230200 	0x230200
 87c:	0007df08 	0x7df08
 880:	88200400 	lwl	zero,1024(at)
 884:	02000000 	0x2000000
 888:	54080823 	bnel	zero,t0,2918 <CheckSum32+0x2350>
 88c:	04000006 	bltz	zero,8a8 <.debug_info+0x8a8>
 890:	00007d21 	0x7d21
 894:	0a230200 	j	88c0800 <CheckSum32+0x88c0238>
 898:	000d1908 	0xd1908
 89c:	7d220400 	0x7d220400
 8a0:	02000000 	0x2000000
 8a4:	77080b23 	jalx	c202c8c <CheckSum32+0xc2026c4>
 8a8:	04000003 	bltz	zero,8b8 <.debug_info+0x8b8>
 8ac:	00007d24 	0x7d24
 8b0:	0c230200 	jal	8c0800 <CheckSum32+0x8c0238>
 8b4:	0005ba08 	0x5ba08
 8b8:	7d250400 	0x7d250400
 8bc:	02000000 	0x2000000
 8c0:	03000d23 	0x3000d23
 8c4:	00000b74 	teq	zero,zero,0x2d
 8c8:	08662604 	j	1989810 <CheckSum32+0x1989248>
 8cc:	f3070000 	0xf3070000
 8d0:	10000008 	b	8f4 <.debug_info+0x8f4>
 8d4:	9f082c04 	0x9f082c04
 8d8:	04000002 	bltz	zero,8e4 <.debug_info+0x8e4>
 8dc:	00007d2a 	0x7d2a
 8e0:	00230200 	0x230200
 8e4:	0005ba08 	0x5ba08
 8e8:	f32b0400 	0xf32b0400
 8ec:	02000008 	jr	s0
 8f0:	09000123 	j	400048c <CheckSum32+0x3fffec4>
 8f4:	00000903 	sra	at,zero,0x4
 8f8:	0000007d 	0x7d
 8fc:	0000cd0c 	syscall	0x334
 900:	03000e00 	0x3000e00
 904:	00000738 	0x738
 908:	08ce2c04 	j	338b010 <CheckSum32+0x338aa48>
 90c:	79070000 	0x79070000
 910:	10000009 	b	938 <.debug_info+0x938>
 914:	9f083804 	0x9f083804
 918:	04000002 	bltz	zero,924 <.debug_info+0x924>
 91c:	00007d31 	tgeu	zero,zero,0x1f4
 920:	00230200 	0x230200
 924:	0005aa08 	0x5aa08
 928:	7d320400 	0x7d320400
 92c:	02000000 	0x2000000
 930:	df080123 	ldc3	$8,291(t8)
 934:	04000007 	bltz	zero,954 <.debug_info+0x954>
 938:	00008833 	tltu	zero,zero,0x220
 93c:	02230200 	0x2230200
 940:	00091508 	0x91508
 944:	93340400 	lbu	s4,1024(t9)
 948:	02000000 	0x2000000
 94c:	54080423 	bnel	zero,t0,19dc <CheckSum32+0x1414>
 950:	04000006 	bltz	zero,96c <.debug_info+0x96c>
 954:	00007d35 	0x7d35
 958:	08230200 	j	8c0800 <CheckSum32+0x8c0238>
 95c:	000d1908 	0xd1908
 960:	7d360400 	0x7d360400
 964:	02000000 	0x2000000
 968:	18080923 	0x18080923
 96c:	04000001 	bltz	zero,974 <.debug_info+0x974>
 970:	00051437 	0x51437
 974:	0a230200 	j	88c0800 <CheckSum32+0x88c0238>
 978:	00f10300 	0xf10300
 97c:	38040000 	xori	a0,zero,0x0
 980:	0000090e 	0x90e
 984:	0009e107 	0x9e107
 988:	43041400 	c0	0x1041400
 98c:	00008808 	0x8808
 990:	d43d0400 	ldc1	$f29,1024(at)
 994:	02000001 	movf	zero,s0,$fcc0
 998:	f0080023 	0xf0080023
 99c:	04000008 	bltz	zero,9c0 <.debug_info+0x9c0>
 9a0:	0000933e 	0x933e
 9a4:	08230200 	j	8c0800 <CheckSum32+0x8c0238>
 9a8:	000a6c08 	0xa6c08
 9ac:	883f0400 	lwl	ra,1024(at)
 9b0:	02000000 	0x2000000
 9b4:	54080c23 	bnel	zero,t0,3a44 <CheckSum32+0x347c>
 9b8:	04000006 	bltz	zero,9d4 <.debug_info+0x9d4>
 9bc:	00007d40 	sll	t7,zero,0x15
 9c0:	0e230200 	jal	88c0800 <CheckSum32+0x88c0238>
 9c4:	0005ba08 	0x5ba08
 9c8:	74410400 	jalx	1041000 <CheckSum32+0x1040a38>
 9cc:	02000002 	0x2000002
 9d0:	aa080f23 	swl	t0,3875(s0)
 9d4:	04000006 	bltz	zero,9f0 <.debug_info+0x9f0>
 9d8:	00018642 	srl	s0,at,0x19
 9dc:	10230200 	beq	at,v1,11e0 <CheckSum32+0xc18>
 9e0:	08c70300 	j	31c0c00 <CheckSum32+0x31c0638>
 9e4:	43040000 	c0	0x1040000
 9e8:	00000984 	0x984
 9ec:	000a4907 	0xa4907
 9f0:	63043400 	0x63043400
 9f4:	000da408 	0xda408
 9f8:	035d0400 	0x35d0400
 9fc:	02000009 	jalr	zero,s0
 a00:	6c080023 	0x6c080023
 a04:	04000009 	bltz	zero,a2c <.debug_info+0xa2c>
 a08:	0009795e 	0x9795e
 a0c:	10230200 	beq	at,v1,1210 <CheckSum32+0xc48>
 a10:	0004f008 	0x4f008
 a14:	c35f0400 	ll	ra,1024(k0)
 a18:	02000008 	jr	s0
 a1c:	32082023 	andi	t0,s0,0x2023
 a20:	04000005 	bltz	zero,a38 <.debug_info+0xa38>
 a24:	00008860 	0x8860
 a28:	2e230200 	sltiu	v1,s1,512
 a2c:	00038708 	0x38708
 a30:	88610400 	lwl	at,1024(v1)
 a34:	02000000 	0x2000000
 a38:	a6083023 	sh	t0,12323(s0)
 a3c:	04000001 	bltz	zero,a44 <.debug_info+0xa44>
 a40:	00007d62 	0x7d62
 a44:	32230200 	andi	v1,s1,0x200
 a48:	0a410300 	j	9040c00 <CheckSum32+0x9040638>
 a4c:	63040000 	0x63040000
 a50:	000009ec 	0x9ec
 a54:	000aa913 	0xaa913
 a58:	092f0100 	j	4bc0400 <CheckSum32+0x4bbfe38>
 a5c:	65010000 	0x65010000
 a60:	00b70101 	0xb70101
 a64:	00000000 	nop
 a68:	00180000 	sll	zero,t8,0x0
 a6c:	6d010000 	0x6d010000
 a70:	66756214 	0x66756214
 a74:	01640100 	0x1640100
 a78:	00000aa9 	0xaa9
 a7c:	6c146801 	0x6c146801
 a80:	01006e65 	0x1006e65
 a84:	00c20164 	0xc20164
 a88:	55010000 	bnel	t0,at,a8c <.debug_info+0xa8c>
 a8c:	00051615 	0x51615
 a90:	01660100 	0x1660100
 a94:	000000c2 	srl	zero,zero,0x3
 a98:	73165501 	0x73165501
 a9c:	01006d75 	0x1006d75
 aa0:	00b70167 	0xb70167
 aa4:	53010000 	beql	t8,at,aa8 <.debug_info+0xaa8>
 aa8:	b7040600 	0xb7040600
 aac:	17000000 	bnez	t8,ab0 <.debug_info+0xab0>
 ab0:	00000b83 	sra	at,zero,0xe
 ab4:	0004d701 	0x4d701
 ab8:	010e0100 	0x10e0100
 abc:	00000508 	0x508
 ac0:	00000000 	nop
 ac4:	00000390 	0x390
 ac8:	70186d01 	0x70186d01
 acc:	01000000 	0x1000000
 ad0:	0000930d 	break	0x0,0x24c
 ad4:	18540100 	0x18540100
 ad8:	000008a7 	0x8a7
 adc:	00930d01 	0x930d01
 ae0:	55010000 	bnel	t0,at,ae4 <.debug_info+0xae4>
 ae4:	000c0618 	0xc0618
 ae8:	d40d0100 	ldc1	$f13,256(zero)
 aec:	01000000 	0x1000000
 af0:	02421860 	0x2421860
 af4:	0d010000 	jal	4040000 <CheckSum32+0x403fa38>
 af8:	00000088 	0x88
 afc:	69195701 	0x69195701
 b00:	930f0100 	lbu	t7,256(t8)
 b04:	01000000 	0x1000000
 b08:	75621a55 	jalx	5886954 <CheckSum32+0x588638c>
 b0c:	10010066 	beq	zero,at,ca8 <.debug_info+0xca8>
 b10:	00000860 	0x860
 b14:	00041d1b 	0x41d1b
 b18:	d6110100 	ldc1	$f17,256(s0)
 b1c:	1c000000 	bgtz	zero,b20 <.debug_info+0xb20>
 b20:	000009a5 	0x9a5
 b24:	00881201 	0x881201
 b28:	91020000 	lbu	v0,0(t0)
 b2c:	0c1b1b10 	jal	6c6c40 <CheckSum32+0x6c6678>
 b30:	13010000 	beq	t8,at,b34 <.debug_info+0xb34>
 b34:	0000007d 	0x7d
 b38:	7465721a 	jalx	195c868 <CheckSum32+0x195c2a0>
 b3c:	a9140100 	swl	s4,256(t0)
 b40:	1b000000 	blez	t8,b44 <.debug_info+0xb44>
 b44:	0000015a 	0x15a
 b48:	0b831501 	j	e0c5404 <CheckSum32+0xe0c4e3c>
 b4c:	e81c0000 	swc2	$28,0(zero)
 b50:	01000009 	jalr	zero,t0
 b54:	000b8916 	0xb8916
 b58:	1c600100 	bgtz	v1,f5c <CheckSum32+0x994>
 b5c:	00000d35 	0xd35
 b60:	0b891701 	j	e245c04 <CheckSum32+0xe24563c>
 b64:	91020000 	lbu	v0,0(t0)
 b68:	004a1c14 	0x4a1c14
 b6c:	18010000 	0x18010000
 b70:	000000d6 	0xd6
 b74:	1d189102 	0x1d189102
 b78:	00000684 	0x684
 b7c:	00008a01 	0x8a01
 b80:	06000000 	bltz	s0,b84 <.debug_info+0xb84>
 b84:	0009e104 	0x9e104
 b88:	86040600 	lh	a0,1536(s0)
 b8c:	13000001 	beqz	t8,b94 <.debug_info+0xb94>
 b90:	00000bc7 	0xbc7
 b94:	000e3e01 	0xe3e01
 b98:	010e0100 	0x10e0100
 b9c:	00009301 	0x9301
 ba0:	00000000 	nop
 ba4:	00051400 	sll	v0,a1,0x10
 ba8:	1e6d0100 	0x1e6d0100
 bac:	00000404 	0x404
 bb0:	9e010f01 	0x9e010f01
 bb4:	15000000 	bnez	t0,bb8 <.debug_info+0xbb8>
 bb8:	0000002c 	0x2c
 bbc:	de011001 	ldc3	$1,4097(s0)
 bc0:	02000002 	0x2000002
 bc4:	17001091 	bnez	t8,4e0c <CheckSum32+0x4844>
 bc8:	00000c47 	0xc47
 bcc:	00067301 	0x67301
 bd0:	01d40100 	0x1d40100
 bd4:	00000508 	0x508
 bd8:	00000000 	nop
 bdc:	00000594 	0x594
 be0:	70186d01 	0x70186d01
 be4:	01000000 	0x1000000
 be8:	000093d3 	0x93d3
 bec:	18540100 	0x18540100
 bf0:	000008a7 	0x8a7
 bf4:	0093d301 	0x93d301
 bf8:	55010000 	bnel	t0,at,bfc <.debug_info+0xbfc>
 bfc:	000c0618 	0xc0618
 c00:	d4d30100 	ldc1	$f19,256(a2)
 c04:	01000000 	0x1000000
 c08:	02421856 	0x2421856
 c0c:	d3010000 	0xd3010000
 c10:	00000088 	0x88
 c14:	621a5701 	0x621a5701
 c18:	01006675 	0x1006675
 c1c:	000860d5 	0x860d5
 c20:	09a51c00 	j	6947000 <CheckSum32+0x6946a38>
 c24:	d6010000 	ldc1	$f1,0(s0)
 c28:	00000088 	0x88
 c2c:	ad1c6001 	sw	gp,24577(t0)
 c30:	01000002 	0x1000002
 c34:	000088d7 	0x88d7
 c38:	1b610100 	0x1b610100
 c3c:	00000404 	0x404
 c40:	009ed801 	0x9ed801
 c44:	17000000 	bnez	t8,c48 <.debug_info+0xc48>
 c48:	00000c97 	0xc97
 c4c:	00044701 	0x44701
 c50:	01ff0100 	0x1ff0100
 c54:	00000508 	0x508
 c58:	00000000 	nop
 c5c:	000005c8 	0x5c8
 c60:	70186d01 	0x70186d01
 c64:	01000000 	0x1000000
 c68:	000093fe 	0x93fe
 c6c:	18540100 	0x18540100
 c70:	000008a7 	0x8a7
 c74:	0093fe01 	0x93fe01
 c78:	55010000 	bnel	t0,at,c7c <.debug_info+0xc7c>
 c7c:	000c0618 	0xc0618
 c80:	d4fe0100 	ldc1	$f30,256(a3)
 c84:	01000000 	0x1000000
 c88:	02421856 	0x2421856
 c8c:	fe010000 	sdc3	$1,0(s0)
 c90:	00000088 	0x88
 c94:	13005701 	beqz	t8,1689c <CheckSum32+0x162d4>
 c98:	00000cec 	0xcec
 c9c:	00098701 	0x98701
 ca0:	01720100 	0x1720100
 ca4:	0000c201 	0xc201
 ca8:	00000000 	nop
 cac:	0005da00 	sll	k1,a1,0x8
 cb0:	146d0100 	bne	v1,t5,10b4 <CheckSum32+0xaec>
 cb4:	00667562 	0x667562
 cb8:	ec017101 	swc3	$1,28929(zero)
 cbc:	0100000c 	syscall	0x40000
 cc0:	656c1468 	0x656c1468
 cc4:	7101006e 	0x7101006e
 cc8:	0000c201 	0xc201
 ccc:	15550100 	bne	t2,s5,10d0 <CheckSum32+0xb08>
 cd0:	00000516 	0x516
 cd4:	c2017301 	ll	at,29441(s0)
 cd8:	01000000 	0x1000000
 cdc:	75731655 	jalx	5cc5954 <CheckSum32+0x5cc538c>
 ce0:	7401006d 	jalx	401b4 <CheckSum32+0x3fbec>
 ce4:	0000c201 	0xc201
 ce8:	00530100 	0x530100
 cec:	00c20406 	0xc20406
 cf0:	be1f0000 	cache	0x1f,0(s0)
 cf4:	06000002 	bltz	s0,d00 <.debug_info+0xd00>
 cf8:	00007d8a 	0x7d8a
 cfc:	20010100 	addi	at,zero,256
 d00:	000005fd 	0x5fd
 d04:	6f019e07 	0x6f019e07
 d08:	01000006 	srlv	zero,zero,t0
 d0c:	04222001 	bltzl	at,8d14 <CheckSum32+0x874c>
 d10:	a4070000 	sh	a3,0(zero)
 d14:	00085401 	0x85401
 d18:	20010100 	addi	at,zero,256
 d1c:	00000858 	0x858
 d20:	0201aa07 	0x201aa07
 d24:	01000008 	jr	t0
 d28:	07132001 	bgezall	t8,8d30 <CheckSum32+0x8768>
 d2c:	15090000 	bne	t0,t1,d30 <.debug_info+0xd30>
 d30:	0000d602 	srl	k0,zero,0x18
 d34:	1f010100 	0x1f010100
 d38:	00000a13 	0xa13
 d3c:	02846604 	0x2846604
 d40:	01010000 	0x1010000
 d44:	0001e01f 	0x1e01f
 d48:	51670400 	beql	t3,a3,1d4c <CheckSum32+0x1784>
 d4c:	0100000d 	break	0x100
 d50:	49040601 	bc2f	$cc1,2558 <CheckSum32+0x1f90>
 d54:	0000000a 	movz	zero,zero,zero
Disassembly of section .debug_line:

00000000 <.debug_line>:
   0:	00000213 	0x213
   4:	00f60002 	0xf60002
   8:	01010000 	0x1010000
   c:	000a0efb 	0xa0efb
  10:	01010101 	0x1010101
  14:	01000000 	0x1000000
  18:	2e2e2f2e 	sltiu	t6,s1,12078
  1c:	2f2e2e2f 	sltiu	t6,t9,11823
  20:	2e2f2e2e 	sltiu	t7,s1,11822
  24:	73702f2e 	0x73702f2e
  28:	65725f70 	0x65725f70
  2c:	6e692f6c 	0x6e692f6c
  30:	64756c63 	0x64756c63
  34:	2f2e0065 	sltiu	t6,t9,101
  38:	2e2f2e2e 	sltiu	t7,s1,11822
  3c:	2e2e2f2e 	sltiu	t6,s1,12078
  40:	636e692f 	0x636e692f
  44:	2e2f2e00 	sltiu	t7,s1,11776
  48:	2e2e2f2e 	sltiu	t6,s1,12078
  4c:	2f2e2e2f 	sltiu	t6,t9,11823
  50:	702f2e2e 	0x702f2e2e
  54:	725f7073 	0x725f7073
  58:	692f6c65 	0x692f6c65
  5c:	756c636e 	jalx	5b18db8 <CheckSum32+0x5b187f0>
  60:	752f6564 	jalx	4bd9590 <CheckSum32+0x4bd8fc8>
  64:	00736f63 	0x736f63
  68:	61744f00 	0x61744f00
  6c:	7063725f 	udi15	v1,v1,t6,0x9
  70:	635f735f 	0x635f735f
  74:	645f646d 	0x645f646d
  78:	2e6c6165 	sltiu	t4,s3,24933
  7c:	00000063 	0x63
  80:	70797400 	0x70797400
  84:	74786565 	jalx	1e19594 <CheckSum32+0x1e18fcc>
  88:	0100682e 	0x100682e
  8c:	61630000 	0x61630000
  90:	745f6573 	jalx	17d95cc <CheckSum32+0x17d9004>
  94:	2e657079 	sltiu	a1,s3,28793
  98:	00020068 	0x20068
  9c:	6d6f4300 	0x6d6f4300
  a0:	5f6e6f6d 	0x5f6e6f6d
  a4:	2e61746f 	sltiu	at,s3,29807
  a8:	00020068 	0x20068
  ac:	73797300 	0x73797300
  b0:	61746f5f 	0x61746f5f
  b4:	746e695f 	jalx	1b9a57c <CheckSum32+0x1b99fb4>
  b8:	61667265 	0x61667265
  bc:	682e6563 	0x682e6563
  c0:	00000100 	sll	zero,zero,0x4
  c4:	5f707061 	0x5f707061
  c8:	656d6974 	0x656d6974
  cc:	00682e72 	tlt	v1,t0,0xb9
  d0:	61000002 	0x61000002
  d4:	696c7070 	0x696c7070
  d8:	00682e62 	0x682e62
  dc:	75000002 	jalx	4000008 <CheckSum32+0x3fffa40>
  e0:	5f736f63 	0x5f736f63
  e4:	65707974 	0x65707974
  e8:	00682e73 	tltu	v1,t0,0xb9
  ec:	63000003 	0x63000003
  f0:	6f6d6d6f 	0x6f6d6d6f
  f4:	63725f6e 	0x63725f6e
  f8:	00682e70 	tge	v1,t0,0xb9
  fc:	00000002 	srl	zero,zero,0x0
 100:	01020500 	0x1020500
 104:	03000000 	0x3000000
 108:	490102e8 	bc2t	cac <CheckSum32+0x6e4>
 10c:	039f2d29 	0x39f2d29
 110:	2f637d9f 	sltiu	v1,k1,32159
 114:	2b0e0327 	slti	t6,t8,807
 118:	2d4b27d7 	sltiu	t3,t2,10199
 11c:	317f7a03 	andi	ra,t3,0x7a03
 120:	f34a8180 	0xf34a8180
 124:	2f2c2666 	sltiu	t4,t9,9830
 128:	bc832767 	cache	0x3,10087(a0)
 12c:	2d292d61 	sltiu	t1,t1,11617
 130:	642dd4d6 	0x642dd4d6
 134:	4716032a 	c1	0x116032a
 138:	2b6f0348 	slti	t7,k1,840
 13c:	64f05608 	0x64f05608
 140:	2cb82c2a 	sltiu	t8,a1,11306
 144:	4a282f2a 	c2	0x282f2a
 148:	482a2e28 	0x482a2e28
 14c:	482a6449 	0x482a6449
 150:	0329d580 	0x329d580
 154:	bdb96310 	cache	0x19,25360(t5)
 158:	bc2c2a64 	cache	0xc,10852(at)
 15c:	3b08d4b8 	xori	t0,t8,0xd4b8
 160:	b848c808 	swr	t0,-14328(v0)
 164:	f2662fb8 	0xf2662fb8
 168:	18039cb8 	0x18039cb8
 16c:	6b03482b 	0x6b03482b
 170:	4a284e2b 	c2	0x284e2b
 174:	083b08b8 	j	ec22e0 <CheckSum32+0xec1d18>
 178:	2d272f1f 	sltiu	a3,t1,12063
 17c:	2e2c2749 	sltiu	t4,s1,10057
 180:	b88761f1 	swr	a3,25073(a0)
 184:	80ef0e03 	lb	t7,3587(a3)
 188:	d42b7703 	ldc1	$f11,30467(at)
 18c:	ff083a08 	sdc3	$8,14856(t8)
 190:	090361f1 	j	40d87c4 <CheckSum32+0x40d81fc>
 194:	2a2cf07f 	slti	t4,s1,-3969
 198:	4b646448 	c2	0x1646448
 19c:	65642c27 	0x65642c27
 1a0:	2c462c48 	sltiu	a2,v0,11336
 1a4:	2c2e282d 	sltiu	t6,at,10285
 1a8:	466481d7 	c1	0x6481d7
 1ac:	03b98348 	0x3b98348
 1b0:	800200c0 	lb	v0,192(zero)
 1b4:	2a300102 	slti	s0,s1,258
 1b8:	2d292c2c 	sltiu	t1,t1,11308
 1bc:	2e282e29 	sltiu	t0,s1,11817
 1c0:	032c482a 	slt	t1,t9,t4
 1c4:	75032b0b 	jalx	40cac2c <CheckSum32+0x40ca664>
 1c8:	2b0b032b 	slti	t3,t8,811
 1cc:	032b7303 	0x32b7303
 1d0:	2e812b0d 	sltiu	at,s4,11021
 1d4:	642c3328 	0x642c3328
 1d8:	2d292d29 	sltiu	t1,t1,11561
 1dc:	2ad5d548 	slti	s5,s6,-10936
 1e0:	2c294948 	sltiu	t1,at,18760
 1e4:	2c2c452d 	sltiu	t4,at,17709
 1e8:	99032e82 	lwr	v1,11906(t0)
 1ec:	03c5087f 	0x3c5087f
 1f0:	2f272b0a 	sltiu	a3,t9,11018
 1f4:	2d292e28 	sltiu	t1,t1,11816
 1f8:	f12eb82e 	0xf12eb82e
 1fc:	2eb89c81 	sltiu	t8,s5,-25471
 200:	2c2a2c85 	sltiu	t2,at,11397
 204:	0210034d 	break	0x210,0xd
 208:	eb030138 	swc2	$3,312(t8)
 20c:	29494700 	slti	t1,t2,18176
 210:	0302672d 	0x302672d
 214:	Address 0x214 is out of bounds.

Disassembly of section .debug_frame:

00000000 <.debug_frame>:
   0:	0000000c 	syscall
   4:	ffffffff 	sdc3	$31,-1(ra)
   8:	04010001 	b	10 <.debug_frame+0x10>
   c:	001d0c1f 	0x1d0c1f
  10:	0000000c 	syscall
	...
  1c:	00000017 	0x17
  20:	00000020 	add	zero,zero,zero
	...
  2c:	00000377 	0x377
  30:	0e040e42 	jal	8103908 <CheckSum32+0x8103340>
  34:	0e0c0e08 	jal	8303820 <CheckSum32+0x8303258>
  38:	7d101130 	0x7d101130
  3c:	117e1111 	beq	t3,s8,4484 <CheckSum32+0x3ebc>
  40:	00007f1f 	0x7f1f
  44:	00000020 	add	zero,zero,zero
	...
  50:	0000008b 	0x8b
  54:	0e040e42 	jal	8103908 <CheckSum32+0x8103340>
  58:	0e0c0e08 	jal	8303820 <CheckSum32+0x8303258>
  5c:	7d101130 	0x7d101130
  60:	117e1111 	beq	t3,s8,44a8 <CheckSum32+0x3ee0>
  64:	00007f1f 	0x7f1f
  68:	00000020 	add	zero,zero,zero
	...
  74:	00000067 	0x67
  78:	0e040e42 	jal	8103908 <CheckSum32+0x8103340>
  7c:	0e0c0e08 	jal	8303820 <CheckSum32+0x8303258>
  80:	7d101120 	0x7d101120
  84:	117e1111 	beq	t3,s8,44cc <CheckSum32+0x3f04>
  88:	00007f1f 	0x7f1f
  8c:	0000000c 	syscall
	...
  98:	00000003 	sra	zero,zero,0x0
  9c:	0000000c 	syscall
	...
  a8:	00000011 	mthi	zero
Disassembly of section .debug_pubnames:

00000000 <.debug_pubnames>:
   0:	0000008c 	syscall	0x2
   4:	00000002 	srl	zero,zero,0x0
   8:	0d580000 	jal	5600000 <CheckSum32+0x55ffa38>
   c:	0a540000 	j	9500000 <CheckSum32+0x94ffa38>
  10:	68430000 	0x68430000
  14:	536b6365 	beql	k1,t3,18dac <CheckSum32+0x187e4>
  18:	36316d75 	ori	s1,s1,0x6d75
  1c:	000aaf00 	sll	s5,t2,0x1c
  20:	61746f00 	0x61746f00
  24:	6365725f 	0x6365725f
  28:	65766965 	0x65766965
  2c:	6e6f635f 	0x6e6f635f
  30:	7463656e 	jalx	18d95b8 <CheckSum32+0x18d8ff0>
  34:	7461645f 	jalx	185917c <CheckSum32+0x1858bb4>
  38:	0b8f0061 	j	e3c0184 <CheckSum32+0xe3bfbbc>
  3c:	77660000 	jalx	d980000 <CheckSum32+0xd97fa38>
  40:	776f645f 	jalx	dbd917c <CheckSum32+0xdbd8bb4>
  44:	616f6c6e 	0x616f6c6e
  48:	656e5f64 	0x656e5f64
  4c:	0bc70077 	j	f1c01dc <CheckSum32+0xf1bfc14>
  50:	746f0000 	jalx	1bc0000 <CheckSum32+0x1bbfa38>
  54:	65725f61 	0x65725f61
  58:	76696563 	jalx	9a5958c <CheckSum32+0x9a58fc4>
  5c:	61645f65 	0x61645f65
  60:	47006174 	c1	0x1006174
  64:	6f00000c 	0x6f00000c
  68:	725f6174 	0x725f6174
  6c:	69656365 	0x69656365
  70:	765f6576 	jalx	97d95d8 <CheckSum32+0x97d9010>
  74:	5f6d6172 	0x5f6d6172
  78:	61746164 	0x61746164
  7c:	000c9700 	sll	s2,t4,0x1c
  80:	65684300 	0x65684300
  84:	75536b63 	jalx	54dad8c <CheckSum32+0x54da7c4>
  88:	0032336d 	0x32336d
  8c:	00000000 	nop
Disassembly of section .debug_aranges:

00000000 <.debug_aranges>:
   0:	0000001c 	0x1c
   4:	00000002 	srl	zero,zero,0x0
   8:	00040000 	sll	zero,a0,0x0
	...
  14:	000005da 	0x5da
	...
Disassembly of section .debug_str:

00000000 <.debug_str>:
   0:	676e6f6c 	0x676e6f6c
   4:	6e6f6c20 	0x6e6f6c20
   8:	6e692067 	0x6e692067
   c:	45520074 	0x45520074
  10:	544c5553 	bnel	v0,t4,15560 <CheckSum32+0x14f98>
  14:	544e455f 	bnel	v0,t6,11594 <CheckSum32+0x10fcc>
  18:	555f5245 	bnel	t2,ra,14930 <CheckSum32+0x14368>
  1c:	41524750 	0x41524750
  20:	68004544 	0x68004544
  24:	74735f70 	jalx	1cd7dc0 <CheckSum32+0x1cd77f8>
  28:	00657461 	0x657461
  2c:	74697277 	jalx	1a5c9dc <CheckSum32+0x1a5c414>
  30:	61705f65 	0x61705f65
  34:	006d6172 	tlt	v1,t5,0x185
  38:	55534552 	bnel	t2,s3,11584 <CheckSum32+0x10fbc>
  3c:	535f544c 	beql	k0,ra,15170 <CheckSum32+0x14ba8>
  40:	454e4543 	0x454e4543
  44:	4958455f 	0x4958455f
  48:	65740054 	0x65740054
  4c:	645f706d 	0x645f706d
  50:	5f617461 	0x5f617461
  54:	66667562 	0x66667562
  58:	70007265 	0x70007265
  5c:	656e655f 	0x656e655f
  60:	5f796772 	0x5f796772
  64:	756c6176 	jalx	5b185d8 <CheckSum32+0x5b18010>
  68:	72665f65 	0x72665f65
  6c:	00737165 	0x737165
  70:	61746164 	0x61746164
  74:	6f6c0031 	0x6f6c0031
  78:	7520676e 	jalx	4819db8 <CheckSum32+0x48197f0>
  7c:	6769736e 	0x6769736e
  80:	2064656e 	addi	a0,v1,25966
  84:	00746e69 	0x746e69
  88:	5f757263 	0x5f757263
  8c:	61647075 	0x61647075
  90:	52006174 	beqzl	s0,18664 <CheckSum32+0x1809c>
  94:	4c555345 	0x4c555345
  98:	49445f54 	0x49445f54
  9c:	474f4c41 	c1	0x14f4c41
  a0:	4e47495f 	c3	0x47495f
  a4:	0045524f 	0x45524f
  a8:	55534552 	bnel	t2,s3,115f4 <CheckSum32+0x1102c>
  ac:	425f544c 	c0	0x5f544c
  b0:	5445554c 	bnel	v0,a1,155e4 <CheckSum32+0x1501c>
  b4:	48544545 	0x48544545
  b8:	554f535f 	bnel	t2,t7,14e38 <CheckSum32+0x14870>
  bc:	6c00444e 	0x6c00444e
  c0:	5f747361 	0x5f747361
  c4:	636e7566 	0x636e7566
  c8:	646e695f 	0x646e695f
  cc:	52007865 	beqzl	s0,1e264 <CheckSum32+0x1dc9c>
  d0:	4c555345 	0x4c555345
  d4:	454b5f54 	0x454b5f54
  d8:	56455f59 	bnel	s2,a1,17e40 <CheckSum32+0x17878>
  dc:	5f544e45 	0x5f544e45
  e0:	45444552 	0x45444552
  e4:	425f4c41 	c0	0x5f4c41
  e8:	4f435f59 	c3	0x1435f59
  ec:	4e4f4d4d 	c3	0x4f4d4d
  f0:	61746f00 	0x61746f00
  f4:	696b625f 	0x696b625f
  f8:	5f6f666e 	0x5f6f666e
  fc:	45520074 	0x45520074
 100:	544c5553 	bnel	v0,t4,15650 <CheckSum32+0x15088>
 104:	4e414d5f 	c3	0x414d5f
 108:	5f4c4155 	0x5f4c4155
 10c:	52414553 	beql	s2,at,1165c <CheckSum32+0x11094>
 110:	445f4843 	0x445f4843
 114:	004e574f 	0x4e574f
 118:	65736572 	0x65736572
 11c:	32647672 	andi	a0,s3,0x7672
 120:	5f617000 	0x5f617000
 124:	65646f6d 	0x65646f6d
 128:	72756300 	0x72756300
 12c:	6e75665f 	0x6e75665f
 130:	64695f63 	0x64695f63
 134:	554e4700 	bnel	t2,t6,11d38 <CheckSum32+0x11770>
 138:	33204320 	andi	zero,t9,0x4320
 13c:	342e342e 	ori	t6,at,0x342e
 140:	70696d20 	0x70696d20
 144:	65647373 	0x65647373
 148:	302e362d 	andi	t6,at,0x362d
 14c:	31302e36 	andi	s0,t1,0x2e36
 150:	3030322d 	andi	s0,at,0x322d
 154:	32343037 	andi	s4,s1,0x3037
 158:	6f630030 	0x6f630030
 15c:	63656e6e 	0x63656e6e
 160:	736d5f74 	0x736d5f74
 164:	49550067 	0x49550067
 168:	3631544e 	ori	s1,s1,0x544e
 16c:	63616200 	0x63616200
 170:	67696c6b 	0x67696c6b
 174:	735f7468 	0x735f7468
 178:	65746174 	0x65746174
 17c:	676e6500 	0x676e6500
 180:	5f656e69 	0x5f656e69
 184:	74617473 	jalx	185d1cc <CheckSum32+0x185cc04>
 188:	72770065 	0x72770065
 18c:	5f657469 	0x5f657469
 190:	65646f6d 	0x65646f6d
 194:	53455200 	beql	k0,a1,14998 <CheckSum32+0x143d0>
 198:	5f544c55 	0x5f544c55
 19c:	45574f50 	0x45574f50
 1a0:	464f5f52 	c1	0x4f5f52
 1a4:	5f670046 	0x5f670046
 1a8:	646e6573 	0x646e6573
 1ac:	7272655f 	udi15	s3,s2,t4,0x15
 1b0:	6f635f6f 	0x6f635f6f
 1b4:	00746e75 	0x746e75
 1b8:	69726576 	0x69726576
 1bc:	61636966 	0x61636966
 1c0:	6e6f6974 	0x6e6f6974
 1c4:	6174735f 	0x6174735f
 1c8:	00737574 	teq	v1,s3,0x1d5
 1cc:	65735f67 	0x65735f67
 1d0:	655f646e 	0x655f646e
 1d4:	5f746978 	0x5f746978
 1d8:	5f6d6d6d 	0x5f6d6d6d
 1dc:	00737474 	teq	v1,s3,0x1d1
 1e0:	544f5f67 	bnel	v0,t7,17f80 <CheckSum32+0x179b8>
 1e4:	61765f41 	0x61765f41
 1e8:	61770072 	0x61770072
 1ec:	5f736576 	0x5f736576
 1f0:	5f656164 	0x5f656164
 1f4:	61726170 	0x61726170
 1f8:	6470755f 	0x6470755f
 1fc:	5f657461 	0x5f657461
 200:	67616c66 	0x67616c66
 204:	53455200 	beql	k0,a1,14a08 <CheckSum32+0x14440>
 208:	5f544c55 	0x5f544c55
 20c:	504f5453 	beql	v0,t7,1535c <CheckSum32+0x14d94>
 210:	4145535f 	0x4145535f
 214:	00484352 	0x484352
 218:	5f6b7061 	0x5f6b7061
 21c:	74617473 	jalx	185d1cc <CheckSum32+0x185cc04>
 220:	70007375 	0x70007375
 224:	5f747261 	0x5f747261
 228:	61746f74 	0x61746f74
 22c:	4552006c 	0x4552006c
 230:	544c5553 	bnel	v0,t4,15780 <CheckSum32+0x151b8>
 234:	4149445f 	0x4149445f
 238:	5f474f4c 	0x5f474f4c
 23c:	524f4241 	beql	s2,t7,10b44 <CheckSum32+0x1057c>
 240:	61640054 	0x61640054
 244:	6c5f6174 	0x6c5f6174
 248:	52006e65 	beqzl	s0,1bbe0 <CheckSum32+0x1b618>
 24c:	4c555345 	0x4c555345
 250:	53555f54 	beql	k0,s5,17fa4 <CheckSum32+0x179dc>
 254:	4f535f42 	c3	0x1535f42
 258:	00444e55 	0x444e55
 25c:	55534552 	bnel	t2,s3,117a8 <CheckSum32+0x111e0>
 260:	4c5f544c 	0x4c5f544c
 264:	505f574f 	beql	v0,ra,15fa4 <CheckSum32+0x159dc>
 268:	5245574f 	beql	s2,a1,15fa8 <CheckSum32+0x159e0>
 26c:	776f7000 	jalx	dbdc000 <CheckSum32+0xdbdba38>
 270:	6f5f7265 	0x6f5f7265
 274:	6c665f6e 	0x6c665f6e
 278:	52006761 	beqzl	s0,1a000 <CheckSum32+0x19a38>
 27c:	4c555345 	0x4c555345
 280:	49485f54 	0x49485f54
 284:	45535f44 	0x45535f44
 288:	4b5f444e 	c2	0x15f444e
 28c:	455f5945 	0x455f5945
 290:	544e4556 	bnel	v0,t6,117ec <CheckSum32+0x11224>
 294:	74616200 	jalx	1858800 <CheckSum32+0x1858238>
 298:	6c61765f 	0x6c61765f
 29c:	63006575 	0x63006575
 2a0:	656e6e6f 	0x656e6e6f
 2a4:	735f7463 	0x735f7463
 2a8:	65746174 	0x65746174
 2ac:	6b706100 	0x6b706100
 2b0:	6e65735f 	0x6e65735f
 2b4:	61705f64 	0x61705f64
 2b8:	756e5f6b 	jalx	5b97dac <CheckSum32+0x5b977e4>
 2bc:	5f67006d 	0x5f67006d
 2c0:	73696874 	0x73696874
 2c4:	7070615f 	udi15	v1,s0,t4,0x5
 2c8:	6d69745f 	0x6d69745f
 2cc:	745f7265 	jalx	17dc994 <CheckSum32+0x17dc3cc>
 2d0:	52006761 	beqzl	s0,1a058 <CheckSum32+0x19a90>
 2d4:	4c555345 	0x4c555345
 2d8:	49445f54 	0x49445f54
 2dc:	474f4c41 	c1	0x14f4c41
 2e0:	4c4e4f5f 	0x4c4e4f5f
 2e4:	48435f59 	0x48435f59
 2e8:	45475241 	0x45475241
 2ec:	53455200 	beql	k0,a1,14af0 <CheckSum32+0x14528>
 2f0:	5f544c55 	0x5f544c55
 2f4:	454c4449 	0x454c4449
 2f8:	444f4d5f 	0x444f4d5f
 2fc:	756f0045 	jalx	5bc0114 <CheckSum32+0x5bbfb4c>
 300:	5f726574 	0x5f726574
 304:	6f5f6170 	0x6f5f6170
 308:	4552006e 	0x4552006e
 30c:	544c5553 	bnel	v0,t4,1585c <CheckSum32+0x15294>
 310:	544e455f 	bnel	v0,t6,11890 <CheckSum32+0x112c8>
 314:	4f5f5245 	c3	0x15f5245
 318:	535f4154 	beql	k0,ra,1086c <CheckSum32+0x102a4>
 31c:	5f474e4f 	0x5f474e4f
 320:	54534554 	bnel	v0,s3,11874 <CheckSum32+0x112ac>
 324:	53455200 	beql	k0,a1,14b28 <CheckSum32+0x14560>
 328:	5f544c55 	0x5f544c55
 32c:	4f434552 	c3	0x1434552
 330:	435f4452 	c0	0x15f4452
 334:	59414c50 	0x59414c50
 338:	5f697500 	0x5f697500
 33c:	74617473 	jalx	185d1cc <CheckSum32+0x185cc04>
 340:	75007375 	jalx	401cdd4 <CheckSum32+0x401c80c>
 344:	38746e69 	xori	s4,v1,0x6e69
 348:	756f6400 	jalx	5bd9000 <CheckSum32+0x5bd8a38>
 34c:	00656c62 	0x656c62
 350:	5f61746f 	0x5f61746f
 354:	74697277 	jalx	1a5c9dc <CheckSum32+0x1a5c414>
 358:	61705f65 	0x61705f65
 35c:	5f6d6172 	0x5f6d6172
 360:	45520074 	0x45520074
 364:	544c5553 	bnel	v0,t4,158b4 <CheckSum32+0x152ec>
 368:	4345525f 	c0	0x145525f
 36c:	5f44524f 	0x5f44524f
 370:	545f4d46 	bnel	v0,ra,1388c <CheckSum32+0x132c4>
 374:	7400434f 	jalx	10d3c <CheckSum32+0x10774>
 378:	635f7377 	0x635f7377
 37c:	656e6e6f 	0x656e6e6f
 380:	735f7463 	0x735f7463
 384:	67006174 	0x67006174
 388:	7572635f 	jalx	5c98d7c <CheckSum32+0x5c987b4>
 38c:	6361705f 	0x6361705f
 390:	6f635f6b 	0x6f635f6b
 394:	00746e75 	0x746e75
 398:	55534552 	bnel	t2,s3,118e4 <CheckSum32+0x1131c>
 39c:	4d5f544c 	0x4d5f544c
 3a0:	43495355 	c0	0x1495355
 3a4:	4c50555f 	0x4c50555f
 3a8:	72005941 	0x72005941
 3ac:	6f6f6265 	0x6f6f6265
 3b0:	6c665f74 	0x6c665f74
 3b4:	632f0067 	0x632f0067
 3b8:	72646779 	0x72646779
 3bc:	2f657669 	sltiu	a1,k1,30313
 3c0:	6f532f66 	0x6f532f66
 3c4:	735f7466 	0x735f7466
 3c8:	552f6b64 	bnel	t1,t7,1b15c <CheckSum32+0x1ab94>
 3cc:	32383253 	andi	t8,s1,0x3253
 3d0:	44535f41 	0x44535f41
 3d4:	61632f4b 	0x61632f4b
 3d8:	612f6573 	0x612f6573
 3dc:	6f632f70 	0x6f632f70
 3e0:	6e6f6d6d 	0x6e6f6d6d
 3e4:	6d6f632f 	0x6d6f632f
 3e8:	5f6e6f6d 	0x5f6e6f6d
 3ec:	0061746f 	0x61746f
 3f0:	63746170 	0x63746170
 3f4:	6f645f68 	0x6f645f68
 3f8:	6f6c6e77 	0x6f6c6e77
 3fc:	665f6461 	0x665f6461
 400:	0067616c 	0x67616c
 404:	5f746572 	0x5f746572
 408:	006c6176 	tne	v1,t4,0x185
 40c:	5f707061 	0x5f707061
 410:	7473616c 	jalx	1cd85b0 <CheckSum32+0x1cd7fe8>
 414:	6174735f 	0x6174735f
 418:	745f6574 	jalx	17d95d0 <CheckSum32+0x17d9008>
 41c:	66756200 	0x66756200
 420:	5f670038 	0x5f670038
 424:	5f707061 	0x5f707061
 428:	7473616c 	jalx	1cd85b0 <CheckSum32+0x1cd7fe8>
 42c:	6174735f 	0x6174735f
 430:	49006574 	bc2f	19a04 <CheckSum32+0x1943c>
 434:	5538544e 	bnel	t1,t8,15570 <CheckSum32+0x14fa8>
 438:	74786500 	jalx	1e19400 <CheckSum32+0x1e18e38>
 43c:	5f6e7265 	0x5f6e7265
 440:	5f746162 	0x5f746162
 444:	6f006e69 	0x6f006e69
 448:	725f6174 	0x725f6174
 44c:	69656365 	0x69656365
 450:	765f6576 	jalx	97d95d8 <CheckSum32+0x97d9010>
 454:	5f6d6172 	0x5f6d6172
 458:	61746164 	0x61746164
 45c:	67616d00 	0x67616d00
 460:	52006369 	beqzl	s0,19208 <CheckSum32+0x18c40>
 464:	4c555345 	0x4c555345
 468:	59535f54 	0x59535f54
 46c:	4d455453 	0x4d455453
 470:	4958455f 	0x4958455f
 474:	33535f54 	andi	s3,k0,0x5f54
 478:	53455200 	beql	k0,a1,14c7c <CheckSum32+0x146b4>
 47c:	5f544c55 	0x5f544c55
 480:	52414c41 	beql	s2,at,13588 <CheckSum32+0x12fc0>
 484:	49525f4d 	0x49525f4d
 488:	465f474e 	c1	0x5f474e
 48c:	45444c4f 	0x45444c4f
 490:	43535f52 	c0	0x1535f52
 494:	65004e41 	0x65004e41
 498:	6772656e 	0x6772656e
 49c:	76615f79 	jalx	9857de4 <CheckSum32+0x985781c>
 4a0:	616c6961 	0x616c6961
 4a4:	5f656c62 	0x5f656c62
 4a8:	67616c66 	0x67616c66
 4ac:	53455200 	beql	k0,a1,14cb0 <CheckSum32+0x146e8>
 4b0:	5f544c55 	0x5f544c55
 4b4:	5458454e 	bnel	v0,t8,119f0 <CheckSum32+0x11428>
 4b8:	4e55465f 	c3	0x55465f
 4bc:	4f495443 	c3	0x1495443
 4c0:	6966004e 	0x6966004e
 4c4:	61735f78 	0x61735f78
 4c8:	656c706d 	0x656c706d
 4cc:	7461725f 	jalx	185c97c <CheckSum32+0x185c3b4>
 4d0:	6c665f65 	0x6c665f65
 4d4:	6f006761 	0x6f006761
 4d8:	725f6174 	0x725f6174
 4dc:	69656365 	0x69656365
 4e0:	635f6576 	0x635f6576
 4e4:	656e6e6f 	0x656e6e6f
 4e8:	645f7463 	0x645f7463
 4ec:	00617461 	0x617461
 4f0:	75635f67 	jalx	58d7d9c <CheckSum32+0x58d77d4>
 4f4:	65725f72 	0x65725f72
 4f8:	74735f63 	jalx	1cd7d8c <CheckSum32+0x1cd77c4>
 4fc:	00657461 	0x657461
 500:	55534552 	bnel	t2,s3,11a4c <CheckSum32+0x11484>
 504:	465f544c 	c1	0x5f544c
 508:	4543524f 	0x4543524f
 50c:	5354545f 	beql	k0,s4,1568c <CheckSum32+0x150c4>
 510:	4f54535f 	c3	0x154535f
 514:	6e690050 	0x6e690050
 518:	00786564 	0x786564
 51c:	74726170 	jalx	1c985c0 <CheckSum32+0x1c97ff8>
 520:	7a69735f 	0x7a69735f
 524:	45520065 	0x45520065
 528:	544c5553 	bnel	v0,t4,15a78 <CheckSum32+0x154b0>
 52c:	4c554e5f 	0x4c554e5f
 530:	5f67004c 	0x5f67004c
 534:	6b636162 	0x6b636162
 538:	705f7075 	0x705f7075
 53c:	5f747261 	0x5f747261
 540:	72646461 	0x72646461
 544:	53455200 	beql	k0,a1,14d48 <CheckSum32+0x14780>
 548:	5f544c55 	0x5f544c55
 54c:	4c414944 	0x4c414944
 550:	555f474f 	bnel	t2,ra,12290 <CheckSum32+0x11cc8>
 554:	535f4253 	beql	k0,ra,10ea4 <CheckSum32+0x108dc>
 558:	444e554f 	0x444e554f
 55c:	74756d00 	jalx	1d5b400 <CheckSum32+0x1d5ae38>
 560:	74735f65 	jalx	1cd7d94 <CheckSum32+0x1cd77cc>
 564:	00657461 	0x657461
 568:	55534552 	bnel	t2,s3,11ab4 <CheckSum32+0x114ec>
 56c:	415f544c 	0x415f544c
 570:	4d52414c 	0x4d52414c
 574:	4f4c435f 	c3	0x14c435f
 578:	52004553 	beqzl	s0,11ac8 <CheckSum32+0x11500>
 57c:	4c555345 	0x4c555345
 580:	4f435f54 	c3	0x1435f54
 584:	4749464e 	c1	0x149464e
 588:	4148435f 	0x4148435f
 58c:	5f454752 	0x5f454752
 590:	54495551 	bnel	v0,t1,15ad8 <CheckSum32+0x15510>
 594:	655f7000 	0x655f7000
 598:	6772656e 	0x6772656e
 59c:	61765f79 	0x61765f79
 5a0:	5f65756c 	0x5f65756c
 5a4:	646e6162 	0x646e6162
 5a8:	65720073 	0x65720073
 5ac:	76726573 	jalx	9c995cc <CheckSum32+0x9c99004>
 5b0:	65720064 	0x65720064
 5b4:	76726573 	jalx	9c995cc <CheckSum32+0x9c99004>
 5b8:	65720065 	0x65720065
 5bc:	76726573 	jalx	9c995cc <CheckSum32+0x9c99004>
 5c0:	52006465 	beqzl	s0,19758 <CheckSum32+0x19190>
 5c4:	4c555345 	0x4c555345
 5c8:	45525f54 	0x45525f54
 5cc:	44524f43 	0x44524f43
 5d0:	43494d5f 	c0	0x1494d5f
 5d4:	434f545f 	c0	0x14f545f
 5d8:	75747300 	jalx	5d1cc00 <CheckSum32+0x5d1c638>
 5dc:	68705f62 	0x68705f62
 5e0:	79745f79 	0x79745f79
 5e4:	52006570 	beqzl	s0,19ba8 <CheckSum32+0x195e0>
 5e8:	4c555345 	0x4c555345
 5ec:	45525f54 	0x45525f54
 5f0:	44524f43 	0x44524f43
 5f4:	43494d5f 	c0	0x1494d5f
 5f8:	554f545f 	bnel	t2,t7,15778 <CheckSum32+0x151b0>
 5fc:	615f6700 	0x615f6700
 600:	695f7070 	0x695f7070
 604:	5f6f666e 	0x5f6f666e
 608:	74617473 	jalx	185d1cc <CheckSum32+0x185cc04>
 60c:	6c615f65 	0x6c615f65
 610:	6e65006c 	0x6e65006c
 614:	656e6967 	0x656e6967
 618:	7079745f 	udi15	v1,t9,t6,0x11
 61c:	68730065 	0x68730065
 620:	2074726f 	addi	s4,v1,29295
 624:	69736e75 	0x69736e75
 628:	64656e67 	0x64656e67
 62c:	746e6920 	jalx	1b9a480 <CheckSum32+0x1b99eb8>
 630:	53455200 	beql	k0,a1,14e34 <CheckSum32+0x1486c>
 634:	5f544c55 	0x5f544c55
 638:	45544e45 	0x45544e45
 63c:	494c5f52 	0x494c5f52
 640:	4e49454e 	c3	0x49454e
 644:	73616c00 	0x73616c00
 648:	69755f74 	0x69755f74
 64c:	6174735f 	0x6174735f
 650:	00737574 	teq	v1,s3,0x1d5
 654:	74726170 	jalx	1c985c0 <CheckSum32+0x1c97ff8>
 658:	0064695f 	0x64695f
 65c:	55534552 	bnel	t2,s3,11ba8 <CheckSum32+0x115e0>
 660:	535f544c 	beql	k0,ra,15794 <CheckSum32+0x151cc>
 664:	45545359 	0x45545359
 668:	4e455f4d 	c3	0x455f4d
 66c:	5f524554 	0x5f524554
 670:	6f003353 	0x6f003353
 674:	725f6174 	0x725f6174
 678:	69656365 	0x69656365
 67c:	645f6576 	0x645f6576
 680:	00617461 	0x617461
 684:	6e616863 	0x6e616863
 688:	615f6567 	0x615f6567
 68c:	66007070 	0x66007070
 690:	74616f6c 	jalx	185bdb0 <CheckSum32+0x185b7e8>
 694:	73657200 	0x73657200
 698:	65726f74 	0x65726f74
 69c:	6572625f 	0x6572625f
 6a0:	6f706b61 	0x6f706b61
 6a4:	5f746e69 	0x5f746e69
 6a8:	69770074 	0x69770074
 6ac:	5f657472 	0x5f657472
 6b0:	6f666e69 	0x6f666e69
 6b4:	736e7500 	0x736e7500
 6b8:	656e6769 	0x656e6769
 6bc:	68632064 	0x68632064
 6c0:	52007261 	beqzl	s0,1d048 <CheckSum32+0x1ca80>
 6c4:	4c555345 	0x4c555345
 6c8:	53555f54 	beql	k0,s5,1841c <CheckSum32+0x17e54>
 6cc:	52545f42 	beql	s2,s4,183d8 <CheckSum32+0x17e10>
 6d0:	00534e41 	0x534e41
 6d4:	55534552 	bnel	t2,s3,11c20 <CheckSum32+0x11658>
 6d8:	445f544c 	0x445f544c
 6dc:	4f4c4149 	c3	0x14c4149
 6e0:	41435f47 	0x41435f47
 6e4:	4c45434e 	0x4c45434e
 6e8:	5455415f 	bnel	v0,s5,10c68 <CheckSum32+0x106a0>
 6ec:	4552004f 	0x4552004f
 6f0:	544c5553 	bnel	v0,t4,15c40 <CheckSum32+0x15678>
 6f4:	53554d5f 	beql	k0,s5,13c74 <CheckSum32+0x136ac>
 6f8:	435f4349 	c0	0x15f4349
 6fc:	59414c50 	0x59414c50
 700:	53455200 	beql	k0,a1,14f04 <CheckSum32+0x1493c>
 704:	5f544c55 	0x5f544c55
 708:	4953554d 	0x4953554d
 70c:	4c505f43 	0x4c505f43
 710:	67005941 	0x67005941
 714:	7063725f 	udi15	v1,v1,t6,0x9
 718:	6e6f6c5f 	0x6e6f6c5f
 71c:	75625f67 	jalx	5897d9c <CheckSum32+0x58977d4>
 720:	72656666 	0x72656666
 724:	53455200 	beql	k0,a1,14f28 <CheckSum32+0x14960>
 728:	5f544c55 	0x5f544c55
 72c:	5f445345 	0x5f445345
 730:	54534552 	bnel	v0,s3,11c7c <CheckSum32+0x116b4>
 734:	00545241 	0x545241
 738:	6e6e6f63 	0x6e6e6f63
 73c:	5f746365 	0x5f746365
 740:	6c706572 	0x6c706572
 744:	00745f79 	0x745f79
 748:	544e4955 	bnel	v0,t6,12ca0 <CheckSum32+0x126d8>
 74c:	52003233 	beqzl	s0,d01c <CheckSum32+0xca54>
 750:	4c555345 	0x4c555345
 754:	49445f54 	0x49445f54
 758:	474f4c41 	c1	0x14f4c41
 75c:	4e41435f 	c3	0x41435f
 760:	004c4543 	0x4c4543
 764:	6f6e5f67 	0x6f6e5f67
 768:	7075735f 	udi15	v1,s5,t6,0xd
 76c:	74726f70 	jalx	1c9bdc0 <CheckSum32+0x1c9b7f8>
 770:	7374745f 	udi15	k1,s4,t6,0x11
 774:	616c665f 	0x616c665f
 778:	6f730067 	0x6f730067
 77c:	5f646e75 	0x5f646e75
 780:	74617473 	jalx	185d1cc <CheckSum32+0x185cc04>
 784:	45520065 	0x45520065
 788:	544c5553 	bnel	v0,t4,15cd8 <CheckSum32+0x15710>
 78c:	5043525f 	beql	v0,v1,1510c <CheckSum32+0x14b44>
 790:	5f434c5f 	0x5f434c5f
 794:	54494157 	bnel	v0,t1,10cf4 <CheckSum32+0x1072c>
 798:	5f647500 	0x5f647500
 79c:	00747461 	0x747461
 7a0:	55534552 	bnel	t2,s3,11cec <CheckSum32+0x11724>
 7a4:	415f544c 	0x415f544c
 7a8:	5f4f5455 	0x5f4f5455
 7ac:	52414553 	beql	s2,at,11cfc <CheckSum32+0x11734>
 7b0:	52004843 	beqzl	s0,128c0 <CheckSum32+0x122f8>
 7b4:	4c555345 	0x4c555345
 7b8:	4c505f54 	0x4c505f54
 7bc:	535f5941 	beql	k0,ra,16cc4 <CheckSum32+0x166fc>
 7c0:	465f4444 	c1	0x5f4444
 7c4:	31324449 	andi	s2,t1,0x4449
 7c8:	53455200 	beql	k0,a1,14fcc <CheckSum32+0x14a04>
 7cc:	5f544c55 	0x5f544c55
 7d0:	59414c50 	0x59414c50
 7d4:	4444535f 	0x4444535f
 7d8:	4449465f 	0x4449465f
 7dc:	63003432 	0x63003432
 7e0:	705f7572 	0x705f7572
 7e4:	5f6b6361 	0x5f6b6361
 7e8:	6e756f63 	0x6e756f63
 7ec:	45520074 	0x45520074
 7f0:	544c5553 	bnel	v0,t4,15d40 <CheckSum32+0x15778>
 7f4:	554c425f 	bnel	t2,t4,11174 <CheckSum32+0x10bac>
 7f8:	45455445 	0x45455445
 7fc:	435f4854 	c0	0x15f4854
 800:	004c4c41 	0x4c4c41
 804:	55534552 	bnel	t2,s3,11d50 <CheckSum32+0x11788>
 808:	545f544c 	bnel	v0,ra,1593c <CheckSum32+0x15374>
 80c:	41545345 	0x41545345
 810:	55515f50 	bnel	t2,s1,18554 <CheckSum32+0x17f8c>
 814:	52005449 	beqzl	s0,1593c <CheckSum32+0x15374>
 818:	4c555345 	0x4c555345
 81c:	45525f54 	0x45525f54
 820:	44524f43 	0x44524f43
 824:	4e494c5f 	c3	0x494c5f
 828:	5f4e4945 	0x5f4e4945
 82c:	00434f54 	0x434f54
 830:	55534552 	bnel	t2,s3,11d7c <CheckSum32+0x117b4>
 834:	525f544c 	beql	s2,ra,15968 <CheckSum32+0x153a0>
 838:	524f4345 	beql	s2,t7,11550 <CheckSum32+0x10f88>
 83c:	494c5f44 	0x494c5f44
 840:	4e49454e 	c3	0x49454e
 844:	554f545f 	bnel	t2,t7,159c4 <CheckSum32+0x153fc>
 848:	655f7000 	0x655f7000
 84c:	6772656e 	0x6772656e
 850:	61765f79 	0x61765f79
 854:	0065756c 	0x65756c
 858:	70615f67 	0x70615f67
 85c:	6e695f70 	0x6e695f70
 860:	735f6f66 	0x735f6f66
 864:	65746174 	0x65746174
 868:	73616c00 	0x73616c00
 86c:	79735f74 	0x79735f74
 870:	74735f73 	jalx	1cd7dcc <CheckSum32+0x1cd7804>
 874:	73757461 	0x73757461
 878:	53455200 	beql	k0,a1,1507c <CheckSum32+0x14ab4>
 87c:	5f544c55 	0x5f544c55
 880:	45544e45 	0x45544e45
 884:	544f5f52 	bnel	v0,t7,185d0 <CheckSum32+0x18008>
 888:	50555f41 	beql	v0,s5,18590 <CheckSum32+0x17fc8>
 88c:	44415247 	0x44415247
 890:	656e0045 	0x656e0045
 894:	755f6465 	jalx	57d9194 <CheckSum32+0x57d8bcc>
 898:	74616470 	jalx	18591c0 <CheckSum32+0x1858bf8>
 89c:	6c705f65 	0x6c705f65
 8a0:	696c7961 	0x696c7961
 8a4:	64007473 	0x64007473
 8a8:	32617461 	andi	at,s3,0x7461
 8ac:	72756300 	0x72756300
 8b0:	6e75665f 	0x6e75665f
 8b4:	6e695f63 	0x6e695f63
 8b8:	00786564 	0x786564
 8bc:	5f6e6962 	0x5f6e6962
 8c0:	626d756e 	0x626d756e
 8c4:	63007265 	0x63007265
 8c8:	656e6e6f 	0x656e6e6f
 8cc:	6d5f7463 	0x6d5f7463
 8d0:	61737365 	0x61737365
 8d4:	745f6567 	jalx	17d959c <CheckSum32+0x17d8fd4>
 8d8:	6e697200 	0x6e697200
 8dc:	6c615f67 	0x6c615f67
 8e0:	006d7261 	0x6d7261
 8e4:	74726170 	jalx	1c985c0 <CheckSum32+0x1c97ff8>
 8e8:	66666f5f 	0x66666f5f
 8ec:	00746573 	tltu	v1,s4,0x195
 8f0:	646e6172 	0x646e6172
 8f4:	755f6d6f 	jalx	57db5bc <CheckSum32+0x57daff4>
 8f8:	765f6770 	jalx	97d9dc0 <CheckSum32+0x97d97f8>
 8fc:	62006c61 	0x62006c61
 900:	65747461 	0x65747461
 904:	725f7972 	0x725f7972
 908:	726f7065 	0x726f7065
 90c:	6e655f74 	0x6e655f74
 910:	656c6261 	0x656c6261
 914:	6e617200 	0x6e617200
 918:	5f6d6f64 	0x5f6d6f64
 91c:	5f677075 	0x5f677075
 920:	0079656b 	0x79656b
 924:	64726163 	0x64726163
 928:	6174735f 	0x6174735f
 92c:	43006574 	c0	0x1006574
 930:	6b636568 	0x6b636568
 934:	316d7553 	andi	t5,t3,0x7553
 938:	68750036 	0x68750036
 93c:	5f74736f 	0x5f74736f
 940:	74617473 	jalx	185d1cc <CheckSum32+0x185cc04>
 944:	45520065 	0x45520065
 948:	544c5553 	bnel	v0,t4,15e98 <CheckSum32+0x158d0>
 94c:	4149445f 	0x4149445f
 950:	5f474f4c 	0x5f474f4c
 954:	52544552 	beql	s2,s4,11ea0 <CheckSum32+0x118d8>
 958:	45520059 	0x45520059
 95c:	544c5553 	bnel	v0,t4,15eac <CheckSum32+0x158e4>
 960:	4e4f4e5f 	c3	0x4f4e5f
 964:	56455f45 	bnel	s2,a1,1867c <CheckSum32+0x180b4>
 968:	00544e45 	0x544e45
 96c:	65725f67 	0x65725f67
 970:	5f796c70 	0x5f796c70
 974:	6e696b62 	0x6e696b62
 978:	64006f66 	0x64006f66
 97c:	5f617461 	0x5f617461
 980:	66667562 	0x66667562
 984:	43007265 	c0	0x1007265
 988:	6b636568 	0x6b636568
 98c:	336d7553 	andi	t5,k1,0x7553
 990:	68730032 	0x68730032
 994:	2074726f 	addi	s4,v1,29295
 998:	00746e69 	0x746e69
 99c:	565f7746 	bnel	s2,ra,1e6b8 <CheckSum32+0x1e0f0>
 9a0:	745f7265 	jalx	17dc994 <CheckSum32+0x17dc3cc>
 9a4:	65686300 	0x65686300
 9a8:	75736b63 	jalx	5cdad8c <CheckSum32+0x5cda7c4>
 9ac:	7462006d 	jalx	18801b4 <CheckSum32+0x187fbec>
 9b0:	776f705f 	jalx	dbdc17c <CheckSum32+0xdbdbbb4>
 9b4:	6f5f7265 	0x6f5f7265
 9b8:	7473006e 	jalx	1cc01b8 <CheckSum32+0x1cbfbf0>
 9bc:	705f6275 	0x705f6275
 9c0:	6f745f63 	0x6f745f63
 9c4:	5f736c6f 	0x5f736c6f
 9c8:	65707974 	0x65707974
 9cc:	70706100 	0x70706100
 9d0:	666e695f 	0x666e695f
 9d4:	74735f6f 	jalx	1cd7dbc <CheckSum32+0x1cd77f4>
 9d8:	5f657461 	0x5f657461
 9dc:	6f610074 	0x6f610074
 9e0:	6d5f7475 	0x6d5f7475
 9e4:	0065646f 	0x65646f
 9e8:	74697277 	jalx	1a5c9dc <CheckSum32+0x1a5c414>
 9ec:	6e695f65 	0x6e695f65
 9f0:	52006f66 	beqzl	s0,1c78c <CheckSum32+0x1c1c4>
 9f4:	4c555345 	0x4c555345
 9f8:	59535f54 	0x59535f54
 9fc:	534d5f53 	beql	k0,t5,1874c <CheckSum32+0x18184>
 a00:	45525f47 	0x45525f47
 a04:	4c414544 	0x4c414544
 a08:	5f59425f 	0x5f59425f
 a0c:	4d4d4f43 	0x4d4d4f43
 a10:	67004e4f 	0x67004e4f
 a14:	61746f5f 	0x61746f5f
 a18:	7365725f 	udi15	k1,a1,t6,0x9
 a1c:	65726f74 	0x65726f74
 a20:	7461645f 	jalx	185917c <CheckSum32+0x1858bb4>
 a24:	70610061 	0x70610061
 a28:	65725f70 	0x65725f70
 a2c:	746c7573 	jalx	1b1d5cc <CheckSum32+0x1b1d004>
 a30:	7000655f 	udi15	zero,zero,t4,0x15
 a34:	5f747261 	0x5f747261
 a38:	5f78616d 	0x5f78616d
 a3c:	657a6973 	0x657a6973
 a40:	41544f00 	0x41544f00
 a44:	6c616d5f 	0x6c616d5f
 a48:	5f636f6c 	0x5f636f6c
 a4c:	61726170 	0x61726170
 a50:	00745f6d 	0x745f6d
 a54:	55534552 	bnel	t2,s3,11fa0 <CheckSum32+0x119d8>
 a58:	4d5f544c 	0x4d5f544c
 a5c:	41554e41 	0x41554e41
 a60:	45535f4c 	0x45535f4c
 a64:	48435241 	0x48435241
 a68:	0050555f 	0x50555f
 a6c:	706d6f63 	0x706d6f63
 a70:	6574656c 	0x6574656c
 a74:	6e65735f 	0x6e65735f
 a78:	756e5f64 	jalx	5b97d90 <CheckSum32+0x5b977c8>
 a7c:	6163006d 	0x6163006d
 a80:	5f656c62 	0x5f656c62
 a84:	74617473 	jalx	185d1cc <CheckSum32+0x185cc04>
 a88:	61700065 	0x61700065
 a8c:	635f7472 	0x635f7472
 a90:	6b636568 	0x6b636568
 a94:	006d7573 	tltu	v1,t5,0x1d5
 a98:	55534552 	bnel	t2,s3,11fe4 <CheckSum32+0x11a1c>
 a9c:	415f544c 	0x415f544c
 aa0:	4d52414c 	0x4d52414c
 aa4:	4f4e535f 	c3	0x14e535f
 aa8:	00455a4f 	0x455a4f
 aac:	55534552 	bnel	t2,s3,11ff8 <CheckSum32+0x11a30>
 ab0:	505f544c 	beql	v0,ra,15be4 <CheckSum32+0x1561c>
 ab4:	5f59414c 	0x5f59414c
 ab8:	5f444453 	0x5f444453
 abc:	31444946 	andi	a0,t2,0x4946
 ac0:	45520036 	0x45520036
 ac4:	544c5553 	bnel	v0,t4,16014 <CheckSum32+0x15a4c>
 ac8:	414c505f 	0x414c505f
 acc:	44535f59 	0x44535f59
 ad0:	49465f44 	0x49465f44
 ad4:	00373144 	0x373144
 ad8:	55534552 	bnel	t2,s3,12024 <CheckSum32+0x11a5c>
 adc:	505f544c 	beql	v0,ra,15c10 <CheckSum32+0x15648>
 ae0:	5f59414c 	0x5f59414c
 ae4:	5f444453 	0x5f444453
 ae8:	31444946 	andi	a0,t2,0x4946
 aec:	45520038 	0x45520038
 af0:	544c5553 	bnel	v0,t4,16040 <CheckSum32+0x15a78>
 af4:	414c505f 	0x414c505f
 af8:	44535f59 	0x44535f59
 afc:	49465f44 	0x49465f44
 b00:	00393144 	0x393144
 b04:	55534552 	bnel	t2,s3,12050 <CheckSum32+0x11a88>
 b08:	505f544c 	beql	v0,ra,15c3c <CheckSum32+0x15674>
 b0c:	5f59414c 	0x5f59414c
 b10:	5f444453 	0x5f444453
 b14:	32444946 	andi	a0,s2,0x4946
 b18:	45520030 	0x45520030
 b1c:	544c5553 	bnel	v0,t4,1606c <CheckSum32+0x15aa4>
 b20:	414c505f 	0x414c505f
 b24:	44535f59 	0x44535f59
 b28:	49465f44 	0x49465f44
 b2c:	00323244 	0x323244
 b30:	55534552 	bnel	t2,s3,1207c <CheckSum32+0x11ab4>
 b34:	505f544c 	beql	v0,ra,15c68 <CheckSum32+0x156a0>
 b38:	5f59414c 	0x5f59414c
 b3c:	5f444453 	0x5f444453
 b40:	32444946 	andi	a0,s2,0x4946
 b44:	45520033 	0x45520033
 b48:	544c5553 	bnel	v0,t4,16098 <CheckSum32+0x15ad0>
 b4c:	414c505f 	0x414c505f
 b50:	44535f59 	0x44535f59
 b54:	49465f44 	0x49465f44
 b58:	00353244 	0x353244
 b5c:	55534552 	bnel	t2,s3,120a8 <CheckSum32+0x11ae0>
 b60:	455f544c 	0x455f544c
 b64:	5245544e 	beql	s2,a1,15ca0 <CheckSum32+0x156d8>
 b68:	5554535f 	bnel	t2,s4,158e8 <CheckSum32+0x15320>
 b6c:	45445f42 	0x45445f42
 b70:	00475542 	0x475542
 b74:	75716e65 	jalx	5c5b994 <CheckSum32+0x5c5b3cc>
 b78:	5f797269 	0x5f797269
 b7c:	7373656d 	0x7373656d
 b80:	5f656761 	0x5f656761
 b84:	45520074 	0x45520074
 b88:	544c5553 	bnel	v0,t4,160d8 <CheckSum32+0x15b10>
 b8c:	4345525f 	c0	0x145525f
 b90:	5f44524f 	0x5f44524f
 b94:	414c5055 	0x414c5055
 b98:	45520059 	0x45520059
 b9c:	544c5553 	bnel	v0,t4,160ec <CheckSum32+0x15b24>
 ba0:	4149445f 	0x4149445f
 ba4:	5f474f4c 	0x5f474f4c
 ba8:	69004f4e 	0x69004f4e
 bac:	3233746e 	andi	s3,s1,0x746e
 bb0:	53455200 	beql	k0,a1,153b4 <CheckSum32+0x14dec>
 bb4:	5f544c55 	0x5f544c55
 bb8:	5453414c 	bnel	v0,s3,110ec <CheckSum32+0x10b24>
 bbc:	59414c50 	0x59414c50
 bc0:	53455200 	beql	k0,a1,153c4 <CheckSum32+0x14dfc>
 bc4:	5f544c55 	0x5f544c55
 bc8:	4f525245 	c3	0x1525245
 bcc:	746f0052 	jalx	1bc0148 <CheckSum32+0x1bbfb80>
 bd0:	72775f61 	0x72775f61
 bd4:	5f657469 	0x5f657469
 bd8:	6f666e69 	0x6f666e69
 bdc:	5600745f 	bnezl	s0,1dd5c <CheckSum32+0x1d794>
 be0:	69737265 	0x69737265
 be4:	52006e6f 	beqzl	s0,1c5a4 <CheckSum32+0x1bfdc>
 be8:	4c555345 	0x4c555345
 bec:	49445f54 	0x49445f54
 bf0:	474f4c41 	c1	0x14f4c41
 bf4:	004b4f5f 	0x4b4f5f
 bf8:	61647075 	0x61647075
 bfc:	735f6174 	0x735f6174
 c00:	75746174 	jalx	5d185d0 <CheckSum32+0x5d18008>
 c04:	61640065 	0x61640065
 c08:	73006174 	0x73006174
 c0c:	5f627574 	0x5f627574
 c10:	6c6f6f74 	0x6c6f6f74
 c14:	79745f73 	0x79745f73
 c18:	63006570 	0x63006570
 c1c:	6b636568 	0x6b636568
 c20:	6e656c5f 	0x6e656c5f
 c24:	72617000 	0x72617000
 c28:	6e695f74 	0x6e695f74
 c2c:	73006f66 	0x73006f66
 c30:	656e6769 	0x656e6769
 c34:	68632064 	0x68632064
 c38:	64007261 	0x64007261
 c3c:	6c6d776f 	0x6c6d776f
 c40:	5f64616f 	0x5f64616f
 c44:	74617473 	jalx	185d1cc <CheckSum32+0x185cc04>
 c48:	69006575 	0x69006575
 c4c:	72656e6e 	0x72656e6e
 c50:	5f61705f 	0x5f61705f
 c54:	74696e69 	jalx	1a5b9a4 <CheckSum32+0x1a5b3dc>
 c58:	52006465 	beqzl	s0,19df0 <CheckSum32+0x19828>
 c5c:	4c555345 	0x4c555345
 c60:	41525f54 	0x41525f54
 c64:	004f4944 	0x4f4944
 c68:	72616863 	0x72616863
 c6c:	735f6567 	0x735f6567
 c70:	65746174 	0x65746174
 c74:	63617000 	0x63617000
 c78:	6f635f6b 	0x6f635f6b
 c7c:	00746e75 	0x746e75
 c80:	55534552 	bnel	t2,s3,121cc <CheckSum32+0x11c04>
 c84:	445f544c 	0x445f544c
 c88:	4f4c4149 	c3	0x14c4149
 c8c:	45595f47 	0x45595f47
 c90:	6f6c0053 	0x6f6c0053
 c94:	6c20676e 	0x6c20676e
 c98:	20676e6f 	addi	a3,v1,28271
 c9c:	69736e75 	0x69736e75
 ca0:	64656e67 	0x64656e67
 ca4:	746e6920 	jalx	1b9a480 <CheckSum32+0x1b99eb8>
 ca8:	53455200 	beql	k0,a1,154ac <CheckSum32+0x14ee4>
 cac:	5f544c55 	0x5f544c55
 cb0:	45544e45 	0x45544e45
 cb4:	53415f52 	beql	k0,at,18a00 <CheckSum32+0x18438>
 cb8:	485f5451 	0x485f5451
 cbc:	45545f46 	0x45545f46
 cc0:	61005453 	0x61005453
 cc4:	735f7070 	0x735f7070
 cc8:	65746174 	0x65746174
 ccc:	75747300 	jalx	5d1cc00 <CheckSum32+0x5d1c638>
 cd0:	6f6d5f62 	0x6f6d5f62
 cd4:	665f6564 	0x665f6564
 cd8:	0067616c 	0x67616c
 cdc:	74726170 	jalx	1c985c0 <CheckSum32+0x1c97ff8>
 ce0:	6972775f 	0x6972775f
 ce4:	6f5f6574 	0x6f5f6574
 ce8:	65736666 	0x65736666
 cec:	616c0074 	0x616c0074
 cf0:	645f7473 	0x645f7473
 cf4:	006b7369 	0x6b7369
 cf8:	55534552 	bnel	t2,s3,12244 <CheckSum32+0x11c7c>
 cfc:	4d5f544c 	0x4d5f544c
 d00:	5f4e4941 	0x5f4e4941
 d04:	00505041 	0x505041
 d08:	5f61746f 	0x5f61746f
 d0c:	74697277 	jalx	1a5c9dc <CheckSum32+0x1a5c414>
 d10:	74695f65 	jalx	1a57d94 <CheckSum32+0x1a577cc>
 d14:	745f6d65 	jalx	17db594 <CheckSum32+0x17dafcc>
 d18:	63657200 	0x63657200
 d1c:	7461645f 	jalx	185917c <CheckSum32+0x1858bb4>
 d20:	74735f61 	jalx	1cd7d84 <CheckSum32+0x1cd77bc>
 d24:	00657461 	0x657461
 d28:	656e696c 	0x656e696c
 d2c:	735f6e69 	0x735f6e69
 d30:	65746174 	0x65746174
 d34:	69727700 	0x69727700
 d38:	695f6574 	0x695f6574
 d3c:	5f6f666e 	0x5f6f666e
 d40:	00746572 	tlt	v1,s4,0x195
 d44:	72616863 	0x72616863
 d48:	53455200 	beql	k0,a1,1554c <CheckSum32+0x14f84>
 d4c:	5f544c55 	0x5f544c55
 d50:	4d4d4f43 	0x4d4d4f43
 d54:	525f4e4f 	beql	s2,ra,14694 <CheckSum32+0x140cc>
 d58:	52455345 	beql	s2,a1,15a70 <CheckSum32+0x154a8>
 d5c:	4f004556 	c3	0x1004556
 d60:	725f6174 	0x725f6174
 d64:	735f7063 	0x735f7063
 d68:	646d635f 	0x646d635f
 d6c:	6165645f 	0x6165645f
 d70:	00632e6c 	0x632e6c
 d74:	55534552 	bnel	t2,s3,122c0 <CheckSum32+0x11cf8>
 d78:	435f544c 	c0	0x15f544c
 d7c:	49464e4f 	0x49464e4f
 d80:	48435f47 	0x48435f47
 d84:	45475241 	0x45475241
 d88:	53455200 	beql	k0,a1,1558c <CheckSum32+0x14fc4>
 d8c:	5f544c55 	0x5f544c55
 d90:	4b434142 	c2	0x1434142
 d94:	4543535f 	0x4543535f
 d98:	445f454e 	0x445f454e
 d9c:	41505349 	0x41505349
 da0:	00484354 	0x484354
 da4:	6f635f67 	0x6f635f67
 da8:	63656e6e 	0x63656e6e
 dac:	65725f74 	0x65725f74
 db0:	52007970 	beqzl	s0,1f374 <CheckSum32+0x1edac>
 db4:	4c555345 	0x4c555345
 db8:	50415f54 	beql	v0,at,18b0c <CheckSum32+0x18544>
 dbc:	55515f50 	bnel	t2,s1,18b00 <CheckSum32+0x18538>
 dc0:	61005449 	0x61005449
 dc4:	695f7070 	0x695f7070
 dc8:	5f6f666e 	0x5f6f666e
 dcc:	74617473 	jalx	185d1cc <CheckSum32+0x185cc04>
 dd0:	6c615f65 	0x6c615f65
 dd4:	00745f6c 	0x745f6c
 dd8:	6f747561 	0x6f747561
 ddc:	74736574 	jalx	1cd95d0 <CheckSum32+0x1cd9008>
 de0:	646f6d5f 	0x646f6d5f
 de4:	45520065 	0x45520065
 de8:	544c5553 	bnel	v0,t4,16338 <CheckSum32+0x15d70>
 dec:	4345525f 	c0	0x145525f
 df0:	5f44524f 	0x5f44524f
 df4:	545f4d46 	bnel	v0,ra,14310 <CheckSum32+0x13d48>
 df8:	7000554f 	0x7000554f
 dfc:	5f747261 	0x5f747261
 e00:	65736162 	0x65736162
 e04:	66666f5f 	0x66666f5f
 e08:	00746573 	tltu	v1,s4,0x195
 e0c:	676e6f6c 	0x676e6f6c
 e10:	746e6920 	jalx	1b9a480 <CheckSum32+0x1b99eb8>
 e14:	53455200 	beql	k0,a1,15618 <CheckSum32+0x15050>
 e18:	5f544c55 	0x5f544c55
 e1c:	45554c42 	0x45554c42
 e20:	54454554 	bnel	v0,a1,12374 <CheckSum32+0x11dac>
 e24:	41435f48 	0x41435f48
 e28:	425f4c4c 	c0	0x5f4c4c
 e2c:	474b4341 	c1	0x14b4341
 e30:	4e554f52 	c3	0x554f52
 e34:	77660044 	jalx	d980110 <CheckSum32+0xd97fb48>
 e38:	646f6d5f 	0x646f6d5f
 e3c:	77660065 	jalx	d980194 <CheckSum32+0xd97fbcc>
 e40:	776f645f 	jalx	dbd917c <CheckSum32+0xdbd8bb4>
 e44:	616f6c6e 	0x616f6c6e
 e48:	656e5f64 	0x656e5f64
 e4c:	45520077 	0x45520077
 e50:	544c5553 	bnel	v0,t4,163a0 <CheckSum32+0x15dd8>
 e54:	544e455f 	bnel	v0,t6,123d4 <CheckSum32+0x11e0c>
 e58:	555f5245 	bnel	t2,ra,15770 <CheckSum32+0x151a8>
 e5c:	31524553 	andi	s2,t2,0x4553
 e60:	6e697500 	0x6e697500
 e64:	00363174 	teq	at,s6,0xc5
 e68:	55534552 	bnel	t2,s3,123b4 <CheckSum32+0x11dec>
 e6c:	495f544c 	0x495f544c
 e70:	524f4e47 	beql	s2,t7,14790 <CheckSum32+0x141c8>
 e74:	45520045 	0x45520045
 e78:	544c5553 	bnel	v0,t4,163c8 <CheckSum32+0x15e00>
 e7c:	544e455f 	bnel	v0,t6,123fc <CheckSum32+0x11e34>
 e80:	415f5245 	0x415f5245
 e84:	4d52414c 	0x4d52414c
 e88:	6e697500 	0x6e697500
 e8c:	00323374 	teq	at,s2,0xcd
 e90:	69736e75 	0x69736e75
 e94:	64656e67 	0x64656e67
 e98:	746e6920 	jalx	1b9a480 <CheckSum32+0x1b99eb8>
 e9c:	Address 0xe9c is out of bounds.

Disassembly of section .comment:

00000000 <.comment>:
   0:	43434700 	c0	0x1434700
   4:	4728203a 	c1	0x128203a
   8:	2029554e 	addi	t1,at,21838
   c:	2e342e33 	sltiu	s4,s1,11827
  10:	696d2034 	0x696d2034
  14:	64737370 	0x64737370
  18:	2e362d65 	sltiu	s6,s1,11621
  1c:	302e3630 	andi	t6,at,0x3630
  20:	30322d31 	andi	s2,at,0x2d31
  24:	34303730 	ori	s0,at,0x3730
  28:	Address 0x28 is out of bounds.

