
Demo_FreeRTOS.adx:     file format elf32-nds32le
Demo_FreeRTOS.adx
architecture: n1h_v3, flags 0x00000112:
EXEC_P, HAS_SYMS, D_PAGED
start address 0x00000000

Program Header:
    LOAD off    0x00001000 vaddr 0x00000000 paddr 0x00000000 align 2**12
         filesz 0x000071ac memsz 0x000071ac flags r-x
    LOAD off    0x00009000 vaddr 0x20004000 paddr 0x000071c0 align 2**12
         filesz 0x00000090 memsz 0x000003f8 flags rw-
private flags = 32808a52: n1 instructions

Sections:
Idx Name          Size      VMA       LMA       File off  Algn
  0 .vector       000000a4  00000000  00000000  00001000  2**2
                  CONTENTS, ALLOC, LOAD, READONLY, CODE
  1 .stub_section 00000060  000000a4  000000a4  000010a4  2**1
                  CONTENTS, ALLOC, LOAD, READONLY, CODE
  2 .text_*spi_flash.o 000017c4  00000104  00000104  00001104  2**2
                  CONTENTS, ALLOC, LOAD, READONLY, CODE
  3 .rodata_*spi_flash.o 000001c4  000018c8  000018c8  000028c8  2**2
                  CONTENTS, ALLOC, LOAD, READONLY, DATA
  4 .startup_section 000004d8  00001a8c  00001a8c  00002a8c  2**2
                  CONTENTS, ALLOC, LOAD, READONLY, CODE
  5 .deepsleep_section 00000102  00001f64  00001f64  00002f64  2**1
                  CONTENTS, ALLOC, LOAD, READONLY, CODE
  6 .tcm_section  00000214  00002068  00002068  00003068  2**2
                  CONTENTS, ALLOC, LOAD, READONLY, CODE
  7 .driver.isr   0000065c  0000227c  0000227c  0000327c  2**1
                  CONTENTS, ALLOC, LOAD, READONLY, CODE
  8 .text         000043c4  000028d8  000028d8  000038d8  2**2
                  CONTENTS, ALLOC, LOAD, READONLY, CODE
  9 .rodata       00000510  00006c9c  00006c9c  00007c9c  2**2
                  CONTENTS, ALLOC, LOAD, READONLY, DATA
 10 .data         00000090  20004000  000071c0  00009000  2**2
                  CONTENTS, ALLOC, LOAD, DATA
 11 .sbss_w       00000008  20004090  00007250  00009090  2**2
                  ALLOC
 12 .bss          00000360  20004098  00007258  00009090  2**2
                  ALLOC
 13 .comment      0000002f  00000000  00000000  00009090  2**0
                  CONTENTS, READONLY
 14 .debug_aranges 00000818  00000000  00000000  000090c0  2**3
                  CONTENTS, READONLY, DEBUGGING
 15 .debug_info   0000b3bb  00000000  00000000  000098d8  2**0
                  CONTENTS, READONLY, DEBUGGING
 16 .debug_abbrev 00001b32  00000000  00000000  00014c93  2**0
                  CONTENTS, READONLY, DEBUGGING
 17 .debug_line   00007d99  00000000  00000000  000167c5  2**0
                  CONTENTS, READONLY, DEBUGGING
 18 .debug_frame  00001750  00000000  00000000  0001e560  2**2
                  CONTENTS, READONLY, DEBUGGING
 19 .debug_str    0001ba96  00000000  00000000  0001fcb0  2**0
                  CONTENTS, READONLY, DEBUGGING
 20 .debug_loc    00004eb7  00000000  00000000  0003b746  2**0
                  CONTENTS, READONLY, DEBUGGING
 21 .debug_ranges 00000700  00000000  00000000  00040600  2**3
                  CONTENTS, READONLY, DEBUGGING
 22 .debug_macro  00003e52  00000000  00000000  00040d00  2**0
                  CONTENTS, READONLY, DEBUGGING
SYMBOL TABLE:
00000000 l    d  .vector	00000000 .vector
000000a4 l    d  .stub_section	00000000 .stub_section
00000104 l    d  .text_*spi_flash.o	00000000 .text_*spi_flash.o
000018c8 l    d  .rodata_*spi_flash.o	00000000 .rodata_*spi_flash.o
00001a8c l    d  .startup_section	00000000 .startup_section
00001f64 l    d  .deepsleep_section	00000000 .deepsleep_section
00002068 l    d  .tcm_section	00000000 .tcm_section
0000227c l    d  .driver.isr	00000000 .driver.isr
000028d8 l    d  .text	00000000 .text
00006c9c l    d  .rodata	00000000 .rodata
20004000 l    d  .data	00000000 .data
20004090 l    d  .sbss_w	00000000 .sbss_w
20004098 l    d  .bss	00000000 .bss
00000000 l    d  .comment	00000000 .comment
00000000 l    d  .debug_aranges	00000000 .debug_aranges
00000000 l    d  .debug_info	00000000 .debug_info
00000000 l    d  .debug_abbrev	00000000 .debug_abbrev
00000000 l    d  .debug_line	00000000 .debug_line
00000000 l    d  .debug_frame	00000000 .debug_frame
00000000 l    d  .debug_str	00000000 .debug_str
00000000 l    d  .debug_loc	00000000 .debug_loc
00000000 l    d  .debug_ranges	00000000 .debug_ranges
00000000 l    d  .debug_macro	00000000 .debug_macro
00000000 l    df *ABS*	00000000 ./startup/crt0.o
00000000 l       .vector	00000000 exception_vector
00001f14 l       .startup_section	00000000 ___start
00001c4c l       .startup_section	00000000 OS_Trap_TLB_Fill
00001c5c l       .startup_section	00000000 OS_Trap_PTE_Not_Present
00001c6c l       .startup_section	00000000 OS_Trap_TLB_Misc
00001c7c l       .startup_section	00000000 OS_Trap_TLB_VLPT_Miss
00001c8c l       .startup_section	00000000 OS_Trap_Machine_Error
00001c9c l       .startup_section	00000000 OS_Trap_Debug_Related
00001cac l       .startup_section	00000000 OS_Trap_General_Exception
00001cbc l       .startup_section	00000000 OS_Trap_Syscall
00001db6 l       .startup_section	00000000 OS_Trap_Interrupt_HW0
00001dc0 l       .startup_section	00000000 OS_Trap_Interrupt_HW1
00001dca l       .startup_section	00000000 OS_Trap_Interrupt_HW2
00001dd4 l       .startup_section	00000000 OS_Trap_Interrupt_HW3
00001dde l       .startup_section	00000000 OS_Trap_Interrupt_HW4
00001de8 l       .startup_section	00000000 OS_Trap_Interrupt_HW5
00001e0e l       .startup_section	00000000 OS_Trap_Interrupt_HW6
00001e18 l       .startup_section	00000000 OS_Trap_Interrupt_HW7
00001e22 l       .startup_section	00000000 OS_Trap_Interrupt_HW8
00001e2c l       .startup_section	00000000 OS_Trap_Interrupt_HW9
00001e36 l       .startup_section	00000000 OS_Trap_Interrupt_HW10
00001e40 l       .startup_section	00000000 OS_Trap_Interrupt_HW11
00001e4a l       .startup_section	00000000 OS_Trap_Interrupt_HW12
00001e54 l       .startup_section	00000000 OS_Trap_Interrupt_HW13
00001e5e l       .startup_section	00000000 OS_Trap_Interrupt_HW14
00001e68 l       .startup_section	00000000 OS_Trap_Interrupt_HW15
00001e72 l       .startup_section	00000000 OS_Trap_Interrupt_HW16
00001e7c l       .startup_section	00000000 OS_Trap_Interrupt_HW17
00001e86 l       .startup_section	00000000 OS_Trap_Interrupt_HW18
00001e90 l       .startup_section	00000000 OS_Trap_Interrupt_HW19
00001e9a l       .startup_section	00000000 OS_Trap_Interrupt_HW20
00001ea4 l       .startup_section	00000000 OS_Trap_Interrupt_HW21
00001eae l       .startup_section	00000000 OS_Trap_Interrupt_HW22
00001eb8 l       .startup_section	00000000 OS_Trap_Interrupt_HW23
00001ec2 l       .startup_section	00000000 OS_Trap_Interrupt_HW24
00001ecc l       .startup_section	00000000 OS_Trap_Interrupt_HW25
00001ed6 l       .startup_section	00000000 OS_Trap_Interrupt_HW26
00001ee0 l       .startup_section	00000000 OS_Trap_Interrupt_HW27
00001eea l       .startup_section	00000000 OS_Trap_Interrupt_HW28
00001ef4 l       .startup_section	00000000 OS_Trap_Interrupt_HW29
00001efe l       .startup_section	00000000 OS_Trap_Interrupt_HW30
00001f08 l       .startup_section	00000000 OS_Trap_Interrupt_HW31
000000a4 l       .vector	00000000 exception_vector_end
00001bd0 l       .startup_section	00000000 ISR_TABLE
00001ccc l       .startup_section	00000000 OS_Trap_Int_Comm
00000000 l    df *ABS*	00000000 init-default.c
00003f9e l     F .text	00000002 Default_Handler
00000000 l    df *ABS*	00000000 spi_flash.c
00000104 l     F .text_*spi_flash.o	0000001a flash_udelay
0000011e l     F .text_*spi_flash.o	0000001a flash_delayms
00000138 l     F .text_*spi_flash.o	00000022 FshcGpioSet
0000015a l     F .text_*spi_flash.o	0000001a FshcInit
00000174 l     F .text_*spi_flash.o	0000001a FshcFlashBusyStatusSet
0000018e l     F .text_*spi_flash.o	00000034 FshcSendCmd
000001c2 l     F .text_*spi_flash.o	00000232 FshcSpiIOModeCfg
20004244 l     O .bss	00000012 SpiFlashInfo
000003f4 l     F .text_*spi_flash.o	00000046 SpiFlashResetCRM
0000043c l     F .text_*spi_flash.o	000000dc SpiFlashHpmModeSet
00000518 l     F .text_*spi_flash.o	0000010c SpiFlashReadId
000018c8 l     O .rodata_*spi_flash.o	000001c2 SpiFlash
00000624 l     F .text_*spi_flash.o	000000b6 SpiFlashReadStatus
000006da l     F .text_*spi_flash.o	0000002e SpiFlashIsBusy
00000708 l     F .text_*spi_flash.o	0000018a SpiFlashWriteStatus
00000892 l     F .text_*spi_flash.o	000000e0 SpiFlashIOModeCfg
00000972 l     F .text_*spi_flash.o	0000007a SpiFlashDeepPowerDown
000009ec l     F .text_*spi_flash.o	0000006a SpiFlashReleaseFromDeepPowerDown
00000a58 l     F .text_*spi_flash.o	0000018e SpiFlashWriteLock
00000be8 l     F .text_*spi_flash.o	0000000e Flash_GIE_DISABLE
00000bf6 l     F .text_*spi_flash.o	0000000a Flash_GIE_ENABLE
00000d2e l     F .text_*spi_flash.o	000001ba SpiFlashWriteUnLock
00000000 l    df *ABS*	00000000 ./middleware/rtos/freertos/src/os_cpu_a.o
00000000 l    df *ABS*	00000000 clk.c
00000000 l    df *ABS*	00000000 gpio.c
00000000 l    df *ABS*	00000000 timeout.c
00000000 l    df *ABS*	00000000 portISR.c
00000000 l    df *ABS*	00000000 dma.c
00000000 l    df *ABS*	00000000 uarts.c
000058bc l     F .text	00000056 UART_BaudClkGet
00000000 l    df *ABS*	00000000 uarts_interface.c
00000000 l    df *ABS*	00000000 heap_5s.c
00002920 l     F .text	00000046 prvInsertBlockIntoFreeList
200040a8 l     O .bss	00000014 xStart
200040a4 l     O .bss	00000004 pxEnd
20004098 l     O .bss	00000004 xBlockAllocatedBit
200040a0 l     O .bss	00000004 xFreeBytesRemaining
2000409c l     O .bss	00000004 xMinimumEverFreeBytesRemaining
200040bc l     O .bss	00000014 head
00000000 l    df *ABS*	00000000 list.c
00000000 l    df *ABS*	00000000 port.c
200040d4 l     O .bss	00000004 psw_0
00000000 l    df *ABS*	00000000 queue.c
00002e5e l     F .text	00000026 prvIsQueueFull
00002e84 l     F .text	00000022 prvIsQueueEmpty
00002ea6 l     F .text	00000082 prvCopyDataToQueue
00002f28 l     F .text	0000002e prvCopyDataFromQueue
00002f56 l     F .text	00000076 prvUnlockQueue
00000000 l    df *ABS*	00000000 tasks.c
0000336a l     F .text	00000016 prvTaskCheckFreeStackSpace
00003380 l     F .text	0000008e prvListTaskWithinSingleList
0000340e l     F .text	00000028 prvResetNextTaskUnblockTime
20004138 l     O .bss	00000004 pxDelayedTaskList
20004010 l     O .data	00000004 xNextTaskUnblockTime
00003436 l     F .text	0000001a prvDeleteTCB
00003450 l     F .text	00000046 prvAllocateTCBAndStack
00003496 l     F .text	0000005c prvInitialiseTCBVariables
000034f2 l     F .text	0000004e prvInitialiseTaskLists
20004164 l     O .bss	000000c8 pxReadyTasksLists
20004150 l     O .bss	00000014 xDelayedTaskList1
2000413c l     O .bss	00000014 xDelayedTaskList2
20004120 l     O .bss	00000014 xPendingReadyList
2000410c l     O .bss	00000014 xTasksWaitingTermination
20004134 l     O .bss	00000004 pxOverflowDelayedTaskList
00003540 l     F .text	00000046 prvAddCurrentTaskToDelayedList
20004100 l     O .bss	00000004 xTickCount
20004104 l     O .bss	00000004 uxCurrentNumberOfTasks
200040f8 l     O .bss	00000004 xSchedulerRunning
200040e8 l     O .bss	00000004 uxTaskNumber
200040fc l     O .bss	00000004 uxTopReadyPriority
20004108 l     O .bss	00000004 uxTasksDeleted
200040e4 l     O .bss	00000004 uxSchedulerSuspended
000039b2 l     F .text	0000001e prvIdleTask
200040ec l     O .bss	00000004 xNumOfOverflows
200040f4 l     O .bss	00000004 uxPendedTicks
200040f0 l     O .bss	00000004 xYieldPending
00003964 l     F .text	0000004e prvCheckTasksWaitingTermination
200040dc l     O .bss	00000004 ulTotalRunTime
200040e0 l     O .bss	00000004 ulTaskSwitchedInTime
00000000 l    df *ABS*	00000000 rtos_api.c
20004230 l     O .bss	00000004 UlTotalTimeOffset
20004234 l     O .bss	00000004 UlRunTimeCounterOffset
00000000 l    df *ABS*	00000000 demo_freertos.c
00000000 l    df *ABS*	00000000 interrupt.c
00000000 l    df *ABS*	00000000 retarget.c
00000000 l    df *ABS*	00000000 chip_info.c
00000000 l    df *ABS*	00000000 core_d1088.c
00000000 l    df *ABS*	00000000 efuse.c
00000000 l    df *ABS*	00000000 remap.c
00000000 l    df *ABS*	00000000 timer.c
00000000 l    df *ABS*	00000000 watchdog.c
00000000 l    df *ABS*	00000000 _divdi3.o
00000000 l    df *ABS*	00000000 _udivmoddi4.o
00005d78 l     F .text	00000058 fudiv_qrnnd
00000000 l    df *ABS*	00000000 lib_a-memcpy.o
00000000 l    df *ABS*	00000000 lib_a-memset.o
00000000 l    df *ABS*	00000000 printf.c
00000000 l    df *ABS*	00000000 puts.c
00000000 l    df *ABS*	00000000 lib_a-strlen.o
00000000 l    df *ABS*	00000000 vprintf.c
00005fec l     F .text	00000034 vprintf_help
2000425c l     O .bss	00000004 output_idx
20004260 l     O .bss	00000004 output_buff
00000000 l    df *ABS*	00000000 do_printf.c
00000000 l    df *ABS*	00000000 printf_f.c
00006514 l     F .text	00000032 sep_frac
00000000 l    df *ABS*	00000000 lib_a-strcpy.o
00000000 l    df *ABS*	00000000 abs.c
00000000 l    df *ABS*	00000000 _write.o
00000000 l    df *ABS*	00000000 libgcc2.c
00000000 l    df *ABS*	00000000 libgcc2.c
00000000 l    df *ABS*	00000000 
00000000 l       *UND*	00000000 UART1Mutex
00000000 l       *ABS*	00000000 NDS_SAG_LMA_EILM
00000000 l       *UND*	00000000 UART0Mutex
00000000 l       *ABS*	00000000 EILM_BEGIN
00000000 l       *UND*	00000000 CtxSave
00002768 g     F .driver.isr	00000014 PastTimeGet
00004320 g     F .text	00000070 putchar
00004306 g     F .text	00000018 NVIC_EnableIRQ
00006c18 g     F .text	00000012 strcpy
00006c74 g     F .text	00000026 .hidden __ashldi3
00002226 g     F .tcm_section	00000054 DelayMs
00003f9e  w    F .text	00000002 SpdifInterrupt
20004240 g     O .bss	00000001 IsSwUartActedAsUARTFlag
000021d4 g     F .tcm_section	00000052 __udelay
00005d38 g     F .text	0000003e .hidden __divdi3
20004258 g     O .bss	00000004 gSysTick
00003e38 g     F .text	00000034 SendTask
00002e04 g     F .text	0000002a vPortExitCritical
000047e8 g     F .text	00000062 EnableMPU
00001120 g     F .text_*spi_flash.o	0000034e SpiFlashWrite
00005f84 g     F .text	0000000a printf
000046d2 g     F .text	0000008e Clock_SysClkSelect
000014f6 g     F .text_*spi_flash.o	00000042 SpiFlashResume
00003f9e  w    F .text	00000002 I2C_Interrupt
00002e2e g     F .text	00000014 ulPortSetInterruptMask
00005d12 g     F .text	00000024 WDG_Disable
00001724 g     F .text_*spi_flash.o	000000ce SpiFlashInit
000056ac g     F .text	00000198 Timer_Config
0000431e  w    F .text	00000002 SwUartSend
2000406c g     O .data	00000020 DMADintTable
20004000 g     O .data	00000008 UARTS_SendByte_MAP
000024fa g     F .driver.isr	0000009a DMA4_Interrupt
2000422c g     O .bss	00000004 pxCurrentTCB
00005646 g     F .text	0000002a SysTickInit
00004488 g     F .text	00000070 Clock_Config
000017f2 g     F .text_*spi_flash.o	00000006 SpiFlashInfoGet
00003f9e  w    F .text	00000002 BLE_Interrupt
00002db0 g     F .text	00000018 xPortStartScheduler
00005f28 g     F .text	0000002c memcpy
00003aec g     F .text	0000003a vTaskPlaceOnEventList
00003586 g     F .text	0000010c xTaskGenericCreate
000042e6 g     F .text	0000000a GIE_ENABLE
00005f8e g     F .text	00000050 puts
20004241 g     O .bss	00000001 DebugPrintPort
00002a2a g     F .text	0000006a vPortFree
00005616 g     F .text	00000030 Remap_InitTcm
000044f8 g     F .text	0000001a WaitOscillateWork
00007250 g       *ABS*	00000000 EILM_SIZE
00002bf2 g     F .text	00000018 vListInsertEnd
000047b8 g     F .text	00000010 Clock_Module1Enable
00002080 g     F .tcm_section	0000000a Clock_CoreClkDivGet
00005dd0 g     F .text	00000158 .hidden __udivmoddi4
000041fc g     F .text	000000a2 __cpu_init
000043b0 g     F .text	00000024 DbgUartInit
00005844 g     F .text	00000076 Timer_Start
00002bec g     F .text	00000006 vListInitialiseItem
20004024 g     O .data	00000004 gAPLLWorkFreq
0000227c g     F .driver.isr	00000030 SystickInterrupt
00002e42 g     F .text	0000000a vPortClearInterruptMask
00003f9e  w    F .text	00000002 GpioInterrupt
0000277c g     F .driver.isr	00000020 TimeOutSet
00000d12 g     F .text_*spi_flash.o	0000001c ByteRecombineToDword
00003f9e  w    F .text	00000002 SWInterrupt
00002b84 g     F .text	0000001c GetCurrentTaskHandle
00003f9e  w    F .text	00000002 SDIO0_Interrupt
00002852  w    F .driver.isr	00000086 UART1_Interrupt
20004020 g     O .data	00000004 gSOCInFreq
00002966 g     F .text	000000c4 pvPortMalloc
000042fe g     F .text	00000008 GIE_STATE_GET
00002cd8 g     F .text	0000001c vPortEndScheduler
00003f9e  w    F .text	00000002 FFTInterrupt
00002bd8 g     F .text	00000014 vListInitialise
00003e6c g     F .text	00000040 RecvTask
0000606c g     F .text	000004a6 do_printf
0000262e g     F .driver.isr	0000009a DMA6_Interrupt
00002ba0 g     F .text	00000038 DeleteTaskMallocMem
0000146e g     F .text_*spi_flash.o	00000038 SpiFlashGetStatus
000030a8 g     F .text	0000015a xQueueGenericSend
000020b4 g     F .tcm_section	0000006c Clock_CoreClockFreqGet
00004512 g     F .text	000000a6 Clock_RcFreqGet
00003f9e  w    F .text	00000002 IRInterrupt
00001a8c g       .startup_section	00000000 OS_Trap_Interrupt_SWI
000022ac g     F .driver.isr	00000080 DMA0_Interrupt
000039d0 g     F .text	0000007e uxTaskGetSystemState
000042c4 g     F .text	00000022 __init
000020ae g     F .tcm_section	00000006 Clock_APllFreqGet
0000557c g     F .text	0000009a Remap_AddrRemapSet
000010ba g     F .text_*spi_flash.o	00000066 SpiFlashEraseResume
2000402c g     O .data	00000020 DMAEintTable
00003b26 g     F .text	0000007e xTaskRemoveFromEventList
00006c4c g     F .text	00000028 .hidden __lshrdi3
2000404c g     O .data	00000020 DMATintTable
000070bc g     O .rodata	000000e0 MPUConfigTable
00003fa0 g     F .text	00000228 ExceptionCommHandler
00006020 g     F .text	0000004c vprintf
200041f8  w      .data	00000000 _FP_BASE_
00003692 g     F .text	00000080 vTaskDelete
000043e6 g     F .text	00000096 Chip_Init
000045b8 g     F .text	0000011a Clock_PllLock
00006546 g     F .text	000006d2 _printf_float
00002068 g     F .tcm_section	00000018 Clock_CoreClkDivSet
00003bc8 g     F .text	0000006a xTaskCheckForTimeOut
00005912 g     F .text	000001c0 UART0_Init
00000000 g     F .vector	0000006c _start
00002b70 g     F .text	00000014 GetIPSR
0000376e g     F .text	0000000c vTaskSuspendAll
00002c38 g     F .text	00000022 uxListRemove
200041f8  w      .data	00000000 _SDA_BASE_
00003ce6 g     F .text	00000054 vTaskPriorityDisinherit
0000447c g     F .text	0000000c Chip_MemInit
00003f9e  w    F .text	00000002 I2sInterrupt
000042f0 g     F .text	0000000e GIE_DISABLE
00003c58 g     F .text	0000008e vTaskPriorityInherit
00004760 g     F .text	00000058 Clock_UARTClkSelect
00003a4e g     F .text	0000009e vTaskSwitchContext
00000cfe g     F .text_*spi_flash.o	00000014 SpiFlashClkSwitch
000021b0 g     F .tcm_section	00000010 GPIO_RegOneBitSet
00003f9e  w    F .text	00000002 UART0_Interrupt
20004094 g     O .sbss_w	00000004 xQueue
0000567e g     F .text	0000002c ClockFreqGet
0000377a g     F .text	00000006 uxTaskGetNumberOfTasks
00002dc8 g     F .text	0000000e vPortYield
00003f9e  w    F .text	00000002 Timer4Interrupt
00003d3a g     F .text	00000028 prvInitialiseHeap
000043d4 g     F .text	00000012 Chip_VMIDDetectDisable
0000429e g     F .text	00000026 HardwareStackProtectEnable
00000000  w      .vector	00000000 _RELAX_END_
00003f9e  w    F .text	00000002 Timer2Interrupt
00001660 g     F .text_*spi_flash.o	000000c4 FlashErase
20004090 g       .sbss_w	00000000 __bss_start
00005f54 g     F .text	0000002e memset
00003eac g     F .text	000000f2 main
00003f9e  w    F .text	00000002 Timer6Interrupt
000028ea g     F .text	00000012 UART1_InitWpr
00002c0a g     F .text	0000002e vListInsert
00005cd2 g     F .text	00000040 UART1_SendByte
000047c8 g     F .text	00000010 Clock_Module2Enable
000048f2 g     F .text	00000c8a GPIO_PortAModeSet
00003c3a g     F .text	00000006 xTaskGetCurrentTaskHandle
00002e4c  w    F .text	00000012 vPortISRStartFirstTask
2000423c g     O .bss	00000004 SendCount
00003048 g     F .text	00000060 xQueueGenericCreate
000047d8 g     F .text	00000010 Clock_Module3Enable
000028d8 g     F .text	00000012 UART0_InitWpr
20004264 g     O .bss	00000004 _NDS32_REENT__errno
00002594 g     F .driver.isr	0000009a DMA5_Interrupt
20004090 g     O .sbss_w	00000004 SysemMipsPercent
0000488c g     F .text	00000066 Efuse_ReadData
00002a94 g     F .text	000000dc vPortDefineHeapRegions
00003f9e  w    F .text	00000002 WakeupInterrupt
000023c6 g     F .driver.isr	0000009a DMA2_Interrupt
00003892 g     F .text	000000d2 xTaskResumeAll
20004019 g     O .data	00000001 IsDpllFreeRun
00003712 g     F .text	0000005c vTaskStartScheduler
00003f9e  w    F .text	00000002 SPIS_Interrupt
20004268 g     O .bss	00000190 result
00002c5a g       .text	00000000 CtxRestore
00002762 g     F .driver.isr	00000006 GetSysTick1MsCnt
0000279c g     F .driver.isr	00000030 IsTimeOut
00003c32 g     F .text	00000008 vTaskMissedYield
00005670 g     F .text	0000000e SysTimerIntFlagClear
00005c92 g     F .text	00000040 UART0_SendByte
00003202 g     F .text	00000168 xQueueGenericReceive
00003780 g     F .text	00000112 xTaskIncrementTick
000000a4 g     F .stub_section	00000060 stub
00002120 g     F .tcm_section	00000036 Clock_SysClockFreqGet
00000000  w      *ABS*	00000000 _ITB_BASE_
0000208a g     F .tcm_section	0000001e Clock_SysClkDivGet
000071c0 g       *ABS*	00000000 __data_lmastart
00002fcc g     F .text	0000007c xQueueGenericReset
00006c34 g     F .text	00000018 _write
00002156 g     F .tcm_section	0000005a Clock_SysClkDivSet
200040d8 g     O .bss	00000004 ulCriticalNesting
20004090 g       .sbss_w	00000000 _edata
200043f8 g       .bss	00000000 _end
200040d0 g     O .bss	00000004 psw_1
00000c00 g     F .text_*spi_flash.o	0000008a FshcClkSwitch
20004008 g     O .data	00000008 UARTS_Init_MAP
0000290e g     F .text	00000012 UART1_SendByteWpr
000017f8 g     F .text_*spi_flash.o	000000ce SpiFlashIOCtrl
000041c8 g     F .text	00000034 __c_init
00000ee8 g     F .text_*spi_flash.o	000001d2 SpiFlashRead
20004018 g     O .data	00000001 IsApllFreeRun
000028fc g     F .text	00000012 UART0_SendByteWpr
00003f9e  w    F .text	00000002 RtcInterrupt
00003f9e  w    F .text	00000002 BT_Interrupt
0000484a g     F .text	00000042 EnableIDCache
000014a6 g     F .text_*spi_flash.o	00000050 SpiFlashFshcStatusSetIdle
0000232c g     F .driver.isr	0000009a DMA1_Interrupt
00003c40 g     F .text	00000018 xTaskGetSchedulerState
00001f64 g     F .deepsleep_section	00000102 Clock_DeepSleepSysClkSelect
20004238 g     O .bss	00000004 RecvCount
20004028 g     O .data	00000004 gPLLWorkFreq
00003f9e  w    F .text	00000002 SPIM_Interrupt
00005fe0 g     F .text	0000000c strlen
00002cf4 g     F .text	000000bc pxPortInitialiseStack
20004000 g       *ABS*	00000000 _stack
20004014 g     O .data	00000004 gSramEndAddr
000026c8 g     F .driver.isr	0000009a DMA7_Interrupt
00002460 g     F .driver.isr	0000009a DMA3_Interrupt
00006c2c g     F .text	00000006 abs
00003ba4 g     F .text	00000024 vTaskSetTimeOutState
00002dd6 g     F .text	0000002e vPortEnterCritical
20004000 g       .data	00000000 __data_start
00001538 g     F .text_*spi_flash.o	00000128 SpiFlashErase
00004390 g     F .text	00000020 nds_write
000020a8 g     F .tcm_section	00000006 Clock_PllFreqGet
00000c8a g     F .text_*spi_flash.o	00000074 SpiFlashResumDelaySet
2000401c g     O .data	00000004 rc_clk_freq
00005ad2 g     F .text	000001c0 UART1_Init
00003f9e  w    F .text	00000002 Timer5Interrupt
00003f9e  w    F .text	00000002 UsbInterrupt
00003f9e  w    F .text	00000002 Timer3Interrupt
000021c0 g     F .tcm_section	00000012 GPIO_RegOneBitClear
00003d62 g     F .text	000000d6 vApplicationIdleHook



Disassembly of section .vector:

00000000 <_start>:
   0:	48 00 0f 8a 	j 1f14 <___start>
   4:	48 00 0e 24 	j 1c4c <OS_Trap_TLB_Fill>
   8:	48 00 0e 2a 	j 1c5c <OS_Trap_PTE_Not_Present>
   c:	48 00 0e 30 	j 1c6c <OS_Trap_TLB_Misc>
  10:	48 00 0e 36 	j 1c7c <OS_Trap_TLB_VLPT_Miss>
  14:	48 00 0e 3c 	j 1c8c <OS_Trap_Machine_Error>
  18:	48 00 0e 42 	j 1c9c <OS_Trap_Debug_Related>
  1c:	48 00 0e 48 	j 1cac <OS_Trap_General_Exception>
  20:	48 00 0e 4e 	j 1cbc <OS_Trap_Syscall>
  24:	48 00 0e c9 	j 1db6 <OS_Trap_Interrupt_HW0>
  28:	48 00 0e cc 	j 1dc0 <OS_Trap_Interrupt_HW1>
  2c:	48 00 0e cf 	j 1dca <OS_Trap_Interrupt_HW2>
  30:	48 00 0e d2 	j 1dd4 <OS_Trap_Interrupt_HW3>
  34:	48 00 0e d5 	j 1dde <OS_Trap_Interrupt_HW4>
  38:	48 00 0e d8 	j 1de8 <OS_Trap_Interrupt_HW5>
  3c:	48 00 0e e9 	j 1e0e <OS_Trap_Interrupt_HW6>
  40:	48 00 0e ec 	j 1e18 <OS_Trap_Interrupt_HW7>
  44:	48 00 0e ef 	j 1e22 <OS_Trap_Interrupt_HW8>
  48:	48 00 0e f2 	j 1e2c <OS_Trap_Interrupt_HW9>
  4c:	48 00 0e f5 	j 1e36 <OS_Trap_Interrupt_HW10>
  50:	48 00 0e f8 	j 1e40 <OS_Trap_Interrupt_HW11>
  54:	48 00 0e fb 	j 1e4a <OS_Trap_Interrupt_HW12>
  58:	48 00 0e fe 	j 1e54 <OS_Trap_Interrupt_HW13>
  5c:	48 00 0f 01 	j 1e5e <OS_Trap_Interrupt_HW14>
  60:	48 00 0f 04 	j 1e68 <OS_Trap_Interrupt_HW15>
  64:	48 00 0f 07 	j 1e72 <OS_Trap_Interrupt_HW16>
  68:	48 00 0f 0a 	j 1e7c <OS_Trap_Interrupt_HW17>
  6c:	48 00 0f 0d 	j 1e86 <OS_Trap_Interrupt_HW18>
  70:	48 00 0f 10 	j 1e90 <OS_Trap_Interrupt_HW19>
  74:	48 00 0f 13 	j 1e9a <OS_Trap_Interrupt_HW20>
  78:	48 00 0f 16 	j 1ea4 <OS_Trap_Interrupt_HW21>
  7c:	48 00 0f 19 	j 1eae <OS_Trap_Interrupt_HW22>
  80:	48 00 0f 1c 	j 1eb8 <OS_Trap_Interrupt_HW23>
  84:	48 00 0f 1f 	j 1ec2 <OS_Trap_Interrupt_HW24>
  88:	48 00 0f 22 	j 1ecc <OS_Trap_Interrupt_HW25>
  8c:	48 00 0f 25 	j 1ed6 <OS_Trap_Interrupt_HW26>
  90:	48 00 0f 28 	j 1ee0 <OS_Trap_Interrupt_HW27>
  94:	48 00 0f 2b 	j 1eea <OS_Trap_Interrupt_HW28>
  98:	48 00 0f 2e 	j 1ef4 <OS_Trap_Interrupt_HW29>
  9c:	48 00 0f 31 	j 1efe <OS_Trap_Interrupt_HW30>
  a0:	48 00 0f 34 	j 1f08 <OS_Trap_Interrupt_HW31>

Disassembly of section .stub_section:

000000a4 <stub>:
  a4:	ff ff       	or33 $r7,$r7
  a6:	ff ff       	or33 $r7,$r7
  a8:	ff ff       	or33 $r7,$r7
  aa:	ff ff       	or33 $r7,$r7
  ac:	ff ff       	or33 $r7,$r7
  ae:	ff ff       	or33 $r7,$r7
  b0:	00 00 10 00 	lbi $r0,[$r0+#0x1000]
  b4:	00 00 1d 00 	lbi $r0,[$r0+#0x1d00]
  b8:	01 00 00 01 	lbi $r16,[$r0+#0x1]
  bc:	ff ff       	or33 $r7,$r7
  be:	ff ff       	or33 $r7,$r7
  c0:	c9 bd       	bnez38 $r1,3a <_ITB_BASE_+0x3a>
  c2:	be b0       	swi37 $r6,[$fp+#0xc0]
  c4:	06 07 00 00 	*unknown*
  c8:	ff ff       	or33 $r7,$r7
  ca:	ff ff       	or33 $r7,$r7
  cc:	ff ff       	or33 $r7,$r7
  ce:	ff ff       	or33 $r7,$r7
  d0:	ff ff       	or33 $r7,$r7
  d2:	ff ff       	or33 $r7,$r7
  d4:	46 48 44 03 	sethi $r4,#0x84403
  d8:	ff ff       	or33 $r7,$r7
  da:	ff ff       	or33 $r7,$r7
  dc:	ff ff       	or33 $r7,$r7
  de:	ff ff       	or33 $r7,$r7
  e0:	ff ff       	or33 $r7,$r7
  e2:	ff ff       	or33 $r7,$r7
  e4:	ff ff       	or33 $r7,$r7
  e6:	ff ff       	or33 $r7,$r7
  e8:	ff ff       	or33 $r7,$r7
  ea:	ff ff       	or33 $r7,$r7
  ec:	ff ff       	or33 $r7,$r7
  ee:	ff ff       	or33 $r7,$r7
  f0:	ff ff       	or33 $r7,$r7
  f2:	ff ff       	or33 $r7,$r7
  f4:	ff ff       	or33 $r7,$r7
  f6:	ff ff       	or33 $r7,$r7
  f8:	ff ff       	or33 $r7,$r7
  fa:	ff ff       	or33 $r7,$r7
  fc:	ff ff       	or33 $r7,$r7
  fe:	ff 00       	*unknown*
 100:	ff ff       	or33 $r7,$r7
 102:	dd 9e       	ret5 $lp

Disassembly of section .text_*spi_flash.o:

00000104 <flash_udelay>:
     104:	ef f8       	addi10.sp #-8
     106:	fa 31       	movpi45 $r1,#0x21
     108:	fe 0c       	mul33 $r0,$r1
     10a:	f0 81       	swi37.sp $r0,[+#0x4]
     10c:	d5 04       	j8 114 <flash_udelay+0x10>
     10e:	f0 01       	lwi37.sp $r0,[+#0x4]
     110:	8e 01       	subi45 $r0,#0x1
     112:	f0 81       	swi37.sp $r0,[+#0x4]
     114:	f0 01       	lwi37.sp $r0,[+#0x4]
     116:	4e 06 ff fc 	bgtz $r0,10e <flash_udelay+0xa>
     11a:	ec 08       	addi10.sp #0x8
     11c:	dd 9e       	ret5 $lp

0000011e <flash_delayms>:
     11e:	3a 6f 98 bc 	smw.adm $r6,[$sp],$r6,#0x2    ! {$r6, $lp}
     122:	d5 06       	j8 12e <flash_delayms+0x10>
     124:	44 00 03 e8 	movi $r0,#0x3e8
     128:	49 ff ff ee 	jal 104 <flash_udelay>
     12c:	80 06       	mov55 $r0,$r6
     12e:	9f 81       	subi333 $r6,$r0,#0x1
     130:	c8 fa       	bnez38 $r0,124 <flash_delayms+0x6>
     132:	3a 6f 98 84 	lmw.bim $r6,[$sp],$r6,#0x2    ! {$r6, $lp}
     136:	dd 9e       	ret5 $lp

00000138 <FshcGpioSet>:
     138:	5a 08 02 10 	bnec $r0,#0x2,158 <FshcGpioSet+0x20>
     13c:	46 04 00 10 	sethi $r0,#0x40010
     140:	00 20 00 c8 	lbi $r2,[$r0+#0xc8]
     144:	44 1f ff 80 	movi $r1,#-128
     148:	fe 8f       	or33 $r2,$r1
     14a:	10 20 00 c8 	sbi $r2,[$r0+#0xc8]
     14e:	00 20 00 cc 	lbi $r2,[$r0+#0xcc]
     152:	fe 57       	or33 $r1,$r2
     154:	10 10 00 cc 	sbi $r1,[$r0+#0xcc]
     158:	dd 9e       	ret5 $lp

0000015a <FshcInit>:
     15a:	46 14 00 07 	sethi $r1,#0x40007
     15e:	c0 06       	beqz38 $r0,16a <FshcInit+0x10>
     160:	a0 0a       	lwi333 $r0,[$r1+#0x8]
     162:	58 00 00 01 	ori $r0,$r0,#0x1
     166:	a8 0a       	swi333 $r0,[$r1+#0x8]
     168:	dd 9e       	ret5 $lp
     16a:	a0 0a       	lwi333 $r0,[$r1+#0x8]
     16c:	66 00 00 01 	bitci $r0,$r0,#0x1
     170:	a8 0a       	swi333 $r0,[$r1+#0x8]
     172:	dd 9e       	ret5 $lp

00000174 <FshcFlashBusyStatusSet>:
     174:	46 14 00 07 	sethi $r1,#0x40007
     178:	c0 06       	beqz38 $r0,184 <FshcFlashBusyStatusSet+0x10>
     17a:	a0 0a       	lwi333 $r0,[$r1+#0x8]
     17c:	58 00 00 08 	ori $r0,$r0,#0x8
     180:	a8 0a       	swi333 $r0,[$r1+#0x8]
     182:	dd 9e       	ret5 $lp
     184:	a0 0a       	lwi333 $r0,[$r1+#0x8]
     186:	66 00 00 08 	bitci $r0,$r0,#0x8
     18a:	a8 0a       	swi333 $r0,[$r1+#0x8]
     18c:	dd 9e       	ret5 $lp

0000018e <FshcSendCmd>:
     18e:	46 54 00 07 	sethi $r5,#0x40007
     192:	a8 2c       	swi333 $r0,[$r5+#0x10]
     194:	94 4e       	slli333 $r1,$r1,#0x6
     196:	fe 8f       	or33 $r2,$r1
     198:	a8 ae       	swi333 $r2,[$r5+#0x18]
     19a:	a8 ef       	swi333 $r3,[$r5+#0x1c]
     19c:	a9 2b       	swi333 $r4,[$r5+#0xc]
     19e:	84 21       	movi55 $r1,#0x1
     1a0:	14 12 80 08 	swi $r1,[$r5+#0x20]
     1a4:	46 04 00 30 	sethi $r0,#0x40030
     1a8:	84 40       	movi55 $r2,#0x0
     1aa:	b6 40       	swi450 $r2,[$r0]
     1ac:	b6 20       	swi450 $r1,[$r0]
     1ae:	84 22       	movi55 $r1,#0x2
     1b0:	b6 20       	swi450 $r1,[$r0]
     1b2:	cc 07       	bnez38 $r4,1c0 <FshcSendCmd+0x32>
     1b4:	46 04 00 07 	sethi $r0,#0x40007
     1b8:	04 00 00 0b 	lwi $r0,[$r0+#0x2c]
     1bc:	96 04       	xlsb33 $r0,$r0
     1be:	c8 fb       	bnez38 $r0,1b4 <FshcSendCmd+0x26>
     1c0:	dd 9e       	ret5 $lp

000001c2 <FshcSpiIOModeCfg>:
     1c2:	c1 0d       	beqz38 $r1,1dc <FshcSpiIOModeCfg+0x1a>
     1c4:	c0 0c       	beqz38 $r0,1dc <FshcSpiIOModeCfg+0x1a>
     1c6:	2e 10 00 4c 	lbi.gp $r1,[+#0x4c]
     1ca:	96 48       	zeb33 $r1,$r1
     1cc:	5a 18 c8 08 	bnec $r1,#0xc8,1dc <FshcSpiIOModeCfg+0x1a>
     1d0:	84 60       	movi55 $r3,#0x0
     1d2:	46 14 00 07 	sethi $r1,#0x40007
     1d6:	14 30 80 11 	swi $r3,[$r1+#0x44]
     1da:	d5 08       	j8 1ea <FshcSpiIOModeCfg+0x28>
     1dc:	46 14 00 07 	sethi $r1,#0x40007
     1e0:	84 61       	movi55 $r3,#0x1
     1e2:	14 30 80 11 	swi $r3,[$r1+#0x44]
     1e6:	14 30 80 13 	swi $r3,[$r1+#0x4c]
     1ea:	46 44 00 07 	sethi $r4,#0x40007
     1ee:	04 32 00 10 	lwi $r3,[$r4+#0x40]
     1f2:	46 1f f0 ff 	sethi $r1,#0xff0ff
     1f6:	50 10 8f ff 	addi $r1,$r1,#0xfff
     1fa:	fe 5e       	and33 $r1,$r3
     1fc:	46 30 07 00 	sethi $r3,#0x700
     200:	fe 5f       	or33 $r1,$r3
     202:	14 12 00 10 	swi $r1,[$r4+#0x40]
     206:	2e 10 00 4c 	lbi.gp $r1,[+#0x4c]
     20a:	96 48       	zeb33 $r1,$r1
     20c:	5a 10 51 11 	beqc $r1,#0x51,22e <FshcSpiIOModeCfg+0x6c>
     210:	5c f0 80 52 	slti $r15,$r1,#0x52
     214:	e8 06       	beqzs8 220 <FshcSpiIOModeCfg+0x5e>
     216:	5a 10 0e 04 	beqc $r1,#0xe,21e <FshcSpiIOModeCfg+0x5c>
     21a:	48 00 00 89 	j 32c <FshcSpiIOModeCfg+0x16a>
     21e:	d5 36       	j8 28a <FshcSpiIOModeCfg+0xc8>
     220:	5a 10 c8 35 	beqc $r1,#0xc8,28a <FshcSpiIOModeCfg+0xc8>
     224:	5a 10 e0 04 	beqc $r1,#0xe0,22c <FshcSpiIOModeCfg+0x6a>
     228:	48 00 00 82 	j 32c <FshcSpiIOModeCfg+0x16a>
     22c:	d5 2f       	j8 28a <FshcSpiIOModeCfg+0xc8>
     22e:	46 14 00 07 	sethi $r1,#0x40007
     232:	46 30 07 a7 	sethi $r3,#0x7a7
     236:	c8 15       	bnez38 $r0,260 <FshcSpiIOModeCfg+0x9e>
     238:	50 31 85 0b 	addi $r3,$r3,#0x50b
     23c:	14 30 80 0c 	swi $r3,[$r1+#0x30]
     240:	44 30 a0 06 	movi $r3,#0xa006
     244:	14 30 80 0d 	swi $r3,[$r1+#0x34]
     248:	46 30 28 01 	sethi $r3,#0x2801
     24c:	50 31 89 1f 	addi $r3,$r3,#0x91f
     250:	14 30 80 0e 	swi $r3,[$r1+#0x38]
     254:	44 30 1d df 	movi $r3,#0x1ddf
     258:	14 30 80 10 	swi $r3,[$r1+#0x40]
     25c:	48 00 00 bd 	j 3d6 <FshcSpiIOModeCfg+0x214>
     260:	50 31 85 3b 	addi $r3,$r3,#0x53b
     264:	14 30 80 0c 	swi $r3,[$r1+#0x30]
     268:	84 66       	movi55 $r3,#0x6
     26a:	14 30 80 0d 	swi $r3,[$r1+#0x34]
     26e:	46 30 28 01 	sethi $r3,#0x2801
     272:	50 31 89 1f 	addi $r3,$r3,#0x91f
     276:	14 30 80 0e 	swi $r3,[$r1+#0x38]
     27a:	46 30 00 81 	sethi $r3,#0x81
     27e:	50 31 8d df 	addi $r3,$r3,#0xddf
     282:	14 30 80 10 	swi $r3,[$r1+#0x40]
     286:	48 00 00 a8 	j 3d6 <FshcSpiIOModeCfg+0x214>
     28a:	5a 00 01 1f 	beqc $r0,#0x1,2c8 <FshcSpiIOModeCfg+0x106>
     28e:	c0 05       	beqz38 $r0,298 <FshcSpiIOModeCfg+0xd6>
     290:	5a 00 02 35 	beqc $r0,#0x2,2fa <FshcSpiIOModeCfg+0x138>
     294:	48 00 00 a1 	j 3d6 <FshcSpiIOModeCfg+0x214>
     298:	46 14 00 07 	sethi $r1,#0x40007
     29c:	46 30 07 a7 	sethi $r3,#0x7a7
     2a0:	50 31 85 0b 	addi $r3,$r3,#0x50b
     2a4:	14 30 80 0c 	swi $r3,[$r1+#0x30]
     2a8:	44 30 a0 06 	movi $r3,#0xa006
     2ac:	14 30 80 0d 	swi $r3,[$r1+#0x34]
     2b0:	46 30 28 01 	sethi $r3,#0x2801
     2b4:	50 31 89 1f 	addi $r3,$r3,#0x91f
     2b8:	14 30 80 0e 	swi $r3,[$r1+#0x38]
     2bc:	44 30 1d df 	movi $r3,#0x1ddf
     2c0:	14 30 80 10 	swi $r3,[$r1+#0x40]
     2c4:	48 00 00 89 	j 3d6 <FshcSpiIOModeCfg+0x214>
     2c8:	46 14 00 07 	sethi $r1,#0x40007
     2cc:	46 3a 37 a7 	sethi $r3,#0xa37a7
     2d0:	50 31 85 bb 	addi $r3,$r3,#0x5bb
     2d4:	14 30 80 0c 	swi $r3,[$r1+#0x30]
     2d8:	44 30 a0 06 	movi $r3,#0xa006
     2dc:	14 30 80 0d 	swi $r3,[$r1+#0x34]
     2e0:	46 30 28 01 	sethi $r3,#0x2801
     2e4:	50 31 89 0f 	addi $r3,$r3,#0x90f
     2e8:	14 30 80 0e 	swi $r3,[$r1+#0x38]
     2ec:	46 30 00 89 	sethi $r3,#0x89
     2f0:	50 31 8d df 	addi $r3,$r3,#0xddf
     2f4:	14 30 80 10 	swi $r3,[$r1+#0x40]
     2f8:	d5 6f       	j8 3d6 <FshcSpiIOModeCfg+0x214>
     2fa:	46 14 00 07 	sethi $r1,#0x40007
     2fe:	46 3a 37 a7 	sethi $r3,#0xa37a7
     302:	50 31 85 eb 	addi $r3,$r3,#0x5eb
     306:	14 30 80 0c 	swi $r3,[$r1+#0x30]
     30a:	44 30 a0 06 	movi $r3,#0xa006
     30e:	14 30 80 0d 	swi $r3,[$r1+#0x34]
     312:	46 30 28 01 	sethi $r3,#0x2801
     316:	50 31 89 0b 	addi $r3,$r3,#0x90b
     31a:	14 30 80 0e 	swi $r3,[$r1+#0x38]
     31e:	46 30 00 cd 	sethi $r3,#0xcd
     322:	50 31 8d df 	addi $r3,$r3,#0xddf
     326:	14 30 80 10 	swi $r3,[$r1+#0x40]
     32a:	d5 56       	j8 3d6 <FshcSpiIOModeCfg+0x214>
     32c:	5a 00 01 1d 	beqc $r0,#0x1,366 <FshcSpiIOModeCfg+0x1a4>
     330:	c0 04       	beqz38 $r0,338 <FshcSpiIOModeCfg+0x176>
     332:	5a 00 02 3a 	beqc $r0,#0x2,3a6 <FshcSpiIOModeCfg+0x1e4>
     336:	d5 50       	j8 3d6 <FshcSpiIOModeCfg+0x214>
     338:	46 14 00 07 	sethi $r1,#0x40007
     33c:	46 30 07 a7 	sethi $r3,#0x7a7
     340:	50 31 85 0b 	addi $r3,$r3,#0x50b
     344:	14 30 80 0c 	swi $r3,[$r1+#0x30]
     348:	44 30 a0 06 	movi $r3,#0xa006
     34c:	14 30 80 0d 	swi $r3,[$r1+#0x34]
     350:	46 30 28 01 	sethi $r3,#0x2801
     354:	50 31 89 1f 	addi $r3,$r3,#0x91f
     358:	14 30 80 0e 	swi $r3,[$r1+#0x38]
     35c:	44 30 1d df 	movi $r3,#0x1ddf
     360:	14 30 80 10 	swi $r3,[$r1+#0x40]
     364:	d5 39       	j8 3d6 <FshcSpiIOModeCfg+0x214>
     366:	46 14 00 07 	sethi $r1,#0x40007
     36a:	46 30 07 a7 	sethi $r3,#0x7a7
     36e:	50 31 85 bb 	addi $r3,$r3,#0x5bb
     372:	14 30 80 0c 	swi $r3,[$r1+#0x30]
     376:	44 30 a0 06 	movi $r3,#0xa006
     37a:	14 30 80 0d 	swi $r3,[$r1+#0x34]
     37e:	46 30 28 01 	sethi $r3,#0x2801
     382:	50 31 89 0f 	addi $r3,$r3,#0x90f
     386:	14 30 80 0e 	swi $r3,[$r1+#0x38]
     38a:	46 30 00 89 	sethi $r3,#0x89
     38e:	50 31 8d df 	addi $r3,$r3,#0xddf
     392:	14 30 80 10 	swi $r3,[$r1+#0x40]
     396:	04 40 80 10 	lwi $r4,[$r1+#0x40]
     39a:	46 30 0f 00 	sethi $r3,#0xf00
     39e:	fe e7       	or33 $r3,$r4
     3a0:	14 30 80 10 	swi $r3,[$r1+#0x40]
     3a4:	d5 19       	j8 3d6 <FshcSpiIOModeCfg+0x214>
     3a6:	46 14 00 07 	sethi $r1,#0x40007
     3aa:	46 30 07 a7 	sethi $r3,#0x7a7
     3ae:	50 31 85 eb 	addi $r3,$r3,#0x5eb
     3b2:	14 30 80 0c 	swi $r3,[$r1+#0x30]
     3b6:	44 30 a0 06 	movi $r3,#0xa006
     3ba:	14 30 80 0d 	swi $r3,[$r1+#0x34]
     3be:	46 30 28 01 	sethi $r3,#0x2801
     3c2:	50 31 89 0b 	addi $r3,$r3,#0x90b
     3c6:	14 30 80 0e 	swi $r3,[$r1+#0x38]
     3ca:	46 30 00 cd 	sethi $r3,#0xcd
     3ce:	50 31 8d df 	addi $r3,$r3,#0xddf
     3d2:	14 30 80 10 	swi $r3,[$r1+#0x40]
     3d6:	44 30 00 a0 	movi $r3,#0xa0
     3da:	46 14 00 07 	sethi $r1,#0x40007
     3de:	14 30 80 14 	swi $r3,[$r1+#0x50]
     3e2:	c2 02       	beqz38 $r2,3e6 <FshcSpiIOModeCfg+0x224>
     3e4:	c8 07       	bnez38 $r0,3f2 <FshcSpiIOModeCfg+0x230>
     3e6:	44 10 ff 06 	movi $r1,#0xff06
     3ea:	46 04 00 07 	sethi $r0,#0x40007
     3ee:	14 10 00 0d 	swi $r1,[$r0+#0x34]
     3f2:	dd 9e       	ret5 $lp

000003f4 <SpiFlashResetCRM>:
     3f4:	2e 00 00 4c 	lbi.gp $r0,[+#0x4c]
     3f8:	96 00       	zeb33 $r0,$r0
     3fa:	5a 00 bf 1f 	beqc $r0,#0xbf,438 <SpiFlashResetCRM+0x44>
     3fe:	3b ff fc bc 	smw.adm $sp,[$sp],$sp,#0x2    ! {$lp}
     402:	ef fc       	addi10.sp #-4
     404:	44 00 00 ff 	movi $r0,#0xff
     408:	84 27       	movi55 $r1,#0x7
     40a:	84 40       	movi55 $r2,#0x0
     40c:	44 30 07 00 	movi $r3,#0x700
     410:	84 80       	movi55 $r4,#0x0
     412:	49 ff fe be 	jal 18e <FshcSendCmd>
     416:	44 10 00 ff 	movi $r1,#0xff
     41a:	46 04 00 07 	sethi $r0,#0x40007
     41e:	a8 41       	swi333 $r1,[$r0+#0x4]
     420:	44 00 00 ff 	movi $r0,#0xff
     424:	84 27       	movi55 $r1,#0x7
     426:	84 40       	movi55 $r2,#0x0
     428:	44 30 05 00 	movi $r3,#0x500
     42c:	84 80       	movi55 $r4,#0x0
     42e:	49 ff fe b0 	jal 18e <FshcSendCmd>
     432:	ec 04       	addi10.sp #0x4
     434:	3b ff fc 84 	lmw.bim $sp,[$sp],$sp,#0x2    ! {$lp}
     438:	dd 9e       	ret5 $lp
	...

0000043c <SpiFlashHpmModeSet>:
     43c:	3b ff fc bc 	smw.adm $sp,[$sp],$sp,#0x2    ! {$lp}
     440:	ef fc       	addi10.sp #-4
     442:	2e 10 00 4c 	lbi.gp $r1,[+#0x4c]
     446:	96 48       	zeb33 $r1,$r1
     448:	5a 10 c8 0e 	beqc $r1,#0xc8,464 <SpiFlashHpmModeSet+0x28>
     44c:	84 41       	movi55 $r2,#0x1
     44e:	46 14 00 07 	sethi $r1,#0x40007
     452:	14 20 80 11 	swi $r2,[$r1+#0x44]
     456:	5a 00 02 04 	beqc $r0,#0x2,45e <SpiFlashHpmModeSet+0x22>
     45a:	84 00       	movi55 $r0,#0x0
     45c:	d5 5a       	j8 510 <SpiFlashHpmModeSet+0xd4>
     45e:	44 0f ff ea 	movi $r0,#-22
     462:	d5 57       	j8 510 <SpiFlashHpmModeSet+0xd4>
     464:	e6 04       	slti45 $r0,#0x4
     466:	e8 51       	beqzs8 508 <SpiFlashHpmModeSet+0xcc>
     468:	44 f0 04 74 	movi $r15,#0x474
     46c:	38 07 82 02 	lw $r0,[$r15+($r0<<#0x2)]
     470:	4a 00 00 00 	jr $r0
     474:	84 04 00 00 	.word	0x00000484
     478:	a4 04 00 00 	.word	0x000004a4
     47c:	c4 04 00 00 	.word	0x000004c4
     480:	e4 04 00 00 	.word	0x000004e4
     484:	84 20       	movi55 $r1,#0x0
     486:	46 04 00 07 	sethi $r0,#0x40007
     48a:	14 10 00 11 	swi $r1,[$r0+#0x44]
     48e:	44 00 00 a3 	movi $r0,#0xa3
     492:	fa 2f       	movpi45 $r1,#0x1f
     494:	84 40       	movi55 $r2,#0x0
     496:	44 30 07 00 	movi $r3,#0x700
     49a:	84 80       	movi55 $r4,#0x0
     49c:	49 ff fe 79 	jal 18e <FshcSendCmd>
     4a0:	84 00       	movi55 $r0,#0x0
     4a2:	d5 37       	j8 510 <SpiFlashHpmModeSet+0xd4>
     4a4:	46 04 00 07 	sethi $r0,#0x40007
     4a8:	04 00 00 11 	lwi $r0,[$r0+#0x44]
     4ac:	c8 31       	bnez38 $r0,50e <SpiFlashHpmModeSet+0xd2>
     4ae:	44 00 00 a3 	movi $r0,#0xa3
     4b2:	fa 2f       	movpi45 $r1,#0x1f
     4b4:	84 40       	movi55 $r2,#0x0
     4b6:	44 30 07 00 	movi $r3,#0x700
     4ba:	84 80       	movi55 $r4,#0x0
     4bc:	49 ff fe 69 	jal 18e <FshcSendCmd>
     4c0:	84 00       	movi55 $r0,#0x0
     4c2:	d5 27       	j8 510 <SpiFlashHpmModeSet+0xd4>
     4c4:	44 00 00 a3 	movi $r0,#0xa3
     4c8:	fa 2f       	movpi45 $r1,#0x1f
     4ca:	84 40       	movi55 $r2,#0x0
     4cc:	44 30 07 00 	movi $r3,#0x700
     4d0:	84 80       	movi55 $r4,#0x0
     4d2:	49 ff fe 5e 	jal 18e <FshcSendCmd>
     4d6:	84 20       	movi55 $r1,#0x0
     4d8:	46 04 00 07 	sethi $r0,#0x40007
     4dc:	14 10 00 11 	swi $r1,[$r0+#0x44]
     4e0:	84 00       	movi55 $r0,#0x0
     4e2:	d5 17       	j8 510 <SpiFlashHpmModeSet+0xd4>
     4e4:	44 00 00 ab 	movi $r0,#0xab
     4e8:	fa 2f       	movpi45 $r1,#0x1f
     4ea:	84 40       	movi55 $r2,#0x0
     4ec:	44 30 07 00 	movi $r3,#0x700
     4f0:	84 80       	movi55 $r4,#0x0
     4f2:	49 ff fe 4e 	jal 18e <FshcSendCmd>
     4f6:	46 04 00 07 	sethi $r0,#0x40007
     4fa:	84 21       	movi55 $r1,#0x1
     4fc:	14 10 00 11 	swi $r1,[$r0+#0x44]
     500:	14 10 00 13 	swi $r1,[$r0+#0x4c]
     504:	84 00       	movi55 $r0,#0x0
     506:	d5 05       	j8 510 <SpiFlashHpmModeSet+0xd4>
     508:	44 0f ff a8 	movi $r0,#-88
     50c:	d5 02       	j8 510 <SpiFlashHpmModeSet+0xd4>
     50e:	84 00       	movi55 $r0,#0x0
     510:	ec 04       	addi10.sp #0x4
     512:	3b ff fc 84 	lmw.bim $sp,[$sp],$sp,#0x2    ! {$lp}
     516:	dd 9e       	ret5 $lp

00000518 <SpiFlashReadId>:
     518:	3b ff fc bc 	smw.adm $sp,[$sp],$sp,#0x2    ! {$lp}
     51c:	ef fc       	addi10.sp #-4
     51e:	46 04 00 07 	sethi $r0,#0x40007
     522:	04 00 00 15 	lwi $r0,[$r0+#0x54]
     526:	96 04       	xlsb33 $r0,$r0
     528:	c0 03       	beqz38 $r0,52e <SpiFlashReadId+0x16>
     52a:	49 ff ff 65 	jal 3f4 <SpiFlashResetCRM>
     52e:	84 21       	movi55 $r1,#0x1
     530:	46 04 00 07 	sethi $r0,#0x40007
     534:	14 10 00 0a 	swi $r1,[$r0+#0x28]
     538:	44 00 00 9f 	movi $r0,#0x9f
     53c:	84 27       	movi55 $r1,#0x7
     53e:	84 40       	movi55 $r2,#0x0
     540:	44 30 06 00 	movi $r3,#0x600
     544:	84 82       	movi55 $r4,#0x2
     546:	49 ff fe 24 	jal 18e <FshcSendCmd>
     54a:	46 04 00 07 	sethi $r0,#0x40007
     54e:	04 00 00 09 	lwi $r0,[$r0+#0x24]
     552:	96 04       	xlsb33 $r0,$r0
     554:	c8 fb       	bnez38 $r0,54a <SpiFlashReadId+0x32>
     556:	46 24 00 07 	sethi $r2,#0x40007
     55a:	b4 02       	lwi450 $r0,[$r2]
     55c:	84 60       	movi55 $r3,#0x0
     55e:	46 14 00 30 	sethi $r1,#0x40030
     562:	b6 61       	swi450 $r3,[$r1]
     564:	96 40       	zeb33 $r1,$r0
     566:	3e 10 00 4c 	sbi.gp $r1,[+#0x4c]
     56a:	92 08       	srli45 $r0,#0x8
     56c:	96 01       	zeh33 $r0,$r0
     56e:	3e 18 00 4d 	addi.gp $r1,#0x4d
     572:	97 00       	zeb33 $r4,$r0
     574:	a7 48       	lbi333 $r5,[$r1+#0x0]
     576:	af 08       	sbi333 $r4,[$r1+#0x0]
     578:	92 08       	srli45 $r0,#0x8
     57a:	a7 09       	lbi333 $r4,[$r1+#0x1]
     57c:	ae 09       	sbi333 $r0,[$r1+#0x1]
     57e:	14 31 00 0a 	swi $r3,[$r2+#0x28]
     582:	84 00       	movi55 $r0,#0x0
     584:	d5 45       	j8 60e <SpiFlashReadId+0xf6>
     586:	2e 10 00 4c 	lbi.gp $r1,[+#0x4c]
     58a:	fa 42       	movpi45 $r2,#0x12
     58c:	fe 84       	mul33 $r2,$r0
     58e:	44 30 18 c8 	movi $r3,#0x18c8
     592:	38 21 88 00 	lb $r2,[$r3+($r2<<#0x0)]
     596:	97 48       	zeb33 $r5,$r1
     598:	da 3a       	bnes38 $r2,60c <SpiFlashReadId+0xf4>
     59a:	3c 3c 00 13 	lwi.gp $r3,[+#0x4c]
     59e:	92 68       	srli45 $r3,#0x8
     5a0:	97 59       	zeh33 $r5,$r3
     5a2:	44 20 18 c8 	movi $r2,#0x18c8
     5a6:	fa 22       	movpi45 $r1,#0x12
     5a8:	fe 44       	mul33 $r1,$r0
     5aa:	99 11       	add333 $r4,$r2,$r1
     5ac:	38 11 04 01 	lh $r1,[$r2+($r1<<#0x0)]
     5b0:	40 20 a0 09 	srli $r2,$r1,#0x8
     5b4:	a4 61       	lhi333 $r1,[$r4+#0x2]
     5b6:	96 48       	zeb33 $r1,$r1
     5b8:	40 10 a0 08 	slli $r1,$r1,#0x8
     5bc:	fe 57       	or33 $r1,$r2
     5be:	d9 27       	bnes38 $r1,60c <SpiFlashReadId+0xf4>
     5c0:	a4 e4       	lhi333 $r3,[$r4+#0x8]
     5c2:	a4 25       	lhi333 $r0,[$r4+#0xa]
     5c4:	40 00 40 08 	slli $r0,$r0,#0x10
     5c8:	fe c7       	or33 $r3,$r0
     5ca:	3e 08 00 4c 	addi.gp $r0,#0x4c
     5ce:	a8 c2       	swi333 $r3,[$r0+#0x8]
     5d0:	a6 e7       	lbi333 $r3,[$r4+#0x7]
     5d2:	96 d8       	zeb33 $r3,$r3
     5d4:	ae c7       	sbi333 $r3,[$r0+#0x7]
     5d6:	00 32 00 0c 	lbi $r3,[$r4+#0xc]
     5da:	96 d8       	zeb33 $r3,$r3
     5dc:	10 30 00 0c 	sbi $r3,[$r0+#0xc]
     5e0:	00 32 00 0d 	lbi $r3,[$r4+#0xd]
     5e4:	96 d8       	zeb33 $r3,$r3
     5e6:	10 30 00 0d 	sbi $r3,[$r0+#0xd]
     5ea:	00 32 00 0e 	lbi $r3,[$r4+#0xe]
     5ee:	96 d8       	zeb33 $r3,$r3
     5f0:	10 30 00 0e 	sbi $r3,[$r0+#0xe]
     5f4:	00 22 00 0f 	lbi $r2,[$r4+#0xf]
     5f8:	96 90       	zeb33 $r2,$r2
     5fa:	10 20 00 0f 	sbi $r2,[$r0+#0xf]
     5fe:	00 12 00 10 	lbi $r1,[$r4+#0x10]
     602:	96 48       	zeb33 $r1,$r1
     604:	10 10 00 10 	sbi $r1,[$r0+#0x10]
     608:	84 00       	movi55 $r0,#0x0
     60a:	d5 09       	j8 61c <SpiFlashReadId+0x104>
     60c:	8c 01       	addi45 $r0,#0x1
     60e:	e6 19       	slti45 $r0,#0x19
     610:	e9 bb       	bnezs8 586 <SpiFlashReadId+0x6e>
     612:	84 1f       	movi55 $r0,#-1
     614:	3e 00 00 4c 	sbi.gp $r0,[+#0x4c]
     618:	44 0f ff 02 	movi $r0,#-254
     61c:	ec 04       	addi10.sp #0x4
     61e:	3b ff fc 84 	lmw.bim $sp,[$sp],$sp,#0x2    ! {$lp}
     622:	dd 9e       	ret5 $lp

00000624 <SpiFlashReadStatus>:
     624:	3a 6f a0 bc 	smw.adm $r6,[$sp],$r8,#0x2    ! {$r6~$r8, $lp}
     628:	46 04 00 07 	sethi $r0,#0x40007
     62c:	04 00 00 15 	lwi $r0,[$r0+#0x54]
     630:	96 04       	xlsb33 $r0,$r0
     632:	c0 03       	beqz38 $r0,638 <SpiFlashReadStatus+0x14>
     634:	49 ff fe e0 	jal 3f4 <SpiFlashResetCRM>
     638:	84 21       	movi55 $r1,#0x1
     63a:	46 04 00 07 	sethi $r0,#0x40007
     63e:	14 10 00 0a 	swi $r1,[$r0+#0x28]
     642:	2e 00 00 4c 	lbi.gp $r0,[+#0x4c]
     646:	96 00       	zeb33 $r0,$r0
     648:	5a 00 8c 10 	beqc $r0,#0x8c,668 <SpiFlashReadStatus+0x44>
     64c:	5c f0 00 8d 	slti $r15,$r0,#0x8d
     650:	e8 06       	beqzs8 65c <SpiFlashReadStatus+0x38>
     652:	5a 00 1c 0b 	beqc $r0,#0x1c,668 <SpiFlashReadStatus+0x44>
     656:	5a 08 51 07 	bnec $r0,#0x51,664 <SpiFlashReadStatus+0x40>
     65a:	d5 07       	j8 668 <SpiFlashReadStatus+0x44>
     65c:	5a 00 bf 06 	beqc $r0,#0xbf,668 <SpiFlashReadStatus+0x44>
     660:	5a 00 c2 04 	beqc $r0,#0xc2,668 <SpiFlashReadStatus+0x44>
     664:	84 e0       	movi55 $r7,#0x0
     666:	d5 02       	j8 66a <SpiFlashReadStatus+0x46>
     668:	84 e1       	movi55 $r7,#0x1
     66a:	84 05       	movi55 $r0,#0x5
     66c:	84 27       	movi55 $r1,#0x7
     66e:	84 40       	movi55 $r2,#0x0
     670:	44 30 06 00 	movi $r3,#0x600
     674:	84 80       	movi55 $r4,#0x0
     676:	49 ff fd 8c 	jal 18e <FshcSendCmd>
     67a:	46 04 00 07 	sethi $r0,#0x40007
     67e:	04 00 00 09 	lwi $r0,[$r0+#0x24]
     682:	96 04       	xlsb33 $r0,$r0
     684:	c8 fb       	bnez38 $r0,67a <SpiFlashReadStatus+0x56>
     686:	46 04 00 07 	sethi $r0,#0x40007
     68a:	b4 c0       	lwi450 $r6,[$r0]
     68c:	84 20       	movi55 $r1,#0x0
     68e:	46 04 00 30 	sethi $r0,#0x40030
     692:	b6 20       	swi450 $r1,[$r0]
     694:	cf 1a       	bnez38 $r7,6c8 <SpiFlashReadStatus+0xa4>
     696:	44 00 00 35 	movi $r0,#0x35
     69a:	84 27       	movi55 $r1,#0x7
     69c:	84 40       	movi55 $r2,#0x0
     69e:	44 30 06 00 	movi $r3,#0x600
     6a2:	84 80       	movi55 $r4,#0x0
     6a4:	49 ff fd 75 	jal 18e <FshcSendCmd>
     6a8:	46 14 00 07 	sethi $r1,#0x40007
     6ac:	04 10 80 09 	lwi $r1,[$r1+#0x24]
     6b0:	96 4c       	xlsb33 $r1,$r1
     6b2:	c9 fb       	bnez38 $r1,6a8 <SpiFlashReadStatus+0x84>
     6b4:	46 04 00 07 	sethi $r0,#0x40007
     6b8:	b4 00       	lwi450 $r0,[$r0]
     6ba:	84 40       	movi55 $r2,#0x0
     6bc:	46 14 00 30 	sethi $r1,#0x40030
     6c0:	b6 41       	swi450 $r2,[$r1]
     6c2:	40 00 20 08 	slli $r0,$r0,#0x8
     6c6:	ff 87       	or33 $r6,$r0
     6c8:	84 20       	movi55 $r1,#0x0
     6ca:	46 04 00 07 	sethi $r0,#0x40007
     6ce:	14 10 00 0a 	swi $r1,[$r0+#0x28]
     6d2:	80 06       	mov55 $r0,$r6
     6d4:	3a 6f a0 84 	lmw.bim $r6,[$sp],$r8,#0x2    ! {$r6~$r8, $lp}
     6d8:	dd 9e       	ret5 $lp

000006da <SpiFlashIsBusy>:
     6da:	3b ff fc bc 	smw.adm $sp,[$sp],$sp,#0x2    ! {$lp}
     6de:	ef fc       	addi10.sp #-4
     6e0:	49 ff ff a2 	jal 624 <SpiFlashReadStatus>
     6e4:	2e 10 00 4c 	lbi.gp $r1,[+#0x4c]
     6e8:	96 48       	zeb33 $r1,$r1
     6ea:	5a 18 bf 05 	bnec $r1,#0xbf,6f4 <SpiFlashIsBusy+0x1a>
     6ee:	96 3e       	bmski33 $r0,#0x7
     6f0:	c8 05       	bnez38 $r0,6fa <SpiFlashIsBusy+0x20>
     6f2:	d5 07       	j8 700 <SpiFlashIsBusy+0x26>
     6f4:	96 04       	xlsb33 $r0,$r0
     6f6:	c8 04       	bnez38 $r0,6fe <SpiFlashIsBusy+0x24>
     6f8:	d5 04       	j8 700 <SpiFlashIsBusy+0x26>
     6fa:	84 01       	movi55 $r0,#0x1
     6fc:	d5 02       	j8 700 <SpiFlashIsBusy+0x26>
     6fe:	84 01       	movi55 $r0,#0x1
     700:	ec 04       	addi10.sp #0x4
     702:	3b ff fc 84 	lmw.bim $sp,[$sp],$sp,#0x2    ! {$lp}
     706:	dd 9e       	ret5 $lp

00000708 <SpiFlashWriteStatus>:
     708:	3a 6f a0 bc 	smw.adm $r6,[$sp],$r8,#0x2    ! {$r6~$r8, $lp}
     70c:	80 c0       	mov55 $r6,$r0
     70e:	46 04 00 07 	sethi $r0,#0x40007
     712:	04 10 00 15 	lwi $r1,[$r0+#0x54]
     716:	96 4c       	xlsb33 $r1,$r1
     718:	c1 03       	beqz38 $r1,71e <SpiFlashWriteStatus+0x16>
     71a:	49 ff fe 6d 	jal 3f4 <SpiFlashResetCRM>
     71e:	2e 10 00 4c 	lbi.gp $r1,[+#0x4c]
     722:	96 48       	zeb33 $r1,$r1
     724:	5a 10 51 0e 	beqc $r1,#0x51,740 <SpiFlashWriteStatus+0x38>
     728:	5c f0 80 52 	slti $r15,$r1,#0x52
     72c:	e8 04       	beqzs8 734 <SpiFlashWriteStatus+0x2c>
     72e:	5a 18 1c 07 	bnec $r1,#0x1c,73c <SpiFlashWriteStatus+0x34>
     732:	d5 07       	j8 740 <SpiFlashWriteStatus+0x38>
     734:	5a 10 8c 06 	beqc $r1,#0x8c,740 <SpiFlashWriteStatus+0x38>
     738:	5a 10 c2 04 	beqc $r1,#0xc2,740 <SpiFlashWriteStatus+0x38>
     73c:	84 e1       	movi55 $r7,#0x1
     73e:	d5 02       	j8 742 <SpiFlashWriteStatus+0x3a>
     740:	84 e0       	movi55 $r7,#0x0
     742:	2e 10 00 4c 	lbi.gp $r1,[+#0x4c]
     746:	96 48       	zeb33 $r1,$r1
     748:	5a 10 c8 07 	beqc $r1,#0xc8,756 <SpiFlashWriteStatus+0x4e>
     74c:	2e 10 00 4c 	lbi.gp $r1,[+#0x4c]
     750:	96 48       	zeb33 $r1,$r1
     752:	5a 18 a1 70 	bnec $r1,#0xa1,832 <SpiFlashWriteStatus+0x12a>
     756:	46 04 00 07 	sethi $r0,#0x40007
     75a:	a9 81       	swi333 $r6,[$r0+#0x4]
     75c:	84 06       	movi55 $r0,#0x6
     75e:	84 27       	movi55 $r1,#0x7
     760:	84 40       	movi55 $r2,#0x0
     762:	44 30 07 00 	movi $r3,#0x700
     766:	84 80       	movi55 $r4,#0x0
     768:	49 ff fd 13 	jal 18e <FshcSendCmd>
     76c:	84 01       	movi55 $r0,#0x1
     76e:	84 27       	movi55 $r1,#0x7
     770:	84 40       	movi55 $r2,#0x0
     772:	44 30 05 00 	movi $r3,#0x500
     776:	84 80       	movi55 $r4,#0x0
     778:	49 ff fd 0b 	jal 18e <FshcSendCmd>
     77c:	84 01       	movi55 $r0,#0x1
     77e:	49 ff fc fb 	jal 174 <FshcFlashBusyStatusSet>
     782:	49 ff ff ac 	jal 6da <SpiFlashIsBusy>
     786:	c8 fe       	bnez38 $r0,782 <SpiFlashWriteStatus+0x7a>
     788:	49 ff fc f6 	jal 174 <FshcFlashBusyStatusSet>
     78c:	84 04       	movi55 $r0,#0x4
     78e:	84 27       	movi55 $r1,#0x7
     790:	84 40       	movi55 $r2,#0x0
     792:	44 30 07 00 	movi $r3,#0x700
     796:	84 80       	movi55 $r4,#0x0
     798:	49 ff fc fb 	jal 18e <FshcSendCmd>
     79c:	40 03 20 09 	srli $r0,$r6,#0x8
     7a0:	46 14 00 07 	sethi $r1,#0x40007
     7a4:	a8 09       	swi333 $r0,[$r1+#0x4]
     7a6:	84 06       	movi55 $r0,#0x6
     7a8:	84 27       	movi55 $r1,#0x7
     7aa:	84 40       	movi55 $r2,#0x0
     7ac:	44 30 07 00 	movi $r3,#0x700
     7b0:	84 80       	movi55 $r4,#0x0
     7b2:	49 ff fc ee 	jal 18e <FshcSendCmd>
     7b6:	44 00 00 31 	movi $r0,#0x31
     7ba:	84 27       	movi55 $r1,#0x7
     7bc:	84 40       	movi55 $r2,#0x0
     7be:	44 30 05 00 	movi $r3,#0x500
     7c2:	84 80       	movi55 $r4,#0x0
     7c4:	49 ff fc e5 	jal 18e <FshcSendCmd>
     7c8:	84 01       	movi55 $r0,#0x1
     7ca:	49 ff fc d5 	jal 174 <FshcFlashBusyStatusSet>
     7ce:	49 ff ff 86 	jal 6da <SpiFlashIsBusy>
     7d2:	c8 fe       	bnez38 $r0,7ce <SpiFlashWriteStatus+0xc6>
     7d4:	49 ff fc d0 	jal 174 <FshcFlashBusyStatusSet>
     7d8:	84 04       	movi55 $r0,#0x4
     7da:	84 27       	movi55 $r1,#0x7
     7dc:	84 40       	movi55 $r2,#0x0
     7de:	44 30 07 00 	movi $r3,#0x700
     7e2:	84 80       	movi55 $r4,#0x0
     7e4:	49 ff fc d5 	jal 18e <FshcSendCmd>
     7e8:	40 03 40 09 	srli $r0,$r6,#0x10
     7ec:	46 14 00 07 	sethi $r1,#0x40007
     7f0:	a8 09       	swi333 $r0,[$r1+#0x4]
     7f2:	84 06       	movi55 $r0,#0x6
     7f4:	84 27       	movi55 $r1,#0x7
     7f6:	84 40       	movi55 $r2,#0x0
     7f8:	44 30 07 00 	movi $r3,#0x700
     7fc:	84 80       	movi55 $r4,#0x0
     7fe:	49 ff fc c8 	jal 18e <FshcSendCmd>
     802:	fa 01       	movpi45 $r0,#0x11
     804:	84 27       	movi55 $r1,#0x7
     806:	84 40       	movi55 $r2,#0x0
     808:	44 30 05 00 	movi $r3,#0x500
     80c:	84 80       	movi55 $r4,#0x0
     80e:	49 ff fc c0 	jal 18e <FshcSendCmd>
     812:	84 01       	movi55 $r0,#0x1
     814:	49 ff fc b0 	jal 174 <FshcFlashBusyStatusSet>
     818:	49 ff ff 61 	jal 6da <SpiFlashIsBusy>
     81c:	c8 fe       	bnez38 $r0,818 <SpiFlashWriteStatus+0x110>
     81e:	49 ff fc ab 	jal 174 <FshcFlashBusyStatusSet>
     822:	84 04       	movi55 $r0,#0x4
     824:	84 27       	movi55 $r1,#0x7
     826:	84 40       	movi55 $r2,#0x0
     828:	44 30 07 00 	movi $r3,#0x700
     82c:	84 80       	movi55 $r4,#0x0
     82e:	49 ff fc b0 	jal 18e <FshcSendCmd>
     832:	46 04 00 07 	sethi $r0,#0x40007
     836:	a9 81       	swi333 $r6,[$r0+#0x4]
     838:	84 06       	movi55 $r0,#0x6
     83a:	84 27       	movi55 $r1,#0x7
     83c:	84 40       	movi55 $r2,#0x0
     83e:	44 30 07 00 	movi $r3,#0x700
     842:	84 80       	movi55 $r4,#0x0
     844:	49 ff fc a5 	jal 18e <FshcSendCmd>
     848:	84 01       	movi55 $r0,#0x1
     84a:	84 27       	movi55 $r1,#0x7
     84c:	84 40       	movi55 $r2,#0x0
     84e:	44 30 05 00 	movi $r3,#0x500
     852:	80 87       	mov55 $r4,$r7
     854:	49 ff fc 9d 	jal 18e <FshcSendCmd>
     858:	46 04 00 07 	sethi $r0,#0x40007
     85c:	04 00 00 0b 	lwi $r0,[$r0+#0x2c]
     860:	c8 fc       	bnez38 $r0,858 <SpiFlashWriteStatus+0x150>
     862:	84 01       	movi55 $r0,#0x1
     864:	49 ff fc 88 	jal 174 <FshcFlashBusyStatusSet>
     868:	49 ff ff 39 	jal 6da <SpiFlashIsBusy>
     86c:	c8 fe       	bnez38 $r0,868 <SpiFlashWriteStatus+0x160>
     86e:	49 ff fc 83 	jal 174 <FshcFlashBusyStatusSet>
     872:	2e 00 00 4c 	lbi.gp $r0,[+#0x4c]
     876:	96 00       	zeb33 $r0,$r0
     878:	5a 08 c8 0a 	bnec $r0,#0xc8,88c <SpiFlashWriteStatus+0x184>
     87c:	84 04       	movi55 $r0,#0x4
     87e:	84 27       	movi55 $r1,#0x7
     880:	84 40       	movi55 $r2,#0x0
     882:	44 30 07 00 	movi $r3,#0x700
     886:	84 80       	movi55 $r4,#0x0
     888:	49 ff fc 83 	jal 18e <FshcSendCmd>
     88c:	3a 6f a0 84 	lmw.bim $r6,[$sp],$r8,#0x2    ! {$r6~$r8, $lp}
     890:	dd 9e       	ret5 $lp

00000892 <SpiFlashIOModeCfg>:
     892:	3a 6f 98 bc 	smw.adm $r6,[$sp],$r6,#0x2    ! {$r6, $lp}
     896:	80 c0       	mov55 $r6,$r0
     898:	49 ff fe c6 	jal 624 <SpiFlashReadStatus>
     89c:	66 50 01 80 	bitci $r5,$r0,#0x180
     8a0:	5a 68 02 04 	bnec $r6,#0x2,8a8 <SpiFlashIOModeCfg+0x16>
     8a4:	84 61       	movi55 $r3,#0x1
     8a6:	d5 02       	j8 8aa <SpiFlashIOModeCfg+0x18>
     8a8:	84 60       	movi55 $r3,#0x0
     8aa:	2e 10 00 4c 	lbi.gp $r1,[+#0x4c]
     8ae:	96 48       	zeb33 $r1,$r1
     8b0:	5a 10 a1 24 	beqc $r1,#0xa1,8f8 <SpiFlashIOModeCfg+0x66>
     8b4:	5c f0 80 a2 	slti $r15,$r1,#0xa2
     8b8:	e8 0e       	beqzs8 8d4 <SpiFlashIOModeCfg+0x42>
     8ba:	5a 10 51 1c 	beqc $r1,#0x51,8f2 <SpiFlashIOModeCfg+0x60>
     8be:	5c f0 80 52 	slti $r15,$r1,#0x52
     8c2:	e8 04       	beqzs8 8ca <SpiFlashIOModeCfg+0x38>
     8c4:	5a 18 0e 4f 	bnec $r1,#0xe,962 <SpiFlashIOModeCfg+0xd0>
     8c8:	d5 18       	j8 8f8 <SpiFlashIOModeCfg+0x66>
     8ca:	5a 10 85 17 	beqc $r1,#0x85,8f8 <SpiFlashIOModeCfg+0x66>
     8ce:	5a 18 8c 4a 	bnec $r1,#0x8c,962 <SpiFlashIOModeCfg+0xd0>
     8d2:	d5 13       	j8 8f8 <SpiFlashIOModeCfg+0x66>
     8d4:	5a 10 c8 12 	beqc $r1,#0xc8,8f8 <SpiFlashIOModeCfg+0x66>
     8d8:	5c f0 80 c9 	slti $r15,$r1,#0xc9
     8dc:	e8 06       	beqzs8 8e8 <SpiFlashIOModeCfg+0x56>
     8de:	5a 10 bf 2d 	beqc $r1,#0xbf,938 <SpiFlashIOModeCfg+0xa6>
     8e2:	5a 18 c2 40 	bnec $r1,#0xc2,962 <SpiFlashIOModeCfg+0xd0>
     8e6:	d5 09       	j8 8f8 <SpiFlashIOModeCfg+0x66>
     8e8:	5a 10 e0 08 	beqc $r1,#0xe0,8f8 <SpiFlashIOModeCfg+0x66>
     8ec:	5a 18 ef 3b 	bnec $r1,#0xef,962 <SpiFlashIOModeCfg+0xd0>
     8f0:	d5 04       	j8 8f8 <SpiFlashIOModeCfg+0x66>
     8f2:	5a 68 02 38 	bnec $r6,#0x2,962 <SpiFlashIOModeCfg+0xd0>
     8f6:	d5 35       	j8 960 <SpiFlashIOModeCfg+0xce>
     8f8:	2e 10 00 4c 	lbi.gp $r1,[+#0x4c]
     8fc:	96 48       	zeb33 $r1,$r1
     8fe:	5a 10 c2 07 	beqc $r1,#0xc2,90c <SpiFlashIOModeCfg+0x7a>
     902:	2e 10 00 4c 	lbi.gp $r1,[+#0x4c]
     906:	96 48       	zeb33 $r1,$r1
     908:	5a 18 8c 0c 	bnec $r1,#0x8c,920 <SpiFlashIOModeCfg+0x8e>
     90c:	5a 38 01 06 	bnec $r3,#0x1,918 <SpiFlashIOModeCfg+0x86>
     910:	58 02 80 40 	ori $r0,$r5,#0x40
     914:	d8 0f       	bnes38 $r0,932 <SpiFlashIOModeCfg+0xa0>
     916:	d5 26       	j8 962 <SpiFlashIOModeCfg+0xd0>
     918:	66 00 01 c0 	bitci $r0,$r0,#0x1c0
     91c:	d8 0b       	bnes38 $r0,932 <SpiFlashIOModeCfg+0xa0>
     91e:	d5 22       	j8 962 <SpiFlashIOModeCfg+0xd0>
     920:	5a 38 01 06 	bnec $r3,#0x1,92c <SpiFlashIOModeCfg+0x9a>
     924:	58 02 82 00 	ori $r0,$r5,#0x200
     928:	d8 05       	bnes38 $r0,932 <SpiFlashIOModeCfg+0xa0>
     92a:	d5 1c       	j8 962 <SpiFlashIOModeCfg+0xd0>
     92c:	66 00 03 80 	bitci $r0,$r0,#0x380
     930:	d0 19       	beqs38 $r0,962 <SpiFlashIOModeCfg+0xd0>
     932:	49 ff fe eb 	jal 708 <SpiFlashWriteStatus>
     936:	d5 16       	j8 962 <SpiFlashIOModeCfg+0xd0>
     938:	84 80       	movi55 $r4,#0x0
     93a:	84 40       	movi55 $r2,#0x0
     93c:	5a 38 01 0a 	bnec $r3,#0x1,950 <SpiFlashIOModeCfg+0xbe>
     940:	44 00 00 38 	movi $r0,#0x38
     944:	84 27       	movi55 $r1,#0x7
     946:	44 30 07 00 	movi $r3,#0x700
     94a:	49 ff fc 22 	jal 18e <FshcSendCmd>
     94e:	d5 0a       	j8 962 <SpiFlashIOModeCfg+0xd0>
     950:	44 00 00 ff 	movi $r0,#0xff
     954:	84 21       	movi55 $r1,#0x1
     956:	44 30 00 30 	movi $r3,#0x30
     95a:	49 ff fc 1a 	jal 18e <FshcSendCmd>
     95e:	d5 02       	j8 962 <SpiFlashIOModeCfg+0xd0>
     960:	84 c1       	movi55 $r6,#0x1
     962:	3e 08 00 4f 	addi.gp $r0,#0x4f
     966:	3a 60 18 20 	smw.bi $r6,[$r0],$r6,#0x0    ! {$r6}
     96a:	84 00       	movi55 $r0,#0x0
     96c:	3a 6f 98 84 	lmw.bim $r6,[$sp],$r6,#0x2    ! {$r6, $lp}
     970:	dd 9e       	ret5 $lp

00000972 <SpiFlashDeepPowerDown>:
     972:	3b ff fc bc 	smw.adm $sp,[$sp],$sp,#0x2    ! {$lp}
     976:	ef fc       	addi10.sp #-4
     978:	46 04 00 07 	sethi $r0,#0x40007
     97c:	04 00 00 15 	lwi $r0,[$r0+#0x54]
     980:	96 04       	xlsb33 $r0,$r0
     982:	c0 03       	beqz38 $r0,988 <SpiFlashDeepPowerDown+0x16>
     984:	49 ff fd 38 	jal 3f4 <SpiFlashResetCRM>
     988:	2e 00 00 4c 	lbi.gp $r0,[+#0x4c]
     98c:	96 00       	zeb33 $r0,$r0
     98e:	5a 00 bf 2b 	beqc $r0,#0xbf,9e4 <SpiFlashDeepPowerDown+0x72>
     992:	5c f0 00 c0 	slti $r15,$r0,#0xc0
     996:	e8 08       	beqzs8 9a6 <SpiFlashDeepPowerDown+0x34>
     998:	5a 00 1c 13 	beqc $r0,#0x1c,9be <SpiFlashDeepPowerDown+0x4c>
     99c:	5a 00 8c 11 	beqc $r0,#0x8c,9be <SpiFlashDeepPowerDown+0x4c>
     9a0:	5a 08 0e 19 	bnec $r0,#0xe,9d2 <SpiFlashDeepPowerDown+0x60>
     9a4:	d5 0d       	j8 9be <SpiFlashDeepPowerDown+0x4c>
     9a6:	5a 00 c8 0c 	beqc $r0,#0xc8,9be <SpiFlashDeepPowerDown+0x4c>
     9aa:	5c f0 00 c9 	slti $r15,$r0,#0xc9
     9ae:	e8 04       	beqzs8 9b6 <SpiFlashDeepPowerDown+0x44>
     9b0:	5a 08 c2 11 	bnec $r0,#0xc2,9d2 <SpiFlashDeepPowerDown+0x60>
     9b4:	d5 05       	j8 9be <SpiFlashDeepPowerDown+0x4c>
     9b6:	5a 00 e0 04 	beqc $r0,#0xe0,9be <SpiFlashDeepPowerDown+0x4c>
     9ba:	5a 08 ef 0c 	bnec $r0,#0xef,9d2 <SpiFlashDeepPowerDown+0x60>
     9be:	44 00 00 b9 	movi $r0,#0xb9
     9c2:	84 27       	movi55 $r1,#0x7
     9c4:	84 40       	movi55 $r2,#0x0
     9c6:	44 30 07 00 	movi $r3,#0x700
     9ca:	84 80       	movi55 $r4,#0x0
     9cc:	49 ff fb e1 	jal 18e <FshcSendCmd>
     9d0:	d5 0a       	j8 9e4 <SpiFlashDeepPowerDown+0x72>
     9d2:	44 00 00 b9 	movi $r0,#0xb9
     9d6:	84 27       	movi55 $r1,#0x7
     9d8:	84 40       	movi55 $r2,#0x0
     9da:	44 30 07 00 	movi $r3,#0x700
     9de:	84 80       	movi55 $r4,#0x0
     9e0:	49 ff fb d7 	jal 18e <FshcSendCmd>
     9e4:	ec 04       	addi10.sp #0x4
     9e6:	3b ff fc 84 	lmw.bim $sp,[$sp],$sp,#0x2    ! {$lp}
     9ea:	dd 9e       	ret5 $lp

000009ec <SpiFlashReleaseFromDeepPowerDown>:
     9ec:	2e 00 00 4c 	lbi.gp $r0,[+#0x4c]
     9f0:	96 00       	zeb33 $r0,$r0
     9f2:	5a 00 bf 31 	beqc $r0,#0xbf,a54 <SpiFlashReleaseFromDeepPowerDown+0x68>
     9f6:	3b ff fc bc 	smw.adm $sp,[$sp],$sp,#0x2    ! {$lp}
     9fa:	ef fc       	addi10.sp #-4
     9fc:	5c f0 00 c0 	slti $r15,$r0,#0xc0
     a00:	e8 08       	beqzs8 a10 <SpiFlashReleaseFromDeepPowerDown+0x24>
     a02:	5a 00 1c 13 	beqc $r0,#0x1c,a28 <SpiFlashReleaseFromDeepPowerDown+0x3c>
     a06:	5a 00 8c 11 	beqc $r0,#0x8c,a28 <SpiFlashReleaseFromDeepPowerDown+0x3c>
     a0a:	5a 08 0e 19 	bnec $r0,#0xe,a3c <SpiFlashReleaseFromDeepPowerDown+0x50>
     a0e:	d5 0d       	j8 a28 <SpiFlashReleaseFromDeepPowerDown+0x3c>
     a10:	5a 00 c8 0c 	beqc $r0,#0xc8,a28 <SpiFlashReleaseFromDeepPowerDown+0x3c>
     a14:	5c f0 00 c9 	slti $r15,$r0,#0xc9
     a18:	e8 04       	beqzs8 a20 <SpiFlashReleaseFromDeepPowerDown+0x34>
     a1a:	5a 08 c2 11 	bnec $r0,#0xc2,a3c <SpiFlashReleaseFromDeepPowerDown+0x50>
     a1e:	d5 05       	j8 a28 <SpiFlashReleaseFromDeepPowerDown+0x3c>
     a20:	5a 00 e0 04 	beqc $r0,#0xe0,a28 <SpiFlashReleaseFromDeepPowerDown+0x3c>
     a24:	5a 08 ef 0c 	bnec $r0,#0xef,a3c <SpiFlashReleaseFromDeepPowerDown+0x50>
     a28:	44 00 00 ab 	movi $r0,#0xab
     a2c:	84 27       	movi55 $r1,#0x7
     a2e:	84 40       	movi55 $r2,#0x0
     a30:	44 30 07 00 	movi $r3,#0x700
     a34:	84 80       	movi55 $r4,#0x0
     a36:	49 ff fb ac 	jal 18e <FshcSendCmd>
     a3a:	d5 0a       	j8 a4e <SpiFlashReleaseFromDeepPowerDown+0x62>
     a3c:	44 00 00 ab 	movi $r0,#0xab
     a40:	84 27       	movi55 $r1,#0x7
     a42:	84 40       	movi55 $r2,#0x0
     a44:	44 30 07 00 	movi $r3,#0x700
     a48:	84 80       	movi55 $r4,#0x0
     a4a:	49 ff fb a2 	jal 18e <FshcSendCmd>
     a4e:	ec 04       	addi10.sp #0x4
     a50:	3b ff fc 84 	lmw.bim $sp,[$sp],$sp,#0x2    ! {$lp}
     a54:	dd 9e       	ret5 $lp
	...

00000a58 <SpiFlashWriteLock>:
     a58:	3a 6f a0 bc 	smw.adm $r6,[$sp],$r8,#0x2    ! {$r6~$r8, $lp}
     a5c:	46 14 00 07 	sethi $r1,#0x40007
     a60:	04 10 80 11 	lwi $r1,[$r1+#0x44]
     a64:	97 88       	zeb33 $r6,$r1
     a66:	8e 01       	subi45 $r0,#0x1
     a68:	e6 04       	slti45 $r0,#0x4
     a6a:	4e f2 00 b1 	beqz $r15,bcc <SpiFlashWriteLock+0x174>
     a6e:	44 f0 0a 78 	movi $r15,#0xa78
     a72:	38 07 82 02 	lw $r0,[$r15+($r0<<#0x2)]
     a76:	dd 00       	jr5 $r0
     a78:	88 0a 00 00 	.word	0x00000a88
     a7c:	90 0a 00 00 	.word	0x00000a90
     a80:	98 0a 00 00 	.word	0x00000a98
     a84:	a0 0a 00 00 	.word	0x00000aa0
     a88:	2e 10 00 59 	lbi.gp $r1,[+#0x59]
     a8c:	80 e1       	mov55 $r7,$r1
     a8e:	d5 0c       	j8 aa6 <SpiFlashWriteLock+0x4e>
     a90:	2e 10 00 5a 	lbi.gp $r1,[+#0x5a]
     a94:	80 e1       	mov55 $r7,$r1
     a96:	d5 08       	j8 aa6 <SpiFlashWriteLock+0x4e>
     a98:	2e 10 00 5b 	lbi.gp $r1,[+#0x5b]
     a9c:	80 e1       	mov55 $r7,$r1
     a9e:	d5 04       	j8 aa6 <SpiFlashWriteLock+0x4e>
     aa0:	2e 10 00 5c 	lbi.gp $r1,[+#0x5c]
     aa4:	80 e1       	mov55 $r7,$r1
     aa6:	5a 78 7f 04 	bnec $r7,#0x7f,aae <SpiFlashWriteLock+0x56>
     aaa:	48 00 00 94 	j bd2 <SpiFlashWriteLock+0x17a>
     aae:	49 ff fd bb 	jal 624 <SpiFlashReadStatus>
     ab2:	96 c1       	zeh33 $r3,$r0
     ab4:	66 01 81 80 	bitci $r0,$r3,#0x180
     ab8:	96 01       	zeh33 $r0,$r0
     aba:	2e 10 00 4c 	lbi.gp $r1,[+#0x4c]
     abe:	96 48       	zeb33 $r1,$r1
     ac0:	5a 10 8c 75 	beqc $r1,#0x8c,baa <SpiFlashWriteLock+0x152>
     ac4:	5c f0 80 8d 	slti $r15,$r1,#0x8d
     ac8:	e8 0f       	beqzs8 ae6 <SpiFlashWriteLock+0x8e>
     aca:	5a 10 1c 70 	beqc $r1,#0x1c,baa <SpiFlashWriteLock+0x152>
     ace:	e6 3d       	slti45 $r1,#0x1d
     ad0:	e8 06       	beqzs8 adc <SpiFlashWriteLock+0x84>
     ad2:	5a 10 0e 04 	beqc $r1,#0xe,ada <SpiFlashWriteLock+0x82>
     ad6:	48 00 00 81 	j bd8 <SpiFlashWriteLock+0x180>
     ada:	d5 18       	j8 b0a <SpiFlashWriteLock+0xb2>
     adc:	5a 10 51 17 	beqc $r1,#0x51,b0a <SpiFlashWriteLock+0xb2>
     ae0:	5a 18 85 7c 	bnec $r1,#0x85,bd8 <SpiFlashWriteLock+0x180>
     ae4:	d5 13       	j8 b0a <SpiFlashWriteLock+0xb2>
     ae6:	5a 10 c8 12 	beqc $r1,#0xc8,b0a <SpiFlashWriteLock+0xb2>
     aea:	5c f0 80 c9 	slti $r15,$r1,#0xc9
     aee:	e8 06       	beqzs8 afa <SpiFlashWriteLock+0xa2>
     af0:	5a 10 a1 21 	beqc $r1,#0xa1,b32 <SpiFlashWriteLock+0xda>
     af4:	5a 10 c2 08 	beqc $r1,#0xc2,b04 <SpiFlashWriteLock+0xac>
     af8:	d5 70       	j8 bd8 <SpiFlashWriteLock+0x180>
     afa:	5a 10 e0 08 	beqc $r1,#0xe0,b0a <SpiFlashWriteLock+0xb2>
     afe:	5a 18 ef 6d 	bnec $r1,#0xef,bd8 <SpiFlashWriteLock+0x180>
     b02:	d5 04       	j8 b0a <SpiFlashWriteLock+0xb2>
     b04:	44 0f ff 07 	movi $r0,#-249
     b08:	d5 6c       	j8 be0 <SpiFlashWriteLock+0x188>
     b0a:	66 21 c1 fc 	bitci $r2,$r3,#0x41fc
     b0e:	54 13 80 1f 	andi $r1,$r7,#0x1f
     b12:	94 4a       	slli333 $r1,$r1,#0x2
     b14:	fe 8f       	or33 $r2,$r1
     b16:	96 93       	seh33 $r2,$r2
     b18:	96 11       	zeh33 $r0,$r2
     b1a:	54 13 80 40 	andi $r1,$r7,#0x40
     b1e:	96 49       	zeh33 $r1,$r1
     b20:	c1 4c       	beqz38 $r1,bb8 <SpiFlashWriteLock+0x160>
     b22:	54 03 80 20 	andi $r0,$r7,#0x20
     b26:	96 01       	zeh33 $r0,$r0
     b28:	40 00 24 08 	slli $r0,$r0,#0x9
     b2c:	fe 17       	or33 $r0,$r2
     b2e:	96 01       	zeh33 $r0,$r0
     b30:	d5 44       	j8 bb8 <SpiFlashWriteLock+0x160>
     b32:	3c 1c 00 13 	lwi.gp $r1,[+#0x4c]
     b36:	92 28       	srli45 $r1,#0x8
     b38:	97 49       	zeh33 $r5,$r1
     b3a:	44 20 13 40 	movi $r2,#0x1340
     b3e:	d2 08       	beqs38 $r2,b4e <SpiFlashWriteLock+0xf6>
     b40:	3c 1c 00 13 	lwi.gp $r1,[+#0x4c]
     b44:	92 28       	srli45 $r1,#0x8
     b46:	97 49       	zeh33 $r5,$r1
     b48:	44 20 14 40 	movi $r2,#0x1440
     b4c:	da 14       	bnes38 $r2,b74 <SpiFlashWriteLock+0x11c>
     b4e:	66 21 91 fc 	bitci $r2,$r3,#0x11fc
     b52:	54 13 80 1f 	andi $r1,$r7,#0x1f
     b56:	94 4a       	slli333 $r1,$r1,#0x2
     b58:	fe 8f       	or33 $r2,$r1
     b5a:	96 93       	seh33 $r2,$r2
     b5c:	96 11       	zeh33 $r0,$r2
     b5e:	54 13 80 40 	andi $r1,$r7,#0x40
     b62:	96 49       	zeh33 $r1,$r1
     b64:	c1 2a       	beqz38 $r1,bb8 <SpiFlashWriteLock+0x160>
     b66:	42 03 94 0b 	btst $r0,$r7,#0x5
     b6a:	40 00 30 08 	slli $r0,$r0,#0xc
     b6e:	fe 17       	or33 $r0,$r2
     b70:	96 01       	zeh33 $r0,$r0
     b72:	d5 23       	j8 bb8 <SpiFlashWriteLock+0x160>
     b74:	3c 1c 00 13 	lwi.gp $r1,[+#0x4c]
     b78:	92 28       	srli45 $r1,#0x8
     b7a:	97 49       	zeh33 $r5,$r1
     b7c:	44 20 15 40 	movi $r2,#0x1540
     b80:	da 1c       	bnes38 $r2,bb8 <SpiFlashWriteLock+0x160>
     b82:	66 21 c1 fc 	bitci $r2,$r3,#0x41fc
     b86:	54 03 80 1f 	andi $r0,$r7,#0x1f
     b8a:	94 02       	slli333 $r0,$r0,#0x2
     b8c:	fe 87       	or33 $r2,$r0
     b8e:	96 93       	seh33 $r2,$r2
     b90:	96 11       	zeh33 $r0,$r2
     b92:	54 13 80 40 	andi $r1,$r7,#0x40
     b96:	96 49       	zeh33 $r1,$r1
     b98:	c1 10       	beqz38 $r1,bb8 <SpiFlashWriteLock+0x160>
     b9a:	54 03 80 20 	andi $r0,$r7,#0x20
     b9e:	96 01       	zeh33 $r0,$r0
     ba0:	40 00 24 08 	slli $r0,$r0,#0x9
     ba4:	fe 17       	or33 $r0,$r2
     ba6:	96 01       	zeh33 $r0,$r0
     ba8:	d5 08       	j8 bb8 <SpiFlashWriteLock+0x160>
     baa:	66 21 81 bc 	bitci $r2,$r3,#0x1bc
     bae:	54 13 80 0f 	andi $r1,$r7,#0xf
     bb2:	94 4a       	slli333 $r1,$r1,#0x2
     bb4:	40 01 04 04 	or $r0,$r2,$r1
     bb8:	4c 01 80 04 	beq $r0,$r3,bc0 <SpiFlashWriteLock+0x168>
     bbc:	49 ff fd a6 	jal 708 <SpiFlashWriteStatus>
     bc0:	ce 0f       	bnez38 $r6,bde <SpiFlashWriteLock+0x186>
     bc2:	84 01       	movi55 $r0,#0x1
     bc4:	49 ff fc 3c 	jal 43c <SpiFlashHpmModeSet>
     bc8:	84 00       	movi55 $r0,#0x0
     bca:	d5 0b       	j8 be0 <SpiFlashWriteLock+0x188>
     bcc:	44 0f ff 07 	movi $r0,#-249
     bd0:	d5 08       	j8 be0 <SpiFlashWriteLock+0x188>
     bd2:	44 0f ff 07 	movi $r0,#-249
     bd6:	d5 05       	j8 be0 <SpiFlashWriteLock+0x188>
     bd8:	44 0f ff 01 	movi $r0,#-255
     bdc:	d5 02       	j8 be0 <SpiFlashWriteLock+0x188>
     bde:	84 00       	movi55 $r0,#0x0
     be0:	3a 6f a0 84 	lmw.bim $r6,[$sp],$r8,#0x2    ! {$r6~$r8, $lp}
     be4:	dd 9e       	ret5 $lp
     be6:	92 00       	nop16

00000be8 <Flash_GIE_DISABLE>:
     be8:	64 02 00 43 	setgie.d
     bec:	64 00 00 08 	dsb
     bf0:	64 00 00 08 	dsb
     bf4:	dd 9e       	ret5 $lp

00000bf6 <Flash_GIE_ENABLE>:
     bf6:	64 12 00 43 	setgie.e
     bfa:	64 00 00 08 	dsb
     bfe:	dd 9e       	ret5 $lp

00000c00 <FshcClkSwitch>:
     c00:	c8 0a       	bnez38 $r0,c14 <FshcClkSwitch+0x14>
     c02:	46 14 00 21 	sethi $r1,#0x40021
     c06:	04 00 80 09 	lwi $r0,[$r1+#0x24]
     c0a:	66 00 00 04 	bitci $r0,$r0,#0x4
     c0e:	14 00 80 09 	swi $r0,[$r1+#0x24]
     c12:	dd 9e       	ret5 $lp
     c14:	9e 89       	subi333 $r2,$r1,#0x1
     c16:	46 30 5b 8d 	sethi $r3,#0x5b8d
     c1a:	50 31 87 ff 	addi $r3,$r3,#0x7ff
     c1e:	e2 62       	slt45 $r3,$r2
     c20:	e8 05       	beqzs8 c2a <FshcClkSwitch+0x2a>
     c22:	46 10 5b 8d 	sethi $r1,#0x5b8d
     c26:	50 10 88 00 	addi $r1,$r1,#0x800
     c2a:	5a 08 02 05 	bnec $r0,#0x2,c34 <FshcClkSwitch+0x34>
     c2e:	3c 2d ff 8b 	lwi.gp $r2,[+#-468]
     c32:	d5 03       	j8 c38 <FshcClkSwitch+0x38>
     c34:	3c 2d ff 8c 	lwi.gp $r2,[+#-464]
     c38:	40 31 04 57 	divr $r3,$r2,$r2,$r1
     c3c:	40 21 20 08 	slli $r2,$r2,#0x8
     c40:	40 11 04 37 	divr $r1,$r1,$r2,$r1
     c44:	c9 02       	bnez38 $r1,c48 <FshcClkSwitch+0x48>
     c46:	84 25       	movi55 $r1,#0x5
     c48:	40 21 a0 08 	slli $r2,$r3,#0x8
     c4c:	fe 57       	or33 $r1,$r2
     c4e:	46 24 00 21 	sethi $r2,#0x40021
     c52:	14 11 00 14 	swi $r1,[$r2+#0x50]
     c56:	5a 08 02 09 	bnec $r0,#0x2,c68 <FshcClkSwitch+0x68>
     c5a:	04 01 00 09 	lwi $r0,[$r2+#0x24]
     c5e:	58 00 00 08 	ori $r0,$r0,#0x8
     c62:	14 01 00 09 	swi $r0,[$r2+#0x24]
     c66:	d5 09       	j8 c78 <FshcClkSwitch+0x78>
     c68:	46 14 00 21 	sethi $r1,#0x40021
     c6c:	04 00 80 09 	lwi $r0,[$r1+#0x24]
     c70:	66 00 00 08 	bitci $r0,$r0,#0x8
     c74:	14 00 80 09 	swi $r0,[$r1+#0x24]
     c78:	46 14 00 21 	sethi $r1,#0x40021
     c7c:	04 00 80 09 	lwi $r0,[$r1+#0x24]
     c80:	58 00 00 04 	ori $r0,$r0,#0x4
     c84:	14 00 80 09 	swi $r0,[$r1+#0x24]
     c88:	dd 9e       	ret5 $lp

00000c8a <SpiFlashResumDelaySet>:
     c8a:	46 14 00 21 	sethi $r1,#0x40021
     c8e:	04 10 80 09 	lwi $r1,[$r1+#0x24]
     c92:	42 10 88 0b 	btst $r1,$r1,#0x2
     c96:	c1 19       	beqz38 $r1,cc8 <SpiFlashResumDelaySet+0x3e>
     c98:	46 14 00 21 	sethi $r1,#0x40021
     c9c:	04 10 80 14 	lwi $r1,[$r1+#0x50]
     ca0:	92 28       	srli45 $r1,#0x8
     ca2:	c1 15       	beqz38 $r1,ccc <SpiFlashResumDelaySet+0x42>
     ca4:	46 14 00 21 	sethi $r1,#0x40021
     ca8:	04 20 80 14 	lwi $r2,[$r1+#0x50]
     cac:	92 48       	srli45 $r2,#0x8
     cae:	3c 1d ff 8c 	lwi.gp $r1,[+#-464]
     cb2:	40 10 88 37 	divr $r1,$r1,$r1,$r2
     cb6:	46 24 31 bd 	sethi $r2,#0x431bd
     cba:	50 21 0e 83 	addi $r2,$r2,#0xe83
     cbe:	42 20 88 69 	mulr64 $r2,$r1,$r2
     cc2:	40 11 c8 09 	srli $r1,$r3,#0x12
     cc6:	d5 04       	j8 cce <SpiFlashResumDelaySet+0x44>
     cc8:	84 20       	movi55 $r1,#0x0
     cca:	d5 02       	j8 cce <SpiFlashResumDelaySet+0x44>
     ccc:	84 20       	movi55 $r1,#0x0
     cce:	c1 16       	beqz38 $r1,cfa <SpiFlashResumDelaySet+0x70>
     cd0:	fe 0c       	mul33 $r0,$r1
     cd2:	46 24 00 07 	sethi $r2,#0x40007
     cd6:	14 01 00 0f 	swi $r0,[$r2+#0x3c]
     cda:	fa 04       	movpi45 $r0,#0x14
     cdc:	fe 0c       	mul33 $r0,$r1
     cde:	96 01       	zeh33 $r0,$r0
     ce0:	94 45       	slli333 $r1,$r0,#0x5
     ce2:	04 31 00 0e 	lwi $r3,[$r2+#0x38]
     ce6:	46 0f fe 00 	sethi $r0,#0xffe00
     cea:	8c 1f       	addi45 $r0,#0x1f
     cec:	fe 1e       	and33 $r0,$r3
     cee:	fe 0f       	or33 $r0,$r1
     cf0:	14 01 00 0e 	swi $r0,[$r2+#0x38]
     cf4:	84 01       	movi55 $r0,#0x1
     cf6:	14 01 00 16 	swi $r0,[$r2+#0x58]
     cfa:	84 00       	movi55 $r0,#0x0
     cfc:	dd 9e       	ret5 $lp

00000cfe <SpiFlashClkSwitch>:
     cfe:	3b ff fc bc 	smw.adm $sp,[$sp],$sp,#0x2    ! {$lp}
     d02:	ef fc       	addi10.sp #-4
     d04:	49 ff ff 7e 	jal c00 <FshcClkSwitch>
     d08:	84 00       	movi55 $r0,#0x0
     d0a:	ec 04       	addi10.sp #0x4
     d0c:	3b ff fc 84 	lmw.bim $sp,[$sp],$sp,#0x2    ! {$lp}
     d10:	dd 9e       	ret5 $lp

00000d12 <ByteRecombineToDword>:
     d12:	a6 80       	lbi333 $r2,[$r0+#0x0]
     d14:	a6 41       	lbi333 $r1,[$r0+#0x1]
     d16:	40 10 a0 08 	slli $r1,$r1,#0x8
     d1a:	fe 8f       	or33 $r2,$r1
     d1c:	a6 42       	lbi333 $r1,[$r0+#0x2]
     d1e:	40 10 c0 08 	slli $r1,$r1,#0x10
     d22:	fe 57       	or33 $r1,$r2
     d24:	a6 03       	lbi333 $r0,[$r0+#0x3]
     d26:	40 00 60 08 	slli $r0,$r0,#0x18
     d2a:	fe 0f       	or33 $r0,$r1
     d2c:	dd 9e       	ret5 $lp

00000d2e <SpiFlashWriteUnLock>:
     d2e:	3a 6f a0 bc 	smw.adm $r6,[$sp],$r8,#0x2    ! {$r6~$r8, $lp}
     d32:	ef e8       	addi10.sp #-24
     d34:	46 24 00 07 	sethi $r2,#0x40007
     d38:	04 71 00 11 	lwi $r7,[$r2+#0x44]
     d3c:	97 f8       	zeb33 $r7,$r7
     d3e:	e6 24       	slti45 $r1,#0x4
     d40:	4e f2 00 c8 	beqz $r15,ed0 <SpiFlashWriteUnLock+0x1a2>
     d44:	a6 40       	lbi333 $r1,[$r0+#0x0]
     d46:	5a 10 35 04 	beqc $r1,#0x35,d4e <SpiFlashWriteUnLock+0x20>
     d4a:	48 00 00 c6 	j ed6 <SpiFlashWriteUnLock+0x1a8>
     d4e:	80 c0       	mov55 $r6,$r0
     d50:	49 ff fc 6a 	jal 624 <SpiFlashReadStatus>
     d54:	96 01       	zeh33 $r0,$r0
     d56:	66 20 01 80 	bitci $r2,$r0,#0x180
     d5a:	96 91       	zeh33 $r2,$r2
     d5c:	a6 71       	lbi333 $r1,[$r6+#0x1]
     d5e:	5a 10 ba 04 	beqc $r1,#0xba,d66 <SpiFlashWriteUnLock+0x38>
     d62:	48 00 00 bd 	j edc <SpiFlashWriteUnLock+0x1ae>
     d66:	2e 10 00 4c 	lbi.gp $r1,[+#0x4c]
     d6a:	96 48       	zeb33 $r1,$r1
     d6c:	5a 10 8c 77 	beqc $r1,#0x8c,e5a <SpiFlashWriteUnLock+0x12c>
     d70:	5c f0 80 8d 	slti $r15,$r1,#0x8d
     d74:	e8 0d       	beqzs8 d8e <SpiFlashWriteUnLock+0x60>
     d76:	5a 10 1c 72 	beqc $r1,#0x1c,e5a <SpiFlashWriteUnLock+0x12c>
     d7a:	e6 3d       	slti45 $r1,#0x1d
     d7c:	e8 04       	beqzs8 d84 <SpiFlashWriteUnLock+0x56>
     d7e:	5a 18 0e 75 	bnec $r1,#0xe,e68 <SpiFlashWriteUnLock+0x13a>
     d82:	d5 12       	j8 da6 <SpiFlashWriteUnLock+0x78>
     d84:	5a 10 51 11 	beqc $r1,#0x51,da6 <SpiFlashWriteUnLock+0x78>
     d88:	5a 18 85 70 	bnec $r1,#0x85,e68 <SpiFlashWriteUnLock+0x13a>
     d8c:	d5 0d       	j8 da6 <SpiFlashWriteUnLock+0x78>
     d8e:	5a 10 c8 0c 	beqc $r1,#0xc8,da6 <SpiFlashWriteUnLock+0x78>
     d92:	5c f0 80 c9 	slti $r15,$r1,#0xc9
     d96:	e8 04       	beqzs8 d9e <SpiFlashWriteUnLock+0x70>
     d98:	5a 10 a1 1e 	beqc $r1,#0xa1,dd4 <SpiFlashWriteUnLock+0xa6>
     d9c:	d5 66       	j8 e68 <SpiFlashWriteUnLock+0x13a>
     d9e:	5a 10 e0 04 	beqc $r1,#0xe0,da6 <SpiFlashWriteUnLock+0x78>
     da2:	5a 18 ef 63 	bnec $r1,#0xef,e68 <SpiFlashWriteUnLock+0x13a>
     da6:	66 20 41 fc 	bitci $r2,$r0,#0x41fc
     daa:	2e 10 00 58 	lbi.gp $r1,[+#0x58]
     dae:	96 48       	zeb33 $r1,$r1
     db0:	54 40 80 1f 	andi $r4,$r1,#0x1f
     db4:	95 22       	slli333 $r4,$r4,#0x2
     db6:	fe a7       	or33 $r2,$r4
     db8:	96 d3       	seh33 $r3,$r2
     dba:	96 99       	zeh33 $r2,$r3
     dbc:	54 40 80 40 	andi $r4,$r1,#0x40
     dc0:	97 20       	zeb33 $r4,$r4
     dc2:	c4 53       	beqz38 $r4,e68 <SpiFlashWriteUnLock+0x13a>
     dc4:	96 6e       	bmski33 $r1,#0x5
     dc6:	96 48       	zeb33 $r1,$r1
     dc8:	40 10 a4 08 	slli $r1,$r1,#0x9
     dcc:	40 21 84 04 	or $r2,$r3,$r1
     dd0:	96 91       	zeh33 $r2,$r2
     dd2:	d5 4b       	j8 e68 <SpiFlashWriteUnLock+0x13a>
     dd4:	3c 1c 00 13 	lwi.gp $r1,[+#0x4c]
     dd8:	92 28       	srli45 $r1,#0x8
     dda:	97 49       	zeh33 $r5,$r1
     ddc:	44 30 13 40 	movi $r3,#0x1340
     de0:	d3 08       	beqs38 $r3,df0 <SpiFlashWriteUnLock+0xc2>
     de2:	3c 1c 00 13 	lwi.gp $r1,[+#0x4c]
     de6:	92 28       	srli45 $r1,#0x8
     de8:	97 49       	zeh33 $r5,$r1
     dea:	44 30 14 40 	movi $r3,#0x1440
     dee:	db 18       	bnes38 $r3,e1e <SpiFlashWriteUnLock+0xf0>
     df0:	66 20 11 fc 	bitci $r2,$r0,#0x11fc
     df4:	2e 10 00 58 	lbi.gp $r1,[+#0x58]
     df8:	96 48       	zeb33 $r1,$r1
     dfa:	54 40 80 1f 	andi $r4,$r1,#0x1f
     dfe:	95 22       	slli333 $r4,$r4,#0x2
     e00:	fe a7       	or33 $r2,$r4
     e02:	96 d3       	seh33 $r3,$r2
     e04:	96 99       	zeh33 $r2,$r3
     e06:	54 40 80 40 	andi $r4,$r1,#0x40
     e0a:	97 20       	zeb33 $r4,$r4
     e0c:	c4 2e       	beqz38 $r4,e68 <SpiFlashWriteUnLock+0x13a>
     e0e:	42 10 94 0b 	btst $r1,$r1,#0x5
     e12:	40 10 b0 08 	slli $r1,$r1,#0xc
     e16:	40 21 84 04 	or $r2,$r3,$r1
     e1a:	96 91       	zeh33 $r2,$r2
     e1c:	d5 26       	j8 e68 <SpiFlashWriteUnLock+0x13a>
     e1e:	3c 1c 00 13 	lwi.gp $r1,[+#0x4c]
     e22:	92 28       	srli45 $r1,#0x8
     e24:	97 49       	zeh33 $r5,$r1
     e26:	44 30 15 40 	movi $r3,#0x1540
     e2a:	db 1f       	bnes38 $r3,e68 <SpiFlashWriteUnLock+0x13a>
     e2c:	66 20 41 fc 	bitci $r2,$r0,#0x41fc
     e30:	2e 10 00 58 	lbi.gp $r1,[+#0x58]
     e34:	96 48       	zeb33 $r1,$r1
     e36:	54 40 80 1f 	andi $r4,$r1,#0x1f
     e3a:	95 22       	slli333 $r4,$r4,#0x2
     e3c:	fe a7       	or33 $r2,$r4
     e3e:	96 d3       	seh33 $r3,$r2
     e40:	96 99       	zeh33 $r2,$r3
     e42:	54 40 80 40 	andi $r4,$r1,#0x40
     e46:	97 20       	zeb33 $r4,$r4
     e48:	c4 10       	beqz38 $r4,e68 <SpiFlashWriteUnLock+0x13a>
     e4a:	96 6e       	bmski33 $r1,#0x5
     e4c:	96 48       	zeb33 $r1,$r1
     e4e:	40 10 a4 08 	slli $r1,$r1,#0x9
     e52:	40 21 84 04 	or $r2,$r3,$r1
     e56:	96 91       	zeh33 $r2,$r2
     e58:	d5 08       	j8 e68 <SpiFlashWriteUnLock+0x13a>
     e5a:	66 20 01 bc 	bitci $r2,$r0,#0x1bc
     e5e:	2e 10 00 58 	lbi.gp $r1,[+#0x58]
     e62:	96 5f       	fexti33 $r1,#0x3
     e64:	94 4a       	slli333 $r1,$r1,#0x2
     e66:	fe 8f       	or33 $r2,$r1
     e68:	a6 72       	lbi333 $r1,[$r6+#0x2]
     e6a:	5a 18 69 2a 	bnec $r1,#0x69,ebe <SpiFlashWriteUnLock+0x190>
     e6e:	2e 10 00 4c 	lbi.gp $r1,[+#0x4c]
     e72:	96 48       	zeb33 $r1,$r1
     e74:	5a 18 bf 1e 	bnec $r1,#0xbf,eb0 <SpiFlashWriteUnLock+0x182>
     e78:	d5 15       	j8 ea2 <SpiFlashWriteUnLock+0x174>
     e7a:	80 08       	mov55 $r0,$r8
     e7c:	49 ff ff 4b 	jal d12 <ByteRecombineToDword>
     e80:	46 14 00 07 	sethi $r1,#0x40007
     e84:	a8 09       	swi333 $r0,[$r1+#0x4]
     e86:	84 20       	movi55 $r1,#0x0
     e88:	46 04 00 30 	sethi $r0,#0x40030
     e8c:	b6 20       	swi450 $r1,[$r0]
     e8e:	8d 04       	addi45 $r8,#0x4
     e90:	8e c4       	subi45 $r6,#0x4
     e92:	97 b2       	seb33 $r6,$r6
     e94:	46 14 00 07 	sethi $r1,#0x40007
     e98:	04 10 80 09 	lwi $r1,[$r1+#0x24]
     e9c:	96 5e       	bmski33 $r1,#0x3
     e9e:	c9 fb       	bnez38 $r1,e94 <SpiFlashWriteUnLock+0x166>
     ea0:	d5 04       	j8 ea8 <SpiFlashWriteUnLock+0x17a>
     ea2:	50 8f 80 04 	addi $r8,$sp,#0x4
     ea6:	84 cd       	movi55 $r6,#0xd
     ea8:	4e 66 ff e9 	bgtz $r6,e7a <SpiFlashWriteUnLock+0x14c>
     eac:	84 c0       	movi55 $r6,#0x0
     eae:	d5 0b       	j8 ec4 <SpiFlashWriteUnLock+0x196>
     eb0:	84 c0       	movi55 $r6,#0x0
     eb2:	4c 20 00 09 	beq $r2,$r0,ec4 <SpiFlashWriteUnLock+0x196>
     eb6:	80 02       	mov55 $r0,$r2
     eb8:	49 ff fc 28 	jal 708 <SpiFlashWriteStatus>
     ebc:	d5 04       	j8 ec4 <SpiFlashWriteUnLock+0x196>
     ebe:	44 6f ff 08 	movi $r6,#-248
     ec2:	d5 01       	j8 ec4 <SpiFlashWriteUnLock+0x196>
     ec4:	cf 04       	bnez38 $r7,ecc <SpiFlashWriteUnLock+0x19e>
     ec6:	84 01       	movi55 $r0,#0x1
     ec8:	49 ff fa ba 	jal 43c <SpiFlashHpmModeSet>
     ecc:	80 06       	mov55 $r0,$r6
     ece:	d5 09       	j8 ee0 <SpiFlashWriteUnLock+0x1b2>
     ed0:	44 0f ff 08 	movi $r0,#-248
     ed4:	d5 06       	j8 ee0 <SpiFlashWriteUnLock+0x1b2>
     ed6:	44 0f ff 08 	movi $r0,#-248
     eda:	d5 03       	j8 ee0 <SpiFlashWriteUnLock+0x1b2>
     edc:	44 0f ff 08 	movi $r0,#-248
     ee0:	ec 18       	addi10.sp #0x18
     ee2:	3a 6f a0 84 	lmw.bim $r6,[$sp],$r8,#0x2    ! {$r6~$r8, $lp}
     ee6:	dd 9e       	ret5 $lp

00000ee8 <SpiFlashRead>:
     ee8:	3a 6f a8 bc 	smw.adm $r6,[$sp],$r10,#0x2    ! {$r6~$r10, $lp}
     eec:	ef f8       	addi10.sp #-8
     eee:	81 40       	mov55 $r10,$r0
     ef0:	80 e1       	mov55 $r7,$r1
     ef2:	81 22       	mov55 $r9,$r2
     ef4:	49 ff fe 7a 	jal be8 <Flash_GIE_DISABLE>
     ef8:	46 04 00 07 	sethi $r0,#0x40007
     efc:	04 10 00 15 	lwi $r1,[$r0+#0x54]
     f00:	96 4c       	xlsb33 $r1,$r1
     f02:	c1 03       	beqz38 $r1,f08 <SpiFlashRead+0x20>
     f04:	49 ff fa 78 	jal 3f4 <SpiFlashResetCRM>
     f08:	80 c9       	mov55 $r6,$r9
     f0a:	4e 97 00 d2 	blez $r9,10ae <SpiFlashRead+0x1c6>
     f0e:	40 14 fc 0a 	srai $r1,$r9,#0x1f
     f12:	92 3e       	srli45 $r1,#0x1e
     f14:	40 84 84 00 	add $r8,$r9,$r1
     f18:	54 84 00 03 	andi $r8,$r8,#0x3
     f1c:	8b 01       	sub45 $r8,$r1
     f1e:	46 04 00 07 	sethi $r0,#0x40007
     f22:	14 a0 00 05 	swi $r10,[$r0+#0x14]
     f26:	3e 18 00 4c 	addi.gp $r1,#0x4c
     f2a:	b4 01       	lwi450 $r0,[$r1]
     f2c:	92 18       	srli45 $r0,#0x18
     f2e:	a0 49       	lwi333 $r1,[$r1+#0x4]
     f30:	40 10 a0 08 	slli $r1,$r1,#0x8
     f34:	fe 0f       	or33 $r0,$r1
     f36:	5a 08 02 2f 	bnec $r0,#0x2,f94 <SpiFlashRead+0xac>
     f3a:	2e 00 00 4c 	lbi.gp $r0,[+#0x4c]
     f3e:	96 00       	zeb33 $r0,$r0
     f40:	5a 00 a1 6b 	beqc $r0,#0xa1,1016 <SpiFlashRead+0x12e>
     f44:	5c f0 00 a2 	slti $r15,$r0,#0xa2
     f48:	e8 0d       	beqzs8 f62 <SpiFlashRead+0x7a>
     f4a:	5a 00 1c 66 	beqc $r0,#0x1c,1016 <SpiFlashRead+0x12e>
     f4e:	e6 1d       	slti45 $r0,#0x1d
     f50:	e8 04       	beqzs8 f58 <SpiFlashRead+0x70>
     f52:	5a 08 0e 16 	bnec $r0,#0xe,f7e <SpiFlashRead+0x96>
     f56:	d5 60       	j8 1016 <SpiFlashRead+0x12e>
     f58:	5a 00 85 5f 	beqc $r0,#0x85,1016 <SpiFlashRead+0x12e>
     f5c:	5a 08 8c 11 	bnec $r0,#0x8c,f7e <SpiFlashRead+0x96>
     f60:	d5 5b       	j8 1016 <SpiFlashRead+0x12e>
     f62:	5a 00 c8 5a 	beqc $r0,#0xc8,1016 <SpiFlashRead+0x12e>
     f66:	5c f0 00 c9 	slti $r15,$r0,#0xc9
     f6a:	e8 06       	beqzs8 f76 <SpiFlashRead+0x8e>
     f6c:	5a 00 bf 0e 	beqc $r0,#0xbf,f88 <SpiFlashRead+0xa0>
     f70:	5a 08 c2 07 	bnec $r0,#0xc2,f7e <SpiFlashRead+0x96>
     f74:	d5 51       	j8 1016 <SpiFlashRead+0x12e>
     f76:	5a 00 e0 50 	beqc $r0,#0xe0,1016 <SpiFlashRead+0x12e>
     f7a:	5a 00 ef 4e 	beqc $r0,#0xef,1016 <SpiFlashRead+0x12e>
     f7e:	84 60       	movi55 $r3,#0x0
     f80:	84 40       	movi55 $r2,#0x0
     f82:	84 20       	movi55 $r1,#0x0
     f84:	84 00       	movi55 $r0,#0x0
     f86:	d5 5b       	j8 103c <SpiFlashRead+0x154>
     f88:	44 30 03 bf 	movi $r3,#0x3bf
     f8c:	84 47       	movi55 $r2,#0x7
     f8e:	84 21       	movi55 $r1,#0x1
     f90:	84 0b       	movi55 $r0,#0xb
     f92:	d5 55       	j8 103c <SpiFlashRead+0x154>
     f94:	3e 18 00 4c 	addi.gp $r1,#0x4c
     f98:	b4 01       	lwi450 $r0,[$r1]
     f9a:	92 18       	srli45 $r0,#0x18
     f9c:	a0 49       	lwi333 $r1,[$r1+#0x4]
     f9e:	40 10 a0 08 	slli $r1,$r1,#0x8
     fa2:	fe 0f       	or33 $r0,$r1
     fa4:	5a 08 01 40 	bnec $r0,#0x1,1024 <SpiFlashRead+0x13c>
     fa8:	2e 00 00 4c 	lbi.gp $r0,[+#0x4c]
     fac:	96 00       	zeb33 $r0,$r0
     fae:	5a 00 a1 27 	beqc $r0,#0xa1,ffc <SpiFlashRead+0x114>
     fb2:	5c f0 00 a2 	slti $r15,$r0,#0xa2
     fb6:	e8 10       	beqzs8 fd6 <SpiFlashRead+0xee>
     fb8:	5a 00 51 3c 	beqc $r0,#0x51,1030 <SpiFlashRead+0x148>
     fbc:	5c f0 00 52 	slti $r15,$r0,#0x52
     fc0:	e8 06       	beqzs8 fcc <SpiFlashRead+0xe4>
     fc2:	5a 00 0e 1d 	beqc $r0,#0xe,ffc <SpiFlashRead+0x114>
     fc6:	5a 08 1c 16 	bnec $r0,#0x1c,ff2 <SpiFlashRead+0x10a>
     fca:	d5 19       	j8 ffc <SpiFlashRead+0x114>
     fcc:	5a 00 85 18 	beqc $r0,#0x85,ffc <SpiFlashRead+0x114>
     fd0:	5a 08 8c 11 	bnec $r0,#0x8c,ff2 <SpiFlashRead+0x10a>
     fd4:	d5 14       	j8 ffc <SpiFlashRead+0x114>
     fd6:	5a 00 c8 13 	beqc $r0,#0xc8,ffc <SpiFlashRead+0x114>
     fda:	5c f0 00 c9 	slti $r15,$r0,#0xc9
     fde:	e8 06       	beqzs8 fea <SpiFlashRead+0x102>
     fe0:	5a 00 bf 15 	beqc $r0,#0xbf,100a <SpiFlashRead+0x122>
     fe4:	5a 08 c2 07 	bnec $r0,#0xc2,ff2 <SpiFlashRead+0x10a>
     fe8:	d5 0a       	j8 ffc <SpiFlashRead+0x114>
     fea:	5a 00 e0 09 	beqc $r0,#0xe0,ffc <SpiFlashRead+0x114>
     fee:	5a 00 ef 07 	beqc $r0,#0xef,ffc <SpiFlashRead+0x114>
     ff2:	84 60       	movi55 $r3,#0x0
     ff4:	84 40       	movi55 $r2,#0x0
     ff6:	84 20       	movi55 $r1,#0x0
     ff8:	84 00       	movi55 $r0,#0x0
     ffa:	d5 21       	j8 103c <SpiFlashRead+0x154>
     ffc:	44 30 03 8a 	movi $r3,#0x38a
    1000:	84 4f       	movi55 $r2,#0xf
    1002:	84 27       	movi55 $r1,#0x7
    1004:	44 00 00 bb 	movi $r0,#0xbb
    1008:	d5 1a       	j8 103c <SpiFlashRead+0x154>
    100a:	44 30 03 bf 	movi $r3,#0x3bf
    100e:	84 47       	movi55 $r2,#0x7
    1010:	84 21       	movi55 $r1,#0x1
    1012:	84 0b       	movi55 $r0,#0xb
    1014:	d5 14       	j8 103c <SpiFlashRead+0x154>
    1016:	44 30 03 8f 	movi $r3,#0x38f
    101a:	84 4b       	movi55 $r2,#0xb
    101c:	84 27       	movi55 $r1,#0x7
    101e:	44 00 00 eb 	movi $r0,#0xeb
    1022:	d5 0d       	j8 103c <SpiFlashRead+0x154>
    1024:	44 30 03 80 	movi $r3,#0x380
    1028:	fa 4f       	movpi45 $r2,#0x1f
    102a:	84 27       	movi55 $r1,#0x7
    102c:	84 0b       	movi55 $r0,#0xb
    102e:	d5 07       	j8 103c <SpiFlashRead+0x154>
    1030:	44 30 03 82 	movi $r3,#0x382
    1034:	fa 4f       	movpi45 $r2,#0x1f
    1036:	84 27       	movi55 $r1,#0x7
    1038:	44 00 00 3b 	movi $r0,#0x3b
    103c:	84 a1       	movi55 $r5,#0x1
    103e:	46 44 00 07 	sethi $r4,#0x40007
    1042:	14 52 00 0a 	swi $r5,[$r4+#0x28]
    1046:	50 44 ff ff 	addi $r4,$r9,#-1
    104a:	49 ff f8 a2 	jal 18e <FshcSendCmd>
    104e:	d5 25       	j8 1098 <SpiFlashRead+0x1b0>
    1050:	46 04 00 07 	sethi $r0,#0x40007
    1054:	04 00 00 09 	lwi $r0,[$r0+#0x24]
    1058:	96 04       	xlsb33 $r0,$r0
    105a:	c8 fb       	bnez38 $r0,1050 <SpiFlashRead+0x168>
    105c:	e4 c4       	sltsi45 $r6,#0x4
    105e:	84 20       	movi55 $r1,#0x0
    1060:	e9 09       	bnezs8 1072 <SpiFlashRead+0x18a>
    1062:	46 04 00 07 	sethi $r0,#0x40007
    1066:	b4 00       	lwi450 $r0,[$r0]
    1068:	aa 39       	swi333.bi $r0,[$r7],#0x4
    106a:	46 04 00 30 	sethi $r0,#0x40030
    106e:	b6 20       	swi450 $r1,[$r0]
    1070:	d5 13       	j8 1096 <SpiFlashRead+0x1ae>
    1072:	46 04 00 07 	sethi $r0,#0x40007
    1076:	b4 00       	lwi450 $r0,[$r0]
    1078:	f0 81       	swi37.sp $r0,[+#0x4]
    107a:	46 04 00 30 	sethi $r0,#0x40030
    107e:	b6 20       	swi450 $r1,[$r0]
    1080:	84 00       	movi55 $r0,#0x0
    1082:	d5 08       	j8 1092 <SpiFlashRead+0x1aa>
    1084:	b0 42       	addri36.sp $r1,#0x8
    1086:	88 20       	add45 $r1,$r0
    1088:	00 10 ff fc 	lbi $r1,[$r1+#-4]
    108c:	18 13 80 01 	sbi.bi $r1,[$r7],#0x1
    1090:	8c 01       	addi45 $r0,#0x1
    1092:	e2 08       	slt45 $r0,$r8
    1094:	e9 f8       	bnezs8 1084 <SpiFlashRead+0x19c>
    1096:	8e c4       	subi45 $r6,#0x4
    1098:	4e 66 ff dc 	bgtz $r6,1050 <SpiFlashRead+0x168>
    109c:	84 20       	movi55 $r1,#0x0
    109e:	46 04 00 07 	sethi $r0,#0x40007
    10a2:	14 10 00 0a 	swi $r1,[$r0+#0x28]
    10a6:	49 ff fd a8 	jal bf6 <Flash_GIE_ENABLE>
    10aa:	84 00       	movi55 $r0,#0x0
    10ac:	d5 03       	j8 10b2 <SpiFlashRead+0x1ca>
    10ae:	44 0f ff 06 	movi $r0,#-250
    10b2:	ec 08       	addi10.sp #0x8
    10b4:	3a 6f a8 84 	lmw.bim $r6,[$sp],$r10,#0x2    ! {$r6~$r10, $lp}
    10b8:	dd 9e       	ret5 $lp

000010ba <SpiFlashEraseResume>:
    10ba:	3a 6f 98 bc 	smw.adm $r6,[$sp],$r6,#0x2    ! {$r6, $lp}
    10be:	84 0a       	movi55 $r0,#0xa
    10c0:	49 ff f8 22 	jal 104 <flash_udelay>
    10c4:	49 ff fd 92 	jal be8 <Flash_GIE_DISABLE>
    10c8:	46 04 00 07 	sethi $r0,#0x40007
    10cc:	04 00 00 15 	lwi $r0,[$r0+#0x54]
    10d0:	96 04       	xlsb33 $r0,$r0
    10d2:	c0 03       	beqz38 $r0,10d8 <SpiFlashEraseResume+0x1e>
    10d4:	49 ff f9 90 	jal 3f4 <SpiFlashResetCRM>
    10d8:	44 00 00 7a 	movi $r0,#0x7a
    10dc:	84 27       	movi55 $r1,#0x7
    10de:	84 40       	movi55 $r2,#0x0
    10e0:	44 30 07 00 	movi $r3,#0x700
    10e4:	84 80       	movi55 $r4,#0x0
    10e6:	49 ff f8 54 	jal 18e <FshcSendCmd>
    10ea:	44 00 00 64 	movi $r0,#0x64
    10ee:	49 ff f8 0b 	jal 104 <flash_udelay>
    10f2:	49 ff fa f4 	jal 6da <SpiFlashIsBusy>
    10f6:	5c 60 00 01 	slti $r6,$r0,#0x1
    10fa:	ce 0d       	bnez38 $r6,1114 <SpiFlashEraseResume+0x5a>
    10fc:	44 00 00 75 	movi $r0,#0x75
    1100:	84 27       	movi55 $r1,#0x7
    1102:	84 40       	movi55 $r2,#0x0
    1104:	44 30 07 00 	movi $r3,#0x700
    1108:	84 80       	movi55 $r4,#0x0
    110a:	49 ff f8 42 	jal 18e <FshcSendCmd>
    110e:	fa 04       	movpi45 $r0,#0x14
    1110:	49 ff f7 fa 	jal 104 <flash_udelay>
    1114:	49 ff fd 71 	jal bf6 <Flash_GIE_ENABLE>
    1118:	80 06       	mov55 $r0,$r6
    111a:	3a 6f 98 84 	lmw.bim $r6,[$sp],$r6,#0x2    ! {$r6, $lp}
    111e:	dd 9e       	ret5 $lp

00001120 <SpiFlashWrite>:
    1120:	3a 6f ba bc 	smw.adm $r6,[$sp],$r14,#0xa    ! {$r6~$r14, $fp, $lp}
    1124:	ef ec       	addi10.sp #-20
    1126:	81 40       	mov55 $r10,$r0
    1128:	80 e1       	mov55 $r7,$r1
    112a:	81 02       	mov55 $r8,$r2
    112c:	f3 82       	swi37.sp $r3,[+#0x8]
    112e:	49 ff fd 5d 	jal be8 <Flash_GIE_DISABLE>
    1132:	46 04 00 07 	sethi $r0,#0x40007
    1136:	04 00 00 15 	lwi $r0,[$r0+#0x54]
    113a:	96 04       	xlsb33 $r0,$r0
    113c:	c0 03       	beqz38 $r0,1142 <SpiFlashWrite+0x22>
    113e:	49 ff f9 5b 	jal 3f4 <SpiFlashResetCRM>
    1142:	54 65 00 ff 	andi $r6,$r10,#0xff
    1146:	40 c4 18 00 	add $r12,$r8,$r6
    114a:	fe 32       	neg33 $r0,$r6
    114c:	96 0f       	fexti33 $r0,#0x1
    114e:	f0 81       	swi37.sp $r0,[+#0x4]
    1150:	5c 06 01 00 	slti $r0,$r12,#0x100
    1154:	c8 0a       	bnez38 $r0,1168 <SpiFlashWrite+0x48>
    1156:	40 96 20 09 	srli $r9,$r12,#0x8
    115a:	52 83 00 ff 	subri $r8,$r6,#0xff
    115e:	54 c6 00 ff 	andi $r12,$r12,#0xff
    1162:	52 63 01 00 	subri $r6,$r6,#0x100
    1166:	d5 05       	j8 1170 <SpiFlashWrite+0x50>
    1168:	80 c8       	mov55 $r6,$r8
    116a:	8f 01       	subi45 $r8,#0x1
    116c:	85 80       	movi55 $r12,#0x0
    116e:	85 21       	movi55 $r9,#0x1
    1170:	3e 18 00 4c 	addi.gp $r1,#0x4c
    1174:	b4 01       	lwi450 $r0,[$r1]
    1176:	92 18       	srli45 $r0,#0x18
    1178:	a0 49       	lwi333 $r1,[$r1+#0x4]
    117a:	40 10 a0 08 	slli $r1,$r1,#0x8
    117e:	fe 0f       	or33 $r0,$r1
    1180:	5a 08 02 5b 	bnec $r0,#0x2,1236 <SpiFlashWrite+0x116>
    1184:	2e 00 00 4c 	lbi.gp $r0,[+#0x4c]
    1188:	96 00       	zeb33 $r0,$r0
    118a:	5a 00 a1 1f 	beqc $r0,#0xa1,11c8 <SpiFlashWrite+0xa8>
    118e:	5c f0 00 a2 	slti $r15,$r0,#0xa2
    1192:	e8 0d       	beqzs8 11ac <SpiFlashWrite+0x8c>
    1194:	5a 00 1c 32 	beqc $r0,#0x1c,11f8 <SpiFlashWrite+0xd8>
    1198:	e6 1d       	slti45 $r0,#0x1d
    119a:	e8 04       	beqzs8 11a2 <SpiFlashWrite+0x82>
    119c:	5a 08 0e 41 	bnec $r0,#0xe,121e <SpiFlashWrite+0xfe>
    11a0:	d5 14       	j8 11c8 <SpiFlashWrite+0xa8>
    11a2:	5a 00 85 13 	beqc $r0,#0x85,11c8 <SpiFlashWrite+0xa8>
    11a6:	5a 08 8c 3c 	bnec $r0,#0x8c,121e <SpiFlashWrite+0xfe>
    11aa:	d5 0f       	j8 11c8 <SpiFlashWrite+0xa8>
    11ac:	5a 00 c8 0e 	beqc $r0,#0xc8,11c8 <SpiFlashWrite+0xa8>
    11b0:	5c f0 00 c9 	slti $r15,$r0,#0xc9
    11b4:	e8 06       	beqzs8 11c0 <SpiFlashWrite+0xa0>
    11b6:	5a 00 bf 21 	beqc $r0,#0xbf,11f8 <SpiFlashWrite+0xd8>
    11ba:	5a 00 c2 13 	beqc $r0,#0xc2,11e0 <SpiFlashWrite+0xc0>
    11be:	d5 30       	j8 121e <SpiFlashWrite+0xfe>
    11c0:	5a 00 e0 04 	beqc $r0,#0xe0,11c8 <SpiFlashWrite+0xa8>
    11c4:	5a 08 ef 2d 	bnec $r0,#0xef,121e <SpiFlashWrite+0xfe>
    11c8:	2e 00 00 53 	lbi.gp $r0,[+#0x53]
    11cc:	96 00       	zeb33 $r0,$r0
    11ce:	44 e0 00 17 	movi $r14,#0x17
    11d2:	85 a7       	movi55 $r13,#0x7
    11d4:	c8 39       	bnez38 $r0,1246 <SpiFlashWrite+0x126>
    11d6:	45 c0 03 40 	movi $fp,#0x340
    11da:	84 02       	movi55 $r0,#0x2
    11dc:	b6 1f       	swi450 $r0,[$sp]
    11de:	d5 46       	j8 126a <SpiFlashWrite+0x14a>
    11e0:	2e 00 00 53 	lbi.gp $r0,[+#0x53]
    11e4:	96 00       	zeb33 $r0,$r0
    11e6:	85 a7       	movi55 $r13,#0x7
    11e8:	c8 35       	bnez38 $r0,1252 <SpiFlashWrite+0x132>
    11ea:	45 c0 03 40 	movi $fp,#0x340
    11ee:	44 e0 00 17 	movi $r14,#0x17
    11f2:	84 02       	movi55 $r0,#0x2
    11f4:	b6 1f       	swi450 $r0,[$sp]
    11f6:	d5 3a       	j8 126a <SpiFlashWrite+0x14a>
    11f8:	44 00 00 38 	movi $r0,#0x38
    11fc:	84 27       	movi55 $r1,#0x7
    11fe:	84 40       	movi55 $r2,#0x0
    1200:	44 30 07 00 	movi $r3,#0x700
    1204:	84 80       	movi55 $r4,#0x0
    1206:	49 ff f7 c4 	jal 18e <FshcSendCmd>
    120a:	84 00       	movi55 $r0,#0x0
    120c:	3e 00 00 53 	sbi.gp $r0,[+#0x53]
    1210:	45 c0 03 7f 	movi $fp,#0x37f
    1214:	85 c5       	movi55 $r14,#0x5
    1216:	85 a1       	movi55 $r13,#0x1
    1218:	84 02       	movi55 $r0,#0x2
    121a:	b6 1f       	swi450 $r0,[$sp]
    121c:	d5 27       	j8 126a <SpiFlashWrite+0x14a>
    121e:	2e 00 00 53 	lbi.gp $r0,[+#0x53]
    1222:	96 00       	zeb33 $r0,$r0
    1224:	44 e0 00 17 	movi $r14,#0x17
    1228:	85 a7       	movi55 $r13,#0x7
    122a:	c8 1b       	bnez38 $r0,1260 <SpiFlashWrite+0x140>
    122c:	45 c0 03 40 	movi $fp,#0x340
    1230:	84 02       	movi55 $r0,#0x2
    1232:	b6 1f       	swi450 $r0,[$sp]
    1234:	d5 1b       	j8 126a <SpiFlashWrite+0x14a>
    1236:	45 c0 03 40 	movi $fp,#0x340
    123a:	44 e0 00 17 	movi $r14,#0x17
    123e:	85 a7       	movi55 $r13,#0x7
    1240:	84 02       	movi55 $r0,#0x2
    1242:	b6 1f       	swi450 $r0,[$sp]
    1244:	d5 13       	j8 126a <SpiFlashWrite+0x14a>
    1246:	45 c0 03 43 	movi $fp,#0x343
    124a:	44 00 00 32 	movi $r0,#0x32
    124e:	b6 1f       	swi450 $r0,[$sp]
    1250:	d5 0d       	j8 126a <SpiFlashWrite+0x14a>
    1252:	45 c0 03 4f 	movi $fp,#0x34f
    1256:	85 c5       	movi55 $r14,#0x5
    1258:	44 00 00 38 	movi $r0,#0x38
    125c:	b6 1f       	swi450 $r0,[$sp]
    125e:	d5 06       	j8 126a <SpiFlashWrite+0x14a>
    1260:	45 c0 03 43 	movi $fp,#0x343
    1264:	44 00 00 32 	movi $r0,#0x32
    1268:	b6 1f       	swi450 $r0,[$sp]
    126a:	46 04 00 07 	sethi $r0,#0x40007
    126e:	04 00 00 11 	lwi $r0,[$r0+#0x44]
    1272:	96 00       	zeb33 $r0,$r0
    1274:	f0 83       	swi37.sp $r0,[+#0xc]
    1276:	48 00 00 e9 	j 1448 <SpiFlashWrite+0x328>
    127a:	2e 00 00 4c 	lbi.gp $r0,[+#0x4c]
    127e:	96 00       	zeb33 $r0,$r0
    1280:	5a 00 a1 36 	beqc $r0,#0xa1,12ec <SpiFlashWrite+0x1cc>
    1284:	5c f0 00 a2 	slti $r15,$r0,#0xa2
    1288:	e8 10       	beqzs8 12a8 <SpiFlashWrite+0x188>
    128a:	5a 00 51 31 	beqc $r0,#0x51,12ec <SpiFlashWrite+0x1cc>
    128e:	5c f0 00 52 	slti $r15,$r0,#0x52
    1292:	e8 06       	beqzs8 129e <SpiFlashWrite+0x17e>
    1294:	5a 00 0e 2c 	beqc $r0,#0xe,12ec <SpiFlashWrite+0x1cc>
    1298:	5a 00 1c 17 	beqc $r0,#0x1c,12c6 <SpiFlashWrite+0x1a6>
    129c:	d5 30       	j8 12fc <SpiFlashWrite+0x1dc>
    129e:	5a 00 85 27 	beqc $r0,#0x85,12ec <SpiFlashWrite+0x1cc>
    12a2:	5a 08 8c 2d 	bnec $r0,#0x8c,12fc <SpiFlashWrite+0x1dc>
    12a6:	d5 23       	j8 12ec <SpiFlashWrite+0x1cc>
    12a8:	5a 00 c8 22 	beqc $r0,#0xc8,12ec <SpiFlashWrite+0x1cc>
    12ac:	5c f0 00 c9 	slti $r15,$r0,#0xc9
    12b0:	e8 06       	beqzs8 12bc <SpiFlashWrite+0x19c>
    12b2:	5a 00 bf 0a 	beqc $r0,#0xbf,12c6 <SpiFlashWrite+0x1a6>
    12b6:	5a 08 c2 23 	bnec $r0,#0xc2,12fc <SpiFlashWrite+0x1dc>
    12ba:	d5 19       	j8 12ec <SpiFlashWrite+0x1cc>
    12bc:	5a 00 e0 18 	beqc $r0,#0xe0,12ec <SpiFlashWrite+0x1cc>
    12c0:	5a 08 ef 1e 	bnec $r0,#0xef,12fc <SpiFlashWrite+0x1dc>
    12c4:	d5 14       	j8 12ec <SpiFlashWrite+0x1cc>
    12c6:	3e 18 00 4c 	addi.gp $r1,#0x4c
    12ca:	b4 01       	lwi450 $r0,[$r1]
    12cc:	92 18       	srli45 $r0,#0x18
    12ce:	a0 49       	lwi333 $r1,[$r1+#0x4]
    12d0:	40 10 a0 08 	slli $r1,$r1,#0x8
    12d4:	fe 0f       	or33 $r0,$r1
    12d6:	5a 08 02 0b 	bnec $r0,#0x2,12ec <SpiFlashWrite+0x1cc>
    12da:	84 06       	movi55 $r0,#0x6
    12dc:	84 21       	movi55 $r1,#0x1
    12de:	84 40       	movi55 $r2,#0x0
    12e0:	44 30 00 30 	movi $r3,#0x30
    12e4:	84 80       	movi55 $r4,#0x0
    12e6:	49 ff f7 54 	jal 18e <FshcSendCmd>
    12ea:	d5 09       	j8 12fc <SpiFlashWrite+0x1dc>
    12ec:	84 06       	movi55 $r0,#0x6
    12ee:	84 27       	movi55 $r1,#0x7
    12f0:	84 40       	movi55 $r2,#0x0
    12f2:	44 30 07 00 	movi $r3,#0x700
    12f6:	84 80       	movi55 $r4,#0x0
    12f8:	49 ff f7 4b 	jal 18e <FshcSendCmd>
    12fc:	46 b4 00 07 	sethi $r11,#0x40007
    1300:	14 a5 80 05 	swi $r10,[$r11+#0x14]
    1304:	80 07       	mov55 $r0,$r7
    1306:	49 ff fd 06 	jal d12 <ByteRecombineToDword>
    130a:	14 05 80 01 	swi $r0,[$r11+#0x4]
    130e:	8c e4       	addi45 $r7,#0x4
    1310:	8e c4       	subi45 $r6,#0x4
    1312:	b4 1f       	lwi450 $r0,[$sp]
    1314:	80 2d       	mov55 $r1,$r13
    1316:	80 4e       	mov55 $r2,$r14
    1318:	80 7c       	mov55 $r3,$fp
    131a:	80 88       	mov55 $r4,$r8
    131c:	49 ff f7 39 	jal 18e <FshcSendCmd>
    1320:	46 04 00 07 	sethi $r0,#0x40007
    1324:	04 00 00 09 	lwi $r0,[$r0+#0x24]
    1328:	96 1e       	bmski33 $r0,#0x3
    132a:	c8 fb       	bnez38 $r0,1320 <SpiFlashWrite+0x200>
    132c:	e4 c4       	sltsi45 $r6,#0x4
    132e:	e9 0e       	bnezs8 134a <SpiFlashWrite+0x22a>
    1330:	80 07       	mov55 $r0,$r7
    1332:	49 ff fc f0 	jal d12 <ByteRecombineToDword>
    1336:	46 14 00 07 	sethi $r1,#0x40007
    133a:	a8 09       	swi333 $r0,[$r1+#0x4]
    133c:	84 20       	movi55 $r1,#0x0
    133e:	46 04 00 30 	sethi $r0,#0x40030
    1342:	b6 20       	swi450 $r1,[$r0]
    1344:	8c e4       	addi45 $r7,#0x4
    1346:	8e c4       	subi45 $r6,#0x4
    1348:	d5 ec       	j8 1320 <SpiFlashWrite+0x200>
    134a:	4e 67 00 0f 	blez $r6,1368 <SpiFlashWrite+0x248>
    134e:	80 07       	mov55 $r0,$r7
    1350:	49 ff fc e1 	jal d12 <ByteRecombineToDword>
    1354:	46 14 00 07 	sethi $r1,#0x40007
    1358:	a8 09       	swi333 $r0,[$r1+#0x4]
    135a:	84 20       	movi55 $r1,#0x0
    135c:	46 04 00 30 	sethi $r0,#0x40030
    1360:	b6 20       	swi450 $r1,[$r0]
    1362:	f0 01       	lwi37.sp $r0,[+#0x4]
    1364:	88 e0       	add45 $r7,$r0
    1366:	d5 05       	j8 1370 <SpiFlashWrite+0x250>
    1368:	c6 04       	beqz38 $r6,1370 <SpiFlashWrite+0x250>
    136a:	f0 01       	lwi37.sp $r0,[+#0x4]
    136c:	8e 04       	subi45 $r0,#0x4
    136e:	88 e0       	add45 $r7,$r0
    1370:	46 04 00 07 	sethi $r0,#0x40007
    1374:	04 00 00 0b 	lwi $r0,[$r0+#0x2c]
    1378:	c8 fc       	bnez38 $r0,1370 <SpiFlashWrite+0x250>
    137a:	f0 02       	lwi37.sp $r0,[+#0x8]
    137c:	5a 00 01 08 	beqc $r0,#0x1,138c <SpiFlashWrite+0x26c>
    1380:	49 ff f9 ad 	jal 6da <SpiFlashIsBusy>
    1384:	c8 fe       	bnez38 $r0,1380 <SpiFlashWrite+0x260>
    1386:	49 ff f6 f7 	jal 174 <FshcFlashBusyStatusSet>
    138a:	d5 20       	j8 13ca <SpiFlashWrite+0x2aa>
    138c:	44 00 00 64 	movi $r0,#0x64
    1390:	49 ff f6 ba 	jal 104 <flash_udelay>
    1394:	44 00 00 75 	movi $r0,#0x75
    1398:	84 27       	movi55 $r1,#0x7
    139a:	84 40       	movi55 $r2,#0x0
    139c:	44 30 07 00 	movi $r3,#0x700
    13a0:	84 80       	movi55 $r4,#0x0
    13a2:	49 ff f6 f6 	jal 18e <FshcSendCmd>
    13a6:	fa 04       	movpi45 $r0,#0x14
    13a8:	49 ff f6 ae 	jal 104 <flash_udelay>
    13ac:	49 ff fc 25 	jal bf6 <Flash_GIE_ENABLE>
    13b0:	49 ff fe 85 	jal 10ba <SpiFlashEraseResume>
    13b4:	c0 fe       	beqz38 $r0,13b0 <SpiFlashWrite+0x290>
    13b6:	49 ff fc 19 	jal be8 <Flash_GIE_DISABLE>
    13ba:	46 04 00 07 	sethi $r0,#0x40007
    13be:	04 00 00 15 	lwi $r0,[$r0+#0x54]
    13c2:	96 04       	xlsb33 $r0,$r0
    13c4:	c0 03       	beqz38 $r0,13ca <SpiFlashWrite+0x2aa>
    13c6:	49 ff f8 17 	jal 3f4 <SpiFlashResetCRM>
    13ca:	89 48       	add45 $r10,$r8
    13cc:	8d 41       	addi45 $r10,#0x1
    13ce:	8f 21       	subi45 $r9,#0x1
    13d0:	4e 93 00 38 	bnez $r9,1440 <SpiFlashWrite+0x320>
    13d4:	4e c2 00 0b 	beqz $r12,13ea <SpiFlashWrite+0x2ca>
    13d8:	80 cc       	mov55 $r6,$r12
    13da:	54 06 00 03 	andi $r0,$r12,#0x3
    13de:	f0 81       	swi37.sp $r0,[+#0x4]
    13e0:	50 86 7f ff 	addi $r8,$r12,#-1
    13e4:	85 80       	movi55 $r12,#0x0
    13e6:	85 21       	movi55 $r9,#0x1
    13e8:	d5 30       	j8 1448 <SpiFlashWrite+0x328>
    13ea:	3e 18 00 4c 	addi.gp $r1,#0x4c
    13ee:	b4 01       	lwi450 $r0,[$r1]
    13f0:	92 18       	srli45 $r0,#0x18
    13f2:	a0 49       	lwi333 $r1,[$r1+#0x4]
    13f4:	40 10 a0 08 	slli $r1,$r1,#0x8
    13f8:	fe 0f       	or33 $r0,$r1
    13fa:	5a 08 02 29 	bnec $r0,#0x2,144c <SpiFlashWrite+0x32c>
    13fe:	2e 00 00 4c 	lbi.gp $r0,[+#0x4c]
    1402:	96 00       	zeb33 $r0,$r0
    1404:	5a 08 1c 24 	bnec $r0,#0x1c,144c <SpiFlashWrite+0x32c>
    1408:	46 04 00 07 	sethi $r0,#0x40007
    140c:	04 00 00 15 	lwi $r0,[$r0+#0x54]
    1410:	96 04       	xlsb33 $r0,$r0
    1412:	c0 0a       	beqz38 $r0,1426 <SpiFlashWrite+0x306>
    1414:	44 00 00 ff 	movi $r0,#0xff
    1418:	84 21       	movi55 $r1,#0x1
    141a:	84 40       	movi55 $r2,#0x0
    141c:	44 30 00 30 	movi $r3,#0x30
    1420:	84 80       	movi55 $r4,#0x0
    1422:	49 ff f6 b6 	jal 18e <FshcSendCmd>
    1426:	44 00 00 ff 	movi $r0,#0xff
    142a:	84 21       	movi55 $r1,#0x1
    142c:	84 40       	movi55 $r2,#0x0
    142e:	44 30 00 30 	movi $r3,#0x30
    1432:	84 80       	movi55 $r4,#0x0
    1434:	49 ff f6 ad 	jal 18e <FshcSendCmd>
    1438:	84 01       	movi55 $r0,#0x1
    143a:	3e 00 00 53 	sbi.gp $r0,[+#0x53]
    143e:	d5 07       	j8 144c <SpiFlashWrite+0x32c>
    1440:	44 80 00 ff 	movi $r8,#0xff
    1444:	44 60 01 00 	movi $r6,#0x100
    1448:	4e 93 ff 19 	bnez $r9,127a <SpiFlashWrite+0x15a>
    144c:	f0 03       	lwi37.sp $r0,[+#0xc]
    144e:	c8 04       	bnez38 $r0,1456 <SpiFlashWrite+0x336>
    1450:	84 01       	movi55 $r0,#0x1
    1452:	49 ff f7 f5 	jal 43c <SpiFlashHpmModeSet>
    1456:	49 ff fb d0 	jal bf6 <Flash_GIE_ENABLE>
    145a:	46 04 00 07 	sethi $r0,#0x40007
    145e:	04 00 00 0b 	lwi $r0,[$r0+#0x2c]
    1462:	96 04       	xlsb33 $r0,$r0
    1464:	c8 fb       	bnez38 $r0,145a <SpiFlashWrite+0x33a>
    1466:	ec 14       	addi10.sp #0x14
    1468:	3a 6f ba 84 	lmw.bim $r6,[$sp],$r14,#0xa    ! {$r6~$r14, $fp, $lp}
    146c:	dd 9e       	ret5 $lp

0000146e <SpiFlashGetStatus>:
    146e:	3a 6f a0 bc 	smw.adm $r6,[$sp],$r8,#0x2    ! {$r6~$r8, $lp}
    1472:	46 74 00 07 	sethi $r7,#0x40007
    1476:	04 63 80 11 	lwi $r6,[$r7+#0x44]
    147a:	97 b0       	zeb33 $r6,$r6
    147c:	49 ff fb b6 	jal be8 <Flash_GIE_DISABLE>
    1480:	04 03 80 15 	lwi $r0,[$r7+#0x54]
    1484:	96 04       	xlsb33 $r0,$r0
    1486:	c0 03       	beqz38 $r0,148c <SpiFlashGetStatus+0x1e>
    1488:	49 ff f7 b6 	jal 3f4 <SpiFlashResetCRM>
    148c:	49 ff f8 cc 	jal 624 <SpiFlashReadStatus>
    1490:	80 e0       	mov55 $r7,$r0
    1492:	ce 04       	bnez38 $r6,149a <SpiFlashGetStatus+0x2c>
    1494:	84 01       	movi55 $r0,#0x1
    1496:	49 ff f7 d3 	jal 43c <SpiFlashHpmModeSet>
    149a:	49 ff fb ae 	jal bf6 <Flash_GIE_ENABLE>
    149e:	80 07       	mov55 $r0,$r7
    14a0:	3a 6f a0 84 	lmw.bim $r6,[$sp],$r8,#0x2    ! {$r6~$r8, $lp}
    14a4:	dd 9e       	ret5 $lp

000014a6 <SpiFlashFshcStatusSetIdle>:
    14a6:	3a 6f a0 bc 	smw.adm $r6,[$sp],$r8,#0x2    ! {$r6~$r8, $lp}
    14aa:	46 74 00 07 	sethi $r7,#0x40007
    14ae:	04 63 80 11 	lwi $r6,[$r7+#0x44]
    14b2:	97 b0       	zeb33 $r6,$r6
    14b4:	49 ff fb 9a 	jal be8 <Flash_GIE_DISABLE>
    14b8:	04 03 80 15 	lwi $r0,[$r7+#0x54]
    14bc:	96 04       	xlsb33 $r0,$r0
    14be:	c0 03       	beqz38 $r0,14c4 <SpiFlashFshcStatusSetIdle+0x1e>
    14c0:	49 ff f7 9a 	jal 3f4 <SpiFlashResetCRM>
    14c4:	46 04 00 07 	sethi $r0,#0x40007
    14c8:	04 00 00 18 	lwi $r0,[$r0+#0x60]
    14cc:	c8 fc       	bnez38 $r0,14c4 <SpiFlashFshcStatusSetIdle+0x1e>
    14ce:	49 ff f6 53 	jal 174 <FshcFlashBusyStatusSet>
    14d2:	44 00 00 7a 	movi $r0,#0x7a
    14d6:	84 27       	movi55 $r1,#0x7
    14d8:	84 40       	movi55 $r2,#0x0
    14da:	44 30 07 00 	movi $r3,#0x700
    14de:	84 80       	movi55 $r4,#0x0
    14e0:	49 ff f6 57 	jal 18e <FshcSendCmd>
    14e4:	ce 04       	bnez38 $r6,14ec <SpiFlashFshcStatusSetIdle+0x46>
    14e6:	84 01       	movi55 $r0,#0x1
    14e8:	49 ff f7 aa 	jal 43c <SpiFlashHpmModeSet>
    14ec:	49 ff fb 85 	jal bf6 <Flash_GIE_ENABLE>
    14f0:	3a 6f a0 84 	lmw.bim $r6,[$sp],$r8,#0x2    ! {$r6~$r8, $lp}
    14f4:	dd 9e       	ret5 $lp

000014f6 <SpiFlashResume>:
    14f6:	3a 6f a0 bc 	smw.adm $r6,[$sp],$r8,#0x2    ! {$r6~$r8, $lp}
    14fa:	46 74 00 07 	sethi $r7,#0x40007
    14fe:	04 63 80 11 	lwi $r6,[$r7+#0x44]
    1502:	97 b0       	zeb33 $r6,$r6
    1504:	49 ff fb 72 	jal be8 <Flash_GIE_DISABLE>
    1508:	04 03 80 15 	lwi $r0,[$r7+#0x54]
    150c:	96 04       	xlsb33 $r0,$r0
    150e:	c0 03       	beqz38 $r0,1514 <SpiFlashResume+0x1e>
    1510:	49 ff f7 72 	jal 3f4 <SpiFlashResetCRM>
    1514:	44 00 00 7a 	movi $r0,#0x7a
    1518:	84 27       	movi55 $r1,#0x7
    151a:	84 40       	movi55 $r2,#0x0
    151c:	44 30 07 00 	movi $r3,#0x700
    1520:	84 80       	movi55 $r4,#0x0
    1522:	49 ff f6 36 	jal 18e <FshcSendCmd>
    1526:	ce 04       	bnez38 $r6,152e <SpiFlashResume+0x38>
    1528:	84 01       	movi55 $r0,#0x1
    152a:	49 ff f7 89 	jal 43c <SpiFlashHpmModeSet>
    152e:	49 ff fb 64 	jal bf6 <Flash_GIE_ENABLE>
    1532:	3a 6f a0 84 	lmw.bim $r6,[$sp],$r8,#0x2    ! {$r6~$r8, $lp}
    1536:	dd 9e       	ret5 $lp

00001538 <SpiFlashErase>:
    1538:	3a 6f b0 bc 	smw.adm $r6,[$sp],$r12,#0x2    ! {$r6~$r12, $lp}
    153c:	80 c0       	mov55 $r6,$r0
    153e:	81 41       	mov55 $r10,$r1
    1540:	81 22       	mov55 $r9,$r2
    1542:	46 84 00 07 	sethi $r8,#0x40007
    1546:	04 74 00 11 	lwi $r7,[$r8+#0x44]
    154a:	97 f8       	zeb33 $r7,$r7
    154c:	49 ff fb 4e 	jal be8 <Flash_GIE_DISABLE>
    1550:	04 34 00 15 	lwi $r3,[$r8+#0x54]
    1554:	96 dc       	xlsb33 $r3,$r3
    1556:	c3 03       	beqz38 $r3,155c <SpiFlashErase+0x24>
    1558:	49 ff f7 4e 	jal 3f4 <SpiFlashResetCRM>
    155c:	5a 60 01 06 	beqc $r6,#0x1,1568 <SpiFlashErase+0x30>
    1560:	c6 14       	beqz38 $r6,1588 <SpiFlashErase+0x50>
    1562:	5a 60 02 0b 	beqc $r6,#0x2,1578 <SpiFlashErase+0x40>
    1566:	d5 7a       	j8 165a <SpiFlashErase+0x122>
    1568:	40 a5 30 08 	slli $r10,$r10,#0xc
    156c:	44 b0 03 00 	movi $r11,#0x300
    1570:	fb 07       	movpi45 $r8,#0x17
    1572:	44 c0 00 20 	movi $r12,#0x20
    1576:	d5 0f       	j8 1594 <SpiFlashErase+0x5c>
    1578:	40 a5 40 08 	slli $r10,$r10,#0x10
    157c:	44 b0 03 00 	movi $r11,#0x300
    1580:	fb 07       	movpi45 $r8,#0x17
    1582:	44 c0 00 d8 	movi $r12,#0xd8
    1586:	d5 07       	j8 1594 <SpiFlashErase+0x5c>
    1588:	44 b0 07 00 	movi $r11,#0x700
    158c:	85 00       	movi55 $r8,#0x0
    158e:	85 40       	movi55 $r10,#0x0
    1590:	44 c0 00 c7 	movi $r12,#0xc7
    1594:	4e 82 00 06 	beqz $r8,15a0 <SpiFlashErase+0x68>
    1598:	46 04 00 07 	sethi $r0,#0x40007
    159c:	14 a0 00 05 	swi $r10,[$r0+#0x14]
    15a0:	2e 10 00 4c 	lbi.gp $r1,[+#0x4c]
    15a4:	96 48       	zeb33 $r1,$r1
    15a6:	5a 10 a1 22 	beqc $r1,#0xa1,15ea <SpiFlashErase+0xb2>
    15aa:	5c f0 80 a2 	slti $r15,$r1,#0xa2
    15ae:	e8 10       	beqzs8 15ce <SpiFlashErase+0x96>
    15b0:	5a 10 51 1d 	beqc $r1,#0x51,15ea <SpiFlashErase+0xb2>
    15b4:	5c f0 80 52 	slti $r15,$r1,#0x52
    15b8:	e8 06       	beqzs8 15c4 <SpiFlashErase+0x8c>
    15ba:	5a 10 0e 18 	beqc $r1,#0xe,15ea <SpiFlashErase+0xb2>
    15be:	5a 18 1c 4e 	bnec $r1,#0x1c,165a <SpiFlashErase+0x122>
    15c2:	d5 14       	j8 15ea <SpiFlashErase+0xb2>
    15c4:	5a 10 85 13 	beqc $r1,#0x85,15ea <SpiFlashErase+0xb2>
    15c8:	5a 18 8c 49 	bnec $r1,#0x8c,165a <SpiFlashErase+0x122>
    15cc:	d5 0f       	j8 15ea <SpiFlashErase+0xb2>
    15ce:	5a 10 c8 0e 	beqc $r1,#0xc8,15ea <SpiFlashErase+0xb2>
    15d2:	5c f0 80 c9 	slti $r15,$r1,#0xc9
    15d6:	e8 06       	beqzs8 15e2 <SpiFlashErase+0xaa>
    15d8:	5a 10 bf 09 	beqc $r1,#0xbf,15ea <SpiFlashErase+0xb2>
    15dc:	5a 18 c2 3f 	bnec $r1,#0xc2,165a <SpiFlashErase+0x122>
    15e0:	d5 05       	j8 15ea <SpiFlashErase+0xb2>
    15e2:	5a 10 e0 04 	beqc $r1,#0xe0,15ea <SpiFlashErase+0xb2>
    15e6:	5a 18 ef 3a 	bnec $r1,#0xef,165a <SpiFlashErase+0x122>
    15ea:	84 06       	movi55 $r0,#0x6
    15ec:	84 27       	movi55 $r1,#0x7
    15ee:	84 40       	movi55 $r2,#0x0
    15f0:	44 30 07 00 	movi $r3,#0x700
    15f4:	84 80       	movi55 $r4,#0x0
    15f6:	49 ff f5 cc 	jal 18e <FshcSendCmd>
    15fa:	80 0c       	mov55 $r0,$r12
    15fc:	84 27       	movi55 $r1,#0x7
    15fe:	80 48       	mov55 $r2,$r8
    1600:	80 6b       	mov55 $r3,$r11
    1602:	84 80       	movi55 $r4,#0x0
    1604:	49 ff f5 c5 	jal 18e <FshcSendCmd>
    1608:	46 14 00 07 	sethi $r1,#0x40007
    160c:	04 10 80 0b 	lwi $r1,[$r1+#0x2c]
    1610:	c9 fc       	bnez38 $r1,1608 <SpiFlashErase+0xd0>
    1612:	4e 92 00 03 	beqz $r9,1618 <SpiFlashErase+0xe0>
    1616:	ce 0d       	bnez38 $r6,1630 <SpiFlashErase+0xf8>
    1618:	49 ff f8 61 	jal 6da <SpiFlashIsBusy>
    161c:	c8 fe       	bnez38 $r0,1618 <SpiFlashErase+0xe0>
    161e:	49 ff f5 ab 	jal 174 <FshcFlashBusyStatusSet>
    1622:	cf 04       	bnez38 $r7,162a <SpiFlashErase+0xf2>
    1624:	84 01       	movi55 $r0,#0x1
    1626:	49 ff f7 0b 	jal 43c <SpiFlashHpmModeSet>
    162a:	49 ff fa e6 	jal bf6 <Flash_GIE_ENABLE>
    162e:	d5 16       	j8 165a <SpiFlashErase+0x122>
    1630:	44 00 00 64 	movi $r0,#0x64
    1634:	49 ff f5 68 	jal 104 <flash_udelay>
    1638:	44 00 00 75 	movi $r0,#0x75
    163c:	84 27       	movi55 $r1,#0x7
    163e:	84 40       	movi55 $r2,#0x0
    1640:	44 30 07 00 	movi $r3,#0x700
    1644:	84 80       	movi55 $r4,#0x0
    1646:	49 ff f5 a4 	jal 18e <FshcSendCmd>
    164a:	fa 04       	movpi45 $r0,#0x14
    164c:	49 ff f5 5c 	jal 104 <flash_udelay>
    1650:	49 ff fa d3 	jal bf6 <Flash_GIE_ENABLE>
    1654:	49 ff fd 33 	jal 10ba <SpiFlashEraseResume>
    1658:	c0 fe       	beqz38 $r0,1654 <SpiFlashErase+0x11c>
    165a:	3a 6f b0 84 	lmw.bim $r6,[$sp],$r12,#0x2    ! {$r6~$r12, $lp}
    165e:	dd 9e       	ret5 $lp

00001660 <FlashErase>:
    1660:	3a 6f a8 bc 	smw.adm $r6,[$sp],$r10,#0x2    ! {$r6~$r10, $lp}
    1664:	fd 30       	movd44 $r6,$r0
    1666:	54 00 0f ff 	andi $r0,$r0,#0xfff
    166a:	c0 04       	beqz38 $r0,1672 <FlashErase+0x12>
    166c:	88 e0       	add45 $r7,$r0
    166e:	66 63 0f ff 	bitci $r6,$r6,#0xfff
    1672:	54 03 8f ff 	andi $r0,$r7,#0xfff
    1676:	c0 05       	beqz38 $r0,1680 <FlashErase+0x20>
    1678:	66 73 8f ff 	bitci $r7,$r7,#0xfff
    167c:	50 73 90 00 	addi $r7,$r7,#0x1000
    1680:	3c 0c 00 15 	lwi.gp $r0,[+#0x54]
    1684:	98 77       	add333 $r1,$r6,$r7
    1686:	e2 01       	slt45 $r0,$r1
    1688:	e9 49       	bnezs8 171a <FlashErase+0xba>
    168a:	44 00 ff ff 	movi $r0,#0xffff
    168e:	e2 07       	slt45 $r0,$r7
    1690:	e8 34       	beqzs8 16f8 <FlashErase+0x98>
    1692:	2e 00 00 4c 	lbi.gp $r0,[+#0x4c]
    1696:	96 00       	zeb33 $r0,$r0
    1698:	5a 00 bf 30 	beqc $r0,#0xbf,16f8 <FlashErase+0x98>
    169c:	40 f3 00 13 	zeh $r15,$r6
    16a0:	e8 15       	beqzs8 16ca <FlashErase+0x6a>
    16a2:	44 01 00 00 	movi $r0,#0x10000
    16a6:	40 90 3c 01 	sub $r9,$r0,$r15
    16aa:	93 2c       	srli45 $r9,#0xc
    16ac:	85 00       	movi55 $r8,#0x0
    16ae:	d5 0c       	j8 16c6 <FlashErase+0x66>
    16b0:	84 01       	movi55 $r0,#0x1
    16b2:	40 13 30 09 	srli $r1,$r6,#0xc
    16b6:	84 40       	movi55 $r2,#0x0
    16b8:	49 ff ff 40 	jal 1538 <SpiFlashErase>
    16bc:	50 73 f0 00 	addi $r7,$r7,#-4096
    16c0:	50 63 10 00 	addi $r6,$r6,#0x1000
    16c4:	8d 01       	addi45 $r8,#0x1
    16c6:	e1 09       	slts45 $r8,$r9
    16c8:	e9 f4       	bnezs8 16b0 <FlashErase+0x50>
    16ca:	44 00 ff ff 	movi $r0,#0xffff
    16ce:	e2 07       	slt45 $r0,$r7
    16d0:	e8 14       	beqzs8 16f8 <FlashErase+0x98>
    16d2:	40 93 c0 09 	srli $r9,$r7,#0x10
    16d6:	85 00       	movi55 $r8,#0x0
    16d8:	d5 0e       	j8 16f4 <FlashErase+0x94>
    16da:	84 02       	movi55 $r0,#0x2
    16dc:	40 13 40 09 	srli $r1,$r6,#0x10
    16e0:	84 40       	movi55 $r2,#0x0
    16e2:	49 ff ff 2b 	jal 1538 <SpiFlashErase>
    16e6:	44 0f 00 00 	movi $r0,#-65536
    16ea:	88 e0       	add45 $r7,$r0
    16ec:	44 01 00 00 	movi $r0,#0x10000
    16f0:	88 c0       	add45 $r6,$r0
    16f2:	8d 01       	addi45 $r8,#0x1
    16f4:	e1 09       	slts45 $r8,$r9
    16f6:	e9 f2       	bnezs8 16da <FlashErase+0x7a>
    16f8:	40 83 b0 09 	srli $r8,$r7,#0xc
    16fc:	84 e0       	movi55 $r7,#0x0
    16fe:	d5 0a       	j8 1712 <FlashErase+0xb2>
    1700:	84 01       	movi55 $r0,#0x1
    1702:	40 13 30 09 	srli $r1,$r6,#0xc
    1706:	84 40       	movi55 $r2,#0x0
    1708:	49 ff ff 18 	jal 1538 <SpiFlashErase>
    170c:	50 63 10 00 	addi $r6,$r6,#0x1000
    1710:	8c e1       	addi45 $r7,#0x1
    1712:	e0 e8       	slts45 $r7,$r8
    1714:	e9 f6       	bnezs8 1700 <FlashErase+0xa0>
    1716:	84 00       	movi55 $r0,#0x0
    1718:	d5 03       	j8 171e <FlashErase+0xbe>
    171a:	44 0f ff 09 	movi $r0,#-247
    171e:	3a 6f a8 84 	lmw.bim $r6,[$sp],$r10,#0x2    ! {$r6~$r10, $lp}
    1722:	dd 9e       	ret5 $lp

00001724 <SpiFlashInit>:
    1724:	3a 6f a8 bc 	smw.adm $r6,[$sp],$r10,#0x2    ! {$r6~$r10, $lp}
    1728:	fd 30       	movd44 $r6,$r0
    172a:	fd 41       	movd44 $r8,$r2
    172c:	49 ff fa 5e 	jal be8 <Flash_GIE_DISABLE>
    1730:	80 09       	mov55 $r0,$r9
    1732:	80 26       	mov55 $r1,$r6
    1734:	49 ff fa 66 	jal c00 <FshcClkSwitch>
    1738:	80 07       	mov55 $r0,$r7
    173a:	49 ff f4 ff 	jal 138 <FshcGpioSet>
    173e:	84 01       	movi55 $r0,#0x1
    1740:	84 24       	movi55 $r1,#0x4
    1742:	49 ff f5 0c 	jal 15a <FshcInit>
    1746:	49 ff f6 57 	jal 3f4 <SpiFlashResetCRM>
    174a:	84 8a       	movi55 $r4,#0xa
    174c:	d5 13       	j8 1772 <SpiFlashInit+0x4e>
    174e:	49 ff f6 e5 	jal 518 <SpiFlashReadId>
    1752:	2e 30 00 4c 	lbi.gp $r3,[+#0x4c]
    1756:	96 d8       	zeb33 $r3,$r3
    1758:	5a 30 ff 09 	beqc $r3,#0xff,176a <SpiFlashInit+0x46>
    175c:	3c 3c 00 13 	lwi.gp $r3,[+#0x4c]
    1760:	92 68       	srli45 $r3,#0x8
    1762:	97 59       	zeh33 $r5,$r3
    1764:	44 00 ff ff 	movi $r0,#0xffff
    1768:	d8 08       	bnes38 $r0,1778 <SpiFlashInit+0x54>
    176a:	84 01       	movi55 $r0,#0x1
    176c:	49 ff f4 d9 	jal 11e <flash_delayms>
    1770:	80 86       	mov55 $r4,$r6
    1772:	9e e1       	subi333 $r3,$r4,#0x1
    1774:	97 98       	zeb33 $r6,$r3
    1776:	cc ec       	bnez38 $r4,174e <SpiFlashInit+0x2a>
    1778:	2e 00 00 4c 	lbi.gp $r0,[+#0x4c]
    177c:	96 00       	zeb33 $r0,$r0
    177e:	5a 00 ff 09 	beqc $r0,#0xff,1790 <SpiFlashInit+0x6c>
    1782:	3c 0c 00 13 	lwi.gp $r0,[+#0x4c]
    1786:	92 08       	srli45 $r0,#0x8
    1788:	97 41       	zeh33 $r5,$r0
    178a:	44 10 ff ff 	movi $r1,#0xffff
    178e:	d9 06       	bnes38 $r1,179a <SpiFlashInit+0x76>
    1790:	49 ff fa 33 	jal bf6 <Flash_GIE_ENABLE>
    1794:	44 6f ff 02 	movi $r6,#-254
    1798:	d5 29       	j8 17ea <SpiFlashInit+0xc6>
    179a:	84 06       	movi55 $r0,#0x6
    179c:	84 27       	movi55 $r1,#0x7
    179e:	84 40       	movi55 $r2,#0x0
    17a0:	44 30 07 00 	movi $r3,#0x700
    17a4:	84 80       	movi55 $r4,#0x0
    17a6:	49 ff f4 f4 	jal 18e <FshcSendCmd>
    17aa:	84 04       	movi55 $r0,#0x4
    17ac:	84 27       	movi55 $r1,#0x7
    17ae:	84 40       	movi55 $r2,#0x0
    17b0:	44 30 07 00 	movi $r3,#0x700
    17b4:	84 80       	movi55 $r4,#0x0
    17b6:	49 ff f4 ec 	jal 18e <FshcSendCmd>
    17ba:	80 07       	mov55 $r0,$r7
    17bc:	fa 24       	movpi45 $r1,#0x14
    17be:	49 ff f8 6a 	jal 892 <SpiFlashIOModeCfg>
    17c2:	80 c0       	mov55 $r6,$r0
    17c4:	c8 fb       	bnez38 $r0,17ba <SpiFlashInit+0x96>
    17c6:	80 07       	mov55 $r0,$r7
    17c8:	80 28       	mov55 $r1,$r8
    17ca:	84 41       	movi55 $r2,#0x1
    17cc:	49 ff f4 fb 	jal 1c2 <FshcSpiIOModeCfg>
    17d0:	4e 82 00 05 	beqz $r8,17da <SpiFlashInit+0xb6>
    17d4:	84 01       	movi55 $r0,#0x1
    17d6:	49 ff f6 33 	jal 43c <SpiFlashHpmModeSet>
    17da:	49 ff fa 0e 	jal bf6 <Flash_GIE_ENABLE>
    17de:	40 00 00 09 	nop
    17e2:	40 00 00 09 	nop
    17e6:	40 00 00 09 	nop
    17ea:	80 06       	mov55 $r0,$r6
    17ec:	3a 6f a8 84 	lmw.bim $r6,[$sp],$r10,#0x2    ! {$r6~$r10, $lp}
    17f0:	dd 9e       	ret5 $lp

000017f2 <SpiFlashInfoGet>:
    17f2:	3e 08 00 4c 	addi.gp $r0,#0x4c
    17f6:	dd 9e       	ret5 $lp

000017f8 <SpiFlashIOCtrl>:
    17f8:	3a 6f a0 bc 	smw.adm $r6,[$sp],$r8,#0x2    ! {$r6~$r8, $lp}
    17fc:	80 c0       	mov55 $r6,$r0
    17fe:	49 ff f9 f5 	jal be8 <Flash_GIE_DISABLE>
    1802:	9e 31       	subi333 $r0,$r6,#0x1
    1804:	5c 10 00 09 	slti $r1,$r0,#0x9
    1808:	c1 58       	beqz38 $r1,18b8 <SpiFlashIOCtrl+0xc0>
    180a:	44 f0 18 14 	movi $r15,#0x1814
    180e:	38 07 82 02 	lw $r0,[$r15+($r0<<#0x2)]
    1812:	dd 00       	jr5 $r0
    1814:	38 18 00 00 	.word	0x00001838
    1818:	44 18 00 00 	.word	0x00001844
    181c:	52 18 00 00 	.word	0x00001852
    1820:	70 18 00 00 	.word	0x00001870
    1824:	7c 18 00 00 	.word	0x0000187c
    1828:	84 18 00 00 	.word	0x00001884
    182c:	92 18 00 00 	.word	0x00001892
    1830:	9a 18 00 00 	.word	0x0000189a
    1834:	a2 18 00 00 	.word	0x000018a2
    1838:	00 0f 80 10 	lbi $r0,[$sp+#0x10]
    183c:	49 ff f9 0e 	jal a58 <SpiFlashWriteLock>
    1840:	80 c0       	mov55 $r6,$r0
    1842:	d5 3c       	j8 18ba <SpiFlashIOCtrl+0xc2>
    1844:	f0 04       	lwi37.sp $r0,[+#0x10]
    1846:	00 1f 80 14 	lbi $r1,[$sp+#0x14]
    184a:	49 ff fa 72 	jal d2e <SpiFlashWriteUnLock>
    184e:	80 c0       	mov55 $r6,$r0
    1850:	d5 35       	j8 18ba <SpiFlashIOCtrl+0xc2>
    1852:	04 8f 80 04 	lwi $r8,[$sp+#0x10]
    1856:	f7 05       	lwi37.sp $r7,[+#0x14]
    1858:	49 ff f6 60 	jal 518 <SpiFlashReadId>
    185c:	80 c0       	mov55 $r6,$r0
    185e:	3e 18 00 4c 	addi.gp $r1,#0x4c
    1862:	b4 01       	lwi450 $r0,[$r1]
    1864:	92 08       	srli45 $r0,#0x8
    1866:	12 04 00 00 	shi $r0,[$r8+#0x0]
    186a:	a6 08       	lbi333 $r0,[$r1+#0x0]
    186c:	ae 38       	sbi333 $r0,[$r7+#0x0]
    186e:	d5 26       	j8 18ba <SpiFlashIOCtrl+0xc2>
    1870:	f6 04       	lwi37.sp $r6,[+#0x10]
    1872:	49 ff f6 d9 	jal 624 <SpiFlashReadStatus>
    1876:	b6 06       	swi450 $r0,[$r6]
    1878:	84 c0       	movi55 $r6,#0x0
    187a:	d5 20       	j8 18ba <SpiFlashIOCtrl+0xc2>
    187c:	49 ff f5 bc 	jal 3f4 <SpiFlashResetCRM>
    1880:	84 c0       	movi55 $r6,#0x0
    1882:	d5 1c       	j8 18ba <SpiFlashIOCtrl+0xc2>
    1884:	f0 04       	lwi37.sp $r0,[+#0x10]
    1886:	02 1f 80 0a 	lhi $r1,[$sp+#0x14]
    188a:	49 ff f8 04 	jal 892 <SpiFlashIOModeCfg>
    188e:	80 c0       	mov55 $r6,$r0
    1890:	d5 15       	j8 18ba <SpiFlashIOCtrl+0xc2>
    1892:	49 ff f8 70 	jal 972 <SpiFlashDeepPowerDown>
    1896:	84 c0       	movi55 $r6,#0x0
    1898:	d5 11       	j8 18ba <SpiFlashIOCtrl+0xc2>
    189a:	49 ff f8 a9 	jal 9ec <SpiFlashReleaseFromDeepPowerDown>
    189e:	84 c0       	movi55 $r6,#0x0
    18a0:	d5 0d       	j8 18ba <SpiFlashIOCtrl+0xc2>
    18a2:	00 0f 80 10 	lbi $r0,[$sp+#0x10]
    18a6:	5a 08 01 04 	bnec $r0,#0x1,18ae <SpiFlashIOCtrl+0xb6>
    18aa:	84 02       	movi55 $r0,#0x2
    18ac:	d5 02       	j8 18b0 <SpiFlashIOCtrl+0xb8>
    18ae:	84 03       	movi55 $r0,#0x3
    18b0:	49 ff f5 c6 	jal 43c <SpiFlashHpmModeSet>
    18b4:	80 c0       	mov55 $r6,$r0
    18b6:	d5 02       	j8 18ba <SpiFlashIOCtrl+0xc2>
    18b8:	84 c0       	movi55 $r6,#0x0
    18ba:	49 ff f9 9e 	jal bf6 <Flash_GIE_ENABLE>
    18be:	80 06       	mov55 $r0,$r6
    18c0:	3a 6f a0 84 	lmw.bim $r6,[$sp],$r8,#0x2    ! {$r6~$r8, $lp}
    18c4:	dd 9e       	ret5 $lp
    18c6:	92 00       	nop16

Disassembly of section .startup_section:

00001a8c <OS_Trap_Interrupt_SWI>:
    1a8c:	84 00       	movi55 $r0,#0x0
    1a8e:	64 03 20 03 	mtsr $r0,$int_pend
    1a92:	64 02 00 02 	mfsr $r0,$psw
    1a96:	9e 02       	subi333 $r0,$r0,#0x2
    1a98:	64 02 00 03 	mtsr $r0,$psw
    1a9c:	3a 2f ef bc 	smw.adm $r2,[$sp],$p1,#0xe    ! {$r2~$p1, $fp, $gp, $lp}
    1aa0:	42 0e 80 20 	mfusr $r0,$ifc_lp
    1aa4:	3a 0f 80 3c 	smw.adm $r0,[$sp],$r0,#0x0    ! {$r0}
    1aa8:	42 2c 80 20 	mfusr $r2,$lb
    1aac:	42 3d 00 20 	mfusr $r3,$le
    1ab0:	42 4d 80 20 	mfusr $r4,$lc
    1ab4:	3a 2f 90 3c 	smw.adm $r2,[$sp],$r4,#0x0    ! {$r2~$r4}
    1ab8:	64 02 00 02 	mfsr $r0,$psw
    1abc:	64 12 a4 02 	mfsr $r1,$ipc
    1ac0:	64 22 04 02 	mfsr $r2,$ipsw
    1ac4:	3a 0f 88 3c 	smw.adm $r0,[$sp],$r2,#0x0    ! {$r0~$r2}
    1ac8:	80 5f       	mov55 $r2,$sp
    1aca:	ef fc       	addi10.sp #-4
    1acc:	43 ff 88 09 	bclr $sp,$sp,#0x2
    1ad0:	b6 5f       	swi450 $r2,[$sp]
    1ad2:	ef f8       	addi10.sp #-8
    1ad4:	36 ff 9f fe 	fsdi.bi $fd15,[$sp],#-8
    1ad8:	36 ef 9f fe 	fsdi.bi $fd14,[$sp],#-8
    1adc:	36 df 9f fe 	fsdi.bi $fd13,[$sp],#-8
    1ae0:	36 cf 9f fe 	fsdi.bi $fd12,[$sp],#-8
    1ae4:	36 bf 9f fe 	fsdi.bi $fd11,[$sp],#-8
    1ae8:	36 af 9f fe 	fsdi.bi $fd10,[$sp],#-8
    1aec:	36 9f 9f fe 	fsdi.bi $fd9,[$sp],#-8
    1af0:	36 8f 9f fe 	fsdi.bi $fd8,[$sp],#-8
    1af4:	36 7f 9f fe 	fsdi.bi $fd7,[$sp],#-8
    1af8:	36 6f 9f fe 	fsdi.bi $fd6,[$sp],#-8
    1afc:	36 5f 9f fe 	fsdi.bi $fd5,[$sp],#-8
    1b00:	36 4f 9f fe 	fsdi.bi $fd4,[$sp],#-8
    1b04:	36 3f 9f fe 	fsdi.bi $fd3,[$sp],#-8
    1b08:	36 2f 9f fe 	fsdi.bi $fd2,[$sp],#-8
    1b0c:	36 1f 9f fe 	fsdi.bi $fd1,[$sp],#-8
    1b10:	36 0f 80 00 	fsdi $fd0,[$sp+#0x0]
    1b14:	64 12 00 02 	mfsr $r1,$psw
    1b18:	44 08 ff f8 	movi $r0,#-458760
    1b1c:	fe 46       	and33 $r1,$r0
    1b1e:	84 01       	movi55 $r0,#0x1
    1b20:	fe 0f       	or33 $r0,$r1
    1b22:	64 02 00 03 	mtsr $r0,$psw
    1b26:	64 00 00 08 	dsb
    1b2a:	46 32 00 04 	sethi $r3,#0x20004
    1b2e:	58 31 82 2c 	ori $r3,$r3,#0x22c
    1b32:	b4 83       	lwi450 $r4,[$r3]
    1b34:	15 f2 00 00 	swi $sp,[$r4+#0x0]
    1b38:	46 f0 00 03 	sethi $r15,#0x3
    1b3c:	58 f7 8a 4e 	ori $r15,$r15,#0xa4e
    1b40:	4b e0 3c 01 	jral $lp,$r15
    1b44:	46 02 00 04 	sethi $r0,#0x20004
    1b48:	58 00 02 2c 	ori $r0,$r0,#0x22c
    1b4c:	b4 20       	lwi450 $r1,[$r0]
    1b4e:	05 f0 80 00 	lwi $sp,[$r1+#0x0]
    1b52:	64 02 00 43 	setgie.d
    1b56:	64 00 00 08 	dsb
    1b5a:	34 0f 90 02 	fldi.bi $fd0,[$sp],#0x8
    1b5e:	34 1f 90 02 	fldi.bi $fd1,[$sp],#0x8
    1b62:	34 2f 90 02 	fldi.bi $fd2,[$sp],#0x8
    1b66:	34 3f 90 02 	fldi.bi $fd3,[$sp],#0x8
    1b6a:	34 4f 90 02 	fldi.bi $fd4,[$sp],#0x8
    1b6e:	34 5f 90 02 	fldi.bi $fd5,[$sp],#0x8
    1b72:	34 6f 90 02 	fldi.bi $fd6,[$sp],#0x8
    1b76:	34 7f 90 02 	fldi.bi $fd7,[$sp],#0x8
    1b7a:	34 8f 90 02 	fldi.bi $fd8,[$sp],#0x8
    1b7e:	34 9f 90 02 	fldi.bi $fd9,[$sp],#0x8
    1b82:	34 af 90 02 	fldi.bi $fd10,[$sp],#0x8
    1b86:	34 bf 90 02 	fldi.bi $fd11,[$sp],#0x8
    1b8a:	34 cf 90 02 	fldi.bi $fd12,[$sp],#0x8
    1b8e:	34 df 90 02 	fldi.bi $fd13,[$sp],#0x8
    1b92:	34 ef 90 02 	fldi.bi $fd14,[$sp],#0x8
    1b96:	34 ff 90 02 	fldi.bi $fd15,[$sp],#0x8
    1b9a:	05 ff 80 00 	lwi $sp,[$sp+#0x0]
    1b9e:	3a 0f 88 04 	lmw.bim $r0,[$sp],$r2,#0x0    ! {$r0~$r2}
    1ba2:	64 12 a4 03 	mtsr $r1,$ipc
    1ba6:	64 22 04 03 	mtsr $r2,$ipsw
    1baa:	3a 2f 90 04 	lmw.bim $r2,[$sp],$r4,#0x0    ! {$r2~$r4}
    1bae:	42 2c 80 21 	mtusr $r2,$lb
    1bb2:	42 3d 00 21 	mtusr $r3,$le
    1bb6:	42 4d 80 21 	mtusr $r4,$lc
    1bba:	3a 0f 80 04 	lmw.bim $r0,[$sp],$r0,#0x0    ! {$r0}
    1bbe:	42 0e 80 21 	mtusr $r0,$ifc_lp
    1bc2:	3a 2f ef 84 	lmw.bim $r2,[$sp],$p1,#0xe    ! {$r2~$p1, $fp, $gp, $lp}
    1bc6:	3a 0f 84 04 	lmw.bim $r0,[$sp],$r1,#0x0    ! {$r0~$r1}
    1bca:	64 00 00 04 	iret
	...

00001bd0 <ISR_TABLE>:
    1bd0:	7c 22 00 00 	*unknown*
    1bd4:	9e 3f       	subi333 $r0,$r7,#0x7
    1bd6:	00 00 9e 3f 	lbi $r0,[$r1+#0x1e3f]
    1bda:	00 00 9e 3f 	lbi $r0,[$r1+#0x1e3f]
    1bde:	00 00 9e 3f 	lbi $r0,[$r1+#0x1e3f]
    1be2:	00 00 9e 3f 	lbi $r0,[$r1+#0x1e3f]
    1be6:	00 00 9e 3f 	lbi $r0,[$r1+#0x1e3f]
    1bea:	00 00 9e 3f 	lbi $r0,[$r1+#0x1e3f]
    1bee:	00 00 9e 3f 	lbi $r0,[$r1+#0x1e3f]
    1bf2:	00 00 ac 22 	lbi $r0,[$r1+#0x2c22]
    1bf6:	00 00 2c 23 	lbi $r0,[$r0+#0x2c23]
    1bfa:	00 00 c6 23 	lbi $r0,[$r1+#-14813]
    1bfe:	00 00 60 24 	lbi $r0,[$r0+#-8156]
    1c02:	00 00 fa 24 	lbi $r0,[$r1+#-1500]
    1c06:	00 00 94 25 	lbi $r0,[$r1+#0x1425]
    1c0a:	00 00 2e 26 	lbi $r0,[$r0+#0x2e26]
    1c0e:	00 00 c8 26 	lbi $r0,[$r1+#-14298]
    1c12:	00 00 52 28 	lbi $r0,[$r0+#-11736]
    1c16:	00 00 9e 3f 	lbi $r0,[$r1+#0x1e3f]
    1c1a:	00 00 9e 3f 	lbi $r0,[$r1+#0x1e3f]
    1c1e:	00 00 9e 3f 	lbi $r0,[$r1+#0x1e3f]
    1c22:	00 00 9e 3f 	lbi $r0,[$r1+#0x1e3f]
    1c26:	00 00 9e 3f 	lbi $r0,[$r1+#0x1e3f]
    1c2a:	00 00 9e 3f 	lbi $r0,[$r1+#0x1e3f]
    1c2e:	00 00 9e 3f 	lbi $r0,[$r1+#0x1e3f]
    1c32:	00 00 9e 3f 	lbi $r0,[$r1+#0x1e3f]
    1c36:	00 00 9e 3f 	lbi $r0,[$r1+#0x1e3f]
    1c3a:	00 00 9e 3f 	lbi $r0,[$r1+#0x1e3f]
    1c3e:	00 00 9e 3f 	lbi $r0,[$r1+#0x1e3f]
    1c42:	00 00 9e 3f 	lbi $r0,[$r1+#0x1e3f]
    1c46:	00 00 9e 3f 	lbi $r0,[$r1+#0x1e3f]
	...

00001c4c <OS_Trap_TLB_Fill>:
    1c4c:	3b ff fc fc 	smw.adm $sp,[$sp],$sp,#0x3    ! {$lp, $sp}
    1c50:	3a 0f d0 3c 	smw.adm $r0,[$sp],$r20,#0x0    ! {$r0~$r20}
    1c54:	80 1f       	mov55 $r0,$sp
    1c56:	84 21       	movi55 $r1,#0x1
    1c58:	48 00 11 a4 	j 3fa0 <ExceptionCommHandler>

00001c5c <OS_Trap_PTE_Not_Present>:
    1c5c:	3b ff fc fc 	smw.adm $sp,[$sp],$sp,#0x3    ! {$lp, $sp}
    1c60:	3a 0f d0 3c 	smw.adm $r0,[$sp],$r20,#0x0    ! {$r0~$r20}
    1c64:	80 1f       	mov55 $r0,$sp
    1c66:	84 22       	movi55 $r1,#0x2
    1c68:	48 00 11 9c 	j 3fa0 <ExceptionCommHandler>

00001c6c <OS_Trap_TLB_Misc>:
    1c6c:	3b ff fc fc 	smw.adm $sp,[$sp],$sp,#0x3    ! {$lp, $sp}
    1c70:	3a 0f d0 3c 	smw.adm $r0,[$sp],$r20,#0x0    ! {$r0~$r20}
    1c74:	80 1f       	mov55 $r0,$sp
    1c76:	84 23       	movi55 $r1,#0x3
    1c78:	48 00 11 94 	j 3fa0 <ExceptionCommHandler>

00001c7c <OS_Trap_TLB_VLPT_Miss>:
    1c7c:	3b ff fc fc 	smw.adm $sp,[$sp],$sp,#0x3    ! {$lp, $sp}
    1c80:	3a 0f d0 3c 	smw.adm $r0,[$sp],$r20,#0x0    ! {$r0~$r20}
    1c84:	80 1f       	mov55 $r0,$sp
    1c86:	84 24       	movi55 $r1,#0x4
    1c88:	48 00 11 8c 	j 3fa0 <ExceptionCommHandler>

00001c8c <OS_Trap_Machine_Error>:
    1c8c:	3b ff fc fc 	smw.adm $sp,[$sp],$sp,#0x3    ! {$lp, $sp}
    1c90:	3a 0f d0 3c 	smw.adm $r0,[$sp],$r20,#0x0    ! {$r0~$r20}
    1c94:	80 1f       	mov55 $r0,$sp
    1c96:	84 25       	movi55 $r1,#0x5
    1c98:	48 00 11 84 	j 3fa0 <ExceptionCommHandler>

00001c9c <OS_Trap_Debug_Related>:
    1c9c:	3b ff fc fc 	smw.adm $sp,[$sp],$sp,#0x3    ! {$lp, $sp}
    1ca0:	3a 0f d0 3c 	smw.adm $r0,[$sp],$r20,#0x0    ! {$r0~$r20}
    1ca4:	80 1f       	mov55 $r0,$sp
    1ca6:	84 26       	movi55 $r1,#0x6
    1ca8:	48 00 11 7c 	j 3fa0 <ExceptionCommHandler>

00001cac <OS_Trap_General_Exception>:
    1cac:	3b ff fc fc 	smw.adm $sp,[$sp],$sp,#0x3    ! {$lp, $sp}
    1cb0:	3a 0f d0 3c 	smw.adm $r0,[$sp],$r20,#0x0    ! {$r0~$r20}
    1cb4:	80 1f       	mov55 $r0,$sp
    1cb6:	84 27       	movi55 $r1,#0x7
    1cb8:	48 00 11 74 	j 3fa0 <ExceptionCommHandler>

00001cbc <OS_Trap_Syscall>:
    1cbc:	3b ff fc fc 	smw.adm $sp,[$sp],$sp,#0x3    ! {$lp, $sp}
    1cc0:	3a 0f d0 3c 	smw.adm $r0,[$sp],$r20,#0x0    ! {$r0~$r20}
    1cc4:	80 1f       	mov55 $r0,$sp
    1cc6:	84 28       	movi55 $r1,#0x8
    1cc8:	48 00 11 6c 	j 3fa0 <ExceptionCommHandler>

00001ccc <OS_Trap_Int_Comm>:
    1ccc:	3a 0f 84 3c 	smw.adm $r0,[$sp],$r1,#0x0    ! {$r0~$r1}
    1cd0:	64 12 04 02 	mfsr $r1,$ipsw
    1cd4:	54 10 a0 c0 	andi $r1,$r1,#0x20c0
    1cd8:	64 02 00 02 	mfsr $r0,$psw
    1cdc:	98 01       	add333 $r0,$r0,$r1
    1cde:	64 02 00 03 	mtsr $r0,$psw
    1ce2:	64 00 00 09 	isb
    1ce6:	3a 0f 84 04 	lmw.bim $r0,[$sp],$r1,#0x0    ! {$r0~$r1}
    1cea:	3a 1f 94 3c 	smw.adm $r1,[$sp],$r5,#0x0    ! {$r1~$r5}
    1cee:	3a ff ef bc 	smw.adm $r15,[$sp],$p1,#0xe    ! {$r15~$p1, $fp, $gp, $lp}
    1cf2:	42 2e 80 20 	mfusr $r2,$ifc_lp
    1cf6:	3a 2f 88 3c 	smw.adm $r2,[$sp],$r2,#0x0    ! {$r2}
    1cfa:	42 2c 80 20 	mfusr $r2,$lb
    1cfe:	42 3d 00 20 	mfusr $r3,$le
    1d02:	42 4d 80 20 	mfusr $r4,$lc
    1d06:	3a 2f 90 3c 	smw.adm $r2,[$sp],$r4,#0x0    ! {$r2~$r4}
    1d0a:	64 12 a4 02 	mfsr $r1,$ipc
    1d0e:	64 22 04 02 	mfsr $r2,$ipsw
    1d12:	3a 1f 88 3c 	smw.adm $r1,[$sp],$r2,#0x0    ! {$r1~$r2}
    1d16:	64 12 00 02 	mfsr $r1,$psw
    1d1a:	9e 49       	subi333 $r1,$r1,#0x1
    1d1c:	64 12 00 03 	mtsr $r1,$psw
    1d20:	80 5f       	mov55 $r2,$sp
    1d22:	ef fc       	addi10.sp #-4
    1d24:	43 ff 88 09 	bclr $sp,$sp,#0x2
    1d28:	b6 5f       	swi450 $r2,[$sp]
    1d2a:	ef f8       	addi10.sp #-8
    1d2c:	36 ff 9f fe 	fsdi.bi $fd15,[$sp],#-8
    1d30:	36 ef 9f fe 	fsdi.bi $fd14,[$sp],#-8
    1d34:	36 df 9f fe 	fsdi.bi $fd13,[$sp],#-8
    1d38:	36 cf 9f fe 	fsdi.bi $fd12,[$sp],#-8
    1d3c:	36 bf 9f fe 	fsdi.bi $fd11,[$sp],#-8
    1d40:	36 2f 9f fe 	fsdi.bi $fd2,[$sp],#-8
    1d44:	36 1f 9f fe 	fsdi.bi $fd1,[$sp],#-8
    1d48:	36 0f 80 00 	fsdi $fd0,[$sp+#0x0]
    1d4c:	44 10 1b d0 	movi $r1,#0x1bd0
    1d50:	38 10 82 02 	lw $r1,[$r1+($r0<<#0x2)]
    1d54:	dd 21       	jral5 $r1
    1d56:	34 0f 90 02 	fldi.bi $fd0,[$sp],#0x8
    1d5a:	34 1f 90 02 	fldi.bi $fd1,[$sp],#0x8
    1d5e:	34 2f 90 02 	fldi.bi $fd2,[$sp],#0x8
    1d62:	34 bf 90 02 	fldi.bi $fd11,[$sp],#0x8
    1d66:	34 cf 90 02 	fldi.bi $fd12,[$sp],#0x8
    1d6a:	34 df 90 02 	fldi.bi $fd13,[$sp],#0x8
    1d6e:	34 ef 90 02 	fldi.bi $fd14,[$sp],#0x8
    1d72:	34 ff 90 02 	fldi.bi $fd15,[$sp],#0x8
    1d76:	05 ff 80 00 	lwi $sp,[$sp+#0x0]
    1d7a:	3a 0f 84 04 	lmw.bim $r0,[$sp],$r1,#0x0    ! {$r0~$r1}
    1d7e:	64 02 00 43 	setgie.d
    1d82:	64 00 00 08 	dsb
    1d86:	64 02 a4 03 	mtsr $r0,$ipc
    1d8a:	64 12 04 03 	mtsr $r1,$ipsw
    1d8e:	3a 2f 90 04 	lmw.bim $r2,[$sp],$r4,#0x0    ! {$r2~$r4}
    1d92:	42 2c 80 21 	mtusr $r2,$lb
    1d96:	42 3d 00 21 	mtusr $r3,$le
    1d9a:	42 4d 80 21 	mtusr $r4,$lc
    1d9e:	3a 2f 88 04 	lmw.bim $r2,[$sp],$r2,#0x0    ! {$r2}
    1da2:	42 2e 80 21 	mtusr $r2,$ifc_lp
    1da6:	3a ff ef 84 	lmw.bim $r15,[$sp],$p1,#0xe    ! {$r15~$p1, $fp, $gp, $lp}
    1daa:	3a 1f 94 04 	lmw.bim $r1,[$sp],$r5,#0x0    ! {$r1~$r5}
    1dae:	3a 0f 80 04 	lmw.bim $r0,[$sp],$r0,#0x0    ! {$r0}
    1db2:	64 00 00 04 	iret

00001db6 <OS_Trap_Interrupt_HW0>:
    1db6:	3a 0f 80 3c 	smw.adm $r0,[$sp],$r0,#0x0    ! {$r0}
    1dba:	84 00       	movi55 $r0,#0x0
    1dbc:	48 ff ff 88 	j 1ccc <OS_Trap_Int_Comm>

00001dc0 <OS_Trap_Interrupt_HW1>:
    1dc0:	3a 0f 80 3c 	smw.adm $r0,[$sp],$r0,#0x0    ! {$r0}
    1dc4:	84 01       	movi55 $r0,#0x1
    1dc6:	48 ff ff 83 	j 1ccc <OS_Trap_Int_Comm>

00001dca <OS_Trap_Interrupt_HW2>:
    1dca:	3a 0f 80 3c 	smw.adm $r0,[$sp],$r0,#0x0    ! {$r0}
    1dce:	84 02       	movi55 $r0,#0x2
    1dd0:	48 ff ff 7e 	j 1ccc <OS_Trap_Int_Comm>

00001dd4 <OS_Trap_Interrupt_HW3>:
    1dd4:	3a 0f 80 3c 	smw.adm $r0,[$sp],$r0,#0x0    ! {$r0}
    1dd8:	84 03       	movi55 $r0,#0x3
    1dda:	48 ff ff 79 	j 1ccc <OS_Trap_Int_Comm>

00001dde <OS_Trap_Interrupt_HW4>:
    1dde:	3a 0f 80 3c 	smw.adm $r0,[$sp],$r0,#0x0    ! {$r0}
    1de2:	84 04       	movi55 $r0,#0x4
    1de4:	48 ff ff 74 	j 1ccc <OS_Trap_Int_Comm>

00001de8 <OS_Trap_Interrupt_HW5>:
    1de8:	3a 0f 84 3c 	smw.adm $r0,[$sp],$r1,#0x0    ! {$r0~$r1}
    1dec:	3a 0f 84 3c 	smw.adm $r0,[$sp],$r1,#0x0    ! {$r0~$r1}
    1df0:	64 12 04 02 	mfsr $r1,$ipsw
    1df4:	54 10 a0 c0 	andi $r1,$r1,#0x20c0
    1df8:	64 02 00 02 	mfsr $r0,$psw
    1dfc:	98 01       	add333 $r0,$r0,$r1
    1dfe:	64 02 00 03 	mtsr $r0,$psw
    1e02:	64 00 00 09 	isb
    1e06:	3a 0f 84 04 	lmw.bim $r0,[$sp],$r1,#0x0    ! {$r0~$r1}
    1e0a:	48 ff fe 41 	j 1a8c <OS_Trap_Interrupt_SWI>

00001e0e <OS_Trap_Interrupt_HW6>:
    1e0e:	3a 0f 80 3c 	smw.adm $r0,[$sp],$r0,#0x0    ! {$r0}
    1e12:	84 06       	movi55 $r0,#0x6
    1e14:	48 ff ff 5c 	j 1ccc <OS_Trap_Int_Comm>

00001e18 <OS_Trap_Interrupt_HW7>:
    1e18:	3a 0f 80 3c 	smw.adm $r0,[$sp],$r0,#0x0    ! {$r0}
    1e1c:	84 07       	movi55 $r0,#0x7
    1e1e:	48 ff ff 57 	j 1ccc <OS_Trap_Int_Comm>

00001e22 <OS_Trap_Interrupt_HW8>:
    1e22:	3a 0f 80 3c 	smw.adm $r0,[$sp],$r0,#0x0    ! {$r0}
    1e26:	84 08       	movi55 $r0,#0x8
    1e28:	48 ff ff 52 	j 1ccc <OS_Trap_Int_Comm>

00001e2c <OS_Trap_Interrupt_HW9>:
    1e2c:	3a 0f 80 3c 	smw.adm $r0,[$sp],$r0,#0x0    ! {$r0}
    1e30:	84 09       	movi55 $r0,#0x9
    1e32:	48 ff ff 4d 	j 1ccc <OS_Trap_Int_Comm>

00001e36 <OS_Trap_Interrupt_HW10>:
    1e36:	3a 0f 80 3c 	smw.adm $r0,[$sp],$r0,#0x0    ! {$r0}
    1e3a:	84 0a       	movi55 $r0,#0xa
    1e3c:	48 ff ff 48 	j 1ccc <OS_Trap_Int_Comm>

00001e40 <OS_Trap_Interrupt_HW11>:
    1e40:	3a 0f 80 3c 	smw.adm $r0,[$sp],$r0,#0x0    ! {$r0}
    1e44:	84 0b       	movi55 $r0,#0xb
    1e46:	48 ff ff 43 	j 1ccc <OS_Trap_Int_Comm>

00001e4a <OS_Trap_Interrupt_HW12>:
    1e4a:	3a 0f 80 3c 	smw.adm $r0,[$sp],$r0,#0x0    ! {$r0}
    1e4e:	84 0c       	movi55 $r0,#0xc
    1e50:	48 ff ff 3e 	j 1ccc <OS_Trap_Int_Comm>

00001e54 <OS_Trap_Interrupt_HW13>:
    1e54:	3a 0f 80 3c 	smw.adm $r0,[$sp],$r0,#0x0    ! {$r0}
    1e58:	84 0d       	movi55 $r0,#0xd
    1e5a:	48 ff ff 39 	j 1ccc <OS_Trap_Int_Comm>

00001e5e <OS_Trap_Interrupt_HW14>:
    1e5e:	3a 0f 80 3c 	smw.adm $r0,[$sp],$r0,#0x0    ! {$r0}
    1e62:	84 0e       	movi55 $r0,#0xe
    1e64:	48 ff ff 34 	j 1ccc <OS_Trap_Int_Comm>

00001e68 <OS_Trap_Interrupt_HW15>:
    1e68:	3a 0f 80 3c 	smw.adm $r0,[$sp],$r0,#0x0    ! {$r0}
    1e6c:	84 0f       	movi55 $r0,#0xf
    1e6e:	48 ff ff 2f 	j 1ccc <OS_Trap_Int_Comm>

00001e72 <OS_Trap_Interrupt_HW16>:
    1e72:	3a 0f 80 3c 	smw.adm $r0,[$sp],$r0,#0x0    ! {$r0}
    1e76:	fa 00       	movpi45 $r0,#0x10
    1e78:	48 ff ff 2a 	j 1ccc <OS_Trap_Int_Comm>

00001e7c <OS_Trap_Interrupt_HW17>:
    1e7c:	3a 0f 80 3c 	smw.adm $r0,[$sp],$r0,#0x0    ! {$r0}
    1e80:	fa 01       	movpi45 $r0,#0x11
    1e82:	48 ff ff 25 	j 1ccc <OS_Trap_Int_Comm>

00001e86 <OS_Trap_Interrupt_HW18>:
    1e86:	3a 0f 80 3c 	smw.adm $r0,[$sp],$r0,#0x0    ! {$r0}
    1e8a:	fa 02       	movpi45 $r0,#0x12
    1e8c:	48 ff ff 20 	j 1ccc <OS_Trap_Int_Comm>

00001e90 <OS_Trap_Interrupt_HW19>:
    1e90:	3a 0f 80 3c 	smw.adm $r0,[$sp],$r0,#0x0    ! {$r0}
    1e94:	fa 03       	movpi45 $r0,#0x13
    1e96:	48 ff ff 1b 	j 1ccc <OS_Trap_Int_Comm>

00001e9a <OS_Trap_Interrupt_HW20>:
    1e9a:	3a 0f 80 3c 	smw.adm $r0,[$sp],$r0,#0x0    ! {$r0}
    1e9e:	fa 04       	movpi45 $r0,#0x14
    1ea0:	48 ff ff 16 	j 1ccc <OS_Trap_Int_Comm>

00001ea4 <OS_Trap_Interrupt_HW21>:
    1ea4:	3a 0f 80 3c 	smw.adm $r0,[$sp],$r0,#0x0    ! {$r0}
    1ea8:	fa 05       	movpi45 $r0,#0x15
    1eaa:	48 ff ff 11 	j 1ccc <OS_Trap_Int_Comm>

00001eae <OS_Trap_Interrupt_HW22>:
    1eae:	3a 0f 80 3c 	smw.adm $r0,[$sp],$r0,#0x0    ! {$r0}
    1eb2:	fa 06       	movpi45 $r0,#0x16
    1eb4:	48 ff ff 0c 	j 1ccc <OS_Trap_Int_Comm>

00001eb8 <OS_Trap_Interrupt_HW23>:
    1eb8:	3a 0f 80 3c 	smw.adm $r0,[$sp],$r0,#0x0    ! {$r0}
    1ebc:	fa 07       	movpi45 $r0,#0x17
    1ebe:	48 ff ff 07 	j 1ccc <OS_Trap_Int_Comm>

00001ec2 <OS_Trap_Interrupt_HW24>:
    1ec2:	3a 0f 80 3c 	smw.adm $r0,[$sp],$r0,#0x0    ! {$r0}
    1ec6:	fa 08       	movpi45 $r0,#0x18
    1ec8:	48 ff ff 02 	j 1ccc <OS_Trap_Int_Comm>

00001ecc <OS_Trap_Interrupt_HW25>:
    1ecc:	3a 0f 80 3c 	smw.adm $r0,[$sp],$r0,#0x0    ! {$r0}
    1ed0:	fa 09       	movpi45 $r0,#0x19
    1ed2:	48 ff fe fd 	j 1ccc <OS_Trap_Int_Comm>

00001ed6 <OS_Trap_Interrupt_HW26>:
    1ed6:	3a 0f 80 3c 	smw.adm $r0,[$sp],$r0,#0x0    ! {$r0}
    1eda:	fa 0a       	movpi45 $r0,#0x1a
    1edc:	48 ff fe f8 	j 1ccc <OS_Trap_Int_Comm>

00001ee0 <OS_Trap_Interrupt_HW27>:
    1ee0:	3a 0f 80 3c 	smw.adm $r0,[$sp],$r0,#0x0    ! {$r0}
    1ee4:	fa 0b       	movpi45 $r0,#0x1b
    1ee6:	48 ff fe f3 	j 1ccc <OS_Trap_Int_Comm>

00001eea <OS_Trap_Interrupt_HW28>:
    1eea:	3a 0f 80 3c 	smw.adm $r0,[$sp],$r0,#0x0    ! {$r0}
    1eee:	fa 0c       	movpi45 $r0,#0x1c
    1ef0:	48 ff fe ee 	j 1ccc <OS_Trap_Int_Comm>

00001ef4 <OS_Trap_Interrupt_HW29>:
    1ef4:	3a 0f 80 3c 	smw.adm $r0,[$sp],$r0,#0x0    ! {$r0}
    1ef8:	fa 0d       	movpi45 $r0,#0x1d
    1efa:	48 ff fe e9 	j 1ccc <OS_Trap_Int_Comm>

00001efe <OS_Trap_Interrupt_HW30>:
    1efe:	3a 0f 80 3c 	smw.adm $r0,[$sp],$r0,#0x0    ! {$r0}
    1f02:	fa 0e       	movpi45 $r0,#0x1e
    1f04:	48 ff fe e4 	j 1ccc <OS_Trap_Int_Comm>

00001f08 <OS_Trap_Interrupt_HW31>:
    1f08:	3a 0f 80 3c 	smw.adm $r0,[$sp],$r0,#0x0    ! {$r0}
    1f0c:	44 00 00 1f 	movi $r0,#0x1f
    1f10:	48 ff fe de 	j 1ccc <OS_Trap_Int_Comm>

00001f14 <___start>:
    1f14:	47 d2 00 04 	sethi $gp,#0x20004
    1f18:	59 de 81 f8 	ori $gp,$gp,#0x1f8
    1f1c:	64 00 80 02 	mfsr $r0,$msc_cfg
    1f20:	46 10 10 00 	sethi $r1,#0x1000
    1f24:	40 20 04 02 	and $r2,$r0,$r1
    1f28:	c2 04       	beqz38 $r2,1f30 <___start+0x1c>
    1f2a:	84 00       	movi55 $r0,#0x0
    1f2c:	42 0e 00 21 	mtusr $r0,$itb
    1f30:	64 08 a0 02 	mfsr $r0,$fucpr
    1f34:	58 00 00 01 	ori $r0,$r0,#0x1
    1f38:	64 08 a0 03 	mtsr $r0,$fucpr
    1f3c:	64 00 00 08 	dsb
    1f40:	6a 00 07 01 	fmfcsr $r0
    1f44:	58 00 10 00 	ori $r0,$r0,#0x1000
    1f48:	6a 00 07 09 	fmtcsr $r0
    1f4c:	64 00 00 08 	dsb
    1f50:	3f ff fe 08 	addi.gp $sp,#-504
    1f54:	84 00       	movi55 $r0,#0x0
    1f56:	64 05 e4 03 	mtsr $r0,$misc_ctl
    1f5a:	49 00 11 b5 	jal 42c4 <__init>
    1f5e:	49 00 0f a7 	jal 3eac <main>
    1f62:	d5 00       	j8 1f62 <___start+0x4e>

Disassembly of section .deepsleep_section:

00001f64 <Clock_DeepSleepSysClkSelect>:
    1f64:	ca 61       	bnez38 $r2,2026 <Clock_DeepSleepSysClkSelect+0xc2>
    1f66:	5a 08 01 18 	bnec $r0,#0x1,1f96 <Clock_DeepSleepSysClkSelect+0x32>
    1f6a:	46 04 00 26 	sethi $r0,#0x40026
    1f6e:	04 00 00 0d 	lwi $r0,[$r0+#0x34]
    1f72:	96 04       	xlsb33 $r0,$r0
    1f74:	5a 08 01 6b 	bnec $r0,#0x1,204a <Clock_DeepSleepSysClkSelect+0xe6>
    1f78:	46 04 00 21 	sethi $r0,#0x40021
    1f7c:	04 20 00 09 	lwi $r2,[$r0+#0x24]
    1f80:	66 21 00 02 	bitci $r2,$r2,#0x2
    1f84:	14 20 00 09 	swi $r2,[$r0+#0x24]
    1f88:	04 20 00 09 	lwi $r2,[$r0+#0x24]
    1f8c:	58 21 00 01 	ori $r2,$r2,#0x1
    1f90:	14 20 00 09 	swi $r2,[$r0+#0x24]
    1f94:	d5 17       	j8 1fc2 <Clock_DeepSleepSysClkSelect+0x5e>
    1f96:	5a 08 02 5c 	bnec $r0,#0x2,204e <Clock_DeepSleepSysClkSelect+0xea>
    1f9a:	46 04 00 32 	sethi $r0,#0x40032
    1f9e:	04 00 00 0d 	lwi $r0,[$r0+#0x34]
    1fa2:	96 04       	xlsb33 $r0,$r0
    1fa4:	c0 57       	beqz38 $r0,2052 <Clock_DeepSleepSysClkSelect+0xee>
    1fa6:	46 04 00 21 	sethi $r0,#0x40021
    1faa:	04 20 00 09 	lwi $r2,[$r0+#0x24]
    1fae:	58 21 00 02 	ori $r2,$r2,#0x2
    1fb2:	14 20 00 09 	swi $r2,[$r0+#0x24]
    1fb6:	04 20 00 09 	lwi $r2,[$r0+#0x24]
    1fba:	58 21 00 01 	ori $r2,$r2,#0x1
    1fbe:	14 20 00 09 	swi $r2,[$r0+#0x24]
    1fc2:	5a 18 01 19 	bnec $r1,#0x1,1ff4 <Clock_DeepSleepSysClkSelect+0x90>
    1fc6:	46 04 00 26 	sethi $r0,#0x40026
    1fca:	04 00 00 0d 	lwi $r0,[$r0+#0x34]
    1fce:	96 04       	xlsb33 $r0,$r0
    1fd0:	5a 08 01 43 	bnec $r0,#0x1,2056 <Clock_DeepSleepSysClkSelect+0xf2>
    1fd4:	46 04 00 21 	sethi $r0,#0x40021
    1fd8:	04 10 00 09 	lwi $r1,[$r0+#0x24]
    1fdc:	66 10 80 08 	bitci $r1,$r1,#0x8
    1fe0:	14 10 00 09 	swi $r1,[$r0+#0x24]
    1fe4:	04 10 00 09 	lwi $r1,[$r0+#0x24]
    1fe8:	58 10 80 04 	ori $r1,$r1,#0x4
    1fec:	14 10 00 09 	swi $r1,[$r0+#0x24]
    1ff0:	84 01       	movi55 $r0,#0x1
    1ff2:	dd 9e       	ret5 $lp
    1ff4:	5a 18 02 33 	bnec $r1,#0x2,205a <Clock_DeepSleepSysClkSelect+0xf6>
    1ff8:	46 04 00 32 	sethi $r0,#0x40032
    1ffc:	04 00 00 0d 	lwi $r0,[$r0+#0x34]
    2000:	96 04       	xlsb33 $r0,$r0
    2002:	5a 08 01 2e 	bnec $r0,#0x1,205e <Clock_DeepSleepSysClkSelect+0xfa>
    2006:	46 04 00 21 	sethi $r0,#0x40021
    200a:	04 10 00 09 	lwi $r1,[$r0+#0x24]
    200e:	58 10 80 08 	ori $r1,$r1,#0x8
    2012:	14 10 00 09 	swi $r1,[$r0+#0x24]
    2016:	04 10 00 09 	lwi $r1,[$r0+#0x24]
    201a:	58 10 80 04 	ori $r1,$r1,#0x4
    201e:	14 10 00 09 	swi $r1,[$r0+#0x24]
    2022:	84 01       	movi55 $r0,#0x1
    2024:	dd 9e       	ret5 $lp
    2026:	fe 47       	or33 $r1,$r0
    2028:	c9 1d       	bnez38 $r1,2062 <Clock_DeepSleepSysClkSelect+0xfe>
    202a:	46 04 00 21 	sethi $r0,#0x40021
    202e:	04 10 00 09 	lwi $r1,[$r0+#0x24]
    2032:	66 10 80 04 	bitci $r1,$r1,#0x4
    2036:	14 10 00 09 	swi $r1,[$r0+#0x24]
    203a:	04 10 00 09 	lwi $r1,[$r0+#0x24]
    203e:	66 10 80 01 	bitci $r1,$r1,#0x1
    2042:	14 10 00 09 	swi $r1,[$r0+#0x24]
    2046:	84 01       	movi55 $r0,#0x1
    2048:	dd 9e       	ret5 $lp
    204a:	84 00       	movi55 $r0,#0x0
    204c:	dd 9e       	ret5 $lp
    204e:	84 00       	movi55 $r0,#0x0
    2050:	dd 9e       	ret5 $lp
    2052:	84 00       	movi55 $r0,#0x0
    2054:	dd 9e       	ret5 $lp
    2056:	84 00       	movi55 $r0,#0x0
    2058:	dd 9e       	ret5 $lp
    205a:	84 00       	movi55 $r0,#0x0
    205c:	dd 9e       	ret5 $lp
    205e:	84 00       	movi55 $r0,#0x0
    2060:	dd 9e       	ret5 $lp
    2062:	84 00       	movi55 $r0,#0x0
    2064:	dd 9e       	ret5 $lp

Disassembly of section .tcm_section:

00002068 <Clock_CoreClkDivSet>:
    2068:	44 20 01 00 	movi $r2,#0x100
    206c:	40 11 00 06 	slt $r1,$r2,$r0
    2070:	40 01 04 1b 	cmovn $r0,$r2,$r1
    2074:	c0 05       	beqz38 $r0,207e <Clock_CoreClkDivSet+0x16>
    2076:	8e 01       	subi45 $r0,#0x1
    2078:	46 14 00 21 	sethi $r1,#0x40021
    207c:	a8 0a       	swi333 $r0,[$r1+#0x8]
    207e:	dd 9e       	ret5 $lp

00002080 <Clock_CoreClkDivGet>:
    2080:	46 04 00 21 	sethi $r0,#0x40021
    2084:	a0 02       	lwi333 $r0,[$r0+#0x8]
    2086:	8c 01       	addi45 $r0,#0x1
    2088:	dd 9e       	ret5 $lp

0000208a <Clock_SysClkDivGet>:
    208a:	46 04 00 21 	sethi $r0,#0x40021
    208e:	04 00 00 09 	lwi $r0,[$r0+#0x24]
    2092:	42 00 34 0b 	btst $r0,$r0,#0xd
    2096:	5a 00 01 07 	beqc $r0,#0x1,20a4 <Clock_SysClkDivGet+0x1a>
    209a:	46 04 00 21 	sethi $r0,#0x40021
    209e:	a0 03       	lwi333 $r0,[$r0+#0xc]
    20a0:	8c 01       	addi45 $r0,#0x1
    20a2:	dd 9e       	ret5 $lp
    20a4:	84 01       	movi55 $r0,#0x1
    20a6:	dd 9e       	ret5 $lp

000020a8 <Clock_PllFreqGet>:
    20a8:	3c 0d ff 8c 	lwi.gp $r0,[+#-464]
    20ac:	dd 9e       	ret5 $lp

000020ae <Clock_APllFreqGet>:
    20ae:	3c 0d ff 8b 	lwi.gp $r0,[+#-468]
    20b2:	dd 9e       	ret5 $lp

000020b4 <Clock_CoreClockFreqGet>:
    20b4:	3a 6f 98 bc 	smw.adm $r6,[$sp],$r6,#0x2    ! {$r6, $lp}
    20b8:	ef f8       	addi10.sp #-8
    20ba:	46 04 00 21 	sethi $r0,#0x40021
    20be:	50 00 00 24 	addi $r0,$r0,#0x24
    20c2:	b4 00       	lwi450 $r0,[$r0]
    20c4:	96 04       	xlsb33 $r0,$r0
    20c6:	96 00       	zeb33 $r0,$r0
    20c8:	5a 08 01 1e 	bnec $r0,#0x1,2104 <Clock_CoreClockFreqGet+0x50>
    20cc:	46 04 00 21 	sethi $r0,#0x40021
    20d0:	50 00 00 24 	addi $r0,$r0,#0x24
    20d4:	b4 00       	lwi450 $r0,[$r0]
    20d6:	92 01       	srli45 $r0,#0x1
    20d8:	96 04       	xlsb33 $r0,$r0
    20da:	96 00       	zeb33 $r0,$r0
    20dc:	5a 08 01 0b 	bnec $r0,#0x1,20f2 <Clock_CoreClockFreqGet+0x3e>
    20e0:	49 ff ff e7 	jal 20ae <Clock_APllFreqGet>
    20e4:	80 c0       	mov55 $r6,$r0
    20e6:	49 ff ff cd 	jal 2080 <Clock_CoreClkDivGet>
    20ea:	40 03 00 37 	divr $r0,$r1,$r6,$r0
    20ee:	f0 81       	swi37.sp $r0,[+#0x4]
    20f0:	d5 13       	j8 2116 <Clock_CoreClockFreqGet+0x62>
    20f2:	49 ff ff db 	jal 20a8 <Clock_PllFreqGet>
    20f6:	80 c0       	mov55 $r6,$r0
    20f8:	49 ff ff c4 	jal 2080 <Clock_CoreClkDivGet>
    20fc:	40 03 00 37 	divr $r0,$r1,$r6,$r0
    2100:	f0 81       	swi37.sp $r0,[+#0x4]
    2102:	d5 0a       	j8 2116 <Clock_CoreClockFreqGet+0x62>
    2104:	84 00       	movi55 $r0,#0x0
    2106:	49 00 12 06 	jal 4512 <Clock_RcFreqGet>
    210a:	80 c0       	mov55 $r6,$r0
    210c:	49 ff ff ba 	jal 2080 <Clock_CoreClkDivGet>
    2110:	40 03 00 37 	divr $r0,$r1,$r6,$r0
    2114:	f0 81       	swi37.sp $r0,[+#0x4]
    2116:	f0 01       	lwi37.sp $r0,[+#0x4]
    2118:	ec 08       	addi10.sp #0x8
    211a:	3a 6f 98 84 	lmw.bim $r6,[$sp],$r6,#0x2    ! {$r6, $lp}
    211e:	dd 9e       	ret5 $lp

00002120 <Clock_SysClockFreqGet>:
    2120:	3b ff fc bc 	smw.adm $sp,[$sp],$sp,#0x2    ! {$lp}
    2124:	ef f4       	addi10.sp #-12
    2126:	49 ff ff c7 	jal 20b4 <Clock_CoreClockFreqGet>
    212a:	f0 81       	swi37.sp $r0,[+#0x4]
    212c:	46 04 00 21 	sethi $r0,#0x40021
    2130:	50 00 00 24 	addi $r0,$r0,#0x24
    2134:	b4 00       	lwi450 $r0,[$r0]
    2136:	92 0d       	srli45 $r0,#0xd
    2138:	96 04       	xlsb33 $r0,$r0
    213a:	96 00       	zeb33 $r0,$r0
    213c:	c8 08       	bnez38 $r0,214c <Clock_SysClockFreqGet+0x2c>
    213e:	49 ff ff a6 	jal 208a <Clock_SysClkDivGet>
    2142:	80 20       	mov55 $r1,$r0
    2144:	f0 01       	lwi37.sp $r0,[+#0x4]
    2146:	40 00 04 37 	divr $r0,$r1,$r0,$r1
    214a:	f0 81       	swi37.sp $r0,[+#0x4]
    214c:	f0 01       	lwi37.sp $r0,[+#0x4]
    214e:	ec 0c       	addi10.sp #0xc
    2150:	3b ff fc 84 	lmw.bim $sp,[$sp],$sp,#0x2    ! {$lp}
    2154:	dd 9e       	ret5 $lp

00002156 <Clock_SysClkDivSet>:
    2156:	44 20 00 40 	movi $r2,#0x40
    215a:	40 11 00 06 	slt $r1,$r2,$r0
    215e:	40 01 04 1b 	cmovn $r0,$r2,$r1
    2162:	5c 10 00 02 	slti $r1,$r0,#0x2
    2166:	c1 16       	beqz38 $r1,2192 <Clock_SysClkDivSet+0x3c>
    2168:	3b ff fc bc 	smw.adm $sp,[$sp],$sp,#0x2    ! {$lp}
    216c:	ef fc       	addi10.sp #-4
    216e:	49 ff ff a3 	jal 20b4 <Clock_CoreClockFreqGet>
    2172:	46 10 89 54 	sethi $r1,#0x8954
    2176:	50 10 83 ff 	addi $r1,$r1,#0x3ff
    217a:	40 00 80 06 	slt $r0,$r1,$r0
    217e:	c8 15       	bnez38 $r0,21a8 <Clock_SysClkDivSet+0x52>
    2180:	46 14 00 21 	sethi $r1,#0x40021
    2184:	04 00 80 09 	lwi $r0,[$r1+#0x24]
    2188:	58 00 20 00 	ori $r0,$r0,#0x2000
    218c:	14 00 80 09 	swi $r0,[$r1+#0x24]
    2190:	d5 0c       	j8 21a8 <Clock_SysClkDivSet+0x52>
    2192:	8e 01       	subi45 $r0,#0x1
    2194:	46 14 00 21 	sethi $r1,#0x40021
    2198:	a8 0b       	swi333 $r0,[$r1+#0xc]
    219a:	04 00 80 09 	lwi $r0,[$r1+#0x24]
    219e:	66 00 20 00 	bitci $r0,$r0,#0x2000
    21a2:	14 00 80 09 	swi $r0,[$r1+#0x24]
    21a6:	dd 9e       	ret5 $lp
    21a8:	ec 04       	addi10.sp #0x4
    21aa:	3b ff fc 84 	lmw.bim $sp,[$sp],$sp,#0x2    ! {$lp}
    21ae:	dd 9e       	ret5 $lp

000021b0 <GPIO_RegOneBitSet>:
    21b0:	46 34 00 10 	sethi $r3,#0x40010
    21b4:	38 21 82 02 	lw $r2,[$r3+($r0<<#0x2)]
    21b8:	fe 57       	or33 $r1,$r2
    21ba:	38 11 82 0a 	sw $r1,[$r3+($r0<<#0x2)]
    21be:	dd 9e       	ret5 $lp

000021c0 <GPIO_RegOneBitClear>:
    21c0:	46 34 00 10 	sethi $r3,#0x40010
    21c4:	38 21 82 02 	lw $r2,[$r3+($r0<<#0x2)]
    21c8:	40 11 04 12 	bitc $r1,$r2,$r1
    21cc:	38 11 82 0a 	sw $r1,[$r3+($r0<<#0x2)]
    21d0:	dd 9e       	ret5 $lp
	...

000021d4 <__udelay>:
    21d4:	c0 28       	beqz38 $r0,2224 <__udelay+0x50>
    21d6:	3a 6f 98 bc 	smw.adm $r6,[$sp],$r6,#0x2    ! {$r6, $lp}
    21da:	46 14 00 21 	sethi $r1,#0x40021
    21de:	04 10 80 09 	lwi $r1,[$r1+#0x24]
    21e2:	96 4c       	xlsb33 $r1,$r1
    21e4:	5a 18 01 11 	bnec $r1,#0x1,2206 <__udelay+0x32>
    21e8:	80 c0       	mov55 $r6,$r0
    21ea:	49 ff ff 65 	jal 20b4 <Clock_CoreClockFreqGet>
    21ee:	66 00 00 01 	bitci $r0,$r0,#0x1
    21f2:	46 14 31 bd 	sethi $r1,#0x431bd
    21f6:	50 10 8e 83 	addi $r1,$r1,#0xe83
    21fa:	42 00 04 69 	mulr64 $r0,$r0,$r1
    21fe:	92 33       	srli45 $r1,#0x13
    2200:	42 00 98 24 	mul $r0,$r1,$r6
    2204:	d5 03       	j8 220a <__udelay+0x36>
    2206:	84 26       	movi55 $r1,#0x6
    2208:	fe 0c       	mul33 $r0,$r1
    220a:	5c f0 00 97 	slti $r15,$r0,#0x97
    220e:	e9 03       	bnezs8 2214 <__udelay+0x40>
    2210:	50 00 7f 6a 	addi $r0,$r0,#-150
    2214:	4e 02 00 06 	beqz $r0,2220 <__udelay+0x4c>
    2218:	50 00 7f ff 	addi $r0,$r0,#-1
    221c:	4e 06 ff fe 	bgtz $r0,2218 <__udelay+0x44>
    2220:	3a 6f 98 84 	lmw.bim $r6,[$sp],$r6,#0x2    ! {$r6, $lp}
    2224:	dd 9e       	ret5 $lp

00002226 <DelayMs>:
    2226:	c0 29       	beqz38 $r0,2278 <DelayMs+0x52>
    2228:	3a 6f 98 bc 	smw.adm $r6,[$sp],$r6,#0x2    ! {$r6, $lp}
    222c:	46 14 00 21 	sethi $r1,#0x40021
    2230:	04 10 80 09 	lwi $r1,[$r1+#0x24]
    2234:	96 4c       	xlsb33 $r1,$r1
    2236:	5a 18 01 11 	bnec $r1,#0x1,2258 <DelayMs+0x32>
    223a:	80 c0       	mov55 $r6,$r0
    223c:	49 ff ff 3c 	jal 20b4 <Clock_CoreClockFreqGet>
    2240:	66 00 00 01 	bitci $r0,$r0,#0x1
    2244:	46 11 06 24 	sethi $r1,#0x10624
    2248:	50 10 8d d3 	addi $r1,$r1,#0xdd3
    224c:	42 00 04 69 	mulr64 $r0,$r0,$r1
    2250:	92 27       	srli45 $r1,#0x7
    2252:	42 00 98 24 	mul $r0,$r1,$r6
    2256:	d5 04       	j8 225e <DelayMs+0x38>
    2258:	44 10 17 70 	movi $r1,#0x1770
    225c:	fe 0c       	mul33 $r0,$r1
    225e:	5c f0 00 97 	slti $r15,$r0,#0x97
    2262:	e9 03       	bnezs8 2268 <DelayMs+0x42>
    2264:	50 00 7f 6a 	addi $r0,$r0,#-150
    2268:	4e 02 00 06 	beqz $r0,2274 <DelayMs+0x4e>
    226c:	50 00 7f ff 	addi $r0,$r0,#-1
    2270:	4e 06 ff fe 	bgtz $r0,226c <DelayMs+0x46>
    2274:	3a 6f 98 84 	lmw.bim $r6,[$sp],$r6,#0x2    ! {$r6, $lp}
    2278:	dd 9e       	ret5 $lp
    227a:	92 00       	nop16

Disassembly of section .driver.isr:

0000227c <SystickInterrupt>:
    227c:	3a 6f 98 bc 	smw.adm $r6,[$sp],$r6,#0x2    ! {$r6, $lp}
    2280:	49 00 19 f8 	jal 5670 <SysTimerIntFlagClear>
    2284:	3c 0c 00 18 	lwi.gp $r0,[+#0x60]
    2288:	8c 01       	addi45 $r0,#0x1
    228a:	3c 0e 00 18 	swi.gp $r0,[+#0x60]
    228e:	49 00 05 d0 	jal 2e2e <ulPortSetInterruptMask>
    2292:	80 c0       	mov55 $r6,$r0
    2294:	49 00 0a 76 	jal 3780 <xTaskIncrementTick>
    2298:	5a 08 01 04 	bnec $r0,#0x1,22a0 <SystickInterrupt+0x24>
    229c:	49 00 05 96 	jal 2dc8 <vPortYield>
    22a0:	80 06       	mov55 $r0,$r6
    22a2:	49 00 05 d0 	jal 2e42 <vPortClearInterruptMask>
    22a6:	3a 6f 98 84 	lmw.bim $r6,[$sp],$r6,#0x2    ! {$r6, $lp}
    22aa:	dd 9e       	ret5 $lp

000022ac <DMA0_Interrupt>:
    22ac:	3a 6f 98 bc 	smw.adm $r6,[$sp],$r6,#0x2    ! {$r6, $lp}
    22b0:	46 04 00 0d 	sethi $r0,#0x4000d
    22b4:	b4 00       	lwi450 $r0,[$r0]
    22b6:	42 00 48 0b 	btst $r0,$r0,#0x12
    22ba:	c0 0a       	beqz38 $r0,22ce <DMA0_Interrupt+0x22>
    22bc:	46 04 00 0d 	sethi $r0,#0x4000d
    22c0:	a0 07       	lwi333 $r0,[$r0+#0x1c]
    22c2:	96 04       	xlsb33 $r0,$r0
    22c4:	c0 05       	beqz38 $r0,22ce <DMA0_Interrupt+0x22>
    22c6:	3c 0d ff 9d 	lwi.gp $r0,[+#-396]
    22ca:	c0 02       	beqz38 $r0,22ce <DMA0_Interrupt+0x22>
    22cc:	dd 20       	jral5 $r0
    22ce:	46 04 00 0d 	sethi $r0,#0x4000d
    22d2:	b4 00       	lwi450 $r0,[$r0]
    22d4:	42 00 4c 0b 	btst $r0,$r0,#0x13
    22d8:	c0 17       	beqz38 $r0,2306 <DMA0_Interrupt+0x5a>
    22da:	46 04 00 0d 	sethi $r0,#0x4000d
    22de:	a0 07       	lwi333 $r0,[$r0+#0x1c]
    22e0:	42 00 04 0b 	btst $r0,$r0,#0x1
    22e4:	c0 11       	beqz38 $r0,2306 <DMA0_Interrupt+0x5a>
    22e6:	3c 0d ff 95 	lwi.gp $r0,[+#-428]
    22ea:	c0 0e       	beqz38 $r0,2306 <DMA0_Interrupt+0x5a>
    22ec:	46 64 00 0d 	sethi $r6,#0x4000d
    22f0:	b4 06       	lwi450 $r0,[$r6]
    22f2:	42 00 4c 09 	bclr $r0,$r0,#0x13
    22f6:	b6 06       	swi450 $r0,[$r6]
    22f8:	3c 0d ff 95 	lwi.gp $r0,[+#-428]
    22fc:	dd 20       	jral5 $r0
    22fe:	b4 06       	lwi450 $r0,[$r6]
    2300:	42 00 4c 08 	bset $r0,$r0,#0x13
    2304:	b6 06       	swi450 $r0,[$r6]
    2306:	46 04 00 0d 	sethi $r0,#0x4000d
    230a:	b4 00       	lwi450 $r0,[$r0]
    230c:	42 00 50 0b 	btst $r0,$r0,#0x14
    2310:	c0 0b       	beqz38 $r0,2326 <DMA0_Interrupt+0x7a>
    2312:	46 04 00 0d 	sethi $r0,#0x4000d
    2316:	a0 07       	lwi333 $r0,[$r0+#0x1c]
    2318:	42 00 08 0b 	btst $r0,$r0,#0x2
    231c:	c0 05       	beqz38 $r0,2326 <DMA0_Interrupt+0x7a>
    231e:	3c 0d ff 8d 	lwi.gp $r0,[+#-460]
    2322:	c0 02       	beqz38 $r0,2326 <DMA0_Interrupt+0x7a>
    2324:	dd 20       	jral5 $r0
    2326:	3a 6f 98 84 	lmw.bim $r6,[$sp],$r6,#0x2    ! {$r6, $lp}
    232a:	dd 9e       	ret5 $lp

0000232c <DMA1_Interrupt>:
    232c:	3a 6f 98 bc 	smw.adm $r6,[$sp],$r6,#0x2    ! {$r6, $lp}
    2330:	46 04 00 0d 	sethi $r0,#0x4000d
    2334:	04 00 00 08 	lwi $r0,[$r0+#0x20]
    2338:	42 00 48 0b 	btst $r0,$r0,#0x12
    233c:	c0 0c       	beqz38 $r0,2354 <DMA1_Interrupt+0x28>
    233e:	46 04 00 0d 	sethi $r0,#0x4000d
    2342:	50 00 00 20 	addi $r0,$r0,#0x20
    2346:	a0 07       	lwi333 $r0,[$r0+#0x1c]
    2348:	96 04       	xlsb33 $r0,$r0
    234a:	c0 05       	beqz38 $r0,2354 <DMA1_Interrupt+0x28>
    234c:	3c 0d ff 9e 	lwi.gp $r0,[+#-392]
    2350:	c0 02       	beqz38 $r0,2354 <DMA1_Interrupt+0x28>
    2352:	dd 20       	jral5 $r0
    2354:	46 04 00 0d 	sethi $r0,#0x4000d
    2358:	04 00 00 08 	lwi $r0,[$r0+#0x20]
    235c:	42 00 4c 0b 	btst $r0,$r0,#0x13
    2360:	c0 1d       	beqz38 $r0,239a <DMA1_Interrupt+0x6e>
    2362:	46 04 00 0d 	sethi $r0,#0x4000d
    2366:	50 00 00 20 	addi $r0,$r0,#0x20
    236a:	a0 07       	lwi333 $r0,[$r0+#0x1c]
    236c:	42 00 04 0b 	btst $r0,$r0,#0x1
    2370:	c0 15       	beqz38 $r0,239a <DMA1_Interrupt+0x6e>
    2372:	3c 0d ff 96 	lwi.gp $r0,[+#-424]
    2376:	c0 12       	beqz38 $r0,239a <DMA1_Interrupt+0x6e>
    2378:	46 64 00 0d 	sethi $r6,#0x4000d
    237c:	04 03 00 08 	lwi $r0,[$r6+#0x20]
    2380:	42 00 4c 09 	bclr $r0,$r0,#0x13
    2384:	14 03 00 08 	swi $r0,[$r6+#0x20]
    2388:	3c 0d ff 96 	lwi.gp $r0,[+#-424]
    238c:	dd 20       	jral5 $r0
    238e:	04 03 00 08 	lwi $r0,[$r6+#0x20]
    2392:	42 00 4c 08 	bset $r0,$r0,#0x13
    2396:	14 03 00 08 	swi $r0,[$r6+#0x20]
    239a:	46 04 00 0d 	sethi $r0,#0x4000d
    239e:	04 00 00 08 	lwi $r0,[$r0+#0x20]
    23a2:	42 00 50 0b 	btst $r0,$r0,#0x14
    23a6:	c0 0d       	beqz38 $r0,23c0 <DMA1_Interrupt+0x94>
    23a8:	46 04 00 0d 	sethi $r0,#0x4000d
    23ac:	50 00 00 20 	addi $r0,$r0,#0x20
    23b0:	a0 07       	lwi333 $r0,[$r0+#0x1c]
    23b2:	42 00 08 0b 	btst $r0,$r0,#0x2
    23b6:	c0 05       	beqz38 $r0,23c0 <DMA1_Interrupt+0x94>
    23b8:	3c 0d ff 8e 	lwi.gp $r0,[+#-456]
    23bc:	c0 02       	beqz38 $r0,23c0 <DMA1_Interrupt+0x94>
    23be:	dd 20       	jral5 $r0
    23c0:	3a 6f 98 84 	lmw.bim $r6,[$sp],$r6,#0x2    ! {$r6, $lp}
    23c4:	dd 9e       	ret5 $lp

000023c6 <DMA2_Interrupt>:
    23c6:	3a 6f 98 bc 	smw.adm $r6,[$sp],$r6,#0x2    ! {$r6, $lp}
    23ca:	46 04 00 0d 	sethi $r0,#0x4000d
    23ce:	04 00 00 10 	lwi $r0,[$r0+#0x40]
    23d2:	42 00 48 0b 	btst $r0,$r0,#0x12
    23d6:	c0 0c       	beqz38 $r0,23ee <DMA2_Interrupt+0x28>
    23d8:	46 04 00 0d 	sethi $r0,#0x4000d
    23dc:	50 00 00 40 	addi $r0,$r0,#0x40
    23e0:	a0 07       	lwi333 $r0,[$r0+#0x1c]
    23e2:	96 04       	xlsb33 $r0,$r0
    23e4:	c0 05       	beqz38 $r0,23ee <DMA2_Interrupt+0x28>
    23e6:	3c 0d ff 9f 	lwi.gp $r0,[+#-388]
    23ea:	c0 02       	beqz38 $r0,23ee <DMA2_Interrupt+0x28>
    23ec:	dd 20       	jral5 $r0
    23ee:	46 04 00 0d 	sethi $r0,#0x4000d
    23f2:	04 00 00 10 	lwi $r0,[$r0+#0x40]
    23f6:	42 00 4c 0b 	btst $r0,$r0,#0x13
    23fa:	c0 1d       	beqz38 $r0,2434 <DMA2_Interrupt+0x6e>
    23fc:	46 04 00 0d 	sethi $r0,#0x4000d
    2400:	50 00 00 40 	addi $r0,$r0,#0x40
    2404:	a0 07       	lwi333 $r0,[$r0+#0x1c]
    2406:	42 00 04 0b 	btst $r0,$r0,#0x1
    240a:	c0 15       	beqz38 $r0,2434 <DMA2_Interrupt+0x6e>
    240c:	3c 0d ff 97 	lwi.gp $r0,[+#-420]
    2410:	c0 12       	beqz38 $r0,2434 <DMA2_Interrupt+0x6e>
    2412:	46 64 00 0d 	sethi $r6,#0x4000d
    2416:	04 03 00 10 	lwi $r0,[$r6+#0x40]
    241a:	42 00 4c 09 	bclr $r0,$r0,#0x13
    241e:	14 03 00 10 	swi $r0,[$r6+#0x40]
    2422:	3c 0d ff 97 	lwi.gp $r0,[+#-420]
    2426:	dd 20       	jral5 $r0
    2428:	04 03 00 10 	lwi $r0,[$r6+#0x40]
    242c:	42 00 4c 08 	bset $r0,$r0,#0x13
    2430:	14 03 00 10 	swi $r0,[$r6+#0x40]
    2434:	46 04 00 0d 	sethi $r0,#0x4000d
    2438:	04 00 00 10 	lwi $r0,[$r0+#0x40]
    243c:	42 00 50 0b 	btst $r0,$r0,#0x14
    2440:	c0 0d       	beqz38 $r0,245a <DMA2_Interrupt+0x94>
    2442:	46 04 00 0d 	sethi $r0,#0x4000d
    2446:	50 00 00 40 	addi $r0,$r0,#0x40
    244a:	a0 07       	lwi333 $r0,[$r0+#0x1c]
    244c:	42 00 08 0b 	btst $r0,$r0,#0x2
    2450:	c0 05       	beqz38 $r0,245a <DMA2_Interrupt+0x94>
    2452:	3c 0d ff 8f 	lwi.gp $r0,[+#-452]
    2456:	c0 02       	beqz38 $r0,245a <DMA2_Interrupt+0x94>
    2458:	dd 20       	jral5 $r0
    245a:	3a 6f 98 84 	lmw.bim $r6,[$sp],$r6,#0x2    ! {$r6, $lp}
    245e:	dd 9e       	ret5 $lp

00002460 <DMA3_Interrupt>:
    2460:	3a 6f 98 bc 	smw.adm $r6,[$sp],$r6,#0x2    ! {$r6, $lp}
    2464:	46 04 00 0d 	sethi $r0,#0x4000d
    2468:	04 00 00 18 	lwi $r0,[$r0+#0x60]
    246c:	42 00 48 0b 	btst $r0,$r0,#0x12
    2470:	c0 0c       	beqz38 $r0,2488 <DMA3_Interrupt+0x28>
    2472:	46 04 00 0d 	sethi $r0,#0x4000d
    2476:	50 00 00 60 	addi $r0,$r0,#0x60
    247a:	a0 07       	lwi333 $r0,[$r0+#0x1c]
    247c:	96 04       	xlsb33 $r0,$r0
    247e:	c0 05       	beqz38 $r0,2488 <DMA3_Interrupt+0x28>
    2480:	3c 0d ff a0 	lwi.gp $r0,[+#-384]
    2484:	c0 02       	beqz38 $r0,2488 <DMA3_Interrupt+0x28>
    2486:	dd 20       	jral5 $r0
    2488:	46 04 00 0d 	sethi $r0,#0x4000d
    248c:	04 00 00 18 	lwi $r0,[$r0+#0x60]
    2490:	42 00 4c 0b 	btst $r0,$r0,#0x13
    2494:	c0 1d       	beqz38 $r0,24ce <DMA3_Interrupt+0x6e>
    2496:	46 04 00 0d 	sethi $r0,#0x4000d
    249a:	50 00 00 60 	addi $r0,$r0,#0x60
    249e:	a0 07       	lwi333 $r0,[$r0+#0x1c]
    24a0:	42 00 04 0b 	btst $r0,$r0,#0x1
    24a4:	c0 15       	beqz38 $r0,24ce <DMA3_Interrupt+0x6e>
    24a6:	3c 0d ff 98 	lwi.gp $r0,[+#-416]
    24aa:	c0 12       	beqz38 $r0,24ce <DMA3_Interrupt+0x6e>
    24ac:	46 64 00 0d 	sethi $r6,#0x4000d
    24b0:	04 03 00 18 	lwi $r0,[$r6+#0x60]
    24b4:	42 00 4c 09 	bclr $r0,$r0,#0x13
    24b8:	14 03 00 18 	swi $r0,[$r6+#0x60]
    24bc:	3c 0d ff 98 	lwi.gp $r0,[+#-416]
    24c0:	dd 20       	jral5 $r0
    24c2:	04 03 00 18 	lwi $r0,[$r6+#0x60]
    24c6:	42 00 4c 08 	bset $r0,$r0,#0x13
    24ca:	14 03 00 18 	swi $r0,[$r6+#0x60]
    24ce:	46 04 00 0d 	sethi $r0,#0x4000d
    24d2:	04 00 00 18 	lwi $r0,[$r0+#0x60]
    24d6:	42 00 50 0b 	btst $r0,$r0,#0x14
    24da:	c0 0d       	beqz38 $r0,24f4 <DMA3_Interrupt+0x94>
    24dc:	46 04 00 0d 	sethi $r0,#0x4000d
    24e0:	50 00 00 60 	addi $r0,$r0,#0x60
    24e4:	a0 07       	lwi333 $r0,[$r0+#0x1c]
    24e6:	42 00 08 0b 	btst $r0,$r0,#0x2
    24ea:	c0 05       	beqz38 $r0,24f4 <DMA3_Interrupt+0x94>
    24ec:	3c 0d ff 90 	lwi.gp $r0,[+#-448]
    24f0:	c0 02       	beqz38 $r0,24f4 <DMA3_Interrupt+0x94>
    24f2:	dd 20       	jral5 $r0
    24f4:	3a 6f 98 84 	lmw.bim $r6,[$sp],$r6,#0x2    ! {$r6, $lp}
    24f8:	dd 9e       	ret5 $lp

000024fa <DMA4_Interrupt>:
    24fa:	3a 6f 98 bc 	smw.adm $r6,[$sp],$r6,#0x2    ! {$r6, $lp}
    24fe:	46 04 00 0d 	sethi $r0,#0x4000d
    2502:	04 00 00 20 	lwi $r0,[$r0+#0x80]
    2506:	42 00 48 0b 	btst $r0,$r0,#0x12
    250a:	c0 0c       	beqz38 $r0,2522 <DMA4_Interrupt+0x28>
    250c:	46 04 00 0d 	sethi $r0,#0x4000d
    2510:	50 00 00 80 	addi $r0,$r0,#0x80
    2514:	a0 07       	lwi333 $r0,[$r0+#0x1c]
    2516:	96 04       	xlsb33 $r0,$r0
    2518:	c0 05       	beqz38 $r0,2522 <DMA4_Interrupt+0x28>
    251a:	3c 0d ff a1 	lwi.gp $r0,[+#-380]
    251e:	c0 02       	beqz38 $r0,2522 <DMA4_Interrupt+0x28>
    2520:	dd 20       	jral5 $r0
    2522:	46 04 00 0d 	sethi $r0,#0x4000d
    2526:	04 00 00 20 	lwi $r0,[$r0+#0x80]
    252a:	42 00 4c 0b 	btst $r0,$r0,#0x13
    252e:	c0 1d       	beqz38 $r0,2568 <DMA4_Interrupt+0x6e>
    2530:	46 04 00 0d 	sethi $r0,#0x4000d
    2534:	50 00 00 80 	addi $r0,$r0,#0x80
    2538:	a0 07       	lwi333 $r0,[$r0+#0x1c]
    253a:	42 00 04 0b 	btst $r0,$r0,#0x1
    253e:	c0 15       	beqz38 $r0,2568 <DMA4_Interrupt+0x6e>
    2540:	3c 0d ff 99 	lwi.gp $r0,[+#-412]
    2544:	c0 12       	beqz38 $r0,2568 <DMA4_Interrupt+0x6e>
    2546:	46 64 00 0d 	sethi $r6,#0x4000d
    254a:	04 03 00 20 	lwi $r0,[$r6+#0x80]
    254e:	42 00 4c 09 	bclr $r0,$r0,#0x13
    2552:	14 03 00 20 	swi $r0,[$r6+#0x80]
    2556:	3c 0d ff 99 	lwi.gp $r0,[+#-412]
    255a:	dd 20       	jral5 $r0
    255c:	04 03 00 20 	lwi $r0,[$r6+#0x80]
    2560:	42 00 4c 08 	bset $r0,$r0,#0x13
    2564:	14 03 00 20 	swi $r0,[$r6+#0x80]
    2568:	46 04 00 0d 	sethi $r0,#0x4000d
    256c:	04 00 00 20 	lwi $r0,[$r0+#0x80]
    2570:	42 00 50 0b 	btst $r0,$r0,#0x14
    2574:	c0 0d       	beqz38 $r0,258e <DMA4_Interrupt+0x94>
    2576:	46 04 00 0d 	sethi $r0,#0x4000d
    257a:	50 00 00 80 	addi $r0,$r0,#0x80
    257e:	a0 07       	lwi333 $r0,[$r0+#0x1c]
    2580:	42 00 08 0b 	btst $r0,$r0,#0x2
    2584:	c0 05       	beqz38 $r0,258e <DMA4_Interrupt+0x94>
    2586:	3c 0d ff 91 	lwi.gp $r0,[+#-444]
    258a:	c0 02       	beqz38 $r0,258e <DMA4_Interrupt+0x94>
    258c:	dd 20       	jral5 $r0
    258e:	3a 6f 98 84 	lmw.bim $r6,[$sp],$r6,#0x2    ! {$r6, $lp}
    2592:	dd 9e       	ret5 $lp

00002594 <DMA5_Interrupt>:
    2594:	3a 6f 98 bc 	smw.adm $r6,[$sp],$r6,#0x2    ! {$r6, $lp}
    2598:	46 04 00 0d 	sethi $r0,#0x4000d
    259c:	04 00 00 28 	lwi $r0,[$r0+#0xa0]
    25a0:	42 00 48 0b 	btst $r0,$r0,#0x12
    25a4:	c0 0c       	beqz38 $r0,25bc <DMA5_Interrupt+0x28>
    25a6:	46 04 00 0d 	sethi $r0,#0x4000d
    25aa:	50 00 00 a0 	addi $r0,$r0,#0xa0
    25ae:	a0 07       	lwi333 $r0,[$r0+#0x1c]
    25b0:	96 04       	xlsb33 $r0,$r0
    25b2:	c0 05       	beqz38 $r0,25bc <DMA5_Interrupt+0x28>
    25b4:	3c 0d ff a2 	lwi.gp $r0,[+#-376]
    25b8:	c0 02       	beqz38 $r0,25bc <DMA5_Interrupt+0x28>
    25ba:	dd 20       	jral5 $r0
    25bc:	46 04 00 0d 	sethi $r0,#0x4000d
    25c0:	04 00 00 28 	lwi $r0,[$r0+#0xa0]
    25c4:	42 00 4c 0b 	btst $r0,$r0,#0x13
    25c8:	c0 1d       	beqz38 $r0,2602 <DMA5_Interrupt+0x6e>
    25ca:	46 04 00 0d 	sethi $r0,#0x4000d
    25ce:	50 00 00 a0 	addi $r0,$r0,#0xa0
    25d2:	a0 07       	lwi333 $r0,[$r0+#0x1c]
    25d4:	42 00 04 0b 	btst $r0,$r0,#0x1
    25d8:	c0 15       	beqz38 $r0,2602 <DMA5_Interrupt+0x6e>
    25da:	3c 0d ff 9a 	lwi.gp $r0,[+#-408]
    25de:	c0 12       	beqz38 $r0,2602 <DMA5_Interrupt+0x6e>
    25e0:	46 64 00 0d 	sethi $r6,#0x4000d
    25e4:	04 03 00 28 	lwi $r0,[$r6+#0xa0]
    25e8:	42 00 4c 09 	bclr $r0,$r0,#0x13
    25ec:	14 03 00 28 	swi $r0,[$r6+#0xa0]
    25f0:	3c 0d ff 9a 	lwi.gp $r0,[+#-408]
    25f4:	dd 20       	jral5 $r0
    25f6:	04 03 00 28 	lwi $r0,[$r6+#0xa0]
    25fa:	42 00 4c 08 	bset $r0,$r0,#0x13
    25fe:	14 03 00 28 	swi $r0,[$r6+#0xa0]
    2602:	46 04 00 0d 	sethi $r0,#0x4000d
    2606:	04 00 00 28 	lwi $r0,[$r0+#0xa0]
    260a:	42 00 50 0b 	btst $r0,$r0,#0x14
    260e:	c0 0d       	beqz38 $r0,2628 <DMA5_Interrupt+0x94>
    2610:	46 04 00 0d 	sethi $r0,#0x4000d
    2614:	50 00 00 a0 	addi $r0,$r0,#0xa0
    2618:	a0 07       	lwi333 $r0,[$r0+#0x1c]
    261a:	42 00 08 0b 	btst $r0,$r0,#0x2
    261e:	c0 05       	beqz38 $r0,2628 <DMA5_Interrupt+0x94>
    2620:	3c 0d ff 92 	lwi.gp $r0,[+#-440]
    2624:	c0 02       	beqz38 $r0,2628 <DMA5_Interrupt+0x94>
    2626:	dd 20       	jral5 $r0
    2628:	3a 6f 98 84 	lmw.bim $r6,[$sp],$r6,#0x2    ! {$r6, $lp}
    262c:	dd 9e       	ret5 $lp

0000262e <DMA6_Interrupt>:
    262e:	3a 6f 98 bc 	smw.adm $r6,[$sp],$r6,#0x2    ! {$r6, $lp}
    2632:	46 04 00 0d 	sethi $r0,#0x4000d
    2636:	04 00 00 30 	lwi $r0,[$r0+#0xc0]
    263a:	42 00 48 0b 	btst $r0,$r0,#0x12
    263e:	c0 0c       	beqz38 $r0,2656 <DMA6_Interrupt+0x28>
    2640:	46 04 00 0d 	sethi $r0,#0x4000d
    2644:	50 00 00 c0 	addi $r0,$r0,#0xc0
    2648:	a0 07       	lwi333 $r0,[$r0+#0x1c]
    264a:	96 04       	xlsb33 $r0,$r0
    264c:	c0 05       	beqz38 $r0,2656 <DMA6_Interrupt+0x28>
    264e:	3c 0d ff a3 	lwi.gp $r0,[+#-372]
    2652:	c0 02       	beqz38 $r0,2656 <DMA6_Interrupt+0x28>
    2654:	dd 20       	jral5 $r0
    2656:	46 04 00 0d 	sethi $r0,#0x4000d
    265a:	04 00 00 30 	lwi $r0,[$r0+#0xc0]
    265e:	42 00 4c 0b 	btst $r0,$r0,#0x13
    2662:	c0 1d       	beqz38 $r0,269c <DMA6_Interrupt+0x6e>
    2664:	46 04 00 0d 	sethi $r0,#0x4000d
    2668:	50 00 00 c0 	addi $r0,$r0,#0xc0
    266c:	a0 07       	lwi333 $r0,[$r0+#0x1c]
    266e:	42 00 04 0b 	btst $r0,$r0,#0x1
    2672:	c0 15       	beqz38 $r0,269c <DMA6_Interrupt+0x6e>
    2674:	3c 0d ff 9b 	lwi.gp $r0,[+#-404]
    2678:	c0 12       	beqz38 $r0,269c <DMA6_Interrupt+0x6e>
    267a:	46 64 00 0d 	sethi $r6,#0x4000d
    267e:	04 03 00 30 	lwi $r0,[$r6+#0xc0]
    2682:	42 00 4c 09 	bclr $r0,$r0,#0x13
    2686:	14 03 00 30 	swi $r0,[$r6+#0xc0]
    268a:	3c 0d ff 9b 	lwi.gp $r0,[+#-404]
    268e:	dd 20       	jral5 $r0
    2690:	04 03 00 30 	lwi $r0,[$r6+#0xc0]
    2694:	42 00 4c 08 	bset $r0,$r0,#0x13
    2698:	14 03 00 30 	swi $r0,[$r6+#0xc0]
    269c:	46 04 00 0d 	sethi $r0,#0x4000d
    26a0:	04 00 00 30 	lwi $r0,[$r0+#0xc0]
    26a4:	42 00 50 0b 	btst $r0,$r0,#0x14
    26a8:	c0 0d       	beqz38 $r0,26c2 <DMA6_Interrupt+0x94>
    26aa:	46 04 00 0d 	sethi $r0,#0x4000d
    26ae:	50 00 00 c0 	addi $r0,$r0,#0xc0
    26b2:	a0 07       	lwi333 $r0,[$r0+#0x1c]
    26b4:	42 00 08 0b 	btst $r0,$r0,#0x2
    26b8:	c0 05       	beqz38 $r0,26c2 <DMA6_Interrupt+0x94>
    26ba:	3c 0d ff 93 	lwi.gp $r0,[+#-436]
    26be:	c0 02       	beqz38 $r0,26c2 <DMA6_Interrupt+0x94>
    26c0:	dd 20       	jral5 $r0
    26c2:	3a 6f 98 84 	lmw.bim $r6,[$sp],$r6,#0x2    ! {$r6, $lp}
    26c6:	dd 9e       	ret5 $lp

000026c8 <DMA7_Interrupt>:
    26c8:	3a 6f 98 bc 	smw.adm $r6,[$sp],$r6,#0x2    ! {$r6, $lp}
    26cc:	46 04 00 0d 	sethi $r0,#0x4000d
    26d0:	04 00 00 38 	lwi $r0,[$r0+#0xe0]
    26d4:	42 00 48 0b 	btst $r0,$r0,#0x12
    26d8:	c0 0c       	beqz38 $r0,26f0 <DMA7_Interrupt+0x28>
    26da:	46 04 00 0d 	sethi $r0,#0x4000d
    26de:	50 00 00 e0 	addi $r0,$r0,#0xe0
    26e2:	a0 07       	lwi333 $r0,[$r0+#0x1c]
    26e4:	96 04       	xlsb33 $r0,$r0
    26e6:	c0 05       	beqz38 $r0,26f0 <DMA7_Interrupt+0x28>
    26e8:	3c 0d ff a4 	lwi.gp $r0,[+#-368]
    26ec:	c0 02       	beqz38 $r0,26f0 <DMA7_Interrupt+0x28>
    26ee:	dd 20       	jral5 $r0
    26f0:	46 04 00 0d 	sethi $r0,#0x4000d
    26f4:	04 00 00 38 	lwi $r0,[$r0+#0xe0]
    26f8:	42 00 4c 0b 	btst $r0,$r0,#0x13
    26fc:	c0 1d       	beqz38 $r0,2736 <DMA7_Interrupt+0x6e>
    26fe:	46 04 00 0d 	sethi $r0,#0x4000d
    2702:	50 00 00 e0 	addi $r0,$r0,#0xe0
    2706:	a0 07       	lwi333 $r0,[$r0+#0x1c]
    2708:	42 00 04 0b 	btst $r0,$r0,#0x1
    270c:	c0 15       	beqz38 $r0,2736 <DMA7_Interrupt+0x6e>
    270e:	3c 0d ff 9c 	lwi.gp $r0,[+#-400]
    2712:	c0 12       	beqz38 $r0,2736 <DMA7_Interrupt+0x6e>
    2714:	46 64 00 0d 	sethi $r6,#0x4000d
    2718:	04 03 00 38 	lwi $r0,[$r6+#0xe0]
    271c:	42 00 4c 09 	bclr $r0,$r0,#0x13
    2720:	14 03 00 38 	swi $r0,[$r6+#0xe0]
    2724:	3c 0d ff 9c 	lwi.gp $r0,[+#-400]
    2728:	dd 20       	jral5 $r0
    272a:	04 03 00 38 	lwi $r0,[$r6+#0xe0]
    272e:	42 00 4c 08 	bset $r0,$r0,#0x13
    2732:	14 03 00 38 	swi $r0,[$r6+#0xe0]
    2736:	46 04 00 0d 	sethi $r0,#0x4000d
    273a:	04 00 00 38 	lwi $r0,[$r0+#0xe0]
    273e:	42 00 50 0b 	btst $r0,$r0,#0x14
    2742:	c0 0d       	beqz38 $r0,275c <DMA7_Interrupt+0x94>
    2744:	46 04 00 0d 	sethi $r0,#0x4000d
    2748:	50 00 00 e0 	addi $r0,$r0,#0xe0
    274c:	a0 07       	lwi333 $r0,[$r0+#0x1c]
    274e:	42 00 08 0b 	btst $r0,$r0,#0x2
    2752:	c0 05       	beqz38 $r0,275c <DMA7_Interrupt+0x94>
    2754:	3c 0d ff 94 	lwi.gp $r0,[+#-432]
    2758:	c0 02       	beqz38 $r0,275c <DMA7_Interrupt+0x94>
    275a:	dd 20       	jral5 $r0
    275c:	3a 6f 98 84 	lmw.bim $r6,[$sp],$r6,#0x2    ! {$r6, $lp}
    2760:	dd 9e       	ret5 $lp

00002762 <GetSysTick1MsCnt>:
    2762:	3c 0c 00 18 	lwi.gp $r0,[+#0x60]
    2766:	dd 9e       	ret5 $lp

00002768 <PastTimeGet>:
    2768:	3a 6f 98 bc 	smw.adm $r6,[$sp],$r6,#0x2    ! {$r6, $lp}
    276c:	80 c0       	mov55 $r6,$r0
    276e:	49 ff ff fa 	jal 2762 <GetSysTick1MsCnt>
    2772:	a0 71       	lwi333 $r1,[$r6+#0x4]
    2774:	8a 01       	sub45 $r0,$r1
    2776:	3a 6f 98 84 	lmw.bim $r6,[$sp],$r6,#0x2    ! {$r6, $lp}
    277a:	dd 9e       	ret5 $lp

0000277c <TimeOutSet>:
    277c:	3a 6f a0 bc 	smw.adm $r6,[$sp],$r8,#0x2    ! {$r6~$r8, $lp}
    2780:	fd 30       	movd44 $r6,$r0
    2782:	49 ff ff f0 	jal 2762 <GetSysTick1MsCnt>
    2786:	a8 31       	swi333 $r0,[$r6+#0x4]
    2788:	49 ff ff ed 	jal 2762 <GetSysTick1MsCnt>
    278c:	88 07       	add45 $r0,$r7
    278e:	b6 06       	swi450 $r0,[$r6]
    2790:	84 00       	movi55 $r0,#0x0
    2792:	10 03 00 08 	sbi $r0,[$r6+#0x8]
    2796:	3a 6f a0 84 	lmw.bim $r6,[$sp],$r8,#0x2    ! {$r6~$r8, $lp}
    279a:	dd 9e       	ret5 $lp

0000279c <IsTimeOut>:
    279c:	3a 6f a0 bc 	smw.adm $r6,[$sp],$r8,#0x2    ! {$r6~$r8, $lp}
    27a0:	00 60 00 08 	lbi $r6,[$r0+#0x8]
    27a4:	ce 0f       	bnez38 $r6,27c2 <IsTimeOut+0x26>
    27a6:	80 e0       	mov55 $r7,$r0
    27a8:	49 ff ff dd 	jal 2762 <GetSysTick1MsCnt>
    27ac:	b4 27       	lwi450 $r1,[$r7]
    27ae:	40 00 80 06 	slt $r0,$r1,$r0
    27b2:	c0 05       	beqz38 $r0,27bc <IsTimeOut+0x20>
    27b4:	84 01       	movi55 $r0,#0x1
    27b6:	10 03 80 08 	sbi $r0,[$r7+#0x8]
    27ba:	d5 05       	j8 27c4 <IsTimeOut+0x28>
    27bc:	00 63 80 08 	lbi $r6,[$r7+#0x8]
    27c0:	d5 02       	j8 27c4 <IsTimeOut+0x28>
    27c2:	84 c1       	movi55 $r6,#0x1
    27c4:	80 06       	mov55 $r0,$r6
    27c6:	3a 6f a0 84 	lmw.bim $r6,[$sp],$r8,#0x2    ! {$r6~$r8, $lp}
    27ca:	dd 9e       	ret5 $lp
    27cc:	46 04 00 05 	sethi $r0,#0x40005
    27d0:	a0 03       	lwi333 $r0,[$r0+#0xc]
    27d2:	42 00 04 0b 	btst $r0,$r0,#0x1
    27d6:	c0 0e       	beqz38 $r0,27f2 <IsTimeOut+0x56>
    27d8:	46 04 00 05 	sethi $r0,#0x40005
    27dc:	a0 05       	lwi333 $r0,[$r0+#0x14]
    27de:	96 04       	xlsb33 $r0,$r0
    27e0:	c0 09       	beqz38 $r0,27f2 <IsTimeOut+0x56>
    27e2:	46 14 00 05 	sethi $r1,#0x40005
    27e6:	00 00 80 0c 	lbi $r0,[$r1+#0xc]
    27ea:	58 00 00 04 	ori $r0,$r0,#0x4
    27ee:	10 00 80 0c 	sbi $r0,[$r1+#0xc]
    27f2:	46 04 00 05 	sethi $r0,#0x40005
    27f6:	a0 03       	lwi333 $r0,[$r0+#0xc]
    27f8:	42 00 0c 0b 	btst $r0,$r0,#0x3
    27fc:	c0 0f       	beqz38 $r0,281a <IsTimeOut+0x7e>
    27fe:	46 04 00 05 	sethi $r0,#0x40005
    2802:	a0 05       	lwi333 $r0,[$r0+#0x14]
    2804:	54 00 00 3c 	andi $r0,$r0,#0x3c
    2808:	c0 09       	beqz38 $r0,281a <IsTimeOut+0x7e>
    280a:	46 14 00 05 	sethi $r1,#0x40005
    280e:	00 00 80 0c 	lbi $r0,[$r1+#0xc]
    2812:	58 00 00 10 	ori $r0,$r0,#0x10
    2816:	10 00 80 0c 	sbi $r0,[$r1+#0xc]
    281a:	46 04 00 05 	sethi $r0,#0x40005
    281e:	a0 05       	lwi333 $r0,[$r0+#0x14]
    2820:	42 00 20 0b 	btst $r0,$r0,#0x8
    2824:	c0 09       	beqz38 $r0,2836 <IsTimeOut+0x9a>
    2826:	46 14 00 05 	sethi $r1,#0x40005
    282a:	00 00 80 1c 	lbi $r0,[$r1+#0x1c]
    282e:	58 00 00 04 	ori $r0,$r0,#0x4
    2832:	10 00 80 1c 	sbi $r0,[$r1+#0x1c]
    2836:	46 04 00 05 	sethi $r0,#0x40005
    283a:	a0 05       	lwi333 $r0,[$r0+#0x14]
    283c:	96 0e       	bmski33 $r0,#0x1
    283e:	c0 09       	beqz38 $r0,2850 <IsTimeOut+0xb4>
    2840:	46 14 00 05 	sethi $r1,#0x40005
    2844:	00 00 80 0c 	lbi $r0,[$r1+#0xc]
    2848:	58 00 00 40 	ori $r0,$r0,#0x40
    284c:	10 00 80 0c 	sbi $r0,[$r1+#0xc]
    2850:	dd 9e       	ret5 $lp

00002852 <UART1_Interrupt>:
    2852:	46 04 00 06 	sethi $r0,#0x40006
    2856:	a0 03       	lwi333 $r0,[$r0+#0xc]
    2858:	42 00 04 0b 	btst $r0,$r0,#0x1
    285c:	c0 0e       	beqz38 $r0,2878 <UART1_Interrupt+0x26>
    285e:	46 04 00 06 	sethi $r0,#0x40006
    2862:	a0 05       	lwi333 $r0,[$r0+#0x14]
    2864:	96 04       	xlsb33 $r0,$r0
    2866:	c0 09       	beqz38 $r0,2878 <UART1_Interrupt+0x26>
    2868:	46 14 00 06 	sethi $r1,#0x40006
    286c:	00 00 80 0c 	lbi $r0,[$r1+#0xc]
    2870:	58 00 00 04 	ori $r0,$r0,#0x4
    2874:	10 00 80 0c 	sbi $r0,[$r1+#0xc]
    2878:	46 04 00 06 	sethi $r0,#0x40006
    287c:	a0 03       	lwi333 $r0,[$r0+#0xc]
    287e:	42 00 0c 0b 	btst $r0,$r0,#0x3
    2882:	c0 0f       	beqz38 $r0,28a0 <UART1_Interrupt+0x4e>
    2884:	46 04 00 06 	sethi $r0,#0x40006
    2888:	a0 05       	lwi333 $r0,[$r0+#0x14]
    288a:	54 00 00 3c 	andi $r0,$r0,#0x3c
    288e:	c0 09       	beqz38 $r0,28a0 <UART1_Interrupt+0x4e>
    2890:	46 14 00 06 	sethi $r1,#0x40006
    2894:	00 00 80 0c 	lbi $r0,[$r1+#0xc]
    2898:	58 00 00 10 	ori $r0,$r0,#0x10
    289c:	10 00 80 0c 	sbi $r0,[$r1+#0xc]
    28a0:	46 04 00 06 	sethi $r0,#0x40006
    28a4:	a0 05       	lwi333 $r0,[$r0+#0x14]
    28a6:	42 00 20 0b 	btst $r0,$r0,#0x8
    28aa:	c0 09       	beqz38 $r0,28bc <UART1_Interrupt+0x6a>
    28ac:	46 14 00 06 	sethi $r1,#0x40006
    28b0:	00 00 80 1c 	lbi $r0,[$r1+#0x1c]
    28b4:	58 00 00 04 	ori $r0,$r0,#0x4
    28b8:	10 00 80 1c 	sbi $r0,[$r1+#0x1c]
    28bc:	46 04 00 06 	sethi $r0,#0x40006
    28c0:	a0 05       	lwi333 $r0,[$r0+#0x14]
    28c2:	96 0e       	bmski33 $r0,#0x1
    28c4:	c0 09       	beqz38 $r0,28d6 <UART1_Interrupt+0x84>
    28c6:	46 14 00 06 	sethi $r1,#0x40006
    28ca:	00 00 80 0c 	lbi $r0,[$r1+#0xc]
    28ce:	58 00 00 40 	ori $r0,$r0,#0x40
    28d2:	10 00 80 0c 	sbi $r0,[$r1+#0xc]
    28d6:	dd 9e       	ret5 $lp

Disassembly of section .text:

000028d8 <UART0_InitWpr>:
    28d8:	3b ff fc bc 	smw.adm $sp,[$sp],$sp,#0x2    ! {$lp}
    28dc:	ef fc       	addi10.sp #-4
    28de:	49 00 18 1a 	jal 5912 <UART0_Init>
    28e2:	ec 04       	addi10.sp #0x4
    28e4:	3b ff fc 84 	lmw.bim $sp,[$sp],$sp,#0x2    ! {$lp}
    28e8:	dd 9e       	ret5 $lp

000028ea <UART1_InitWpr>:
    28ea:	3b ff fc bc 	smw.adm $sp,[$sp],$sp,#0x2    ! {$lp}
    28ee:	ef fc       	addi10.sp #-4
    28f0:	49 00 18 f1 	jal 5ad2 <UART1_Init>
    28f4:	ec 04       	addi10.sp #0x4
    28f6:	3b ff fc 84 	lmw.bim $sp,[$sp],$sp,#0x2    ! {$lp}
    28fa:	dd 9e       	ret5 $lp

000028fc <UART0_SendByteWpr>:
    28fc:	3b ff fc bc 	smw.adm $sp,[$sp],$sp,#0x2    ! {$lp}
    2900:	ef fc       	addi10.sp #-4
    2902:	49 00 19 c8 	jal 5c92 <UART0_SendByte>
    2906:	ec 04       	addi10.sp #0x4
    2908:	3b ff fc 84 	lmw.bim $sp,[$sp],$sp,#0x2    ! {$lp}
    290c:	dd 9e       	ret5 $lp

0000290e <UART1_SendByteWpr>:
    290e:	3b ff fc bc 	smw.adm $sp,[$sp],$sp,#0x2    ! {$lp}
    2912:	ef fc       	addi10.sp #-4
    2914:	49 00 19 df 	jal 5cd2 <UART1_SendByte>
    2918:	ec 04       	addi10.sp #0x4
    291a:	3b ff fc 84 	lmw.bim $sp,[$sp],$sp,#0x2    ! {$lp}
    291e:	dd 9e       	ret5 $lp

00002920 <prvInsertBlockIntoFreeList>:
    2920:	3e 2f fe b0 	addi.gp $r2,#-336
    2924:	d5 02       	j8 2928 <prvInsertBlockIntoFreeList+0x8>
    2926:	80 41       	mov55 $r2,$r1
    2928:	b4 22       	lwi450 $r1,[$r2]
    292a:	e2 20       	slt45 $r1,$r0
    292c:	e9 fd       	bnezs8 2926 <prvInsertBlockIntoFreeList+0x6>
    292e:	a0 d4       	lwi333 $r3,[$r2+#0x10]
    2930:	99 53       	add333 $r5,$r2,$r3
    2932:	d8 05       	bnes38 $r0,293c <prvInsertBlockIntoFreeList+0x1c>
    2934:	a0 04       	lwi333 $r0,[$r0+#0x10]
    2936:	88 60       	add45 $r3,$r0
    2938:	a8 d4       	swi333 $r3,[$r2+#0x10]
    293a:	80 02       	mov55 $r0,$r2
    293c:	a0 c4       	lwi333 $r3,[$r0+#0x10]
    293e:	99 43       	add333 $r5,$r0,$r3
    2940:	d9 0e       	bnes38 $r1,295c <prvInsertBlockIntoFreeList+0x3c>
    2942:	3c 4d ff ab 	lwi.gp $r4,[+#-340]
    2946:	4c 12 00 09 	beq $r1,$r4,2958 <prvInsertBlockIntoFreeList+0x38>
    294a:	a0 4c       	lwi333 $r1,[$r1+#0x10]
    294c:	88 61       	add45 $r3,$r1
    294e:	a8 c4       	swi333 $r3,[$r0+#0x10]
    2950:	b4 22       	lwi450 $r1,[$r2]
    2952:	b4 21       	lwi450 $r1,[$r1]
    2954:	b6 20       	swi450 $r1,[$r0]
    2956:	d5 04       	j8 295e <prvInsertBlockIntoFreeList+0x3e>
    2958:	b6 80       	swi450 $r4,[$r0]
    295a:	d5 02       	j8 295e <prvInsertBlockIntoFreeList+0x3e>
    295c:	b6 20       	swi450 $r1,[$r0]
    295e:	4c 20 00 03 	beq $r2,$r0,2964 <prvInsertBlockIntoFreeList+0x44>
    2962:	b6 02       	swi450 $r0,[$r2]
    2964:	dd 9e       	ret5 $lp

00002966 <pvPortMalloc>:
    2966:	3a 6f a0 bc 	smw.adm $r6,[$sp],$r8,#0x2    ! {$r6~$r8, $lp}
    296a:	80 e0       	mov55 $r7,$r0
    296c:	3c 0d ff ab 	lwi.gp $r0,[+#-340]
    2970:	c8 08       	bnez38 $r0,2980 <pvPortMalloc+0x1a>
    2972:	64 02 00 02 	mfsr $r0,$psw
    2976:	3c 0f ff b6 	swi.gp $r0,[+#-296]
    297a:	49 00 0c bb 	jal 42f0 <GIE_DISABLE>
    297e:	d5 00       	j8 297e <pvPortMalloc+0x18>
    2980:	49 00 06 f7 	jal 376e <vTaskSuspendAll>
    2984:	3c 0d ff a8 	lwi.gp $r0,[+#-352]
    2988:	fe 3e       	and33 $r0,$r7
    298a:	c8 43       	bnez38 $r0,2a10 <pvPortMalloc+0xaa>
    298c:	c7 0a       	beqz38 $r7,29a0 <pvPortMalloc+0x3a>
    298e:	50 73 80 20 	addi $r7,$r7,#0x20
    2992:	54 03 80 1f 	andi $r0,$r7,#0x1f
    2996:	c0 05       	beqz38 $r0,29a0 <pvPortMalloc+0x3a>
    2998:	66 73 80 1f 	bitci $r7,$r7,#0x1f
    299c:	50 73 80 20 	addi $r7,$r7,#0x20
    29a0:	c7 3a       	beqz38 $r7,2a14 <pvPortMalloc+0xae>
    29a2:	3c 0d ff aa 	lwi.gp $r0,[+#-344]
    29a6:	e2 07       	slt45 $r0,$r7
    29a8:	e9 38       	bnezs8 2a18 <pvPortMalloc+0xb2>
    29aa:	3e 1f fe b0 	addi.gp $r1,#-336
    29ae:	b4 c1       	lwi450 $r6,[$r1]
    29b0:	d5 03       	j8 29b6 <pvPortMalloc+0x50>
    29b2:	80 26       	mov55 $r1,$r6
    29b4:	80 c0       	mov55 $r6,$r0
    29b6:	a0 34       	lwi333 $r0,[$r6+#0x10]
    29b8:	e2 07       	slt45 $r0,$r7
    29ba:	e8 03       	beqzs8 29c0 <pvPortMalloc+0x5a>
    29bc:	b4 06       	lwi450 $r0,[$r6]
    29be:	c8 fa       	bnez38 $r0,29b2 <pvPortMalloc+0x4c>
    29c0:	3c 0d ff ab 	lwi.gp $r0,[+#-340]
    29c4:	4c 60 00 2c 	beq $r6,$r0,2a1c <pvPortMalloc+0xb6>
    29c8:	b5 01       	lwi450 $r8,[$r1]
    29ca:	50 84 00 20 	addi $r8,$r8,#0x20
    29ce:	b4 06       	lwi450 $r0,[$r6]
    29d0:	b6 01       	swi450 $r0,[$r1]
    29d2:	84 00       	movi55 $r0,#0x0
    29d4:	a8 33       	swi333 $r0,[$r6+#0xc]
    29d6:	a0 74       	lwi333 $r1,[$r6+#0x10]
    29d8:	8a 27       	sub45 $r1,$r7
    29da:	5c f0 80 41 	slti $r15,$r1,#0x41
    29de:	e9 06       	bnezs8 29ea <pvPortMalloc+0x84>
    29e0:	98 37       	add333 $r0,$r6,$r7
    29e2:	a8 44       	swi333 $r1,[$r0+#0x10]
    29e4:	a9 f4       	swi333 $r7,[$r6+#0x10]
    29e6:	49 ff ff 9d 	jal 2920 <prvInsertBlockIntoFreeList>
    29ea:	a0 b4       	lwi333 $r2,[$r6+#0x10]
    29ec:	3c 0d ff aa 	lwi.gp $r0,[+#-344]
    29f0:	8a 02       	sub45 $r0,$r2
    29f2:	3c 0f ff aa 	swi.gp $r0,[+#-344]
    29f6:	3c 1d ff a9 	lwi.gp $r1,[+#-348]
    29fa:	e2 01       	slt45 $r0,$r1
    29fc:	e8 03       	beqzs8 2a02 <pvPortMalloc+0x9c>
    29fe:	3c 0f ff a9 	swi.gp $r0,[+#-348]
    2a02:	3c 0d ff a8 	lwi.gp $r0,[+#-352]
    2a06:	fe 17       	or33 $r0,$r2
    2a08:	a8 34       	swi333 $r0,[$r6+#0x10]
    2a0a:	84 00       	movi55 $r0,#0x0
    2a0c:	b6 06       	swi450 $r0,[$r6]
    2a0e:	d5 08       	j8 2a1e <pvPortMalloc+0xb8>
    2a10:	85 00       	movi55 $r8,#0x0
    2a12:	d5 06       	j8 2a1e <pvPortMalloc+0xb8>
    2a14:	85 00       	movi55 $r8,#0x0
    2a16:	d5 04       	j8 2a1e <pvPortMalloc+0xb8>
    2a18:	85 00       	movi55 $r8,#0x0
    2a1a:	d5 02       	j8 2a1e <pvPortMalloc+0xb8>
    2a1c:	85 00       	movi55 $r8,#0x0
    2a1e:	49 00 07 3a 	jal 3892 <xTaskResumeAll>
    2a22:	80 08       	mov55 $r0,$r8
    2a24:	3a 6f a0 84 	lmw.bim $r6,[$sp],$r8,#0x2    ! {$r6~$r8, $lp}
    2a28:	dd 9e       	ret5 $lp

00002a2a <vPortFree>:
    2a2a:	c0 34       	beqz38 $r0,2a92 <vPortFree+0x68>
    2a2c:	3a 6f a0 bc 	smw.adm $r6,[$sp],$r8,#0x2    ! {$r6~$r8, $lp}
    2a30:	80 20       	mov55 $r1,$r0
    2a32:	50 70 7f e0 	addi $r7,$r0,#-32
    2a36:	a0 3c       	lwi333 $r0,[$r7+#0x10]
    2a38:	3c 2d ff a8 	lwi.gp $r2,[+#-352]
    2a3c:	40 40 08 02 	and $r4,$r0,$r2
    2a40:	cc 08       	bnez38 $r4,2a50 <vPortFree+0x26>
    2a42:	64 02 00 02 	mfsr $r0,$psw
    2a46:	3c 0f ff b6 	swi.gp $r0,[+#-296]
    2a4a:	49 00 0c 53 	jal 42f0 <GIE_DISABLE>
    2a4e:	d5 00       	j8 2a4e <vPortFree+0x24>
    2a50:	04 30 ff f8 	lwi $r3,[$r1+#-32]
    2a54:	c3 08       	beqz38 $r3,2a64 <vPortFree+0x3a>
    2a56:	64 02 00 02 	mfsr $r0,$psw
    2a5a:	3c 0f ff b6 	swi.gp $r0,[+#-296]
    2a5e:	49 00 0c 49 	jal 42f0 <GIE_DISABLE>
    2a62:	d5 00       	j8 2a62 <vPortFree+0x38>
    2a64:	c4 15       	beqz38 $r4,2a8e <vPortFree+0x64>
    2a66:	cb 14       	bnez38 $r3,2a8e <vPortFree+0x64>
    2a68:	50 60 ff e0 	addi $r6,$r1,#-32
    2a6c:	40 20 08 12 	bitc $r2,$r0,$r2
    2a70:	14 20 ff fc 	swi $r2,[$r1+#-16]
    2a74:	49 00 06 7d 	jal 376e <vTaskSuspendAll>
    2a78:	a0 74       	lwi333 $r1,[$r6+#0x10]
    2a7a:	3c 0d ff aa 	lwi.gp $r0,[+#-344]
    2a7e:	88 20       	add45 $r1,$r0
    2a80:	3c 1f ff aa 	swi.gp $r1,[+#-344]
    2a84:	80 07       	mov55 $r0,$r7
    2a86:	49 ff ff 4d 	jal 2920 <prvInsertBlockIntoFreeList>
    2a8a:	49 00 07 04 	jal 3892 <xTaskResumeAll>
    2a8e:	3a 6f a0 84 	lmw.bim $r6,[$sp],$r8,#0x2    ! {$r6~$r8, $lp}
    2a92:	dd 9e       	ret5 $lp

00002a94 <vPortDefineHeapRegions>:
    2a94:	3b ff fc bc 	smw.adm $sp,[$sp],$sp,#0x2    ! {$lp}
    2a98:	ef fc       	addi10.sp #-4
    2a9a:	3e 1f fe c4 	addi.gp $r1,#-316
    2a9e:	84 40       	movi55 $r2,#0x0
    2aa0:	b6 41       	swi450 $r2,[$r1]
    2aa2:	a8 8b       	swi333 $r2,[$r1+#0xc]
    2aa4:	a8 89       	swi333 $r2,[$r1+#0x4]
    2aa6:	a8 8a       	swi333 $r2,[$r1+#0x8]
    2aa8:	a8 8c       	swi333 $r2,[$r1+#0x10]
    2aaa:	3c 1d ff ab 	lwi.gp $r1,[+#-340]
    2aae:	c1 48       	beqz38 $r1,2b3e <vPortDefineHeapRegions+0xaa>
    2ab0:	64 02 00 02 	mfsr $r0,$psw
    2ab4:	3c 0f ff b6 	swi.gp $r0,[+#-296]
    2ab8:	49 00 0c 1c 	jal 42f0 <GIE_DISABLE>
    2abc:	d5 00       	j8 2abc <vPortDefineHeapRegions+0x28>
    2abe:	b4 42       	lwi450 $r2,[$r2]
    2ac0:	54 51 00 1f 	andi $r5,$r2,#0x1f
    2ac4:	c5 08       	beqz38 $r5,2ad4 <vPortDefineHeapRegions+0x40>
    2ac6:	50 51 00 1f 	addi $r5,$r2,#0x1f
    2aca:	66 52 80 1f 	bitci $r5,$r5,#0x1f
    2ace:	8a 45       	sub45 $r2,$r5
    2ad0:	88 22       	add45 $r1,$r2
    2ad2:	80 45       	mov55 $r2,$r5
    2ad4:	80 a2       	mov55 $r5,$r2
    2ad6:	cc 08       	bnez38 $r4,2ae6 <vPortDefineHeapRegions+0x52>
    2ad8:	3f 0f fe b0 	addi.gp $r16,#-336
    2adc:	b6 50       	swi450 $r2,[$r16]
    2ade:	86 20       	movi55 $r17,#0x0
    2ae0:	15 18 00 04 	swi $r17,[$r16+#0x10]
    2ae4:	d5 15       	j8 2b0e <vPortDefineHeapRegions+0x7a>
    2ae6:	3c fd ff ab 	lwi.gp $r15,[+#-340]
    2aea:	e9 08       	bnezs8 2afa <vPortDefineHeapRegions+0x66>
    2aec:	64 02 00 02 	mfsr $r0,$psw
    2af0:	3c 0f ff b6 	swi.gp $r0,[+#-296]
    2af4:	49 00 0b fe 	jal 42f0 <GIE_DISABLE>
    2af8:	d5 00       	j8 2af8 <vPortDefineHeapRegions+0x64>
    2afa:	40 f7 88 06 	slt $r15,$r15,$r2
    2afe:	e9 08       	bnezs8 2b0e <vPortDefineHeapRegions+0x7a>
    2b00:	64 02 00 02 	mfsr $r0,$psw
    2b04:	3c 0f ff b6 	swi.gp $r0,[+#-296]
    2b08:	49 00 0b f4 	jal 42f0 <GIE_DISABLE>
    2b0c:	d5 00       	j8 2b0c <vPortDefineHeapRegions+0x78>
    2b0e:	3c fd ff ab 	lwi.gp $r15,[+#-340]
    2b12:	88 22       	add45 $r1,$r2
    2b14:	50 10 ff e0 	addi $r1,$r1,#-32
    2b18:	66 10 80 1f 	bitci $r1,$r1,#0x1f
    2b1c:	3c 1f ff ab 	swi.gp $r1,[+#-340]
    2b20:	86 20       	movi55 $r17,#0x0
    2b22:	15 10 80 04 	swi $r17,[$r1+#0x10]
    2b26:	b7 a1       	swi450 $r17,[$r1]
    2b28:	9a 8a       	sub333 $r2,$r1,$r2
    2b2a:	a8 ac       	swi333 $r2,[$r5+#0x10]
    2b2c:	b6 25       	swi450 $r1,[$r5]
    2b2e:	e8 02       	beqzs8 2b32 <vPortDefineHeapRegions+0x9e>
    2b30:	b6 af       	swi450 $r5,[$r15]
    2b32:	a0 6c       	lwi333 $r1,[$r5+#0x10]
    2b34:	88 61       	add45 $r3,$r1
    2b36:	8c 81       	addi45 $r4,#0x1
    2b38:	94 a3       	slli333 $r2,$r4,#0x3
    2b3a:	88 40       	add45 $r2,$r0
    2b3c:	d5 04       	j8 2b44 <vPortDefineHeapRegions+0xb0>
    2b3e:	80 40       	mov55 $r2,$r0
    2b40:	84 80       	movi55 $r4,#0x0
    2b42:	84 60       	movi55 $r3,#0x0
    2b44:	a0 51       	lwi333 $r1,[$r2+#0x4]
    2b46:	c9 bc       	bnez38 $r1,2abe <vPortDefineHeapRegions+0x2a>
    2b48:	3c 3f ff a9 	swi.gp $r3,[+#-348]
    2b4c:	3c 3f ff aa 	swi.gp $r3,[+#-344]
    2b50:	cb 08       	bnez38 $r3,2b60 <vPortDefineHeapRegions+0xcc>
    2b52:	64 02 00 02 	mfsr $r0,$psw
    2b56:	3c 0f ff b6 	swi.gp $r0,[+#-296]
    2b5a:	49 00 0b cb 	jal 42f0 <GIE_DISABLE>
    2b5e:	d5 00       	j8 2b5e <vPortDefineHeapRegions+0xca>
    2b60:	46 08 00 00 	sethi $r0,#0x80000
    2b64:	3c 0f ff a8 	swi.gp $r0,[+#-352]
    2b68:	ec 04       	addi10.sp #0x4
    2b6a:	3b ff fc 84 	lmw.bim $sp,[$sp],$sp,#0x2    ! {$lp}
    2b6e:	dd 9e       	ret5 $lp

00002b70 <GetIPSR>:
    2b70:	64 02 00 02 	mfsr $r0,$psw
    2b74:	92 10       	srli45 $r0,#0x10
    2b76:	96 17       	fexti33 $r0,#0x2
    2b78:	5a 08 07 04 	bnec $r0,#0x7,2b80 <GetIPSR+0x10>
    2b7c:	84 00       	movi55 $r0,#0x0
    2b7e:	dd 9e       	ret5 $lp
    2b80:	84 01       	movi55 $r0,#0x1
    2b82:	dd 9e       	ret5 $lp

00002b84 <GetCurrentTaskHandle>:
    2b84:	3b ff fc bc 	smw.adm $sp,[$sp],$sp,#0x2    ! {$lp}
    2b88:	ef fc       	addi10.sp #-4
    2b8a:	49 ff ff f3 	jal 2b70 <GetIPSR>
    2b8e:	c8 04       	bnez38 $r0,2b96 <GetCurrentTaskHandle+0x12>
    2b90:	49 00 08 55 	jal 3c3a <xTaskGetCurrentTaskHandle>
    2b94:	d5 02       	j8 2b98 <GetCurrentTaskHandle+0x14>
    2b96:	84 00       	movi55 $r0,#0x0
    2b98:	ec 04       	addi10.sp #0x4
    2b9a:	3b ff fc 84 	lmw.bim $sp,[$sp],$sp,#0x2    ! {$lp}
    2b9e:	dd 9e       	ret5 $lp

00002ba0 <DeleteTaskMallocMem>:
    2ba0:	3a 6f a0 bc 	smw.adm $r6,[$sp],$r8,#0x2    ! {$r6~$r8, $lp}
    2ba4:	80 e0       	mov55 $r7,$r0
    2ba6:	c8 05       	bnez38 $r0,2bb0 <DeleteTaskMallocMem+0x10>
    2ba8:	49 ff ff ee 	jal 2b84 <GetCurrentTaskHandle>
    2bac:	80 e0       	mov55 $r7,$r0
    2bae:	c0 12       	beqz38 $r0,2bd2 <DeleteTaskMallocMem+0x32>
    2bb0:	3e 1f fe c4 	addi.gp $r1,#-316
    2bb4:	a1 89       	lwi333 $r6,[$r1+#0x4]
    2bb6:	a1 4b       	lwi333 $r5,[$r1+#0xc]
    2bb8:	df 09       	bnes38 $r7,2bca <DeleteTaskMallocMem+0x2a>
    2bba:	a0 0a       	lwi333 $r0,[$r1+#0x8]
    2bbc:	a9 81       	swi333 $r6,[$r0+#0x4]
    2bbe:	c6 02       	beqz38 $r6,2bc2 <DeleteTaskMallocMem+0x22>
    2bc0:	a8 32       	swi333 $r0,[$r6+#0x8]
    2bc2:	50 00 80 20 	addi $r0,$r1,#0x20
    2bc6:	49 ff ff 32 	jal 2a2a <vPortFree>
    2bca:	c6 04       	beqz38 $r6,2bd2 <DeleteTaskMallocMem+0x32>
    2bcc:	80 26       	mov55 $r1,$r6
    2bce:	a1 b1       	lwi333 $r6,[$r6+#0x4]
    2bd0:	d5 f3       	j8 2bb6 <DeleteTaskMallocMem+0x16>
    2bd2:	3a 6f a0 84 	lmw.bim $r6,[$sp],$r8,#0x2    ! {$r6~$r8, $lp}
    2bd6:	dd 9e       	ret5 $lp

00002bd8 <vListInitialise>:
    2bd8:	50 10 00 08 	addi $r1,$r0,#0x8
    2bdc:	a8 41       	swi333 $r1,[$r0+#0x4]
    2bde:	84 5f       	movi55 $r2,#-1
    2be0:	a8 82       	swi333 $r2,[$r0+#0x8]
    2be2:	a8 43       	swi333 $r1,[$r0+#0xc]
    2be4:	a8 44       	swi333 $r1,[$r0+#0x10]
    2be6:	84 20       	movi55 $r1,#0x0
    2be8:	b6 20       	swi450 $r1,[$r0]
    2bea:	dd 9e       	ret5 $lp

00002bec <vListInitialiseItem>:
    2bec:	84 20       	movi55 $r1,#0x0
    2bee:	a8 44       	swi333 $r1,[$r0+#0x10]
    2bf0:	dd 9e       	ret5 $lp

00002bf2 <vListInsertEnd>:
    2bf2:	a0 81       	lwi333 $r2,[$r0+#0x4]
    2bf4:	a8 89       	swi333 $r2,[$r1+#0x4]
    2bf6:	a0 d2       	lwi333 $r3,[$r2+#0x8]
    2bf8:	a8 ca       	swi333 $r3,[$r1+#0x8]
    2bfa:	a0 d2       	lwi333 $r3,[$r2+#0x8]
    2bfc:	a8 59       	swi333 $r1,[$r3+#0x4]
    2bfe:	a8 52       	swi333 $r1,[$r2+#0x8]
    2c00:	a8 0c       	swi333 $r0,[$r1+#0x10]
    2c02:	b4 20       	lwi450 $r1,[$r0]
    2c04:	8c 21       	addi45 $r1,#0x1
    2c06:	b6 20       	swi450 $r1,[$r0]
    2c08:	dd 9e       	ret5 $lp

00002c0a <vListInsert>:
    2c0a:	b4 a1       	lwi450 $r5,[$r1]
    2c0c:	5a 5f ff 04 	bnec $r5,#-1,2c14 <vListInsert+0xa>
    2c10:	a1 04       	lwi333 $r4,[$r0+#0x10]
    2c12:	d5 09       	j8 2c24 <vListInsert+0x1a>
    2c14:	50 40 00 08 	addi $r4,$r0,#0x8
    2c18:	d5 02       	j8 2c1c <vListInsert+0x12>
    2c1a:	80 83       	mov55 $r4,$r3
    2c1c:	a0 e1       	lwi333 $r3,[$r4+#0x4]
    2c1e:	b4 43       	lwi450 $r2,[$r3]
    2c20:	e2 a2       	slt45 $r5,$r2
    2c22:	e8 fc       	beqzs8 2c1a <vListInsert+0x10>
    2c24:	a0 a1       	lwi333 $r2,[$r4+#0x4]
    2c26:	a8 89       	swi333 $r2,[$r1+#0x4]
    2c28:	a8 52       	swi333 $r1,[$r2+#0x8]
    2c2a:	a9 0a       	swi333 $r4,[$r1+#0x8]
    2c2c:	a8 61       	swi333 $r1,[$r4+#0x4]
    2c2e:	a8 0c       	swi333 $r0,[$r1+#0x10]
    2c30:	b4 20       	lwi450 $r1,[$r0]
    2c32:	8c 21       	addi45 $r1,#0x1
    2c34:	b6 20       	swi450 $r1,[$r0]
    2c36:	dd 9e       	ret5 $lp

00002c38 <uxListRemove>:
    2c38:	a0 44       	lwi333 $r1,[$r0+#0x10]
    2c3a:	a0 81       	lwi333 $r2,[$r0+#0x4]
    2c3c:	a0 c2       	lwi333 $r3,[$r0+#0x8]
    2c3e:	a8 d2       	swi333 $r3,[$r2+#0x8]
    2c40:	a0 82       	lwi333 $r2,[$r0+#0x8]
    2c42:	a0 c1       	lwi333 $r3,[$r0+#0x4]
    2c44:	a8 d1       	swi333 $r3,[$r2+#0x4]
    2c46:	a1 49       	lwi333 $r5,[$r1+#0x4]
    2c48:	d8 03       	bnes38 $r0,2c4e <uxListRemove+0x16>
    2c4a:	a0 82       	lwi333 $r2,[$r0+#0x8]
    2c4c:	a8 89       	swi333 $r2,[$r1+#0x4]
    2c4e:	84 40       	movi55 $r2,#0x0
    2c50:	a8 84       	swi333 $r2,[$r0+#0x10]
    2c52:	b4 01       	lwi450 $r0,[$r1]
    2c54:	8e 01       	subi45 $r0,#0x1
    2c56:	b6 01       	swi450 $r0,[$r1]
    2c58:	dd 9e       	ret5 $lp

00002c5a <CtxRestore>:
    2c5a:	3e 08 00 34 	addi.gp $r0,#0x34
    2c5e:	b4 20       	lwi450 $r1,[$r0]
    2c60:	05 f0 80 00 	lwi $sp,[$r1+#0x0]
    2c64:	34 0f 90 02 	fldi.bi $fd0,[$sp],#0x8
    2c68:	34 1f 90 02 	fldi.bi $fd1,[$sp],#0x8
    2c6c:	34 2f 90 02 	fldi.bi $fd2,[$sp],#0x8
    2c70:	34 3f 90 02 	fldi.bi $fd3,[$sp],#0x8
    2c74:	34 4f 90 02 	fldi.bi $fd4,[$sp],#0x8
    2c78:	34 5f 90 02 	fldi.bi $fd5,[$sp],#0x8
    2c7c:	34 6f 90 02 	fldi.bi $fd6,[$sp],#0x8
    2c80:	34 7f 90 02 	fldi.bi $fd7,[$sp],#0x8
    2c84:	34 8f 90 02 	fldi.bi $fd8,[$sp],#0x8
    2c88:	34 9f 90 02 	fldi.bi $fd9,[$sp],#0x8
    2c8c:	34 af 90 02 	fldi.bi $fd10,[$sp],#0x8
    2c90:	34 bf 90 02 	fldi.bi $fd11,[$sp],#0x8
    2c94:	34 cf 90 02 	fldi.bi $fd12,[$sp],#0x8
    2c98:	34 df 90 02 	fldi.bi $fd13,[$sp],#0x8
    2c9c:	34 ef 90 02 	fldi.bi $fd14,[$sp],#0x8
    2ca0:	34 ff 90 02 	fldi.bi $fd15,[$sp],#0x8
    2ca4:	05 ff 80 00 	lwi $sp,[$sp+#0x0]
    2ca8:	3a 0f 88 04 	lmw.bim $r0,[$sp],$r2,#0x0    ! {$r0~$r2}
    2cac:	64 12 a4 03 	mtsr $r1,$ipc
    2cb0:	64 22 04 03 	mtsr $r2,$ipsw
    2cb4:	3a 2f 90 04 	lmw.bim $r2,[$sp],$r4,#0x0    ! {$r2~$r4}
    2cb8:	42 2c 80 21 	mtusr $r2,$lb
    2cbc:	42 3d 00 21 	mtusr $r3,$le
    2cc0:	42 4d 80 21 	mtusr $r4,$lc
    2cc4:	3a 0f 80 04 	lmw.bim $r0,[$sp],$r0,#0x0    ! {$r0}
    2cc8:	42 0e 80 21 	mtusr $r0,$ifc_lp
    2ccc:	3a 2f ef 84 	lmw.bim $r2,[$sp],$p1,#0xe    ! {$r2~$p1, $fp, $gp, $lp}
    2cd0:	3a 0f 84 04 	lmw.bim $r0,[$sp],$r1,#0x0    ! {$r0~$r1}
    2cd4:	64 00 00 04 	iret

00002cd8 <vPortEndScheduler>:
    2cd8:	3b ff fc bc 	smw.adm $sp,[$sp],$sp,#0x2    ! {$lp}
    2cdc:	ef fc       	addi10.sp #-4
    2cde:	44 00 6c 9c 	movi $r0,#0x6c9c
    2ce2:	49 00 19 56 	jal 5f8e <puts>
    2ce6:	84 00       	movi55 $r0,#0x0
    2ce8:	49 00 04 d5 	jal 3692 <vTaskDelete>
    2cec:	ec 04       	addi10.sp #0x4
    2cee:	3b ff fc 84 	lmw.bim $sp,[$sp],$sp,#0x2    ! {$lp}
    2cf2:	dd 9e       	ret5 $lp

00002cf4 <pxPortInitialiseStack>:
    2cf4:	46 30 10 10 	sethi $r3,#0x1010
    2cf8:	50 31 81 01 	addi $r3,$r3,#0x101
    2cfc:	14 30 7f ff 	swi $r3,[$r0+#-4]
    2d00:	14 20 7f fe 	swi $r2,[$r0+#-8]
    2d04:	44 20 2c d8 	movi $r2,#0x2cd8
    2d08:	14 20 7f fd 	swi $r2,[$r0+#-12]
    2d0c:	3e 28 00 00 	addi.gp $r2,#0x0
    2d10:	14 20 7f fc 	swi $r2,[$r0+#-16]
    2d14:	50 30 7f ec 	addi $r3,$r0,#-20
    2d18:	46 21 c1 c1 	sethi $r2,#0x1c1c1
    2d1c:	50 21 0c 1c 	addi $r2,$r2,#0xc1c
    2d20:	14 20 7f fb 	swi $r2,[$r0+#-20]
    2d24:	fa 4b       	movpi45 $r2,#0x1b
    2d26:	d5 09       	j8 2d38 <pxPortInitialiseStack+0x44>
    2d28:	8e 64       	subi45 $r3,#0x4
    2d2a:	46 00 10 10 	sethi $r0,#0x1010
    2d2e:	50 00 01 01 	addi $r0,$r0,#0x101
    2d32:	fe 14       	mul33 $r0,$r2
    2d34:	b6 03       	swi450 $r0,[$r3]
    2d36:	8e 41       	subi45 $r2,#0x1
    2d38:	e4 42       	sltsi45 $r2,#0x2
    2d3a:	e8 f7       	beqzs8 2d28 <pxPortInitialiseStack+0x34>
    2d3c:	46 02 82 82 	sethi $r0,#0x28282
    2d40:	50 00 08 28 	addi $r0,$r0,#0x828
    2d44:	14 01 ff ff 	swi $r0,[$r3+#-4]
    2d48:	84 00       	movi55 $r0,#0x0
    2d4a:	14 01 ff fe 	swi $r0,[$r3+#-8]
    2d4e:	14 01 ff fd 	swi $r0,[$r3+#-12]
    2d52:	14 01 ff fc 	swi $r0,[$r3+#-16]
    2d56:	64 22 00 02 	mfsr $r2,$psw
    2d5a:	44 0f 7f fe 	movi $r0,#-32770
    2d5e:	fe 16       	and33 $r0,$r2
    2d60:	58 00 00 01 	ori $r0,$r0,#0x1
    2d64:	14 01 ff fb 	swi $r0,[$r3+#-20]
    2d68:	14 11 ff fa 	swi $r1,[$r3+#-24]
    2d6c:	50 11 ff e4 	addi $r1,$r3,#-28
    2d70:	64 02 00 02 	mfsr $r0,$psw
    2d74:	58 00 00 02 	ori $r0,$r0,#0x2
    2d78:	14 01 ff f9 	swi $r0,[$r3+#-28]
    2d7c:	50 01 ff e0 	addi $r0,$r3,#-32
    2d80:	14 11 ff f8 	swi $r1,[$r3+#-32]
    2d84:	54 20 00 07 	andi $r2,$r0,#0x7
    2d88:	c2 05       	beqz38 $r2,2d92 <pxPortInitialiseStack+0x9e>
    2d8a:	50 01 ff dc 	addi $r0,$r3,#-36
    2d8e:	14 11 ff f7 	swi $r1,[$r3+#-36]
    2d92:	44 20 00 43 	movi $r2,#0x43
    2d96:	d5 09       	j8 2da8 <pxPortInitialiseStack+0xb4>
    2d98:	8e 04       	subi45 $r0,#0x4
    2d9a:	46 10 10 10 	sethi $r1,#0x1010
    2d9e:	50 10 81 01 	addi $r1,$r1,#0x101
    2da2:	fe 54       	mul33 $r1,$r2
    2da4:	b6 20       	swi450 $r1,[$r0]
    2da6:	8e 41       	subi45 $r2,#0x1
    2da8:	5e f1 00 24 	sltsi $r15,$r2,#0x24
    2dac:	e8 f6       	beqzs8 2d98 <pxPortInitialiseStack+0xa4>
    2dae:	dd 9e       	ret5 $lp

00002db0 <xPortStartScheduler>:
    2db0:	3b ff fc bc 	smw.adm $sp,[$sp],$sp,#0x2    ! {$lp}
    2db4:	ef fc       	addi10.sp #-4
    2db6:	49 00 14 48 	jal 5646 <SysTickInit>
    2dba:	49 00 00 49 	jal 2e4c <vPortISRStartFirstTask>
    2dbe:	84 00       	movi55 $r0,#0x0
    2dc0:	ec 04       	addi10.sp #0x4
    2dc2:	3b ff fc 84 	lmw.bim $sp,[$sp],$sp,#0x2    ! {$lp}
    2dc6:	dd 9e       	ret5 $lp

00002dc8 <vPortYield>:
    2dc8:	44 01 00 00 	movi $r0,#0x10000
    2dcc:	64 03 20 03 	mtsr $r0,$int_pend
    2dd0:	64 00 00 09 	isb
    2dd4:	dd 9e       	ret5 $lp

00002dd6 <vPortEnterCritical>:
    2dd6:	3b ff fc bc 	smw.adm $sp,[$sp],$sp,#0x2    ! {$lp}
    2dda:	ef f4       	addi10.sp #-12
    2ddc:	64 02 00 02 	mfsr $r0,$psw
    2de0:	f0 81       	swi37.sp $r0,[+#0x4]
    2de2:	49 00 0a 87 	jal 42f0 <GIE_DISABLE>
    2de6:	3c 0d ff b8 	lwi.gp $r0,[+#-288]
    2dea:	c8 04       	bnez38 $r0,2df2 <vPortEnterCritical+0x1c>
    2dec:	f0 01       	lwi37.sp $r0,[+#0x4]
    2dee:	3c 0f ff b7 	swi.gp $r0,[+#-292]
    2df2:	3c 0d ff b8 	lwi.gp $r0,[+#-288]
    2df6:	8c 01       	addi45 $r0,#0x1
    2df8:	3c 0f ff b8 	swi.gp $r0,[+#-288]
    2dfc:	ec 0c       	addi10.sp #0xc
    2dfe:	3b ff fc 84 	lmw.bim $sp,[$sp],$sp,#0x2    ! {$lp}
    2e02:	dd 9e       	ret5 $lp

00002e04 <vPortExitCritical>:
    2e04:	3c 0d ff b8 	lwi.gp $r0,[+#-288]
    2e08:	8e 01       	subi45 $r0,#0x1
    2e0a:	3c 0f ff b8 	swi.gp $r0,[+#-288]
    2e0e:	3c 0d ff b8 	lwi.gp $r0,[+#-288]
    2e12:	c8 0d       	bnez38 $r0,2e2c <vPortExitCritical+0x28>
    2e14:	3c 0d ff b7 	lwi.gp $r0,[+#-292]
    2e18:	96 04       	xlsb33 $r0,$r0
    2e1a:	c0 09       	beqz38 $r0,2e2c <vPortExitCritical+0x28>
    2e1c:	3b ff fc bc 	smw.adm $sp,[$sp],$sp,#0x2    ! {$lp}
    2e20:	ef fc       	addi10.sp #-4
    2e22:	49 00 0a 62 	jal 42e6 <GIE_ENABLE>
    2e26:	ec 04       	addi10.sp #0x4
    2e28:	3b ff fc 84 	lmw.bim $sp,[$sp],$sp,#0x2    ! {$lp}
    2e2c:	dd 9e       	ret5 $lp

00002e2e <ulPortSetInterruptMask>:
    2e2e:	64 02 00 02 	mfsr $r0,$psw
    2e32:	44 18 ff ff 	movi $r1,#-458753
    2e36:	fe 46       	and33 $r1,$r0
    2e38:	64 12 00 03 	mtsr $r1,$psw
    2e3c:	64 00 00 09 	isb
    2e40:	dd 9e       	ret5 $lp

00002e42 <vPortClearInterruptMask>:
    2e42:	64 02 00 03 	mtsr $r0,$psw
    2e46:	64 00 00 09 	isb
    2e4a:	dd 9e       	ret5 $lp

00002e4c <vPortISRStartFirstTask>:
    2e4c:	3b ff fc bc 	smw.adm $sp,[$sp],$sp,#0x2    ! {$lp}
    2e50:	ef fc       	addi10.sp #-4
    2e52:	49 ff ff 04 	jal 2c5a <CtxRestore>
    2e56:	ec 04       	addi10.sp #0x4
    2e58:	3b ff fc 84 	lmw.bim $sp,[$sp],$sp,#0x2    ! {$lp}
    2e5c:	dd 9e       	ret5 $lp

00002e5e <prvIsQueueFull>:
    2e5e:	3a 6f 98 bc 	smw.adm $r6,[$sp],$r6,#0x2    ! {$r6, $lp}
    2e62:	80 c0       	mov55 $r6,$r0
    2e64:	49 ff ff b9 	jal 2dd6 <vPortEnterCritical>
    2e68:	04 53 00 0e 	lwi $r5,[$r6+#0x38]
    2e6c:	04 03 00 0f 	lwi $r0,[$r6+#0x3c]
    2e70:	d8 03       	bnes38 $r0,2e76 <prvIsQueueFull+0x18>
    2e72:	84 c1       	movi55 $r6,#0x1
    2e74:	d5 02       	j8 2e78 <prvIsQueueFull+0x1a>
    2e76:	84 c0       	movi55 $r6,#0x0
    2e78:	49 ff ff c6 	jal 2e04 <vPortExitCritical>
    2e7c:	80 06       	mov55 $r0,$r6
    2e7e:	3a 6f 98 84 	lmw.bim $r6,[$sp],$r6,#0x2    ! {$r6, $lp}
    2e82:	dd 9e       	ret5 $lp

00002e84 <prvIsQueueEmpty>:
    2e84:	3a 6f 98 bc 	smw.adm $r6,[$sp],$r6,#0x2    ! {$r6, $lp}
    2e88:	80 c0       	mov55 $r6,$r0
    2e8a:	49 ff ff a6 	jal 2dd6 <vPortEnterCritical>
    2e8e:	04 03 00 0e 	lwi $r0,[$r6+#0x38]
    2e92:	c8 03       	bnez38 $r0,2e98 <prvIsQueueEmpty+0x14>
    2e94:	84 c1       	movi55 $r6,#0x1
    2e96:	d5 02       	j8 2e9a <prvIsQueueEmpty+0x16>
    2e98:	84 c0       	movi55 $r6,#0x0
    2e9a:	49 ff ff b5 	jal 2e04 <vPortExitCritical>
    2e9e:	80 06       	mov55 $r0,$r6
    2ea0:	3a 6f 98 84 	lmw.bim $r6,[$sp],$r6,#0x2    ! {$r6, $lp}
    2ea4:	dd 9e       	ret5 $lp

00002ea6 <prvCopyDataToQueue>:
    2ea6:	3a 6f a0 bc 	smw.adm $r6,[$sp],$r8,#0x2    ! {$r6~$r8, $lp}
    2eaa:	80 c0       	mov55 $r6,$r0
    2eac:	80 e2       	mov55 $r7,$r2
    2eae:	04 20 00 10 	lwi $r2,[$r0+#0x40]
    2eb2:	ca 09       	bnez38 $r2,2ec4 <prvCopyDataToQueue+0x1e>
    2eb4:	b4 00       	lwi450 $r0,[$r0]
    2eb6:	c8 31       	bnez38 $r0,2f18 <prvCopyDataToQueue+0x72>
    2eb8:	a0 31       	lwi333 $r0,[$r6+#0x4]
    2eba:	49 00 07 16 	jal 3ce6 <vTaskPriorityDisinherit>
    2ebe:	84 00       	movi55 $r0,#0x0
    2ec0:	a8 31       	swi333 $r0,[$r6+#0x4]
    2ec2:	d5 2b       	j8 2f18 <prvCopyDataToQueue+0x72>
    2ec4:	cf 10       	bnez38 $r7,2ee4 <prvCopyDataToQueue+0x3e>
    2ec6:	a0 02       	lwi333 $r0,[$r0+#0x8]
    2ec8:	49 00 18 30 	jal 5f28 <memcpy>
    2ecc:	a0 72       	lwi333 $r1,[$r6+#0x8]
    2ece:	04 03 00 10 	lwi $r0,[$r6+#0x40]
    2ed2:	88 01       	add45 $r0,$r1
    2ed4:	a8 32       	swi333 $r0,[$r6+#0x8]
    2ed6:	a0 71       	lwi333 $r1,[$r6+#0x4]
    2ed8:	40 00 04 06 	slt $r0,$r0,$r1
    2edc:	c8 1e       	bnez38 $r0,2f18 <prvCopyDataToQueue+0x72>
    2ede:	b4 06       	lwi450 $r0,[$r6]
    2ee0:	a8 32       	swi333 $r0,[$r6+#0x8]
    2ee2:	d5 1b       	j8 2f18 <prvCopyDataToQueue+0x72>
    2ee4:	a0 03       	lwi333 $r0,[$r0+#0xc]
    2ee6:	49 00 18 21 	jal 5f28 <memcpy>
    2eea:	04 13 00 10 	lwi $r1,[$r6+#0x40]
    2eee:	fe 4a       	neg33 $r1,$r1
    2ef0:	a0 33       	lwi333 $r0,[$r6+#0xc]
    2ef2:	88 01       	add45 $r0,$r1
    2ef4:	a8 33       	swi333 $r0,[$r6+#0xc]
    2ef6:	b4 46       	lwi450 $r2,[$r6]
    2ef8:	40 00 08 06 	slt $r0,$r0,$r2
    2efc:	c0 04       	beqz38 $r0,2f04 <prvCopyDataToQueue+0x5e>
    2efe:	a0 31       	lwi333 $r0,[$r6+#0x4]
    2f00:	88 20       	add45 $r1,$r0
    2f02:	a8 73       	swi333 $r1,[$r6+#0xc]
    2f04:	5a 78 02 0a 	bnec $r7,#0x2,2f18 <prvCopyDataToQueue+0x72>
    2f08:	04 03 00 0e 	lwi $r0,[$r6+#0x38]
    2f0c:	c0 06       	beqz38 $r0,2f18 <prvCopyDataToQueue+0x72>
    2f0e:	04 03 00 0e 	lwi $r0,[$r6+#0x38]
    2f12:	8e 01       	subi45 $r0,#0x1
    2f14:	14 03 00 0e 	swi $r0,[$r6+#0x38]
    2f18:	04 03 00 0e 	lwi $r0,[$r6+#0x38]
    2f1c:	8c 01       	addi45 $r0,#0x1
    2f1e:	14 03 00 0e 	swi $r0,[$r6+#0x38]
    2f22:	3a 6f a0 84 	lmw.bim $r6,[$sp],$r8,#0x2    ! {$r6~$r8, $lp}
    2f26:	dd 9e       	ret5 $lp

00002f28 <prvCopyDataFromQueue>:
    2f28:	80 60       	mov55 $r3,$r0
    2f2a:	b4 00       	lwi450 $r0,[$r0]
    2f2c:	c0 14       	beqz38 $r0,2f54 <prvCopyDataFromQueue+0x2c>
    2f2e:	3b ff fc bc 	smw.adm $sp,[$sp],$sp,#0x2    ! {$lp}
    2f32:	ef fc       	addi10.sp #-4
    2f34:	04 21 80 10 	lwi $r2,[$r3+#0x40]
    2f38:	a1 1b       	lwi333 $r4,[$r3+#0xc]
    2f3a:	88 82       	add45 $r4,$r2
    2f3c:	a9 1b       	swi333 $r4,[$r3+#0xc]
    2f3e:	a1 59       	lwi333 $r5,[$r3+#0x4]
    2f40:	e2 85       	slt45 $r4,$r5
    2f42:	e9 02       	bnezs8 2f46 <prvCopyDataFromQueue+0x1e>
    2f44:	a8 1b       	swi333 $r0,[$r3+#0xc]
    2f46:	80 01       	mov55 $r0,$r1
    2f48:	a0 5b       	lwi333 $r1,[$r3+#0xc]
    2f4a:	49 00 17 ef 	jal 5f28 <memcpy>
    2f4e:	ec 04       	addi10.sp #0x4
    2f50:	3b ff fc 84 	lmw.bim $sp,[$sp],$sp,#0x2    ! {$lp}
    2f54:	dd 9e       	ret5 $lp

00002f56 <prvUnlockQueue>:
    2f56:	3a 6f 98 bc 	smw.adm $r6,[$sp],$r6,#0x2    ! {$r6, $lp}
    2f5a:	80 c0       	mov55 $r6,$r0
    2f5c:	49 ff ff 3d 	jal 2dd6 <vPortEnterCritical>
    2f60:	d5 10       	j8 2f80 <prvUnlockQueue+0x2a>
    2f62:	04 03 00 09 	lwi $r0,[$r6+#0x24]
    2f66:	c0 11       	beqz38 $r0,2f88 <prvUnlockQueue+0x32>
    2f68:	50 03 00 24 	addi $r0,$r6,#0x24
    2f6c:	49 00 05 dd 	jal 3b26 <xTaskRemoveFromEventList>
    2f70:	c0 03       	beqz38 $r0,2f76 <prvUnlockQueue+0x20>
    2f72:	49 00 06 60 	jal 3c32 <vTaskMissedYield>
    2f76:	04 03 00 12 	lwi $r0,[$r6+#0x48]
    2f7a:	8e 01       	subi45 $r0,#0x1
    2f7c:	14 03 00 12 	swi $r0,[$r6+#0x48]
    2f80:	04 03 00 12 	lwi $r0,[$r6+#0x48]
    2f84:	4e 06 ff ef 	bgtz $r0,2f62 <prvUnlockQueue+0xc>
    2f88:	84 1f       	movi55 $r0,#-1
    2f8a:	14 03 00 12 	swi $r0,[$r6+#0x48]
    2f8e:	49 ff ff 3b 	jal 2e04 <vPortExitCritical>
    2f92:	49 ff ff 22 	jal 2dd6 <vPortEnterCritical>
    2f96:	d5 0f       	j8 2fb4 <prvUnlockQueue+0x5e>
    2f98:	a0 34       	lwi333 $r0,[$r6+#0x10]
    2f9a:	c0 11       	beqz38 $r0,2fbc <prvUnlockQueue+0x66>
    2f9c:	50 03 00 10 	addi $r0,$r6,#0x10
    2fa0:	49 00 05 c3 	jal 3b26 <xTaskRemoveFromEventList>
    2fa4:	c0 03       	beqz38 $r0,2faa <prvUnlockQueue+0x54>
    2fa6:	49 00 06 46 	jal 3c32 <vTaskMissedYield>
    2faa:	04 03 00 11 	lwi $r0,[$r6+#0x44]
    2fae:	8e 01       	subi45 $r0,#0x1
    2fb0:	14 03 00 11 	swi $r0,[$r6+#0x44]
    2fb4:	04 03 00 11 	lwi $r0,[$r6+#0x44]
    2fb8:	4e 06 ff f0 	bgtz $r0,2f98 <prvUnlockQueue+0x42>
    2fbc:	84 1f       	movi55 $r0,#-1
    2fbe:	14 03 00 11 	swi $r0,[$r6+#0x44]
    2fc2:	49 ff ff 21 	jal 2e04 <vPortExitCritical>
    2fc6:	3a 6f 98 84 	lmw.bim $r6,[$sp],$r6,#0x2    ! {$r6, $lp}
    2fca:	dd 9e       	ret5 $lp

00002fcc <xQueueGenericReset>:
    2fcc:	3a 6f a0 bc 	smw.adm $r6,[$sp],$r8,#0x2    ! {$r6~$r8, $lp}
    2fd0:	80 c0       	mov55 $r6,$r0
    2fd2:	c8 08       	bnez38 $r0,2fe2 <xQueueGenericReset+0x16>
    2fd4:	64 02 00 02 	mfsr $r0,$psw
    2fd8:	3c 0f ff b6 	swi.gp $r0,[+#-296]
    2fdc:	49 00 09 8a 	jal 42f0 <GIE_DISABLE>
    2fe0:	d5 00       	j8 2fe0 <xQueueGenericReset+0x14>
    2fe2:	80 e1       	mov55 $r7,$r1
    2fe4:	49 ff fe f9 	jal 2dd6 <vPortEnterCritical>
    2fe8:	b4 06       	lwi450 $r0,[$r6]
    2fea:	04 23 00 0f 	lwi $r2,[$r6+#0x3c]
    2fee:	04 33 00 10 	lwi $r3,[$r6+#0x40]
    2ff2:	80 20       	mov55 $r1,$r0
    2ff4:	42 11 0c 73 	maddr32 $r1,$r2,$r3
    2ff8:	a8 71       	swi333 $r1,[$r6+#0x4]
    2ffa:	84 20       	movi55 $r1,#0x0
    2ffc:	14 13 00 0e 	swi $r1,[$r6+#0x38]
    3000:	a8 32       	swi333 $r0,[$r6+#0x8]
    3002:	8e 41       	subi45 $r2,#0x1
    3004:	42 01 88 73 	maddr32 $r0,$r3,$r2
    3008:	a8 33       	swi333 $r0,[$r6+#0xc]
    300a:	84 1f       	movi55 $r0,#-1
    300c:	14 03 00 11 	swi $r0,[$r6+#0x44]
    3010:	14 03 00 12 	swi $r0,[$r6+#0x48]
    3014:	cf 0c       	bnez38 $r7,302c <xQueueGenericReset+0x60>
    3016:	a0 34       	lwi333 $r0,[$r6+#0x10]
    3018:	c0 12       	beqz38 $r0,303c <xQueueGenericReset+0x70>
    301a:	50 03 00 10 	addi $r0,$r6,#0x10
    301e:	49 00 05 84 	jal 3b26 <xTaskRemoveFromEventList>
    3022:	5a 08 01 0d 	bnec $r0,#0x1,303c <xQueueGenericReset+0x70>
    3026:	49 ff fe d1 	jal 2dc8 <vPortYield>
    302a:	d5 09       	j8 303c <xQueueGenericReset+0x70>
    302c:	50 03 00 10 	addi $r0,$r6,#0x10
    3030:	49 ff fd d4 	jal 2bd8 <vListInitialise>
    3034:	50 03 00 24 	addi $r0,$r6,#0x24
    3038:	49 ff fd d0 	jal 2bd8 <vListInitialise>
    303c:	49 ff fe e4 	jal 2e04 <vPortExitCritical>
    3040:	84 01       	movi55 $r0,#0x1
    3042:	3a 6f a0 84 	lmw.bim $r6,[$sp],$r8,#0x2    ! {$r6~$r8, $lp}
    3046:	dd 9e       	ret5 $lp

00003048 <xQueueGenericCreate>:
    3048:	3a 6f a8 bc 	smw.adm $r6,[$sp],$r10,#0x2    ! {$r6~$r10, $lp}
    304c:	80 e0       	mov55 $r7,$r0
    304e:	c0 20       	beqz38 $r0,308e <xQueueGenericCreate+0x46>
    3050:	81 01       	mov55 $r8,$r1
    3052:	81 22       	mov55 $r9,$r2
    3054:	44 00 00 54 	movi $r0,#0x54
    3058:	49 ff fc 87 	jal 2966 <pvPortMalloc>
    305c:	80 c0       	mov55 $r6,$r0
    305e:	c0 19       	beqz38 $r0,3090 <xQueueGenericCreate+0x48>
    3060:	42 03 a0 24 	mul $r0,$r7,$r8
    3064:	8c 01       	addi45 $r0,#0x1
    3066:	49 ff fc 80 	jal 2966 <pvPortMalloc>
    306a:	b6 06       	swi450 $r0,[$r6]
    306c:	c0 0c       	beqz38 $r0,3084 <xQueueGenericCreate+0x3c>
    306e:	14 73 00 0f 	swi $r7,[$r6+#0x3c]
    3072:	14 83 00 10 	swi $r8,[$r6+#0x40]
    3076:	80 06       	mov55 $r0,$r6
    3078:	84 21       	movi55 $r1,#0x1
    307a:	49 ff ff a9 	jal 2fcc <xQueueGenericReset>
    307e:	10 93 00 50 	sbi $r9,[$r6+#0x50]
    3082:	d5 07       	j8 3090 <xQueueGenericCreate+0x48>
    3084:	80 06       	mov55 $r0,$r6
    3086:	49 ff fc d2 	jal 2a2a <vPortFree>
    308a:	84 c0       	movi55 $r6,#0x0
    308c:	d5 02       	j8 3090 <xQueueGenericCreate+0x48>
    308e:	84 c0       	movi55 $r6,#0x0
    3090:	ce 08       	bnez38 $r6,30a0 <xQueueGenericCreate+0x58>
    3092:	64 02 00 02 	mfsr $r0,$psw
    3096:	3c 0f ff b6 	swi.gp $r0,[+#-296]
    309a:	49 00 09 2b 	jal 42f0 <GIE_DISABLE>
    309e:	d5 00       	j8 309e <xQueueGenericCreate+0x56>
    30a0:	80 06       	mov55 $r0,$r6
    30a2:	3a 6f a8 84 	lmw.bim $r6,[$sp],$r10,#0x2    ! {$r6~$r10, $lp}
    30a6:	dd 9e       	ret5 $lp

000030a8 <xQueueGenericSend>:
    30a8:	3a 6f a4 bc 	smw.adm $r6,[$sp],$r9,#0x2    ! {$r6~$r9, $lp}
    30ac:	ef ec       	addi10.sp #-20
    30ae:	80 c0       	mov55 $r6,$r0
    30b0:	f2 81       	swi37.sp $r2,[+#0x4]
    30b2:	c8 08       	bnez38 $r0,30c2 <xQueueGenericSend+0x1a>
    30b4:	64 02 00 02 	mfsr $r0,$psw
    30b8:	3c 0f ff b6 	swi.gp $r0,[+#-296]
    30bc:	49 00 09 1a 	jal 42f0 <GIE_DISABLE>
    30c0:	d5 00       	j8 30c0 <xQueueGenericSend+0x18>
    30c2:	81 21       	mov55 $r9,$r1
    30c4:	80 e3       	mov55 $r7,$r3
    30c6:	c9 06       	bnez38 $r1,30d2 <xQueueGenericSend+0x2a>
    30c8:	04 00 00 10 	lwi $r0,[$r0+#0x40]
    30cc:	c8 05       	bnez38 $r0,30d6 <xQueueGenericSend+0x2e>
    30ce:	84 01       	movi55 $r0,#0x1
    30d0:	d5 04       	j8 30d8 <xQueueGenericSend+0x30>
    30d2:	84 01       	movi55 $r0,#0x1
    30d4:	d5 02       	j8 30d8 <xQueueGenericSend+0x30>
    30d6:	84 00       	movi55 $r0,#0x0
    30d8:	c8 08       	bnez38 $r0,30e8 <xQueueGenericSend+0x40>
    30da:	64 02 00 02 	mfsr $r0,$psw
    30de:	3c 0f ff b6 	swi.gp $r0,[+#-296]
    30e2:	49 00 09 07 	jal 42f0 <GIE_DISABLE>
    30e6:	d5 00       	j8 30e6 <xQueueGenericSend+0x3e>
    30e8:	5a 78 02 07 	bnec $r7,#0x2,30f6 <xQueueGenericSend+0x4e>
    30ec:	04 03 00 0f 	lwi $r0,[$r6+#0x3c]
    30f0:	5a 08 01 05 	bnec $r0,#0x1,30fa <xQueueGenericSend+0x52>
    30f4:	d5 04       	j8 30fc <xQueueGenericSend+0x54>
    30f6:	84 01       	movi55 $r0,#0x1
    30f8:	d5 02       	j8 30fc <xQueueGenericSend+0x54>
    30fa:	84 00       	movi55 $r0,#0x0
    30fc:	c8 08       	bnez38 $r0,310c <xQueueGenericSend+0x64>
    30fe:	64 02 00 02 	mfsr $r0,$psw
    3102:	3c 0f ff b6 	swi.gp $r0,[+#-296]
    3106:	49 00 08 f5 	jal 42f0 <GIE_DISABLE>
    310a:	d5 00       	j8 310a <xQueueGenericSend+0x62>
    310c:	49 00 05 9a 	jal 3c40 <xTaskGetSchedulerState>
    3110:	c8 05       	bnez38 $r0,311a <xQueueGenericSend+0x72>
    3112:	f0 01       	lwi37.sp $r0,[+#0x4]
    3114:	c8 05       	bnez38 $r0,311e <xQueueGenericSend+0x76>
    3116:	84 01       	movi55 $r0,#0x1
    3118:	d5 04       	j8 3120 <xQueueGenericSend+0x78>
    311a:	84 01       	movi55 $r0,#0x1
    311c:	d5 02       	j8 3120 <xQueueGenericSend+0x78>
    311e:	84 00       	movi55 $r0,#0x0
    3120:	c8 08       	bnez38 $r0,3130 <xQueueGenericSend+0x88>
    3122:	64 02 00 02 	mfsr $r0,$psw
    3126:	3c 0f ff b6 	swi.gp $r0,[+#-296]
    312a:	49 00 08 e3 	jal 42f0 <GIE_DISABLE>
    312e:	d5 00       	j8 312e <xQueueGenericSend+0x86>
    3130:	85 00       	movi55 $r8,#0x0
    3132:	49 ff fe 52 	jal 2dd6 <vPortEnterCritical>
    3136:	04 03 00 0e 	lwi $r0,[$r6+#0x38]
    313a:	04 13 00 0f 	lwi $r1,[$r6+#0x3c]
    313e:	40 00 04 06 	slt $r0,$r0,$r1
    3142:	c8 03       	bnez38 $r0,3148 <xQueueGenericSend+0xa0>
    3144:	5a 78 02 16 	bnec $r7,#0x2,3170 <xQueueGenericSend+0xc8>
    3148:	80 06       	mov55 $r0,$r6
    314a:	80 29       	mov55 $r1,$r9
    314c:	80 47       	mov55 $r2,$r7
    314e:	49 ff fe ac 	jal 2ea6 <prvCopyDataToQueue>
    3152:	04 03 00 09 	lwi $r0,[$r6+#0x24]
    3156:	c0 09       	beqz38 $r0,3168 <xQueueGenericSend+0xc0>
    3158:	50 03 00 24 	addi $r0,$r6,#0x24
    315c:	49 00 04 e5 	jal 3b26 <xTaskRemoveFromEventList>
    3160:	5a 08 01 04 	bnec $r0,#0x1,3168 <xQueueGenericSend+0xc0>
    3164:	49 ff fe 32 	jal 2dc8 <vPortYield>
    3168:	49 ff fe 4e 	jal 2e04 <vPortExitCritical>
    316c:	84 01       	movi55 $r0,#0x1
    316e:	d5 46       	j8 31fa <xQueueGenericSend+0x152>
    3170:	f0 01       	lwi37.sp $r0,[+#0x4]
    3172:	c8 05       	bnez38 $r0,317c <xQueueGenericSend+0xd4>
    3174:	49 ff fe 48 	jal 2e04 <vPortExitCritical>
    3178:	84 00       	movi55 $r0,#0x0
    317a:	d5 40       	j8 31fa <xQueueGenericSend+0x152>
    317c:	4e 83 00 06 	bnez $r8,3188 <xQueueGenericSend+0xe0>
    3180:	b0 02       	addri36.sp $r0,#0x8
    3182:	49 00 05 11 	jal 3ba4 <vTaskSetTimeOutState>
    3186:	85 01       	movi55 $r8,#0x1
    3188:	49 ff fe 3e 	jal 2e04 <vPortExitCritical>
    318c:	49 00 02 f1 	jal 376e <vTaskSuspendAll>
    3190:	49 ff fe 23 	jal 2dd6 <vPortEnterCritical>
    3194:	04 03 00 11 	lwi $r0,[$r6+#0x44]
    3198:	5a 0f ff 05 	bnec $r0,#-1,31a2 <xQueueGenericSend+0xfa>
    319c:	84 00       	movi55 $r0,#0x0
    319e:	14 03 00 11 	swi $r0,[$r6+#0x44]
    31a2:	04 03 00 12 	lwi $r0,[$r6+#0x48]
    31a6:	5a 0f ff 05 	bnec $r0,#-1,31b0 <xQueueGenericSend+0x108>
    31aa:	84 00       	movi55 $r0,#0x0
    31ac:	14 03 00 12 	swi $r0,[$r6+#0x48]
    31b0:	49 ff fe 2a 	jal 2e04 <vPortExitCritical>
    31b4:	b0 02       	addri36.sp $r0,#0x8
    31b6:	b0 41       	addri36.sp $r1,#0x4
    31b8:	49 00 05 08 	jal 3bc8 <xTaskCheckForTimeOut>
    31bc:	c8 19       	bnez38 $r0,31ee <xQueueGenericSend+0x146>
    31be:	80 06       	mov55 $r0,$r6
    31c0:	49 ff fe 4f 	jal 2e5e <prvIsQueueFull>
    31c4:	c0 0f       	beqz38 $r0,31e2 <xQueueGenericSend+0x13a>
    31c6:	50 03 00 10 	addi $r0,$r6,#0x10
    31ca:	f1 01       	lwi37.sp $r1,[+#0x4]
    31cc:	49 00 04 90 	jal 3aec <vTaskPlaceOnEventList>
    31d0:	80 06       	mov55 $r0,$r6
    31d2:	49 ff fe c2 	jal 2f56 <prvUnlockQueue>
    31d6:	49 00 03 5e 	jal 3892 <xTaskResumeAll>
    31da:	c8 ac       	bnez38 $r0,3132 <xQueueGenericSend+0x8a>
    31dc:	49 ff fd f6 	jal 2dc8 <vPortYield>
    31e0:	d5 a9       	j8 3132 <xQueueGenericSend+0x8a>
    31e2:	80 06       	mov55 $r0,$r6
    31e4:	49 ff fe b9 	jal 2f56 <prvUnlockQueue>
    31e8:	49 00 03 55 	jal 3892 <xTaskResumeAll>
    31ec:	d5 a3       	j8 3132 <xQueueGenericSend+0x8a>
    31ee:	80 06       	mov55 $r0,$r6
    31f0:	49 ff fe b3 	jal 2f56 <prvUnlockQueue>
    31f4:	49 00 03 4f 	jal 3892 <xTaskResumeAll>
    31f8:	84 00       	movi55 $r0,#0x0
    31fa:	ec 14       	addi10.sp #0x14
    31fc:	3a 6f a4 84 	lmw.bim $r6,[$sp],$r9,#0x2    ! {$r6~$r9, $lp}
    3200:	dd 9e       	ret5 $lp

00003202 <xQueueGenericReceive>:
    3202:	3a 6f a4 bc 	smw.adm $r6,[$sp],$r9,#0x2    ! {$r6~$r9, $lp}
    3206:	ef ec       	addi10.sp #-20
    3208:	80 c0       	mov55 $r6,$r0
    320a:	f2 81       	swi37.sp $r2,[+#0x4]
    320c:	c8 08       	bnez38 $r0,321c <xQueueGenericReceive+0x1a>
    320e:	64 02 00 02 	mfsr $r0,$psw
    3212:	3c 0f ff b6 	swi.gp $r0,[+#-296]
    3216:	49 00 08 6d 	jal 42f0 <GIE_DISABLE>
    321a:	d5 00       	j8 321a <xQueueGenericReceive+0x18>
    321c:	81 21       	mov55 $r9,$r1
    321e:	81 03       	mov55 $r8,$r3
    3220:	c9 06       	bnez38 $r1,322c <xQueueGenericReceive+0x2a>
    3222:	04 00 00 10 	lwi $r0,[$r0+#0x40]
    3226:	c8 05       	bnez38 $r0,3230 <xQueueGenericReceive+0x2e>
    3228:	84 01       	movi55 $r0,#0x1
    322a:	d5 04       	j8 3232 <xQueueGenericReceive+0x30>
    322c:	84 01       	movi55 $r0,#0x1
    322e:	d5 02       	j8 3232 <xQueueGenericReceive+0x30>
    3230:	84 00       	movi55 $r0,#0x0
    3232:	c8 08       	bnez38 $r0,3242 <xQueueGenericReceive+0x40>
    3234:	64 02 00 02 	mfsr $r0,$psw
    3238:	3c 0f ff b6 	swi.gp $r0,[+#-296]
    323c:	49 00 08 5a 	jal 42f0 <GIE_DISABLE>
    3240:	d5 00       	j8 3240 <xQueueGenericReceive+0x3e>
    3242:	49 00 04 ff 	jal 3c40 <xTaskGetSchedulerState>
    3246:	c8 05       	bnez38 $r0,3250 <xQueueGenericReceive+0x4e>
    3248:	f0 01       	lwi37.sp $r0,[+#0x4]
    324a:	c8 05       	bnez38 $r0,3254 <xQueueGenericReceive+0x52>
    324c:	84 01       	movi55 $r0,#0x1
    324e:	d5 04       	j8 3256 <xQueueGenericReceive+0x54>
    3250:	84 01       	movi55 $r0,#0x1
    3252:	d5 02       	j8 3256 <xQueueGenericReceive+0x54>
    3254:	84 00       	movi55 $r0,#0x0
    3256:	c8 08       	bnez38 $r0,3266 <xQueueGenericReceive+0x64>
    3258:	64 02 00 02 	mfsr $r0,$psw
    325c:	3c 0f ff b6 	swi.gp $r0,[+#-296]
    3260:	49 00 08 48 	jal 42f0 <GIE_DISABLE>
    3264:	d5 00       	j8 3264 <xQueueGenericReceive+0x62>
    3266:	84 e0       	movi55 $r7,#0x0
    3268:	49 ff fd b7 	jal 2dd6 <vPortEnterCritical>
    326c:	04 03 00 0e 	lwi $r0,[$r6+#0x38]
    3270:	c0 2c       	beqz38 $r0,32c8 <xQueueGenericReceive+0xc6>
    3272:	a1 f3       	lwi333 $r7,[$r6+#0xc]
    3274:	80 06       	mov55 $r0,$r6
    3276:	80 29       	mov55 $r1,$r9
    3278:	49 ff fe 58 	jal 2f28 <prvCopyDataFromQueue>
    327c:	4e 83 00 17 	bnez $r8,32aa <xQueueGenericReceive+0xa8>
    3280:	04 03 00 0e 	lwi $r0,[$r6+#0x38]
    3284:	8e 01       	subi45 $r0,#0x1
    3286:	14 03 00 0e 	swi $r0,[$r6+#0x38]
    328a:	b4 06       	lwi450 $r0,[$r6]
    328c:	c8 04       	bnez38 $r0,3294 <xQueueGenericReceive+0x92>
    328e:	49 00 04 d6 	jal 3c3a <xTaskGetCurrentTaskHandle>
    3292:	a8 31       	swi333 $r0,[$r6+#0x4]
    3294:	a0 34       	lwi333 $r0,[$r6+#0x10]
    3296:	c0 15       	beqz38 $r0,32c0 <xQueueGenericReceive+0xbe>
    3298:	50 03 00 10 	addi $r0,$r6,#0x10
    329c:	49 00 04 45 	jal 3b26 <xTaskRemoveFromEventList>
    32a0:	5a 08 01 10 	bnec $r0,#0x1,32c0 <xQueueGenericReceive+0xbe>
    32a4:	49 ff fd 92 	jal 2dc8 <vPortYield>
    32a8:	d5 0c       	j8 32c0 <xQueueGenericReceive+0xbe>
    32aa:	a9 f3       	swi333 $r7,[$r6+#0xc]
    32ac:	04 03 00 09 	lwi $r0,[$r6+#0x24]
    32b0:	c0 08       	beqz38 $r0,32c0 <xQueueGenericReceive+0xbe>
    32b2:	50 03 00 24 	addi $r0,$r6,#0x24
    32b6:	49 00 04 38 	jal 3b26 <xTaskRemoveFromEventList>
    32ba:	c0 03       	beqz38 $r0,32c0 <xQueueGenericReceive+0xbe>
    32bc:	49 ff fd 86 	jal 2dc8 <vPortYield>
    32c0:	49 ff fd a2 	jal 2e04 <vPortExitCritical>
    32c4:	84 01       	movi55 $r0,#0x1
    32c6:	d5 4e       	j8 3362 <xQueueGenericReceive+0x160>
    32c8:	f0 01       	lwi37.sp $r0,[+#0x4]
    32ca:	c8 05       	bnez38 $r0,32d4 <xQueueGenericReceive+0xd2>
    32cc:	49 ff fd 9c 	jal 2e04 <vPortExitCritical>
    32d0:	84 00       	movi55 $r0,#0x0
    32d2:	d5 48       	j8 3362 <xQueueGenericReceive+0x160>
    32d4:	cf 05       	bnez38 $r7,32de <xQueueGenericReceive+0xdc>
    32d6:	b0 02       	addri36.sp $r0,#0x8
    32d8:	49 00 04 66 	jal 3ba4 <vTaskSetTimeOutState>
    32dc:	84 e1       	movi55 $r7,#0x1
    32de:	49 ff fd 93 	jal 2e04 <vPortExitCritical>
    32e2:	49 00 02 46 	jal 376e <vTaskSuspendAll>
    32e6:	49 ff fd 78 	jal 2dd6 <vPortEnterCritical>
    32ea:	04 03 00 11 	lwi $r0,[$r6+#0x44]
    32ee:	5a 0f ff 05 	bnec $r0,#-1,32f8 <xQueueGenericReceive+0xf6>
    32f2:	84 00       	movi55 $r0,#0x0
    32f4:	14 03 00 11 	swi $r0,[$r6+#0x44]
    32f8:	04 03 00 12 	lwi $r0,[$r6+#0x48]
    32fc:	5a 0f ff 05 	bnec $r0,#-1,3306 <xQueueGenericReceive+0x104>
    3300:	84 00       	movi55 $r0,#0x0
    3302:	14 03 00 12 	swi $r0,[$r6+#0x48]
    3306:	49 ff fd 7f 	jal 2e04 <vPortExitCritical>
    330a:	b0 02       	addri36.sp $r0,#0x8
    330c:	b0 41       	addri36.sp $r1,#0x4
    330e:	49 00 04 5d 	jal 3bc8 <xTaskCheckForTimeOut>
    3312:	c8 22       	bnez38 $r0,3356 <xQueueGenericReceive+0x154>
    3314:	80 06       	mov55 $r0,$r6
    3316:	49 ff fd b7 	jal 2e84 <prvIsQueueEmpty>
    331a:	c0 18       	beqz38 $r0,334a <xQueueGenericReceive+0x148>
    331c:	b4 06       	lwi450 $r0,[$r6]
    331e:	c8 08       	bnez38 $r0,332e <xQueueGenericReceive+0x12c>
    3320:	49 ff fd 5b 	jal 2dd6 <vPortEnterCritical>
    3324:	a0 31       	lwi333 $r0,[$r6+#0x4]
    3326:	49 00 04 99 	jal 3c58 <vTaskPriorityInherit>
    332a:	49 ff fd 6d 	jal 2e04 <vPortExitCritical>
    332e:	50 03 00 24 	addi $r0,$r6,#0x24
    3332:	f1 01       	lwi37.sp $r1,[+#0x4]
    3334:	49 00 03 dc 	jal 3aec <vTaskPlaceOnEventList>
    3338:	80 06       	mov55 $r0,$r6
    333a:	49 ff fe 0e 	jal 2f56 <prvUnlockQueue>
    333e:	49 00 02 aa 	jal 3892 <xTaskResumeAll>
    3342:	c8 93       	bnez38 $r0,3268 <xQueueGenericReceive+0x66>
    3344:	49 ff fd 42 	jal 2dc8 <vPortYield>
    3348:	d5 90       	j8 3268 <xQueueGenericReceive+0x66>
    334a:	80 06       	mov55 $r0,$r6
    334c:	49 ff fe 05 	jal 2f56 <prvUnlockQueue>
    3350:	49 00 02 a1 	jal 3892 <xTaskResumeAll>
    3354:	d5 8a       	j8 3268 <xQueueGenericReceive+0x66>
    3356:	80 06       	mov55 $r0,$r6
    3358:	49 ff fd ff 	jal 2f56 <prvUnlockQueue>
    335c:	49 00 02 9b 	jal 3892 <xTaskResumeAll>
    3360:	84 00       	movi55 $r0,#0x0
    3362:	ec 14       	addi10.sp #0x14
    3364:	3a 6f a4 84 	lmw.bim $r6,[$sp],$r9,#0x2    ! {$r6~$r9, $lp}
    3368:	dd 9e       	ret5 $lp

0000336a <prvTaskCheckFreeStackSpace>:
    336a:	84 20       	movi55 $r1,#0x0
    336c:	d5 03       	j8 3372 <prvTaskCheckFreeStackSpace+0x8>
    336e:	8c 01       	addi45 $r0,#0x1
    3370:	8c 21       	addi45 $r1,#0x1
    3372:	a6 80       	lbi333 $r2,[$r0+#0x0]
    3374:	5a 20 a5 fd 	beqc $r2,#0xa5,336e <prvTaskCheckFreeStackSpace+0x4>
    3378:	40 00 88 09 	srli $r0,$r1,#0x2
    337c:	96 01       	zeh33 $r0,$r0
    337e:	dd 9e       	ret5 $lp

00003380 <prvListTaskWithinSingleList>:
    3380:	3a 6f b8 bc 	smw.adm $r6,[$sp],$r14,#0x2    ! {$r6~$r14, $lp}
    3384:	b4 61       	lwi450 $r3,[$r1]
    3386:	c3 3f       	beqz38 $r3,3404 <prvListTaskWithinSingleList+0x84>
    3388:	a0 c9       	lwi333 $r3,[$r1+#0x4]
    338a:	a0 d9       	lwi333 $r3,[$r3+#0x4]
    338c:	a8 c9       	swi333 $r3,[$r1+#0x4]
    338e:	50 c0 80 08 	addi $r12,$r1,#0x8
    3392:	4c 36 40 04 	bne $r3,$r12,339a <prvListTaskWithinSingleList+0x1a>
    3396:	a0 d9       	lwi333 $r3,[$r3+#0x4]
    3398:	a8 c9       	swi333 $r3,[$r1+#0x4]
    339a:	81 62       	mov55 $r11,$r2
    339c:	81 01       	mov55 $r8,$r1
    339e:	81 40       	mov55 $r10,$r0
    33a0:	a0 09       	lwi333 $r0,[$r1+#0x4]
    33a2:	04 d0 00 03 	lwi $r13,[$r0+#0xc]
    33a6:	85 20       	movi55 $r9,#0x0
    33a8:	04 04 00 01 	lwi $r0,[$r8+#0x4]
    33ac:	a0 41       	lwi333 $r1,[$r0+#0x4]
    33ae:	14 14 00 01 	swi $r1,[$r8+#0x4]
    33b2:	4c c0 c0 05 	bne $r12,$r1,33bc <prvListTaskWithinSingleList+0x3c>
    33b6:	a0 09       	lwi333 $r0,[$r1+#0x4]
    33b8:	14 04 00 01 	swi $r0,[$r8+#0x4]
    33bc:	04 04 00 01 	lwi $r0,[$r8+#0x4]
    33c0:	a1 83       	lwi333 $r6,[$r0+#0xc]
    33c2:	40 14 94 08 	slli $r1,$r9,#0x5
    33c6:	40 75 04 00 	add $r7,$r10,$r1
    33ca:	38 65 04 0a 	sw $r6,[$r10+($r1<<#0x0)]
    33ce:	50 03 00 34 	addi $r0,$r6,#0x34
    33d2:	a8 39       	swi333 $r0,[$r7+#0x4]
    33d4:	04 03 00 11 	lwi $r0,[$r6+#0x44]
    33d8:	a8 3a       	swi333 $r0,[$r7+#0x8]
    33da:	14 b3 80 03 	swi $r11,[$r7+#0xc]
    33de:	04 03 00 0b 	lwi $r0,[$r6+#0x2c]
    33e2:	a8 3c       	swi333 $r0,[$r7+#0x10]
    33e4:	04 03 00 13 	lwi $r0,[$r6+#0x4c]
    33e8:	a8 3d       	swi333 $r0,[$r7+#0x14]
    33ea:	04 03 00 14 	lwi $r0,[$r6+#0x50]
    33ee:	a8 3e       	swi333 $r0,[$r7+#0x18]
    33f0:	04 03 00 0c 	lwi $r0,[$r6+#0x30]
    33f4:	49 ff ff bb 	jal 336a <prvTaskCheckFreeStackSpace>
    33f8:	12 03 80 0e 	shi $r0,[$r7+#0x1c]
    33fc:	8d 21       	addi45 $r9,#0x1
    33fe:	4c 66 ff d5 	bne $r6,$r13,33a8 <prvListTaskWithinSingleList+0x28>
    3402:	d5 02       	j8 3406 <prvListTaskWithinSingleList+0x86>
    3404:	85 20       	movi55 $r9,#0x0
    3406:	80 09       	mov55 $r0,$r9
    3408:	3a 6f b8 84 	lmw.bim $r6,[$sp],$r14,#0x2    ! {$r6~$r14, $lp}
    340c:	dd 9e       	ret5 $lp

0000340e <prvResetNextTaskUnblockTime>:
    340e:	3c 0d ff d0 	lwi.gp $r0,[+#-192]
    3412:	b4 00       	lwi450 $r0,[$r0]
    3414:	c8 03       	bnez38 $r0,341a <prvResetNextTaskUnblockTime+0xc>
    3416:	84 01       	movi55 $r0,#0x1
    3418:	d5 02       	j8 341c <prvResetNextTaskUnblockTime+0xe>
    341a:	84 00       	movi55 $r0,#0x0
    341c:	c0 05       	beqz38 $r0,3426 <prvResetNextTaskUnblockTime+0x18>
    341e:	84 1f       	movi55 $r0,#-1
    3420:	3c 0f ff 86 	swi.gp $r0,[+#-488]
    3424:	dd 9e       	ret5 $lp
    3426:	3c 0d ff d0 	lwi.gp $r0,[+#-192]
    342a:	a0 03       	lwi333 $r0,[$r0+#0xc]
    342c:	a0 03       	lwi333 $r0,[$r0+#0xc]
    342e:	a0 01       	lwi333 $r0,[$r0+#0x4]
    3430:	3c 0f ff 86 	swi.gp $r0,[+#-488]
    3434:	dd 9e       	ret5 $lp

00003436 <prvDeleteTCB>:
    3436:	3a 6f 98 bc 	smw.adm $r6,[$sp],$r6,#0x2    ! {$r6, $lp}
    343a:	80 c0       	mov55 $r6,$r0
    343c:	04 00 00 0c 	lwi $r0,[$r0+#0x30]
    3440:	49 ff fa f5 	jal 2a2a <vPortFree>
    3444:	80 06       	mov55 $r0,$r6
    3446:	49 ff fa f2 	jal 2a2a <vPortFree>
    344a:	3a 6f 98 84 	lmw.bim $r6,[$sp],$r6,#0x2    ! {$r6, $lp}
    344e:	dd 9e       	ret5 $lp

00003450 <prvAllocateTCBAndStack>:
    3450:	3a 6f a0 bc 	smw.adm $r6,[$sp],$r8,#0x2    ! {$r6~$r8, $lp}
    3454:	81 00       	mov55 $r8,$r0
    3456:	80 c1       	mov55 $r6,$r1
    3458:	44 00 00 54 	movi $r0,#0x54
    345c:	49 ff fa 85 	jal 2966 <pvPortMalloc>
    3460:	80 e0       	mov55 $r7,$r0
    3462:	c0 16       	beqz38 $r0,348e <prvAllocateTCBAndStack+0x3e>
    3464:	ce 06       	bnez38 $r6,3470 <prvAllocateTCBAndStack+0x20>
    3466:	40 04 08 08 	slli $r0,$r8,#0x2
    346a:	49 ff fa 7e 	jal 2966 <pvPortMalloc>
    346e:	d5 02       	j8 3472 <prvAllocateTCBAndStack+0x22>
    3470:	80 06       	mov55 $r0,$r6
    3472:	14 03 80 0c 	swi $r0,[$r7+#0x30]
    3476:	c8 06       	bnez38 $r0,3482 <prvAllocateTCBAndStack+0x32>
    3478:	80 07       	mov55 $r0,$r7
    347a:	49 ff fa d8 	jal 2a2a <vPortFree>
    347e:	84 e0       	movi55 $r7,#0x0
    3480:	d5 07       	j8 348e <prvAllocateTCBAndStack+0x3e>
    3482:	44 10 00 a5 	movi $r1,#0xa5
    3486:	40 24 08 08 	slli $r2,$r8,#0x2
    348a:	49 00 15 65 	jal 5f54 <memset>
    348e:	80 07       	mov55 $r0,$r7
    3490:	3a 6f a0 84 	lmw.bim $r6,[$sp],$r8,#0x2    ! {$r6~$r8, $lp}
    3494:	dd 9e       	ret5 $lp

00003496 <prvInitialiseTCBVariables>:
    3496:	3a 6f a0 bc 	smw.adm $r6,[$sp],$r8,#0x2    ! {$r6~$r8, $lp}
    349a:	80 c0       	mov55 $r6,$r0
    349c:	80 e2       	mov55 $r7,$r2
    349e:	84 60       	movi55 $r3,#0x0
    34a0:	d5 0a       	j8 34b4 <prvInitialiseTCBVariables+0x1e>
    34a2:	38 40 8c 10 	lbs $r4,[$r1+($r3<<#0x0)]
    34a6:	98 33       	add333 $r0,$r6,$r3
    34a8:	10 40 00 34 	sbi $r4,[$r0+#0x34]
    34ac:	38 00 8c 10 	lbs $r0,[$r1+($r3<<#0x0)]
    34b0:	c0 04       	beqz38 $r0,34b8 <prvInitialiseTCBVariables+0x22>
    34b2:	8c 61       	addi45 $r3,#0x1
    34b4:	e6 70       	slti45 $r3,#0x10
    34b6:	e9 f6       	bnezs8 34a2 <prvInitialiseTCBVariables+0xc>
    34b8:	84 00       	movi55 $r0,#0x0
    34ba:	10 03 00 43 	sbi $r0,[$r6+#0x43]
    34be:	e6 ea       	slti45 $r7,#0xa
    34c0:	e9 02       	bnezs8 34c4 <prvInitialiseTCBVariables+0x2e>
    34c2:	84 e9       	movi55 $r7,#0x9
    34c4:	14 73 00 0b 	swi $r7,[$r6+#0x2c]
    34c8:	14 73 00 13 	swi $r7,[$r6+#0x4c]
    34cc:	9c 34       	addi333 $r0,$r6,#0x4
    34ce:	49 ff fb 8f 	jal 2bec <vListInitialiseItem>
    34d2:	50 03 00 18 	addi $r0,$r6,#0x18
    34d6:	49 ff fb 8b 	jal 2bec <vListInitialiseItem>
    34da:	a9 b4       	swi333 $r6,[$r6+#0x10]
    34dc:	52 73 80 0a 	subri $r7,$r7,#0xa
    34e0:	a9 f6       	swi333 $r7,[$r6+#0x18]
    34e2:	14 63 00 09 	swi $r6,[$r6+#0x24]
    34e6:	84 00       	movi55 $r0,#0x0
    34e8:	14 03 00 14 	swi $r0,[$r6+#0x50]
    34ec:	3a 6f a0 84 	lmw.bim $r6,[$sp],$r8,#0x2    ! {$r6~$r8, $lp}
    34f0:	dd 9e       	ret5 $lp

000034f2 <prvInitialiseTaskLists>:
    34f2:	3a 6f a0 bc 	smw.adm $r6,[$sp],$r8,#0x2    ! {$r6~$r8, $lp}
    34f6:	84 c0       	movi55 $r6,#0x0
    34f8:	d5 09       	j8 350a <prvInitialiseTaskLists+0x18>
    34fa:	3e 0f ff 6c 	addi.gp $r0,#-148
    34fe:	fa 24       	movpi45 $r1,#0x14
    3500:	42 03 04 73 	maddr32 $r0,$r6,$r1
    3504:	49 ff fb 6a 	jal 2bd8 <vListInitialise>
    3508:	8c c1       	addi45 $r6,#0x1
    350a:	e6 ca       	slti45 $r6,#0xa
    350c:	e9 f7       	bnezs8 34fa <prvInitialiseTaskLists+0x8>
    350e:	3e 7f ff 58 	addi.gp $r7,#-168
    3512:	80 07       	mov55 $r0,$r7
    3514:	49 ff fb 62 	jal 2bd8 <vListInitialise>
    3518:	3e 6f ff 44 	addi.gp $r6,#-188
    351c:	80 06       	mov55 $r0,$r6
    351e:	49 ff fb 5d 	jal 2bd8 <vListInitialise>
    3522:	3e 0f ff 28 	addi.gp $r0,#-216
    3526:	49 ff fb 59 	jal 2bd8 <vListInitialise>
    352a:	3e 0f ff 14 	addi.gp $r0,#-236
    352e:	49 ff fb 55 	jal 2bd8 <vListInitialise>
    3532:	3c 7f ff d0 	swi.gp $r7,[+#-192]
    3536:	3c 6f ff cf 	swi.gp $r6,[+#-196]
    353a:	3a 6f a0 84 	lmw.bim $r6,[$sp],$r8,#0x2    ! {$r6~$r8, $lp}
    353e:	dd 9e       	ret5 $lp

00003540 <prvAddCurrentTaskToDelayedList>:
    3540:	3a 6f 98 bc 	smw.adm $r6,[$sp],$r6,#0x2    ! {$r6, $lp}
    3544:	80 c0       	mov55 $r6,$r0
    3546:	3c 0c 00 0d 	lwi.gp $r0,[+#0x34]
    354a:	a9 81       	swi333 $r6,[$r0+#0x4]
    354c:	3c 1d ff c2 	lwi.gp $r1,[+#-248]
    3550:	e2 c1       	slt45 $r6,$r1
    3552:	e8 09       	beqzs8 3564 <prvAddCurrentTaskToDelayedList+0x24>
    3554:	3c 0d ff cf 	lwi.gp $r0,[+#-196]
    3558:	3c 1c 00 0d 	lwi.gp $r1,[+#0x34]
    355c:	8c 24       	addi45 $r1,#0x4
    355e:	49 ff fb 56 	jal 2c0a <vListInsert>
    3562:	d5 0f       	j8 3580 <prvAddCurrentTaskToDelayedList+0x40>
    3564:	3c 0d ff d0 	lwi.gp $r0,[+#-192]
    3568:	3c 1c 00 0d 	lwi.gp $r1,[+#0x34]
    356c:	8c 24       	addi45 $r1,#0x4
    356e:	49 ff fb 4e 	jal 2c0a <vListInsert>
    3572:	3c 0d ff 86 	lwi.gp $r0,[+#-488]
    3576:	40 03 00 06 	slt $r0,$r6,$r0
    357a:	c0 03       	beqz38 $r0,3580 <prvAddCurrentTaskToDelayedList+0x40>
    357c:	3c 6f ff 86 	swi.gp $r6,[+#-488]
    3580:	3a 6f 98 84 	lmw.bim $r6,[$sp],$r6,#0x2    ! {$r6, $lp}
    3584:	dd 9e       	ret5 $lp

00003586 <xTaskGenericCreate>:
    3586:	3a 6f b8 bc 	smw.adm $r6,[$sp],$r14,#0x2    ! {$r6~$r14, $lp}
    358a:	81 60       	mov55 $r11,$r0
    358c:	c8 08       	bnez38 $r0,359c <xTaskGenericCreate+0x16>
    358e:	64 02 00 02 	mfsr $r0,$psw
    3592:	3c 0f ff b6 	swi.gp $r0,[+#-296]
    3596:	49 00 06 ad 	jal 42f0 <GIE_DISABLE>
    359a:	d5 00       	j8 359a <xTaskGenericCreate+0x14>
    359c:	81 a1       	mov55 $r13,$r1
    359e:	81 02       	mov55 $r8,$r2
    35a0:	81 43       	mov55 $r10,$r3
    35a2:	80 e4       	mov55 $r7,$r4
    35a4:	81 25       	mov55 $r9,$r5
    35a6:	e6 8a       	slti45 $r4,#0xa
    35a8:	e9 08       	bnezs8 35b8 <xTaskGenericCreate+0x32>
    35aa:	64 02 00 02 	mfsr $r0,$psw
    35ae:	3c 0f ff b6 	swi.gp $r0,[+#-296]
    35b2:	49 00 06 9f 	jal 42f0 <GIE_DISABLE>
    35b6:	d5 00       	j8 35b6 <xTaskGenericCreate+0x30>
    35b8:	80 02       	mov55 $r0,$r2
    35ba:	f1 0a       	lwi37.sp $r1,[+#0x28]
    35bc:	49 ff ff 4a 	jal 3450 <prvAllocateTCBAndStack>
    35c0:	80 c0       	mov55 $r6,$r0
    35c2:	c0 56       	beqz38 $r0,366e <xTaskGenericCreate+0xe8>
    35c4:	04 00 00 0c 	lwi $r0,[$r0+#0x30]
    35c8:	47 03 ff ff 	sethi $r16,#0x3ffff
    35cc:	51 08 0f ff 	addi $r16,$r16,#0xfff
    35d0:	89 88       	add45 $r16,$r8
    35d2:	41 08 08 08 	slli $r16,$r16,#0x2
    35d6:	89 80       	add45 $r16,$r0
    35d8:	66 c8 00 1f 	bitci $r12,$r16,#0x1f
    35dc:	80 06       	mov55 $r0,$r6
    35de:	80 2d       	mov55 $r1,$r13
    35e0:	80 47       	mov55 $r2,$r7
    35e2:	f3 0b       	lwi37.sp $r3,[+#0x2c]
    35e4:	80 88       	mov55 $r4,$r8
    35e6:	49 ff ff 58 	jal 3496 <prvInitialiseTCBVariables>
    35ea:	80 0c       	mov55 $r0,$r12
    35ec:	80 2b       	mov55 $r1,$r11
    35ee:	80 4a       	mov55 $r2,$r10
    35f0:	49 ff fb 82 	jal 2cf4 <pxPortInitialiseStack>
    35f4:	b6 06       	swi450 $r0,[$r6]
    35f6:	4e 92 00 03 	beqz $r9,35fc <xTaskGenericCreate+0x76>
    35fa:	b6 c9       	swi450 $r6,[$r9]
    35fc:	49 ff fb ed 	jal 2dd6 <vPortEnterCritical>
    3600:	3c 0d ff c3 	lwi.gp $r0,[+#-244]
    3604:	8c 01       	addi45 $r0,#0x1
    3606:	3c 0f ff c3 	swi.gp $r0,[+#-244]
    360a:	3c 0c 00 0d 	lwi.gp $r0,[+#0x34]
    360e:	c8 0a       	bnez38 $r0,3622 <xTaskGenericCreate+0x9c>
    3610:	3c 6e 00 0d 	swi.gp $r6,[+#0x34]
    3614:	3c 0d ff c3 	lwi.gp $r0,[+#-244]
    3618:	5a 08 01 10 	bnec $r0,#0x1,3638 <xTaskGenericCreate+0xb2>
    361c:	49 ff ff 6b 	jal 34f2 <prvInitialiseTaskLists>
    3620:	d5 0c       	j8 3638 <xTaskGenericCreate+0xb2>
    3622:	3c 0d ff c0 	lwi.gp $r0,[+#-256]
    3626:	c8 09       	bnez38 $r0,3638 <xTaskGenericCreate+0xb2>
    3628:	3c 0c 00 0d 	lwi.gp $r0,[+#0x34]
    362c:	04 00 00 0b 	lwi $r0,[$r0+#0x2c]
    3630:	e2 e0       	slt45 $r7,$r0
    3632:	e9 03       	bnezs8 3638 <xTaskGenericCreate+0xb2>
    3634:	3c 6e 00 0d 	swi.gp $r6,[+#0x34]
    3638:	3c 0d ff bc 	lwi.gp $r0,[+#-272]
    363c:	8c 01       	addi45 $r0,#0x1
    363e:	3c 0f ff bc 	swi.gp $r0,[+#-272]
    3642:	14 03 00 11 	swi $r0,[$r6+#0x44]
    3646:	04 13 00 0b 	lwi $r1,[$r6+#0x2c]
    364a:	3c 0d ff c1 	lwi.gp $r0,[+#-252]
    364e:	e2 01       	slt45 $r0,$r1
    3650:	e8 03       	beqzs8 3656 <xTaskGenericCreate+0xd0>
    3652:	3c 1f ff c1 	swi.gp $r1,[+#-252]
    3656:	3e 0f ff 6c 	addi.gp $r0,#-148
    365a:	fa 44       	movpi45 $r2,#0x14
    365c:	42 00 88 73 	maddr32 $r0,$r1,$r2
    3660:	9c 74       	addi333 $r1,$r6,#0x4
    3662:	49 ff fa c8 	jal 2bf2 <vListInsertEnd>
    3666:	49 ff fb cf 	jal 2e04 <vPortExitCritical>
    366a:	84 c1       	movi55 $r6,#0x1
    366c:	d5 02       	j8 3670 <xTaskGenericCreate+0xea>
    366e:	84 df       	movi55 $r6,#-1
    3670:	5a 68 01 0d 	bnec $r6,#0x1,368a <xTaskGenericCreate+0x104>
    3674:	3c 0d ff c0 	lwi.gp $r0,[+#-256]
    3678:	c0 09       	beqz38 $r0,368a <xTaskGenericCreate+0x104>
    367a:	3c 0c 00 0d 	lwi.gp $r0,[+#0x34]
    367e:	04 00 00 0b 	lwi $r0,[$r0+#0x2c]
    3682:	e2 07       	slt45 $r0,$r7
    3684:	e8 03       	beqzs8 368a <xTaskGenericCreate+0x104>
    3686:	49 ff fb a1 	jal 2dc8 <vPortYield>
    368a:	80 06       	mov55 $r0,$r6
    368c:	3a 6f b8 84 	lmw.bim $r6,[$sp],$r14,#0x2    ! {$r6~$r14, $lp}
    3690:	dd 9e       	ret5 $lp

00003692 <vTaskDelete>:
    3692:	3a 6f a0 bc 	smw.adm $r6,[$sp],$r8,#0x2    ! {$r6~$r8, $lp}
    3696:	80 c0       	mov55 $r6,$r0
    3698:	49 ff fb 9f 	jal 2dd6 <vPortEnterCritical>
    369c:	ce 03       	bnez38 $r6,36a2 <vTaskDelete+0x10>
    369e:	3c 6c 00 0d 	lwi.gp $r6,[+#0x34]
    36a2:	9d f4       	addi333 $r7,$r6,#0x4
    36a4:	80 07       	mov55 $r0,$r7
    36a6:	49 ff fa c9 	jal 2c38 <uxListRemove>
    36aa:	04 03 00 0a 	lwi $r0,[$r6+#0x28]
    36ae:	c0 05       	beqz38 $r0,36b8 <vTaskDelete+0x26>
    36b0:	50 03 00 18 	addi $r0,$r6,#0x18
    36b4:	49 ff fa c2 	jal 2c38 <uxListRemove>
    36b8:	3e 0f ff 14 	addi.gp $r0,#-236
    36bc:	80 27       	mov55 $r1,$r7
    36be:	49 ff fa 9a 	jal 2bf2 <vListInsertEnd>
    36c2:	3c 0d ff c4 	lwi.gp $r0,[+#-240]
    36c6:	8c 01       	addi45 $r0,#0x1
    36c8:	3c 0f ff c4 	swi.gp $r0,[+#-240]
    36cc:	3c 0d ff bc 	lwi.gp $r0,[+#-272]
    36d0:	8c 01       	addi45 $r0,#0x1
    36d2:	3c 0f ff bc 	swi.gp $r0,[+#-272]
    36d6:	80 06       	mov55 $r0,$r6
    36d8:	49 ff fa 64 	jal 2ba0 <DeleteTaskMallocMem>
    36dc:	49 ff fb 94 	jal 2e04 <vPortExitCritical>
    36e0:	3c 0d ff c0 	lwi.gp $r0,[+#-256]
    36e4:	c0 14       	beqz38 $r0,370c <vTaskDelete+0x7a>
    36e6:	3c 0c 00 0d 	lwi.gp $r0,[+#0x34]
    36ea:	4c 60 40 0f 	bne $r6,$r0,3708 <vTaskDelete+0x76>
    36ee:	3c 0d ff bb 	lwi.gp $r0,[+#-276]
    36f2:	c0 08       	beqz38 $r0,3702 <vTaskDelete+0x70>
    36f4:	64 02 00 02 	mfsr $r0,$psw
    36f8:	3c 0f ff b6 	swi.gp $r0,[+#-296]
    36fc:	49 00 05 fa 	jal 42f0 <GIE_DISABLE>
    3700:	d5 00       	j8 3700 <vTaskDelete+0x6e>
    3702:	49 ff fb 63 	jal 2dc8 <vPortYield>
    3706:	d5 03       	j8 370c <vTaskDelete+0x7a>
    3708:	49 ff fe 83 	jal 340e <prvResetNextTaskUnblockTime>
    370c:	3a 6f a0 84 	lmw.bim $r6,[$sp],$r8,#0x2    ! {$r6~$r8, $lp}
    3710:	dd 9e       	ret5 $lp

00003712 <vTaskStartScheduler>:
    3712:	3b ff fc bc 	smw.adm $sp,[$sp],$sp,#0x2    ! {$lp}
    3716:	ef f4       	addi10.sp #-12
    3718:	84 00       	movi55 $r0,#0x0
    371a:	b6 1f       	swi450 $r0,[$sp]
    371c:	f0 81       	swi37.sp $r0,[+#0x4]
    371e:	44 00 39 b2 	movi $r0,#0x39b2
    3722:	44 10 6c bc 	movi $r1,#0x6cbc
    3726:	44 20 02 00 	movi $r2,#0x200
    372a:	84 60       	movi55 $r3,#0x0
    372c:	84 80       	movi55 $r4,#0x0
    372e:	84 a0       	movi55 $r5,#0x0
    3730:	49 ff ff 2b 	jal 3586 <xTaskGenericCreate>
    3734:	5a 08 01 11 	bnec $r0,#0x1,3756 <vTaskStartScheduler+0x44>
    3738:	64 02 00 02 	mfsr $r0,$psw
    373c:	3c 0f ff b6 	swi.gp $r0,[+#-296]
    3740:	49 00 05 d8 	jal 42f0 <GIE_DISABLE>
    3744:	84 01       	movi55 $r0,#0x1
    3746:	3c 0f ff c0 	swi.gp $r0,[+#-256]
    374a:	84 00       	movi55 $r0,#0x0
    374c:	3c 0f ff c2 	swi.gp $r0,[+#-248]
    3750:	49 ff fb 30 	jal 2db0 <xPortStartScheduler>
    3754:	d5 09       	j8 3766 <vTaskStartScheduler+0x54>
    3756:	c8 08       	bnez38 $r0,3766 <vTaskStartScheduler+0x54>
    3758:	64 02 00 02 	mfsr $r0,$psw
    375c:	3c 0f ff b6 	swi.gp $r0,[+#-296]
    3760:	49 00 05 c8 	jal 42f0 <GIE_DISABLE>
    3764:	d5 00       	j8 3764 <vTaskStartScheduler+0x52>
    3766:	ec 0c       	addi10.sp #0xc
    3768:	3b ff fc 84 	lmw.bim $sp,[$sp],$sp,#0x2    ! {$lp}
    376c:	dd 9e       	ret5 $lp

0000376e <vTaskSuspendAll>:
    376e:	3c 0d ff bb 	lwi.gp $r0,[+#-276]
    3772:	8c 01       	addi45 $r0,#0x1
    3774:	3c 0f ff bb 	swi.gp $r0,[+#-276]
    3778:	dd 9e       	ret5 $lp

0000377a <uxTaskGetNumberOfTasks>:
    377a:	3c 0d ff c3 	lwi.gp $r0,[+#-244]
    377e:	dd 9e       	ret5 $lp

00003780 <xTaskIncrementTick>:
    3780:	3a 6f a8 bc 	smw.adm $r6,[$sp],$r10,#0x2    ! {$r6~$r10, $lp}
    3784:	3c 0d ff bb 	lwi.gp $r0,[+#-276]
    3788:	c8 75       	bnez38 $r0,3872 <xTaskIncrementTick+0xf2>
    378a:	3c 0d ff c2 	lwi.gp $r0,[+#-248]
    378e:	8c 01       	addi45 $r0,#0x1
    3790:	3c 0f ff c2 	swi.gp $r0,[+#-248]
    3794:	3c 8d ff c2 	lwi.gp $r8,[+#-248]
    3798:	4e 83 00 1c 	bnez $r8,37d0 <xTaskIncrementTick+0x50>
    379c:	3c 0d ff d0 	lwi.gp $r0,[+#-192]
    37a0:	b4 00       	lwi450 $r0,[$r0]
    37a2:	c0 08       	beqz38 $r0,37b2 <xTaskIncrementTick+0x32>
    37a4:	64 02 00 02 	mfsr $r0,$psw
    37a8:	3c 0f ff b6 	swi.gp $r0,[+#-296]
    37ac:	49 00 05 a2 	jal 42f0 <GIE_DISABLE>
    37b0:	d5 00       	j8 37b0 <xTaskIncrementTick+0x30>
    37b2:	3c 0d ff d0 	lwi.gp $r0,[+#-192]
    37b6:	3c 1d ff cf 	lwi.gp $r1,[+#-196]
    37ba:	3c 1f ff d0 	swi.gp $r1,[+#-192]
    37be:	3c 0f ff cf 	swi.gp $r0,[+#-196]
    37c2:	3c 0d ff bd 	lwi.gp $r0,[+#-268]
    37c6:	8c 01       	addi45 $r0,#0x1
    37c8:	3c 0f ff bd 	swi.gp $r0,[+#-268]
    37cc:	49 ff fe 21 	jal 340e <prvResetNextTaskUnblockTime>
    37d0:	3c 0d ff 86 	lwi.gp $r0,[+#-488]
    37d4:	e3 00       	slt45 $r8,$r0
    37d6:	84 c0       	movi55 $r6,#0x0
    37d8:	e8 04       	beqzs8 37e0 <xTaskIncrementTick+0x60>
    37da:	d5 3f       	j8 3858 <xTaskIncrementTick+0xd8>
    37dc:	84 c1       	movi55 $r6,#0x1
    37de:	d5 01       	j8 37e0 <xTaskIncrementTick+0x60>
    37e0:	3c 0d ff d0 	lwi.gp $r0,[+#-192]
    37e4:	b4 00       	lwi450 $r0,[$r0]
    37e6:	c8 03       	bnez38 $r0,37ec <xTaskIncrementTick+0x6c>
    37e8:	84 01       	movi55 $r0,#0x1
    37ea:	d5 02       	j8 37ee <xTaskIncrementTick+0x6e>
    37ec:	84 00       	movi55 $r0,#0x0
    37ee:	c0 05       	beqz38 $r0,37f8 <xTaskIncrementTick+0x78>
    37f0:	84 1f       	movi55 $r0,#-1
    37f2:	3c 0f ff 86 	swi.gp $r0,[+#-488]
    37f6:	d5 31       	j8 3858 <xTaskIncrementTick+0xd8>
    37f8:	3c 0d ff d0 	lwi.gp $r0,[+#-192]
    37fc:	a0 03       	lwi333 $r0,[$r0+#0xc]
    37fe:	a1 c3       	lwi333 $r7,[$r0+#0xc]
    3800:	a0 39       	lwi333 $r0,[$r7+#0x4]
    3802:	e3 00       	slt45 $r8,$r0
    3804:	e8 04       	beqzs8 380c <xTaskIncrementTick+0x8c>
    3806:	3c 0f ff 86 	swi.gp $r0,[+#-488]
    380a:	d5 27       	j8 3858 <xTaskIncrementTick+0xd8>
    380c:	50 93 80 04 	addi $r9,$r7,#0x4
    3810:	80 09       	mov55 $r0,$r9
    3812:	49 ff fa 13 	jal 2c38 <uxListRemove>
    3816:	04 03 80 0a 	lwi $r0,[$r7+#0x28]
    381a:	c0 05       	beqz38 $r0,3824 <xTaskIncrementTick+0xa4>
    381c:	50 03 80 18 	addi $r0,$r7,#0x18
    3820:	49 ff fa 0c 	jal 2c38 <uxListRemove>
    3824:	04 23 80 0b 	lwi $r2,[$r7+#0x2c]
    3828:	3c 3d ff c1 	lwi.gp $r3,[+#-252]
    382c:	e2 62       	slt45 $r3,$r2
    382e:	e8 03       	beqzs8 3834 <xTaskIncrementTick+0xb4>
    3830:	3c 2f ff c1 	swi.gp $r2,[+#-252]
    3834:	3e 0f ff 6c 	addi.gp $r0,#-148
    3838:	fa 24       	movpi45 $r1,#0x14
    383a:	42 01 04 73 	maddr32 $r0,$r2,$r1
    383e:	80 29       	mov55 $r1,$r9
    3840:	49 ff f9 d9 	jal 2bf2 <vListInsertEnd>
    3844:	04 03 80 0b 	lwi $r0,[$r7+#0x2c]
    3848:	3c 1c 00 0d 	lwi.gp $r1,[+#0x34]
    384c:	04 10 80 0b 	lwi $r1,[$r1+#0x2c]
    3850:	40 00 04 06 	slt $r0,$r0,$r1
    3854:	c0 c4       	beqz38 $r0,37dc <xTaskIncrementTick+0x5c>
    3856:	d5 c5       	j8 37e0 <xTaskIncrementTick+0x60>
    3858:	3c 0c 00 0d 	lwi.gp $r0,[+#0x34]
    385c:	04 10 00 0b 	lwi $r1,[$r0+#0x2c]
    3860:	fa 04       	movpi45 $r0,#0x14
    3862:	fe 0c       	mul33 $r0,$r1
    3864:	3e 1f ff 6c 	addi.gp $r1,#-148
    3868:	38 00 80 02 	lw $r0,[$r1+($r0<<#0x0)]
    386c:	e6 02       	slti45 $r0,#0x2
    386e:	e8 09       	beqzs8 3880 <xTaskIncrementTick+0x100>
    3870:	d5 09       	j8 3882 <xTaskIncrementTick+0x102>
    3872:	3c 0d ff bf 	lwi.gp $r0,[+#-260]
    3876:	8c 01       	addi45 $r0,#0x1
    3878:	3c 0f ff bf 	swi.gp $r0,[+#-260]
    387c:	84 c0       	movi55 $r6,#0x0
    387e:	d5 02       	j8 3882 <xTaskIncrementTick+0x102>
    3880:	84 c1       	movi55 $r6,#0x1
    3882:	3c 0d ff be 	lwi.gp $r0,[+#-264]
    3886:	c0 02       	beqz38 $r0,388a <xTaskIncrementTick+0x10a>
    3888:	84 c1       	movi55 $r6,#0x1
    388a:	80 06       	mov55 $r0,$r6
    388c:	3a 6f a8 84 	lmw.bim $r6,[$sp],$r10,#0x2    ! {$r6~$r10, $lp}
    3890:	dd 9e       	ret5 $lp

00003892 <xTaskResumeAll>:
    3892:	3a 6f a0 bc 	smw.adm $r6,[$sp],$r8,#0x2    ! {$r6~$r8, $lp}
    3896:	3c 0d ff bb 	lwi.gp $r0,[+#-276]
    389a:	c8 08       	bnez38 $r0,38aa <xTaskResumeAll+0x18>
    389c:	64 02 00 02 	mfsr $r0,$psw
    38a0:	3c 0f ff b6 	swi.gp $r0,[+#-296]
    38a4:	49 00 05 26 	jal 42f0 <GIE_DISABLE>
    38a8:	d5 00       	j8 38a8 <xTaskResumeAll+0x16>
    38aa:	49 ff fa 96 	jal 2dd6 <vPortEnterCritical>
    38ae:	3c 0d ff bb 	lwi.gp $r0,[+#-276]
    38b2:	8e 01       	subi45 $r0,#0x1
    38b4:	3c 0f ff bb 	swi.gp $r0,[+#-276]
    38b8:	3c 0d ff bb 	lwi.gp $r0,[+#-276]
    38bc:	c8 4b       	bnez38 $r0,3952 <xTaskResumeAll+0xc0>
    38be:	3c 0d ff c3 	lwi.gp $r0,[+#-244]
    38c2:	c8 2b       	bnez38 $r0,3918 <xTaskResumeAll+0x86>
    38c4:	84 c0       	movi55 $r6,#0x0
    38c6:	d5 49       	j8 3958 <xTaskResumeAll+0xc6>
    38c8:	3c 0d ff cd 	lwi.gp $r0,[+#-204]
    38cc:	a1 83       	lwi333 $r6,[$r0+#0xc]
    38ce:	50 03 00 18 	addi $r0,$r6,#0x18
    38d2:	49 ff f9 b3 	jal 2c38 <uxListRemove>
    38d6:	9d f4       	addi333 $r7,$r6,#0x4
    38d8:	80 07       	mov55 $r0,$r7
    38da:	49 ff f9 af 	jal 2c38 <uxListRemove>
    38de:	04 23 00 0b 	lwi $r2,[$r6+#0x2c]
    38e2:	3c 3d ff c1 	lwi.gp $r3,[+#-252]
    38e6:	40 31 88 06 	slt $r3,$r3,$r2
    38ea:	c3 03       	beqz38 $r3,38f0 <xTaskResumeAll+0x5e>
    38ec:	3c 2f ff c1 	swi.gp $r2,[+#-252]
    38f0:	3e 0f ff 6c 	addi.gp $r0,#-148
    38f4:	fa 24       	movpi45 $r1,#0x14
    38f6:	42 01 04 73 	maddr32 $r0,$r2,$r1
    38fa:	80 27       	mov55 $r1,$r7
    38fc:	49 ff f9 7b 	jal 2bf2 <vListInsertEnd>
    3900:	04 03 00 0b 	lwi $r0,[$r6+#0x2c]
    3904:	3c 1c 00 0d 	lwi.gp $r1,[+#0x34]
    3908:	04 10 80 0b 	lwi $r1,[$r1+#0x2c]
    390c:	40 00 04 06 	slt $r0,$r0,$r1
    3910:	c8 04       	bnez38 $r0,3918 <xTaskResumeAll+0x86>
    3912:	84 01       	movi55 $r0,#0x1
    3914:	3c 0f ff be 	swi.gp $r0,[+#-264]
    3918:	3c 0d ff ca 	lwi.gp $r0,[+#-216]
    391c:	c8 d6       	bnez38 $r0,38c8 <xTaskResumeAll+0x36>
    391e:	3c 0d ff bf 	lwi.gp $r0,[+#-260]
    3922:	c8 0d       	bnez38 $r0,393c <xTaskResumeAll+0xaa>
    3924:	d5 0f       	j8 3942 <xTaskResumeAll+0xb0>
    3926:	49 ff ff 2d 	jal 3780 <xTaskIncrementTick>
    392a:	c0 04       	beqz38 $r0,3932 <xTaskResumeAll+0xa0>
    392c:	84 01       	movi55 $r0,#0x1
    392e:	3c 0f ff be 	swi.gp $r0,[+#-264]
    3932:	3c 0d ff bf 	lwi.gp $r0,[+#-260]
    3936:	8e 01       	subi45 $r0,#0x1
    3938:	3c 0f ff bf 	swi.gp $r0,[+#-260]
    393c:	3c 0d ff bf 	lwi.gp $r0,[+#-260]
    3940:	c8 f3       	bnez38 $r0,3926 <xTaskResumeAll+0x94>
    3942:	3c 0d ff be 	lwi.gp $r0,[+#-264]
    3946:	5a 08 01 08 	bnec $r0,#0x1,3956 <xTaskResumeAll+0xc4>
    394a:	49 ff fa 3f 	jal 2dc8 <vPortYield>
    394e:	84 c1       	movi55 $r6,#0x1
    3950:	d5 04       	j8 3958 <xTaskResumeAll+0xc6>
    3952:	84 c0       	movi55 $r6,#0x0
    3954:	d5 02       	j8 3958 <xTaskResumeAll+0xc6>
    3956:	84 c0       	movi55 $r6,#0x0
    3958:	49 ff fa 56 	jal 2e04 <vPortExitCritical>
    395c:	80 06       	mov55 $r0,$r6
    395e:	3a 6f a0 84 	lmw.bim $r6,[$sp],$r8,#0x2    ! {$r6~$r8, $lp}
    3962:	dd 9e       	ret5 $lp

00003964 <prvCheckTasksWaitingTermination>:
    3964:	3a 6f 98 bc 	smw.adm $r6,[$sp],$r6,#0x2    ! {$r6, $lp}
    3968:	d5 1f       	j8 39a6 <prvCheckTasksWaitingTermination+0x42>
    396a:	49 ff ff 02 	jal 376e <vTaskSuspendAll>
    396e:	3c 6d ff c5 	lwi.gp $r6,[+#-236]
    3972:	49 ff ff 90 	jal 3892 <xTaskResumeAll>
    3976:	c6 18       	beqz38 $r6,39a6 <prvCheckTasksWaitingTermination+0x42>
    3978:	49 ff fa 2f 	jal 2dd6 <vPortEnterCritical>
    397c:	3c 0d ff c8 	lwi.gp $r0,[+#-224]
    3980:	a1 83       	lwi333 $r6,[$r0+#0xc]
    3982:	9c 34       	addi333 $r0,$r6,#0x4
    3984:	49 ff f9 5a 	jal 2c38 <uxListRemove>
    3988:	3c 1d ff c3 	lwi.gp $r1,[+#-244]
    398c:	8e 21       	subi45 $r1,#0x1
    398e:	3c 1f ff c3 	swi.gp $r1,[+#-244]
    3992:	3c 1d ff c4 	lwi.gp $r1,[+#-240]
    3996:	8e 21       	subi45 $r1,#0x1
    3998:	3c 1f ff c4 	swi.gp $r1,[+#-240]
    399c:	49 ff fa 34 	jal 2e04 <vPortExitCritical>
    39a0:	80 06       	mov55 $r0,$r6
    39a2:	49 ff fd 4a 	jal 3436 <prvDeleteTCB>
    39a6:	3c 0d ff c4 	lwi.gp $r0,[+#-240]
    39aa:	c8 e0       	bnez38 $r0,396a <prvCheckTasksWaitingTermination+0x6>
    39ac:	3a 6f 98 84 	lmw.bim $r6,[$sp],$r6,#0x2    ! {$r6, $lp}
    39b0:	dd 9e       	ret5 $lp

000039b2 <prvIdleTask>:
    39b2:	3b ff fc bc 	smw.adm $sp,[$sp],$sp,#0x2    ! {$lp}
    39b6:	ef fc       	addi10.sp #-4
    39b8:	49 ff ff d6 	jal 3964 <prvCheckTasksWaitingTermination>
    39bc:	3c 0d ff db 	lwi.gp $r0,[+#-148]
    39c0:	5c 00 00 02 	slti $r0,$r0,#0x2
    39c4:	c8 03       	bnez38 $r0,39ca <prvIdleTask+0x18>
    39c6:	49 ff fa 01 	jal 2dc8 <vPortYield>
    39ca:	49 00 01 cc 	jal 3d62 <vApplicationIdleHook>
    39ce:	d5 f5       	j8 39b8 <prvIdleTask+0x6>

000039d0 <uxTaskGetSystemState>:
    39d0:	3a 6f a8 bc 	smw.adm $r6,[$sp],$r10,#0x2    ! {$r6~$r10, $lp}
    39d4:	81 00       	mov55 $r8,$r0
    39d6:	80 c1       	mov55 $r6,$r1
    39d8:	81 22       	mov55 $r9,$r2
    39da:	49 ff fe ca 	jal 376e <vTaskSuspendAll>
    39de:	3c 0d ff c3 	lwi.gp $r0,[+#-244]
    39e2:	40 63 00 06 	slt $r6,$r6,$r0
    39e6:	ce 2d       	bnez38 $r6,3a40 <uxTaskGetSystemState+0x70>
    39e8:	84 ea       	movi55 $r7,#0xa
    39ea:	8e e1       	subi45 $r7,#0x1
    39ec:	94 35       	slli333 $r0,$r6,#0x5
    39ee:	88 08       	add45 $r0,$r8
    39f0:	3e 1f ff 6c 	addi.gp $r1,#-148
    39f4:	fa 64       	movpi45 $r3,#0x14
    39f6:	42 13 8c 73 	maddr32 $r1,$r7,$r3
    39fa:	84 41       	movi55 $r2,#0x1
    39fc:	49 ff fc c2 	jal 3380 <prvListTaskWithinSingleList>
    3a00:	88 c0       	add45 $r6,$r0
    3a02:	cf f4       	bnez38 $r7,39ea <uxTaskGetSystemState+0x1a>
    3a04:	94 35       	slli333 $r0,$r6,#0x5
    3a06:	3c 1d ff d0 	lwi.gp $r1,[+#-192]
    3a0a:	88 08       	add45 $r0,$r8
    3a0c:	84 42       	movi55 $r2,#0x2
    3a0e:	49 ff fc b9 	jal 3380 <prvListTaskWithinSingleList>
    3a12:	88 c0       	add45 $r6,$r0
    3a14:	94 35       	slli333 $r0,$r6,#0x5
    3a16:	3c 1d ff cf 	lwi.gp $r1,[+#-196]
    3a1a:	88 08       	add45 $r0,$r8
    3a1c:	84 42       	movi55 $r2,#0x2
    3a1e:	49 ff fc b1 	jal 3380 <prvListTaskWithinSingleList>
    3a22:	88 c0       	add45 $r6,$r0
    3a24:	94 35       	slli333 $r0,$r6,#0x5
    3a26:	88 08       	add45 $r0,$r8
    3a28:	3e 1f ff 14 	addi.gp $r1,#-236
    3a2c:	84 44       	movi55 $r2,#0x4
    3a2e:	49 ff fc a9 	jal 3380 <prvListTaskWithinSingleList>
    3a32:	88 c0       	add45 $r6,$r0
    3a34:	4e 92 00 07 	beqz $r9,3a42 <uxTaskGetSystemState+0x72>
    3a38:	3c 0d ff c2 	lwi.gp $r0,[+#-248]
    3a3c:	b6 09       	swi450 $r0,[$r9]
    3a3e:	d5 02       	j8 3a42 <uxTaskGetSystemState+0x72>
    3a40:	84 c0       	movi55 $r6,#0x0
    3a42:	49 ff ff 28 	jal 3892 <xTaskResumeAll>
    3a46:	80 06       	mov55 $r0,$r6
    3a48:	3a 6f a8 84 	lmw.bim $r6,[$sp],$r10,#0x2    ! {$r6~$r10, $lp}
    3a4c:	dd 9e       	ret5 $lp

00003a4e <vTaskSwitchContext>:
    3a4e:	3c 0d ff bb 	lwi.gp $r0,[+#-276]
    3a52:	c0 05       	beqz38 $r0,3a5c <vTaskSwitchContext+0xe>
    3a54:	84 01       	movi55 $r0,#0x1
    3a56:	3c 0f ff be 	swi.gp $r0,[+#-264]
    3a5a:	dd 9e       	ret5 $lp
    3a5c:	84 00       	movi55 $r0,#0x0
    3a5e:	3c 0f ff be 	swi.gp $r0,[+#-264]
    3a62:	3c 1d ff c2 	lwi.gp $r1,[+#-248]
    3a66:	3c 1f ff b9 	swi.gp $r1,[+#-284]
    3a6a:	3c 0d ff ba 	lwi.gp $r0,[+#-280]
    3a6e:	e2 01       	slt45 $r0,$r1
    3a70:	e8 09       	beqzs8 3a82 <vTaskSwitchContext+0x34>
    3a72:	3c 2c 00 0d 	lwi.gp $r2,[+#0x34]
    3a76:	9a 08       	sub333 $r0,$r1,$r0
    3a78:	04 31 00 14 	lwi $r3,[$r2+#0x50]
    3a7c:	88 03       	add45 $r0,$r3
    3a7e:	14 01 00 14 	swi $r0,[$r2+#0x50]
    3a82:	3c 1f ff ba 	swi.gp $r1,[+#-280]
    3a86:	d5 13       	j8 3aac <vTaskSwitchContext+0x5e>
    3a88:	3c 0d ff c1 	lwi.gp $r0,[+#-252]
    3a8c:	c8 0b       	bnez38 $r0,3aa2 <vTaskSwitchContext+0x54>
    3a8e:	3b ff fc bc 	smw.adm $sp,[$sp],$sp,#0x2    ! {$lp}
    3a92:	ef fc       	addi10.sp #-4
    3a94:	64 02 00 02 	mfsr $r0,$psw
    3a98:	3c 0f ff b6 	swi.gp $r0,[+#-296]
    3a9c:	49 00 04 2a 	jal 42f0 <GIE_DISABLE>
    3aa0:	d5 00       	j8 3aa0 <vTaskSwitchContext+0x52>
    3aa2:	3c 0d ff c1 	lwi.gp $r0,[+#-252]
    3aa6:	8e 01       	subi45 $r0,#0x1
    3aa8:	3c 0f ff c1 	swi.gp $r0,[+#-252]
    3aac:	3c 1d ff c1 	lwi.gp $r1,[+#-252]
    3ab0:	fa 04       	movpi45 $r0,#0x14
    3ab2:	fe 0c       	mul33 $r0,$r1
    3ab4:	3e 1f ff 6c 	addi.gp $r1,#-148
    3ab8:	38 00 80 02 	lw $r0,[$r1+($r0<<#0x0)]
    3abc:	c0 e6       	beqz38 $r0,3a88 <vTaskSwitchContext+0x3a>
    3abe:	3c 2d ff c1 	lwi.gp $r2,[+#-252]
    3ac2:	fa 04       	movpi45 $r0,#0x14
    3ac4:	fe 14       	mul33 $r0,$r2
    3ac6:	99 08       	add333 $r4,$r1,$r0
    3ac8:	a0 e1       	lwi333 $r3,[$r4+#0x4]
    3aca:	a1 59       	lwi333 $r5,[$r3+#0x4]
    3acc:	a9 61       	swi333 $r5,[$r4+#0x4]
    3ace:	8c 08       	addi45 $r0,#0x8
    3ad0:	88 01       	add45 $r0,$r1
    3ad2:	d8 03       	bnes38 $r0,3ad8 <vTaskSwitchContext+0x8a>
    3ad4:	a0 69       	lwi333 $r1,[$r5+#0x4]
    3ad6:	a8 61       	swi333 $r1,[$r4+#0x4]
    3ad8:	fa 24       	movpi45 $r1,#0x14
    3ada:	3e 0f ff 6c 	addi.gp $r0,#-148
    3ade:	42 01 04 73 	maddr32 $r0,$r2,$r1
    3ae2:	a0 01       	lwi333 $r0,[$r0+#0x4]
    3ae4:	a0 03       	lwi333 $r0,[$r0+#0xc]
    3ae6:	3c 0e 00 0d 	swi.gp $r0,[+#0x34]
    3aea:	dd 9e       	ret5 $lp

00003aec <vTaskPlaceOnEventList>:
    3aec:	3a 6f 98 bc 	smw.adm $r6,[$sp],$r6,#0x2    ! {$r6, $lp}
