Archive member included because of file (symbol)

./../../../psp_rel/lib/api.a(libc_op_entry.o)
                              ud_string_deal.o (libc_op_entry)
./../../../psp_rel/lib/api.a(sys_op_entry.o)
                              ud_deinit.o (sys_op_entry)

Memory Configuration

Name             Origin             Length             Attributes
*default*        0x0000000000000000 0xffffffffffffffff

Linker script and memory map

LOAD ud_asrc_adjust.o
LOAD ud_data.o
LOAD ud_deinit.o
LOAD ud_init.o
LOAD ud_irq.o
LOAD ud_module_entry.o
LOAD ud_setup.o
LOAD ud_string_deal.o
LOAD ud_trans.o
LOAD usound_op_entry.o
LOAD ./../../../psp_rel/lib/api.a
LOAD ./../../../psp_rel/include/link_base.xn
                0x0000000000000000                DRV_GROUP_STG_BASE = 0x0
                0x0000000000000001                DRV_GROUP_STG_CARD = 0x1
                0x0000000000000002                DRV_GROUP_STG_UHOST = 0x2
                0x0000000000000003                DRV_GROUP_FAT32 = 0x3
                0x0000000000000004                DRV_GROUP_EXFAT = 0x4
                0x0000000000000005                DRV_GROUP_UD = 0x5
                0x0000000000000006                DRV_GROUP_LCD = 0x6
                0x0000000000000007                DRV_GROUP_FM = 0x7
                0x0000000000000008                DRV_GROUP_KEY = 0x8
                0x0000000000000009                DRV_GROUP_CCD = 0x9
                0x000000000000000a                DRV_GROUP_AUDIO_DEVICE = 0xa
                0x000000000000000b                DRV_GROUP_TTS = 0xb
                0x000000000000000c                DRV_GROUP_BT = 0xc
                0x000000000000000f                DRV_GROUP_SYS = 0xf
                0x000000000003ffff                SRAM_SIZE_MASK = 0x3ffff
                0x000000009fc00000                RDATA_ADDR_BASE = 0x9fc00000
                0x00000000bfc00000                RCODE_ADDR_BASE = 0xbfc00000
                0x0000000000000001                KERNEL_BANK_A = 0x1
                0x0000000000000002                KERNEL_BANK_B = 0x2
                0x0000000000000003                KERNEL_BANK_C = 0x3
                0x0000000000040000                BANK_SPACE = 0x40000
                0x0000000000000000                FRONT_AP = 0x0
                0x0000000000000001                BACK_AP = 0x1
                0x0000000000000002                PROCESS_MANAGER_AP = 0x2
                0x0000000000000000                FRONT_CODEC = 0x0
                0x0000000000000001                BACK_CODEC = 0x1
                0x0000000000000040                AP_BANK_FRONT_CONTROL_1 = 0x40
                0x0000000000000048                AP_BANK_FRONT_UI_1 = 0x48
                0x0000000000000050                AP_BANK_FRONT_BASAL = 0x50
                0x0000000000000058                AP_BANK_FRONT_CODEC = 0x58
                0x0000000000000060                AP_BANK_BACK_CONTROL_1 = 0x60
                0x0000000000000068                AP_BANK_BACK_BASAL = 0x68
                0x0000000000000070                AP_BANK_BACK_CODEC = 0x70
                0x0000000000000078                AP_BANK_FRONT_ENHANCED_1 = 0x78
                0x0000000000000071                AP_BANK_FRONT_ENHANCED_2 = 0x71
                0x000000000000007a                AP_BANK_BACK_ENHANCED_1 = 0x7a
                0x000000000000007b                AP_BANK_BACK_ENHANCED_2 = 0x7b
                0x0000000000000072                AP_BANK_BTENGINE_CONTROL_1 = 0x72
                0x0000000000000073                AP_BANK_BTENGINE_LIB_1 = 0x73
                0x0000000000000074                AP_BANK_BTENGINE_LIB_2 = 0x74
                0x0000000000000075                AP_BANK_BTENGINE_EXTEND_1 = 0x75
                0x0000000000000076                AP_BANK_BTENGINE_EXTEND_2 = 0x76
                0x0000000000000077                AP_BANK_BTENGINE_EXTEND_3 = 0x77
                0x000000000000007c                AP_BANK_BTENGINE_EXTEND_4 = 0x7c
                0x0000000000000079                AP_BANK_BTENGINE_EXTEND_5 = 0x79
                0x000000000000007f                AP_BANK_MANAGER = 0x7f
                0x0000000000000041                AP_BANK_AUTOTEST = 0x41
                0x0000000000000000                SROM_BROM_ADDR = 0x0
                0x0000000000002600                SROM_BROM_SIZE = 0x2600
                0x0000000000002600                SROM_SPINOR_ADDR = (SROM_BROM_ADDR + SROM_BROM_SIZE)
                0x0000000000000c00                SROM_SPINOR_SIZE = 0xc00
                0x0000000000003200                SROM_TWI_ADDR = (SROM_SPINOR_ADDR + SROM_SPINOR_SIZE)
                0x0000000000000700                SROM_TWI_SIZE = 0x700
                0x0000000000003900                SROM_STUB_ADDR = (SROM_TWI_ADDR + SROM_TWI_SIZE)
                0x0000000000000700                SROM_STUB_SIZE = 0x700
                0x0000000000000e00                SROM_SPINOR_SIZE_MDY = 0xe00
                0x0000000000003400                SROM_TWI_ADDR_MDY = (SROM_SPINOR_ADDR + SROM_SPINOR_SIZE_MDY)
                0x0000000000000700                SROM_TWI_SIZE_MDY = 0x700
                0x0000000000003b00                SROM_STUB_ADDR_MDY = (SROM_TWI_ADDR_MDY + SROM_TWI_SIZE_MDY)
                0x0000000000000500                SROM_STUB_SIZE_MDY = 0x500
                0x0000000000004000                SROM_KERNEL_ADDR = (SROM_STUB_ADDR + SROM_STUB_SIZE)
                0x0000000000004000                SROM_KERNEL_SIZE = 0x4000
                0x000000000000c000                SROM_FS_ADDR = 0xc000
                0x0000000000001c00                SROM_FS_SIZE = 0x1c00
                0x000000000000dc00                SROM_SPINOR1_ADDR = (SROM_FS_ADDR + SROM_FS_SIZE)
                0x0000000000000400                SROM_SPINOR1_SIZE = 0x400
                0x0000000000008000                SRAM_OS_RCODE_ADDR = 0x8000
                0x0000000000000c00                SRAM_OS_RCODE_SIZE = 0xc00
                0x0000000000008c00                SRAM_SPINOR_RCODE_ADDR = 0x8c00
                0x0000000000000400                SRAM_SPINOR_RCODE_SIZE = 0x400
                0x0000000000009000                SRAM_BANK_A_ADDR = 0x9000
                0x0000000000000400                SRAM_BANK_A_SIZE = 0x400
                0x0000000000009400                SRAM_BANK_B_ADDR = 0x9400
                0x0000000000000800                SRAM_BANK_B_SIZE = 0x800
                0x0000000000009c00                SRAM_UI_RCODE_ADDR = 0x9c00
                0x0000000000000300                SRAM_UI_RCODE_SIZE = 0x300
                0x0000000000009f00                SRAM_AUDIO_GLOBAL_DATA_ADDR = 0x9f00
                0x0000000000000060                SRAM_AUDIO_GLOBAL_DATA_SIZE = 0x60
                0x0000000000009f60                SRAM_UHOST_GLOBAL_DATA_ADDR = 0x9f60
                0x0000000000000010                SRAM_UHOST_GLOBAL_DATA_SIZE = 0x10
                0x0000000000009f70                SRAM_CARD_GLOBAL_DATA_ADDR = 0x9f70
                0x0000000000000010                SRAM_CARD_GLOBAL_DATA_SIZE = 0x10
                0x0000000000009f80                SRAM_SYS_SHARE_DATA_ADDR = 0x9f80
                0x0000000000000040                SRAM_SYS_SHARE_DATA_SIZE = 0x40
                0x0000000000009fc0                SRAM_RAM6_CCD_GLOBAL_DATA_ADDR = 0x9fc0
                0x0000000000000040                SRAM_RAM6_CCD_GLOBAL_DATA_SIZE = 0x40
                0x000000000000a000                SRAM_BT_LIB1_BANK_ADDR = 0xa000
                0x0000000000000800                SRAM_BT_LIB1_BANK_SIZE = 0x800
                0x000000000000a800                SRAM_BT_EXT1_BANK_ADDR = (SRAM_BT_LIB1_BANK_ADDR + SRAM_BT_LIB1_BANK_SIZE)
                0x0000000000000800                SRAM_BT_EXT1_BANK_SIZE = 0x800
                0x000000000000b000                SRAM_BT_EXT2_BANK_ADDR = (SRAM_BT_EXT1_BANK_ADDR + SRAM_BT_EXT1_BANK_SIZE)
                0x0000000000000800                SRAM_BT_EXT2_BANK_SIZE = 0x800
                0x000000000000f000                SRAM_BT_STACK_RCODE1_ADDR = 0xf000
                0x0000000000000a00                SRAM_BT_STACK_RCODE1_SIZE = 0xa00
                0x000000000000b000                SRAM_AP_BANK_MANAGER_ADDR = SRAM_BT_EXT2_BANK_ADDR
                0x0000000000000800                SRAM_AP_BANK_MANAGER_SIZE = SRAM_BT_EXT2_BANK_SIZE
                0x000000000000be00                SRAM_KEY_MESSAGE_DATA_ADDR = 0xbe00
                0x0000000000000100                SRAM_KEY_MESSAGE_DATA_SIZE = 0x100
                0x000000000000bf00                SRAM_UI_DATA_ADDR = 0xbf00
                0x0000000000000100                SRAM_UI_DATA_SIZE = 0x100
                0x0000000000010000                SRAM_BT_CONTROLLER_RCODE_ADDR = 0x10000
                0x0000000000000500                SRAM_BT_CONTROLLER_RCODE_SIZE = 0x500
                0x0000000000010500                SRAM_COMMON_BT_MANAGER_RCODE = (SRAM_BT_CONTROLLER_RCODE_ADDR + SRAM_BT_CONTROLLER_RCODE_SIZE)
                0x0000000000000b00                SRAM_COMMON_BT_MANAGER_SIZE = 0xb00
                0x0000000000011000                SRAM_BT_BACK_RCODE_ADDR = (SRAM_COMMON_BT_MANAGER_RCODE + SRAM_COMMON_BT_MANAGER_SIZE)
                0x0000000000002900                SRAM_BT_BACK_RCODE_SIZE = 0x2900
                0x00000000000140d0                SRAM_IRQ_PRINT_BUFFER_ADDR = 0x140d0
                0x0000000000000130                SRAM_IRQ_PRINT_BUFFER_SIZE = 0x130
                0x0000000000013900                SRAM_BT_LIB2_BANK_ADDR = 0x13900
                0x0000000000000d00                SRAM_BT_LIB2_BANK_SIZE = 0xd00
                0x0000000000013900                SRAM_BT_EXT3_BANK_ADDR = SRAM_BT_LIB2_BANK_ADDR
                0x0000000000000d00                SRAM_BT_EXT3_BANK_SIZE = SRAM_BT_LIB2_BANK_SIZE
                0x0000000000021e00                SRAM_BT_EXT4_BANK_ADDR = 0x21e00
                0x0000000000000600                SRAM_BT_EXT4_BANK_SIZE = 0x600
                0x0000000000014600                SRAM_BT_EXT5_BANK_ADDR = 0x14600
                0x0000000000000600                SRAM_BT_EXT5_BANK_SIZE = 0x600
                0x000000000000fa00                SRAM_COM_DAE_RCODE_ADDR = 0xfa00
                0x0000000000000100                SRAM_COM_DAE_RCODE_SIZE = 0x100
                0x000000000000fb00                SRAM_BTCALL_EXT_RCODE_ADDR = 0xfb00
                0x0000000000000100                SRAM_BTCALL_EXT_RCODE_SIZE = 0x100
                0x000000000001e900                SRAM_AP_FRONT_RCODE_ADDR = 0x1e900
                0x0000000000000800                SRAM_AP_FRONT_RCODE_SIZE = 0x800
                0x0000000000016c00                SRAM_FS_RCODE_ADDR = 0x16c00
                0x0000000000000800                SRAM_FS_RCODE_SIZE = 0x800
                0x0000000000017400                SRAM_CARD_UD_RCODE_ADDR = 0x17400
                0x0000000000000c00                SRAM_CARD_UD_RCODE_SIZE = 0xc00
                0x0000000000017400                SRAM_UHOST_UD_RCODE_ADDR = SRAM_CARD_UD_RCODE_ADDR
                0x0000000000000c00                SRAM_UHOST_UD_RCODE_SIZE = SRAM_CARD_UD_RCODE_SIZE
                0x0000000000016c00                SRAM_USOUND_RCODE_ADDR = 0x16c00
                0x0000000000002800                SRAM_USOUND_RCODE_SIZE = 0x2800
                0x0000000000016c00                SRAM_BTSTACK_AVDTP_DATA_ADDR = 0x16c00
                0x0000000000002980                SRAM_BTSTACK_AVDTP_DATA_SIZE = 0x2980
                0x0000000000016c00                SRAM_BTCALL_CALLRING_BUF_ADDR = 0x16c00
                0x0000000000001000                SRAM_BTCALL_CALLRING_BUF_SIZE = 0x1000
                0x0000000000016c00                SRAM_BTCALL_ASQT_BUF_ADDR = 0x16c00
                0x0000000000002800                SRAM_BTCALL_ASQT_BUF_SIZE = 0x2800
                0x0000000000018000                SRAM_FS_DATA_ADDR = 0x18000
                0x0000000000000300                SRAM_FS_DATA_SIZE = 0x300
                0x0000000000018300                SRAM_FS_BUF_ADDR = 0x18300
                0x0000000000000a00                SRAM_FS_BUF_SIZE = 0xa00
                0x0000000000018d00                SRAM_CARD_UD_CACHE_ADDR = 0x18d00
                0x0000000000000800                SRAM_CARD_UD_CACHE_SIZE = 0x800
                0x0000000000018d00                SRAM_UHOST_UD_CACHE_ADDR = SRAM_CARD_UD_CACHE_ADDR
                0x0000000000000800                SRAM_UHOST_UD_CACHE_SIZE = SRAM_CARD_UD_CACHE_SIZE
                0x0000000000019500                SRAM_CARD_DATA_ADDR = 0x19500
                0x0000000000000080                SRAM_CARD_DATA_SIZE = 0x80
                0x0000000000019500                SRAM_UHOST_DATA_ADDR = SRAM_CARD_DATA_ADDR
                0x0000000000000080                SRAM_UHOST_DATA_SIZE = SRAM_CARD_DATA_SIZE
                0x0000000000019580                SRAM_AP_BACK_DATA_ADDR = 0x19580
                0x0000000000000400                SRAM_AP_BACK_DATA_SIZE = 0x400
                0x0000000000019980                SRAM_AP_FRONT_DATA_ADDR = 0x19980
                0x0000000000000700                SRAM_AP_FRONT_DATA_SIZE = 0x700
                0x000000000001a080                SRAM_APPLIB_GLOBAL_DATA_ADDR = 0x1a080
                0x0000000000000040                SRAM_APPLIB_GLOBAL_DATA_SIZE = 0x40
                0x000000000001a0c0                SRAM_APPLIB_DATA_ADDR = 0x1a0c0
                0x0000000000000200                SRAM_APPLIB_DATA_SIZE = 0x200
                0x000000000001a2c0                SRAM_BTMANAGER_DATA_ADDR = 0x1a2c0
                0x0000000000000140                SRAM_BTMANAGER_DATA_SIZE = 0x140
                0x000000000001a400                SRAM_OS_DATA_ADDR = 0x1a400
                0x0000000000000880                SRAM_OS_DATA_SIZE = 0x880
                0x000000000001ac80                SRAM_OS_HEAP_ADDR = 0x1ac80
                0x0000000000000680                SRAM_OS_HEAP_SIZE = 0x680
                0x000000000001b300                SRAM_AP_MANAGER_RCODE_ADDR = 0x1b300
                0x0000000000000100                SRAM_AP_MANAGER_RCODE_SIZE = 0x100
                0x000000000001b400                SRAM_OS_SD_SWAP_BUF_ADDR = 0x1b400
                0x0000000000000200                SRAM_OS_SD_SWAP_BUF_SIZE = 0x200
                0x000000000001b600                SRAM_OS_TASK_STACK_ADDR = 0x1b600
                0x0000000000001e00                SRAM_OS_TASK_STACK_SIZE = 0x1e00
                0x000000000001d500                SRAM_BANK_C_ADDR = 0x1d500
                0x0000000000000400                SRAM_BANK_C_SIZE = 0x400
                0x000000000001d900                SRAM_BT_HCI_BUF_ADDR = 0x1d900
                0x0000000000001000                SRAM_BT_HCI_BUF_SIZE = 0x1000
                0x0000000000016400                SRAM_BT_UART_BUF_ADDR = 0x16400
                0x0000000000000800                SRAM_BT_UART_BUF_SIZE = 0x800
                0x000000000001f100                SRAM_BT_RCODE_DATA_ADDR = 0x1f100
                0x0000000000000700                SRAM_BT_RCODE_DATA_SIZE = 0x700
                0x000000000001f800                SRAM_KEY_MESSAGE_RCODE_ADDR = 0x1f800
                0x0000000000000800                SRAM_KEY_MESSAGE_RCODE_SIZE = 0x800
                0x0000000000020000                SRAM_DSP_IRQ_TABLE_ADDR = 0x20000
                0x0000000000000120                SRAM_DSP_IRQ_TABLE_SIZE = 0x120
                0x0000000000020120                SRAM_RAM2_RESEVER_ADDR = 0x20120
                0x00000000000000e0                SRAM_RAM2_RESEVER_SIZE = 0xe0
                0x0000000000020200                SRAM_AP_BANK_FRONT_CONTROL_ADDR = 0x20200
                0x0000000000000800                SRAM_AP_BANK_FRONT_CONTROL_SIZE = 0x800
                0x0000000000020a00                SRAM_KERNEL_XSYS_ADDR = 0x20a00
                0x0000000000000e00                SRAM_KERNEL_XSYS_SIZE = 0xe00
                0x0000000000021800                SRAM_AP_BACK_BASAL_RCODE_ADDR = 0x21800
                0x0000000000000600                SRAM_AP_BACK_BASAL_RCODE_SIZE = 0x600
                0x0000000000021e00                SRAM_AP_BANK_BACK_BASAL_ADDR = 0x21e00
                0x0000000000000600                SRAM_AP_BANK_BACK_BASAL_SIZE = 0x600
                0x0000000000022400                SRAM_BT_HEAD_ADDR = 0x22400
                0x0000000000003400                SRAM_BT_HEAD_SIZE = 0x3400
                0x0000000000025000                SRAM_UART_STUB_RCODE_ADDR = 0x25000
                0x0000000000000800                SRAM_UART_STUB_RCODE_SIZE = 0x800
                0x0000000000027e00                SRAM_AP_FRONT_BASAL_RCODE_ADDR = 0x27e00
                0x0000000000000400                SRAM_AP_FRONT_BASAL_RCODE_SIZE = 0x400
                0x000000000000b000                SRAM_AP_BANK_FRONT_BASAL_ADDR = 0xb000
                0x0000000000000800                SRAM_AP_BANK_FRONT_BASAL_SIZE = 0x800
                0x0000000000025800                SRAM_AP_BANK_FRONT_UI_ADDR = 0x25800
                0x0000000000000800                SRAM_AP_BANK_FRONT_UI_SIZE = 0x800
                0x0000000000026000                SRAM_AP_RCP_COMMAND_BUFFER_ADDR = 0x26000
                0x0000000000000220                SRAM_AP_RCP_COMMAND_BUFFER_SIZE = 0x220
                0x0000000000026000                SRAM_AP_BACK_RCODE_ADDR = 0x26000
                0x0000000000000800                SRAM_AP_BACK_RCODE_SIZE = 0x800
                0x0000000000026800                SRAM_AP_BANK_BACK_CONTROL_ADDR = 0x26800
                0x0000000000000800                SRAM_AP_BANK_BACK_CONTROL_SIZE = 0x800
                0x0000000000027000                SRAM_RAM2_RESEVER2_ADDR = 0x27000
                0x0000000000000e00                SRAM_RAM2_RESEVER2_SIZE = 0xe00
                0x0000000000027e00                SRAM_BTPLAY_MMM_RCODE2_ADDR = 0x27e00
                0x0000000000000e00                SRAM_BTPLAY_MMM_RCODE2_SIZE = 0xe00
                0x0000000000028c00                SRAM_BTPLAY_SWAP_BUFFER_ADDR = 0x28c00
                0x0000000000000400                SRAM_BTPLAY_SWAP_BUFFER_SIZE = 0x400
                0x0000000000028200                SRAM_AP_BACK_CODEC_RCODE_ADDR = 0x28200
                0x0000000000000a00                SRAM_AP_BACK_CODEC_RCODE_SIZE = 0xa00
                0x0000000000028c00                SRAM_AP_BANK_BACK_CODEC_ADDR = 0x28c00
                0x0000000000000400                SRAM_AP_BANK_BACK_CODEC_SIZE = 0x400
                0x0000000000029000                SRAM_AP_BACK_AL_RCODE_1_ADDR = 0x29000
                0x0000000000007000                SRAM_AP_BACK_AL_RCODE_1_SIZE = 0x7000
                0x000000000002e000                SRAM_AP_BANK_BACK_AL_4_ADDR = 0x2e000
                0x0000000000002000                SRAM_AP_BANK_BACK_AL_4_SIZE = 0x2000
                0x0000000000030000                SRAM_AP_BANK_BACK_AL_1_ADDR = 0x30000
                0x0000000000004000                SRAM_AP_BANK_BACK_AL_1_SIZE = 0x4000
                0x0000000000034000                SRAM_AP_BACK_AL_RCODE_2_ADDR = 0x34000
                0x0000000000002000                SRAM_AP_BACK_AL_RCODE_2_SIZE = 0x2000
                0x0000000000036000                SRAM_AP_BANK_BACK_AL_2_ADDR = 0x36000
                0x0000000000002000                SRAM_AP_BANK_BACK_AL_2_SIZE = 0x2000
                0x0000000000038000                SRAM_AP_BANK_BACK_AL_3_ADDR = 0x38000
                0x0000000000004000                SRAM_AP_BANK_BACK_AL_3_SIZE = 0x4000
                0x000000000000e000                SRAM_ASRC_BUF_0_ADDR = 0xe000
                0x0000000000000e00                SRAM_ASRC_BUF_0_SIZE = 0xe00
                0x000000000000f000                SRAM_ASRC_BUF_1_ADDR = 0xf000
                0x0000000000000c00                SRAM_ASRC_BUF_1_SIZE = 0xc00
                0x000000000000fc00                SRAM_CARD_BUF_0_ADDR = 0xfc00
                0x0000000000000200                SRAM_CARD_BUF_0_SIZE = 0x200
                0x000000000000fe00                SRAM_CARD_BUF_1_ADDR = 0xfe00
                0x0000000000000200                SRAM_CARD_BUF_1_SIZE = 0x200
                0x000000000000fc00                SRAM_CARD_FIFO_ADDR = SRAM_CARD_BUF_0_ADDR
                0x0000000000000400                SRAM_CARD_FIFO_SIZE = (SRAM_CARD_BUF_0_SIZE + SRAM_CARD_BUF_1_SIZE)
                0x000000000003c000                SRAM_PCMRAM_0_ADDR = 0x3c000
                0x0000000000001000                SRAM_PCMRAM_0_SIZE = 0x1000
                0x000000000003d000                SRAM_PCMRAM_1_ADDR = 0x3d000
                0x0000000000001000                SRAM_PCMRAM_1_SIZE = 0x1000
                0x000000000003e000                SRAM_PCMRAM_2_ADDR = 0x3e000
                0x0000000000001000                SRAM_PCMRAM_2_SIZE = 0x1000
                0x000000000003c000                SRAM_PCMRAM_H5_FIFO_ADDR = SRAM_PCMRAM_0_ADDR
                0x0000000000001000                SRAM_PCMRAM_H5_FIFO_SIZE = SRAM_PCMRAM_0_SIZE
                0x000000000003d000                SRAM_PCMRAM_PCMFIFO_ADDR = SRAM_PCMRAM_1_ADDR
                0x0000000000002000                SRAM_PCMRAM_FIFO_SIZE = (SRAM_PCMRAM_1_SIZE + SRAM_PCMRAM_2_SIZE)
                0x000000000003f000                SRAM_URAM_0_ADDR = 0x3f000
                0x0000000000000800                SRAM_URAM_0_SIZE = 0x800
                0x000000000003f800                SRAM_URAM_1_ADDR = 0x3f800
                0x0000000000000800                SRAM_URAM_1_SIZE = 0x800
                0x000000000003f000                SRAM_URAM_UDISK_FIFO_ADDR = SRAM_URAM_0_ADDR
                0x0000000000001000                SRAM_URAM_UDISK_FIFO_SIZE = (SRAM_URAM_0_SIZE + SRAM_URAM_1_SIZE)
                0x000000000003f800                SRAM_URAM_UHOST_FIFO_ADDR = SRAM_URAM_1_ADDR
                0x0000000000000800                SRAM_URAM_UHOST_FIFO_SIZE = SRAM_URAM_1_SIZE
                0x0000000000026800                SRAM_AP_BANK_FRONT_ENHANCED_1_ADDR = SRAM_AP_BANK_BACK_CONTROL_ADDR
                0x0000000000000800                SRAM_AP_BANK_FRONT_ENHANCED_1_SIZE = 0x800
                0x0000000000000000                SRAM_AP_BANK_FRONT_ENHANCED_2_ADDR = 0x0
                0x0000000000000000                SRAM_AP_BANK_FRONT_ENHANCED_2_SIZE = 0x0
                0x0000000000021e00                SRAM_AP_BANK_BACK_ENHANCED_1_ADDR = SRAM_AP_BANK_BACK_BASAL_ADDR
                0x0000000000000600                SRAM_AP_BANK_BACK_ENHANCED_1_SIZE = SRAM_AP_BANK_BACK_BASAL_SIZE
                0x0000000000028a00                SRAM_AP_BANK_BACK_ENHANCED_2_ADDR = 0x28a00
                0x0000000000000600                SRAM_AP_BANK_BACK_ENHANCED_2_SIZE = 0x600
                0x0000000000000000                SRAM_AP_BANK_FRONT_CODEC_ADDR = 0x0
                0x0000000000000000                SRAM_AP_BANK_FRONT_CODEC_SIZE = 0x0
                0x000000000003b800                SRAM_TTS_DRV_RCODE_ADDR = 0x3b800
                0x0000000000000800                SRAM_TTS_DRV_RCODE_SIZE = 0x800
                0x0000000000019580                SRAM_FM_ENG_RDATA_ADDR = SRAM_AP_BACK_DATA_ADDR
                0x0000000000000200                SRAM_FM_ENG_RDATA_SIZE = 0x200
                0x0000000000016c00                SRAM_FM_DRV_RCODE_ADDR = SRAM_FS_RCODE_ADDR
                0x0000000000000800                SRAM_FM_DRV_RCODE_SIZE = 0x800
                0x0000000000019780                SRAM_FM_DRV_RDATA_ADDR = (SRAM_FM_ENG_RDATA_ADDR + SRAM_FM_ENG_RDATA_SIZE)
                0x0000000000000200                SRAM_FM_DRV_RDATA_SIZE = (SRAM_AP_BACK_DATA_SIZE - SRAM_FM_ENG_RDATA_SIZE)
                0x0000000000021800                SRAM_AP_USB_DEVICE_RCODE_ADDR = 0x21800
                0x0000000000004000                SRAM_AP_USB_DEVICE_RCODE_SIZE = SRAM_AP_BANK_BACK_AL_1_SIZE
                0x0000000000040000                SRAM_INVALID_RCODE_ADDR = 0x40000
                0x0000000000000005                BANK_GROUP_INDEX = DRV_GROUP_UD
                0x0000000000016c00                SRAM_TEXT_ADDR = SRAM_USOUND_RCODE_ADDR
                0x0000000000002600                SRAM_TEXT_SIZE = (SRAM_USOUND_RCODE_SIZE - 0x200)
                0x0000000000019200                SRAM_DATA_ADDR = (SRAM_USOUND_RCODE_ADDR + 0x2600)
                0x00000000bfc16c00                RCODE_TEXT_ADDR = (RCODE_ADDR_BASE + SRAM_TEXT_ADDR)
                0x000000009fc19200                RDATA_DATA_ADDR = (RDATA_ADDR_BASE + SRAM_DATA_ADDR)
                0x0000000015009000                KERNEL_BANK_A_ADDR_BASE = (((KERNEL_BANK_A << 0x1c) + (BANK_GROUP_INDEX << 0x18)) + SRAM_BANK_A_ADDR)
                0x0000000025009400                KERNEL_BANK_B_ADDR_BASE = (((KERNEL_BANK_B << 0x1c) + (BANK_GROUP_INDEX << 0x18)) + SRAM_BANK_B_ADDR)
                0x000000003501d500                KERNEL_BANK_C_ADDR_BASE = (((KERNEL_BANK_C << 0x1c) + (BANK_GROUP_INDEX << 0x18)) + SRAM_BANK_C_ADDR)
                0x0000000000000400                KERNEL_BANK_A_SIZE = SRAM_BANK_A_SIZE
                0x0000000000000800                KERNEL_BANK_B_SIZE = SRAM_BANK_B_SIZE
                0x0000000000040000                KERNEL_BANK_SPACE = BANK_SPACE

.DATA_BUFFER    0x000000009fc32000     0x1000
 ud_data.o(.data.buf_ram)
 .data.buf_ram  0x000000009fc32000     0x1000 ud_data.o
                0x000000009fc32000                g_play_buf

.text           0x00000000bfc16c00     0x1768
                0x00000000bfc16c00                _resident_text = <code 340> (.)
 ud_setup.o(.text .rodata)
 .text          0x00000000bfc16c00      0x7d0 ud_setup.o
                0x00000000bfc16dfd                set_out_iso_ep
                0x00000000bfc16c01                no_data_control
                0x00000000bfc16e45                set_in_int_ep
                0x00000000bfc16d99                recover_stall_endpoint
                0x00000000bfc16d31                stall_endpoint
                0x00000000bfc16c11                control_write
                0x00000000bfc16e8d                deal_setup
                0x00000000bfc16c7d                control_read
 ud_irq.o(.text .rodata)
 .text          0x00000000bfc173d0      0x2e4 ud_irq.o
                0x00000000bfc17401                usb_disconnect_isr
                0x00000000bfc173d1                reset_data_pos
                0x00000000bfc17665                usound_isr_cbk
                0x00000000bfc175fd                usound_isr
                0x00000000bfc1741d                iso_out_token_isr
                0x00000000bfc175d9                hid_token_check
                0x00000000bfc17571                hid_in_token_isr
 usound_op_entry.o(.text .rodata)
 .text          0x00000000bfc176b4      0x318 usound_op_entry.o
                0x00000000bfc17799                usound_inner_set_cfg
                0x00000000bfc17779                usound_inner_module_start
                0x00000000bfc177a9                usound_inner_get_info
                0x00000000bfc17855                usound_inner_set_info
                0x00000000bfc179bd                usound_inner_hid_deal
                0x00000000bfc17789                usound_inner_module_stop
                0x00000000bfc17859                usound_inner_set_cmd
                0x00000000bfc176b5                usound_inner_get_status
 ud_trans.o(.text .rodata)
 .text          0x00000000bfc179cc      0x114 ud_trans.o
                0x00000000bfc179cd                access_usbfifo_by_cpu
 ud_asrc_adjust.o(.text .rodata)
 .text          0x00000000bfc17ae0      0x308 ud_asrc_adjust.o
                0x00000000bfc17ae1                init_channel_record
                0x00000000bfc17dcd                deal_timer_process
                0x00000000bfc17c31                check_asrc_chanel_fifo_empty
                0x00000000bfc17c75                modify_asrc_chanel_decimation_ratio
                0x00000000bfc17bed                check_asrc_chanel_fifo_full
 ud_string_deal.o(.text .rodata)
 .text          0x00000000bfc17de8      0x200 ud_string_deal.o
                0x00000000bfc17edd                descriptor_init
                0x00000000bfc17ea5                atoi
                0x00000000bfc17e7d                cnvrt_ascii_to_uni16
                0x00000000bfc17e59                count_string_charlngth
                0x00000000bfc17de9                set_usb_cfg_param
 ud_init.o(.text .rodata)
 .text          0x00000000bfc17fe8      0x228 ud_init.o
                0x00000000bfc17fe9                usb_phy_setting
                0x00000000bfc18041                usb_sound_init
 ud_deinit.o(.text .rodata)
 .text          0x00000000bfc18210      0x120 ud_deinit.o
                0x00000000bfc18211                usb_device_exit
 ud_module_entry.o(.text .rodata)
 .text          0x00000000bfc18330       0x30 ud_module_entry.o
                0x00000000bfc18349                usb_exit
                0x00000000bfc18349                cleanup_module
                0x00000000bfc18331                usb_init
                0x00000000bfc18331                init_module
 api.a(.text)
                0x00000000bfc18360                _resident_text_end = <code 340> (.)
 .text          0x00000000bfc18360        0x4 ./../../../psp_rel/lib/api.a(libc_op_entry.o)
                0x00000000bfc18361                libc_op_entry
 .text          0x00000000bfc18364        0x4 ./../../../psp_rel/lib/api.a(sys_op_entry.o)
                0x00000000bfc18365                sys_op_entry

.data           0x000000009fc19200      0x168 load address 0x00000000bfc18368
                0x000000009fc19200                _resident_data = <code 340> (.)
 *.o(.data)
 .data          0x000000009fc19200      0x148 ud_data.o
                0x000000009fc19208                Device_Descriptor
                0x000000009fc192b8                All_Descriptors_of_Configuration
                0x000000009fc19234                g_asrc_adjust_timer
                0x000000009fc1923c                g_adc_sample
                0x000000009fc19238                g_play_sample
                0x000000009fc19240                SerialNumber
                0x000000009fc19204                language_string
                0x000000009fc19288                g_hid_Descriptor
                0x000000009fc19230                g_dac_sample
                0x000000009fc1921c                manufacure_string
                0x000000009fc19200                g_set_rate
                0x000000009fc19264                device_name_string
 .data          0x000000009fc19348       0x20 usound_op_entry.o
                0x000000009fc19348                usound_ops
                0x000000009fc19368                _resident_data_end = <code 340> (.)

.bss            0x000000009fc19368       0xe8
                0x000000009fc19368                _resident_data = <code 340> (.)
 *.o(.bss)
 .bss           0x000000009fc19368       0x7c ud_asrc_adjust.o
                0x000000009fc19370                g_asrc_dec1_init
                0x000000009fc19368                g_asrc_freq_in
                0x000000009fc19374                g_asrc_dec0_init
                0x000000009fc19378                g_asrc_out1_record
                0x000000009fc1936c                g_asrc_freq_out
 .bss           0x000000009fc193e4       0x68 ud_data.o
                0x000000009fc19414                g_usb_pid
                0x000000009fc193f1                g_mute_flag
                0x000000009fc1943c                g_play_data_count
                0x000000009fc193e4                g_start_play
                0x000000009fc193e8                g_setup_data
                0x000000009fc193fd                tmp_play_status
                0x000000009fc19448                g_usb_state
                0x000000009fc19440                g_no_data_count
                0x000000009fc19406                g_set_dac_sample_flag
                0x000000009fc1942a                g_current_volume_ch2
                0x000000009fc193fc                g_no_empty_count
                0x000000009fc19434                g_wr_play_ptr
                0x000000009fc19407                g_tts_start_flag
                0x000000009fc193fe                g_current_mute_ch0
                0x000000009fc193f8                g_volume_flag
                0x000000009fc19405                g_set_adc_sample_flag
                0x000000009fc19438                g_rd_play_ptr
                0x000000009fc1942c                g_volume_chg
                0x000000009fc19408                g_clear_rate
                0x000000009fc19402                g_hid_change
                0x000000009fc19422                g_volume_value
                0x000000009fc19444                g_manul_stop
                0x000000009fc19426                g_current_volume_ch0
                0x000000009fc193ff                g_cur_selector
                0x000000009fc193f2                g_mute_delay
                0x000000009fc193f4                g_reset_flag
                0x000000009fc19428                g_current_volume_ch1
                0x000000009fc19430                low_energy
                0x000000009fc19403                g_hid_report
                0x000000009fc193f3                g_datain_flag
                0x000000009fc1941c                g_usb_vid
                0x000000009fc19404                g_count
                0x000000009fc193f0                g_asrc_adj_flag
                0x000000009fc19401                g_pc_switch_flag
                0x000000009fc1940c                g_usb_bcd
                0x000000009fc19424                g_hid_idle_time
                0x000000009fc19400                g_set_sample_flag
 .bss           0x000000009fc1944c        0x4 ud_init.o
                0x000000009fc1944c                g_pagemiss_cb_bak
                0x000000009fc19450                _resident_data_end = <code 340> (.)

.rel.dyn
                0x0000000015009000                . = KERNEL_BANK_A_ADDR_BASE
                0x0000000000009000                OFFSET = (. & (KERNEL_BANK_SPACE - 0x1))

BANK_A_0        0x0000000015009000      0x400
                0x0000000000000400                . = KERNEL_BANK_A_SIZE
 *fill*         0x0000000015009000      0x400 00
                0x0000000025009400                . = KERNEL_BANK_B_ADDR_BASE
                0x0000000000009400                OFFSET = (. & (KERNEL_BANK_SPACE - 0x1))

BANK_B_0
OUTPUT(uspeaker.exe elf32-tradlittlemips)

.reginfo        0x0000000000000000       0x18
 .reginfo       0x0000000000000000       0x18 ud_asrc_adjust.o

.pdr            0x0000000000000000      0x520
 .pdr           0x0000000000000000       0xa0 ud_asrc_adjust.o
 .pdr           0x00000000000000a0       0x20 ud_deinit.o
 .pdr           0x00000000000000c0       0x40 ud_init.o
 .pdr           0x0000000000000100       0xe0 ud_irq.o
 .pdr           0x00000000000001e0       0x40 ud_module_entry.o
 .pdr           0x0000000000000220      0x100 ud_setup.o
 .pdr           0x0000000000000320       0xa0 ud_string_deal.o
 .pdr           0x00000000000003c0       0x20 ud_trans.o
 .pdr           0x00000000000003e0      0x100 usound_op_entry.o
 .pdr           0x00000000000004e0       0x20 ./../../../psp_rel/lib/api.a(libc_op_entry.o)
 .pdr           0x0000000000000500       0x20 ./../../../psp_rel/lib/api.a(sys_op_entry.o)

.mdebug.abi32   0x0000000000000000        0x0

.debug_abbrev   0x0000000000000000      0x869
 .debug_abbrev  0x0000000000000000      0x10d ud_asrc_adjust.o
 .debug_abbrev  0x000000000000010d       0xb9 ud_data.o
 .debug_abbrev  0x00000000000001c6       0x6e ud_deinit.o
 .debug_abbrev  0x0000000000000234       0x9a ud_init.o
 .debug_abbrev  0x00000000000002ce       0xdb ud_irq.o
 .debug_abbrev  0x00000000000003a9       0x70 ud_module_entry.o
 .debug_abbrev  0x0000000000000419      0x13d ud_setup.o
 .debug_abbrev  0x0000000000000556      0x128 ud_string_deal.o
 .debug_abbrev  0x000000000000067e       0x93 ud_trans.o
 .debug_abbrev  0x0000000000000711      0x158 usound_op_entry.o

.debug_info     0x0000000000000000     0x3ad7
 .debug_info    0x0000000000000000      0x322 ud_asrc_adjust.o
 .debug_info    0x0000000000000322      0xede ud_data.o
 .debug_info    0x0000000000001200       0xc5 ud_deinit.o
 .debug_info    0x00000000000012c5      0x144 ud_init.o
 .debug_info    0x0000000000001409      0x28d ud_irq.o
 .debug_info    0x0000000000001696      0x10c ud_module_entry.o
 .debug_info    0x00000000000017a2      0xe46 ud_setup.o
 .debug_info    0x00000000000025e8      0xc99 ud_string_deal.o
 .debug_info    0x0000000000003281      0x13b ud_trans.o
 .debug_info    0x00000000000033bc      0x71b usound_op_entry.o

.debug_line     0x0000000000000000      0xa3c
 .debug_line    0x0000000000000000      0x145 ud_asrc_adjust.o
 .debug_line    0x0000000000000145       0x5d ud_data.o
 .debug_line    0x00000000000001a2       0x8f ud_deinit.o
 .debug_line    0x0000000000000231       0xf5 ud_init.o
 .debug_line    0x0000000000000326      0x115 ud_irq.o
 .debug_line    0x000000000000043b       0x45 ud_module_entry.o
 .debug_line    0x0000000000000480      0x29e ud_setup.o
 .debug_line    0x000000000000071e      0x101 ud_string_deal.o
 .debug_line    0x000000000000081f       0xa6 ud_trans.o
 .debug_line    0x00000000000008c5      0x177 usound_op_entry.o

.debug_frame    0x0000000000000000      0x460
 .debug_frame   0x0000000000000000       0xac ud_asrc_adjust.o
 .debug_frame   0x00000000000000ac       0x34 ud_deinit.o
 .debug_frame   0x00000000000000e0       0x4c ud_init.o
 .debug_frame   0x000000000000012c       0xac ud_irq.o
 .debug_frame   0x00000000000001d8       0x40 ud_module_entry.o
 .debug_frame   0x0000000000000218       0xc4 ud_setup.o
 .debug_frame   0x00000000000002dc       0x7c ud_string_deal.o
 .debug_frame   0x0000000000000358       0x34 ud_trans.o
 .debug_frame   0x000000000000038c       0xd4 usound_op_entry.o

.debug_pubnames
                0x0000000000000000      0x873
 .debug_pubnames
                0x0000000000000000      0x112 ud_asrc_adjust.o
 .debug_pubnames
                0x0000000000000112      0x3db ud_data.o
 .debug_pubnames
                0x00000000000004ed       0x26 ud_deinit.o
 .debug_pubnames
                0x0000000000000513       0x4f ud_init.o
 .debug_pubnames
                0x0000000000000562       0x9d ud_irq.o
 .debug_pubnames
                0x00000000000005ff       0x2c ud_module_entry.o
 .debug_pubnames
                0x000000000000062b       0xab ud_setup.o
 .debug_pubnames
                0x00000000000006d6       0x79 ud_string_deal.o
 .debug_pubnames
                0x000000000000074f       0x2c ud_trans.o
 .debug_pubnames
                0x000000000000077b       0xf8 usound_op_entry.o

.debug_aranges  0x0000000000000000      0x120
 .debug_aranges
                0x0000000000000000       0x20 ud_asrc_adjust.o
 .debug_aranges
                0x0000000000000020       0x20 ud_deinit.o
 .debug_aranges
                0x0000000000000040       0x20 ud_init.o
 .debug_aranges
                0x0000000000000060       0x20 ud_irq.o
 .debug_aranges
                0x0000000000000080       0x20 ud_module_entry.o
 .debug_aranges
                0x00000000000000a0       0x20 ud_setup.o
 .debug_aranges
                0x00000000000000c0       0x20 ud_string_deal.o
 .debug_aranges
                0x00000000000000e0       0x20 ud_trans.o
 .debug_aranges
                0x0000000000000100       0x20 usound_op_entry.o

.debug_str      0x0000000000000000     0x12e1
 .debug_str     0x0000000000000000      0x33a ud_asrc_adjust.o
                                        0x379 (size before relaxing)
 .debug_str     0x000000000000033a      0xa0c ud_data.o
                                        0xb45 (size before relaxing)
 .debug_str     0x0000000000000d46       0x38 ud_deinit.o
                                        0x134 (size before relaxing)
 .debug_str     0x0000000000000d7e       0x59 ud_init.o
                                        0x179 (size before relaxing)
 .debug_str     0x0000000000000dd7       0xc8 ud_irq.o
                                        0x2bb (size before relaxing)
 .debug_str     0x0000000000000e9f       0x36 ud_module_entry.o
                                        0x12c (size before relaxing)
 .debug_str     0x0000000000000ed5      0x122 ud_setup.o
                                        0xb2d (size before relaxing)
 .debug_str     0x0000000000000ff7       0xd5 ud_string_deal.o
                                        0x94c (size before relaxing)
 .debug_str     0x00000000000010cc       0x27 ud_trans.o
                                        0x18f (size before relaxing)
 .debug_str     0x00000000000010f3      0x1ee usound_op_entry.o
                                        0x6c0 (size before relaxing)

.comment        0x0000000000000000      0x1ae
 .comment       0x0000000000000000       0x2b ud_asrc_adjust.o
 .comment       0x000000000000002b       0x2b ud_data.o
 .comment       0x0000000000000056       0x2b ud_deinit.o
 .comment       0x0000000000000081       0x2b ud_init.o
 .comment       0x00000000000000ac       0x2b ud_irq.o
 .comment       0x00000000000000d7       0x2b ud_module_entry.o
 .comment       0x0000000000000102       0x2b ud_setup.o
 .comment       0x000000000000012d       0x2b ud_string_deal.o
 .comment       0x0000000000000158       0x2b ud_trans.o
 .comment       0x0000000000000183       0x2b usound_op_entry.o
