
Memory Configuration

Name             Origin             Length             Attributes
*default*        0x0000000000000000 0xffffffffffffffff

Linker script and memory map

LOAD ./../../../psp_rel/include/link_base.xn
                0x0000000000000000                DRV_GROUP_STG_BASE = 0x0
                0x0000000000000001                DRV_GROUP_STG_CARD = 0x1
                0x0000000000000002                DRV_GROUP_STG_UHOST = 0x2
                0x0000000000000003                DRV_GROUP_FAT32 = 0x3
                0x0000000000000004                DRV_GROUP_EXFAT = 0x4
                0x0000000000000005                DRV_GROUP_UD = 0x5
                0x0000000000000006                DRV_GROUP_LCD = 0x6
                0x0000000000000007                DRV_GROUP_FM = 0x7
                0x0000000000000008                DRV_GROUP_KEY = 0x8
                0x0000000000000009                DRV_GROUP_CCD = 0x9
                0x000000000000000a                DRV_GROUP_AUDIO_DEVICE = 0xa
                0x000000000000000b                DRV_GROUP_TTS = 0xb
                0x000000000000000c                DRV_GROUP_BT = 0xc
                0x000000000000000f                DRV_GROUP_SYS = 0xf
                0x000000000003ffff                SRAM_SIZE_MASK = 0x3ffff
                0x000000009fc00000                RDATA_ADDR_BASE = 0x9fc00000
                0x00000000bfc00000                RCODE_ADDR_BASE = 0xbfc00000
                0x0000000000000001                KERNEL_BANK_A = 0x1
                0x0000000000000002                KERNEL_BANK_B = 0x2
                0x0000000000000003                KERNEL_BANK_C = 0x3
                0x0000000000040000                BANK_SPACE = 0x40000
                0x0000000000000000                FRONT_AP = 0x0
                0x0000000000000001                BACK_AP = 0x1
                0x0000000000000002                PROCESS_MANAGER_AP = 0x2
                0x0000000000000000                FRONT_CODEC = 0x0
                0x0000000000000001                BACK_CODEC = 0x1
                0x0000000000000040                AP_BANK_FRONT_CONTROL_1 = 0x40
                0x0000000000000048                AP_BANK_FRONT_UI_1 = 0x48
                0x0000000000000050                AP_BANK_FRONT_BASAL = 0x50
                0x0000000000000058                AP_BANK_FRONT_CODEC = 0x58
                0x0000000000000060                AP_BANK_BACK_CONTROL_1 = 0x60
                0x0000000000000068                AP_BANK_BACK_BASAL = 0x68
                0x0000000000000070                AP_BANK_BACK_CODEC = 0x70
                0x0000000000000078                AP_BANK_FRONT_ENHANCED_1 = 0x78
                0x0000000000000071                AP_BANK_FRONT_ENHANCED_2 = 0x71
                0x000000000000007a                AP_BANK_BACK_ENHANCED_1 = 0x7a
                0x000000000000007b                AP_BANK_BACK_ENHANCED_2 = 0x7b
                0x0000000000000072                AP_BANK_BTENGINE_CONTROL_1 = 0x72
                0x0000000000000073                AP_BANK_BTENGINE_LIB_1 = 0x73
                0x0000000000000074                AP_BANK_BTENGINE_LIB_2 = 0x74
                0x0000000000000075                AP_BANK_BTENGINE_EXTEND_1 = 0x75
                0x0000000000000076                AP_BANK_BTENGINE_EXTEND_2 = 0x76
                0x0000000000000077                AP_BANK_BTENGINE_EXTEND_3 = 0x77
                0x000000000000007c                AP_BANK_BTENGINE_EXTEND_4 = 0x7c
                0x0000000000000079                AP_BANK_BTENGINE_EXTEND_5 = 0x79
                0x000000000000007f                AP_BANK_MANAGER = 0x7f
                0x0000000000000041                AP_BANK_AUTOTEST = 0x41
                0x0000000000000000                SROM_BROM_ADDR = 0x0
                0x0000000000002600                SROM_BROM_SIZE = 0x2600
                0x0000000000002600                SROM_SPINOR_ADDR = (SROM_BROM_ADDR + SROM_BROM_SIZE)
                0x0000000000000c00                SROM_SPINOR_SIZE = 0xc00
                0x0000000000003200                SROM_TWI_ADDR = (SROM_SPINOR_ADDR + SROM_SPINOR_SIZE)
                0x0000000000000700                SROM_TWI_SIZE = 0x700
                0x0000000000003900                SROM_STUB_ADDR = (SROM_TWI_ADDR + SROM_TWI_SIZE)
                0x0000000000000700                SROM_STUB_SIZE = 0x700
                0x0000000000000e00                SROM_SPINOR_SIZE_MDY = 0xe00
                0x0000000000003400                SROM_TWI_ADDR_MDY = (SROM_SPINOR_ADDR + SROM_SPINOR_SIZE_MDY)
                0x0000000000000700                SROM_TWI_SIZE_MDY = 0x700
                0x0000000000003b00                SROM_STUB_ADDR_MDY = (SROM_TWI_ADDR_MDY + SROM_TWI_SIZE_MDY)
                0x0000000000000500                SROM_STUB_SIZE_MDY = 0x500
                0x0000000000004000                SROM_KERNEL_ADDR = (SROM_STUB_ADDR + SROM_STUB_SIZE)
                0x0000000000004000                SROM_KERNEL_SIZE = 0x4000
                0x000000000000c000                SROM_FS_ADDR = 0xc000
                0x0000000000001c00                SROM_FS_SIZE = 0x1c00
                0x000000000000dc00                SROM_SPINOR1_ADDR = (SROM_FS_ADDR + SROM_FS_SIZE)
                0x0000000000000400                SROM_SPINOR1_SIZE = 0x400
                0x0000000000008000                SRAM_OS_RCODE_ADDR = 0x8000
                0x0000000000000c00                SRAM_OS_RCODE_SIZE = 0xc00
                0x0000000000008c00                SRAM_SPINOR_RCODE_ADDR = 0x8c00
                0x0000000000000400                SRAM_SPINOR_RCODE_SIZE = 0x400
                0x0000000000009000                SRAM_BANK_A_ADDR = 0x9000
                0x0000000000000400                SRAM_BANK_A_SIZE = 0x400
                0x0000000000009400                SRAM_BANK_B_ADDR = 0x9400
                0x0000000000000800                SRAM_BANK_B_SIZE = 0x800
                0x0000000000009c00                SRAM_UI_RCODE_ADDR = 0x9c00
                0x0000000000000300                SRAM_UI_RCODE_SIZE = 0x300
                0x0000000000009f00                SRAM_AUDIO_GLOBAL_DATA_ADDR = 0x9f00
                0x0000000000000060                SRAM_AUDIO_GLOBAL_DATA_SIZE = 0x60
                0x0000000000009f60                SRAM_UHOST_GLOBAL_DATA_ADDR = 0x9f60
                0x0000000000000010                SRAM_UHOST_GLOBAL_DATA_SIZE = 0x10
                0x0000000000009f70                SRAM_CARD_GLOBAL_DATA_ADDR = 0x9f70
                0x0000000000000010                SRAM_CARD_GLOBAL_DATA_SIZE = 0x10
                0x0000000000009f80                SRAM_SYS_SHARE_DATA_ADDR = 0x9f80
                0x0000000000000040                SRAM_SYS_SHARE_DATA_SIZE = 0x40
                0x0000000000009fc0                SRAM_RAM6_CCD_GLOBAL_DATA_ADDR = 0x9fc0
                0x0000000000000040                SRAM_RAM6_CCD_GLOBAL_DATA_SIZE = 0x40
                0x000000000000a000                SRAM_BT_LIB1_BANK_ADDR = 0xa000
                0x0000000000000800                SRAM_BT_LIB1_BANK_SIZE = 0x800
                0x000000000000a800                SRAM_BT_EXT1_BANK_ADDR = (SRAM_BT_LIB1_BANK_ADDR + SRAM_BT_LIB1_BANK_SIZE)
                0x0000000000000800                SRAM_BT_EXT1_BANK_SIZE = 0x800
                0x000000000000b000                SRAM_BT_EXT2_BANK_ADDR = (SRAM_BT_EXT1_BANK_ADDR + SRAM_BT_EXT1_BANK_SIZE)
                0x0000000000000800                SRAM_BT_EXT2_BANK_SIZE = 0x800
                0x000000000000f000                SRAM_BT_STACK_RCODE1_ADDR = 0xf000
                0x0000000000000a00                SRAM_BT_STACK_RCODE1_SIZE = 0xa00
                0x000000000000b000                SRAM_AP_BANK_MANAGER_ADDR = SRAM_BT_EXT2_BANK_ADDR
                0x0000000000000800                SRAM_AP_BANK_MANAGER_SIZE = SRAM_BT_EXT2_BANK_SIZE
                0x000000000000be00                SRAM_KEY_MESSAGE_DATA_ADDR = 0xbe00
                0x0000000000000100                SRAM_KEY_MESSAGE_DATA_SIZE = 0x100
                0x000000000000bf00                SRAM_UI_DATA_ADDR = 0xbf00
                0x0000000000000100                SRAM_UI_DATA_SIZE = 0x100
                0x0000000000010000                SRAM_BT_CONTROLLER_RCODE_ADDR = 0x10000
                0x0000000000000500                SRAM_BT_CONTROLLER_RCODE_SIZE = 0x500
                0x0000000000010500                SRAM_COMMON_BT_MANAGER_RCODE = (SRAM_BT_CONTROLLER_RCODE_ADDR + SRAM_BT_CONTROLLER_RCODE_SIZE)
                0x0000000000000b00                SRAM_COMMON_BT_MANAGER_SIZE = 0xb00
                0x0000000000011000                SRAM_BT_BACK_RCODE_ADDR = (SRAM_COMMON_BT_MANAGER_RCODE + SRAM_COMMON_BT_MANAGER_SIZE)
                0x0000000000002900                SRAM_BT_BACK_RCODE_SIZE = 0x2900
                0x00000000000140d0                SRAM_IRQ_PRINT_BUFFER_ADDR = 0x140d0
                0x0000000000000130                SRAM_IRQ_PRINT_BUFFER_SIZE = 0x130
                0x0000000000013900                SRAM_BT_LIB2_BANK_ADDR = 0x13900
                0x0000000000000d00                SRAM_BT_LIB2_BANK_SIZE = 0xd00
                0x0000000000013900                SRAM_BT_EXT3_BANK_ADDR = SRAM_BT_LIB2_BANK_ADDR
                0x0000000000000d00                SRAM_BT_EXT3_BANK_SIZE = SRAM_BT_LIB2_BANK_SIZE
                0x0000000000021e00                SRAM_BT_EXT4_BANK_ADDR = 0x21e00
                0x0000000000000600                SRAM_BT_EXT4_BANK_SIZE = 0x600
                0x0000000000014600                SRAM_BT_EXT5_BANK_ADDR = 0x14600
                0x0000000000000600                SRAM_BT_EXT5_BANK_SIZE = 0x600
                0x000000000000fa00                SRAM_COM_DAE_RCODE_ADDR = 0xfa00
                0x0000000000000100                SRAM_COM_DAE_RCODE_SIZE = 0x100
                0x000000000000fb00                SRAM_BTCALL_EXT_RCODE_ADDR = 0xfb00
                0x0000000000000100                SRAM_BTCALL_EXT_RCODE_SIZE = 0x100
                0x000000000001e900                SRAM_AP_FRONT_RCODE_ADDR = 0x1e900
                0x0000000000000800                SRAM_AP_FRONT_RCODE_SIZE = 0x800
                0x0000000000016c00                SRAM_FS_RCODE_ADDR = 0x16c00
                0x0000000000000800                SRAM_FS_RCODE_SIZE = 0x800
                0x0000000000017400                SRAM_CARD_UD_RCODE_ADDR = 0x17400
                0x0000000000000c00                SRAM_CARD_UD_RCODE_SIZE = 0xc00
                0x0000000000017400                SRAM_UHOST_UD_RCODE_ADDR = SRAM_CARD_UD_RCODE_ADDR
                0x0000000000000c00                SRAM_UHOST_UD_RCODE_SIZE = SRAM_CARD_UD_RCODE_SIZE
                0x0000000000016c00                SRAM_USOUND_RCODE_ADDR = 0x16c00
                0x0000000000002800                SRAM_USOUND_RCODE_SIZE = 0x2800
                0x0000000000016c00                SRAM_BTSTACK_AVDTP_DATA_ADDR = 0x16c00
                0x0000000000002980                SRAM_BTSTACK_AVDTP_DATA_SIZE = 0x2980
                0x0000000000016c00                SRAM_BTCALL_CALLRING_BUF_ADDR = 0x16c00
                0x0000000000001000                SRAM_BTCALL_CALLRING_BUF_SIZE = 0x1000
                0x0000000000016c00                SRAM_BTCALL_ASQT_BUF_ADDR = 0x16c00
                0x0000000000002800                SRAM_BTCALL_ASQT_BUF_SIZE = 0x2800
                0x0000000000018000                SRAM_FS_DATA_ADDR = 0x18000
                0x0000000000000300                SRAM_FS_DATA_SIZE = 0x300
                0x0000000000018300                SRAM_FS_BUF_ADDR = 0x18300
                0x0000000000000a00                SRAM_FS_BUF_SIZE = 0xa00
                0x0000000000018d00                SRAM_CARD_UD_CACHE_ADDR = 0x18d00
                0x0000000000000800                SRAM_CARD_UD_CACHE_SIZE = 0x800
                0x0000000000018d00                SRAM_UHOST_UD_CACHE_ADDR = SRAM_CARD_UD_CACHE_ADDR
                0x0000000000000800                SRAM_UHOST_UD_CACHE_SIZE = SRAM_CARD_UD_CACHE_SIZE
                0x0000000000019500                SRAM_CARD_DATA_ADDR = 0x19500
                0x0000000000000080                SRAM_CARD_DATA_SIZE = 0x80
                0x0000000000019500                SRAM_UHOST_DATA_ADDR = SRAM_CARD_DATA_ADDR
                0x0000000000000080                SRAM_UHOST_DATA_SIZE = SRAM_CARD_DATA_SIZE
                0x0000000000019580                SRAM_AP_BACK_DATA_ADDR = 0x19580
                0x0000000000000400                SRAM_AP_BACK_DATA_SIZE = 0x400
                0x0000000000019980                SRAM_AP_FRONT_DATA_ADDR = 0x19980
                0x0000000000000700                SRAM_AP_FRONT_DATA_SIZE = 0x700
                0x000000000001a080                SRAM_APPLIB_GLOBAL_DATA_ADDR = 0x1a080
                0x0000000000000040                SRAM_APPLIB_GLOBAL_DATA_SIZE = 0x40
                0x000000000001a0c0                SRAM_APPLIB_DATA_ADDR = 0x1a0c0
                0x0000000000000200                SRAM_APPLIB_DATA_SIZE = 0x200
                0x000000000001a2c0                SRAM_BTMANAGER_DATA_ADDR = 0x1a2c0
                0x0000000000000140                SRAM_BTMANAGER_DATA_SIZE = 0x140
                0x000000000001a400                SRAM_OS_DATA_ADDR = 0x1a400
                0x0000000000000880                SRAM_OS_DATA_SIZE = 0x880
                0x000000000001ac80                SRAM_OS_HEAP_ADDR = 0x1ac80
                0x0000000000000680                SRAM_OS_HEAP_SIZE = 0x680
                0x000000000001b300                SRAM_AP_MANAGER_RCODE_ADDR = 0x1b300
                0x0000000000000100                SRAM_AP_MANAGER_RCODE_SIZE = 0x100
                0x000000000001b400                SRAM_OS_SD_SWAP_BUF_ADDR = 0x1b400
                0x0000000000000200                SRAM_OS_SD_SWAP_BUF_SIZE = 0x200
                0x000000000001b600                SRAM_OS_TASK_STACK_ADDR = 0x1b600
                0x0000000000001e00                SRAM_OS_TASK_STACK_SIZE = 0x1e00
                0x000000000001d500                SRAM_BANK_C_ADDR = 0x1d500
                0x0000000000000400                SRAM_BANK_C_SIZE = 0x400
                0x000000000001d900                SRAM_BT_HCI_BUF_ADDR = 0x1d900
                0x0000000000001000                SRAM_BT_HCI_BUF_SIZE = 0x1000
                0x0000000000016400                SRAM_BT_UART_BUF_ADDR = 0x16400
                0x0000000000000800                SRAM_BT_UART_BUF_SIZE = 0x800
                0x000000000001f100                SRAM_BT_RCODE_DATA_ADDR = 0x1f100
                0x0000000000000700                SRAM_BT_RCODE_DATA_SIZE = 0x700
                0x000000000001f800                SRAM_KEY_MESSAGE_RCODE_ADDR = 0x1f800
                0x0000000000000800                SRAM_KEY_MESSAGE_RCODE_SIZE = 0x800
                0x0000000000020000                SRAM_DSP_IRQ_TABLE_ADDR = 0x20000
                0x0000000000000120                SRAM_DSP_IRQ_TABLE_SIZE = 0x120
                0x0000000000020120                SRAM_RAM2_RESEVER_ADDR = 0x20120
                0x00000000000000e0                SRAM_RAM2_RESEVER_SIZE = 0xe0
                0x0000000000020200                SRAM_AP_BANK_FRONT_CONTROL_ADDR = 0x20200
                0x0000000000000800                SRAM_AP_BANK_FRONT_CONTROL_SIZE = 0x800
                0x0000000000020a00                SRAM_KERNEL_XSYS_ADDR = 0x20a00
                0x0000000000000e00                SRAM_KERNEL_XSYS_SIZE = 0xe00
                0x0000000000021800                SRAM_AP_BACK_BASAL_RCODE_ADDR = 0x21800
                0x0000000000000600                SRAM_AP_BACK_BASAL_RCODE_SIZE = 0x600
                0x0000000000021e00                SRAM_AP_BANK_BACK_BASAL_ADDR = 0x21e00
                0x0000000000000600                SRAM_AP_BANK_BACK_BASAL_SIZE = 0x600
                0x0000000000022400                SRAM_BT_HEAD_ADDR = 0x22400
                0x0000000000003400                SRAM_BT_HEAD_SIZE = 0x3400
                0x0000000000025000                SRAM_UART_STUB_RCODE_ADDR = 0x25000
                0x0000000000000800                SRAM_UART_STUB_RCODE_SIZE = 0x800
                0x0000000000027e00                SRAM_AP_FRONT_BASAL_RCODE_ADDR = 0x27e00
                0x0000000000000400                SRAM_AP_FRONT_BASAL_RCODE_SIZE = 0x400
                0x000000000000b000                SRAM_AP_BANK_FRONT_BASAL_ADDR = 0xb000
                0x0000000000000800                SRAM_AP_BANK_FRONT_BASAL_SIZE = 0x800
                0x0000000000025800                SRAM_AP_BANK_FRONT_UI_ADDR = 0x25800
                0x0000000000000800                SRAM_AP_BANK_FRONT_UI_SIZE = 0x800
                0x0000000000026000                SRAM_AP_RCP_COMMAND_BUFFER_ADDR = 0x26000
                0x0000000000000220                SRAM_AP_RCP_COMMAND_BUFFER_SIZE = 0x220
                0x0000000000026000                SRAM_AP_BACK_RCODE_ADDR = 0x26000
                0x0000000000000800                SRAM_AP_BACK_RCODE_SIZE = 0x800
                0x0000000000026800                SRAM_AP_BANK_BACK_CONTROL_ADDR = 0x26800
                0x0000000000000800                SRAM_AP_BANK_BACK_CONTROL_SIZE = 0x800
                0x0000000000027000                SRAM_RAM2_RESEVER2_ADDR = 0x27000
                0x0000000000000e00                SRAM_RAM2_RESEVER2_SIZE = 0xe00
                0x0000000000027e00                SRAM_BTPLAY_MMM_RCODE2_ADDR = 0x27e00
                0x0000000000000e00                SRAM_BTPLAY_MMM_RCODE2_SIZE = 0xe00
                0x0000000000028c00                SRAM_BTPLAY_SWAP_BUFFER_ADDR = 0x28c00
                0x0000000000000400                SRAM_BTPLAY_SWAP_BUFFER_SIZE = 0x400
                0x0000000000028200                SRAM_AP_BACK_CODEC_RCODE_ADDR = 0x28200
                0x0000000000000a00                SRAM_AP_BACK_CODEC_RCODE_SIZE = 0xa00
                0x0000000000028c00                SRAM_AP_BANK_BACK_CODEC_ADDR = 0x28c00
                0x0000000000000400                SRAM_AP_BANK_BACK_CODEC_SIZE = 0x400
                0x0000000000029000                SRAM_AP_BACK_AL_RCODE_1_ADDR = 0x29000
                0x0000000000007000                SRAM_AP_BACK_AL_RCODE_1_SIZE = 0x7000
                0x000000000002e000                SRAM_AP_BANK_BACK_AL_4_ADDR = 0x2e000
                0x0000000000002000                SRAM_AP_BANK_BACK_AL_4_SIZE = 0x2000
                0x0000000000030000                SRAM_AP_BANK_BACK_AL_1_ADDR = 0x30000
                0x0000000000004000                SRAM_AP_BANK_BACK_AL_1_SIZE = 0x4000
                0x0000000000034000                SRAM_AP_BACK_AL_RCODE_2_ADDR = 0x34000
                0x0000000000002000                SRAM_AP_BACK_AL_RCODE_2_SIZE = 0x2000
                0x0000000000036000                SRAM_AP_BANK_BACK_AL_2_ADDR = 0x36000
                0x0000000000002000                SRAM_AP_BANK_BACK_AL_2_SIZE = 0x2000
                0x0000000000038000                SRAM_AP_BANK_BACK_AL_3_ADDR = 0x38000
                0x0000000000004000                SRAM_AP_BANK_BACK_AL_3_SIZE = 0x4000
                0x000000000000e000                SRAM_ASRC_BUF_0_ADDR = 0xe000
                0x0000000000000e00                SRAM_ASRC_BUF_0_SIZE = 0xe00
                0x000000000000f000                SRAM_ASRC_BUF_1_ADDR = 0xf000
                0x0000000000000c00                SRAM_ASRC_BUF_1_SIZE = 0xc00
                0x000000000000fc00                SRAM_CARD_BUF_0_ADDR = 0xfc00
                0x0000000000000200                SRAM_CARD_BUF_0_SIZE = 0x200
                0x000000000000fe00                SRAM_CARD_BUF_1_ADDR = 0xfe00
                0x0000000000000200                SRAM_CARD_BUF_1_SIZE = 0x200
                0x000000000000fc00                SRAM_CARD_FIFO_ADDR = SRAM_CARD_BUF_0_ADDR
                0x0000000000000400                SRAM_CARD_FIFO_SIZE = (SRAM_CARD_BUF_0_SIZE + SRAM_CARD_BUF_1_SIZE)
                0x000000000003c000                SRAM_PCMRAM_0_ADDR = 0x3c000
                0x0000000000001000                SRAM_PCMRAM_0_SIZE = 0x1000
                0x000000000003d000                SRAM_PCMRAM_1_ADDR = 0x3d000
                0x0000000000001000                SRAM_PCMRAM_1_SIZE = 0x1000
                0x000000000003e000                SRAM_PCMRAM_2_ADDR = 0x3e000
                0x0000000000001000                SRAM_PCMRAM_2_SIZE = 0x1000
                0x000000000003c000                SRAM_PCMRAM_H5_FIFO_ADDR = SRAM_PCMRAM_0_ADDR
                0x0000000000001000                SRAM_PCMRAM_H5_FIFO_SIZE = SRAM_PCMRAM_0_SIZE
                0x000000000003d000                SRAM_PCMRAM_PCMFIFO_ADDR = SRAM_PCMRAM_1_ADDR
                0x0000000000002000                SRAM_PCMRAM_FIFO_SIZE = (SRAM_PCMRAM_1_SIZE + SRAM_PCMRAM_2_SIZE)
                0x000000000003f000                SRAM_URAM_0_ADDR = 0x3f000
                0x0000000000000800                SRAM_URAM_0_SIZE = 0x800
                0x000000000003f800                SRAM_URAM_1_ADDR = 0x3f800
                0x0000000000000800                SRAM_URAM_1_SIZE = 0x800
                0x000000000003f000                SRAM_URAM_UDISK_FIFO_ADDR = SRAM_URAM_0_ADDR
                0x0000000000001000                SRAM_URAM_UDISK_FIFO_SIZE = (SRAM_URAM_0_SIZE + SRAM_URAM_1_SIZE)
                0x000000000003f800                SRAM_URAM_UHOST_FIFO_ADDR = SRAM_URAM_1_ADDR
                0x0000000000000800                SRAM_URAM_UHOST_FIFO_SIZE = SRAM_URAM_1_SIZE
                0x0000000000026800                SRAM_AP_BANK_FRONT_ENHANCED_1_ADDR = SRAM_AP_BANK_BACK_CONTROL_ADDR
                0x0000000000000800                SRAM_AP_BANK_FRONT_ENHANCED_1_SIZE = 0x800
                0x0000000000000000                SRAM_AP_BANK_FRONT_ENHANCED_2_ADDR = 0x0
                0x0000000000000000                SRAM_AP_BANK_FRONT_ENHANCED_2_SIZE = 0x0
                0x0000000000021e00                SRAM_AP_BANK_BACK_ENHANCED_1_ADDR = SRAM_AP_BANK_BACK_BASAL_ADDR
                0x0000000000000600                SRAM_AP_BANK_BACK_ENHANCED_1_SIZE = SRAM_AP_BANK_BACK_BASAL_SIZE
                0x0000000000028a00                SRAM_AP_BANK_BACK_ENHANCED_2_ADDR = 0x28a00
                0x0000000000000600                SRAM_AP_BANK_BACK_ENHANCED_2_SIZE = 0x600
                0x0000000000000000                SRAM_AP_BANK_FRONT_CODEC_ADDR = 0x0
                0x0000000000000000                SRAM_AP_BANK_FRONT_CODEC_SIZE = 0x0
                0x000000000003b800                SRAM_TTS_DRV_RCODE_ADDR = 0x3b800
                0x0000000000000800                SRAM_TTS_DRV_RCODE_SIZE = 0x800
                0x0000000000019580                SRAM_FM_ENG_RDATA_ADDR = SRAM_AP_BACK_DATA_ADDR
                0x0000000000000200                SRAM_FM_ENG_RDATA_SIZE = 0x200
                0x0000000000016c00                SRAM_FM_DRV_RCODE_ADDR = SRAM_FS_RCODE_ADDR
                0x0000000000000800                SRAM_FM_DRV_RCODE_SIZE = 0x800
                0x0000000000019780                SRAM_FM_DRV_RDATA_ADDR = (SRAM_FM_ENG_RDATA_ADDR + SRAM_FM_ENG_RDATA_SIZE)
                0x0000000000000200                SRAM_FM_DRV_RDATA_SIZE = (SRAM_AP_BACK_DATA_SIZE - SRAM_FM_ENG_RDATA_SIZE)
                0x0000000000021800                SRAM_AP_USB_DEVICE_RCODE_ADDR = 0x21800
                0x0000000000004000                SRAM_AP_USB_DEVICE_RCODE_SIZE = SRAM_AP_BANK_BACK_AL_1_SIZE
                0x0000000000040000                SRAM_INVALID_RCODE_ADDR = 0x40000
                0x0000000000000001                AP_INDEX = BACK_AP
                0x0000000000026000                SRAM_TEXT_ADDR = SRAM_AP_BACK_RCODE_ADDR
                0x0000000000019580                SRAM_DATA_ADDR = SRAM_AP_BACK_DATA_ADDR
                0x00000000bfc26000                RCODE_TEXT_ADDR = (RCODE_ADDR_BASE + SRAM_TEXT_ADDR)
                0x0000000000000800                RCODE_SIZE = SRAM_AP_BACK_RCODE_SIZE
                0x000000009fc19580                RDATA_DATA_ADDR = (RDATA_ADDR_BASE + SRAM_DATA_ADDR)
                0x0000000000000400                DATA_BSS_SIZE = SRAM_AP_BACK_DATA_SIZE
                0x000000009fc16c00                CALLRING_BUF_ADDR = (RDATA_ADDR_BASE + SRAM_BTCALL_CALLRING_BUF_ADDR)
                0x0000000000001000                CALLRING_BUF_SIZE = SRAM_BTCALL_CALLRING_BUF_SIZE
                0x00000000bfc16c00                ASQT_TEST_BUF_ADDR = (RCODE_ADDR_BASE + SRAM_BTCALL_ASQT_BUF_ADDR)
                0x0000000000002800                ASQT_TEST_BUF_SIZE = SRAM_BTCALL_ASQT_BUF_SIZE
                0x0000000060026800                BANK_CONTROL_1_ADDR_BASE = ((AP_BANK_BACK_CONTROL_1 << 0x18) + SRAM_AP_BANK_BACK_CONTROL_ADDR)
                0x000000007a021e00                BANK_ENHANCED_1_ADDR_BASE = ((AP_BANK_BACK_ENHANCED_1 << 0x18) + SRAM_AP_BANK_BACK_ENHANCED_1_ADDR)
                0x000000007b021e00                BANK_ENHANCED_2_ADDR_BASE = ((AP_BANK_BACK_ENHANCED_2 << 0x18) + SRAM_AP_BANK_BACK_ENHANCED_1_ADDR)
                0x0000000000000800                BANK_CONTROL_SIZE = SRAM_AP_BANK_BACK_CONTROL_SIZE
                0x0000000000000800                //BANK_UI_SIZE = SRAM_AP_BANK_FRONT_UI_SIZE
                0x0000000000000600                BANK_ENHANCED1_SIZE = SRAM_AP_BANK_BACK_ENHANCED_1_SIZE
                0x0000000000000600                BANK_ENHANCED2_SIZE = SRAM_AP_BANK_BACK_ENHANCED_2_SIZE
                0x0000000000040000                AP_BANK_SPACE = BANK_SPACE
                0x000000009fc16c00                . = CALLRING_BUF_ADDR

CALLRING_BUF    0x000000009fc16c00     0x1000
 btcall_eg_global_var.o(.bss.callring_dac)
 .bss.callring_dac
                0x000000009fc16c00      0x800 ./obj/btcall_eg_global_var.o
                0x000000009fc16c00                g_btcall_callring_dac_buf
 btcall_eg_global_var.o(.bss.callring_read)
 .bss.callring_read
                0x000000009fc17400      0x400 ./obj/btcall_eg_global_var.o
                0x000000009fc17400                g_btcall_callring_read_buf
                0x0000000000001000                . = CALLRING_BUF_SIZE
 *fill*         0x000000009fc17800      0x400 00
 *fill*         0x000000009fc17c00        0x0 00
                0x00000000bfc16c00                . = ASQT_TEST_BUF_ADDR

ASQT_TEST_BUF   0x00000000bfc16c00     0x2800
 btcall_eg_global_var.o(.bss.asqt_test_mem)
 .bss.asqt_test_mem
                0x00000000bfc16c00     0x27fc ./obj/btcall_eg_global_var.o
                0x00000000bfc16c00                g_btcall_asqt_test_buf
                0x0000000000002800                . = ASQT_TEST_BUF_SIZE
 *fill*         0x00000000bfc193fc        0x4 00
 *fill*         0x00000000bfc19400        0x0 00

.text           0x00000000bfc26000      0x744
 audio_device_op_entry.o(.text)
 .text          0x00000000bfc26000        0x4 ./../../../psp_rel/lib/audio_device_op_entry.o
                0x00000000bfc26001                audio_device_op_entry
 libc_op_entry.o(.text)
 .text          0x00000000bfc26004        0x4 ./../../../psp_rel/lib/libc_op_entry.o
                0x00000000bfc26005                libc_op_entry
 sys_op_entry.o(.text)
 .text          0x00000000bfc26008        0x4 ./../../../psp_rel/lib/sys_op_entry.o
                0x00000000bfc26009                sys_op_entry
 base_op_entry.o(.text)
 .text          0x00000000bfc2600c        0x4 ./../../../psp_rel/lib/base_op_entry.o
                0x00000000bfc2600d                base_op_entry
 key_op_entry.o(.text)
 .text          0x00000000bfc26010        0x4 ./../../../psp_rel/lib/key_op_entry.o
                0x00000000bfc26011                key_op_entry
 mmm_hfp_cmd.o(.text)
 .text          0x00000000bfc26014        0x4 ./../../../psp_rel/lib/mmm_hfp_cmd.o
                0x00000000bfc26015                mmm_hfp_cmd
 stub_mod_cmd.o(.text)
 .text          0x00000000bfc26018        0x4 ./../../../psp_rel/lib/stub_mod_cmd.o
                0x00000000bfc26019                stub_mod_cmd
 btcall_eg_message_loop.o(.text)
 .text          0x00000000bfc2601c      0x3a0 ./obj/btcall_eg_message_loop.o
                0x00000000bfc2601d                btcall_deal_app_msg
                0x00000000bfc26101                bt_stack_status
                0x00000000bfc261fd                get_message_loop
                0x00000000bfc26059                deal_callin
 btcall_eg_sco_connect.o(.rodata)
 app_timer_rcode_for_engine.o(.text)
 .text          0x00000000bfc263bc       0xfc ./../../lib/app_timer_rcode_for_engine.o
                0x00000000bfc263bd                handle_timers
 message_rcode_for_engine.o(.text)
 .text          0x00000000bfc264b8       0x40 ./../../lib/message_rcode_for_engine.o
                0x00000000bfc264b9                get_app_msg
 btcall_eg_audio_config.o(.text.dma_dac_start_transfer)
 .text.dma_dac_start_transfer
                0x00000000bfc264f8       0x48 ./obj/btcall_eg_audio_config.o
                0x00000000bfc264f9                dma_dac_start_transfer
 btcall_eg_message_loop.o(.bank)
 btcall_eg_message_handle.o(.rodata)
 btcall_eg_stub_asqt.o(.rcode)
 .rcode         0x00000000bfc26540      0x1cc ./obj/btcall_eg_stub_asqt.o
                0x00000000bfc26675                stub_asqt_tools_status
                0x00000000bfc2659d                update_asqt_para
                0x00000000bfc26541                get_asqt_peq_para_from_pc
                0x00000000bfc265c5                task_timer10ms
 btcall_eg_callring.o(.text.irq)
 .text.irq      0x00000000bfc2670c       0x38 ./obj/btcall_eg_callring.o
                0x00000000bfc2670d                ring_dma_isr

.data           0x000000009fc19580        0x8 load address 0x00000000bfc26744
                0x000000009fc19584                . = 0x4
 *fill*         0x000000009fc19580        0x4 00
 *fill*         0x000000009fc19584        0x0 00
 btcall_eg_main.o(.data .data.*)
 btcall_eg_global_var.o(.data .data.*)
 btcall_eg_message_loop.o(.data .data.*)
 .data          0x000000009fc19584        0x2 ./obj/btcall_eg_message_loop.o
 btcall_eg_message_handle.o(.data .data.*)
 *.o(.data)
 .data          0x000000009fc19586        0x2 ./obj/btcall_eg_stub_asqt.o
                0x000000009fc19586                g_stub_task_timer_id
 *.o(.data.*)

.bss            0x000000009fc19588      0x298
 applib_app_data.o(.bss)
 .bss           0x000000009fc19588       0x1c ./../../lib/applib_app_data.o
                0x000000009fc19594                g_app_timer_id
                0x000000009fc19590                g_app_timer_vector
                0x000000009fc195a0                g_app_timer_count
                0x000000009fc19598                g_this_app_info
                0x000000009fc1959c                thread_mutex
                0x000000009fc19588                g_this_gui_msg_hook
                0x000000009fc1958c                g_this_app_msg_hook
                0x000000009fc19595                g_this_app_timer_tag
 btcall_eg_main.o(.bss .bss.*)
 .bss           0x000000009fc195a4       0xa8 ./obj/btcall_eg_main.o
                0x000000009fc195ac                btcall_timer_vector
                0x000000009fc195a4                g_agc_aec_shm_ptr
                0x000000009fc195cc                g_dsp_m4k_share_mem
                0x000000009fc195a8                g_stub_tools_type
 btcall_eg_global_var.o(.bss .bss.*)
 .bss           0x000000009fc1964c       0x34 ./obj/btcall_eg_global_var.o
                0x000000009fc1967c                g_p_btcall_info
                0x000000009fc19660                g_callring_data
                0x000000009fc1965c                mp_handle
                0x000000009fc1964c                btcall_gl_var
                0x000000009fc19674                g_btcall_info
                0x000000009fc19670                g_p_bt_stack_cur_info
 btcall_eg_message_handle.o(.bss .bss.*)
 *.o(.bss)
 .bss           0x000000009fc19680      0x19c ./obj/btcall_eg_stub_asqt.o
                0x000000009fc196a0                g_dsp_init_parm
                0x000000009fc1969c                g_p_share_mem
                0x000000009fc19680                g_real_call_mode
                0x000000009fc19814                asqt_peq_addr
                0x000000009fc19720                g_asqt_parm
                0x000000009fc19698                g_pAsqtRam
 .bss           0x000000009fc1981c        0x3 ./obj/btcall_eg_callring.o
                0x000000009fc1981e                g_ff_flag
                0x000000009fc1981c                g_irq_cnt
                0x000000009fc1981d                g_hf_flag
 .bss           0x000000009fc1981f        0x1 ./obj/btcall_eg_stub_asqt_init.o
 *.o(.bss.*)
 *(.sbss)
 *(.common)
 *(common)
                0x0000000060026800                . = BANK_CONTROL_1_ADDR_BASE
                0x0000000000026800                OFFSET = (. & 0x3ffff)

BANK_CONTROL_1_0
                0x0000000060026800       0xcc
 ctor.o(.text .rodata)
 .text          0x0000000060026800       0xcc ./../../../psp_rel/lib/ctor.o
                0x0000000060026801                process_start
                0x0000000060026831                __start
                0x0000000060066800                . = (((. + AP_BANK_SPACE) & ~ ((AP_BANK_SPACE - 0x1))) + OFFSET)

BANK_CONTROL_1_1
                0x0000000060066800      0x468
 btcall_eg_main.o(.text .rodata)
 .text          0x0000000060066800      0x468 ./obj/btcall_eg_main.o
                0x0000000060066801                actaec_init_sv_prms
                0x0000000060066c29                main
                0x000000006006690d                actaec_init_sv_prms_from_VM
                0x00000000600a6800                . = (((. + AP_BANK_SPACE) & ~ ((AP_BANK_SPACE - 0x1))) + OFFSET)

BANK_CONTROL_1_2
                0x00000000600a6800      0x3d8
 btcall_eg_message_handle.o(.text .rodata)
 .text          0x00000000600a6800      0x3d8 ./obj/btcall_eg_message_handle.o
                0x00000000600a6801                force_hfp_to_phone
                0x00000000600a6995                app_message_deal
                0x00000000600a68ad                btcall_enter_pb_tts_play
                0x00000000600a6919                btcall_exit_pb_tts_play
                0x00000000600a6981                app_msg_deal_app_quit
                0x00000000600a6869                force_quit_thread
                0x00000000600a6955                btcall_reply_msg
                0x00000000600e6800                . = (((. + AP_BANK_SPACE) & ~ ((AP_BANK_SPACE - 0x1))) + OFFSET)

BANK_CONTROL_1_3
                0x00000000600e6800      0x50c
 btcall_eg_callring.o(.text .rodata)
 .text          0x00000000600e6800      0x474 ./obj/btcall_eg_callring.o
                0x00000000600e6855                callring_frame
                0x00000000600e6801                memcpy_dual_callring
                0x00000000600e6939                callring_start
                0x00000000600e6a15                callring_thread_handle
 btcall_eg_audio_config.o(.text)
 .text          0x00000000600e6c74       0x98 ./obj/btcall_eg_audio_config.o
                0x00000000600e6c75                callring_dac_dma_config
                0x0000000060126800                . = (((. + AP_BANK_SPACE) & ~ ((AP_BANK_SPACE - 0x1))) + OFFSET)

BANK_CONTROL_1_4
                0x0000000060126800      0x420
 btcall_eg_sco_connect.o(.text .rodata)
 .text          0x0000000060126800      0x420 ./obj/btcall_eg_sco_connect.o
                0x0000000060126c09                bt_engine_hfp_sco_disconnect_ind_handle
                0x00000000601268b9                btcalleg_load_hfp_mmm
                0x0000000060126b01                btcalleg_free_hfp_mmm
                0x0000000060126ba1                bt_engine_hfp_sco_connect_ind_handle
                0x0000000060166800                . = (((. + AP_BANK_SPACE) & ~ ((AP_BANK_SPACE - 0x1))) + OFFSET)

BANK_CONTROL_1_5
                0x0000000060166800      0x79c
 btcall_eg_stub_asqt_init.o(.text .rodata)
 .text          0x0000000060166800      0x73c ./obj/btcall_eg_stub_asqt_init.o
                0x0000000060166b7d                stub_asqt_down_param
                0x0000000060166801                show_dat
                0x000000006016691d                get_bt_air_len
                0x0000000060166dbd                btcall_eg_asqt_deal
                0x0000000060166f21                get_stub_type
                0x0000000060166935                asqt_set_dsp_init_parm
                0x0000000060166869                init_m4k_dsp_ctl
                0x0000000060166b19                reset_dsp
                0x0000000060166c29                reset_aec_asqt
                0x0000000060166ccd                set_asrc_cpu_clk
                0x0000000060166d1d                deal_load_simu_mmm
                0x0000000060166a5d                copy_dsp_aec_parm
                0x0000000060166d45                asqt_init
                0x0000000060166859                init_asqt_fifo
                0x0000000060166b5d                stub_asqt_send_end
 .rodata        0x0000000060166f3c       0x60 ./obj/btcall_eg_stub_asqt_init.o
                0x0000000060166f3c                dsp_init_set
                0x00000000601a6800                . = (((. + AP_BANK_SPACE) & ~ ((AP_BANK_SPACE - 0x1))) + OFFSET)

BANK_CONTROL_1_6
                0x00000000601a6800      0x7d8
 btcall_eg_stub_asqt.o(.text .rodata)
 .text          0x00000000601a6800      0x7d8 ./obj/btcall_eg_stub_asqt.o
                0x00000000601a6d01                asqt_get_result_and_send
                0x00000000601a6e79                real_call_mode_deal
                0x00000000601a6881                asqt_read_fifo
                0x00000000601a6b4d                stub_asqt_send_result_ext
                0x00000000601a6909                push_to_fifo
                0x00000000601a6a6d                stub_asqt_get_parameter
                0x00000000601a6bc9                stub_asqt_send_result_merger
                0x00000000601a6b2d                stub_asqt_send_remote_phone_volce
                0x00000000601a6c6d                stub_asqt_send_result
                0x00000000601a68e5                get_asqt_frame_addr
                0x00000000601a6a51                stub_asqt_get_status
                0x00000000601a6ae9                stub_asqt_get_remote_voice
                0x00000000601a6941                send_data_to_asrc
                0x00000000601a6801                asqt_write_fifo
                0x00000000601a6a1d                stub_asqt_read_data
                0x00000000601a6f55                simu_call_mode_deal
                0x00000000601a6a35                stub_asqt_get_volums
                0x00000000601a69ad                stub_asqt_write_data
LOAD ./../common/common_engine.xn
LOAD ./../../../psp_rel/include/link_base.xn
                0x0000000000000000                DRV_GROUP_STG_BASE = 0x0
                0x0000000000000001                DRV_GROUP_STG_CARD = 0x1
                0x0000000000000002                DRV_GROUP_STG_UHOST = 0x2
                0x0000000000000003                DRV_GROUP_FAT32 = 0x3
                0x0000000000000004                DRV_GROUP_EXFAT = 0x4
                0x0000000000000005                DRV_GROUP_UD = 0x5
                0x0000000000000006                DRV_GROUP_LCD = 0x6
                0x0000000000000007                DRV_GROUP_FM = 0x7
                0x0000000000000008                DRV_GROUP_KEY = 0x8
                0x0000000000000009                DRV_GROUP_CCD = 0x9
                0x000000000000000a                DRV_GROUP_AUDIO_DEVICE = 0xa
                0x000000000000000b                DRV_GROUP_TTS = 0xb
                0x000000000000000c                DRV_GROUP_BT = 0xc
                0x000000000000000f                DRV_GROUP_SYS = 0xf
                0x000000000003ffff                SRAM_SIZE_MASK = 0x3ffff
                0x000000009fc00000                RDATA_ADDR_BASE = 0x9fc00000
                0x00000000bfc00000                RCODE_ADDR_BASE = 0xbfc00000
                0x0000000000000001                KERNEL_BANK_A = 0x1
                0x0000000000000002                KERNEL_BANK_B = 0x2
                0x0000000000000003                KERNEL_BANK_C = 0x3
                0x0000000000040000                BANK_SPACE = 0x40000
                0x0000000000000000                FRONT_AP = 0x0
                0x0000000000000001                BACK_AP = 0x1
                0x0000000000000002                PROCESS_MANAGER_AP = 0x2
                0x0000000000000000                FRONT_CODEC = 0x0
                0x0000000000000001                BACK_CODEC = 0x1
                0x0000000000000040                AP_BANK_FRONT_CONTROL_1 = 0x40
                0x0000000000000048                AP_BANK_FRONT_UI_1 = 0x48
                0x0000000000000050                AP_BANK_FRONT_BASAL = 0x50
                0x0000000000000058                AP_BANK_FRONT_CODEC = 0x58
                0x0000000000000060                AP_BANK_BACK_CONTROL_1 = 0x60
                0x0000000000000068                AP_BANK_BACK_BASAL = 0x68
                0x0000000000000070                AP_BANK_BACK_CODEC = 0x70
                0x0000000000000078                AP_BANK_FRONT_ENHANCED_1 = 0x78
                0x0000000000000071                AP_BANK_FRONT_ENHANCED_2 = 0x71
                0x000000000000007a                AP_BANK_BACK_ENHANCED_1 = 0x7a
                0x000000000000007b                AP_BANK_BACK_ENHANCED_2 = 0x7b
                0x0000000000000072                AP_BANK_BTENGINE_CONTROL_1 = 0x72
                0x0000000000000073                AP_BANK_BTENGINE_LIB_1 = 0x73
                0x0000000000000074                AP_BANK_BTENGINE_LIB_2 = 0x74
                0x0000000000000075                AP_BANK_BTENGINE_EXTEND_1 = 0x75
                0x0000000000000076                AP_BANK_BTENGINE_EXTEND_2 = 0x76
                0x0000000000000077                AP_BANK_BTENGINE_EXTEND_3 = 0x77
                0x000000000000007c                AP_BANK_BTENGINE_EXTEND_4 = 0x7c
                0x0000000000000079                AP_BANK_BTENGINE_EXTEND_5 = 0x79
                0x000000000000007f                AP_BANK_MANAGER = 0x7f
                0x0000000000000041                AP_BANK_AUTOTEST = 0x41
                0x0000000000000000                SROM_BROM_ADDR = 0x0
                0x0000000000002600                SROM_BROM_SIZE = 0x2600
                0x0000000000002600                SROM_SPINOR_ADDR = (SROM_BROM_ADDR + SROM_BROM_SIZE)
                0x0000000000000c00                SROM_SPINOR_SIZE = 0xc00
                0x0000000000003200                SROM_TWI_ADDR = (SROM_SPINOR_ADDR + SROM_SPINOR_SIZE)
                0x0000000000000700                SROM_TWI_SIZE = 0x700
                0x0000000000003900                SROM_STUB_ADDR = (SROM_TWI_ADDR + SROM_TWI_SIZE)
                0x0000000000000700                SROM_STUB_SIZE = 0x700
                0x0000000000000e00                SROM_SPINOR_SIZE_MDY = 0xe00
                0x0000000000003400                SROM_TWI_ADDR_MDY = (SROM_SPINOR_ADDR + SROM_SPINOR_SIZE_MDY)
                0x0000000000000700                SROM_TWI_SIZE_MDY = 0x700
                0x0000000000003b00                SROM_STUB_ADDR_MDY = (SROM_TWI_ADDR_MDY + SROM_TWI_SIZE_MDY)
                0x0000000000000500                SROM_STUB_SIZE_MDY = 0x500
                0x0000000000004000                SROM_KERNEL_ADDR = (SROM_STUB_ADDR + SROM_STUB_SIZE)
                0x0000000000004000                SROM_KERNEL_SIZE = 0x4000
                0x000000000000c000                SROM_FS_ADDR = 0xc000
                0x0000000000001c00                SROM_FS_SIZE = 0x1c00
                0x000000000000dc00                SROM_SPINOR1_ADDR = (SROM_FS_ADDR + SROM_FS_SIZE)
                0x0000000000000400                SROM_SPINOR1_SIZE = 0x400
                0x0000000000008000                SRAM_OS_RCODE_ADDR = 0x8000
                0x0000000000000c00                SRAM_OS_RCODE_SIZE = 0xc00
                0x0000000000008c00                SRAM_SPINOR_RCODE_ADDR = 0x8c00
                0x0000000000000400                SRAM_SPINOR_RCODE_SIZE = 0x400
                0x0000000000009000                SRAM_BANK_A_ADDR = 0x9000
                0x0000000000000400                SRAM_BANK_A_SIZE = 0x400
                0x0000000000009400                SRAM_BANK_B_ADDR = 0x9400
                0x0000000000000800                SRAM_BANK_B_SIZE = 0x800
                0x0000000000009c00                SRAM_UI_RCODE_ADDR = 0x9c00
                0x0000000000000300                SRAM_UI_RCODE_SIZE = 0x300
                0x0000000000009f00                SRAM_AUDIO_GLOBAL_DATA_ADDR = 0x9f00
                0x0000000000000060                SRAM_AUDIO_GLOBAL_DATA_SIZE = 0x60
                0x0000000000009f60                SRAM_UHOST_GLOBAL_DATA_ADDR = 0x9f60
                0x0000000000000010                SRAM_UHOST_GLOBAL_DATA_SIZE = 0x10
                0x0000000000009f70                SRAM_CARD_GLOBAL_DATA_ADDR = 0x9f70
                0x0000000000000010                SRAM_CARD_GLOBAL_DATA_SIZE = 0x10
                0x0000000000009f80                SRAM_SYS_SHARE_DATA_ADDR = 0x9f80
                0x0000000000000040                SRAM_SYS_SHARE_DATA_SIZE = 0x40
                0x0000000000009fc0                SRAM_RAM6_CCD_GLOBAL_DATA_ADDR = 0x9fc0
                0x0000000000000040                SRAM_RAM6_CCD_GLOBAL_DATA_SIZE = 0x40
                0x000000000000a000                SRAM_BT_LIB1_BANK_ADDR = 0xa000
                0x0000000000000800                SRAM_BT_LIB1_BANK_SIZE = 0x800
                0x000000000000a800                SRAM_BT_EXT1_BANK_ADDR = (SRAM_BT_LIB1_BANK_ADDR + SRAM_BT_LIB1_BANK_SIZE)
                0x0000000000000800                SRAM_BT_EXT1_BANK_SIZE = 0x800
                0x000000000000b000                SRAM_BT_EXT2_BANK_ADDR = (SRAM_BT_EXT1_BANK_ADDR + SRAM_BT_EXT1_BANK_SIZE)
                0x0000000000000800                SRAM_BT_EXT2_BANK_SIZE = 0x800
                0x000000000000f000                SRAM_BT_STACK_RCODE1_ADDR = 0xf000
                0x0000000000000a00                SRAM_BT_STACK_RCODE1_SIZE = 0xa00
                0x000000000000b000                SRAM_AP_BANK_MANAGER_ADDR = SRAM_BT_EXT2_BANK_ADDR
                0x0000000000000800                SRAM_AP_BANK_MANAGER_SIZE = SRAM_BT_EXT2_BANK_SIZE
                0x000000000000be00                SRAM_KEY_MESSAGE_DATA_ADDR = 0xbe00
                0x0000000000000100                SRAM_KEY_MESSAGE_DATA_SIZE = 0x100
                0x000000000000bf00                SRAM_UI_DATA_ADDR = 0xbf00
                0x0000000000000100                SRAM_UI_DATA_SIZE = 0x100
                0x0000000000010000                SRAM_BT_CONTROLLER_RCODE_ADDR = 0x10000
                0x0000000000000500                SRAM_BT_CONTROLLER_RCODE_SIZE = 0x500
                0x0000000000010500                SRAM_COMMON_BT_MANAGER_RCODE = (SRAM_BT_CONTROLLER_RCODE_ADDR + SRAM_BT_CONTROLLER_RCODE_SIZE)
                0x0000000000000b00                SRAM_COMMON_BT_MANAGER_SIZE = 0xb00
                0x0000000000011000                SRAM_BT_BACK_RCODE_ADDR = (SRAM_COMMON_BT_MANAGER_RCODE + SRAM_COMMON_BT_MANAGER_SIZE)
                0x0000000000002900                SRAM_BT_BACK_RCODE_SIZE = 0x2900
                0x00000000000140d0                SRAM_IRQ_PRINT_BUFFER_ADDR = 0x140d0
                0x0000000000000130                SRAM_IRQ_PRINT_BUFFER_SIZE = 0x130
                0x0000000000013900                SRAM_BT_LIB2_BANK_ADDR = 0x13900
                0x0000000000000d00                SRAM_BT_LIB2_BANK_SIZE = 0xd00
                0x0000000000013900                SRAM_BT_EXT3_BANK_ADDR = SRAM_BT_LIB2_BANK_ADDR
                0x0000000000000d00                SRAM_BT_EXT3_BANK_SIZE = SRAM_BT_LIB2_BANK_SIZE
                0x0000000000021e00                SRAM_BT_EXT4_BANK_ADDR = 0x21e00
                0x0000000000000600                SRAM_BT_EXT4_BANK_SIZE = 0x600
                0x0000000000014600                SRAM_BT_EXT5_BANK_ADDR = 0x14600
                0x0000000000000600                SRAM_BT_EXT5_BANK_SIZE = 0x600
                0x000000000000fa00                SRAM_COM_DAE_RCODE_ADDR = 0xfa00
                0x0000000000000100                SRAM_COM_DAE_RCODE_SIZE = 0x100
                0x000000000000fb00                SRAM_BTCALL_EXT_RCODE_ADDR = 0xfb00
                0x0000000000000100                SRAM_BTCALL_EXT_RCODE_SIZE = 0x100
                0x000000000001e900                SRAM_AP_FRONT_RCODE_ADDR = 0x1e900
                0x0000000000000800                SRAM_AP_FRONT_RCODE_SIZE = 0x800
                0x0000000000016c00                SRAM_FS_RCODE_ADDR = 0x16c00
                0x0000000000000800                SRAM_FS_RCODE_SIZE = 0x800
                0x0000000000017400                SRAM_CARD_UD_RCODE_ADDR = 0x17400
                0x0000000000000c00                SRAM_CARD_UD_RCODE_SIZE = 0xc00
                0x0000000000017400                SRAM_UHOST_UD_RCODE_ADDR = SRAM_CARD_UD_RCODE_ADDR
                0x0000000000000c00                SRAM_UHOST_UD_RCODE_SIZE = SRAM_CARD_UD_RCODE_SIZE
                0x0000000000016c00                SRAM_USOUND_RCODE_ADDR = 0x16c00
                0x0000000000002800                SRAM_USOUND_RCODE_SIZE = 0x2800
                0x0000000000016c00                SRAM_BTSTACK_AVDTP_DATA_ADDR = 0x16c00
                0x0000000000002980                SRAM_BTSTACK_AVDTP_DATA_SIZE = 0x2980
                0x0000000000016c00                SRAM_BTCALL_CALLRING_BUF_ADDR = 0x16c00
                0x0000000000001000                SRAM_BTCALL_CALLRING_BUF_SIZE = 0x1000
                0x0000000000016c00                SRAM_BTCALL_ASQT_BUF_ADDR = 0x16c00
                0x0000000000002800                SRAM_BTCALL_ASQT_BUF_SIZE = 0x2800
                0x0000000000018000                SRAM_FS_DATA_ADDR = 0x18000
                0x0000000000000300                SRAM_FS_DATA_SIZE = 0x300
                0x0000000000018300                SRAM_FS_BUF_ADDR = 0x18300
                0x0000000000000a00                SRAM_FS_BUF_SIZE = 0xa00
                0x0000000000018d00                SRAM_CARD_UD_CACHE_ADDR = 0x18d00
                0x0000000000000800                SRAM_CARD_UD_CACHE_SIZE = 0x800
                0x0000000000018d00                SRAM_UHOST_UD_CACHE_ADDR = SRAM_CARD_UD_CACHE_ADDR
                0x0000000000000800                SRAM_UHOST_UD_CACHE_SIZE = SRAM_CARD_UD_CACHE_SIZE
                0x0000000000019500                SRAM_CARD_DATA_ADDR = 0x19500
                0x0000000000000080                SRAM_CARD_DATA_SIZE = 0x80
                0x0000000000019500                SRAM_UHOST_DATA_ADDR = SRAM_CARD_DATA_ADDR
                0x0000000000000080                SRAM_UHOST_DATA_SIZE = SRAM_CARD_DATA_SIZE
                0x0000000000019580                SRAM_AP_BACK_DATA_ADDR = 0x19580
                0x0000000000000400                SRAM_AP_BACK_DATA_SIZE = 0x400
                0x0000000000019980                SRAM_AP_FRONT_DATA_ADDR = 0x19980
                0x0000000000000700                SRAM_AP_FRONT_DATA_SIZE = 0x700
                0x000000000001a080                SRAM_APPLIB_GLOBAL_DATA_ADDR = 0x1a080
                0x0000000000000040                SRAM_APPLIB_GLOBAL_DATA_SIZE = 0x40
                0x000000000001a0c0                SRAM_APPLIB_DATA_ADDR = 0x1a0c0
                0x0000000000000200                SRAM_APPLIB_DATA_SIZE = 0x200
                0x000000000001a2c0                SRAM_BTMANAGER_DATA_ADDR = 0x1a2c0
                0x0000000000000140                SRAM_BTMANAGER_DATA_SIZE = 0x140
                0x000000000001a400                SRAM_OS_DATA_ADDR = 0x1a400
                0x0000000000000880                SRAM_OS_DATA_SIZE = 0x880
                0x000000000001ac80                SRAM_OS_HEAP_ADDR = 0x1ac80
                0x0000000000000680                SRAM_OS_HEAP_SIZE = 0x680
                0x000000000001b300                SRAM_AP_MANAGER_RCODE_ADDR = 0x1b300
                0x0000000000000100                SRAM_AP_MANAGER_RCODE_SIZE = 0x100
                0x000000000001b400                SRAM_OS_SD_SWAP_BUF_ADDR = 0x1b400
                0x0000000000000200                SRAM_OS_SD_SWAP_BUF_SIZE = 0x200
                0x000000000001b600                SRAM_OS_TASK_STACK_ADDR = 0x1b600
                0x0000000000001e00                SRAM_OS_TASK_STACK_SIZE = 0x1e00
                0x000000000001d500                SRAM_BANK_C_ADDR = 0x1d500
                0x0000000000000400                SRAM_BANK_C_SIZE = 0x400
                0x000000000001d900                SRAM_BT_HCI_BUF_ADDR = 0x1d900
                0x0000000000001000                SRAM_BT_HCI_BUF_SIZE = 0x1000
                0x0000000000016400                SRAM_BT_UART_BUF_ADDR = 0x16400
                0x0000000000000800                SRAM_BT_UART_BUF_SIZE = 0x800
                0x000000000001f100                SRAM_BT_RCODE_DATA_ADDR = 0x1f100
                0x0000000000000700                SRAM_BT_RCODE_DATA_SIZE = 0x700
                0x000000000001f800                SRAM_KEY_MESSAGE_RCODE_ADDR = 0x1f800
                0x0000000000000800                SRAM_KEY_MESSAGE_RCODE_SIZE = 0x800
                0x0000000000020000                SRAM_DSP_IRQ_TABLE_ADDR = 0x20000
                0x0000000000000120                SRAM_DSP_IRQ_TABLE_SIZE = 0x120
                0x0000000000020120                SRAM_RAM2_RESEVER_ADDR = 0x20120
                0x00000000000000e0                SRAM_RAM2_RESEVER_SIZE = 0xe0
                0x0000000000020200                SRAM_AP_BANK_FRONT_CONTROL_ADDR = 0x20200
                0x0000000000000800                SRAM_AP_BANK_FRONT_CONTROL_SIZE = 0x800
                0x0000000000020a00                SRAM_KERNEL_XSYS_ADDR = 0x20a00
                0x0000000000000e00                SRAM_KERNEL_XSYS_SIZE = 0xe00
                0x0000000000021800                SRAM_AP_BACK_BASAL_RCODE_ADDR = 0x21800
                0x0000000000000600                SRAM_AP_BACK_BASAL_RCODE_SIZE = 0x600
                0x0000000000021e00                SRAM_AP_BANK_BACK_BASAL_ADDR = 0x21e00
                0x0000000000000600                SRAM_AP_BANK_BACK_BASAL_SIZE = 0x600
                0x0000000000022400                SRAM_BT_HEAD_ADDR = 0x22400
                0x0000000000003400                SRAM_BT_HEAD_SIZE = 0x3400
                0x0000000000025000                SRAM_UART_STUB_RCODE_ADDR = 0x25000
                0x0000000000000800                SRAM_UART_STUB_RCODE_SIZE = 0x800
                0x0000000000027e00                SRAM_AP_FRONT_BASAL_RCODE_ADDR = 0x27e00
                0x0000000000000400                SRAM_AP_FRONT_BASAL_RCODE_SIZE = 0x400
                0x000000000000b000                SRAM_AP_BANK_FRONT_BASAL_ADDR = 0xb000
                0x0000000000000800                SRAM_AP_BANK_FRONT_BASAL_SIZE = 0x800
                0x0000000000025800                SRAM_AP_BANK_FRONT_UI_ADDR = 0x25800
                0x0000000000000800                SRAM_AP_BANK_FRONT_UI_SIZE = 0x800
                0x0000000000026000                SRAM_AP_RCP_COMMAND_BUFFER_ADDR = 0x26000
                0x0000000000000220                SRAM_AP_RCP_COMMAND_BUFFER_SIZE = 0x220
                0x0000000000026000                SRAM_AP_BACK_RCODE_ADDR = 0x26000
                0x0000000000000800                SRAM_AP_BACK_RCODE_SIZE = 0x800
                0x0000000000026800                SRAM_AP_BANK_BACK_CONTROL_ADDR = 0x26800
                0x0000000000000800                SRAM_AP_BANK_BACK_CONTROL_SIZE = 0x800
                0x0000000000027000                SRAM_RAM2_RESEVER2_ADDR = 0x27000
                0x0000000000000e00                SRAM_RAM2_RESEVER2_SIZE = 0xe00
                0x0000000000027e00                SRAM_BTPLAY_MMM_RCODE2_ADDR = 0x27e00
                0x0000000000000e00                SRAM_BTPLAY_MMM_RCODE2_SIZE = 0xe00
                0x0000000000028c00                SRAM_BTPLAY_SWAP_BUFFER_ADDR = 0x28c00
                0x0000000000000400                SRAM_BTPLAY_SWAP_BUFFER_SIZE = 0x400
                0x0000000000028200                SRAM_AP_BACK_CODEC_RCODE_ADDR = 0x28200
                0x0000000000000a00                SRAM_AP_BACK_CODEC_RCODE_SIZE = 0xa00
                0x0000000000028c00                SRAM_AP_BANK_BACK_CODEC_ADDR = 0x28c00
                0x0000000000000400                SRAM_AP_BANK_BACK_CODEC_SIZE = 0x400
                0x0000000000029000                SRAM_AP_BACK_AL_RCODE_1_ADDR = 0x29000
                0x0000000000007000                SRAM_AP_BACK_AL_RCODE_1_SIZE = 0x7000
                0x000000000002e000                SRAM_AP_BANK_BACK_AL_4_ADDR = 0x2e000
                0x0000000000002000                SRAM_AP_BANK_BACK_AL_4_SIZE = 0x2000
                0x0000000000030000                SRAM_AP_BANK_BACK_AL_1_ADDR = 0x30000
                0x0000000000004000                SRAM_AP_BANK_BACK_AL_1_SIZE = 0x4000
                0x0000000000034000                SRAM_AP_BACK_AL_RCODE_2_ADDR = 0x34000
                0x0000000000002000                SRAM_AP_BACK_AL_RCODE_2_SIZE = 0x2000
                0x0000000000036000                SRAM_AP_BANK_BACK_AL_2_ADDR = 0x36000
                0x0000000000002000                SRAM_AP_BANK_BACK_AL_2_SIZE = 0x2000
                0x0000000000038000                SRAM_AP_BANK_BACK_AL_3_ADDR = 0x38000
                0x0000000000004000                SRAM_AP_BANK_BACK_AL_3_SIZE = 0x4000
                0x000000000000e000                SRAM_ASRC_BUF_0_ADDR = 0xe000
                0x0000000000000e00                SRAM_ASRC_BUF_0_SIZE = 0xe00
                0x000000000000f000                SRAM_ASRC_BUF_1_ADDR = 0xf000
                0x0000000000000c00                SRAM_ASRC_BUF_1_SIZE = 0xc00
                0x000000000000fc00                SRAM_CARD_BUF_0_ADDR = 0xfc00
                0x0000000000000200                SRAM_CARD_BUF_0_SIZE = 0x200
                0x000000000000fe00                SRAM_CARD_BUF_1_ADDR = 0xfe00
                0x0000000000000200                SRAM_CARD_BUF_1_SIZE = 0x200
                0x000000000000fc00                SRAM_CARD_FIFO_ADDR = SRAM_CARD_BUF_0_ADDR
                0x0000000000000400                SRAM_CARD_FIFO_SIZE = (SRAM_CARD_BUF_0_SIZE + SRAM_CARD_BUF_1_SIZE)
                0x000000000003c000                SRAM_PCMRAM_0_ADDR = 0x3c000
                0x0000000000001000                SRAM_PCMRAM_0_SIZE = 0x1000
                0x000000000003d000                SRAM_PCMRAM_1_ADDR = 0x3d000
                0x0000000000001000                SRAM_PCMRAM_1_SIZE = 0x1000
                0x000000000003e000                SRAM_PCMRAM_2_ADDR = 0x3e000
                0x0000000000001000                SRAM_PCMRAM_2_SIZE = 0x1000
                0x000000000003c000                SRAM_PCMRAM_H5_FIFO_ADDR = SRAM_PCMRAM_0_ADDR
                0x0000000000001000                SRAM_PCMRAM_H5_FIFO_SIZE = SRAM_PCMRAM_0_SIZE
                0x000000000003d000                SRAM_PCMRAM_PCMFIFO_ADDR = SRAM_PCMRAM_1_ADDR
                0x0000000000002000                SRAM_PCMRAM_FIFO_SIZE = (SRAM_PCMRAM_1_SIZE + SRAM_PCMRAM_2_SIZE)
                0x000000000003f000                SRAM_URAM_0_ADDR = 0x3f000
                0x0000000000000800                SRAM_URAM_0_SIZE = 0x800
                0x000000000003f800                SRAM_URAM_1_ADDR = 0x3f800
                0x0000000000000800                SRAM_URAM_1_SIZE = 0x800
                0x000000000003f000                SRAM_URAM_UDISK_FIFO_ADDR = SRAM_URAM_0_ADDR
                0x0000000000001000                SRAM_URAM_UDISK_FIFO_SIZE = (SRAM_URAM_0_SIZE + SRAM_URAM_1_SIZE)
                0x000000000003f800                SRAM_URAM_UHOST_FIFO_ADDR = SRAM_URAM_1_ADDR
                0x0000000000000800                SRAM_URAM_UHOST_FIFO_SIZE = SRAM_URAM_1_SIZE
                0x0000000000026800                SRAM_AP_BANK_FRONT_ENHANCED_1_ADDR = SRAM_AP_BANK_BACK_CONTROL_ADDR
                0x0000000000000800                SRAM_AP_BANK_FRONT_ENHANCED_1_SIZE = 0x800
                0x0000000000000000                SRAM_AP_BANK_FRONT_ENHANCED_2_ADDR = 0x0
                0x0000000000000000                SRAM_AP_BANK_FRONT_ENHANCED_2_SIZE = 0x0
                0x0000000000021e00                SRAM_AP_BANK_BACK_ENHANCED_1_ADDR = SRAM_AP_BANK_BACK_BASAL_ADDR
                0x0000000000000600                SRAM_AP_BANK_BACK_ENHANCED_1_SIZE = SRAM_AP_BANK_BACK_BASAL_SIZE
                0x0000000000028a00                SRAM_AP_BANK_BACK_ENHANCED_2_ADDR = 0x28a00
                0x0000000000000600                SRAM_AP_BANK_BACK_ENHANCED_2_SIZE = 0x600
                0x0000000000000000                SRAM_AP_BANK_FRONT_CODEC_ADDR = 0x0
                0x0000000000000000                SRAM_AP_BANK_FRONT_CODEC_SIZE = 0x0
                0x000000000003b800                SRAM_TTS_DRV_RCODE_ADDR = 0x3b800
                0x0000000000000800                SRAM_TTS_DRV_RCODE_SIZE = 0x800
                0x0000000000019580                SRAM_FM_ENG_RDATA_ADDR = SRAM_AP_BACK_DATA_ADDR
                0x0000000000000200                SRAM_FM_ENG_RDATA_SIZE = 0x200
                0x0000000000016c00                SRAM_FM_DRV_RCODE_ADDR = SRAM_FS_RCODE_ADDR
                0x0000000000000800                SRAM_FM_DRV_RCODE_SIZE = 0x800
                0x0000000000019780                SRAM_FM_DRV_RDATA_ADDR = (SRAM_FM_ENG_RDATA_ADDR + SRAM_FM_ENG_RDATA_SIZE)
                0x0000000000000200                SRAM_FM_DRV_RDATA_SIZE = (SRAM_AP_BACK_DATA_SIZE - SRAM_FM_ENG_RDATA_SIZE)
                0x0000000000021800                SRAM_AP_USB_DEVICE_RCODE_ADDR = 0x21800
                0x0000000000004000                SRAM_AP_USB_DEVICE_RCODE_SIZE = SRAM_AP_BANK_BACK_AL_1_SIZE
                0x0000000000040000                SRAM_INVALID_RCODE_ADDR = 0x40000
                0x00000000bfc26000                RCODE_TEXT_ADDR = (RCODE_ADDR_BASE + SRAM_TEXT_ADDR)
                0x000000009fc19580                RDATA_DATA_ADDR = (RDATA_ADDR_BASE + SRAM_DATA_ADDR)
                0x000000009fc1a080                APPLIB_GLOBAL_DATA_ADDR = (RDATA_ADDR_BASE + SRAM_APPLIB_GLOBAL_DATA_ADDR)
                0x0000000000000040                APPLIB_GLOBAL_DATA_SIZE = SRAM_APPLIB_GLOBAL_DATA_SIZE
                0x0000000060026800                BANK_CONTROL_1_ADDR_BASE = ((AP_BANK_BACK_CONTROL_1 << 0x18) + SRAM_AP_BANK_BACK_CONTROL_ADDR)
                0x0000000000000800                BANK_CONTROL_SIZE = SRAM_AP_BANK_BACK_CONTROL_SIZE
                0x0000000000040000                AP_BANK_SPACE = BANK_SPACE
                0x000000009fc1a080                . = APPLIB_GLOBAL_DATA_ADDR

APPLIB_GLOBAL_DATA
                0x000000009fc1a080       0x40
 applib_globe_data.o(.applib_globe_data.g_app_info_vector)
 .applib_globe_data.g_app_info_vector
                0x000000009fc1a080       0x10 ./../../lib/applib_globe_data.o
                0x000000009fc1a080                g_app_info_vector
                0x000000009fc1a090                . = 0x10
 applib_globe_data.o(.applib_globe_data.config_fp)
 .applib_globe_data.config_fp
                0x000000009fc1a090        0x4 ./../../lib/applib_globe_data.o
                0x000000009fc1a090                config_fp
                0x000000009fc1a094                . = 0x14
 applib_globe_data.o(.applib_globe_data.g_app_info_state_all)
 .applib_globe_data.g_app_info_state_all
                0x000000009fc1a094       0x24 ./../../lib/applib_globe_data.o
                0x000000009fc1a0b4                g_neednot_tts_play_timeout1
                0x000000009fc1a094                g_app_info_state_all
                0x000000009fc1a0b0                g_customer_state
                0x0000000000000040                . = APPLIB_GLOBAL_DATA_SIZE
 *fill*         0x000000009fc1a0b8        0x8 00
 *fill*         0x000000009fc1a0c0        0x0 00
OUTPUT(btcalleg.exe elf32-tradlittlemips)
                0x0000000060a26800                . = (BANK_CONTROL_1_ADDR_BASE + (AP_BANK_SPACE * 0x28))
                0x0000000000026800                OFFSET = (. & 0x3ffff)

BANK_CONTROL_1_40
                0x0000000060a26800      0x59c
 app_engine_config.o(.text .rodata .xdata)
 .text          0x0000000060a26800       0x54 ./../../lib/app_engine_config.o
                0x0000000060a26829                get_engine_appid_by_type
                0x0000000060a26801                get_engine_type_by_appid
 .rodata        0x0000000060a26854        0xc ./../../lib/app_engine_config.o
                0x0000000060a26854                applib_app2eg_type
 app_manager_bank.o(.text .rodata .xdata)
 .text          0x0000000060a26860      0x1c8 ./../../lib/app_manager_bank.o
                0x0000000060a26861                applib_init
                0x0000000060a26951                applib_quit
 app_timer_bank_for_engine.o(.text .rodata .xdata)
 .text          0x0000000060a26a28      0x2a0 ./../../lib/app_timer_bank_for_engine.o
                0x0000000060a26b19                set_single_shot_app_timer
                0x0000000060a26bb9                restart_app_timer
                0x0000000060a26afd                set_app_timer
                0x0000000060a26b35                modify_app_timer
                0x0000000060a26c0d                kill_app_timer
                0x0000000060a26b81                stop_app_timer
                0x0000000060a26c41                init_app_timers
                0x0000000060a26c85                standby_restart_all_app_timer
 message_bank_broadcast.o(.text .rodata .xdata)
 message_bank_init_for_engine.o(.text .rodata .xdata)
 .text          0x0000000060a26cc8       0x20 ./../../lib/message_bank_init_for_engine.o
                0x0000000060a26cc9                applib_message_init
 message_bank_send.o(.text .rodata .xdata)
 message_bank_send_async.o(.text .rodata .xdata)
 message_bank_send_btmanager.o(.text .bank .rodata .xdata)
 .text          0x0000000060a26ce8       0xb4 ./../../lib/message_bank_send_btmanager.o
                0x0000000060a26ce9                send_sync_msg_btmanager
                0x0000000060a66800                . = (((. + AP_BANK_SPACE) & ~ ((AP_BANK_SPACE - 0x1))) + OFFSET)

BANK_CONTROL_1_41
                0x0000000060a66800      0x128
 common_config.o(.text .rodata .xdata)
 .text          0x0000000060a66800      0x11c ./../../lib/common_config.o
                0x0000000060a668bd                com_get_config_default
                0x0000000060a66801                com_open_config_file
                0x0000000060a6684d                com_get_config_struct
 common_sound.o(.text .rodata .xdata)
 .text          0x0000000060a6691c        0xc ./../../lib/common_sound.o
                0x0000000060a6691d                com_set_sound_out

.rel.dyn

.reginfo        0x0000000000000000       0x18
 .reginfo       0x0000000000000000       0x18 ./obj/btcall_eg_global_var.o

.pdr            0x0000000000000000      0xc20
 .pdr           0x0000000000000000       0x20 ./../../../psp_rel/lib/audio_device_op_entry.o
 .pdr           0x0000000000000020       0x20 ./../../../psp_rel/lib/libc_op_entry.o
 .pdr           0x0000000000000040       0x20 ./../../../psp_rel/lib/sys_op_entry.o
 .pdr           0x0000000000000060       0x20 ./../../../psp_rel/lib/base_op_entry.o
 .pdr           0x0000000000000080       0x20 ./../../../psp_rel/lib/key_op_entry.o
 .pdr           0x00000000000000a0       0x20 ./../../../psp_rel/lib/mmm_hfp_cmd.o
 .pdr           0x00000000000000c0       0x20 ./../../../psp_rel/lib/stub_mod_cmd.o
 .pdr           0x00000000000000e0       0x80 ./obj/btcall_eg_message_loop.o
 .pdr           0x0000000000000160       0xa0 ./obj/btcall_eg_sco_connect.o
 .pdr           0x0000000000000200       0x20 ./../../lib/app_timer_rcode_for_engine.o
 .pdr           0x0000000000000220       0x20 ./../../lib/message_rcode_for_engine.o
 .pdr           0x0000000000000240       0x40 ./obj/btcall_eg_audio_config.o
 .pdr           0x0000000000000280       0xe0 ./obj/btcall_eg_message_handle.o
 .pdr           0x0000000000000360      0x2c0 ./obj/btcall_eg_stub_asqt.o
 .pdr           0x0000000000000620       0xa0 ./obj/btcall_eg_callring.o
 .pdr           0x00000000000006c0       0xe0 ./obj/btcall_eg_main.o
 .pdr           0x00000000000007a0       0x40 ./../../../psp_rel/lib/ctor.o
 .pdr           0x00000000000007e0      0x1e0 ./obj/btcall_eg_stub_asqt_init.o
 .pdr           0x00000000000009c0       0x40 ./../../lib/app_engine_config.o
 .pdr           0x0000000000000a00       0x40 ./../../lib/app_manager_bank.o
 .pdr           0x0000000000000a40      0x120 ./../../lib/app_timer_bank_for_engine.o
 .pdr           0x0000000000000b60       0x20 ./../../lib/message_bank_init_for_engine.o
 .pdr           0x0000000000000b80       0x20 ./../../lib/message_bank_send_btmanager.o
 .pdr           0x0000000000000ba0       0x60 ./../../lib/common_config.o
 .pdr           0x0000000000000c00       0x20 ./../../lib/common_sound.o

.mdebug.abi32   0x0000000000000000        0x0

.debug_abbrev   0x0000000000000000      0xf47
 .debug_abbrev  0x0000000000000000      0x11a ./obj/btcall_eg_global_var.o
 .debug_abbrev  0x000000000000011a      0x1dc ./obj/btcall_eg_message_loop.o
 .debug_abbrev  0x00000000000002f6      0x193 ./obj/btcall_eg_sco_connect.o
 .debug_abbrev  0x0000000000000489       0xc3 ./obj/btcall_eg_audio_config.o
 .debug_abbrev  0x000000000000054c      0x1eb ./obj/btcall_eg_message_handle.o
 .debug_abbrev  0x0000000000000737      0x1f6 ./obj/btcall_eg_stub_asqt.o
 .debug_abbrev  0x000000000000092d      0x19c ./obj/btcall_eg_callring.o
 .debug_abbrev  0x0000000000000ac9      0x220 ./obj/btcall_eg_main.o
 .debug_abbrev  0x0000000000000ce9      0x25e ./obj/btcall_eg_stub_asqt_init.o

.debug_info     0x0000000000000000     0x8e03
 .debug_info    0x0000000000000000      0xac2 ./obj/btcall_eg_global_var.o
 .debug_info    0x0000000000000ac2     0x12dc ./obj/btcall_eg_message_loop.o
 .debug_info    0x0000000000001d9e     0x1134 ./obj/btcall_eg_sco_connect.o
 .debug_info    0x0000000000002ed2      0x44d ./obj/btcall_eg_audio_config.o
 .debug_info    0x000000000000331f     0x15e4 ./obj/btcall_eg_message_handle.o
 .debug_info    0x0000000000004903     0x14ca ./obj/btcall_eg_stub_asqt.o
 .debug_info    0x0000000000005dcd      0x863 ./obj/btcall_eg_callring.o
 .debug_info    0x0000000000006630     0x128e ./obj/btcall_eg_main.o
 .debug_info    0x00000000000078be     0x1545 ./obj/btcall_eg_stub_asqt_init.o

.debug_line     0x0000000000000000      0xf41
 .debug_line    0x0000000000000000       0xf7 ./obj/btcall_eg_global_var.o
 .debug_line    0x00000000000000f7      0x1d9 ./obj/btcall_eg_message_loop.o
 .debug_line    0x00000000000002d0      0x19a ./obj/btcall_eg_sco_connect.o
 .debug_line    0x000000000000046a       0xf8 ./obj/btcall_eg_audio_config.o
 .debug_line    0x0000000000000562      0x1dd ./obj/btcall_eg_message_handle.o
 .debug_line    0x000000000000073f      0x271 ./obj/btcall_eg_stub_asqt.o
 .debug_line    0x00000000000009b0      0x18d ./obj/btcall_eg_callring.o
 .debug_line    0x0000000000000b3d      0x1e5 ./obj/btcall_eg_main.o
 .debug_line    0x0000000000000d22      0x21f ./obj/btcall_eg_stub_asqt_init.o

.debug_pubnames
                0x0000000000000000      0x862
 .debug_pubnames
                0x0000000000000000       0xde ./obj/btcall_eg_global_var.o
 .debug_pubnames
                0x00000000000000de       0x63 ./obj/btcall_eg_message_loop.o
 .debug_pubnames
                0x0000000000000141       0x9b ./obj/btcall_eg_sco_connect.o
 .debug_pubnames
                0x00000000000001dc       0x49 ./obj/btcall_eg_audio_config.o
 .debug_pubnames
                0x0000000000000225       0xbc ./obj/btcall_eg_message_handle.o
 .debug_pubnames
                0x00000000000002e1      0x2c8 ./obj/btcall_eg_stub_asqt.o
 .debug_pubnames
                0x00000000000005a9       0xa7 ./obj/btcall_eg_callring.o
 .debug_pubnames
                0x0000000000000650       0xc1 ./obj/btcall_eg_main.o
 .debug_pubnames
                0x0000000000000711      0x151 ./obj/btcall_eg_stub_asqt_init.o

.debug_str      0x0000000000000000     0x2229
 .debug_str     0x0000000000000000      0xa25 ./obj/btcall_eg_global_var.o
                                        0xaaa (size before relaxing)
 .debug_str     0x0000000000000a25      0xaa5 ./obj/btcall_eg_message_loop.o
                                       0x14ef (size before relaxing)
 .debug_str     0x00000000000014ca      0x2cc ./obj/btcall_eg_sco_connect.o
                                        0xf3f (size before relaxing)
 .debug_str     0x0000000000001796       0x48 ./obj/btcall_eg_audio_config.o
                                        0x4a3 (size before relaxing)
 .debug_str     0x00000000000017de      0x26d ./obj/btcall_eg_message_handle.o
                                       0x160e (size before relaxing)
 .debug_str     0x0000000000001a4b      0x3c7 ./obj/btcall_eg_stub_asqt.o
                                        0xea6 (size before relaxing)
 .debug_str     0x0000000000001e12      0x151 ./obj/btcall_eg_callring.o
                                        0x7f7 (size before relaxing)
 .debug_str     0x0000000000001f63       0xe7 ./obj/btcall_eg_main.o
                                       0x14be (size before relaxing)
 .debug_str     0x000000000000204a      0x1df ./obj/btcall_eg_stub_asqt_init.o
                                       0x105f (size before relaxing)

.comment        0x0000000000000000      0x408
 .comment       0x0000000000000000       0x2b ./obj/btcall_eg_global_var.o
 .comment       0x000000000000002b       0x2b ./obj/btcall_eg_message_loop.o
 .comment       0x0000000000000056       0x2b ./obj/btcall_eg_sco_connect.o
 .comment       0x0000000000000081       0x2b ./../../lib/app_timer_rcode_for_engine.o
 .comment       0x00000000000000ac       0x2b ./../../lib/message_rcode_for_engine.o
 .comment       0x00000000000000d7       0x2b ./obj/btcall_eg_audio_config.o
 .comment       0x0000000000000102       0x2b ./obj/btcall_eg_message_handle.o
 .comment       0x000000000000012d       0x2b ./obj/btcall_eg_stub_asqt.o
 .comment       0x0000000000000158       0x2b ./obj/btcall_eg_callring.o
 .comment       0x0000000000000183       0x2b ./obj/btcall_eg_main.o
 .comment       0x00000000000001ae       0x2b ./../../lib/applib_app_data.o
 .comment       0x00000000000001d9       0x2b ./../../../psp_rel/lib/ctor.o
 .comment       0x0000000000000204       0x2b ./obj/btcall_eg_stub_asqt_init.o
 .comment       0x000000000000022f       0x2b ./../../lib/applib_globe_data.o
 .comment       0x000000000000025a       0x2b ./../../lib/app_engine_config.o
 .comment       0x0000000000000285       0x2b ./../../lib/app_manager_bank.o
 .comment       0x00000000000002b0       0x2b ./../../lib/app_timer_bank_for_engine.o
 .comment       0x00000000000002db       0x2b ./../../lib/message_bank_broadcast.o
 .comment       0x0000000000000306       0x2b ./../../lib/message_bank_init_for_engine.o
 .comment       0x0000000000000331       0x2b ./../../lib/message_bank_send.o
 .comment       0x000000000000035c       0x2b ./../../lib/message_bank_send_async.o
 .comment       0x0000000000000387       0x2b ./../../lib/message_bank_send_btmanager.o
 .comment       0x00000000000003b2       0x2b ./../../lib/common_config.o
 .comment       0x00000000000003dd       0x2b ./../../lib/common_sound.o

.debug_frame    0x0000000000000000      0x8b8
 .debug_frame   0x0000000000000000       0x9c ./obj/btcall_eg_message_loop.o
 .debug_frame   0x000000000000009c       0xb8 ./obj/btcall_eg_sco_connect.o
 .debug_frame   0x0000000000000154       0x40 ./obj/btcall_eg_audio_config.o
 .debug_frame   0x0000000000000194       0xe4 ./obj/btcall_eg_message_handle.o
 .debug_frame   0x0000000000000278      0x2e0 ./obj/btcall_eg_stub_asqt.o
 .debug_frame   0x0000000000000558       0xa8 ./obj/btcall_eg_callring.o
 .debug_frame   0x0000000000000600       0xfc ./obj/btcall_eg_main.o
 .debug_frame   0x00000000000006fc      0x1bc ./obj/btcall_eg_stub_asqt_init.o

.debug_aranges  0x0000000000000000      0x130
 .debug_aranges
                0x0000000000000000       0x20 ./obj/btcall_eg_message_loop.o
 .debug_aranges
                0x0000000000000020       0x20 ./obj/btcall_eg_sco_connect.o
 .debug_aranges
                0x0000000000000040       0x28 ./obj/btcall_eg_audio_config.o
 .debug_aranges
                0x0000000000000068       0x20 ./obj/btcall_eg_message_handle.o
 .debug_aranges
                0x0000000000000088       0x40 ./obj/btcall_eg_stub_asqt.o
 .debug_aranges
                0x00000000000000c8       0x28 ./obj/btcall_eg_callring.o
 .debug_aranges
                0x00000000000000f0       0x20 ./obj/btcall_eg_main.o
 .debug_aranges
                0x0000000000000110       0x20 ./obj/btcall_eg_stub_asqt_init.o
