Archive member included to satisfy reference by file (symbol)

..\..\platform\libs\libplatform.a(audio.o)
                              Output\obj\platform\bsp\bsp_dac.o (adpll_init)
..\..\platform\libs\libplatform.a(audio_eq.o)
                              Output\obj\platform\bsp\bsp_eq.o (music_set_eq_is_done)
..\..\platform\libs\libplatform.a(audio_karaok.o)
                              Output\obj\platform\bsp\bsp_sys.o (karaok_var_init)
..\..\platform\libs\libplatform.a(audio_src.o)
                              ..\..\platform\libs\libplatform.a(audio_karaok.o) (audio_src_init)
..\..\platform\libs\libplatform.a(dac.o)
                              Output\obj\platform\bsp\bsp_aux.o (dac_fade_in)
..\..\platform\libs\libplatform.a(dac_dnr.o)
                              ..\..\platform\libs\libplatform.a(dac.o) (noise_detect)
..\..\platform\libs\libplatform.a(s_dac.o)
                              ..\..\platform\libs\libplatform.a(audio_karaok.o) (dnr_voice_maxpow)
..\..\platform\libs\libplatform.a(sdadc.o)
                              Output\obj\platform\bsp\bsp_audio.o (sdadc_dummy)
..\..\platform\libs\libplatform.a(bt.o)
                              Output\obj\platform\bsp\bsp_bt.o (bt_send_msg)
..\..\platform\libs\libplatform.a(bt_aec.o)
                              ..\..\platform\libs\libplatform.a(sdadc.o) (aec_far_detect)
..\..\platform\libs\libplatform.a(bt_alc.o)
                              Output\obj\platform\bsp\bsp_audio.o (bt_alc_process)
..\..\platform\libs\libplatform.a(bt_rec.o)
                              ..\..\platform\libs\libplatform.a(bt.o) (bt_rec_en)
..\..\platform\libs\libplatform.a(bt_sco.o)
                              Output\obj\platform\functions\sfunc_bt_call.o (bt_voice_init)
..\..\platform\libs\libplatform.a(bt_wnr.o)
                              ..\..\platform\libs\libplatform.a(bt_sco.o) (wnr_init)
..\..\platform\libs\libplatform.a(s_wnr.o)
                              ..\..\platform\libs\libplatform.a(bt_aec.o) (wnr_detect)
..\..\platform\libs\libplatform.a(cm.o)
                              Output\obj\platform\bsp\bsp_bt.o (cm_sync)
..\..\platform\libs\libplatform.a(os_flash.o)
                              ..\..\platform\libs\libplatform.a(cm.o) (os_spiflash_read)
..\..\platform\libs\libplatform.a(xcfg.o)
                              Output\obj\platform\bsp\bsp_sys.o (xcfg_init)
..\..\platform\libs\libplatform.a(device.o)
                              Output\obj\platform\bsp\bsp_sys.o (dev_init)
..\..\platform\libs\libplatform.a(fmrx.o)
                              Output\obj\platform\bsp\bsp_fmrx.o (fmrx_dac_sync)
..\..\platform\libs\libplatform.a(fmrx_ang.o)
                              ..\..\platform\libs\libplatform.a(fmrx.o) (fmrx_set_pll)
..\..\platform\libs\libplatform.a(main.o)
                              Output\obj\platform\bsp\bsp_bt.o (delay_5ms)
..\..\platform\libs\libplatform.a(music.o)
                              Output\obj\platform\functions\func_music.o (music_set_cur_time)
..\..\platform\libs\libplatform.a(music_decrypt.o)
                              Output\obj\platform\functions\func_music.o (music_is_encrypt)
..\..\platform\libs\libplatform.a(music_res.o)
                              Output\obj\platform\bsp\bsp_music.o (mp3_res_play_kick)
..\..\platform\libs\libplatform.a(stream.o)
                              ..\..\platform\libs\libplatform.a(music.o) (msc_stream_end)
..\..\platform\libs\libplatform.a(interrupt.o)
                              ..\..\platform\libs\libplatform.a(audio_src.o) (src_isr_func_set)
..\..\platform\libs\libplatform.a(startup.o)
                              ..\..\platform\libs\libplatform.a(interrupt.o) (user_timer_isr_en)
..\..\platform\libs\libplatform.a(sys_hook.o)
                              ..\..\platform\libs\libplatform.a(startup.o) (sys_hook_init)
..\..\platform\libs\libplatform.a(reset.o)
                              (_start)
..\..\platform\libs\libplatform.a(rtc.o)
                              Output\obj\platform\functions\func_clock.o (irtc_time_write)
..\..\platform\libs\libplatform.a(rtc_time.o)
                              Output\obj\platform\functions\func_clock.o (rtc_time_to_tm)
..\..\platform\libs\libplatform.a(sd_api.o)
                              ..\..\platform\libs\libplatform.a(interrupt.o) (sdctl_isr)
..\..\platform\libs\libplatform.a(spiflash.o)
                              ..\..\platform\libs\libplatform.a(os_flash.o) (spiflash_read)
..\..\platform\libs\libplatform.a(debug.o)
                              ..\..\platform\libs\libplatform.a(main.o) (debug_set)
..\..\platform\libs\libplatform.a(gpio.o)
                              Output\obj\platform\bsp\bsp_sys.o (gpio_cfg_init)
..\..\platform\libs\libplatform.a(key.o)
                              Output\obj\platform\bsp\bsp_key.o (key_var_init)
..\..\platform\libs\libplatform.a(lock.o)
                              ..\..\platform\libs\libplatform.a(main.o) (lock_init)
..\..\platform\libs\libplatform.a(power.o)
                              Output\obj\platform\functions\func_fmrx.o (pmu_buck_mode)
..\..\platform\libs\libplatform.a(s_sys.o)
                              ..\..\platform\libs\libplatform.a(main.o) (s_bcnt)
..\..\platform\libs\libplatform.a(saradc.o)
                              Output\obj\platform\bsp\bsp_key.o (saradc_setup_time_set)
..\..\platform\libs\libplatform.a(sys.o)
                              Output\obj\platform\bsp\bsp_cm.o (sys_get_rand_key)
..\..\platform\libs\libplatform.a(sys_clk.o)
                              Output\obj\platform\bsp\bsp_bt.o (get_cur_sysclk)
..\..\platform\libs\libplatform.a(sys_msg.o)
                              Output\obj\platform\bsp\bsp_sys.o (msg_queue_init)
..\..\platform\libs\libplatform.a(update.o)
                              Output\obj\platform\functions\func_update.o (updatefile_init)
..\..\platform\libs\libplatform.a(voltage_trim.o)
                              ..\..\platform\libs\libplatform.a(main.o) (voltage_trim_value_init)
..\..\platform\libs\libplatform.a(weak_symbol.o)
                              ..\..\platform\libs\libplatform.a(audio_eq.o) (music_eq_get_bass_tbl)
..\..\platform\libs\libplatform.a(thread_driver.o)
                              ..\..\platform\libs\libplatform.a(stream.o) (os_mq_driver_post)
..\..\platform\libs\libplatform.a(audio_pcm.o)
                              ..\..\platform\libs\libplatform.a(sdadc.o) (os_mq_aupcm_post)
..\..\platform\libs\libplatform.a(bt_ota.o)
                              ..\..\platform\libs\libplatform.a(update.o) (bt_pf_read)
..\..\platform\libs\libbtstack.a(bb.o)
                              ..\..\platform\libs\libplatform.a(startup.o) (bthw_get_heap_info)
..\..\platform\libs\libbtstack.a(bb_rf.o)
                              Output\obj\platform\bsp\bsp_sys.o (bt_get_hvbko)
..\..\platform\libs\libbtstack.a(ble.o)
                              ..\..\platform\libs\libbtstack.a(bb.o) (ble_init)
..\..\platform\libs\libbtstack.a(ble_con.o)
                              ..\..\platform\libs\libbtstack.a(ble.o) (hwble_init)
..\..\platform\libs\libbtstack.a(ble_evt.o)
                              ..\..\platform\libs\libbtstack.a(ble_con.o) (ble_evt_free_do)
..\..\platform\libs\libbtstack.a(ble_lc.o)
                              ..\..\platform\libs\libbtstack.a(ble_con.o) (ble_lc_check_update_evt_sent)
..\..\platform\libs\libbtstack.a(ble_lm.o)
                              ..\..\platform\libs\libbtstack.a(ble_con.o) (ble_lm_adv_data_update)
..\..\platform\libs\libbtstack.a(ble_sleep.o)
                              ..\..\platform\libs\libbtstack.a(bb.o) (lld_sleep_check)
..\..\platform\libs\libbtstack.a(bt21.o)
                              ..\..\platform\libs\libbtstack.a(bb.o) (bt21_init)
..\..\platform\libs\libbtstack.a(ext_acl.o)
                              ..\..\platform\libs\libbtstack.a(bb.o) (p_acl_conn)
..\..\platform\libs\libbtstack.a(ext_afh.o)
                              ..\..\platform\libs\libbtstack.a(bb.o) (lc_afh_map)
..\..\platform\libs\libbtstack.a(ext_bt.o)
                              ..\..\platform\libs\libbtstack.a(bt21.o) (ext_lc_clock_isr)
..\..\platform\libs\libbtstack.a(ext_flush.o)
                              ..\..\platform\libs\libbtstack.a(ext_bt.o) (lc_flush_sbc_buf)
..\..\platform\libs\libbtstack.a(ext_init.o)
                              ..\..\platform\libs\libbtstack.a(bb.o) (hwbt_reset)
..\..\platform\libs\libbtstack.a(ext_plc.o)
                              ..\..\platform\libs\libplatform.a(audio_karaok.o) (plc_buf)
..\..\platform\libs\libbtstack.a(ext_scan.o)
                              ..\..\platform\libs\libbtstack.a(ext_init.o) (ext_lc_get_scan_rssi)
..\..\platform\libs\libbtstack.a(ext_sco.o)
                              Output\obj\platform\bsp\bsp_audio.o (bt_sco_process)
..\..\platform\libs\libbtstack.a(ext_tws.o)
                              ..\..\platform\libs\libplatform.a(interrupt.o) (tws_timer_isr)
..\..\platform\libs\libbtstack.a(ext_util.o)
                              ..\..\platform\libs\libbtstack.a(ext_init.o) (hwbt_set_bd_addr)
..\..\platform\libs\libbtstack.a(lc.o)
                              ..\..\platform\libs\libbtstack.a(bt21.o) (lc_init)
..\..\platform\libs\libbtstack.a(lc_acl.o)
                              ..\..\platform\libs\libbtstack.a(ext_init.o) (lc_acl_init_fifo)
..\..\platform\libs\libbtstack.a(lc_afh.o)
                              ..\..\platform\libs\libbtstack.a(ext_init.o) (lc_afh_init)
..\..\platform\libs\libbtstack.a(lc_cqddr.o)
                              ..\..\platform\libs\libbtstack.a(lc.o) (lc_init_cqddr)
..\..\platform\libs\libbtstack.a(lc_lmppdu.o)
                              ..\..\platform\libs\libbtstack.a(lc.o) (lc_send_lmp)
..\..\platform\libs\libbtstack.a(lc_proc.o)
                              ..\..\platform\libs\libbtstack.a(lc.o) (lc_state)
..\..\platform\libs\libbtstack.a(lc_pwrctrl.o)
                              ..\..\platform\libs\libbtstack.a(lc_proc.o) (lc_epc_response_ind)
..\..\platform\libs\libbtstack.a(lc_sco.o)
                              ..\..\platform\libs\libbtstack.a(lc.o) (lc_sco_init)
..\..\platform\libs\libbtstack.a(lc_util.o)
                              ..\..\platform\libs\libbtstack.a(ext_init.o) (lc_util_rsw_en)
..\..\platform\libs\libbtstack.a(lm.o)
                              ..\..\platform\libs\libbtstack.a(bt21.o) (lm_init)
..\..\platform\libs\libbtstack.a(lm_key.o)
                              ..\..\platform\libs\libbtstack.a(lc.o) (E1)
..\..\platform\libs\libbtstack.a(lm_proc.o)
                              ..\..\platform\libs\libbtstack.a(lm.o) (lm_state)
..\..\platform\libs\libbtstack.a(lm_sco.o)
                              ..\..\platform\libs\libbtstack.a(lc_sco.o) (lm_get_sync_param)
..\..\platform\libs\libbtstack.a(lm_sleep.o)
                              ..\..\platform\libs\libbtstack.a(ext_init.o) (lm_sleep_init)
..\..\platform\libs\libbtstack.a(lm_sniff.o)
                              ..\..\platform\libs\libbtstack.a(lm.o) (lm_init_sniff)
..\..\platform\libs\libbtstack.a(lm_sp.o)
                              ..\..\platform\libs\libbtstack.a(lc.o) (lm_sp_get_pairing_mode)
..\..\platform\libs\libbtstack.a(lm_util.o)
                              ..\..\platform\libs\libbtstack.a(lm_sco.o) (lm_util_get_offset_clkn)
..\..\platform\libs\libbtstack.a(bb_buf.o)
                              ..\..\platform\libs\libbtstack.a(bt21.o) (bb_buf_init)
..\..\platform\libs\libbtstack.a(bb_utils.o)
                              ..\..\platform\libs\libbtstack.a(lc.o) (bb_slot_to_ticks)
..\..\platform\libs\libbtstack.a(complex.o)
                              ..\..\platform\libs\libbtstack.a(bb_rf.o) (complexSubtract)
..\..\platform\libs\libbtstack.a(nanos.o)
                              ..\..\platform\libs\libbtstack.a(bb.o) (nanos_event_set)
..\..\platform\libs\libbtstack.a(hcic.o)
                              ..\..\platform\libs\libbtstack.a(lm_proc.o) (hci_host_buf_size_set)
..\..\platform\libs\libbtstack.a(hcic_msg.o)
                              ..\..\platform\libs\libbtstack.a(hcic.o) (hci_cmd_aligned_unpk)
..\..\platform\libs\libbtstack.a(hcic_proc.o)
                              ..\..\platform\libs\libbtstack.a(hcic.o) (hci_state)
..\..\platform\libs\libbtstack.a(vs.o)
                              ..\..\platform\libs\libbtstack.a(bt21.o) (vs_init)
..\..\platform\libs\libbtstack.a(vs_proc.o)
                              ..\..\platform\libs\libbtstack.a(vs.o) (vs_state)
..\..\platform\libs\libbtstack.a(btstack_api.o)
                              Output\obj\platform\bsp\bsp_sys.o (bt_init)
..\..\platform\libs\libbtstack.a(btstack_chipset_inner.o)
                              ..\..\platform\libs\libbtstack.a(btstack_api.o) (btstack_chipset_inner_instance)
..\..\platform\libs\libbtstack.a(btstack_gatt_server.o)
                              ..\..\platform\libs\libbtstack.a(btstack_api.o) (btstack_ble_send)
..\..\platform\libs\libbtstack.a(btstack_hal.o)
                              ..\..\platform\libs\libbtstack.a(bb.o) (hal_tick_set_handler)
..\..\platform\libs\libbtstack.a(btstack_main.o)
                              ..\..\platform\libs\libbtstack.a(btstack_api.o) (btstack_main)
..\..\platform\libs\libbtstack.a(btstack_misc.o)
                              ..\..\platform\libs\libbtstack.a(btstack_hal.o) (huart_get_rxcnt)
..\..\platform\libs\libbtstack.a(hci_transport_hcic.o)
                              ..\..\platform\libs\libbtstack.a(btstack_api.o) (hci_init_var)
..\..\platform\libs\libbtstack.a(weak_symbol.o)
                              ..\..\platform\libs\libbtstack.a(ext_init.o) (bt_sniff_featuer_disable)
..\..\platform\libs\libbtstack.a(btstack_link_ctrl.o)
                              ..\..\platform\libs\libbtstack.a(btstack_api.o) (get_link_ctrl_context_for_bd_addr)
..\..\platform\libs\libbtstack.a(btstack_memory.o)
                              ..\..\platform\libs\libbtstack.a(btstack_api.o) (btstack_memory_init)
..\..\platform\libs\libbtstack.a(btstack_memory_pool.o)
                              ..\..\platform\libs\libbtstack.a(btstack_memory.o) (btstack_memory_pool_get)
..\..\platform\libs\libbtstack.a(btstack_run_loop.o)
                              ..\..\platform\libs\libbtstack.a(btstack_link_ctrl.o) (btstack_run_loop_set_timer_handler)
..\..\platform\libs\libbtstack.a(btstack_tws.o)
                              ..\..\platform\libs\libbtstack.a(btstack_main.o) (btstack_tws_init)
..\..\platform\libs\libbtstack.a(btstack_util.o)
                              ..\..\platform\libs\libbtstack.a(btstack_api.o) (reverse_bd_addr)
..\..\platform\libs\libbtstack.a(a2dp.o)
                              ..\..\platform\libs\libbtstack.a(btstack_api.o) (a2dp_get_playing_connection)
..\..\platform\libs\libbtstack.a(a2dp_play.o)
                              ..\..\platform\libs\libbtstack.a(a2dp.o) (sbc_play_init)
..\..\platform\libs\libbtstack.a(a2dp_send.o)
                              ..\..\platform\libs\libbtstack.a(a2dp.o) (sbc_res_init)
..\..\platform\libs\libbtstack.a(avctp.o)
                              ..\..\platform\libs\libbtstack.a(btstack_api.o) (avctp_play_pause_for_conn)
..\..\platform\libs\libbtstack.a(avdtp.o)
                              ..\..\platform\libs\libbtstack.a(a2dp.o) (avdtp_init)
..\..\platform\libs\libbtstack.a(btstack_link_key_db.o)
                              ..\..\platform\libs\libbtstack.a(btstack_api.o) (btstack_open_link_info)
..\..\platform\libs\libbtstack.a(hfp.o)
                              ..\..\platform\libs\libbtstack.a(btstack_main.o) (hfp_var_init)
..\..\platform\libs\libbtstack.a(hfp_hf.o)
                              ..\..\platform\libs\libbtstack.a(hfp.o) (hfp_is_list_curr_calls)
..\..\platform\libs\libbtstack.a(hid_device.o)
                              Output\obj\platform\bsp\bsp_bt.o (bt_hid_is_connected)
..\..\platform\libs\libbtstack.a(hid_usage.o)
                              ..\..\platform\libs\libbtstack.a(hid_device.o) (hid_report_init)
..\..\platform\libs\libbtstack.a(rfcomm.o)
                              ..\..\platform\libs\libbtstack.a(btstack_main.o) (rfcomm_init)
..\..\platform\libs\libbtstack.a(sdp_client.o)
                              ..\..\platform\libs\libbtstack.a(a2dp.o) (sdp_client_query)
..\..\platform\libs\libbtstack.a(sdp_server.o)
                              ..\..\platform\libs\libbtstack.a(btstack_main.o) (sdp_init)
..\..\platform\libs\libbtstack.a(sdp_tbl.o)
                              ..\..\platform\libs\libbtstack.a(btstack_main.o) (device_id_sdp_service_buffer)
..\..\platform\libs\libbtstack.a(sdp_util.o)
                              ..\..\platform\libs\libbtstack.a(sdp_server.o) (de_get_size_type)
..\..\platform\libs\libbtstack.a(spp.o)
                              Output\obj\platform\bsp\bsp_eq.o (bt_spp_tx)
..\..\platform\libs\libbtstack.a(hci.o)
                              ..\..\platform\libs\libbtstack.a(btstack_api.o) (hci_connection_for_handle)
..\..\platform\libs\libbtstack.a(hci_cmd.o)
                              ..\..\platform\libs\libbtstack.a(hci.o) (hci_cmd_create_from_template)
..\..\platform\libs\libbtstack.a(hci_dump.o)
                              ..\..\platform\libs\libbtstack.a(btstack_api.o) (hci_dump_open)
..\..\platform\libs\libbtstack.a(hci_sco.o)
                              ..\..\platform\libs\libbtstack.a(btstack_api.o) (sco_init_var)
..\..\platform\libs\libbtstack.a(l2cap.o)
                              ..\..\platform\libs\libbtstack.a(btstack_api.o) (l2cap_send_test_key)
..\..\platform\libs\libbtstack.a(l2cap_signaling.o)
                              ..\..\platform\libs\libbtstack.a(l2cap.o) (l2cap_next_sig_id)
..\..\platform\libs\libbtstack.a(l2cap_test.o)
                              ..\..\platform\libs\libbtstack.a(hci.o) (l2cap_end_of_test)
..\..\platform\libs\libbtstack.a(btstack_asm.o)
                              ..\..\platform\libs\libbtstack.a(bb.o) (nanos_env)
..\..\platform\libs\libbtstack.a(ext_rsw.o)
                              ..\..\platform\libs\libbtstack.a(lc_proc.o) (lc_rsw_req)
..\..\platform\libs\libbtstack.a(ext_sniff.o)
                              ..\..\platform\libs\libbtstack.a(lc.o) (lc_sniff_entry_transition_mode)
..\..\platform\libs\libbtstack.a(ext_tsco.o)
                              ..\..\platform\libs\libbtstack.a(lc_proc.o) (lc_tsco_remote_setup)
..\..\platform\libs\libbtstack.a(lc_scan.o)
                              ..\..\platform\libs\libbtstack.a(lm_proc.o) (lc_scan_set_eir)
..\..\platform\libs\libbtstack.a(lm_hmac.o)
                              ..\..\platform\libs\libbtstack.a(lm_sp.o) (lm_n_is_zero)
..\..\platform\libs\libbtstack.a(btstack_linked_list.o)
                              ..\..\platform\libs\libbtstack.a(rfcomm.o) (btstack_linked_list_empty)
..\..\platform\libs\libdrivers.a(diskio.o)
                              Output\obj\platform\functions\func_music.o (fsdisk_callback_init)
..\..\platform\libs\libdrivers.a(pff_fat.o)
                              Output\obj\platform\functions\func_music.o (fs_scan_set)
..\..\platform\libs\libdrivers.a(pff_fat2.o)
                              ..\..\platform\libs\libdrivers.a(pff_fat.o) (t_file)
..\..\platform\libs\libdrivers.a(sd.o)
                              ..\..\platform\libs\libplatform.a(sd_api.o) (sd_read_wait)
..\..\platform\libs\libdrivers.a(usb_comm.o)
                              ..\..\platform\libs\libplatform.a(device.o) (usb_init)
..\..\platform\libs\libdrivers.a(usb_detect.o)
                              ..\..\platform\libs\libdrivers.a(usb_comm.o) (usbchk_switch_otg_device)
..\..\platform\libs\libdrivers.a(usb_device_audio.o)
                              Output\obj\platform\bsp\bsp_audio.o (usbmic_sdadc_process)
..\..\platform\libs\libdrivers.a(usb_device_enum.o)
                              ..\..\platform\libs\libplatform.a(thread_driver.o) (ude_ep_reset)
..\..\platform\libs\libdrivers.a(usb_device_ep.o)
                              ..\..\platform\libs\libdrivers.a(usb_device_audio.o) (usb_set_cur_ep)
..\..\platform\libs\libdrivers.a(usb_device_hid.o)
                              Output\obj\platform\bsp\bsp_sys.o (ude_tmr_isr)
..\..\platform\libs\libdrivers.a(usb_device_run_loop.o)
                              Output\obj\platform\functions\func_usbdev.o (usb_device_exit)
..\..\platform\libs\libdrivers.a(usb_device_storage.o)
                              ..\..\platform\libs\libdrivers.a(usb_device_enum.o) (usb_bulk_reset)
..\..\platform\libs\libdrivers.a(usb_device_table.o)
                              ..\..\platform\libs\libdrivers.a(usb_device_enum.o) (desc_hid_report)
..\..\platform\libs\libdrivers.a(usb_host_manage.o)
                              ..\..\platform\libs\libdrivers.a(usb_comm.o) (usb_host_var_init)
..\..\platform\libs\libdrivers.a(usb_host_storage.o)
                              ..\..\platform\libs\libdrivers.a(usb_host_manage.o) (uhs_start)
..\..\platform\libs\libdrivers.a(pff.o)
                              ..\..\platform\libs\libdrivers.a(pff_fat.o) (set_move_window)
..\..\platform\libs\libdrivers.a(usb_host_enum.o)
                              ..\..\platform\libs\libdrivers.a(usb_host_manage.o) (uhe_start)
..\..\platform\libs\libcodecs.a(aviobuf.o)
                              ..\..\platform\libs\libplatform.a(music_res.o) (avio_get_sample_index)
..\..\platform\libs\libcodecs.a(codecs_com.o)
                              Output\obj\projects\standard\message\msg_music.o (music_qskip)
..\..\platform\libs\libcodecs.a(drc.o)
                              ..\..\platform\libs\libplatform.a(dac.o) (drc_init)
..\..\platform\libs\libcodecs.a(s_drc.o)
                              ..\..\platform\libs\libcodecs.a(drc.o) (pow2_coef_cal_s)
..\..\platform\libs\libcodecs.a(vbass.o)
                              ..\..\platform\libs\libplatform.a(dac.o) (vbass_init)
..\..\platform\libs\libcodecs.a(wsola.o)
                              ..\..\platform\libs\libplatform.a(audio_karaok.o) (magic_voice_init)
..\..\platform\libs\libcodecs.a(mp3_dec.o)
                              ..\..\platform\libs\libplatform.a(music.o) (mp3_get_total_time)
..\..\platform\libs\libcodecs.a(bt_sbc.o)
                              ..\..\platform\libs\libbtstack.a(avdtp.o) (sbc_cache_is_empty)
..\..\platform\libs\libcodecs.a(sbc.o)
                              ..\..\platform\libs\libbtstack.a(a2dp_play.o) (sbc_crc8)
..\..\platform\libs\libcodecs.a(sbc_dec.o)
                              ..\..\platform\libs\libcodecs.a(bt_sbc.o) (sbc_unpack_reset)
..\..\platform\libs\libcodecs.a(sbcen_io.o)
                              ..\..\platform\libs\libcodecs.a(bt_sbc.o) (sbcen_obuf)
..\..\platform\libs\libcodecs.a(wavdec.o)
                              ..\..\platform\libs\libplatform.a(music.o) (wav_dec_init)
..\..\platform\libs\libcodecs.a(avio.o)
                              ..\..\platform\libs\libcodecs.a(aviobuf.o) (swapw_buf)
..\..\platform\libs\libcodecs.a(s_vbass.o)
                              ..\..\platform\libs\libcodecs.a(vbass.o) (sos_section2_3order_filter_s)
..\..\platform\libs\libcodecs.a(s_wsola.o)
                              ..\..\platform\libs\libcodecs.a(wsola.o) (mav_pos_fast_s)
..\..\platform\libs\libcodecs.a(bit.o)
                              ..\..\platform\libs\libcodecs.a(mp3_dec.o) (mp3_stream_bit_init)
..\..\platform\libs\libcodecs.a(frame.o)
                              ..\..\platform\libs\libcodecs.a(mp3_dec.o) (mad_frame_finish)
..\..\platform\libs\libcodecs.a(layer12.o)
                              ..\..\platform\libs\libcodecs.a(frame.o) (mad_layer_I)
..\..\platform\libs\libcodecs.a(layer3.o)
                              ..\..\platform\libs\libcodecs.a(frame.o) (III_sideinfo)
..\..\platform\libs\libcodecs.a(huffman.o)
                              ..\..\platform\libs\libcodecs.a(layer3.o) (mad_huff_pair_table)

Allocating common symbols
Common symbol       size              file

temp_far_rptr       0x4               ..\..\platform\libs\libplatform.a(bt_aec.o)
pmutex_irtc         0x4               ..\..\platform\libs\libplatform.a(startup.o)
src_isr_process     0x4               ..\..\platform\libs\libplatform.a(interrupt.o)
f_bt_ring           0x20              Output\obj\platform\functions\sfunc_bt_ring.o
epcb2_rx            0x18              ..\..\platform\libs\libdrivers.a(usb_device_run_loop.o)
eps                 0x24              ..\..\platform\libs\libdrivers.a(usb_device_ep.o)
win_buf             0x200             ..\..\platform\libs\libdrivers.a(diskio.o)
pmutex_uart         0x4               ..\..\platform\libs\libplatform.a(startup.o)
iir_coef            0x38              ..\..\platform\libs\libplatform.a(audio_karaok.o)
tws_ticks_env       0x24              ..\..\platform\libs\libbtstack.a(ext_tws.o)
sco_phase_en        0x1               ..\..\platform\libs\libplatform.a(bt_sco.o)
psem_twshw          0x4               ..\..\platform\libs\libplatform.a(startup.o)
sdcfg_0             0x10              ..\..\platform\libs\libplatform.a(sd_api.o)
bt_plc_buf          0x1e0             ..\..\platform\libs\libcodecs.a(bt_sbc.o)
m_drc               0x38              ..\..\platform\libs\libcodecs.a(drc.o)
diskio              0x10              ..\..\platform\libs\libdrivers.a(diskio.o)
psem_mschw          0x4               ..\..\platform\libs\libplatform.a(startup.o)
pmq_music           0x4               ..\..\platform\libs\libplatform.a(startup.o)
pmutex_dac          0x4               ..\..\platform\libs\libplatform.a(startup.o)
eq_rx_buf           0x10e             Output\obj\platform\bsp\bsp_eq.o
f_ude               0x4               Output\obj\platform\functions\func_usbdev.o
sco_far_delay       0x4               ..\..\platform\libs\libbtstack.a(hci_sco.o)
f_bt                0x7               Output\obj\platform\functions\func_bt.o
dac_dvol_table      0x4               Output\obj\platform\bsp\bsp_dac.o
pmutex_cm           0x4               ..\..\platform\libs\libplatform.a(startup.o)
tmr5ms_cnt          0x2               ..\..\platform\libs\libplatform.a(interrupt.o)
psem_usb            0x4               ..\..\platform\libs\libplatform.a(startup.o)
psem_btstack        0x4               ..\..\platform\libs\libplatform.a(startup.o)
sbcdec_frame        0x4               ..\..\platform\libs\libplatform.a(music.o)
dsk_cb              0x4               ..\..\platform\libs\libdrivers.a(diskio.o)
ude_0               0x28              ..\..\platform\libs\libdrivers.a(usb_device_run_loop.o)
pwrkey_detect_flag  0x4               Output\obj\projects\standard\plugin\plugin.o
user_timer_isr_en   0x4               ..\..\platform\libs\libplatform.a(startup.o)
lun_0               0x18              ..\..\platform\libs\libdrivers.a(usb_device_run_loop.o)
unpack_header       0x4               ..\..\platform\libs\libcodecs.a(sbc_dec.o)
stm_cb              0x18              ..\..\platform\libs\libplatform.a(stream.o)
pmq_aupcm           0x4               ..\..\platform\libs\libplatform.a(startup.o)
psem_aubuf1         0x4               ..\..\platform\libs\libplatform.a(startup.o)
pmq_btstack         0x4               ..\..\platform\libs\libplatform.a(startup.o)
eq_dbg_cb           0x8               Output\obj\platform\bsp\bsp_eq.o
usb_device_qualifier
                    0xa               ..\..\platform\libs\libdrivers.a(usb_device_enum.o)
psem_stm            0x4               ..\..\platform\libs\libplatform.a(startup.o)
epcb1_rx            0x18              ..\..\platform\libs\libdrivers.a(usb_device_run_loop.o)
micl2gnd_flag       0x4               Output\obj\platform\bsp\bsp_sys.o
plc_buf             0x654             ..\..\platform\libs\libbtstack.a(ext_plc.o)
spi_dummy_byte      0x4               ..\..\platform\libs\libplatform.a(spiflash.o)
bt_rec_en           0x4               ..\..\platform\libs\libplatform.a(bt_rec.o)
mav_cb              0x28              ..\..\platform\libs\libcodecs.a(wsola.o)
f_aux               0x2               Output\obj\platform\functions\func_aux.o
rf_cfg              0x8               Output\obj\platform\bsp\bsp_bt.o
sdfunc_0            0x18              ..\..\platform\libs\libplatform.a(sd_api.o)
uhs_0               0x48              ..\..\platform\libs\libdrivers.a(usb_host_manage.o)
bt_thread_res       0x4               ..\..\platform\libs\libplatform.a(bt.o)
bt_timer_isr_en     0x4               ..\..\platform\libs\libplatform.a(startup.o)
dac_avol_table      0x4               Output\obj\platform\bsp\bsp_dac.o
uhe_0               0x28              ..\..\platform\libs\libdrivers.a(usb_host_manage.o)
bthw_soft_flag      0x4               ..\..\platform\libs\libplatform.a(bt.o)
epcb2_tx            0x18              ..\..\platform\libs\libdrivers.a(usb_device_run_loop.o)
udh_0               0x8               ..\..\platform\libs\libdrivers.a(usb_device_run_loop.o)
pmutex_pff          0x4               ..\..\platform\libs\libplatform.a(startup.o)
f_spk               0x1               Output\obj\platform\functions\func_speaker.o
fname_buf           0x64              Output\obj\platform\functions\func_music.o
psem_src            0x4               ..\..\platform\libs\libplatform.a(startup.o)
psem_bthw           0x4               ..\..\platform\libs\libplatform.a(startup.o)
psem_plc            0x4               ..\..\platform\libs\libplatform.a(startup.o)
sys                 0xc               ..\..\platform\libs\libplatform.a(main.o)
bt_sbc_flag         0x4               ..\..\platform\libs\libcodecs.a(bt_sbc.o)
sum                 0x8               ..\..\platform\libs\libcodecs.a(drc.o)
kara_cb             0x20              ..\..\platform\libs\libplatform.a(audio_karaok.o)
btstack_cb          0x5               ..\..\platform\libs\libbtstack.a(btstack_api.o)
bt_sco_rec_en       0x4               ..\..\platform\libs\libplatform.a(bt_rec.o)
ext_plc_cb          0x44              ..\..\platform\libs\libbtstack.a(ext_plc.o)
btstack_st          0x2c              ..\..\platform\libs\libbtstack.a(btstack_api.o)
f_upd               0x4               Output\obj\platform\functions\func_update.o
tmr0_counter        0x4               ..\..\platform\libs\libplatform.a(interrupt.o)
stm_avio            0xc               ..\..\platform\libs\libplatform.a(stream.o)
epcb3_tx            0x18              ..\..\platform\libs\libdrivers.a(usb_device_run_loop.o)
sbcen_cb            0x8               ..\..\platform\libs\libcodecs.a(sbcen_io.o)
sdcb_0              0x38              ..\..\platform\libs\libplatform.a(sd_api.o)
psem_sd             0x4               ..\..\platform\libs\libplatform.a(startup.o)
ms_tick             0x4               ..\..\platform\libs\libplatform.a(interrupt.o)
audio_src_cb        0x14              ..\..\platform\libs\libplatform.a(audio_src.o)
psem_aubuf          0x4               ..\..\platform\libs\libplatform.a(startup.o)
p_hci_transport     0x4               ..\..\platform\libs\libbtstack.a(hci_transport_hcic.o)
sdfunc              0x4               ..\..\platform\libs\libplatform.a(sd_api.o)
psem_aec            0x4               ..\..\platform\libs\libplatform.a(startup.o)
bt_src_done_flag    0x4               ..\..\platform\libs\libplatform.a(bt_rec.o)
temp_fifo_cnt       0x4               ..\..\platform\libs\libplatform.a(bt_aec.o)
hwble_env           0x24              ..\..\platform\libs\libbtstack.a(ble_con.o)
epcb1_tx            0x18              ..\..\platform\libs\libdrivers.a(usb_device_run_loop.o)
sdadc_cb            0x14              ..\..\platform\libs\libplatform.a(sdadc.o)
pmq_driver          0x4               ..\..\platform\libs\libplatform.a(startup.o)
box_cb              0xc               Output\obj\platform\gui\gui.o
xcfg_cb             0x116             Output\obj\platform\bsp\bsp_sys.o
uds_0               0x34              ..\..\platform\libs\libdrivers.a(usb_device_run_loop.o)
sco_hci_rx_buf      0x3c0             ..\..\platform\libs\libbtstack.a(ext_sco.o)
sys_trim            0x8               ..\..\platform\libs\libplatform.a(voltage_trim.o)
uda_0               0x10              ..\..\platform\libs\libdrivers.a(usb_device_run_loop.o)
sdcfg               0x4               ..\..\platform\libs\libplatform.a(sd_api.o)
sd_cb               0x4               ..\..\platform\libs\libplatform.a(sd_api.o)
f_spdif             0x1               Output\obj\platform\functions\func_spdif.o

Discarded input sections

 .text          0x0000000000000000        0x0 Output\obj\platform\bsp\bsp_app.o
 .data          0x0000000000000000        0x0 Output\obj\platform\bsp\bsp_app.o
 .bss           0x0000000000000000        0x0 Output\obj\platform\bsp\bsp_app.o
 .comment       0x0000000000000000       0x12 Output\obj\platform\bsp\bsp_app.o
 .text          0x0000000000000000        0x0 Output\obj\platform\bsp\bsp_audio.o
 .data          0x0000000000000000        0x0 Output\obj\platform\bsp\bsp_audio.o
 .bss           0x0000000000000000        0x0 Output\obj\platform\bsp\bsp_audio.o
 .text          0x0000000000000000        0x0 Output\obj\platform\bsp\bsp_aux.o
 .data          0x0000000000000000        0x0 Output\obj\platform\bsp\bsp_aux.o
 .bss           0x0000000000000000        0x0 Output\obj\platform\bsp\bsp_aux.o
 .text          0x0000000000000000        0x0 Output\obj\platform\bsp\bsp_ble.o
 .data          0x0000000000000000        0x0 Output\obj\platform\bsp\bsp_ble.o
 .bss           0x0000000000000000        0x0 Output\obj\platform\bsp\bsp_ble.o
 .comment       0x0000000000000000       0x12 Output\obj\platform\bsp\bsp_ble.o
 .text          0x0000000000000000        0x0 Output\obj\platform\bsp\bsp_bt.o
 .bss           0x0000000000000000        0x0 Output\obj\platform\bsp\bsp_bt.o
 .text.bsp_bt_close
                0x0000000000000000        0x2 Output\obj\platform\bsp\bsp_bt.o
 .sdata         0x0000000000000000        0xf Output\obj\platform\bsp\bsp_bt.o
 .text          0x0000000000000000        0x0 Output\obj\platform\bsp\bsp_car_audio.o
 .data          0x0000000000000000        0x0 Output\obj\platform\bsp\bsp_car_audio.o
 .bss           0x0000000000000000        0x0 Output\obj\platform\bsp\bsp_car_audio.o
 .comment       0x0000000000000000       0x12 Output\obj\platform\bsp\bsp_car_audio.o
 .text          0x0000000000000000        0x0 Output\obj\platform\bsp\bsp_charge.o
 .data          0x0000000000000000        0x0 Output\obj\platform\bsp\bsp_charge.o
 .bss           0x0000000000000000        0x0 Output\obj\platform\bsp\bsp_charge.o
 .comment       0x0000000000000000       0x12 Output\obj\platform\bsp\bsp_charge.o
 .text          0x0000000000000000        0x0 Output\obj\platform\bsp\bsp_cm.o
 .data          0x0000000000000000        0x0 Output\obj\platform\bsp\bsp_cm.o
 .bss           0x0000000000000000        0x0 Output\obj\platform\bsp\bsp_cm.o
 .text          0x0000000000000000        0x0 Output\obj\platform\bsp\bsp_dac.o
 .data          0x0000000000000000        0x0 Output\obj\platform\bsp\bsp_dac.o
 .bss           0x0000000000000000        0x0 Output\obj\platform\bsp\bsp_dac.o
 .text          0x0000000000000000        0x0 Output\obj\platform\bsp\bsp_eq.o
 .data          0x0000000000000000        0x0 Output\obj\platform\bsp\bsp_eq.o
 .sdata         0x0000000000000000        0x4 Output\obj\platform\bsp\bsp_eq.o
 .text          0x0000000000000000        0x0 Output\obj\platform\bsp\bsp_fmrx.o
 .data          0x0000000000000000        0x0 Output\obj\platform\bsp\bsp_fmrx.o
 .bss           0x0000000000000000        0x0 Output\obj\platform\bsp\bsp_fmrx.o
 .text          0x0000000000000000        0x0 Output\obj\platform\bsp\bsp_fmtx.o
 .data          0x0000000000000000        0x0 Output\obj\platform\bsp\bsp_fmtx.o
 .bss           0x0000000000000000        0x0 Output\obj\platform\bsp\bsp_fmtx.o
 .comment       0x0000000000000000       0x12 Output\obj\platform\bsp\bsp_fmtx.o
 .text          0x0000000000000000        0x0 Output\obj\platform\bsp\bsp_fs.o
 .data          0x0000000000000000        0x0 Output\obj\platform\bsp\bsp_fs.o
 .bss           0x0000000000000000        0x0 Output\obj\platform\bsp\bsp_fs.o
 .text          0x0000000000000000        0x0 Output\obj\platform\bsp\bsp_i2c.o
 .data          0x0000000000000000        0x0 Output\obj\platform\bsp\bsp_i2c.o
 .bss           0x0000000000000000        0x0 Output\obj\platform\bsp\bsp_i2c.o
 .comment       0x0000000000000000       0x12 Output\obj\platform\bsp\bsp_i2c.o
 .text          0x0000000000000000        0x0 Output\obj\platform\bsp\bsp_i2s.o
 .data          0x0000000000000000        0x0 Output\obj\platform\bsp\bsp_i2s.o
 .bss           0x0000000000000000        0x0 Output\obj\platform\bsp\bsp_i2s.o
 .comment       0x0000000000000000       0x12 Output\obj\platform\bsp\bsp_i2s.o
 .text          0x0000000000000000        0x0 Output\obj\platform\bsp\bsp_i2s_ta5711.o
 .data          0x0000000000000000        0x0 Output\obj\platform\bsp\bsp_i2s_ta5711.o
 .bss           0x0000000000000000        0x0 Output\obj\platform\bsp\bsp_i2s_ta5711.o
 .comment       0x0000000000000000       0x12 Output\obj\platform\bsp\bsp_i2s_ta5711.o
 .text          0x0000000000000000        0x0 Output\obj\platform\bsp\bsp_i2s_wm8978.o
 .data          0x0000000000000000        0x0 Output\obj\platform\bsp\bsp_i2s_wm8978.o
 .bss           0x0000000000000000        0x0 Output\obj\platform\bsp\bsp_i2s_wm8978.o
 .comment       0x0000000000000000       0x12 Output\obj\platform\bsp\bsp_i2s_wm8978.o
 .text          0x0000000000000000        0x0 Output\obj\platform\bsp\bsp_iap.o
 .data          0x0000000000000000        0x0 Output\obj\platform\bsp\bsp_iap.o
 .bss           0x0000000000000000        0x0 Output\obj\platform\bsp\bsp_iap.o
 .text          0x0000000000000000        0x0 Output\obj\platform\bsp\bsp_id3_tag.o
 .data          0x0000000000000000        0x0 Output\obj\platform\bsp\bsp_id3_tag.o
 .bss           0x0000000000000000        0x0 Output\obj\platform\bsp\bsp_id3_tag.o
 .comment       0x0000000000000000       0x12 Output\obj\platform\bsp\bsp_id3_tag.o
 .text          0x0000000000000000        0x0 Output\obj\platform\bsp\bsp_ir.o
 .data          0x0000000000000000        0x0 Output\obj\platform\bsp\bsp_ir.o
 .bss           0x0000000000000000        0x0 Output\obj\platform\bsp\bsp_ir.o
 .text          0x0000000000000000        0x0 Output\obj\platform\bsp\bsp_karaok.o
 .data          0x0000000000000000        0x0 Output\obj\platform\bsp\bsp_karaok.o
 .bss           0x0000000000000000        0x0 Output\obj\platform\bsp\bsp_karaok.o
 .comment       0x0000000000000000       0x12 Output\obj\platform\bsp\bsp_karaok.o
 .text          0x0000000000000000        0x0 Output\obj\platform\bsp\bsp_key.o
 .data          0x0000000000000000        0x0 Output\obj\platform\bsp\bsp_key.o
 .bss           0x0000000000000000        0x0 Output\obj\platform\bsp\bsp_key.o
 .com_text.detect
                0x0000000000000000        0x2 Output\obj\platform\bsp\bsp_key.o
 .sdata         0x0000000000000000        0x6 Output\obj\platform\bsp\bsp_key.o
 .text          0x0000000000000000        0x0 Output\obj\platform\bsp\bsp_led.o
 .data          0x0000000000000000        0x0 Output\obj\platform\bsp\bsp_led.o
 .bss           0x0000000000000000        0x0 Output\obj\platform\bsp\bsp_led.o
 .text.charge_bled_on
                0x0000000000000000       0x12 Output\obj\platform\bsp\bsp_led.o
 .text          0x0000000000000000        0x0 Output\obj\platform\bsp\bsp_lrc.o
 .data          0x0000000000000000        0x0 Output\obj\platform\bsp\bsp_lrc.o
 .bss           0x0000000000000000        0x0 Output\obj\platform\bsp\bsp_lrc.o
 .comment       0x0000000000000000       0x12 Output\obj\platform\bsp\bsp_lrc.o
 .text          0x0000000000000000        0x0 Output\obj\platform\bsp\bsp_music.o
 .data          0x0000000000000000        0x0 Output\obj\platform\bsp\bsp_music.o
 .bss           0x0000000000000000        0x0 Output\obj\platform\bsp\bsp_music.o
 .text.wav_res_play
                0x0000000000000000       0x74 Output\obj\platform\bsp\bsp_music.o
 .text          0x0000000000000000        0x0 Output\obj\platform\bsp\bsp_param.o
 .data          0x0000000000000000        0x0 Output\obj\platform\bsp\bsp_param.o
 .bss           0x0000000000000000        0x0 Output\obj\platform\bsp\bsp_param.o
 .text          0x0000000000000000        0x0 Output\obj\platform\bsp\bsp_record.o
 .data          0x0000000000000000        0x0 Output\obj\platform\bsp\bsp_record.o
 .bss           0x0000000000000000        0x0 Output\obj\platform\bsp\bsp_record.o
 .comment       0x0000000000000000       0x12 Output\obj\platform\bsp\bsp_record.o
 .text          0x0000000000000000        0x0 Output\obj\platform\bsp\bsp_spiflash1.o
 .data          0x0000000000000000        0x0 Output\obj\platform\bsp\bsp_spiflash1.o
 .bss           0x0000000000000000        0x0 Output\obj\platform\bsp\bsp_spiflash1.o
 .comment       0x0000000000000000       0x12 Output\obj\platform\bsp\bsp_spiflash1.o
 .text          0x0000000000000000        0x0 Output\obj\platform\bsp\bsp_spiflash1_music_bin.o
 .data          0x0000000000000000        0x0 Output\obj\platform\bsp\bsp_spiflash1_music_bin.o
 .bss           0x0000000000000000        0x0 Output\obj\platform\bsp\bsp_spiflash1_music_bin.o
 .comment       0x0000000000000000       0x12 Output\obj\platform\bsp\bsp_spiflash1_music_bin.o
 .text          0x0000000000000000        0x0 Output\obj\platform\bsp\bsp_spiflash_rec_play.o
 .data          0x0000000000000000        0x0 Output\obj\platform\bsp\bsp_spiflash_rec_play.o
 .bss           0x0000000000000000        0x0 Output\obj\platform\bsp\bsp_spiflash_rec_play.o
 .comment       0x0000000000000000       0x12 Output\obj\platform\bsp\bsp_spiflash_rec_play.o
 .text          0x0000000000000000        0x0 Output\obj\platform\bsp\bsp_spp.o
 .data          0x0000000000000000        0x0 Output\obj\platform\bsp\bsp_spp.o
 .bss           0x0000000000000000        0x0 Output\obj\platform\bsp\bsp_spp.o
 .text          0x0000000000000000        0x0 Output\obj\platform\bsp\bsp_sys.o
 .data          0x0000000000000000        0x0 Output\obj\platform\bsp\bsp_sys.o
 .bss           0x0000000000000000        0x0 Output\obj\platform\bsp\bsp_sys.o
 .text          0x0000000000000000        0x0 Output\obj\platform\bsp\fmrx\fmrx_external.o
 .data          0x0000000000000000        0x0 Output\obj\platform\bsp\fmrx\fmrx_external.o
 .bss           0x0000000000000000        0x0 Output\obj\platform\bsp\fmrx\fmrx_external.o
 .comment       0x0000000000000000       0x12 Output\obj\platform\bsp\fmrx\fmrx_external.o
 .text          0x0000000000000000        0x0 Output\obj\platform\bsp\fmrx\qn8035.o
 .data          0x0000000000000000        0x0 Output\obj\platform\bsp\fmrx\qn8035.o
 .bss           0x0000000000000000        0x0 Output\obj\platform\bsp\fmrx\qn8035.o
 .comment       0x0000000000000000       0x12 Output\obj\platform\bsp\fmrx\qn8035.o
 .text          0x0000000000000000        0x0 Output\obj\platform\functions\func.o
 .data          0x0000000000000000        0x0 Output\obj\platform\functions\func.o
 .bss           0x0000000000000000        0x0 Output\obj\platform\functions\func.o
 .text          0x0000000000000000        0x0 Output\obj\platform\functions\func_aux.o
 .data          0x0000000000000000        0x0 Output\obj\platform\functions\func_aux.o
 .bss           0x0000000000000000        0x0 Output\obj\platform\functions\func_aux.o
 .text          0x0000000000000000        0x0 Output\obj\platform\functions\func_bt.o
 .data          0x0000000000000000        0x0 Output\obj\platform\functions\func_bt.o
 .bss           0x0000000000000000        0x0 Output\obj\platform\functions\func_bt.o
 .text          0x0000000000000000        0x0 Output\obj\platform\functions\func_bt_hid.o
 .data          0x0000000000000000        0x0 Output\obj\platform\functions\func_bt_hid.o
 .bss           0x0000000000000000        0x0 Output\obj\platform\functions\func_bt_hid.o
 .text          0x0000000000000000        0x0 Output\obj\platform\functions\func_clock.o
 .data          0x0000000000000000        0x0 Output\obj\platform\functions\func_clock.o
 .bss           0x0000000000000000        0x0 Output\obj\platform\functions\func_clock.o
 .text          0x0000000000000000        0x0 Output\obj\platform\functions\func_exspifalsh_music.o
 .data          0x0000000000000000        0x0 Output\obj\platform\functions\func_exspifalsh_music.o
 .bss           0x0000000000000000        0x0 Output\obj\platform\functions\func_exspifalsh_music.o
 .comment       0x0000000000000000       0x12 Output\obj\platform\functions\func_exspifalsh_music.o
 .text          0x0000000000000000        0x0 Output\obj\platform\functions\func_fmam_freq.o
 .data          0x0000000000000000        0x0 Output\obj\platform\functions\func_fmam_freq.o
 .bss           0x0000000000000000        0x0 Output\obj\platform\functions\func_fmam_freq.o
 .comment       0x0000000000000000       0x12 Output\obj\platform\functions\func_fmam_freq.o
 .text          0x0000000000000000        0x0 Output\obj\platform\functions\func_fmrx.o
 .data          0x0000000000000000        0x0 Output\obj\platform\functions\func_fmrx.o
 .bss           0x0000000000000000        0x0 Output\obj\platform\functions\func_fmrx.o
 .text          0x0000000000000000        0x0 Output\obj\platform\functions\func_idle.o
 .data          0x0000000000000000        0x0 Output\obj\platform\functions\func_idle.o
 .bss           0x0000000000000000        0x0 Output\obj\platform\functions\func_idle.o
 .comment       0x0000000000000000       0x12 Output\obj\platform\functions\func_idle.o
 .text          0x0000000000000000        0x0 Output\obj\platform\functions\func_lowpwr.o
 .data          0x0000000000000000        0x0 Output\obj\platform\functions\func_lowpwr.o
 .bss           0x0000000000000000        0x0 Output\obj\platform\functions\func_lowpwr.o
 .text          0x0000000000000000        0x0 Output\obj\platform\functions\func_music.o
 .data          0x0000000000000000        0x0 Output\obj\platform\functions\func_music.o
 .bss           0x0000000000000000        0x0 Output\obj\platform\functions\func_music.o
 .text          0x0000000000000000        0x0 Output\obj\platform\functions\func_spdif.o
 .data          0x0000000000000000        0x0 Output\obj\platform\functions\func_spdif.o
 .bss           0x0000000000000000        0x0 Output\obj\platform\functions\func_spdif.o
 .comment       0x0000000000000000       0x12 Output\obj\platform\functions\func_spdif.o
 COMMON         0x0000000000000000        0x1 Output\obj\platform\functions\func_spdif.o
 .text          0x0000000000000000        0x0 Output\obj\platform\functions\func_speaker.o
 .data          0x0000000000000000        0x0 Output\obj\platform\functions\func_speaker.o
 .bss           0x0000000000000000        0x0 Output\obj\platform\functions\func_speaker.o
 .text          0x0000000000000000        0x0 Output\obj\platform\functions\func_update.o
 .data          0x0000000000000000        0x0 Output\obj\platform\functions\func_update.o
 .bss           0x0000000000000000        0x0 Output\obj\platform\functions\func_update.o
 COMMON         0x0000000000000000        0x4 Output\obj\platform\functions\func_update.o
 .text          0x0000000000000000        0x0 Output\obj\platform\functions\func_usbdev.o
 .data          0x0000000000000000        0x0 Output\obj\platform\functions\func_usbdev.o
 .bss           0x0000000000000000        0x0 Output\obj\platform\functions\func_usbdev.o
 .text          0x0000000000000000        0x0 Output\obj\platform\functions\sfunc_bt_call.o
 .data          0x0000000000000000        0x0 Output\obj\platform\functions\sfunc_bt_call.o
 .bss           0x0000000000000000        0x0 Output\obj\platform\functions\sfunc_bt_call.o
 .text          0x0000000000000000        0x0 Output\obj\platform\functions\sfunc_bt_ota.o
 .data          0x0000000000000000        0x0 Output\obj\platform\functions\sfunc_bt_ota.o
 .bss           0x0000000000000000        0x0 Output\obj\platform\functions\sfunc_bt_ota.o
 .text          0x0000000000000000        0x0 Output\obj\platform\functions\sfunc_bt_ring.o
 .data          0x0000000000000000        0x0 Output\obj\platform\functions\sfunc_bt_ring.o
 .bss           0x0000000000000000        0x0 Output\obj\platform\functions\sfunc_bt_ring.o
 .text.res_get_ring_num
                0x0000000000000000        0xe Output\obj\platform\functions\sfunc_bt_ring.o
 .text          0x0000000000000000        0x0 Output\obj\platform\functions\sfunc_record.o
 .data          0x0000000000000000        0x0 Output\obj\platform\functions\sfunc_record.o
 .bss           0x0000000000000000        0x0 Output\obj\platform\functions\sfunc_record.o
 .com_text.func.record
                0x0000000000000000        0x8 Output\obj\platform\functions\sfunc_record.o
 .text          0x0000000000000000        0x0 Output\obj\platform\functions\sfunc_record_play.o
 .data          0x0000000000000000        0x0 Output\obj\platform\functions\sfunc_record_play.o
 .bss           0x0000000000000000        0x0 Output\obj\platform\functions\sfunc_record_play.o
 .comment       0x0000000000000000       0x12 Output\obj\platform\functions\sfunc_record_play.o
 .text          0x0000000000000000        0x0 Output\obj\platform\gui\gui.o
 .data          0x0000000000000000        0x0 Output\obj\platform\gui\gui.o
 .bss           0x0000000000000000        0x0 Output\obj\platform\gui\gui.o
 .text.gui_box_flicker_clr
                0x0000000000000000       0x1a Output\obj\platform\gui\gui.o
 .text          0x0000000000000000        0x0 Output\obj\platform\gui\lcd\lcd.o
 .data          0x0000000000000000        0x0 Output\obj\platform\gui\lcd\lcd.o
 .bss           0x0000000000000000        0x0 Output\obj\platform\gui\lcd\lcd.o
 .comment       0x0000000000000000       0x12 Output\obj\platform\gui\lcd\lcd.o
 .text          0x0000000000000000        0x0 Output\obj\platform\gui\ledseg\ledseg_7p7s.o
 .data          0x0000000000000000        0x0 Output\obj\platform\gui\ledseg\ledseg_7p7s.o
 .bss           0x0000000000000000        0x0 Output\obj\platform\gui\ledseg\ledseg_7p7s.o
 .comment       0x0000000000000000       0x12 Output\obj\platform\gui\ledseg\ledseg_7p7s.o
 .text          0x0000000000000000        0x0 Output\obj\platform\gui\ledseg\ledseg_common.o
 .data          0x0000000000000000        0x0 Output\obj\platform\gui\ledseg\ledseg_common.o
 .bss           0x0000000000000000        0x0 Output\obj\platform\gui\ledseg\ledseg_common.o
 .comment       0x0000000000000000       0x12 Output\obj\platform\gui\ledseg\ledseg_common.o
 .text          0x0000000000000000        0x0 Output\obj\platform\libs\strong_symbol.o
 .data          0x0000000000000000        0x0 Output\obj\platform\libs\strong_symbol.o
 .bss           0x0000000000000000        0x0 Output\obj\platform\libs\strong_symbol.o
 .text.mp3en_process
                0x0000000000000000        0x2 Output\obj\platform\libs\strong_symbol.o
 .text.lock_code_mp3enc
                0x0000000000000000        0x2 Output\obj\platform\libs\strong_symbol.o
 .text.mpa_encode_process
                0x0000000000000000        0x2 Output\obj\platform\libs\strong_symbol.o
 .text.lock_code_mp2enc
                0x0000000000000000        0x2 Output\obj\platform\libs\strong_symbol.o
 .text.unlock_code_mp2enc
                0x0000000000000000        0x2 Output\obj\platform\libs\strong_symbol.o
 .text.mp2_encode_frame
                0x0000000000000000        0x4 Output\obj\platform\libs\strong_symbol.o
 .text.lock_code_karaok
                0x0000000000000000        0x4 Output\obj\platform\libs\strong_symbol.o
 .text.unlock_code_karaok
                0x0000000000000000        0x2 Output\obj\platform\libs\strong_symbol.o
 .text.sbc_encode_init
                0x0000000000000000        0x4 Output\obj\platform\libs\strong_symbol.o
 .text.fmrx_rec_start
                0x0000000000000000        0x2 Output\obj\platform\libs\strong_symbol.o
 .text.fmrx_rec_stop
                0x0000000000000000        0x2 Output\obj\platform\libs\strong_symbol.o
 .text.fmrx_rec_enable
                0x0000000000000000        0x2 Output\obj\platform\libs\strong_symbol.o
 .text.huart_init
                0x0000000000000000        0x2 Output\obj\platform\libs\strong_symbol.o
 .text.mav_kick_start
                0x0000000000000000        0x2 Output\obj\platform\libs\strong_symbol.o
 .text.spdif_smprate_detect
                0x0000000000000000        0x4 Output\obj\platform\libs\strong_symbol.o
 .text.spdif_isr
                0x0000000000000000        0x2 Output\obj\platform\libs\strong_symbol.o
 .text.i2s_isr  0x0000000000000000        0x2 Output\obj\platform\libs\strong_symbol.o
 .text          0x0000000000000000        0x0 Output\obj\projects\standard\config.o
 .data          0x0000000000000000        0x0 Output\obj\projects\standard\config.o
 .bss           0x0000000000000000        0x0 Output\obj\projects\standard\config.o
 .text          0x0000000000000000        0x0 Output\obj\projects\standard\display\display_aux.o
 .data          0x0000000000000000        0x0 Output\obj\projects\standard\display\display_aux.o
 .bss           0x0000000000000000        0x0 Output\obj\projects\standard\display\display_aux.o
 .comment       0x0000000000000000       0x12 Output\obj\projects\standard\display\display_aux.o
 .text          0x0000000000000000        0x0 Output\obj\projects\standard\display\display_bt.o
 .data          0x0000000000000000        0x0 Output\obj\projects\standard\display\display_bt.o
 .bss           0x0000000000000000        0x0 Output\obj\projects\standard\display\display_bt.o
 .comment       0x0000000000000000       0x12 Output\obj\projects\standard\display\display_bt.o
 .text          0x0000000000000000        0x0 Output\obj\projects\standard\display\display_clock.o
 .data          0x0000000000000000        0x0 Output\obj\projects\standard\display\display_clock.o
 .bss           0x0000000000000000        0x0 Output\obj\projects\standard\display\display_clock.o
 .comment       0x0000000000000000       0x12 Output\obj\projects\standard\display\display_clock.o
 .text          0x0000000000000000        0x0 Output\obj\projects\standard\display\display_fmam_freq.o
 .data          0x0000000000000000        0x0 Output\obj\projects\standard\display\display_fmam_freq.o
 .bss           0x0000000000000000        0x0 Output\obj\projects\standard\display\display_fmam_freq.o
 .comment       0x0000000000000000       0x12 Output\obj\projects\standard\display\display_fmam_freq.o
 .text          0x0000000000000000        0x0 Output\obj\projects\standard\display\display_fmrx.o
 .data          0x0000000000000000        0x0 Output\obj\projects\standard\display\display_fmrx.o
 .bss           0x0000000000000000        0x0 Output\obj\projects\standard\display\display_fmrx.o
 .comment       0x0000000000000000       0x12 Output\obj\projects\standard\display\display_fmrx.o
 .text          0x0000000000000000        0x0 Output\obj\projects\standard\display\display_idle.o
 .data          0x0000000000000000        0x0 Output\obj\projects\standard\display\display_idle.o
 .bss           0x0000000000000000        0x0 Output\obj\projects\standard\display\display_idle.o
 .comment       0x0000000000000000       0x12 Output\obj\projects\standard\display\display_idle.o
 .text          0x0000000000000000        0x0 Output\obj\projects\standard\display\display_music.o
 .data          0x0000000000000000        0x0 Output\obj\projects\standard\display\display_music.o
 .bss           0x0000000000000000        0x0 Output\obj\projects\standard\display\display_music.o
 .comment       0x0000000000000000       0x12 Output\obj\projects\standard\display\display_music.o
 .text          0x0000000000000000        0x0 Output\obj\projects\standard\display\display_record.o
 .data          0x0000000000000000        0x0 Output\obj\projects\standard\display\display_record.o
 .bss           0x0000000000000000        0x0 Output\obj\projects\standard\display\display_record.o
 .comment       0x0000000000000000       0x12 Output\obj\projects\standard\display\display_record.o
 .text          0x0000000000000000        0x0 Output\obj\projects\standard\display\display_spdif.o
 .data          0x0000000000000000        0x0 Output\obj\projects\standard\display\display_spdif.o
 .bss           0x0000000000000000        0x0 Output\obj\projects\standard\display\display_spdif.o
 .comment       0x0000000000000000       0x12 Output\obj\projects\standard\display\display_spdif.o
 .text          0x0000000000000000        0x0 Output\obj\projects\standard\display\display_speaker.o
 .data          0x0000000000000000        0x0 Output\obj\projects\standard\display\display_speaker.o
 .bss           0x0000000000000000        0x0 Output\obj\projects\standard\display\display_speaker.o
 .comment       0x0000000000000000       0x12 Output\obj\projects\standard\display\display_speaker.o
 .text          0x0000000000000000        0x0 Output\obj\projects\standard\display\display_usbdev.o
 .data          0x0000000000000000        0x0 Output\obj\projects\standard\display\display_usbdev.o
 .bss           0x0000000000000000        0x0 Output\obj\projects\standard\display\display_usbdev.o
 .comment       0x0000000000000000       0x12 Output\obj\projects\standard\display\display_usbdev.o
 .text          0x0000000000000000        0x0 Output\obj\projects\standard\display\ledseg\display_ledseg.o
 .data          0x0000000000000000        0x0 Output\obj\projects\standard\display\ledseg\display_ledseg.o
 .bss           0x0000000000000000        0x0 Output\obj\projects\standard\display\ledseg\display_ledseg.o
 .comment       0x0000000000000000       0x12 Output\obj\projects\standard\display\ledseg\display_ledseg.o
 .text          0x0000000000000000        0x0 Output\obj\projects\standard\main.o
 .data          0x0000000000000000        0x0 Output\obj\projects\standard\main.o
 .bss           0x0000000000000000        0x0 Output\obj\projects\standard\main.o
 .text.get_test_sbc_addr
                0x0000000000000000        0x4 Output\obj\projects\standard\main.o
 .text.get_test_sbc_len
                0x0000000000000000        0x4 Output\obj\projects\standard\main.o
 .text          0x0000000000000000        0x0 Output\obj\projects\standard\message\msg_aux.o
 .data          0x0000000000000000        0x0 Output\obj\projects\standard\message\msg_aux.o
 .bss           0x0000000000000000        0x0 Output\obj\projects\standard\message\msg_aux.o
 .text          0x0000000000000000        0x0 Output\obj\projects\standard\message\msg_bt.o
 .data          0x0000000000000000        0x0 Output\obj\projects\standard\message\msg_bt.o
 .bss           0x0000000000000000        0x0 Output\obj\projects\standard\message\msg_bt.o
 .text          0x0000000000000000        0x0 Output\obj\projects\standard\message\msg_clock.o
 .data          0x0000000000000000        0x0 Output\obj\projects\standard\message\msg_clock.o
 .bss           0x0000000000000000        0x0 Output\obj\projects\standard\message\msg_clock.o
 .text          0x0000000000000000        0x0 Output\obj\projects\standard\message\msg_exspiflash_music.o
 .data          0x0000000000000000        0x0 Output\obj\projects\standard\message\msg_exspiflash_music.o
 .bss           0x0000000000000000        0x0 Output\obj\projects\standard\message\msg_exspiflash_music.o
 .comment       0x0000000000000000       0x12 Output\obj\projects\standard\message\msg_exspiflash_music.o
 .text          0x0000000000000000        0x0 Output\obj\projects\standard\message\msg_fmam_freq.o
 .data          0x0000000000000000        0x0 Output\obj\projects\standard\message\msg_fmam_freq.o
 .bss           0x0000000000000000        0x0 Output\obj\projects\standard\message\msg_fmam_freq.o
 .comment       0x0000000000000000       0x12 Output\obj\projects\standard\message\msg_fmam_freq.o
 .text          0x0000000000000000        0x0 Output\obj\projects\standard\message\msg_fmrx.o
 .data          0x0000000000000000        0x0 Output\obj\projects\standard\message\msg_fmrx.o
 .bss           0x0000000000000000        0x0 Output\obj\projects\standard\message\msg_fmrx.o
 .text          0x0000000000000000        0x0 Output\obj\projects\standard\message\msg_idle.o
 .data          0x0000000000000000        0x0 Output\obj\projects\standard\message\msg_idle.o
 .bss           0x0000000000000000        0x0 Output\obj\projects\standard\message\msg_idle.o
 .comment       0x0000000000000000       0x12 Output\obj\projects\standard\message\msg_idle.o
 .text          0x0000000000000000        0x0 Output\obj\projects\standard\message\msg_music.o
 .data          0x0000000000000000        0x0 Output\obj\projects\standard\message\msg_music.o
 .bss           0x0000000000000000        0x0 Output\obj\projects\standard\message\msg_music.o
 .text          0x0000000000000000        0x0 Output\obj\projects\standard\message\msg_record.o
 .data          0x0000000000000000        0x0 Output\obj\projects\standard\message\msg_record.o
 .bss           0x0000000000000000        0x0 Output\obj\projects\standard\message\msg_record.o
 .comment       0x0000000000000000       0x12 Output\obj\projects\standard\message\msg_record.o
 .text          0x0000000000000000        0x0 Output\obj\projects\standard\message\msg_spdif.o
 .data          0x0000000000000000        0x0 Output\obj\projects\standard\message\msg_spdif.o
 .bss           0x0000000000000000        0x0 Output\obj\projects\standard\message\msg_spdif.o
 .comment       0x0000000000000000       0x12 Output\obj\projects\standard\message\msg_spdif.o
 .text          0x0000000000000000        0x0 Output\obj\projects\standard\message\msg_speaker.o
 .data          0x0000000000000000        0x0 Output\obj\projects\standard\message\msg_speaker.o
 .bss           0x0000000000000000        0x0 Output\obj\projects\standard\message\msg_speaker.o
 .text          0x0000000000000000        0x0 Output\obj\projects\standard\message\msg_usbdev.o
 .data          0x0000000000000000        0x0 Output\obj\projects\standard\message\msg_usbdev.o
 .bss           0x0000000000000000        0x0 Output\obj\projects\standard\message\msg_usbdev.o
 .text          0x0000000000000000        0x0 Output\obj\projects\standard\plugin\eq_table.o
 .data          0x0000000000000000        0x0 Output\obj\projects\standard\plugin\eq_table.o
 .bss           0x0000000000000000        0x0 Output\obj\projects\standard\plugin\eq_table.o
 .text          0x0000000000000000        0x0 Output\obj\projects\standard\plugin\multi_lang.o
 .data          0x0000000000000000        0x0 Output\obj\projects\standard\plugin\multi_lang.o
 .bss           0x0000000000000000        0x0 Output\obj\projects\standard\plugin\multi_lang.o
 .comment       0x0000000000000000       0x12 Output\obj\projects\standard\plugin\multi_lang.o
 .text          0x0000000000000000        0x0 Output\obj\projects\standard\plugin\plugin.o
 .data          0x0000000000000000        0x0 Output\obj\projects\standard\plugin\plugin.o
 .bss           0x0000000000000000        0x0 Output\obj\projects\standard\plugin\plugin.o
 .text.get_wav_res_digvol
                0x0000000000000000        0x4 Output\obj\projects\standard\plugin\plugin.o
 .text.minvol_tone_play
                0x0000000000000000        0x2 Output\obj\projects\standard\plugin\plugin.o
 .text.plugin_sys_init_finish_callback
                0x0000000000000000        0x2 Output\obj\projects\standard\plugin\plugin.o
 .text.plugin_func_idle_enter_check
                0x0000000000000000        0x4 Output\obj\projects\standard\plugin\plugin.o
 .text.plugin_hfp_karaok_configure
                0x0000000000000000        0x2 Output\obj\projects\standard\plugin\plugin.o
 .text.plugin_karaok_init
                0x0000000000000000        0x2 Output\obj\projects\standard\plugin\plugin.o
 .text          0x0000000000000000        0x0 Output\obj\projects\standard\port\port_earphone.o
 .data          0x0000000000000000        0x0 Output\obj\projects\standard\port\port_earphone.o
 .bss           0x0000000000000000        0x0 Output\obj\projects\standard\port\port_earphone.o
 .text          0x0000000000000000        0x0 Output\obj\projects\standard\port\port_ir.o
 .data          0x0000000000000000        0x0 Output\obj\projects\standard\port\port_ir.o
 .bss           0x0000000000000000        0x0 Output\obj\projects\standard\port\port_ir.o
 .text          0x0000000000000000        0x0 Output\obj\projects\standard\port\port_key.o
 .data          0x0000000000000000        0x0 Output\obj\projects\standard\port\port_key.o
 .bss           0x0000000000000000        0x0 Output\obj\projects\standard\port\port_key.o
 .text          0x0000000000000000        0x0 Output\obj\projects\standard\port\port_led.o
 .data          0x0000000000000000        0x0 Output\obj\projects\standard\port\port_led.o
 .bss           0x0000000000000000        0x0 Output\obj\projects\standard\port\port_led.o
 .text          0x0000000000000000        0x0 Output\obj\projects\standard\port\port_ledseg.o
 .data          0x0000000000000000        0x0 Output\obj\projects\standard\port\port_ledseg.o
 .bss           0x0000000000000000        0x0 Output\obj\projects\standard\port\port_ledseg.o
 .comment       0x0000000000000000       0x12 Output\obj\projects\standard\port\port_ledseg.o
 .text          0x0000000000000000        0x0 Output\obj\projects\standard\port\port_linein.o
 .data          0x0000000000000000        0x0 Output\obj\projects\standard\port\port_linein.o
 .bss           0x0000000000000000        0x0 Output\obj\projects\standard\port\port_linein.o
 .text          0x0000000000000000        0x0 Output\obj\projects\standard\port\port_mic.o
 .data          0x0000000000000000        0x0 Output\obj\projects\standard\port\port_mic.o
 .bss           0x0000000000000000        0x0 Output\obj\projects\standard\port\port_mic.o
 .comment       0x0000000000000000       0x12 Output\obj\projects\standard\port\port_mic.o
 .text          0x0000000000000000        0x0 Output\obj\projects\standard\port\port_mute.o
 .data          0x0000000000000000        0x0 Output\obj\projects\standard\port\port_mute.o
 .bss           0x0000000000000000        0x0 Output\obj\projects\standard\port\port_mute.o
 .text          0x0000000000000000        0x0 Output\obj\projects\standard\port\port_pwm.o
 .data          0x0000000000000000        0x0 Output\obj\projects\standard\port\port_pwm.o
 .bss           0x0000000000000000        0x0 Output\obj\projects\standard\port\port_pwm.o
 .comment       0x0000000000000000       0x12 Output\obj\projects\standard\port\port_pwm.o
 .text          0x0000000000000000        0x0 Output\obj\projects\standard\port\port_sd.o
 .data          0x0000000000000000        0x0 Output\obj\projects\standard\port\port_sd.o
 .bss           0x0000000000000000        0x0 Output\obj\projects\standard\port\port_sd.o
 .text          0x0000000000000000        0x0 Output\obj\projects\standard\port\port_sd1.o
 .data          0x0000000000000000        0x0 Output\obj\projects\standard\port\port_sd1.o
 .bss           0x0000000000000000        0x0 Output\obj\projects\standard\port\port_sd1.o
 .text          0x0000000000000000        0x0 Output\obj\projects\standard\port\port_update.o
 .data          0x0000000000000000        0x0 Output\obj\projects\standard\port\port_update.o
 .bss           0x0000000000000000        0x0 Output\obj\projects\standard\port\port_update.o
 .text          0x0000000000000000        0x0 ..\..\platform\libs\libplatform.a(audio.o)
 .data          0x0000000000000000        0x0 ..\..\platform\libs\libplatform.a(audio.o)
 .bss           0x0000000000000000        0x0 ..\..\platform\libs\libplatform.a(audio.o)
 .wmadec.windows
                0x0000000000000000       0x82 ..\..\platform\libs\libplatform.a(audio.o)
 .text          0x0000000000000000        0x0 ..\..\platform\libs\libplatform.a(audio_eq.o)
 .data          0x0000000000000000        0x0 ..\..\platform\libs\libplatform.a(audio_eq.o)
 .bss           0x0000000000000000        0x0 ..\..\platform\libs\libplatform.a(audio_eq.o)
 .text.sdadc.eq
                0x0000000000000000      0x470 ..\..\platform\libs\libplatform.a(audio_eq.o)
 .text.eq.mic   0x0000000000000000      0x2a2 ..\..\platform\libs\libplatform.a(audio_eq.o)
 .text          0x0000000000000000        0x0 ..\..\platform\libs\libplatform.a(audio_karaok.o)
 .data          0x0000000000000000        0x0 ..\..\platform\libs\libplatform.a(audio_karaok.o)
 .com_text.sdadc
                0x0000000000000000      0x4ba ..\..\platform\libs\libplatform.a(audio_karaok.o)
 .text.func.speaker
                0x0000000000000000       0xc2 ..\..\platform\libs\libplatform.a(audio_karaok.o)
 .com_text.func.speaker
                0x0000000000000000       0xa6 ..\..\platform\libs\libplatform.a(audio_karaok.o)
 .text.iir_lp_filter_init
                0x0000000000000000       0x50 ..\..\platform\libs\libplatform.a(audio_karaok.o)
 .text.thread_echo_set_priority
                0x0000000000000000       0x10 ..\..\platform\libs\libplatform.a(audio_karaok.o)
 .text.karaok   0x0000000000000000      0x3ac ..\..\platform\libs\libplatform.a(audio_karaok.o)
 .com_text.karaok.proc
                0x0000000000000000       0xb8 ..\..\platform\libs\libplatform.a(audio_karaok.o)
 .text.karaok_voice_rm_enable
                0x0000000000000000       0x5a ..\..\platform\libs\libplatform.a(audio_karaok.o)
 .text.karaok_voice_rm_disable
                0x0000000000000000       0x38 ..\..\platform\libs\libplatform.a(audio_karaok.o)
 .text.karaok_voice_rm_switch
                0x0000000000000000       0x1c ..\..\platform\libs\libplatform.a(audio_karaok.o)
 .text.karaok_get_voice_rm_sta
                0x0000000000000000        0xc ..\..\platform\libs\libplatform.a(audio_karaok.o)
 .com_text.karaok
                0x0000000000000000       0x14 ..\..\platform\libs\libplatform.a(audio_karaok.o)
 .text.karaok_aux_rec_enable
                0x0000000000000000       0x12 ..\..\platform\libs\libplatform.a(audio_karaok.o)
 .text.karaok_aux_rec_disable
                0x0000000000000000       0x10 ..\..\platform\libs\libplatform.a(audio_karaok.o)
 .text.karaok_fmrx_rec_enable
                0x0000000000000000       0x12 ..\..\platform\libs\libplatform.a(audio_karaok.o)
 .text.karaok_fmrx_rec_disable
                0x0000000000000000       0x10 ..\..\platform\libs\libplatform.a(audio_karaok.o)
 .com_text.karaok.rec
                0x0000000000000000       0xc4 ..\..\platform\libs\libplatform.a(audio_karaok.o)
 .text.karaok_rec_init
                0x0000000000000000       0x34 ..\..\platform\libs\libplatform.a(audio_karaok.o)
 .text.kara_rec_stop
                0x0000000000000000       0x10 ..\..\platform\libs\libplatform.a(audio_karaok.o)
 .text.kara_rec_start
                0x0000000000000000       0x12 ..\..\platform\libs\libplatform.a(audio_karaok.o)
 .text.kara_sco_start
                0x0000000000000000       0x14 ..\..\platform\libs\libplatform.a(audio_karaok.o)
 .text.kara_sco_stop
                0x0000000000000000        0xa ..\..\platform\libs\libplatform.a(audio_karaok.o)
 .com_rodata.str
                0x0000000000000000        0x2 ..\..\platform\libs\libplatform.a(audio_karaok.o)
 .rec.obuf      0x0000000000000000      0x806 ..\..\platform\libs\libplatform.a(audio_karaok.o)
 .text          0x0000000000000000        0x0 ..\..\platform\libs\libplatform.a(audio_src.o)
 .data          0x0000000000000000        0x0 ..\..\platform\libs\libplatform.a(audio_src.o)
 .bss           0x0000000000000000        0x0 ..\..\platform\libs\libplatform.a(audio_src.o)
 .com_text.audio
                0x0000000000000000      0x136 ..\..\platform\libs\libplatform.a(audio_src.o)
 .text.audio    0x0000000000000000       0x88 ..\..\platform\libs\libplatform.a(audio_src.o)
 .debug_frame   0x0000000000000000      0x100 ..\..\platform\libs\libplatform.a(audio_src.o)
 .debug_info    0x0000000000000000      0xdaf ..\..\platform\libs\libplatform.a(audio_src.o)
 .debug_abbrev  0x0000000000000000      0x2cc ..\..\platform\libs\libplatform.a(audio_src.o)
 .debug_loc     0x0000000000000000      0x14b ..\..\platform\libs\libplatform.a(audio_src.o)
 .debug_aranges
                0x0000000000000000       0x50 ..\..\platform\libs\libplatform.a(audio_src.o)
 .debug_ranges  0x0000000000000000       0x40 ..\..\platform\libs\libplatform.a(audio_src.o)
 .debug_line    0x0000000000000000      0x290 ..\..\platform\libs\libplatform.a(audio_src.o)
 .debug_str     0x0000000000000000      0x842 ..\..\platform\libs\libplatform.a(audio_src.o)
 .comment       0x0000000000000000       0x12 ..\..\platform\libs\libplatform.a(audio_src.o)
 COMMON         0x0000000000000000       0x14 ..\..\platform\libs\libplatform.a(audio_src.o)
 .text          0x0000000000000000        0x0 ..\..\platform\libs\libplatform.a(dac.o)
 .data          0x0000000000000000        0x0 ..\..\platform\libs\libplatform.a(dac.o)
 .bss           0x0000000000000000        0x0 ..\..\platform\libs\libplatform.a(dac.o)
 .text.dac.hiz  0x0000000000000000       0x78 ..\..\platform\libs\libplatform.a(dac.o)
 .text.dac.drc  0x0000000000000000       0x28 ..\..\platform\libs\libplatform.a(dac.o)
 .text.dac.vbs  0x0000000000000000       0x26 ..\..\platform\libs\libplatform.a(dac.o)
 .text          0x0000000000000000        0x0 ..\..\platform\libs\libplatform.a(dac_dnr.o)
 .data          0x0000000000000000        0x0 ..\..\platform\libs\libplatform.a(dac_dnr.o)
 .text          0x0000000000000000        0x0 ..\..\platform\libs\libplatform.a(s_dac.o)
 .data          0x0000000000000000        0x0 ..\..\platform\libs\libplatform.a(s_dac.o)
 .bss           0x0000000000000000        0x0 ..\..\platform\libs\libplatform.a(s_dac.o)
 .com_text.iir  0x0000000000000000       0x6c ..\..\platform\libs\libplatform.a(s_dac.o)
 .text          0x0000000000000000        0x0 ..\..\platform\libs\libplatform.a(sdadc.o)
 .data          0x0000000000000000        0x0 ..\..\platform\libs\libplatform.a(sdadc.o)
 .bss           0x0000000000000000        0x0 ..\..\platform\libs\libplatform.a(sdadc.o)
 .text          0x0000000000000000        0x0 ..\..\platform\libs\libplatform.a(bt.o)
 .data          0x0000000000000000        0x0 ..\..\platform\libs\libplatform.a(bt.o)
 .bss           0x0000000000000000        0x0 ..\..\platform\libs\libplatform.a(bt.o)
 .text.btstack_tws_is_need_discon
                0x0000000000000000        0x4 ..\..\platform\libs\libplatform.a(bt.o)
 .text.update   0x0000000000000000        0x4 ..\..\platform\libs\libplatform.a(bt.o)
 .text.stack.api.tws_conn
                0x0000000000000000       0x22 ..\..\platform\libs\libplatform.a(bt.o)
 .text          0x0000000000000000        0x0 ..\..\platform\libs\libplatform.a(bt_aec.o)
 .data          0x0000000000000000        0x0 ..\..\platform\libs\libplatform.a(bt_aec.o)
 .bss           0x0000000000000000        0x0 ..\..\platform\libs\libplatform.a(bt_aec.o)
 .text          0x0000000000000000        0x0 ..\..\platform\libs\libplatform.a(bt_alc.o)
 .data          0x0000000000000000        0x0 ..\..\platform\libs\libplatform.a(bt_alc.o)
 .bss           0x0000000000000000        0x0 ..\..\platform\libs\libplatform.a(bt_alc.o)
 .text          0x0000000000000000        0x0 ..\..\platform\libs\libplatform.a(bt_rec.o)
 .data          0x0000000000000000        0x0 ..\..\platform\libs\libplatform.a(bt_rec.o)
 .bss           0x0000000000000000        0x0 ..\..\platform\libs\libplatform.a(bt_rec.o)
 .text.bt_music_rec_start
                0x0000000000000000       0x1c ..\..\platform\libs\libplatform.a(bt_rec.o)
 .text.bt_music_rec_stop
                0x0000000000000000       0x18 ..\..\platform\libs\libplatform.a(bt_rec.o)
 .text.bt_sco_rec_start
                0x0000000000000000       0x20 ..\..\platform\libs\libplatform.a(bt_rec.o)
 .text.bt_sco_rec_stop
                0x0000000000000000        0xa ..\..\platform\libs\libplatform.a(bt_rec.o)
 .com_text.bt_rec.isr
                0x0000000000000000       0x46 ..\..\platform\libs\libplatform.a(bt_rec.o)
 .com_text.bt_rec
                0x0000000000000000      0x1b0 ..\..\platform\libs\libplatform.a(bt_rec.o)
 .text.bt_sbc_src_init
                0x0000000000000000       0xce ..\..\platform\libs\libplatform.a(bt_rec.o)
 .text.bt_src_exit
                0x0000000000000000       0x46 ..\..\platform\libs\libplatform.a(bt_rec.o)
 .sbcdec.code.pcm
                0x0000000000000000       0x7a ..\..\platform\libs\libplatform.a(bt_rec.o)
 .bt_voice.sco  0x0000000000000000       0xac ..\..\platform\libs\libplatform.a(bt_rec.o)
 .com_rodata.bt_rec
                0x0000000000000000        0x2 ..\..\platform\libs\libplatform.a(bt_rec.o)
 .rec.sco       0x0000000000000000      0x2c8 ..\..\platform\libs\libplatform.a(bt_rec.o)
 .rodata.str1.4
                0x0000000000000000        0xf ..\..\platform\libs\libplatform.a(bt_rec.o)
 .text          0x0000000000000000        0x0 ..\..\platform\libs\libplatform.a(bt_sco.o)
 .data          0x0000000000000000        0x0 ..\..\platform\libs\libplatform.a(bt_sco.o)
 .bss           0x0000000000000000        0x0 ..\..\platform\libs\libplatform.a(bt_sco.o)
 .text          0x0000000000000000        0x0 ..\..\platform\libs\libplatform.a(bt_wnr.o)
 .data          0x0000000000000000        0x0 ..\..\platform\libs\libplatform.a(bt_wnr.o)
 .bss           0x0000000000000000        0x0 ..\..\platform\libs\libplatform.a(bt_wnr.o)
 .text          0x0000000000000000        0x0 ..\..\platform\libs\libplatform.a(s_wnr.o)
 .data          0x0000000000000000        0x0 ..\..\platform\libs\libplatform.a(s_wnr.o)
 .bss           0x0000000000000000        0x0 ..\..\platform\libs\libplatform.a(s_wnr.o)
 .text          0x0000000000000000        0x0 ..\..\platform\libs\libplatform.a(cm.o)
 .data          0x0000000000000000        0x0 ..\..\platform\libs\libplatform.a(cm.o)
 .text.cm_read8
                0x0000000000000000       0x1e ..\..\platform\libs\libplatform.a(cm.o)
 .text.cm_read16
                0x0000000000000000       0x1e ..\..\platform\libs\libplatform.a(cm.o)
 .text.cm_read32
                0x0000000000000000       0x1a ..\..\platform\libs\libplatform.a(cm.o)
 .text.cm_write8
                0x0000000000000000       0x1e ..\..\platform\libs\libplatform.a(cm.o)
 .text.cm_write16
                0x0000000000000000       0x1e ..\..\platform\libs\libplatform.a(cm.o)
 .text.cm_write32
                0x0000000000000000       0x1a ..\..\platform\libs\libplatform.a(cm.o)
 .text.cm_clear
                0x0000000000000000       0x64 ..\..\platform\libs\libplatform.a(cm.o)
 .text          0x0000000000000000        0x0 ..\..\platform\libs\libplatform.a(os_flash.o)
 .data          0x0000000000000000        0x0 ..\..\platform\libs\libplatform.a(os_flash.o)
 .bss           0x0000000000000000        0x0 ..\..\platform\libs\libplatform.a(os_flash.o)
 .text          0x0000000000000000        0x0 ..\..\platform\libs\libplatform.a(xcfg.o)
 .data          0x0000000000000000        0x0 ..\..\platform\libs\libplatform.a(xcfg.o)
 .bss           0x0000000000000000        0x0 ..\..\platform\libs\libplatform.a(xcfg.o)
 .text          0x0000000000000000        0x0 ..\..\platform\libs\libplatform.a(device.o)
 .data          0x0000000000000000        0x0 ..\..\platform\libs\libplatform.a(device.o)
 .bss           0x0000000000000000        0x0 ..\..\platform\libs\libplatform.a(device.o)
 .text.dev_is_invalid
                0x0000000000000000        0xe ..\..\platform\libs\libplatform.a(device.o)
 .text          0x0000000000000000        0x0 ..\..\platform\libs\libplatform.a(fmrx.o)
 .data          0x0000000000000000        0x0 ..\..\platform\libs\libplatform.a(fmrx.o)
 .bss           0x0000000000000000        0x0 ..\..\platform\libs\libplatform.a(fmrx.o)
 .text.fmrx_set_audio_channel
                0x0000000000000000       0x18 ..\..\platform\libs\libplatform.a(fmrx.o)
 .text.fmrx.table
                0x0000000000000000        0xc ..\..\platform\libs\libplatform.a(fmrx.o)
 .text          0x0000000000000000        0x0 ..\..\platform\libs\libplatform.a(fmrx_ang.o)
 .data          0x0000000000000000        0x0 ..\..\platform\libs\libplatform.a(fmrx_ang.o)
 .bss           0x0000000000000000        0x0 ..\..\platform\libs\libplatform.a(fmrx_ang.o)
 .text          0x0000000000000000        0x0 ..\..\platform\libs\libplatform.a(main.o)
 .data          0x0000000000000000        0x0 ..\..\platform\libs\libplatform.a(main.o)
 .bss           0x0000000000000000        0x0 ..\..\platform\libs\libplatform.a(main.o)
 .com_text.ledseg
                0x0000000000000000       0x3c ..\..\platform\libs\libplatform.a(main.o)
 .text.uart0_mapping_sel
                0x0000000000000000       0x18 ..\..\platform\libs\libplatform.a(main.o)
 .com_text.ledseg.table
                0x0000000000000000        0xc ..\..\platform\libs\libplatform.a(main.o)
 .text          0x0000000000000000        0x0 ..\..\platform\libs\libplatform.a(music.o)
 .data          0x0000000000000000        0x0 ..\..\platform\libs\libplatform.a(music.o)
 .bss           0x0000000000000000        0x0 ..\..\platform\libs\libplatform.a(music.o)
 .com_text.music.spf
                0x0000000000000000        0xc ..\..\platform\libs\libplatform.a(music.o)
 .com_text.music.i2s
                0x0000000000000000        0xc ..\..\platform\libs\libplatform.a(music.o)
 .text          0x0000000000000000        0x0 ..\..\platform\libs\libplatform.a(music_decrypt.o)
 .data          0x0000000000000000        0x0 ..\..\platform\libs\libplatform.a(music_decrypt.o)
 .bss           0x0000000000000000        0x0 ..\..\platform\libs\libplatform.a(music_decrypt.o)
 .text          0x0000000000000000        0x0 ..\..\platform\libs\libplatform.a(music_res.o)
 .data          0x0000000000000000        0x0 ..\..\platform\libs\libplatform.a(music_res.o)
 .bss           0x0000000000000000        0x0 ..\..\platform\libs\libplatform.a(music_res.o)
 .text.spires.loop
                0x0000000000000000        0xa ..\..\platform\libs\libplatform.a(music_res.o)
 .text.obuf1_puts_zero
                0x0000000000000000       0x2a ..\..\platform\libs\libplatform.a(music_res.o)
 .text.wav_res_play_kick
                0x0000000000000000      0x1a0 ..\..\platform\libs\libplatform.a(music_res.o)
 .text.wav_res_stop
                0x0000000000000000       0x8e ..\..\platform\libs\libplatform.a(music_res.o)
 .text          0x0000000000000000        0x0 ..\..\platform\libs\libplatform.a(stream.o)
 .data          0x0000000000000000        0x0 ..\..\platform\libs\libplatform.a(stream.o)
 .bss           0x0000000000000000        0x0 ..\..\platform\libs\libplatform.a(stream.o)
 .text          0x0000000000000000        0x0 ..\..\platform\libs\libplatform.a(interrupt.o)
 .data          0x0000000000000000        0x0 ..\..\platform\libs\libplatform.a(interrupt.o)
 .bss           0x0000000000000000        0x0 ..\..\platform\libs\libplatform.a(interrupt.o)
 .text.sys_irq_init
                0x0000000000000000       0x92 ..\..\platform\libs\libplatform.a(interrupt.o)
 .text.timer1_irq_init
                0x0000000000000000       0x32 ..\..\platform\libs\libplatform.a(interrupt.o)
 .text.spdif_irq_init
                0x0000000000000000       0x36 ..\..\platform\libs\libplatform.a(interrupt.o)
 .text.i2s_irq_init
                0x0000000000000000       0x38 ..\..\platform\libs\libplatform.a(interrupt.o)
 .text          0x0000000000000000        0x0 ..\..\platform\libs\libplatform.a(startup.o)
 .data          0x0000000000000000        0x0 ..\..\platform\libs\libplatform.a(startup.o)
 .com_text.thread.api
                0x0000000000000000       0x4c ..\..\platform\libs\libplatform.a(startup.o)
 .text.bt_set_timer_enable
                0x0000000000000000       0x24 ..\..\platform\libs\libplatform.a(startup.o)
 .com_text.user
                0x0000000000000000        0x2 ..\..\platform\libs\libplatform.a(startup.o)
 .text          0x0000000000000000        0x0 ..\..\platform\libs\libplatform.a(sys_hook.o)
 .data          0x0000000000000000        0x0 ..\..\platform\libs\libplatform.a(sys_hook.o)
 .bss           0x0000000000000000        0x0 ..\..\platform\libs\libplatform.a(sys_hook.o)
 .text          0x0000000000000000        0x0 ..\..\platform\libs\libplatform.a(reset.o)
 .data          0x0000000000000000        0x0 ..\..\platform\libs\libplatform.a(reset.o)
 .bss           0x0000000000000000        0x0 ..\..\platform\libs\libplatform.a(reset.o)
 .text          0x0000000000000000        0x0 ..\..\platform\libs\libplatform.a(rtc.o)
 .data          0x0000000000000000        0x0 ..\..\platform\libs\libplatform.a(rtc.o)
 .bss           0x0000000000000000        0x0 ..\..\platform\libs\libplatform.a(rtc.o)
 .text          0x0000000000000000        0x0 ..\..\platform\libs\libplatform.a(rtc_time.o)
 .data          0x0000000000000000        0x0 ..\..\platform\libs\libplatform.a(rtc_time.o)
 .bss           0x0000000000000000        0x0 ..\..\platform\libs\libplatform.a(rtc_time.o)
 .text          0x0000000000000000        0x0 ..\..\platform\libs\libplatform.a(sd_api.o)
 .data          0x0000000000000000        0x0 ..\..\platform\libs\libplatform.a(sd_api.o)
 .bss           0x0000000000000000        0x0 ..\..\platform\libs\libplatform.a(sd_api.o)
 .text.sd_other_param_set
                0x0000000000000000       0x26 ..\..\platform\libs\libplatform.a(sd_api.o)
 .text.sd0_go_idle_state
                0x0000000000000000       0x10 ..\..\platform\libs\libplatform.a(sd_api.o)
 .text          0x0000000000000000        0x0 ..\..\platform\libs\libplatform.a(spiflash.o)
 .data          0x0000000000000000        0x0 ..\..\platform\libs\libplatform.a(spiflash.o)
 .bss           0x0000000000000000        0x0 ..\..\platform\libs\libplatform.a(spiflash.o)
 .text          0x0000000000000000        0x0 ..\..\platform\libs\libplatform.a(debug.o)
 .data          0x0000000000000000        0x0 ..\..\platform\libs\libplatform.a(debug.o)
 .bss           0x0000000000000000        0x0 ..\..\platform\libs\libplatform.a(debug.o)
 .text.debug_dump_info_nanos_schedule
                0x0000000000000000        0x2 ..\..\platform\libs\libplatform.a(debug.o)
 .text.debug_dump_info_nanos_timer
                0x0000000000000000        0x2 ..\..\platform\libs\libplatform.a(debug.o)
 .text          0x0000000000000000        0x0 ..\..\platform\libs\libplatform.a(gpio.o)
 .data          0x0000000000000000        0x0 ..\..\platform\libs\libplatform.a(gpio.o)
 .bss           0x0000000000000000        0x0 ..\..\platform\libs\libplatform.a(gpio.o)
 .text.adcch_io_pu10k_enable
                0x0000000000000000       0xba ..\..\platform\libs\libplatform.a(gpio.o)
 .text          0x0000000000000000        0x0 ..\..\platform\libs\libplatform.a(key.o)
 .data          0x0000000000000000        0x0 ..\..\platform\libs\libplatform.a(key.o)
 .bss           0x0000000000000000        0x0 ..\..\platform\libs\libplatform.a(key.o)
 .text          0x0000000000000000        0x0 ..\..\platform\libs\libplatform.a(lock.o)
 .data          0x0000000000000000        0x0 ..\..\platform\libs\libplatform.a(lock.o)
 .text.lock_wh_rlc44q
                0x0000000000000000       0x18 ..\..\platform\libs\libplatform.a(lock.o)
 .text.lock_wh_rlc44o
                0x0000000000000000       0x18 ..\..\platform\libs\libplatform.a(lock.o)
 .text.lock_wh_rlc16
                0x0000000000000000       0x18 ..\..\platform\libs\libplatform.a(lock.o)
 .text.lock_code_wmadec
                0x0000000000000000       0x18 ..\..\platform\libs\libplatform.a(lock.o)
 .text.lock_code_apedec
                0x0000000000000000       0x18 ..\..\platform\libs\libplatform.a(lock.o)
 .text.lock_code_flacdec
                0x0000000000000000       0x18 ..\..\platform\libs\libplatform.a(lock.o)
 .text.lock_code_mp3enc
                0x0000000000000000       0x18 ..\..\platform\libs\libplatform.a(lock.o)
 .text.unlock_code_mp3enc
                0x0000000000000000       0x3a ..\..\platform\libs\libplatform.a(lock.o)
 .text.lock_code_mp2enc
                0x0000000000000000       0x72 ..\..\platform\libs\libplatform.a(lock.o)
 .text.unlock_code_mp2enc
                0x0000000000000000       0x38 ..\..\platform\libs\libplatform.a(lock.o)
 .com_text.cache
                0x0000000000000000       0xa0 ..\..\platform\libs\libplatform.a(lock.o)
 .text.unlock_code_karaok
                0x0000000000000000       0x38 ..\..\platform\libs\libplatform.a(lock.o)
 .text.lock_code_pwrsave
                0x0000000000000000       0x28 ..\..\platform\libs\libplatform.a(lock.o)
 .text          0x0000000000000000        0x0 ..\..\platform\libs\libplatform.a(power.o)
 .data          0x0000000000000000        0x0 ..\..\platform\libs\libplatform.a(power.o)
 .bss           0x0000000000000000        0x0 ..\..\platform\libs\libplatform.a(power.o)
 .pwrsave_text.voltage
                0x0000000000000000      0x222 ..\..\platform\libs\libplatform.a(power.o)
 .pwrsave_text.bsp
                0x0000000000000000      0x312 ..\..\platform\libs\libplatform.a(power.o)
 .sbss          0x0000000000000000        0x8 ..\..\platform\libs\libplatform.a(power.o)
 .text          0x0000000000000000        0x0 ..\..\platform\libs\libplatform.a(s_sys.o)
 .data          0x0000000000000000        0x0 ..\..\platform\libs\libplatform.a(s_sys.o)
 .bss           0x0000000000000000        0x0 ..\..\platform\libs\libplatform.a(s_sys.o)
 .text          0x0000000000000000        0x0 ..\..\platform\libs\libplatform.a(saradc.o)
 .data          0x0000000000000000        0x0 ..\..\platform\libs\libplatform.a(saradc.o)
 .bss           0x0000000000000000        0x0 ..\..\platform\libs\libplatform.a(saradc.o)
 .text          0x0000000000000000        0x0 ..\..\platform\libs\libplatform.a(sys.o)
 .data          0x0000000000000000        0x0 ..\..\platform\libs\libplatform.a(sys.o)
 .bss           0x0000000000000000        0x0 ..\..\platform\libs\libplatform.a(sys.o)
 .text.sys_clk_output
                0x0000000000000000      0x150 ..\..\platform\libs\libplatform.a(sys.o)
 .text.random_init
                0x0000000000000000        0xa ..\..\platform\libs\libplatform.a(sys.o)
 .text.convert_uni2gbk
                0x0000000000000000       0x8c ..\..\platform\libs\libplatform.a(sys.o)
 .text.lrc      0x0000000000000000       0x5a ..\..\platform\libs\libplatform.a(sys.o)
 .text.utf8_convert_to_unicode
                0x0000000000000000       0x70 ..\..\platform\libs\libplatform.a(sys.o)
 .text          0x0000000000000000        0x0 ..\..\platform\libs\libplatform.a(sys_clk.o)
 .data          0x0000000000000000        0x0 ..\..\platform\libs\libplatform.a(sys_clk.o)
 .bss           0x0000000000000000        0x0 ..\..\platform\libs\libplatform.a(sys_clk.o)
 .text.set_sd0baud
                0x0000000000000000        0x6 ..\..\platform\libs\libplatform.a(sys_clk.o)
 .text.set_uart0_baud
                0x0000000000000000       0x40 ..\..\platform\libs\libplatform.a(sys_clk.o)
 .text          0x0000000000000000        0x0 ..\..\platform\libs\libplatform.a(sys_msg.o)
 .data          0x0000000000000000        0x0 ..\..\platform\libs\libplatform.a(sys_msg.o)
 .bss           0x0000000000000000        0x0 ..\..\platform\libs\libplatform.a(sys_msg.o)
 .text          0x0000000000000000        0x0 ..\..\platform\libs\libplatform.a(update.o)
 .data          0x0000000000000000        0x0 ..\..\platform\libs\libplatform.a(update.o)
 .bss           0x0000000000000000        0x0 ..\..\platform\libs\libplatform.a(update.o)
 .text          0x0000000000000000        0x0 ..\..\platform\libs\libplatform.a(voltage_trim.o)
 .data          0x0000000000000000        0x0 ..\..\platform\libs\libplatform.a(voltage_trim.o)
 .bss           0x0000000000000000        0x0 ..\..\platform\libs\libplatform.a(voltage_trim.o)
 .text          0x0000000000000000        0x0 ..\..\platform\libs\libplatform.a(weak_symbol.o)
 .data          0x0000000000000000        0x0 ..\..\platform\libs\libplatform.a(weak_symbol.o)
 .bss           0x0000000000000000        0x0 ..\..\platform\libs\libplatform.a(weak_symbol.o)
 .text.cm_loadparam
                0x0000000000000000        0x4 ..\..\platform\libs\libplatform.a(weak_symbol.o)
 .com_text.bsp.sys
                0x0000000000000000        0x4 ..\..\platform\libs\libplatform.a(weak_symbol.o)
 .text.mic_eq_get_bass_tbl
                0x0000000000000000        0x4 ..\..\platform\libs\libplatform.a(weak_symbol.o)
 .text.mic_eq_get_treble_tbl
                0x0000000000000000        0x4 ..\..\platform\libs\libplatform.a(weak_symbol.o)
 .text.bass_treble_get_coef_tbl
                0x0000000000000000        0x4 ..\..\platform\libs\libplatform.a(weak_symbol.o)
 .com_text.stream
                0x0000000000000000        0x8 ..\..\platform\libs\libplatform.a(weak_symbol.o)
 .com_text.key.table
                0x0000000000000000        0x8 ..\..\platform\libs\libplatform.a(weak_symbol.o)
 .text          0x0000000000000000        0x0 ..\..\platform\libs\libplatform.a(thread_driver.o)
 .data          0x0000000000000000        0x0 ..\..\platform\libs\libplatform.a(thread_driver.o)
 .bss           0x0000000000000000        0x0 ..\..\platform\libs\libplatform.a(thread_driver.o)
 .text          0x0000000000000000        0x0 ..\..\platform\libs\libplatform.a(audio_pcm.o)
 .data          0x0000000000000000        0x0 ..\..\platform\libs\libplatform.a(audio_pcm.o)
 .bss           0x0000000000000000        0x0 ..\..\platform\libs\libplatform.a(audio_pcm.o)
 .com_text.mav  0x0000000000000000       0x28 ..\..\platform\libs\libplatform.a(audio_pcm.o)
 .text          0x0000000000000000        0x0 ..\..\platform\libs\libplatform.a(bt_ota.o)
 .data          0x0000000000000000        0x0 ..\..\platform\libs\libplatform.a(bt_ota.o)
 .bss           0x0000000000000000        0x0 ..\..\platform\libs\libplatform.a(bt_ota.o)
 .text          0x0000000000000000        0x0 ..\..\platform\libs\libbtstack.a(bb.o)
 .data          0x0000000000000000        0x0 ..\..\platform\libs\libbtstack.a(bb.o)
 .bss           0x0000000000000000        0x0 ..\..\platform\libs\libbtstack.a(bb.o)
 .text.spi_init
                0x0000000000000000       0x4e ..\..\platform\libs\libbtstack.a(bb.o)
 .com_text.bb.putc
                0x0000000000000000       0x4c ..\..\platform\libs\libbtstack.a(bb.o)
 .text          0x0000000000000000        0x0 ..\..\platform\libs\libbtstack.a(bb_rf.o)
 .data          0x0000000000000000        0x0 ..\..\platform\libs\libbtstack.a(bb_rf.o)
 .bss           0x0000000000000000        0x0 ..\..\platform\libs\libbtstack.a(bb_rf.o)
 .text.rf_release
                0x0000000000000000        0x2 ..\..\platform\libs\libbtstack.a(bb_rf.o)
 .text.rf_txpwr_cs_get
                0x0000000000000000        0x4 ..\..\platform\libs\libbtstack.a(bb_rf.o)
 .text.rf_txpwr_dbm_get
                0x0000000000000000       0x26 ..\..\platform\libs\libbtstack.a(bb_rf.o)
 .text          0x0000000000000000        0x0 ..\..\platform\libs\libbtstack.a(ble.o)
 .data          0x0000000000000000        0x0 ..\..\platform\libs\libbtstack.a(ble.o)
 .bss           0x0000000000000000        0x0 ..\..\platform\libs\libbtstack.a(ble.o)
 .com_rodata.bb.isr
                0x0000000000000000        0xe ..\..\platform\libs\libbtstack.a(ble.o)
 .text          0x0000000000000000        0x0 ..\..\platform\libs\libbtstack.a(ble_con.o)
 .data          0x0000000000000000        0x0 ..\..\platform\libs\libbtstack.a(ble_con.o)
 .bss           0x0000000000000000        0x0 ..\..\platform\libs\libbtstack.a(ble_con.o)
 .text.hwble_get_bd_address
                0x0000000000000000       0x2c ..\..\platform\libs\libbtstack.a(ble_con.o)
 .text.hwble_set_bd_address
                0x0000000000000000       0x44 ..\..\platform\libs\libbtstack.a(ble_con.o)
 .text          0x0000000000000000        0x0 ..\..\platform\libs\libbtstack.a(ble_evt.o)
 .data          0x0000000000000000        0x0 ..\..\platform\libs\libbtstack.a(ble_evt.o)
 .bss           0x0000000000000000        0x0 ..\..\platform\libs\libbtstack.a(ble_evt.o)
 .text          0x0000000000000000        0x0 ..\..\platform\libs\libbtstack.a(ble_lc.o)
 .data          0x0000000000000000        0x0 ..\..\platform\libs\libbtstack.a(ble_lc.o)
 .bss           0x0000000000000000        0x0 ..\..\platform\libs\libbtstack.a(ble_lc.o)
 .text          0x0000000000000000        0x0 ..\..\platform\libs\libbtstack.a(ble_lm.o)
 .data          0x0000000000000000        0x0 ..\..\platform\libs\libbtstack.a(ble_lm.o)
 .bss           0x0000000000000000        0x0 ..\..\platform\libs\libbtstack.a(ble_lm.o)
 .btmem.bb.llm  0x0000000000000000       0x94 ..\..\platform\libs\libbtstack.a(ble_lm.o)
 .text          0x0000000000000000        0x0 ..\..\platform\libs\libbtstack.a(ble_sleep.o)
 .data          0x0000000000000000        0x0 ..\..\platform\libs\libbtstack.a(ble_sleep.o)
 .bss           0x0000000000000000        0x0 ..\..\platform\libs\libbtstack.a(ble_sleep.o)
 .text          0x0000000000000000        0x0 ..\..\platform\libs\libbtstack.a(bt21.o)
 .data          0x0000000000000000        0x0 ..\..\platform\libs\libbtstack.a(bt21.o)
 .bss           0x0000000000000000        0x0 ..\..\platform\libs\libbtstack.a(bt21.o)
 .text          0x0000000000000000        0x0 ..\..\platform\libs\libbtstack.a(ext_acl.o)
 .data          0x0000000000000000        0x0 ..\..\platform\libs\libbtstack.a(ext_acl.o)
 .bss           0x0000000000000000        0x0 ..\..\platform\libs\libbtstack.a(ext_acl.o)
 .text          0x0000000000000000        0x0 ..\..\platform\libs\libbtstack.a(ext_afh.o)
 .data          0x0000000000000000        0x0 ..\..\platform\libs\libbtstack.a(ext_afh.o)
 .bss           0x0000000000000000        0x0 ..\..\platform\libs\libbtstack.a(ext_afh.o)
 .text          0x0000000000000000        0x0 ..\..\platform\libs\libbtstack.a(ext_bt.o)
 .data          0x0000000000000000        0x0 ..\..\platform\libs\libbtstack.a(ext_bt.o)
 .bss           0x0000000000000000        0x0 ..\..\platform\libs\libbtstack.a(ext_bt.o)
 .text          0x0000000000000000        0x0 ..\..\platform\libs\libbtstack.a(ext_flush.o)
 .data          0x0000000000000000        0x0 ..\..\platform\libs\libbtstack.a(ext_flush.o)
 .bss           0x0000000000000000        0x0 ..\..\platform\libs\libbtstack.a(ext_flush.o)
 .text          0x0000000000000000        0x0 ..\..\platform\libs\libbtstack.a(ext_init.o)
 .data          0x0000000000000000        0x0 ..\..\platform\libs\libbtstack.a(ext_init.o)
 .bss           0x0000000000000000        0x0 ..\..\platform\libs\libbtstack.a(ext_init.o)
 .text.lc_set_tx_disable
                0x0000000000000000       0x3e ..\..\platform\libs\libbtstack.a(ext_init.o)
 .rodata.str1.4
                0x0000000000000000       0x14 ..\..\platform\libs\libbtstack.a(ext_init.o)
 .text          0x0000000000000000        0x0 ..\..\platform\libs\libbtstack.a(ext_plc.o)
 .data          0x0000000000000000        0x0 ..\..\platform\libs\libbtstack.a(ext_plc.o)
 .text          0x0000000000000000        0x0 ..\..\platform\libs\libbtstack.a(ext_scan.o)
 .data          0x0000000000000000        0x0 ..\..\platform\libs\libbtstack.a(ext_scan.o)
 .bss           0x0000000000000000        0x0 ..\..\platform\libs\libbtstack.a(ext_scan.o)
 .text          0x0000000000000000        0x0 ..\..\platform\libs\libbtstack.a(ext_sco.o)
 .data          0x0000000000000000        0x0 ..\..\platform\libs\libbtstack.a(ext_sco.o)
 .bss           0x0000000000000000        0x0 ..\..\platform\libs\libbtstack.a(ext_sco.o)
 .com_rodata.bb.sco
                0x0000000000000000       0x3c ..\..\platform\libs\libbtstack.a(ext_sco.o)
 .text          0x0000000000000000        0x0 ..\..\platform\libs\libbtstack.a(ext_tws.o)
 .data          0x0000000000000000        0x0 ..\..\platform\libs\libbtstack.a(ext_tws.o)
 .bss           0x0000000000000000        0x0 ..\..\platform\libs\libbtstack.a(ext_tws.o)
 .text          0x0000000000000000        0x0 ..\..\platform\libs\libbtstack.a(ext_util.o)
 .data          0x0000000000000000        0x0 ..\..\platform\libs\libbtstack.a(ext_util.o)
 .bss           0x0000000000000000        0x0 ..\..\platform\libs\libbtstack.a(ext_util.o)
 .text.hwbt_get_class_of_device
                0x0000000000000000       0x1c ..\..\platform\libs\libbtstack.a(ext_util.o)
 .text.lc_enable_test_mode
                0x0000000000000000        0x4 ..\..\platform\libs\libbtstack.a(ext_util.o)
 .text.lc_read_rssi_range
                0x0000000000000000       0x22 ..\..\platform\libs\libbtstack.a(ext_util.o)
 .text.lc_dec_power_requested
                0x0000000000000000       0x3e ..\..\platform\libs\libbtstack.a(ext_util.o)
 .text.lc_get_link_quality
                0x0000000000000000       0x20 ..\..\platform\libs\libbtstack.a(ext_util.o)
 .text.lc_get_current_tx_power
                0x0000000000000000       0x1c ..\..\platform\libs\libbtstack.a(ext_util.o)
 .text.lc_get_max_tx_power
                0x0000000000000000       0x10 ..\..\platform\libs\libbtstack.a(ext_util.o)
 .text          0x0000000000000000        0x0 ..\..\platform\libs\libbtstack.a(lc.o)
 .data          0x0000000000000000        0x0 ..\..\platform\libs\libbtstack.a(lc.o)
 .bss           0x0000000000000000        0x0 ..\..\platform\libs\libbtstack.a(lc.o)
 .text.lc_common_cmd_complete_send
                0x0000000000000000       0x3c ..\..\platform\libs\libbtstack.a(lc.o)
 .com_text.bb.lc
                0x0000000000000000       0x4a ..\..\platform\libs\libbtstack.a(lc.o)
 .text.lc_rsw_non_epr_back
                0x0000000000000000       0x2a ..\..\platform\libs\libbtstack.a(lc.o)
 .text.lc_afh_switch_off
                0x0000000000000000       0x82 ..\..\platform\libs\libbtstack.a(lc.o)
 .text.lc_resp_num_comp
                0x0000000000000000       0xae ..\..\platform\libs\libbtstack.a(lc.o)
 .text          0x0000000000000000        0x0 ..\..\platform\libs\libbtstack.a(lc_acl.o)
 .data          0x0000000000000000        0x0 ..\..\platform\libs\libbtstack.a(lc_acl.o)
 .bss           0x0000000000000000        0x0 ..\..\platform\libs\libbtstack.a(lc_acl.o)
 .text.lc_acl_set_flush_timeout
                0x0000000000000000      0x100 ..\..\platform\libs\libbtstack.a(lc_acl.o)
 .text.lc_acl_get_flush_timeout
                0x0000000000000000       0x14 ..\..\platform\libs\libbtstack.a(lc_acl.o)
 .text.lc_acl_get_role
                0x0000000000000000       0x14 ..\..\platform\libs\libbtstack.a(lc_acl.o)
 .text.lc_acl_get_max_packet_size
                0x0000000000000000       0x6c ..\..\platform\libs\libbtstack.a(lc_acl.o)
 .text          0x0000000000000000        0x0 ..\..\platform\libs\libbtstack.a(lc_afh.o)
 .data          0x0000000000000000        0x0 ..\..\platform\libs\libbtstack.a(lc_afh.o)
 .bss           0x0000000000000000        0x0 ..\..\platform\libs\libbtstack.a(lc_afh.o)
 .text.lc_afh_get_assess_mode
                0x0000000000000000        0xa ..\..\platform\libs\libbtstack.a(lc_afh.o)
 .text.lc_afh_setAssessmentMode
                0x0000000000000000       0x18 ..\..\platform\libs\libbtstack.a(lc_afh.o)
 .text.lc_afh_set_reassess_intv
                0x0000000000000000        0xa ..\..\platform\libs\libbtstack.a(lc_afh.o)
 .text.lc_afh_set_nb_reassess_chnls
                0x0000000000000000        0xa ..\..\platform\libs\libbtstack.a(lc_afh.o)
 .text          0x0000000000000000        0x0 ..\..\platform\libs\libbtstack.a(lc_cqddr.o)
 .data          0x0000000000000000        0x0 ..\..\platform\libs\libbtstack.a(lc_cqddr.o)
 .bss           0x0000000000000000        0x0 ..\..\platform\libs\libbtstack.a(lc_cqddr.o)
 .text.lc_init_cqddr_algorithm
                0x0000000000000000        0x2 ..\..\platform\libs\libbtstack.a(lc_cqddr.o)
 .com_text.bb.btisr
                0x0000000000000000        0x2 ..\..\platform\libs\libbtstack.a(lc_cqddr.o)
 .text.lc_cqddr_start
                0x0000000000000000        0x2 ..\..\platform\libs\libbtstack.a(lc_cqddr.o)
 .text.lc_cqddr_clean_stats
                0x0000000000000000        0x2 ..\..\platform\libs\libbtstack.a(lc_cqddr.o)
 .text          0x0000000000000000        0x0 ..\..\platform\libs\libbtstack.a(lc_lmppdu.o)
 .data          0x0000000000000000        0x0 ..\..\platform\libs\libbtstack.a(lc_lmppdu.o)
 .bss           0x0000000000000000        0x0 ..\..\platform\libs\libbtstack.a(lc_lmppdu.o)
 .text.lc_send_pdu_qos_req
                0x0000000000000000       0x70 ..\..\platform\libs\libbtstack.a(lc_lmppdu.o)
 .text          0x0000000000000000        0x0 ..\..\platform\libs\libbtstack.a(lc_proc.o)
 .data          0x0000000000000000        0x0 ..\..\platform\libs\libbtstack.a(lc_proc.o)
 .bss           0x0000000000000000        0x0 ..\..\platform\libs\libbtstack.a(lc_proc.o)
 .text          0x0000000000000000        0x0 ..\..\platform\libs\libbtstack.a(lc_pwrctrl.o)
 .data          0x0000000000000000        0x0 ..\..\platform\libs\libbtstack.a(lc_pwrctrl.o)
 .bss           0x0000000000000000        0x0 ..\..\platform\libs\libbtstack.a(lc_pwrctrl.o)
 .text.lc_epc_get_supported
                0x0000000000000000       0x18 ..\..\platform\libs\libbtstack.a(lc_pwrctrl.o)
 .text          0x0000000000000000        0x0 ..\..\platform\libs\libbtstack.a(lc_sco.o)
 .data          0x0000000000000000        0x0 ..\..\platform\libs\libbtstack.a(lc_sco.o)
 .bss           0x0000000000000000        0x0 ..\..\platform\libs\libbtstack.a(lc_sco.o)
 .text.lc_sco_is_exist_for_handle
                0x0000000000000000       0x2e ..\..\platform\libs\libbtstack.a(lc_sco.o)
 .text.lc_sco_con_modify_con
                0x0000000000000000       0x4a ..\..\platform\libs\libbtstack.a(lc_sco.o)
 .text.lc_sco_con_get_min_interval
                0x0000000000000000       0x3c ..\..\platform\libs\libbtstack.a(lc_sco.o)
 .text          0x0000000000000000        0x0 ..\..\platform\libs\libbtstack.a(lc_util.o)
 .data          0x0000000000000000        0x0 ..\..\platform\libs\libbtstack.a(lc_util.o)
 .bss           0x0000000000000000        0x0 ..\..\platform\libs\libbtstack.a(lc_util.o)
 .text          0x0000000000000000        0x0 ..\..\platform\libs\libbtstack.a(lm.o)
 .data          0x0000000000000000        0x0 ..\..\platform\libs\libbtstack.a(lm.o)
 .bss           0x0000000000000000        0x0 ..\..\platform\libs\libbtstack.a(lm.o)
 .text          0x0000000000000000        0x0 ..\..\platform\libs\libbtstack.a(lm_key.o)
 .data          0x0000000000000000        0x0 ..\..\platform\libs\libbtstack.a(lm_key.o)
 .bss           0x0000000000000000        0x0 ..\..\platform\libs\libbtstack.a(lm_key.o)
 .text          0x0000000000000000        0x0 ..\..\platform\libs\libbtstack.a(lm_proc.o)
 .data          0x0000000000000000        0x0 ..\..\platform\libs\libbtstack.a(lm_proc.o)
 .bss           0x0000000000000000        0x0 ..\..\platform\libs\libbtstack.a(lm_proc.o)
 .text          0x0000000000000000        0x0 ..\..\platform\libs\libbtstack.a(lm_sco.o)
 .data          0x0000000000000000        0x0 ..\..\platform\libs\libbtstack.a(lm_sco.o)
 .bss           0x0000000000000000        0x0 ..\..\platform\libs\libbtstack.a(lm_sco.o)
 .text.lm_get_synchdl
                0x0000000000000000       0x42 ..\..\platform\libs\libbtstack.a(lm_sco.o)
 .text.lm_get_sync_conhdl
                0x0000000000000000       0x94 ..\..\platform\libs\libbtstack.a(lm_sco.o)
 .text.lm_get_sync_pkt_types
                0x0000000000000000       0x36 ..\..\platform\libs\libbtstack.a(lm_sco.o)
 .text.lm_get_nb_sync_link
                0x0000000000000000        0xa ..\..\platform\libs\libbtstack.a(lm_sco.o)
 .text.lm_get_min_sync_intv
                0x0000000000000000       0x5c ..\..\platform\libs\libbtstack.a(lm_sco.o)
 .text          0x0000000000000000        0x0 ..\..\platform\libs\libbtstack.a(lm_sleep.o)
 .data          0x0000000000000000        0x0 ..\..\platform\libs\libbtstack.a(lm_sleep.o)
 .bss           0x0000000000000000        0x0 ..\..\platform\libs\libbtstack.a(lm_sleep.o)
 .text          0x0000000000000000        0x0 ..\..\platform\libs\libbtstack.a(lm_sniff.o)
 .data          0x0000000000000000        0x0 ..\..\platform\libs\libbtstack.a(lm_sniff.o)
 .bss           0x0000000000000000        0x0 ..\..\platform\libs\libbtstack.a(lm_sniff.o)
 .text          0x0000000000000000        0x0 ..\..\platform\libs\libbtstack.a(lm_sp.o)
 .data          0x0000000000000000        0x0 ..\..\platform\libs\libbtstack.a(lm_sp.o)
 .bss           0x0000000000000000        0x0 ..\..\platform\libs\libbtstack.a(lm_sp.o)
 .text.lm_get_oob_local_data
                0x0000000000000000       0x40 ..\..\platform\libs\libbtstack.a(lm_sp.o)
 .text          0x0000000000000000        0x0 ..\..\platform\libs\libbtstack.a(lm_util.o)
 .data          0x0000000000000000        0x0 ..\..\platform\libs\libbtstack.a(lm_util.o)
 .bss           0x0000000000000000        0x0 ..\..\platform\libs\libbtstack.a(lm_util.o)
 .text.LM_SetConnectionAcceptTimeout
                0x0000000000000000        0xa ..\..\platform\libs\libbtstack.a(lm_util.o)
 .text.LM_SetAuthenticationEnable
                0x0000000000000000        0xa ..\..\platform\libs\libbtstack.a(lm_util.o)
 .text.LM_GetQoSParam
                0x0000000000000000      0x176 ..\..\platform\libs\libbtstack.a(lm_util.o)
 .text.LM_CreateMasterKey
                0x0000000000000000       0x64 ..\..\platform\libs\libbtstack.a(lm_util.o)
 .text.LM_CreateMasterKeyRand
                0x0000000000000000       0x10 ..\..\platform\libs\libbtstack.a(lm_util.o)
 .text.LM_CreateMasterEncRand
                0x0000000000000000       0x10 ..\..\platform\libs\libbtstack.a(lm_util.o)
 .text.LM_SetMasterEncKeySize
                0x0000000000000000        0xa ..\..\platform\libs\libbtstack.a(lm_util.o)
 .text.LM_ExtractMaxEncKeySize
                0x0000000000000000       0x34 ..\..\platform\libs\libbtstack.a(lm_util.o)
 .text.lm_read_stored_link_key
                0x0000000000000000        0x4 ..\..\platform\libs\libbtstack.a(lm_util.o)
 .text.lm_erase_stored_link_key
                0x0000000000000000        0x4 ..\..\platform\libs\libbtstack.a(lm_util.o)
 .text.lm_store_link_key
                0x0000000000000000        0x4 ..\..\platform\libs\libbtstack.a(lm_util.o)
 .text.LM_SetDefaultPolicySettings
                0x0000000000000000       0x16 ..\..\platform\libs\libbtstack.a(lm_util.o)
 .text.LM_GetMaxOf
                0x0000000000000000       0x10 ..\..\platform\libs\libbtstack.a(lm_util.o)
 .text.LM_CheckSuppCommands
                0x0000000000000000       0x24 ..\..\platform\libs\libbtstack.a(lm_util.o)
 .text.LM_CheckErrataAdopted
                0x0000000000000000       0x10 ..\..\platform\libs\libbtstack.a(lm_util.o)
 .text.LM_MaskPageScanBit
                0x0000000000000000        0x6 ..\..\platform\libs\libbtstack.a(lm_util.o)
 .text          0x0000000000000000        0x0 ..\..\platform\libs\libbtstack.a(bb_buf.o)
 .data          0x0000000000000000        0x0 ..\..\platform\libs\libbtstack.a(bb_buf.o)
 .bss           0x0000000000000000        0x0 ..\..\platform\libs\libbtstack.a(bb_buf.o)
 .text          0x0000000000000000        0x0 ..\..\platform\libs\libbtstack.a(bb_utils.o)
 .data          0x0000000000000000        0x0 ..\..\platform\libs\libbtstack.a(bb_utils.o)
 .bss           0x0000000000000000        0x0 ..\..\platform\libs\libbtstack.a(bb_utils.o)
 .text.bb_addr_cmp
                0x0000000000000000       0x20 ..\..\platform\libs\libbtstack.a(bb_utils.o)
 .rodata.bb.lm  0x0000000000000000        0x6 ..\..\platform\libs\libbtstack.a(bb_utils.o)
 .text          0x0000000000000000        0x0 ..\..\platform\libs\libbtstack.a(complex.o)
 .data          0x0000000000000000        0x0 ..\..\platform\libs\libbtstack.a(complex.o)
 .bss           0x0000000000000000        0x0 ..\..\platform\libs\libbtstack.a(complex.o)
 .text.complexAdd
                0x0000000000000000        0xa ..\..\platform\libs\libbtstack.a(complex.o)
 .text          0x0000000000000000        0x0 ..\..\platform\libs\libbtstack.a(nanos.o)
 .data          0x0000000000000000        0x0 ..\..\platform\libs\libbtstack.a(nanos.o)
 .bss           0x0000000000000000        0x0 ..\..\platform\libs\libbtstack.a(nanos.o)
 .text.nanos_msg_discard
                0x0000000000000000        0x4 ..\..\platform\libs\libbtstack.a(nanos.o)
 .text          0x0000000000000000        0x0 ..\..\platform\libs\libbtstack.a(hcic.o)
 .data          0x0000000000000000        0x0 ..\..\platform\libs\libbtstack.a(hcic.o)
 .bss           0x0000000000000000        0x0 ..\..\platform\libs\libbtstack.a(hcic.o)
 .text.hci_voice_setting_set
                0x0000000000000000       0x56 ..\..\platform\libs\libbtstack.a(hcic.o)
 .text          0x0000000000000000        0x0 ..\..\platform\libs\libbtstack.a(hcic_msg.o)
 .data          0x0000000000000000        0x0 ..\..\platform\libs\libbtstack.a(hcic_msg.o)
 .bss           0x0000000000000000        0x0 ..\..\platform\libs\libbtstack.a(hcic_msg.o)
 .text.hci_llc_basic_cmd_unpk
                0x0000000000000000       0x20 ..\..\platform\libs\libbtstack.a(hcic_msg.o)
 .text.hci_set_evt_filt_cmd_unpk
                0x0000000000000000        0xe ..\..\platform\libs\libbtstack.a(hcic_msg.o)
 .text          0x0000000000000000        0x0 ..\..\platform\libs\libbtstack.a(hcic_proc.o)
 .data          0x0000000000000000        0x0 ..\..\platform\libs\libbtstack.a(hcic_proc.o)
 .bss           0x0000000000000000        0x0 ..\..\platform\libs\libbtstack.a(hcic_proc.o)
 .text          0x0000000000000000        0x0 ..\..\platform\libs\libbtstack.a(vs.o)
 .data          0x0000000000000000        0x0 ..\..\platform\libs\libbtstack.a(vs.o)
 .bss           0x0000000000000000        0x0 ..\..\platform\libs\libbtstack.a(vs.o)
 .text.vs_reset
                0x0000000000000000       0x16 ..\..\platform\libs\libbtstack.a(vs.o)
 .text          0x0000000000000000        0x0 ..\..\platform\libs\libbtstack.a(vs_proc.o)
 .data          0x0000000000000000        0x0 ..\..\platform\libs\libbtstack.a(vs_proc.o)
 .bss           0x0000000000000000        0x0 ..\..\platform\libs\libbtstack.a(vs_proc.o)
 .text          0x0000000000000000        0x0 ..\..\platform\libs\libbtstack.a(btstack_api.o)
 .data          0x0000000000000000        0x0 ..\..\platform\libs\libbtstack.a(btstack_api.o)
 .bss           0x0000000000000000        0x0 ..\..\platform\libs\libbtstack.a(btstack_api.o)
 .text.le_is_connect
                0x0000000000000000       0x18 ..\..\platform\libs\libbtstack.a(btstack_api.o)
 .text.le_enable_adv
                0x0000000000000000        0x2 ..\..\platform\libs\libbtstack.a(btstack_api.o)
 .text.le_disable_adv
                0x0000000000000000        0x2 ..\..\platform\libs\libbtstack.a(btstack_api.o)
 .text          0x0000000000000000        0x0 ..\..\platform\libs\libbtstack.a(btstack_chipset_inner.o)
 .data          0x0000000000000000        0x0 ..\..\platform\libs\libbtstack.a(btstack_chipset_inner.o)
 .bss           0x0000000000000000        0x0 ..\..\platform\libs\libbtstack.a(btstack_chipset_inner.o)
 .text          0x0000000000000000        0x0 ..\..\platform\libs\libbtstack.a(btstack_gatt_server.o)
 .data          0x0000000000000000        0x0 ..\..\platform\libs\libbtstack.a(btstack_gatt_server.o)
 .bss           0x0000000000000000        0x0 ..\..\platform\libs\libbtstack.a(btstack_gatt_server.o)
 .text          0x0000000000000000        0x0 ..\..\platform\libs\libbtstack.a(btstack_hal.o)
 .data          0x0000000000000000        0x0 ..\..\platform\libs\libbtstack.a(btstack_hal.o)
 .bss           0x0000000000000000        0x0 ..\..\platform\libs\libbtstack.a(btstack_hal.o)
 .text.stack.hal
                0x0000000000000000       0x92 ..\..\platform\libs\libbtstack.a(btstack_hal.o)
 .com_text.stack.util
                0x0000000000000000       0x12 ..\..\platform\libs\libbtstack.a(btstack_hal.o)
 .text          0x0000000000000000        0x0 ..\..\platform\libs\libbtstack.a(btstack_main.o)
 .data          0x0000000000000000        0x0 ..\..\platform\libs\libbtstack.a(btstack_main.o)
 .bss           0x0000000000000000        0x0 ..\..\platform\libs\libbtstack.a(btstack_main.o)
 .text          0x0000000000000000        0x0 ..\..\platform\libs\libbtstack.a(btstack_misc.o)
 .data          0x0000000000000000        0x0 ..\..\platform\libs\libbtstack.a(btstack_misc.o)
 .bss           0x0000000000000000        0x0 ..\..\platform\libs\libbtstack.a(btstack_misc.o)
 .text.huart    0x0000000000000000        0x2 ..\..\platform\libs\libbtstack.a(btstack_misc.o)
 .text          0x0000000000000000        0x0 ..\..\platform\libs\libbtstack.a(hci_transport_hcic.o)
 .data          0x0000000000000000        0x0 ..\..\platform\libs\libbtstack.a(hci_transport_hcic.o)
 .bss           0x0000000000000000        0x0 ..\..\platform\libs\libbtstack.a(hci_transport_hcic.o)
 .text          0x0000000000000000        0x0 ..\..\platform\libs\libbtstack.a(weak_symbol.o)
 .data          0x0000000000000000        0x0 ..\..\platform\libs\libbtstack.a(weak_symbol.o)
 .bss           0x0000000000000000        0x0 ..\..\platform\libs\libbtstack.a(weak_symbol.o)
 .text.bt_get_tws_info
                0x0000000000000000        0x4 ..\..\platform\libs\libbtstack.a(weak_symbol.o)
 .text.ble_init_att_do
                0x0000000000000000        0x2 ..\..\platform\libs\libbtstack.a(weak_symbol.o)
 .text.ble_init_att
                0x0000000000000000        0x2 ..\..\platform\libs\libbtstack.a(weak_symbol.o)
 .text.ble_get_profile_data
                0x0000000000000000        0x4 ..\..\platform\libs\libbtstack.a(weak_symbol.o)
 .text.ble_get_adv_data
                0x0000000000000000        0x4 ..\..\platform\libs\libbtstack.a(weak_symbol.o)
 .text.ble_att_write_callback
                0x0000000000000000        0x4 ..\..\platform\libs\libbtstack.a(weak_symbol.o)
 .text.ble_get_scan_data
                0x0000000000000000        0x4 ..\..\platform\libs\libbtstack.a(weak_symbol.o)
 .text          0x0000000000000000        0x0 ..\..\platform\libs\libbtstack.a(btstack_link_ctrl.o)
 .data          0x0000000000000000        0x0 ..\..\platform\libs\libbtstack.a(btstack_link_ctrl.o)
 .bss           0x0000000000000000        0x0 ..\..\platform\libs\libbtstack.a(btstack_link_ctrl.o)
 .text          0x0000000000000000        0x0 ..\..\platform\libs\libbtstack.a(btstack_memory.o)
 .data          0x0000000000000000        0x0 ..\..\platform\libs\libbtstack.a(btstack_memory.o)
 .text          0x0000000000000000        0x0 ..\..\platform\libs\libbtstack.a(btstack_memory_pool.o)
 .data          0x0000000000000000        0x0 ..\..\platform\libs\libbtstack.a(btstack_memory_pool.o)
 .bss           0x0000000000000000        0x0 ..\..\platform\libs\libbtstack.a(btstack_memory_pool.o)
 .text          0x0000000000000000        0x0 ..\..\platform\libs\libbtstack.a(btstack_run_loop.o)
 .data          0x0000000000000000        0x0 ..\..\platform\libs\libbtstack.a(btstack_run_loop.o)
 .bss           0x0000000000000000        0x0 ..\..\platform\libs\libbtstack.a(btstack_run_loop.o)
 .text          0x0000000000000000        0x0 ..\..\platform\libs\libbtstack.a(btstack_tws.o)
 .data          0x0000000000000000        0x0 ..\..\platform\libs\libbtstack.a(btstack_tws.o)
 .text          0x0000000000000000        0x0 ..\..\platform\libs\libbtstack.a(btstack_util.o)
 .data          0x0000000000000000        0x0 ..\..\platform\libs\libbtstack.a(btstack_util.o)
 .bss           0x0000000000000000        0x0 ..\..\platform\libs\libbtstack.a(btstack_util.o)
 .text.log_info_hexdump
                0x0000000000000000        0x2 ..\..\platform\libs\libbtstack.a(btstack_util.o)
 .text.log_info_key
                0x0000000000000000        0x2 ..\..\platform\libs\libbtstack.a(btstack_util.o)
 .text.sscanf_bd_addr
                0x0000000000000000       0xa2 ..\..\platform\libs\libbtstack.a(btstack_util.o)
 .text          0x0000000000000000        0x0 ..\..\platform\libs\libbtstack.a(a2dp.o)
 .data          0x0000000000000000        0x0 ..\..\platform\libs\libbtstack.a(a2dp.o)
 .bss           0x0000000000000000        0x0 ..\..\platform\libs\libbtstack.a(a2dp.o)
 .text.get_a2dp_connection_context_for_l2cap_cid
                0x0000000000000000       0x5a ..\..\platform\libs\libbtstack.a(a2dp.o)
 .text          0x0000000000000000        0x0 ..\..\platform\libs\libbtstack.a(a2dp_play.o)
 .data          0x0000000000000000        0x0 ..\..\platform\libs\libbtstack.a(a2dp_play.o)
 .bss           0x0000000000000000        0x0 ..\..\platform\libs\libbtstack.a(a2dp_play.o)
 .text          0x0000000000000000        0x0 ..\..\platform\libs\libbtstack.a(a2dp_send.o)
 .data          0x0000000000000000        0x0 ..\..\platform\libs\libbtstack.a(a2dp_send.o)
 .bss           0x0000000000000000        0x0 ..\..\platform\libs\libbtstack.a(a2dp_send.o)
 .text          0x0000000000000000        0x0 ..\..\platform\libs\libbtstack.a(avctp.o)
 .data          0x0000000000000000        0x0 ..\..\platform\libs\libbtstack.a(avctp.o)
 .bss           0x0000000000000000        0x0 ..\..\platform\libs\libbtstack.a(avctp.o)
 .text          0x0000000000000000        0x0 ..\..\platform\libs\libbtstack.a(avdtp.o)
 .data          0x0000000000000000        0x0 ..\..\platform\libs\libbtstack.a(avdtp.o)
 .bss           0x0000000000000000        0x0 ..\..\platform\libs\libbtstack.a(avdtp.o)
 .text          0x0000000000000000        0x0 ..\..\platform\libs\libbtstack.a(btstack_link_key_db.o)
 .data          0x0000000000000000        0x0 ..\..\platform\libs\libbtstack.a(btstack_link_key_db.o)
 .text          0x0000000000000000        0x0 ..\..\platform\libs\libbtstack.a(hfp.o)
 .data          0x0000000000000000        0x0 ..\..\platform\libs\libbtstack.a(hfp.o)
 .bss           0x0000000000000000        0x0 ..\..\platform\libs\libbtstack.a(hfp.o)
 .text.hfp_emit_string_event
                0x0000000000000000       0x6e ..\..\platform\libs\libbtstack.a(hfp.o)
 .text          0x0000000000000000        0x0 ..\..\platform\libs\libbtstack.a(hfp_hf.o)
 .data          0x0000000000000000        0x0 ..\..\platform\libs\libbtstack.a(hfp_hf.o)
 .bss           0x0000000000000000        0x0 ..\..\platform\libs\libbtstack.a(hfp_hf.o)
 .text.hfp_hf_register_packet_handler
                0x0000000000000000       0x14 ..\..\platform\libs\libbtstack.a(hfp_hf.o)
 .text          0x0000000000000000        0x0 ..\..\platform\libs\libbtstack.a(hid_device.o)
 .data          0x0000000000000000        0x0 ..\..\platform\libs\libbtstack.a(hid_device.o)
 .bss           0x0000000000000000        0x0 ..\..\platform\libs\libbtstack.a(hid_device.o)
 .text.hid_device_send_contro_message
                0x0000000000000000        0x8 ..\..\platform\libs\libbtstack.a(hid_device.o)
 .text          0x0000000000000000        0x0 ..\..\platform\libs\libbtstack.a(hid_usage.o)
 .data          0x0000000000000000        0x0 ..\..\platform\libs\libbtstack.a(hid_usage.o)
 .bss           0x0000000000000000        0x0 ..\..\platform\libs\libbtstack.a(hid_usage.o)
 .text          0x0000000000000000        0x0 ..\..\platform\libs\libbtstack.a(rfcomm.o)
 .data          0x0000000000000000        0x0 ..\..\platform\libs\libbtstack.a(rfcomm.o)
 .bss           0x0000000000000000        0x0 ..\..\platform\libs\libbtstack.a(rfcomm.o)
 .text.rfcomm_set_required_security_level
                0x0000000000000000        0xa ..\..\platform\libs\libbtstack.a(rfcomm.o)
 .text.rfcomm_release_packet_buffer
                0x0000000000000000        0x8 ..\..\platform\libs\libbtstack.a(rfcomm.o)
 .text.rfcomm_get_max_frame_size
                0x0000000000000000       0x1c ..\..\platform\libs\libbtstack.a(rfcomm.o)
 .text.rfcomm_create_channel_with_initial_credits
                0x0000000000000000        0xe ..\..\platform\libs\libbtstack.a(rfcomm.o)
 .text.rfcomm_register_service_with_initial_credits
                0x0000000000000000       0x3e ..\..\platform\libs\libbtstack.a(rfcomm.o)
 .text.rfcomm_unregister_service
                0x0000000000000000       0x5a ..\..\platform\libs\libbtstack.a(rfcomm.o)
 .text.rfcomm_decline_connection
                0x0000000000000000       0x32 ..\..\platform\libs\libbtstack.a(rfcomm.o)
 .text.rfcomm_grant_credits
                0x0000000000000000       0x3a ..\..\platform\libs\libbtstack.a(rfcomm.o)
 .text.crc8_check
                0x0000000000000000       0x3c ..\..\platform\libs\libbtstack.a(rfcomm.o)
 .text.rfcomm_send_local_line_status
                0x0000000000000000       0x66 ..\..\platform\libs\libbtstack.a(rfcomm.o)
 .text.rfcomm_send_modem_status
                0x0000000000000000       0x2a ..\..\platform\libs\libbtstack.a(rfcomm.o)
 .text.rfcomm_query_port_configuration
                0x0000000000000000       0x5c ..\..\platform\libs\libbtstack.a(rfcomm.o)
 .text.rfcomm_send_port_configuration
                0x0000000000000000       0x9e ..\..\platform\libs\libbtstack.a(rfcomm.o)
 .text          0x0000000000000000        0x0 ..\..\platform\libs\libbtstack.a(sdp_client.o)
 .data          0x0000000000000000        0x0 ..\..\platform\libs\libbtstack.a(sdp_client.o)
 .bss           0x0000000000000000        0x0 ..\..\platform\libs\libbtstack.a(sdp_client.o)
 .text.remove_sdp_client_context
                0x0000000000000000        0xa ..\..\platform\libs\libbtstack.a(sdp_client.o)
 .text.de_state_init
                0x0000000000000000       0x10 ..\..\platform\libs\libbtstack.a(sdp_client.o)
 .text.sdp_client_free
                0x0000000000000000       0x14 ..\..\platform\libs\libbtstack.a(sdp_client.o)
 .text          0x0000000000000000        0x0 ..\..\platform\libs\libbtstack.a(sdp_server.o)
 .data          0x0000000000000000        0x0 ..\..\platform\libs\libbtstack.a(sdp_server.o)
 .bss           0x0000000000000000        0x0 ..\..\platform\libs\libbtstack.a(sdp_server.o)
 .text.remove_sdp_server_context
                0x0000000000000000        0xa ..\..\platform\libs\libbtstack.a(sdp_server.o)
 .text          0x0000000000000000        0x0 ..\..\platform\libs\libbtstack.a(sdp_tbl.o)
 .data          0x0000000000000000        0x0 ..\..\platform\libs\libbtstack.a(sdp_tbl.o)
 .bss           0x0000000000000000        0x0 ..\..\platform\libs\libbtstack.a(sdp_tbl.o)
 .text          0x0000000000000000        0x0 ..\..\platform\libs\libbtstack.a(sdp_util.o)
 .data          0x0000000000000000        0x0 ..\..\platform\libs\libbtstack.a(sdp_util.o)
 .bss           0x0000000000000000        0x0 ..\..\platform\libs\libbtstack.a(sdp_util.o)
 .text          0x0000000000000000        0x0 ..\..\platform\libs\libbtstack.a(spp.o)
 .data          0x0000000000000000        0x0 ..\..\platform\libs\libbtstack.a(spp.o)
 .bss           0x0000000000000000        0x0 ..\..\platform\libs\libbtstack.a(spp.o)
 .text          0x0000000000000000        0x0 ..\..\platform\libs\libbtstack.a(hci.o)
 .data          0x0000000000000000        0x0 ..\..\platform\libs\libbtstack.a(hci.o)
 .text.hci_request_sco_can_send_now_event
                0x0000000000000000       0x16 ..\..\platform\libs\libbtstack.a(hci.o)
 .text.gap_advertisements_get_address
                0x0000000000000000       0x2e ..\..\platform\libs\libbtstack.a(hci.o)
 .text.hci_register_sco_packet_handler
                0x0000000000000000        0xc ..\..\platform\libs\libbtstack.a(hci.o)
 .text.gap_local_bd_addr
                0x0000000000000000       0x16 ..\..\platform\libs\libbtstack.a(hci.o)
 .text.hci_close
                0x0000000000000000       0x5a ..\..\platform\libs\libbtstack.a(hci.o)
 .rodata.stack.hci_init
                0x0000000000000000       0x11 ..\..\platform\libs\libbtstack.a(hci.o)
 .text          0x0000000000000000        0x0 ..\..\platform\libs\libbtstack.a(hci_cmd.o)
 .data          0x0000000000000000        0x0 ..\..\platform\libs\libbtstack.a(hci_cmd.o)
 .bss           0x0000000000000000        0x0 ..\..\platform\libs\libbtstack.a(hci_cmd.o)
 .text          0x0000000000000000        0x0 ..\..\platform\libs\libbtstack.a(hci_dump.o)
 .data          0x0000000000000000        0xc ..\..\platform\libs\libbtstack.a(hci_dump.o)
 .bss           0x0000000000000000        0x0 ..\..\platform\libs\libbtstack.a(hci_dump.o)
 .text.stack.util
                0x0000000000000000       0x86 ..\..\platform\libs\libbtstack.a(hci_dump.o)
 .text.hci_dump_close
                0x0000000000000000        0x2 ..\..\platform\libs\libbtstack.a(hci_dump.o)
 .text.hci_dump_enable_log_level
                0x0000000000000000       0x18 ..\..\platform\libs\libbtstack.a(hci_dump.o)
 .rodata.str1.4
                0x0000000000000000       0x12 ..\..\platform\libs\libbtstack.a(hci_dump.o)
 .text          0x0000000000000000        0x0 ..\..\platform\libs\libbtstack.a(hci_sco.o)
 .data          0x0000000000000000        0x0 ..\..\platform\libs\libbtstack.a(hci_sco.o)
 .bss           0x0000000000000000        0x0 ..\..\platform\libs\libbtstack.a(hci_sco.o)
 .text.bt_set_sco_far_delay
                0x0000000000000000       0x22 ..\..\platform\libs\libbtstack.a(hci_sco.o)
 .com_text.sco  0x0000000000000000        0x4 ..\..\platform\libs\libbtstack.a(hci_sco.o)
 .com_rodata.sco
                0x0000000000000000        0x2 ..\..\platform\libs\libbtstack.a(hci_sco.o)
 .text          0x0000000000000000        0x0 ..\..\platform\libs\libbtstack.a(l2cap.o)
 .data          0x0000000000000000        0x0 ..\..\platform\libs\libbtstack.a(l2cap.o)
 .bss           0x0000000000000000        0x0 ..\..\platform\libs\libbtstack.a(l2cap.o)
 .text.l2cap_register_packet_handler
                0x0000000000000000        0x2 ..\..\platform\libs\libbtstack.a(l2cap.o)
 .text.l2cap_send_connectionless
                0x0000000000000000       0x68 ..\..\platform\libs\libbtstack.a(l2cap.o)
 .text.l2cap_send_echo_request
                0x0000000000000000       0x12 ..\..\platform\libs\libbtstack.a(l2cap.o)
 .text.l2cap_max_le_mtu
                0x0000000000000000        0x6 ..\..\platform\libs\libbtstack.a(l2cap.o)
 .text.l2cap_unregister_service
                0x0000000000000000       0x4c ..\..\platform\libs\libbtstack.a(l2cap.o)
 .text          0x0000000000000000        0x0 ..\..\platform\libs\libbtstack.a(l2cap_signaling.o)
 .data          0x0000000000000000        0x0 ..\..\platform\libs\libbtstack.a(l2cap_signaling.o)
 .bss           0x0000000000000000        0x0 ..\..\platform\libs\libbtstack.a(l2cap_signaling.o)
 .text          0x0000000000000000        0x0 ..\..\platform\libs\libbtstack.a(l2cap_test.o)
 .data          0x0000000000000000        0x0 ..\..\platform\libs\libbtstack.a(l2cap_test.o)
 .bss           0x0000000000000000        0x0 ..\..\platform\libs\libbtstack.a(l2cap_test.o)
 .text          0x0000000000000000        0x0 ..\..\platform\libs\libbtstack.a(btstack_asm.o)
 .data          0x0000000000000000        0x0 ..\..\platform\libs\libbtstack.a(btstack_asm.o)
 .bss           0x0000000000000000        0x0 ..\..\platform\libs\libbtstack.a(btstack_asm.o)
 .text          0x0000000000000000        0x0 ..\..\platform\libs\libbtstack.a(ext_rsw.o)
 .data          0x0000000000000000        0x0 ..\..\platform\libs\libbtstack.a(ext_rsw.o)
 .bss           0x0000000000000000        0x0 ..\..\platform\libs\libbtstack.a(ext_rsw.o)
 .text          0x0000000000000000        0x0 ..\..\platform\libs\libbtstack.a(ext_sniff.o)
 .data          0x0000000000000000        0x0 ..\..\platform\libs\libbtstack.a(ext_sniff.o)
 .bss           0x0000000000000000        0x0 ..\..\platform\libs\libbtstack.a(ext_sniff.o)
 .text          0x0000000000000000        0x0 ..\..\platform\libs\libbtstack.a(ext_tsco.o)
 .data          0x0000000000000000        0x0 ..\..\platform\libs\libbtstack.a(ext_tsco.o)
 .com_text.bb.tws.sco
                0x0000000000000000      0x44c ..\..\platform\libs\libbtstack.a(ext_tsco.o)
 .text.lc_tsco_send_setup
                0x0000000000000000      0x118 ..\..\platform\libs\libbtstack.a(ext_tsco.o)
 .text.lc_tsco_send_kill
                0x0000000000000000       0x94 ..\..\platform\libs\libbtstack.a(ext_tsco.o)
 .text.lc_tsco_init
                0x0000000000000000       0x32 ..\..\platform\libs\libbtstack.a(ext_tsco.o)
 .text          0x0000000000000000        0x0 ..\..\platform\libs\libbtstack.a(lc_scan.o)
 .data          0x0000000000000000        0x0 ..\..\platform\libs\libbtstack.a(lc_scan.o)
 .bss           0x0000000000000000        0x0 ..\..\platform\libs\libbtstack.a(lc_scan.o)
 .text.lc_scan_inqtxpwr_set
                0x0000000000000000       0x1c ..\..\platform\libs\libbtstack.a(lc_scan.o)
 .text.lc_scan_inqtxpwr_get
                0x0000000000000000       0x12 ..\..\platform\libs\libbtstack.a(lc_scan.o)
 .text.lc_scan_get_page_timeout
                0x0000000000000000        0xa ..\..\platform\libs\libbtstack.a(lc_scan.o)
 .text.lc_scan_set_page_scan_repetition_mode
                0x0000000000000000       0x14 ..\..\platform\libs\libbtstack.a(lc_scan.o)
 .text          0x0000000000000000        0x0 ..\..\platform\libs\libbtstack.a(lm_hmac.o)
 .data          0x0000000000000000        0x0 ..\..\platform\libs\libbtstack.a(lm_hmac.o)
 .bss           0x0000000000000000        0x0 ..\..\platform\libs\libbtstack.a(lm_hmac.o)
 .text          0x0000000000000000        0x0 ..\..\platform\libs\libbtstack.a(btstack_linked_list.o)
 .data          0x0000000000000000        0x0 ..\..\platform\libs\libbtstack.a(btstack_linked_list.o)
 .bss           0x0000000000000000        0x0 ..\..\platform\libs\libbtstack.a(btstack_linked_list.o)
 .text          0x0000000000000000        0x0 ..\..\platform\libs\libdrivers.a(diskio.o)
 .data          0x0000000000000000        0x0 ..\..\platform\libs\libdrivers.a(diskio.o)
 .bss           0x0000000000000000        0x0 ..\..\platform\libs\libdrivers.a(diskio.o)
 .text          0x0000000000000000        0x0 ..\..\platform\libs\libdrivers.a(pff_fat.o)
 .data          0x0000000000000000        0x0 ..\..\platform\libs\libdrivers.a(pff_fat.o)
 .bss           0x0000000000000000        0x0 ..\..\platform\libs\libdrivers.a(pff_fat.o)
 .text.fs_mkdir
                0x0000000000000000       0x12 ..\..\platform\libs\libdrivers.a(pff_fat.o)
 .text.fs_mkdir_lfn
                0x0000000000000000       0x10 ..\..\platform\libs\libdrivers.a(pff_fat.o)
 .text.fs_open_lfn
                0x0000000000000000       0x5e ..\..\platform\libs\libdrivers.a(pff_fat.o)
 .text.fs_get_file_ssect
                0x0000000000000000       0x10 ..\..\platform\libs\libdrivers.a(pff_fat.o)
 .text.fs_get_filename
                0x0000000000000000       0x84 ..\..\platform\libs\libdrivers.a(pff_fat.o)
 .text.fs_write
                0x0000000000000000       0x14 ..\..\platform\libs\libdrivers.a(pff_fat.o)
 .text.fs_sync  0x0000000000000000       0x10 ..\..\platform\libs\libdrivers.a(pff_fat.o)
 .text.fs_close
                0x0000000000000000       0x10 ..\..\platform\libs\libdrivers.a(pff_fat.o)
 .text.fs_get_file_count
                0x0000000000000000        0xc ..\..\platform\libs\libdrivers.a(pff_fat.o)
 .text.fs_get_ftime
                0x0000000000000000        0xa ..\..\platform\libs\libdrivers.a(pff_fat.o)
 .text.fs_create_time_inc
                0x0000000000000000       0x10 ..\..\platform\libs\libdrivers.a(pff_fat.o)
 .text.fs_delete
                0x0000000000000000       0x76 ..\..\platform\libs\libdrivers.a(pff_fat.o)
 .text.fs_get_type
                0x0000000000000000        0xa ..\..\platform\libs\libdrivers.a(pff_fat.o)
 .text.fs_get_dir_depth
                0x0000000000000000        0xa ..\..\platform\libs\libdrivers.a(pff_fat.o)
 .text          0x0000000000000000        0x0 ..\..\platform\libs\libdrivers.a(pff_fat2.o)
 .data          0x0000000000000000        0x0 ..\..\platform\libs\libdrivers.a(pff_fat2.o)
 .bss           0x0000000000000000        0x0 ..\..\platform\libs\libdrivers.a(pff_fat2.o)
 .text.fs_fat_file_recover
                0x0000000000000000       0x5a ..\..\platform\libs\libdrivers.a(pff_fat2.o)
 .text.fs_open_t
                0x0000000000000000       0x3a ..\..\platform\libs\libdrivers.a(pff_fat2.o)
 .text.fs_open_lrc
                0x0000000000000000      0x12e ..\..\platform\libs\libdrivers.a(pff_fat2.o)
 .text.fs_read_lrc
                0x0000000000000000       0x3e ..\..\platform\libs\libdrivers.a(pff_fat2.o)
 .text.fs_lseek_lrc
                0x0000000000000000       0x38 ..\..\platform\libs\libdrivers.a(pff_fat2.o)
 .text.fs_get_filename_for_number
                0x0000000000000000      0x118 ..\..\platform\libs\libdrivers.a(pff_fat2.o)
 .text          0x0000000000000000        0x0 ..\..\platform\libs\libdrivers.a(sd.o)
 .data          0x0000000000000000        0x0 ..\..\platform\libs\libdrivers.a(sd.o)
 .bss           0x0000000000000000        0x0 ..\..\platform\libs\libdrivers.a(sd.o)
 .text          0x0000000000000000        0x0 ..\..\platform\libs\libdrivers.a(usb_comm.o)
 .data          0x0000000000000000        0x0 ..\..\platform\libs\libdrivers.a(usb_comm.o)
 .bss           0x0000000000000000        0x0 ..\..\platform\libs\libdrivers.a(usb_comm.o)
 .text          0x0000000000000000        0x0 ..\..\platform\libs\libdrivers.a(usb_detect.o)
 .data          0x0000000000000000        0x0 ..\..\platform\libs\libdrivers.a(usb_detect.o)
 .bss           0x0000000000000000        0x0 ..\..\platform\libs\libdrivers.a(usb_detect.o)
 .text          0x0000000000000000        0x0 ..\..\platform\libs\libdrivers.a(usb_device_audio.o)
 .data          0x0000000000000000        0x0 ..\..\platform\libs\libdrivers.a(usb_device_audio.o)
 .bss           0x0000000000000000        0x0 ..\..\platform\libs\libdrivers.a(usb_device_audio.o)
 .text          0x0000000000000000        0x0 ..\..\platform\libs\libdrivers.a(usb_device_enum.o)
 .data          0x0000000000000000        0x0 ..\..\platform\libs\libdrivers.a(usb_device_enum.o)
 .bss           0x0000000000000000        0x0 ..\..\platform\libs\libdrivers.a(usb_device_enum.o)
 .text          0x0000000000000000        0x0 ..\..\platform\libs\libdrivers.a(usb_device_ep.o)
 .data          0x0000000000000000        0x0 ..\..\platform\libs\libdrivers.a(usb_device_ep.o)
 .bss           0x0000000000000000        0x0 ..\..\platform\libs\libdrivers.a(usb_device_ep.o)
 .text          0x0000000000000000        0x0 ..\..\platform\libs\libdrivers.a(usb_device_hid.o)
 .data          0x0000000000000000        0x0 ..\..\platform\libs\libdrivers.a(usb_device_hid.o)
 .bss           0x0000000000000000        0x0 ..\..\platform\libs\libdrivers.a(usb_device_hid.o)
 .text          0x0000000000000000        0x0 ..\..\platform\libs\libdrivers.a(usb_device_run_loop.o)
 .data          0x0000000000000000        0x0 ..\..\platform\libs\libdrivers.a(usb_device_run_loop.o)
 .bss           0x0000000000000000        0x0 ..\..\platform\libs\libdrivers.a(usb_device_run_loop.o)
 .text          0x0000000000000000        0x0 ..\..\platform\libs\libdrivers.a(usb_device_storage.o)
 .data          0x0000000000000000        0x0 ..\..\platform\libs\libdrivers.a(usb_device_storage.o)
 .bss           0x0000000000000000        0x0 ..\..\platform\libs\libdrivers.a(usb_device_storage.o)
 .text          0x0000000000000000        0x0 ..\..\platform\libs\libdrivers.a(usb_device_table.o)
 .data          0x0000000000000000        0x0 ..\..\platform\libs\libdrivers.a(usb_device_table.o)
 .bss           0x0000000000000000        0x0 ..\..\platform\libs\libdrivers.a(usb_device_table.o)
 .text          0x0000000000000000        0x0 ..\..\platform\libs\libdrivers.a(usb_host_manage.o)
 .data          0x0000000000000000        0x0 ..\..\platform\libs\libdrivers.a(usb_host_manage.o)
 .bss           0x0000000000000000        0x0 ..\..\platform\libs\libdrivers.a(usb_host_manage.o)
 .text.udisk_suspend
                0x0000000000000000       0x34 ..\..\platform\libs\libdrivers.a(usb_host_manage.o)
 .text.udisk_resume
                0x0000000000000000       0x5a ..\..\platform\libs\libdrivers.a(usb_host_manage.o)
 .text          0x0000000000000000        0x0 ..\..\platform\libs\libdrivers.a(usb_host_storage.o)
 .data          0x0000000000000000        0x0 ..\..\platform\libs\libdrivers.a(usb_host_storage.o)
 .bss           0x0000000000000000        0x0 ..\..\platform\libs\libdrivers.a(usb_host_storage.o)
 .text          0x0000000000000000        0x0 ..\..\platform\libs\libdrivers.a(pff.o)
 .data          0x0000000000000000        0x0 ..\..\platform\libs\libdrivers.a(pff.o)
 .bss           0x0000000000000000        0x0 ..\..\platform\libs\libdrivers.a(pff.o)
 .text.pf_mkdir
                0x0000000000000000      0x1f2 ..\..\platform\libs\libdrivers.a(pff.o)
 .text.pf_unlink
                0x0000000000000000      0x180 ..\..\platform\libs\libdrivers.a(pff.o)
 .text.pf_sync  0x0000000000000000      0x184 ..\..\platform\libs\libdrivers.a(pff.o)
 .text.pf_close
                0x0000000000000000       0x1c ..\..\platform\libs\libdrivers.a(pff.o)
 .text.pf_write
                0x0000000000000000      0x284 ..\..\platform\libs\libdrivers.a(pff.o)
 .text.pf_get_long_fname
                0x0000000000000000      0x2c4 ..\..\platform\libs\libdrivers.a(pff.o)
 .text          0x0000000000000000        0x0 ..\..\platform\libs\libdrivers.a(usb_host_enum.o)
 .data          0x0000000000000000        0x0 ..\..\platform\libs\libdrivers.a(usb_host_enum.o)
 .bss           0x0000000000000000        0x0 ..\..\platform\libs\libdrivers.a(usb_host_enum.o)
 .text          0x0000000000000000        0x0 ..\..\platform\libs\libcodecs.a(aviobuf.o)
 .data          0x0000000000000000        0x0 ..\..\platform\libs\libcodecs.a(aviobuf.o)
 .bss           0x0000000000000000        0x0 ..\..\platform\libs\libcodecs.a(aviobuf.o)
 .text          0x0000000000000000        0x0 ..\..\platform\libs\libcodecs.a(codecs_com.o)
 .data          0x0000000000000000        0x0 ..\..\platform\libs\libcodecs.a(codecs_com.o)
 .bss           0x0000000000000000        0x0 ..\..\platform\libs\libcodecs.a(codecs_com.o)
 .text          0x0000000000000000        0x0 ..\..\platform\libs\libcodecs.a(drc.o)
 .data          0x0000000000000000        0x0 ..\..\platform\libs\libcodecs.a(drc.o)
 .bss           0x0000000000000000        0x0 ..\..\platform\libs\libcodecs.a(drc.o)
 .com_text.dac.drc
                0x0000000000000000       0xf0 ..\..\platform\libs\libcodecs.a(drc.o)
 .text.dac.drc.init
                0x0000000000000000       0x64 ..\..\platform\libs\libcodecs.a(drc.o)
 .com_rodata.dac.drc
                0x0000000000000000       0x38 ..\..\platform\libs\libcodecs.a(drc.o)
 .comment       0x0000000000000000       0x12 ..\..\platform\libs\libcodecs.a(drc.o)
 COMMON         0x0000000000000000       0x40 ..\..\platform\libs\libcodecs.a(drc.o)
 .text          0x0000000000000000        0x0 ..\..\platform\libs\libcodecs.a(s_drc.o)
 .data          0x0000000000000000        0x0 ..\..\platform\libs\libcodecs.a(s_drc.o)
 .bss           0x0000000000000000        0x0 ..\..\platform\libs\libcodecs.a(s_drc.o)
 .com_text.dac.drc
                0x0000000000000000      0x14c ..\..\platform\libs\libcodecs.a(s_drc.o)
 .text          0x0000000000000000        0x0 ..\..\platform\libs\libcodecs.a(vbass.o)
 .data          0x0000000000000000       0x28 ..\..\platform\libs\libcodecs.a(vbass.o)
 .bss           0x0000000000000000       0xdc ..\..\platform\libs\libcodecs.a(vbass.o)
 .text.vbass.init
                0x0000000000000000       0xc0 ..\..\platform\libs\libcodecs.a(vbass.o)
 .com_text.dac.vbs
                0x0000000000000000      0x248 ..\..\platform\libs\libcodecs.a(vbass.o)
 .com_rodata.dac.vbs
                0x0000000000000000       0x54 ..\..\platform\libs\libcodecs.a(vbass.o)
 .sdata         0x0000000000000000        0x4 ..\..\platform\libs\libcodecs.a(vbass.o)
 .comment       0x0000000000000000       0x12 ..\..\platform\libs\libcodecs.a(vbass.o)
 .text          0x0000000000000000        0x0 ..\..\platform\libs\libcodecs.a(wsola.o)
 .data          0x0000000000000000        0x0 ..\..\platform\libs\libcodecs.a(wsola.o)
 .bss           0x0000000000000000        0x0 ..\..\platform\libs\libcodecs.a(wsola.o)
 .com_text.mav  0x0000000000000000      0x386 ..\..\platform\libs\libcodecs.a(wsola.o)
 .text.mav      0x0000000000000000      0x170 ..\..\platform\libs\libcodecs.a(wsola.o)
 .rodata        0x0000000000000000       0x10 ..\..\platform\libs\libcodecs.a(wsola.o)
 .com_rodata.mav
                0x0000000000000000       0x81 ..\..\platform\libs\libcodecs.a(wsola.o)
 .comment       0x0000000000000000       0x12 ..\..\platform\libs\libcodecs.a(wsola.o)
 COMMON         0x0000000000000000       0x28 ..\..\platform\libs\libcodecs.a(wsola.o)
 .text          0x0000000000000000        0x0 ..\..\platform\libs\libcodecs.a(mp3_dec.o)
 .data          0x0000000000000000        0x0 ..\..\platform\libs\libcodecs.a(mp3_dec.o)
 .bss           0x0000000000000000        0x0 ..\..\platform\libs\libcodecs.a(mp3_dec.o)
 .text          0x0000000000000000        0x0 ..\..\platform\libs\libcodecs.a(bt_sbc.o)
 .data          0x0000000000000000        0x0 ..\..\platform\libs\libcodecs.a(bt_sbc.o)
 .bss           0x0000000000000000        0x0 ..\..\platform\libs\libcodecs.a(bt_sbc.o)
 .data          0x0000000000000000        0x0 ..\..\platform\libs\libcodecs.a(sbc.o)
 .bss           0x0000000000000000        0x0 ..\..\platform\libs\libcodecs.a(sbc.o)
 .text          0x0000000000000000        0x0 ..\..\platform\libs\libcodecs.a(sbc_dec.o)
 .data          0x0000000000000000        0x0 ..\..\platform\libs\libcodecs.a(sbc_dec.o)
 .bss           0x0000000000000000        0x0 ..\..\platform\libs\libcodecs.a(sbc_dec.o)
 .text          0x0000000000000000      0x1a8 ..\..\platform\libs\libcodecs.a(sbcen_io.o)
 .data          0x0000000000000000        0x0 ..\..\platform\libs\libcodecs.a(sbcen_io.o)
 .bss           0x0000000000000000        0x0 ..\..\platform\libs\libcodecs.a(sbcen_io.o)
 COMMON         0x0000000000000000        0x8 ..\..\platform\libs\libcodecs.a(sbcen_io.o)
 .text          0x0000000000000000        0x0 ..\..\platform\libs\libcodecs.a(wavdec.o)
 .data          0x0000000000000000        0x0 ..\..\platform\libs\libcodecs.a(wavdec.o)
 .bss           0x0000000000000000        0x0 ..\..\platform\libs\libcodecs.a(wavdec.o)
 .text          0x0000000000000000        0x0 ..\..\platform\libs\libcodecs.a(avio.o)
 .data          0x0000000000000000        0x0 ..\..\platform\libs\libcodecs.a(avio.o)
 .bss           0x0000000000000000        0x0 ..\..\platform\libs\libcodecs.a(avio.o)
 .text          0x0000000000000000        0x0 ..\..\platform\libs\libcodecs.a(s_vbass.o)
 .data          0x0000000000000000        0x0 ..\..\platform\libs\libcodecs.a(s_vbass.o)
 .bss           0x0000000000000000        0x0 ..\..\platform\libs\libcodecs.a(s_vbass.o)
 .com_text.dac.vbss
                0x0000000000000000       0xe8 ..\..\platform\libs\libcodecs.a(s_vbass.o)
 .text          0x0000000000000000        0x0 ..\..\platform\libs\libcodecs.a(s_wsola.o)
 .data          0x0000000000000000        0x0 ..\..\platform\libs\libcodecs.a(s_wsola.o)
 .bss           0x0000000000000000        0x0 ..\..\platform\libs\libcodecs.a(s_wsola.o)
 .com_text.mav  0x0000000000000000       0x22 ..\..\platform\libs\libcodecs.a(s_wsola.o)
 .text          0x0000000000000000        0x0 ..\..\platform\libs\libcodecs.a(bit.o)
 .data          0x0000000000000000        0x0 ..\..\platform\libs\libcodecs.a(bit.o)
 .bss           0x0000000000000000        0x0 ..\..\platform\libs\libcodecs.a(bit.o)
 .text          0x0000000000000000        0x0 ..\..\platform\libs\libcodecs.a(frame.o)
 .data          0x0000000000000000        0x0 ..\..\platform\libs\libcodecs.a(frame.o)
 .bss           0x0000000000000000        0x0 ..\..\platform\libs\libcodecs.a(frame.o)
 .text          0x0000000000000000        0x0 ..\..\platform\libs\libcodecs.a(layer12.o)
 .data          0x0000000000000000        0x0 ..\..\platform\libs\libcodecs.a(layer12.o)
 .bss           0x0000000000000000        0x0 ..\..\platform\libs\libcodecs.a(layer12.o)
 .text          0x0000000000000000        0x0 ..\..\platform\libs\libcodecs.a(layer3.o)
 .data          0x0000000000000000        0x0 ..\..\platform\libs\libcodecs.a(layer3.o)
 .bss           0x0000000000000000        0x0 ..\..\platform\libs\libcodecs.a(layer3.o)
 .text          0x0000000000000000        0x0 ..\..\platform\libs\libcodecs.a(huffman.o)
 .data          0x0000000000000000        0x0 ..\..\platform\libs\libcodecs.a(huffman.o)
 .bss           0x0000000000000000        0x0 ..\..\platform\libs\libcodecs.a(huffman.o)

Memory Configuration

Name             Origin             Length             Attributes
init             0x0000000010000000 0x0000000000000200
flash            0x0000000010000200 0x00000000000c0000 xr
comm             0x0000000000020000 0x0000000000008800 xr
bcomm            0x000000000001e000 0x0000000000002000 xr
stack            0x0000000000010800 0x0000000000000400
data             0x0000000000010c00 0x0000000000006400
heap             0x0000000000028800 0x0000000000003000
aram             0x0000000000050000 0x0000000000004000
bram             0x0000000000018000 0x0000000000006000
cram             0x000000000002b800 0x0000000000004800
dram             0x0000000000054000 0x0000000000003000
eram             0x0000000000057000 0x0000000000000a00
fram             0x0000000000017000 0x0000000000001000
*default*        0x0000000000000000 0xffffffffffffffff

Linker script and memory map

LOAD Output\obj\platform\bsp\bsp_app.o
LOAD Output\obj\platform\bsp\bsp_audio.o
LOAD Output\obj\platform\bsp\bsp_aux.o
LOAD Output\obj\platform\bsp\bsp_ble.o
LOAD Output\obj\platform\bsp\bsp_bt.o
LOAD Output\obj\platform\bsp\bsp_car_audio.o
LOAD Output\obj\platform\bsp\bsp_charge.o
LOAD Output\obj\platform\bsp\bsp_cm.o
LOAD Output\obj\platform\bsp\bsp_dac.o
LOAD Output\obj\platform\bsp\bsp_eq.o
LOAD Output\obj\platform\bsp\bsp_fmrx.o
LOAD Output\obj\platform\bsp\bsp_fmtx.o
LOAD Output\obj\platform\bsp\bsp_fs.o
LOAD Output\obj\platform\bsp\bsp_i2c.o
LOAD Output\obj\platform\bsp\bsp_i2s.o
LOAD Output\obj\platform\bsp\bsp_i2s_ta5711.o
LOAD Output\obj\platform\bsp\bsp_i2s_wm8978.o
LOAD Output\obj\platform\bsp\bsp_iap.o
LOAD Output\obj\platform\bsp\bsp_id3_tag.o
LOAD Output\obj\platform\bsp\bsp_ir.o
LOAD Output\obj\platform\bsp\bsp_karaok.o
LOAD Output\obj\platform\bsp\bsp_key.o
LOAD Output\obj\platform\bsp\bsp_led.o
LOAD Output\obj\platform\bsp\bsp_lrc.o
LOAD Output\obj\platform\bsp\bsp_music.o
LOAD Output\obj\platform\bsp\bsp_param.o
LOAD Output\obj\platform\bsp\bsp_record.o
LOAD Output\obj\platform\bsp\bsp_spiflash1.o
LOAD Output\obj\platform\bsp\bsp_spiflash1_music_bin.o
LOAD Output\obj\platform\bsp\bsp_spiflash_rec_play.o
LOAD Output\obj\platform\bsp\bsp_spp.o
LOAD Output\obj\platform\bsp\bsp_sys.o
LOAD Output\obj\platform\bsp\fmrx\fmrx_external.o
LOAD Output\obj\platform\bsp\fmrx\qn8035.o
LOAD Output\obj\platform\functions\func.o
LOAD Output\obj\platform\functions\func_aux.o
LOAD Output\obj\platform\functions\func_bt.o
LOAD Output\obj\platform\functions\func_bt_hid.o
LOAD Output\obj\platform\functions\func_clock.o
LOAD Output\obj\platform\functions\func_exspifalsh_music.o
LOAD Output\obj\platform\functions\func_fmam_freq.o
LOAD Output\obj\platform\functions\func_fmrx.o
LOAD Output\obj\platform\functions\func_idle.o
LOAD Output\obj\platform\functions\func_lowpwr.o
LOAD Output\obj\platform\functions\func_music.o
LOAD Output\obj\platform\functions\func_spdif.o
LOAD Output\obj\platform\functions\func_speaker.o
LOAD Output\obj\platform\functions\func_update.o
LOAD Output\obj\platform\functions\func_usbdev.o
LOAD Output\obj\platform\functions\sfunc_bt_call.o
LOAD Output\obj\platform\functions\sfunc_bt_ota.o
LOAD Output\obj\platform\functions\sfunc_bt_ring.o
LOAD Output\obj\platform\functions\sfunc_record.o
LOAD Output\obj\platform\functions\sfunc_record_play.o
LOAD Output\obj\platform\gui\gui.o
LOAD Output\obj\platform\gui\lcd\lcd.o
LOAD Output\obj\platform\gui\ledseg\ledseg_7p7s.o
LOAD Output\obj\platform\gui\ledseg\ledseg_common.o
LOAD Output\obj\platform\libs\strong_symbol.o
LOAD Output\obj\projects\standard\config.o
LOAD Output\obj\projects\standard\display\display_aux.o
LOAD Output\obj\projects\standard\display\display_bt.o
LOAD Output\obj\projects\standard\display\display_clock.o
LOAD Output\obj\projects\standard\display\display_fmam_freq.o
LOAD Output\obj\projects\standard\display\display_fmrx.o
LOAD Output\obj\projects\standard\display\display_idle.o
LOAD Output\obj\projects\standard\display\display_music.o
LOAD Output\obj\projects\standard\display\display_record.o
LOAD Output\obj\projects\standard\display\display_spdif.o
LOAD Output\obj\projects\standard\display\display_speaker.o
LOAD Output\obj\projects\standard\display\display_usbdev.o
LOAD Output\obj\projects\standard\display\ledseg\display_ledseg.o
LOAD Output\obj\projects\standard\main.o
LOAD Output\obj\projects\standard\message\msg_aux.o
LOAD Output\obj\projects\standard\message\msg_bt.o
LOAD Output\obj\projects\standard\message\msg_clock.o
LOAD Output\obj\projects\standard\message\msg_exspiflash_music.o
LOAD Output\obj\projects\standard\message\msg_fmam_freq.o
LOAD Output\obj\projects\standard\message\msg_fmrx.o
LOAD Output\obj\projects\standard\message\msg_idle.o
LOAD Output\obj\projects\standard\message\msg_music.o
LOAD Output\obj\projects\standard\message\msg_record.o
LOAD Output\obj\projects\standard\message\msg_spdif.o
LOAD Output\obj\projects\standard\message\msg_speaker.o
LOAD Output\obj\projects\standard\message\msg_usbdev.o
LOAD Output\obj\projects\standard\plugin\eq_table.o
LOAD Output\obj\projects\standard\plugin\multi_lang.o
LOAD Output\obj\projects\standard\plugin\plugin.o
LOAD Output\obj\projects\standard\port\port_earphone.o
LOAD Output\obj\projects\standard\port\port_ir.o
LOAD Output\obj\projects\standard\port\port_key.o
LOAD Output\obj\projects\standard\port\port_led.o
LOAD Output\obj\projects\standard\port\port_ledseg.o
LOAD Output\obj\projects\standard\port\port_linein.o
LOAD Output\obj\projects\standard\port\port_mic.o
LOAD Output\obj\projects\standard\port\port_mute.o
LOAD Output\obj\projects\standard\port\port_pwm.o
LOAD Output\obj\projects\standard\port\port_sd.o
LOAD Output\obj\projects\standard\port\port_sd1.o
LOAD Output\obj\projects\standard\port\port_update.o
                0x00000000000c0000                __max_flash_size = 0xc0000
                0x0000000000008800                __comm_ram_size = 0x8800
                0x0000000000003000                __heap_ram_size = 0x3000
                0x0000000000004800                __cram_ram_size = 0x4800
                0x0000000010000000                __base = 0x10000000
                0x0000000000050000                __aram_vma = 0x50000
                0x0000000000018000                __bram_vma = 0x18000
                0x0000000000054000                __dram_vma = 0x54000
                0x0000000000057000                __eram_vma = 0x57000
                0x0000000000017000                __fram_vma = 0x17000
                0x0000000000020000                __comm_vma = 0x20000
                0x0000000000028800                __heap_vma = (__comm_vma + __comm_ram_size)
                0x000000000002b800                __cram_vma = (__heap_vma + __heap_ram_size)
                0x000000000001e000                __bcomm_vma = (__bram_vma + 0x6000)

.init           0x0000000010000000       0x44
 *(.reset)
 .reset         0x0000000010000000       0x44 ..\..\platform\libs\libplatform.a(reset.o)
                0x0000000010000000                _start

.bcomm          0x000000000001e000     0x2000 load address 0x0000000010000200
 *(.com_text.bb.btisr)
 .com_text.bb.btisr
                0x000000000001e000       0x32 ..\..\platform\libs\libbtstack.a(bb.o)
                0x000000000001e000                bthw_soft_isr
                0x000000000001e00a                bthw_isr_do
 .com_text.bb.btisr
                0x000000000001e032       0x68 ..\..\platform\libs\libbtstack.a(bt21.o)
                0x000000000001e032                bt21_isr
 .com_text.bb.btisr
                0x000000000001e09a     0x15e4 ..\..\platform\libs\libbtstack.a(ext_bt.o)
                0x000000000001e09a                bt_check_slot_overlap
                0x000000000001e09e                ext_lc_ack_received
                0x000000000001e298                ext_lc_rx_sync
                0x000000000001e33a                ext_lc_rx_clock
                0x000000000001ed8a                ext_lc_get_next_active_acl
                0x000000000001eeba                ext_lc_clock_isr
 .com_text.bb.btisr
                0x000000000001f67e      0x17c ..\..\platform\libs\libbtstack.a(ext_scan.o)
                0x000000000001f698                ext_lc_get_scan_rssi
                0x000000000001f6c2                lc_scan_check_program_allowed
                0x000000000001f728                ext_lc_scan
                0x000000000001f77e                ext_lc_rx_isr
 .com_text.bb.btisr
                0x000000000001f7fa      0x150 ..\..\platform\libs\libbtstack.a(ext_tws.o)
                0x000000000001f7fa                lc_tws_hssi_instant
                0x000000000001f914                lc_get_ticks_status
 .com_text.bb.btisr
                0x000000000001f94a       0xa8 ..\..\platform\libs\libbtstack.a(avdtp.o)
                0x000000000001f94a                a2dp_get_cache_status
 *(.com_text.bb.rf)
 .com_text.bb.rf
                0x000000000001f9f2      0x110 ..\..\platform\libs\libbtstack.a(bb_rf.o)
                0x000000000001f9f2                rf_cacl_rssi
                0x000000000001fa22                rf_set_agc
                0x000000000001fa24                rf_deep_sleep_exit
 *(.com_text.bb.sco)
 .com_text.bb.sco
                0x000000000001fb02      0x13e ..\..\platform\libs\libbtstack.a(ext_bt.o)
                0x000000000001fb02                ext_lc_sco_rx
 .com_text.bb.sco
                0x000000000001fc40      0x24c ..\..\platform\libs\libbtstack.a(ext_sco.o)
                0x000000000001fc6c                bt_codec_isr
                0x000000000001fd0e                lc_sco_codec_pkt
                0x000000000001fdd4                lc_sco_codec_frame
                0x000000000001fe70                lc_sco_lost_frame
                0x0000000000020000                . = ALIGN (0x200)
 *fill*         0x000000000001fe8c      0x174 

.comm           0x0000000000020000     0x6a00 load address 0x0000000010002200
 *(.vector)
 .vector        0x0000000000020000      0x1f8 ..\..\platform\libs\libplatform.a(reset.o)
 *(.plt)
 *(.com_text*)
 .com_text.dac  0x00000000000201f8       0x30 Output\obj\platform\bsp\bsp_dac.o
                0x00000000000201f8                dac_set_mute_callback
 .com_text.eq   0x0000000000020228       0x8a Output\obj\platform\bsp\bsp_eq.o
                0x0000000000020228                huart_rx_done
                0x0000000000020242                huart_rx_set_dir
                0x000000000002027c                huart_tx_set_dir
 .com_text.fmrx.isr
                0x00000000000202b2       0x12 Output\obj\platform\bsp\bsp_fmrx.o
                0x00000000000202b2                fmrx_tmr1ms_isr
 .com_text.stream
                0x00000000000202c4       0x6a Output\obj\platform\bsp\bsp_fs.o
                0x00000000000202c4                stream_read
                0x0000000000020300                stream_seek
 .com_text.ir   0x000000000002032e       0x4c Output\obj\platform\bsp\bsp_ir.o
                0x000000000002032e                get_irkey
 .com_text.isr.irrx
                0x000000000002037a       0x52 Output\obj\platform\bsp\bsp_ir.o
                0x000000000002037a                irrx_isr
 .com_text.port.key
                0x00000000000203cc      0x108 Output\obj\platform\bsp\bsp_key.o
                0x0000000000020460                get_adc_val
 .com_text.port.vbat
                0x00000000000204d4       0x78 Output\obj\platform\bsp\bsp_key.o
                0x00000000000204d4                get_vbat_val
 .com_text.bsp.key
                0x000000000002054c      0x178 Output\obj\platform\bsp\bsp_key.o
                0x000000000002054c                check_key_return
                0x0000000000020598                get_pwroff_pressed_time
                0x00000000000205ac                get_poweron_flag
                0x00000000000205c0                set_poweron_flag
                0x00000000000205cc                bsp_key_process
                0x00000000000205ec                bsp_key_scan
 .com_text.key.table
                0x00000000000206c4        0x8 Output\obj\platform\bsp\bsp_key.o
                0x00000000000206c4                key_shake_table
 .com_text.led  0x00000000000206cc       0x14 Output\obj\platform\bsp\bsp_led.o
                0x00000000000206cc                tmr5ms_set_sync
 .com_text.led_disp
                0x00000000000206e0      0x52c Output\obj\platform\bsp\bsp_led.o
                0x00000000000206e0                get_led_sta
                0x00000000000206f4                led_cfg_set_on
                0x0000000000020730                led_cfg_set_off
                0x0000000000020770                bled2_set_on
                0x00000000000207c0                bled2_set_off
                0x0000000000020812                rled2_set_on
                0x0000000000020866                rled2_set_off
                0x00000000000208b8                port_2led_scan
                0x00000000000209f6                bled_set_off
                0x0000000000020a16                bled_set_on
                0x0000000000020a36                rled_set_off
                0x0000000000020a56                rled_set_on
                0x0000000000020a76                led_scan
                0x0000000000020b46                charge_led_off
                0x0000000000020b54                charge_led_on
                0x0000000000020b62                led_set_sta
                0x0000000000020bc0                led_cfg_set_sta
 .com_text.detect
                0x0000000000020c0c      0x238 Output\obj\platform\bsp\bsp_sys.o
                0x0000000000020c0c                sd_soft_cmd_detect
                0x0000000000020c8c                sd_detect
                0x0000000000020cf0                usb_detect
                0x0000000000020d6c                linein_micl_is_online
                0x0000000000020d96                linein_detect
                0x0000000000020de4                earphone_detect
 .com_text.timer
                0x0000000000020e44      0x10a Output\obj\platform\bsp\bsp_sys.o
                0x0000000000020e44                usr_tmr1ms_isr
                0x0000000000020e54                usr_tmr5ms_isr
                0x0000000000020f36                timer1_isr
 .com_text.bsp.sys
                0x0000000000020f4e       0x90 Output\obj\platform\bsp\bsp_sys.o
                0x0000000000020f4e                bsp_loudspeaker_mute
                0x0000000000020f66                bsp_loudspeaker_unmute
                0x0000000000020f88                bsp_get_mute_sta
                0x0000000000020f94                powerkey_out_set
 .com_text.func.aux
                0x0000000000020fde        0x4 Output\obj\platform\functions\func_aux.o
                0x0000000000020fde                aux_sdadc_process
 .com_text.bthid
                0x0000000000020fe2       0x18 Output\obj\platform\functions\func_bt_hid.o
                0x0000000000020fe2                is_bthid_mode
 .com_text.sleep
                0x0000000000020ffa       0x3a Output\obj\platform\functions\func_lowpwr.o
                0x0000000000020ffa                lowpwr_tout_ticks
                0x000000000002101e                sys_sleep_check
 .com_text.func.speaker
                0x0000000000021034        0x4 Output\obj\platform\functions\func_speaker.o
                0x0000000000021034                speaker_sdadc_process
 .com_text.display
                0x0000000000021038       0x6e Output\obj\platform\gui\gui.o
                0x0000000000021038                gui_box_isr
 .com_text.bt_rec
                0x00000000000210a6        0x6 Output\obj\platform\libs\strong_symbol.o
                0x00000000000210a6                karaok_rec_fill_buf
                0x00000000000210aa                bt_sco_rec_mix_do
 .com_text.bb.tws.sco
                0x00000000000210ac       0x10 Output\obj\platform\libs\strong_symbol.o
                0x00000000000210ac                ext_lc_tsco_slot_check
                0x00000000000210ae                ext_lc_tsco_get_active_acl
                0x00000000000210b2                ext_lc_tsco_rx
                0x00000000000210b6                ext_lc_tsco_tx_ack
                0x00000000000210ba                ext_lc_tsco_put_txpkt
 .com_text.plugin
                0x00000000000210bc       0x24 Output\obj\projects\standard\plugin\plugin.o
                0x00000000000210bc                plugin_tmr5ms_isr
                0x00000000000210be                plugin_tmr1ms_isr
                0x00000000000210c0                is_sleep_dac_off_enable
 .com_text.bsp.sys
                0x00000000000210e0       0x84 Output\obj\projects\standard\plugin\plugin.o
                0x00000000000210e0                lefmic_zero_detect
                0x0000000000021104                bt_hfp_ring_number_en
                0x0000000000021110                is_func_fmrx_en
                0x000000000002111c                is_sd_support
                0x0000000000021144                is_sd1_support
                0x0000000000021148                is_usb_support
 .com_text.port.vbat
                0x0000000000021164        0x2 Output\obj\projects\standard\plugin\plugin.o
                0x0000000000021164                plugin_vbat_filter
 .com_text.port.key
                0x0000000000021166        0x2 Output\obj\projects\standard\plugin\plugin.o
                0x0000000000021166                plugin_saradc_sel_channel
 .com_text.linein
                0x0000000000021168       0x9c Output\obj\projects\standard\port\port_earphone.o
                0x0000000000021168                earphone_is_online
                0x00000000000211d2                is_detect_earphone_busy
 *fill*         0x0000000000021204        0x0 
 .com_text.ir.table
                0x0000000000021204       0x80 Output\obj\projects\standard\port\port_ir.o
                0x0000000000021204                ir_tbl_FD02
                0x0000000000021224                ir_tbl_FF00
 .com_text.key  0x0000000000021284       0x7c Output\obj\projects\standard\port\port_key.o
                0x0000000000021284                check_key_double_configure
 .com_text.adkey
                0x0000000000021300       0x16 Output\obj\projects\standard\port\port_key.o
                0x0000000000021300                get_adkey_configure
 .com_text.pwrkey
                0x0000000000021316       0x3c Output\obj\projects\standard\port\port_key.o
                0x0000000000021316                get_pwrkey_configure
 *fill*         0x0000000000021352        0x2 
 .com_text.adkey.table
                0x0000000000021354       0x1a Output\obj\projects\standard\port\port_key.o
                0x0000000000021354                adkey_table
 *fill*         0x000000000002136e        0x2 
 .com_text.key.table
                0x0000000000021370       0x14 Output\obj\projects\standard\port\port_key.o
                0x0000000000021370                key_config_table
 .com_text.pwrkey.table
                0x0000000000021384        0xc Output\obj\projects\standard\port\port_key.o
                0x0000000000021384                pwrkey_table
 .com_text.bsp.sys
                0x0000000000021390        0x4 Output\obj\projects\standard\port\port_led.o
                0x0000000000021390                is_led_scan_enable
 .com_text.linein
                0x0000000000021394       0xe4 Output\obj\projects\standard\port\port_linein.o
                0x0000000000021394                linein_is_online
                0x0000000000021418                is_detect_linein_busy
                0x0000000000021458                is_linein_det_mux_micl
 .com_text.mute
                0x0000000000021478      0x148 Output\obj\projects\standard\port\port_mute.o
                0x0000000000021478                loudspeaker_mute
                0x00000000000214ae                loudspeaker_unmute
                0x0000000000021596                loudspeaker_disable
 .com_text.bsp.sys
                0x00000000000215c0       0x92 Output\obj\projects\standard\port\port_sd.o
 .com_text.sdio
                0x0000000000021652       0xa0 Output\obj\projects\standard\port\port_sd.o
                0x0000000000021652                sdcard_is_online
                0x00000000000216ba                is_det_sdcard_busy
 .com_text.sdio.init
                0x00000000000216f2      0x1be Output\obj\projects\standard\port\port_sd.o
                0x00000000000216f2                sd_gpio_init
 .com_text.sdio.init
                0x00000000000218b0        0x2 Output\obj\projects\standard\port\port_sd1.o
                0x00000000000218b0                sd1_gpio_init
 .com_text.dac  0x00000000000218b2      0x1ba ..\..\platform\libs\libplatform.a(audio.o)
                0x00000000000218b2                obuf_put_one_sample
                0x0000000000021900                obuf_put_one_sample_w
                0x0000000000021976                obuf1_put_one_sample_w
                0x00000000000219c0                obuf_put_samples_w
                0x0000000000021a56                obuf_put_samples
 .com_text.eq   0x0000000000021a6c       0x28 ..\..\platform\libs\libplatform.a(audio_eq.o)
                0x0000000000021a6c                huart_rx_kick
 .com_text.eq.isr
                0x0000000000021a94       0x68 ..\..\platform\libs\libplatform.a(audio_eq.o)
                0x0000000000021a94                huart_isr
 .com_text.dac  0x0000000000021afc      0x7de ..\..\platform\libs\libplatform.a(dac.o)
                0x0000000000021afc                dac_analog_fade_out
                0x0000000000021bda                dac_is_fade_in_done
                0x0000000000021bee                dac_fade_in_wait
                0x0000000000021c38                dac_fade_in
                0x0000000000021cba                dac_fade_out
                0x0000000000021d2a                dac_set_analog_vol
                0x0000000000021ddc                dac_analog_fade_auto_do
                0x0000000000021e40                dac_dnr_detect
                0x0000000000021f86                dac_pcm_pow_calc
                0x0000000000021f92                dac_fade_process
                0x0000000000022050                dac_set_volume
                0x0000000000022114                dac_unmute_set_delay
                0x000000000002211c                dac_set_dvol
                0x00000000000221a0                dac_set_balance
                0x00000000000221cc                dac_put_zero
                0x00000000000221ec                dac_w4_aubuf_empty
                0x000000000002221c                dac_aubufsize_set
                0x00000000000222aa                dac_aubuf_clr
 .com_text.bsp.dac
                0x00000000000222da       0x2e ..\..\platform\libs\libplatform.a(dac.o)
                0x00000000000222da                dac_spr_set
 .com_text.dac.dnr
                0x0000000000022308       0x9a ..\..\platform\libs\libplatform.a(dac_dnr.o)
                0x0000000000022308                noise_detect_do
                0x000000000002237e                noise_detect
                0x0000000000022388                mic_noise_detect
                0x0000000000022392                dnr_set_flag
 .com_text.dac.dnr
                0x00000000000223a2       0xe4 ..\..\platform\libs\libplatform.a(s_dac.o)
                0x00000000000223a2                dnr_voice_maxpow
 .com_text.sdadc
                0x0000000000022486      0x196 ..\..\platform\libs\libplatform.a(sdadc.o)
                0x0000000000022486                sdadc_dummy
                0x0000000000022488                sdadc_pcm_2_dac
                0x00000000000224c6                sdadc_pcm_2_src1
                0x0000000000022504                lefmic_zero_detect_do
                0x000000000002256a                sdadc_process
 .com_text.isr.sdadc
                0x000000000002261c       0x54 ..\..\platform\libs\libplatform.a(sdadc.o)
                0x000000000002261c                sdadc_isr
 .com_text.bthw
                0x0000000000022670       0x82 ..\..\platform\libs\libplatform.a(bt.o)
                0x0000000000022670                btstack_uart_lock
                0x0000000000022682                btstack_uart_unlock
                0x0000000000022692                bthw_soft_kick
                0x00000000000226aa                thread_bthw_entry
 .com_text.stack.thread
                0x00000000000226f2       0x32 ..\..\platform\libs\libplatform.a(bt.o)
                0x00000000000226f2                thread_btstack_pend
                0x0000000000022714                thread_btstack_post
 .com_text.stack.run_loop
                0x0000000000022724       0x56 ..\..\platform\libs\libplatform.a(bt.o)
                0x0000000000022724                thread_btstack_entry
 .com_text.aec  0x000000000002277a       0x2e ..\..\platform\libs\libplatform.a(bt_aec.o)
                0x000000000002277a                aec_far_detect
 .com_text.bb.cvsd
                0x00000000000227a8       0x2a ..\..\platform\libs\libplatform.a(bt_aec.o)
                0x00000000000227a8                bt_aec_process
 .com_text.bb.cvsd
                0x00000000000227d2       0x2a ..\..\platform\libs\libplatform.a(bt_alc.o)
                0x00000000000227d2                bt_alc_process
 .com_text.bt_rec.
                0x00000000000227fc       0x48 ..\..\platform\libs\libplatform.a(bt_rec.o)
                0x00000000000227fc                bt_src_out_process
 .com_text.isr.voice
                0x0000000000022844       0x24 ..\..\platform\libs\libplatform.a(bt_sco.o)
                0x0000000000022844                bt_voice_isr
 .com_text.spiflash
                0x0000000000022868       0x8c ..\..\platform\libs\libplatform.a(os_flash.o)
                0x0000000000022868                os_spiflash_read
                0x00000000000228a4                os_spiflash_program
                0x00000000000228d0                os_spiflash_erase
 .com_text.device
                0x00000000000228f4       0xf4 ..\..\platform\libs\libplatform.a(device.o)
                0x00000000000228f4                dev_is_online
                0x0000000000022902                udisk_is_online
                0x000000000002290e                dev_online_filter
                0x0000000000022980                dev_offline_filter
 .com_text.fmrx.isr
                0x00000000000229e8       0x2c ..\..\platform\libs\libplatform.a(fmrx.o)
                0x00000000000229e8                fmrx_dac_sync
 .com_text.delay
                0x0000000000022a14       0x54 ..\..\platform\libs\libplatform.a(main.o)
                0x0000000000022a14                delay_5ms
                0x0000000000022a2e                delay_ms
                0x0000000000022a50                delay_us
 .com_text.exception
                0x0000000000022a68       0x84 ..\..\platform\libs\libplatform.a(main.o)
                0x0000000000022aba                exception_isr
 .com_text.music
                0x0000000000022aec      0x2f8 ..\..\platform\libs\libplatform.a(music.o)
                0x0000000000022b5c                os_msc_sem_pend
                0x0000000000022b6e                os_msc_sem_post
                0x0000000000022b7e                os_tws_sem_pend
                0x0000000000022b90                os_tws_sem_post
                0x0000000000022ba0                music_set_cur_time
                0x0000000000022ba8                music_get_cur_time
                0x0000000000022bb0                get_music_dec_sta
                0x0000000000022bbc                get_music_bitrate
                0x0000000000022bca                music_slot_kick
                0x0000000000022c08                music_enc_control
                0x0000000000022c2c                music_decode
                0x0000000000022ca6                thread_music_entry
 .com_text.sbc  0x0000000000022de4       0x34 ..\..\platform\libs\libplatform.a(music.o)
                0x0000000000022de4                music_sbc_play
 .com_text.aec  0x0000000000022e18        0xc ..\..\platform\libs\libplatform.a(music.o)
                0x0000000000022e18                aec_kick_start
                0x0000000000022e1e                alc_kick_start
 .com_text.bb.plc
                0x0000000000022e24        0x6 ..\..\platform\libs\libplatform.a(music.o)
                0x0000000000022e24                plc_kick_start
 .com_text.irq  0x0000000000022e2a      0x1ee ..\..\platform\libs\libplatform.a(interrupt.o)
                0x0000000000022e2a                bthw_isr
                0x0000000000022e44                bt_codec_mix_isr
                0x0000000000022e5a                timer0_isr
                0x0000000000022ec2                mschw_isr
                0x0000000000022ee4                aubuf_isr
                0x0000000000022f52                register_isr
                0x0000000000022f8e                cpu_irq_comm_do
                0x0000000000022fda                src_isr_func_set
                0x0000000000022ffc                tick_get
                0x0000000000023004                tick_check_expire
 .com_text.tws.isr
                0x0000000000023018       0x16 ..\..\platform\libs\libplatform.a(interrupt.o)
                0x0000000000023018                tws_soft_isr
 .com_text.timer
                0x000000000002302e       0x3a ..\..\platform\libs\libplatform.a(interrupt.o)
                0x000000000002302e                timer2_isr
                0x0000000000023032                usr_tmr_sync
                0x000000000002304c                usr_tmr_tick
 .com_text.timer
                0x0000000000023068       0x10 ..\..\platform\libs\libplatform.a(startup.o)
 .com_text.usb.api
                0x0000000000023078       0x4a ..\..\platform\libs\libplatform.a(startup.o)
                0x0000000000023078                uhs_wait_pending
                0x00000000000230a2                os_sem_uhs_post
                0x00000000000230b2                os_sem_uhs_trytake
 .com_text.stack
                0x00000000000230c2       0x7a ..\..\platform\libs\libplatform.a(sys_hook.o)
                0x00000000000230c2                os_scheduler_stack_check
 .com_text.irq  0x000000000002313c        0xe ..\..\platform\libs\libplatform.a(reset.o)
                0x000000000002313c                cpu_irq_comm
 .com_text.util.isr
                0x000000000002314a        0x6 ..\..\platform\libs\libplatform.a(reset.o)
                0x000000000002314a                kick_soft_isr
 .com_text.irtc
                0x0000000000023150      0x184 ..\..\platform\libs\libplatform.a(rtc.o)
                0x0000000000023150                irtc_time_write
                0x0000000000023190                irtc_time_read
                0x00000000000231ce                irtc_sfr_write
                0x000000000002320e                irtc_sfr_read
                0x000000000002324c                rtcram_write
                0x0000000000023290                rtcram_read
 .com_text.sd.isr
                0x00000000000232d4       0x28 ..\..\platform\libs\libplatform.a(sd_api.o)
                0x00000000000232d4                sdctl_isr
 .com_text.sd.api
                0x00000000000232fc       0xf4 ..\..\platform\libs\libplatform.a(sd_api.o)
                0x00000000000232fc                sd_wait_finish
                0x0000000000023326                sd0_insert
                0x000000000002338e                sd0_remove
                0x00000000000233e6                get_sdcard_capacity
 .com_text.spiflash
                0x00000000000233f0      0x282 ..\..\platform\libs\libplatform.a(spiflash.o)
                0x0000000000023492                spiflash_read
                0x00000000000235ee                spiflash_program
                0x0000000000023642                spiflash_erase
 .com_text.debug
                0x0000000000023672      0x208 ..\..\platform\libs\libplatform.a(debug.o)
 .com_text.lowpwr.sleep
                0x000000000002387a        0xc ..\..\platform\libs\libplatform.a(gpio.o)
                0x000000000002387a                wakeup_get_status
 .com_text.bsp.key
                0x0000000000023886      0x1d6 ..\..\platform\libs\libplatform.a(key.o)
                0x0000000000023886                key_process
                0x00000000000239ea                key_double_process
 .com_text.voltage.trim
                0x0000000000023a5c       0x10 ..\..\platform\libs\libplatform.a(power.o)
                0x0000000000023a5c                pmu_get_vddio
                0x0000000000023a64                pmu_get_vbg
 .com_text.sys  0x0000000000023a6c       0x4a ..\..\platform\libs\libplatform.a(s_sys.o)
                0x0000000000023a6c                s_ff1
                0x0000000000023a72                s_fl1
                0x0000000000023a78                s_log2
                0x0000000000023a80                s_clb
                0x0000000000023a86                s_bcnt
                0x0000000000023a8c                s_ror
                0x0000000000023a92                s_swapw
                0x0000000000023a98                s_bitrvti
                0x0000000000023a9e                mul_r
                0x0000000000023aaa                s_abs
                0x0000000000023ab0                s_clip16
 .com_text.saradc
                0x0000000000023ab6       0x34 ..\..\platform\libs\libplatform.a(saradc.o)
                0x0000000000023ab6                saradc_kick_convert
                0x0000000000023ae0                is_saradc_convert_finish
 .com_text.sys  0x0000000000023aea       0x2e ..\..\platform\libs\libplatform.a(sys_clk.o)
                0x0000000000023aea                set_peripherals_clkdiv_safety
 .com_text.msg.queue
                0x0000000000023b18      0x152 ..\..\platform\libs\libplatform.a(sys_msg.o)
                0x0000000000023b18                msg_queue_clear
                0x0000000000023b28                msg_enqueue
                0x0000000000023b76                msg_dequeue
                0x0000000000023bcc                msg_queue_detach
 .com_text.rec  0x0000000000023c6a        0x2 ..\..\platform\libs\libplatform.a(weak_symbol.o)
                0x0000000000023c6a                puts_rec_obuf
 .com_text.thread.driver
                0x0000000000023c6c       0xc4 ..\..\platform\libs\libplatform.a(thread_driver.o)
                0x0000000000023c6c                os_mq_driver_post
                0x0000000000023c90                thread_driver_entry
 .com_text.aupcm
                0x0000000000023d30       0x24 ..\..\platform\libs\libplatform.a(audio_pcm.o)
                0x0000000000023d30                os_mq_aupcm_post
 .com_text.thread.aupcm
                0x0000000000023d54       0x7a ..\..\platform\libs\libplatform.a(audio_pcm.o)
                0x0000000000023d54                thread_aupcm_entry
 .com_text.bb.loop
                0x0000000000023dce       0x16 ..\..\platform\libs\libbtstack.a(bb.o)
                0x0000000000023dce                bb_run_loop
 .com_text.bb.sleep
                0x0000000000023de4      0x166 ..\..\platform\libs\libbtstack.a(bb.o)
                0x0000000000023de4                bb_pend_proc_get
                0x0000000000023dec                bb_pend_proc_set
                0x0000000000023e18                bb_wakeup
                0x0000000000023e46                bb_pend_proc_clr
                0x0000000000023e76                bb_is_sleep
                0x0000000000023f2e                bb_wakeup_end
 .com_text.rf   0x0000000000023f4a        0xe ..\..\platform\libs\libbtstack.a(bb_rf.o)
 .com_text.bb.leisr
                0x0000000000023f58        0x2 ..\..\platform\libs\libbtstack.a(ble.o)
                0x0000000000023f58                ble_isr
 .com_text.bb.leisr
                0x0000000000023f5a        0x4 ..\..\platform\libs\libbtstack.a(ble_evt.o)
                0x0000000000023f5a                ble_evt_free_do
                0x0000000000023f5c                ble_evt_instant
 .com_text.bb.leisr
                0x0000000000023f5e        0x2 ..\..\platform\libs\libbtstack.a(ble_lc.o)
                0x0000000000023f5e                ble_lc_check_update_evt_sent
 .com_text.bb.leisr
                0x0000000000023f60        0x2 ..\..\platform\libs\libbtstack.a(ble_lm.o)
                0x0000000000023f60                ble_lm_adv_data_update
 .com_text.bb.bttx
                0x0000000000023f62       0x5c ..\..\platform\libs\libbtstack.a(ext_acl.o)
                0x0000000000023f62                ext_lc_acl_flush_txptr
 .com_text.bbs.btisr
                0x0000000000023fbe      0x116 ..\..\platform\libs\libbtstack.a(ext_bt.o)
                0x00000000000240ba                ext_lc_proc_sniff_link
 .com_text.bb.sniff
                0x00000000000240d4       0xfc ..\..\platform\libs\libbtstack.a(ext_bt.o)
                0x00000000000240d4                ext_lc_sniff_winsz_do_fix
                0x000000000002414a                ext_lc_delta_clk_fix
                0x00000000000241a0                ext_lc_acl_flow_stop_msg
 .com_text.bb.btrx
                0x00000000000241d0      0x1ec ..\..\platform\libs\libbtstack.a(ext_bt.o)
                0x00000000000241d0                ext_lc_data_rx
 .com_text.sbc.tx
                0x00000000000243bc       0xd8 ..\..\platform\libs\libbtstack.a(ext_flush.o)
                0x00000000000243bc                lc_flush_sbc_buf
 .com_text.bb.bt
                0x0000000000024494       0x8e ..\..\platform\libs\libbtstack.a(ext_init.o)
                0x0000000000024494                hwbt_init_link
 .com_text.bb.cvsd
                0x0000000000024522       0x3a ..\..\platform\libs\libbtstack.a(ext_sco.o)
                0x0000000000024522                bt_sco_process
 .com_text.bb.tws
                0x000000000002455c      0x158 ..\..\platform\libs\libbtstack.a(ext_tws.o)
                0x000000000002455c                tws_timer_isr
 .com_text.bb.sniff
                0x00000000000246b4       0x3e ..\..\platform\libs\libbtstack.a(ext_util.o)
                0x00000000000246b4                lc_get_lmp_in_sniff
 .com_text.bb.sw
                0x00000000000246f2       0x20 ..\..\platform\libs\libbtstack.a(ext_util.o)
                0x00000000000246f2                lc_role_switch_allowed
 .com_text.bb.bt
                0x0000000000024712       0x20 ..\..\platform\libs\libbtstack.a(lc_acl.o)
                0x0000000000024712                lc_acl_set_poll_interval
 .com_text.bb.lc
                0x0000000000024732       0x7a ..\..\platform\libs\libbtstack.a(lc_acl.o)
                0x0000000000024732                lc_send_unsniff_msg
 .com_text.bb.btsw
                0x00000000000247ac       0x24 ..\..\platform\libs\libbtstack.a(lc_util.o)
                0x00000000000247ac                lc_util_rsw_en
 .com_text.bb.lm_sco
                0x00000000000247d0       0x34 ..\..\platform\libs\libbtstack.a(lm_sco.o)
                0x00000000000247d0                lm_sco_get_index_for_conhdl
 .com_text.bb.sleep
                0x0000000000024804       0x48 ..\..\platform\libs\libbtstack.a(lm_sleep.o)
                0x0000000000024804                lm_sleep_wakeup
                0x000000000002484a                lm_sleep_wakeup_end
 .com_text.nanos
                0x000000000002484c       0x5e ..\..\platform\libs\libbtstack.a(nanos.o)
                0x000000000002484c                nanos_time
                0x0000000000024866                nanos_event_set
                0x000000000002487a                nanos_timer_hw_set
 .com_text.bb.sleep
                0x00000000000248aa       0x30 ..\..\platform\libs\libbtstack.a(btstack_api.o)
                0x00000000000248aa                bt_pb_check
                0x00000000000248ae                bt_is_sleep
                0x00000000000248c6                btstack_is_sleep_status
 .com_text.stack.api
                0x00000000000248da      0x1be ..\..\platform\libs\libbtstack.a(btstack_api.o)
                0x00000000000248da                bt_is_testmode
                0x00000000000248e8                bt_is_l2cap_disconnected
                0x0000000000024902                bt_is_disconnecting
                0x000000000002491c                btstack_status_update
                0x0000000000024930                btstack_set_play_status
                0x0000000000024968                btstack_get_play_status
                0x0000000000024976                bt_get_status
                0x0000000000024a04                bt_get_disp_status
                0x0000000000024a62                le_get_status
                0x0000000000024a72                bt_tws_is_slave
 .com_text.stack.run_loop
                0x0000000000024a98       0xea ..\..\platform\libs\libbtstack.a(btstack_api.o)
                0x0000000000024a98                btstack_msg
                0x0000000000024aa8                btstack_message
 .com_text.sco  0x0000000000024b82       0x4a ..\..\platform\libs\libbtstack.a(btstack_api.o)
                0x0000000000024b82                sco_is_bypass
                0x0000000000024ba2                sco_is_msbc_on
 .com_text.stack.ticks
                0x0000000000024bcc       0x16 ..\..\platform\libs\libbtstack.a(btstack_hal.o)
                0x0000000000024bcc                sys_tick_handler
 .com_text.stack.uart_isr
                0x0000000000024be2       0x72 ..\..\platform\libs\libbtstack.a(btstack_hal.o)
                0x0000000000024be2                bt_uart_isr
 .com_text.isr  0x0000000000024c54       0x12 ..\..\platform\libs\libbtstack.a(btstack_hal.o)
                0x0000000000024c54                bt_timer_isr
 .com_text.huart
                0x0000000000024c66        0xe ..\..\platform\libs\libbtstack.a(btstack_misc.o)
                0x0000000000024c66                huart_get_rxcnt
                0x0000000000024c6a                huart_getchar
                0x0000000000024c6e                huart_tx
                0x0000000000024c70                huart_tx_done
 .com_text.stack.hcic
                0x0000000000024c74        0xe ..\..\platform\libs\libbtstack.a(hci_transport_hcic.o)
                0x0000000000024c74                hcic_can_send_packet_now
 .com_text.tws.api
                0x0000000000024c82        0x4 ..\..\platform\libs\libbtstack.a(weak_symbol.o)
                0x0000000000024c82                bt_tws_mic_is_en
 .com_text.bt_rec
                0x0000000000024c86        0x2 ..\..\platform\libs\libbtstack.a(weak_symbol.o)
                0x0000000000024c86                bt_sco_rec_mix
 .com_text.stack.run_loop
                0x0000000000024c88       0x8c ..\..\platform\libs\libbtstack.a(btstack_run_loop.o)
                0x0000000000024c88                btstack_cmp_abs_tick
                0x0000000000024c8e                btstack_run_loop_execute_once
 .com_text.stack.thread
                0x0000000000024d14        0xc ..\..\platform\libs\libbtstack.a(btstack_run_loop.o)
                0x0000000000024d14                btstack_run_loop_embedded_trigger
 .com_text.stack.ticks
                0x0000000000024d20       0x1e ..\..\platform\libs\libbtstack.a(btstack_run_loop.o)
 .com_text.sbc.play
                0x0000000000024d3e      0x2d6 ..\..\platform\libs\libbtstack.a(a2dp_play.o)
                0x0000000000024d3e                sbc_cache_env_reset
                0x0000000000024de8                sbc_cache_reset
                0x0000000000024e92                sbc_play_reset
                0x0000000000024f14                tws_ticks_trigger
                0x0000000000024f62                tws_get_play_ticks
                0x0000000000024fd0                tws_get_near_state
                0x0000000000024fe4                tws_trigger_isr
 .com_text.sbc_cache
                0x0000000000025014      0x43c ..\..\platform\libs\libbtstack.a(a2dp_play.o)
                0x0000000000025014                sbc_lost_list_not_empty
                0x0000000000025020                sbc_cache_fill
 .com_text.sbc_play
                0x0000000000025450       0x48 ..\..\platform\libs\libbtstack.a(a2dp_play.o)
                0x0000000000025450                tws_cache_is_empty
 .com_text.a2dp_play
                0x0000000000025498        0x2 ..\..\platform\libs\libbtstack.a(a2dp_play.o)
                0x0000000000025498                tws_play_sync
 .com_text.sbc  0x000000000002549a      0x19a ..\..\platform\libs\libbtstack.a(a2dp_play.o)
                0x000000000002549a                avdtp_check_tws_reset
                0x00000000000254fc                sbc_cache_before_rx
 .com_text.sbc.send
                0x0000000000025634      0x1e8 ..\..\platform\libs\libbtstack.a(a2dp_play.o)
                0x0000000000025634                tws_send_pkt
 .com_text.sbc  0x000000000002581c       0xac ..\..\platform\libs\libbtstack.a(a2dp_send.o)
                0x000000000002581c                a2dp_tx_sbc
                0x000000000002581e                sbc_get_tx_cid
                0x0000000000025826                sbc_get_tx_lid
                0x000000000002582e                acl_check_tx
                0x000000000002586c                sbc_tx_valid
                0x000000000002588c                sbc_tx_empty
                0x000000000002589e                sbc_tx_alloc
                0x00000000000258b8                sbc_tx_free
 .com_text.stack.sbc
                0x00000000000258c8       0xa6 ..\..\platform\libs\libbtstack.a(avdtp.o)
                0x00000000000258c8                avdtp_fill_sbc_buffer
                0x0000000000025912                avdtp_fill_tws_buffer
 .com_text.sbc  0x000000000002596e      0x3c0 ..\..\platform\libs\libbtstack.a(avdtp.o)
                0x000000000002596e                sbc_rx_reset
                0x000000000002597c                sbc_rx_w4_reset
                0x00000000000259aa                sbc_is_rx_reset
                0x00000000000259f0                sbc_rx_is_full
                0x0000000000025a06                avdtp_fill_reset
                0x0000000000025a5e                btstack_check_sbc_fill
                0x0000000000025a84                acl_pending_sbc_data
                0x0000000000025a96                acl_check_rx
                0x0000000000025c14                avdtp_clear_sbc
                0x0000000000025c7e                avdtp_fill_sbc
 .com_text.stack.hci
                0x0000000000025d2e       0x5c ..\..\platform\libs\libbtstack.a(hci.o)
                0x0000000000025d2e                hci_connection_for_handle
                0x0000000000025d52                hci_can_send_command_packet_now
 .com_text.sco  0x0000000000025d8a        0xc ..\..\platform\libs\libbtstack.a(hci.o)
                0x0000000000025d8a                hci_get_sco_voice_setting
 .com_text.stack.handler
                0x0000000000025d96      0x184 ..\..\platform\libs\libbtstack.a(hci.o)
 .com_text.stack.handler.l2cap
                0x0000000000025f1a       0x38 ..\..\platform\libs\libbtstack.a(l2cap.o)
                0x0000000000025f1a                l2cap_get_channel_for_local_cid
                0x0000000000025f32                l2cap_get_channel_for_remote_cid
 .com_text.bb.scan
                0x0000000000025f52       0x58 ..\..\platform\libs\libbtstack.a(lc_scan.o)
                0x0000000000025f52                lc_scan_check_page_enable
 .com_text.stack.linked_list
                0x0000000000025faa       0x50 ..\..\platform\libs\libbtstack.a(btstack_linked_list.o)
                0x0000000000025faa                btstack_linked_list_empty
                0x0000000000025fb2                btstack_linked_list_iterator_init
                0x0000000000025fbe                btstack_linked_list_iterator_has_next
                0x0000000000025fdc                btstack_linked_list_iterator_next
 .com_text.fs   0x0000000000025ffa        0x8 ..\..\platform\libs\libdrivers.a(pff_fat.o)
                0x0000000000025ffa                fs_get_file_pos
 .com_text.sdio.init
                0x0000000000026002        0xa ..\..\platform\libs\libdrivers.a(sd.o)
                0x0000000000026002                sd_gpio_init_ex
 .com_text.usb  0x000000000002600c       0x20 ..\..\platform\libs\libdrivers.a(usb_comm.o)
                0x000000000002600c                usb_interrupt_disable
 .com_text.irq  0x000000000002602c        0xc ..\..\platform\libs\libdrivers.a(usb_comm.o)
                0x000000000002602c                usb_isr
 *fill*         0x0000000000026038        0x0 
 .com_text.epsize.table
                0x0000000000026038        0x4 ..\..\platform\libs\libdrivers.a(usb_comm.o)
                0x0000000000026038                epsize_tbl
 .com_text.usb.dectect
                0x000000000002603c      0x106 ..\..\platform\libs\libdrivers.a(usb_detect.o)
                0x000000000002603c                usbchk_switch_otg_device
                0x0000000000026056                usbchk_switch_otg_host
                0x0000000000026070                usbchk_only_host
                0x0000000000026088                usbchk_only_device
                0x00000000000260a2                usbchk_connect
 .com_text.usbdev
                0x0000000000026142       0x20 ..\..\platform\libs\libdrivers.a(usb_device_hid.o)
                0x0000000000026142                ude_tmr_isr
 .com_text.usb.device
                0x0000000000026162       0x62 ..\..\platform\libs\libdrivers.a(usb_device_run_loop.o)
                0x0000000000026162                pc_remove
 .com_text.irq  0x00000000000261c4        0xe ..\..\platform\libs\libdrivers.a(usb_device_run_loop.o)
                0x00000000000261c4                usb_dev_isr
 .com_text.irq  0x00000000000261d2       0x20 ..\..\platform\libs\libdrivers.a(usb_host_manage.o)
                0x00000000000261d2                usb_host_isr
 .com_text.usb.host
                0x00000000000261f2       0x6e ..\..\platform\libs\libdrivers.a(usb_host_manage.o)
                0x00000000000261f2                udisk_insert
                0x0000000000026214                udisk_remove
 .com_text.avio
                0x0000000000026260      0x2ec ..\..\platform\libs\libcodecs.a(aviobuf.o)
                0x00000000000262ca                avio_seek
                0x0000000000026370                avio_skip
                0x0000000000026374                avio_tell
                0x000000000002637a                avio_feof
                0x000000000002639c                avio_r8
                0x00000000000263ca                avio_read
                0x000000000002643a                avio_rl16
                0x000000000002645a                avio_rl24
                0x000000000002647a                avio_rl32
                0x000000000002649a                avio_rl64
                0x00000000000264ba                avio_rb16
                0x00000000000264da                avio_rb24
                0x00000000000264fa                avio_rb32
                0x000000000002651a                avio_peek
 .com_text.deccom
                0x000000000002654c       0x2a ..\..\platform\libs\libcodecs.a(codecs_com.o)
                0x000000000002654c                calc_codec_playtime
                0x0000000000026566                update_codec_playtime_callback
 .com_text.qskip
                0x0000000000026576       0x10 ..\..\platform\libs\libcodecs.a(codecs_com.o)
                0x0000000000026576                music_get_breakpiont
 .com_text.code
                0x0000000000026586       0x68 ..\..\platform\libs\libcodecs.a(bt_sbc.o)
                0x0000000000026586                sbc_cache_is_empty
                0x00000000000265c4                sbc_tws_kick_play
 .com_text.sbc.exit
                0x00000000000265ee        0x8 ..\..\platform\libs\libcodecs.a(bt_sbc.o)
                0x00000000000265ee                sbc_dec_end
 .com_text.sbcdec
                0x00000000000265f6       0x4c ..\..\platform\libs\libcodecs.a(bt_sbc.o)
                0x00000000000265f6                sbc_dec_reset
 *(.com_rodata*)
 *fill*         0x0000000000026642        0x2 
 .com_rodata.exception
                0x0000000000026644       0x1f ..\..\platform\libs\libplatform.a(main.o)
 *fill*         0x0000000000026663        0x1 
 .com_rodata.bb
                0x0000000000026664       0x40 ..\..\platform\libs\libbtstack.a(ext_bt.o)
                0x0000000000026664                acl_packet_size
                0x0000000000026684                acl_edr_packet_size
 .com_rodata.bb.tws
                0x00000000000266a4       0x30 ..\..\platform\libs\libbtstack.a(ext_tws.o)
 .com_rodata.bb.tbl
                0x00000000000266d4        0x9 ..\..\platform\libs\libbtstack.a(ext_util.o)
 *fill*         0x00000000000266dd        0x3 
 .com_rodata.hci.trans
                0x00000000000266e0       0x20 ..\..\platform\libs\libbtstack.a(hci_transport_hcic.o)
 .com_rodata.sbc.play
                0x0000000000026700       0x49 ..\..\platform\libs\libbtstack.a(a2dp_play.o)
                0x0000000000026700                sbc_dummy_frame
 *fill*         0x0000000000026749        0x3 
 .com_rodata.sbc
                0x000000000002674c       0x11 ..\..\platform\libs\libbtstack.a(a2dp_send.o)
                0x000000000002674c                str_dbg_send
                0x0000000000026750                sbc_header
 *fill*         0x000000000002675d        0x3 
 .com_rodata.btstakc.hci
                0x0000000000026760        0x8 ..\..\platform\libs\libbtstack.a(hci_cmd.o)
                0x0000000000026760                hci_num_of_packet_complete
 *debug.o(.rodata*)
 .rodata        0x0000000000026768       0x14 ..\..\platform\libs\libplatform.a(debug.o)
 .rodata.str1.4
                0x000000000002677c       0xb8 ..\..\platform\libs\libplatform.a(debug.o)
 *(.data*)
 .data          0x0000000000026834       0x10 Output\obj\platform\bsp\bsp_bt.o
                0x0000000000026834                bt_cfg
 *(.sdata*)
 .sdata         0x0000000000026844        0x4 Output\obj\platform\bsp\bsp_audio.o
                0x0000000000026844                btmic_ch_tbl
 .sdata         0x0000000000026848        0x4 Output\obj\platform\bsp\bsp_sys.o
                0x0000000000026848                maxvol_tbl
 .sdata         0x000000000002684c        0x8 Output\obj\platform\functions\func_bt.o
 .sdata         0x0000000000026854       0x20 ..\..\platform\libs\libplatform.a(audio_eq.o)
 .sdata         0x0000000000026874        0x1 ..\..\platform\libs\libplatform.a(dac.o)
 *fill*         0x0000000000026875        0x3 
 .sdata         0x0000000000026878        0x4 ..\..\platform\libs\libbtstack.a(bb_rf.o)
 .sdata         0x000000000002687c        0x3 ..\..\platform\libs\libbtstack.a(lc_sco.o)
 *fill*         0x000000000002687f        0x1 
 .sdata         0x0000000000026880        0xc ..\..\platform\libs\libbtstack.a(btstack_hal.o)
 .sdata         0x000000000002688c        0x6 ..\..\platform\libs\libbtstack.a(btstack_main.o)
 .sdata         0x0000000000026892        0x1 ..\..\platform\libs\libbtstack.a(avdtp.o)
 *fill*         0x0000000000026893        0x1 
 .sdata         0x0000000000026894        0x2 ..\..\platform\libs\libbtstack.a(hfp.o)
 *fill*         0x0000000000026896        0x2 
 .sdata         0x0000000000026898        0xf ..\..\platform\libs\libbtstack.a(sdp_client.o)
 *fill*         0x00000000000268a7        0x1 
 .sdata         0x00000000000268a8        0x4 ..\..\platform\libs\libbtstack.a(sdp_server.o)
 .sdata         0x00000000000268ac        0x6 ..\..\platform\libs\libbtstack.a(hci.o)
 *fill*         0x00000000000268b2        0x2 
 .sdata         0x00000000000268b4        0x8 ..\..\platform\libs\libbtstack.a(hci_sco.o)
                0x00000000000268b4                sco_far_begin
                0x00000000000268b8                sco_far_size
 .sdata         0x00000000000268bc        0x4 ..\..\platform\libs\libbtstack.a(l2cap.o)
 .sdata         0x00000000000268c0        0x3 ..\..\platform\libs\libbtstack.a(l2cap_signaling.o)
 *fill*         0x00000000000268c3        0x1 
 .sdata         0x00000000000268c4        0x8 ..\..\platform\libs\libbtstack.a(l2cap_test.o)
 .sdata         0x00000000000268cc       0x17 ..\..\platform\libs\libdrivers.a(usb_host_storage.o)
 *fill*         0x00000000000268e3        0x1 
 .sdata         0x00000000000268e4       0x40 ..\..\platform\libs\libdrivers.a(usb_host_enum.o)
 .sdata         0x0000000000026924        0x8 ..\..\platform\libs\libcodecs.a(bt_sbc.o)
                0x0000000000026928                tbl_msbc_enc_header
 *(.load_text)
 *(.load_rodata)
                0x0000000000026a00                . = ALIGN (0x200)
 *fill*         0x000000000002692c       0xd4 

.flash          0x0000000010008c00    0x53c00
                0x0000000010008c00                __code_start_sbcdec = .
 *(.sbcdec*)
 .sbcdec.code.pcm
                0x0000000010008c00        0x2 Output\obj\platform\libs\strong_symbol.o
                0x0000000010008c00                bt_sbc_pcm_output
 .sbcdec.code   0x0000000010008c02       0x32 ..\..\platform\libs\libplatform.a(audio.o)
                0x0000000010008c02                adpll_adjust_speed
 .sbcdec.code   0x0000000010008c34        0xc ..\..\platform\libs\libplatform.a(music.o)
                0x0000000010008c34                msbc_kick_start
 .sbcdec.code   0x0000000010008c40      0x2e0 ..\..\platform\libs\libbtstack.a(a2dp_play.o)
                0x0000000010008c40                sbc_cache_free
                0x0000000010008cf4                sbc_cache_read
                0x0000000010008e14                tws_deg_clock
                0x0000000010008e76                sbc_dec_frame
                0x0000000010008e86                tws_is_first_pkt
                0x0000000010008ea4                tws_decoder_waiting
 .sbcdec.code   0x0000000010008f20      0x494 ..\..\platform\libs\libcodecs.a(bt_sbc.o)
                0x0000000010008f20                sbc_set_dac_sample
                0x0000000010008f42                bt_msbc_hw_init
                0x0000000010008f6a                bt_msbc_pcm_output
                0x0000000010008fa6                msbc_enc_frame
                0x0000000010008fd6                btmsbc_fill_callback
                0x0000000010009062                btsbc_fill_callback
                0x000000001000914c                sbc_tws_dec_frame
                0x0000000010009186                sbc_nor_dec_frame
                0x000000001000938e                bt_msbc_process
 .sbcdec.init   0x00000000100093b4       0x50 ..\..\platform\libs\libcodecs.a(bt_sbc.o)
                0x00000000100093b4                sbc_dec_init
 .sbcdec.code   0x0000000010009404      0x6fc ..\..\platform\libs\libcodecs.a(sbc_dec.o)
                0x000000001000957a                sbc_hwdec_init
                0x00000000100097a6                sbc_hwdec_kick
                0x0000000010009836                sbc_read_header
                0x0000000010009872                sbc_unpack_reset
                0x0000000010009888                sbc_decode
                0x0000000010009ae8                sbcdec_end
 .sbcdec.init   0x0000000010009b00       0x4a ..\..\platform\libs\libcodecs.a(sbc_dec.o)
                0x0000000010009b00                sbcdec_init
 *(.sbc_com*)
 *fill*         0x0000000010009b4a        0x2 
 .sbc_com.pll   0x0000000010009b4c       0x20 ..\..\platform\libs\libplatform.a(audio.o)
                0x0000000010009b4c                adpll_ajust_table
 .sbc_com.clac_bits
                0x0000000010009b6c      0x49e ..\..\platform\libs\libcodecs.a(sbc.o)
                0x0000000010009ffa                sbc_calculate_bits
 .sbc_com.crc   0x000000001000a00a       0x5a ..\..\platform\libs\libcodecs.a(sbc.o)
                0x000000001000a00a                sbc_crc8
 .sbc_com.info  0x000000001000a064       0x68 ..\..\platform\libs\libcodecs.a(sbc.o)
                0x000000001000a064                sbc_get_frame_length
 *fill*         0x000000001000a0cc        0x0 
 .sbc_com.crc_table
                0x000000001000a0cc      0x100 ..\..\platform\libs\libcodecs.a(sbc.o)
                0x000000001000a0cc                crc_table
 .sbc_com.table
                0x000000001000a1cc       0x30 ..\..\platform\libs\libcodecs.a(sbc.o)
                0x000000001000a200                . = ALIGN (0x200)
 *fill*         0x000000001000a1fc        0x4 
                0x000000001000a200                __code_end_sbcdec = .
                0x000000001000a200                __code_start_mp3dec = .
 *(.mp3dec*)
 .mp3dec.dac    0x000000001000a200       0x5c ..\..\platform\libs\libplatform.a(music.o)
                0x000000001000a200                mpeg_pcm_output
 .mp3dec.sync   0x000000001000a25c       0x1c ..\..\platform\libs\libplatform.a(music.o)
                0x000000001000a25c                mp3_sync_sysclk_recover
                0x000000001000a272                mp3_sync_set_sysclk
 .mp3dec.decrypt
                0x000000001000a278       0x7c ..\..\platform\libs\libplatform.a(music_decrypt.o)
                0x000000001000a278                music_stream_decrypt
 .mp3dec.dec    0x000000001000a2f4       0x7c ..\..\platform\libs\libcodecs.a(mp3_dec.o)
                0x000000001000a2f4                mp3_get_total_time
                0x000000001000a328                mp3_end
                0x000000001000a352                mp3_dec_frame
 .mp3dec.mad.bits
                0x000000001000a370      0x2a8 ..\..\platform\libs\libcodecs.a(bit.o)
                0x000000001000a370                mad_bit_init
                0x000000001000a38c                mad_bit_set
                0x000000001000a3ae                mad_bit_reset
                0x000000001000a3c6                mad_load_bit_add
                0x000000001000a3ce                mad_fill_bitbuf
                0x000000001000a430                mad_bit_skip
                0x000000001000a4fe                mad_bit_read
                0x000000001000a5d4                mp3_head_bit_init
                0x000000001000a5f4                mp3_stream_bit_init
 .mp3dec.frame  0x000000001000a618      0x9fc ..\..\platform\libs\libcodecs.a(frame.o)
                0x000000001000a618                mad_frame_finish
                0x000000001000a61e                mp3_decode_header
                0x000000001000a7d6                mp3_sync
                0x000000001000a8b6                mp3_get_frame_len
                0x000000001000a902                avio_skip_peek
                0x000000001000aa26                mp3_maindata_start
                0x000000001000aa60                mp3_check_maindata_len
                0x000000001000aa6e                mp3_frame_end
                0x000000001000aaa8                mp3_save_point
                0x000000001000aae0                mp3_q_jump
                0x000000001000ab16                mad_frame_decode
 *fill*         0x000000001000b014        0x0 
 .mp3dec.dec.fram_tbl
                0x000000001000b014      0x138 ..\..\platform\libs\libcodecs.a(frame.o)
                0x000000001000b014                bitrate_table
                0x000000001000b140                samplerate_table
 .mp3dec.layer12
                0x000000001000b14c       0xd2 ..\..\platform\libs\libcodecs.a(layer12.o)
 .mp3dec.layer2
                0x000000001000b21e      0x598 ..\..\platform\libs\libcodecs.a(layer12.o)
                0x000000001000b282                mad_layer_II
 .mp3dec.layer1
                0x000000001000b7b6      0x2ae ..\..\platform\libs\libcodecs.a(layer12.o)
                0x000000001000b7b6                mad_layer_I
 .mp3dec.layer2.table
                0x000000001000ba64      0x1fc ..\..\platform\libs\libcodecs.a(layer12.o)
 .mp3dec.layer3
                0x000000001000bc60      0xf84 ..\..\platform\libs\libcodecs.a(layer3.o)
                0x000000001000bc60                III_sideinfo
                0x000000001000bec4                III_scalefactors_lsf
                0x000000001000c0ec                III_scalefactors
                0x000000001000c284                III_exponents
                0x000000001000c3c6                III_huffdecode
                0x000000001000c8dc                III_decode
                0x000000001000cbda                mad_layer_III
 *fill*         0x000000001000cbe4        0x0 
 .mp3dec.layer3.nsfb_table
                0x000000001000cbe4       0x48 ..\..\platform\libs\libcodecs.a(layer3.o)
                0x000000001000cbe4                nsfb_table
 .mp3dec.layer3.pretab
                0x000000001000cc2c       0x16 ..\..\platform\libs\libcodecs.a(layer3.o)
                0x000000001000cc2c                pretab
 *fill*         0x000000001000cc42        0x2 
 .mp3dec.layer3.sfb_table
                0x000000001000cc44      0x31e ..\..\platform\libs\libcodecs.a(layer3.o)
                0x000000001000cc44                sfbwidth_table
                0x000000001000ccb0                sfb_8000_mixed
                0x000000001000ccd8                sfb_8000_short
                0x000000001000cd00                sfb_8000_long
                0x000000001000cd18                sfb_16000_mixed
                0x000000001000cd3c                sfb_22050_mixed
                0x000000001000cd60                sfb_24000_mixed
                0x000000001000cd84                sfb_16000_short
                0x000000001000cdac                sfb_22050_short
                0x000000001000cdd4                sfb_24000_short
                0x000000001000cdfc                sfb_22050_long
                0x000000001000ce14                sfb_24000_long
                0x000000001000ce2c                sfb_32000_mixed
                0x000000001000ce54                sfb_44100_mixed
                0x000000001000ce7c                sfb_48000_mixed
                0x000000001000cea4                sfb_32000_short
                0x000000001000cecc                sfb_44100_short
                0x000000001000cef4                sfb_48000_short
                0x000000001000cf1c                sfb_32000_long
                0x000000001000cf34                sfb_44100_long
                0x000000001000cf4c                sfb_48000_long
 *fill*         0x000000001000cf62        0x2 
 .mp3dec.layer3.sflen_table
                0x000000001000cf64       0x20 ..\..\platform\libs\libcodecs.a(layer3.o)
                0x000000001000cf64                sflen_table
 .mp3dec.huffman
                0x000000001000cf84     0x1228 ..\..\platform\libs\libcodecs.a(huffman.o)
                0x000000001000cf84                mad_huff_pair_table
                0x000000001000d084                mad_huff_quad_table
                0x000000001000d08c                hufftab24
                0x000000001000d390                hufftab16
                0x000000001000d6b4                hufftab15
                0x000000001000d9ac                hufftab13
                0x000000001000dcc8                hufftab12
                0x000000001000dd88                hufftab11
                0x000000001000de58                hufftab10
                0x000000001000df24                hufftab9
                0x000000001000df90                hufftab8
                0x000000001000e014                hufftab7
                0x000000001000e094                hufftab6
                0x000000001000e0cc                hufftab5
                0x000000001000e100                hufftab3
                0x000000001000e120                hufftab2
                0x000000001000e140                hufftab1
                0x000000001000e150                hufftab0
                0x000000001000e154                hufftabB
                0x000000001000e174                hufftabA
                0x000000001000e200                . = ALIGN (0x200)
 *fill*         0x000000001000e1ac       0x54 
                0x000000001000e200                __code_end_mp3dec = .
                0x000000001000e200                __code_start_sniff = .
 *(.sniff*)
 .sniff.bb.entry
                0x000000001000e200      0x254 ..\..\platform\libs\libbtstack.a(ext_sniff.o)
                0x000000001000e288                lc_sniff_entry_transition_mode
                0x000000001000e332                lc_sniff_entry
                0x000000001000e600                . = ALIGN (0x200)
 *fill*         0x000000001000e454      0x1ac 
                0x000000001000e600                __code_end_sniff = .
                0x000000001000e600                __code_start_wavdec = .
 *(.wavdec*)
 .wavdec.code   0x000000001000e600      0x9ee ..\..\platform\libs\libcodecs.a(wavdec.o)
                0x000000001000e600                dump_header_info
                0x000000001000e602                wav_read_header
                0x000000001000e766                get_bits_le
                0x000000001000e7e4                adpcm_decode_8_samples
                0x000000001000e900                wav_save_point
                0x000000001000e946                ima_adpcm_block_dec
                0x000000001000ea9c                wav_dec_init
                0x000000001000ebd6                standard_pcm_dec
                0x000000001000eeb2                wav_jump
                0x000000001000eede                wav_sub_process
                0x000000001000efa0                wav_dec_frame
 *fill*         0x000000001000efee        0x2 
 .wavdec.table  0x000000001000eff0       0xdc ..\..\platform\libs\libcodecs.a(wavdec.o)
                0x000000001000eff0                ff_adpcm_step_table
                0x000000001000f0a4                ff_adpcm_index_tables
                0x000000001000f0b0                ff_adpcm_index_table4
                0x000000001000f0c0                adpcm_index_table3
                0x000000001000f0c8                adpcm_index_table2
                0x000000001000f200                . = ALIGN (0x200)
 *fill*         0x000000001000f0cc      0x134 
                0x000000001000f200                __code_end_wavdec = .
                0x000000001000f200                __code_start_wmadec = .
 *(.wmadec*)
                0x000000001000f200                . = ALIGN (0x200)
                0x000000001000f200                __code_end_wmadec = .
                0x000000001000f200                __code_start_apedec = .
 *(.apedec*)
 .apedec.swapw  0x000000001000f200       0x76 ..\..\platform\libs\libcodecs.a(avio.o)
                0x000000001000f200                swapw_buf
                0x000000001000f400                . = ALIGN (0x200)
 *fill*         0x000000001000f276      0x18a 
                0x000000001000f400                __code_end_apedec = .
                0x000000001000f400                __code_start_flacdec = .
 *(.flacdec*)
                0x000000001000f400                . = ALIGN (0x200)
                0x000000001000f400                __code_end_flacdec = .
                0x000000001000f400                __code_start_mp3enc = .
 *(.mp3enc*)
                0x000000001000f400                . = ALIGN (0x200)
                0x000000001000f400                __code_end_mp3enc = .
                0x000000001000f400                __code_start_mp2enc = .
 *(.mp2enc*)
                0x000000001000f400                . = ALIGN (0x200)
                0x000000001000f400                __code_end_mp2enc = .
                0x000000001000f400                __code_start_usbdev = .
 *(.usbdev*)
 .usbdev.com    0x000000001000f400       0x20 Output\obj\platform\functions\func_usbdev.o
                0x000000001000f400                ude_get_sys_volume
                0x000000001000f408                ude_get_sys_vol_level
                0x000000001000f41c                ude_set_sys_volume
 .usbdev.com    0x000000001000f420       0x48 ..\..\platform\libs\libplatform.a(audio.o)
                0x000000001000f420                uda_put_samples
 .usbdev.com    0x000000001000f468       0x96 ..\..\platform\libs\libplatform.a(thread_driver.o)
                0x000000001000f468                os_mq_ude_reset_post
                0x000000001000f48c                os_mq_ude_ctl_flow_post
                0x000000001000f4b2                os_mq_ude_isoin_post
                0x000000001000f4d8                os_mq_ude_isoout_post
 .usbdev.com    0x000000001000f4fe      0x53a ..\..\platform\libs\libdrivers.a(usb_device_audio.o)
                0x000000001000f4fe                usbmic_sdadc_process
                0x000000001000f5a2                ude_isoc_tx_process
                0x000000001000f6e0                ude_isoc_rx_process
                0x000000001000f754                uda_get_spk_mute
                0x000000001000f760                uda_get_spk_volume
                0x000000001000f79e                uda_set_spk_mute
                0x000000001000f7a6                uda_set_spk_volume
                0x000000001000f7c4                uda_get_mic_mute
                0x000000001000f7d0                uda_get_mic_volume
                0x000000001000f80e                uda_set_mic_mute
                0x000000001000f816                uda_set_mic_volume
                0x000000001000f81e                usb_isoc_reset
                0x000000001000f83e                uda_mic_sync
                0x000000001000f8b0                uda_set_isocin_flag
                0x000000001000f8b8                uda_run_loop_execute
                0x000000001000f944                uda_init
 *fill*         0x000000001000fa38        0x0 
 .usbdev.com.table
                0x000000001000fa38        0x3 ..\..\platform\libs\libdrivers.a(usb_device_audio.o)
 *fill*         0x000000001000fa3b        0x1 
 .usbdev.com    0x000000001000fa3c      0x882 ..\..\platform\libs\libdrivers.a(usb_device_enum.o)
                0x000000001000fc9c                get_setup
                0x000000001000fcce                ude_ep_reset
                0x000000001000fd28                ude_control_flow
                0x00000000100101f6                ude_run_loop_execute
                0x0000000010010284                ude_init
 .usbdev.com    0x00000000100102be      0x3a6 ..\..\platform\libs\libdrivers.a(usb_device_ep.o)
                0x00000000100102be                usb_set_cur_ep
                0x00000000100102d4                usb_ep_init
                0x0000000010010362                usb_ep_halt
                0x00000000100103b6                usb_ep_clear
                0x00000000100103fe                usb_ep_transfer
                0x00000000100105a4                usb_ep_reset
                0x000000001001061c                usb_ep_start_transfer
                0x0000000010010636                usb_ep_do_transfer
 .usbdev.com    0x0000000010010664       0xfe ..\..\platform\libs\libdrivers.a(usb_device_hid.o)
                0x0000000010010664                ude_hid_setvalid
                0x0000000010010678                ude_hid_send
                0x00000000100106e2                usb_int_ep_reset
                0x0000000010010700                udh_init
 .usbdev.com    0x0000000010010762      0x246 ..\..\platform\libs\libdrivers.a(usb_device_run_loop.o)
                0x0000000010010762                got_config_descriptor
                0x000000001001092c                usb_device_hid_send
                0x0000000010010966                usb_device_run_loop_execute
                0x00000000100109a6                usb_device_process
 .usbdev.com    0x00000000100109a8      0x672 ..\..\platform\libs\libdrivers.a(usb_device_storage.o)
                0x0000000010010ab0                usb_bulk_reset
                0x0000000010010ada                uds_run_loop_execute
                0x0000000010010f62                uds_init
                0x000000001001100c                uds_add_lun
 *fill*         0x000000001001101a        0x2 
 .usbdev.com.table
                0x000000001001101c      0x182 ..\..\platform\libs\libdrivers.a(usb_device_table.o)
                0x000000001001101c                desc_hid_report
                0x0000000010011040                desc_config_hid
                0x000000001001105c                desc_config_mic_stream
                0x0000000010011090                desc_config_speaker_stream
                0x00000000100110c4                desc_config_audio_mic
                0x00000000100110e4                desc_config_audio_speaker
                0x0000000010011104                desc_config_audio
                0x0000000010011118                desc_config_storage
                0x0000000010011130                desc_config_general
                0x000000001001113c                str_serial_number
                0x000000001001115c                str_product
                0x0000000010011178                str_manufacturer
                0x0000000010011188                str_language_id
                0x000000001001118c                desc_usb_device
                0x0000000010011200                . = ALIGN (0x200)
 *fill*         0x000000001001119e       0x62 
                0x0000000010011200                __code_end_usbdev = .
                0x0000000010011200                __code_start_wma_rlc44q = .
 *(.wma_huff_rlc44q_table)
                0x0000000010011200                . = ALIGN (0x200)
                0x0000000010011200                __code_end_wma_rlc44q = .
                0x0000000010011200                __code_start_wma_rlc44o = .
 *(.wma_huff_rlc44o_table)
                0x0000000010011200                . = ALIGN (0x200)
                0x0000000010011200                __code_end_wma_rlc44o = .
                0x0000000010011200                __code_start_wma_rlc16 = .
 *(.wma_huff_rlc16_table)
                0x0000000010011200                . = ALIGN (0x200)
                0x0000000010011200                __code_end_wma_rlc16 = .
                0x0000000010011200                __code_start_sleep = .
 *(.saradc_text*)
 .saradc_text.init
                0x0000000010011200       0x94 Output\obj\platform\bsp\bsp_key.o
                0x0000000010011200                bsp_saradc_init
 .saradc_text.init
                0x0000000010011294       0x26 ..\..\platform\libs\libplatform.a(interrupt.o)
                0x0000000010011294                saradc_irq_init
 .saradc_text.init
                0x00000000100112ba       0xbc ..\..\platform\libs\libplatform.a(saradc.o)
                0x00000000100112ba                saradc_setup_time_set
                0x00000000100112de                saradc_init
                0x0000000010011370                saradc_baud_set
 .saradc_text.exit
                0x0000000010011376       0x66 ..\..\platform\libs\libplatform.a(saradc.o)
                0x0000000010011376                saradc_exit
 *(.sleep_text*)
 .sleep_text.led
                0x00000000100113dc        0x4 Output\obj\platform\bsp\bsp_led.o
                0x00000000100113dc                port_2led_is_sleep_en
 .sleep_text.timer
                0x00000000100113e0       0x92 Output\obj\platform\functions\func_lowpwr.o
                0x00000000100113e0                sleep_timer
 .sleep_text.led
                0x0000000010011472       0x48 Output\obj\projects\standard\port\port_led.o
                0x0000000010011472                led_bt_sleep
 .sleep_text.bb
                0x00000000100114ba      0x2a4 ..\..\platform\libs\libbtstack.a(bb.o)
                0x00000000100114ba                delay_15us
                0x00000000100114c8                bb_sleep
 .sleep_text.bb
                0x000000001001175e      0x526 ..\..\platform\libs\libbtstack.a(bb_rf.o)
                0x0000000010011c78                rf_sleep
 .sleep_text.bb.rf
                0x0000000010011c84       0x54 ..\..\platform\libs\libbtstack.a(bb_rf.o)
                0x0000000010011c84                rf_deep_sleep_init
 .sleep_text.bb.ble
                0x0000000010011cd8        0x4 ..\..\platform\libs\libbtstack.a(ble_sleep.o)
                0x0000000010011cd8                lld_sleep_check
 .sleep_text.sleep
                0x0000000010011cdc       0x24 ..\..\platform\libs\libbtstack.a(lm_sleep.o)
                0x0000000010011cdc                lm_sleep_check
                0x0000000010011ce6                lm_sleep_enter
 .sleep_text.sleep
                0x0000000010011d00        0xe ..\..\platform\libs\libbtstack.a(btstack_api.o)
                0x0000000010011d00                bt_sleep_proc
                0x0000000010011e00                . = ALIGN (0x200)
 *fill*         0x0000000010011d0e       0xf2 
                0x0000000010011e00                __code_end_sleep = .
                0x0000000010011e00                __code_start_pwrsave = .
 *(.pwrsave_text*)
 *(.pwrsave_rodata*)
                0x0000000010011e00                . = ALIGN (0x200)
                0x0000000010011e00                __code_end_pwrsave = .
                0x0000000010011e00                __code_start_bb_test = .
 *(.bb_test*)
 .bb_test.rx    0x0000000010011e00      0x20c ..\..\platform\libs\libbtstack.a(ext_bt.o)
                0x0000000010011e00                ext_lc_test_rx
 .bb_test.lmp   0x000000001001200c      0x636 ..\..\platform\libs\libbtstack.a(ext_util.o)
                0x0000000010012260                lc_test_mode_cntl
 *fill*         0x0000000010012642        0x2 
 .bb_test_rodata.lmp
                0x0000000010012644       0x90 ..\..\platform\libs\libbtstack.a(ext_util.o)
 *(.bb_test_rodata*)
                0x0000000010012800                . = ALIGN (0x200)
 *fill*         0x00000000100126d4      0x12c 
                0x0000000010012800                __code_end_bb_test = .
                0x0000000010012800                __code_start_bt_voice = .
 *(.bt_voice*)
 .bt_voice.plc  0x0000000010012800       0x42 ..\..\platform\libs\libplatform.a(bt.o)
                0x0000000010012800                os_plc_sem_post
                0x0000000010012810                os_plc_sem_pend
 .bt_voice.aec  0x0000000010012842      0x5ca ..\..\platform\libs\libplatform.a(bt_aec.o)
                0x0000000010012882                os_aec_sem_post
                0x0000000010012892                os_aec_sem_pend
                0x00000000100128c4                aec_isr
                0x0000000010012972                aec_process
 .bt_voice.alc  0x0000000010012e0c      0x4b0 ..\..\platform\libs\libplatform.a(bt_alc.o)
                0x0000000010012e0c                os_alc_sem_post
                0x0000000010012e1c                os_alc_sem_pend
                0x0000000010012e4e                alc_isr
                0x0000000010012e6e                alc_fade_in
                0x0000000010012ecc                alc_fade_out
                0x0000000010012f48                alc_process
 .bt_voice.sco  0x00000000100132bc       0x4e ..\..\platform\libs\libplatform.a(bt_sco.o)
                0x00000000100132bc                bt_sco_fill_aubuf
 .bt_voice.wnr  0x000000001001330a       0x66 ..\..\platform\libs\libplatform.a(bt_wnr.o)
                0x000000001001330a                wnr_div32_16
 .bt_voice.wnr  0x0000000010013370      0x146 ..\..\platform\libs\libplatform.a(s_wnr.o)
                0x0000000010013370                wnr_detect
                0x0000000010013410                wnr_process
 .bt_voice.aec  0x00000000100134b6        0xa ..\..\platform\libs\libplatform.a(weak_symbol.o)
                0x00000000100134b6                sco_set_mic_gain_after_aec
                0x00000000100134ba                sco_get_aec_param
 .bt_voice.plc  0x00000000100134c0      0x548 ..\..\platform\libs\libbtstack.a(ext_plc.o)
                0x00000000100136ba                plc_savespeech
                0x0000000010013756                plc_add2history
                0x00000000100137e8                plc_dofe
 .bt_voice.plc  0x0000000010013a08       0xe0 ..\..\platform\libs\libbtstack.a(ext_sco.o)
                0x0000000010013a08                bt_plc_process
 .bt_voice.sco  0x0000000010013ae8      0x21a ..\..\platform\libs\libbtstack.a(hci_sco.o)
                0x0000000010013ae8                sco_fill_dacbuf
                0x0000000010013b80                sco_fill_far_buffer
                0x0000000010013e00                . = ALIGN (0x200)
 *fill*         0x0000000010013d02       0xfe 
                0x0000000010013e00                __code_end_bt_voice = .
                0x0000000010013e00                __code_start_update = .
 *(.text.update*)
 .text.update_complete
                0x0000000010013e00       0x30 Output\obj\projects\standard\main.o
                0x0000000010013e00                update_complete
 .text.updateset_reset
                0x0000000010013e30        0x4 Output\obj\projects\standard\port\port_update.o
                0x0000000010013e30                updateset_reset
 .text.update_sd0baud
                0x0000000010013e34       0x3a ..\..\platform\libs\libplatform.a(sys_clk.o)
                0x0000000010013e34                update_sd0baud
 .text.update   0x0000000010013e6e      0xa8c ..\..\platform\libs\libplatform.a(update.o)
                0x00000000100144b6                updatefile_init
                0x0000000010014586                update_status
                0x000000001001459e                updateota_init
                0x00000000100146c0                updateproc
 *fill*         0x00000000100148fa      0x106 
 .text.update   0x0000000010014a00      0x1f6 ..\..\platform\libs\libbtstack.a(bb.o)
                0x0000000010014a00                bb_save
                0x0000000010014c00                . = ALIGN (0x200)
 *fill*         0x0000000010014bf6        0xa 
                0x0000000010014c00                __code_end_update = .
                0x0000000010014c00                __code_start_spiflash1_drv = .
 *(.text.spiflash1_drv*)
                0x0000000010014c00                . = ALIGN (0x200)
                0x0000000010014c00                __code_end_spiflash1_drv = .
                0x0000000010014c00                __code_start_stream = .
 *(.com_stream.text*)
 .com_stream.text
                0x0000000010014c00      0x41a ..\..\platform\libs\libplatform.a(stream.o)
                0x0000000010014c5c                msc_stream_read
                0x0000000010014cb2                msc_stream_seek
                0x0000000010014d10                msc_stream_fill
                0x0000000010014d4c                os_stream_fill
                0x0000000010014df2                os_stream_read
                0x0000000010014ee0                os_stream_seek
                0x0000000010014fe4                os_stream_end
                0x0000000010015200                . = ALIGN (0x200)
 *fill*         0x000000001001501a      0x1e6 
                0x0000000010015200                __code_end_stream = .
 *(.irq_init.aligned)
 .irq_init.aligned
                0x0000000010015200       0x56 ..\..\platform\libs\libplatform.a(interrupt.o)
                0x0000000010015200                mschw_irq_init
 *(.text*)
 .text.audio_path_init
                0x0000000010015256      0x108 Output\obj\platform\bsp\bsp_audio.o
                0x0000000010015256                audio_path_init
 .text.audio_path_start
                0x000000001001535e       0xa6 Output\obj\platform\bsp\bsp_audio.o
                0x000000001001535e                audio_path_start
 .text.audio_path_exit
                0x0000000010015404       0xb6 Output\obj\platform\bsp\bsp_audio.o
                0x0000000010015404                audio_path_exit
 .text.get_aux_channel_cfg
                0x00000000100154ba       0x1c Output\obj\platform\bsp\bsp_audio.o
                0x00000000100154ba                get_aux_channel_cfg
 .text.bsp.aux  0x00000000100154d6      0x150 Output\obj\platform\bsp\bsp_aux.o
                0x00000000100154d6                bsp_aux_anl2pa_start
                0x0000000010015520                bsp_aux_anl2pa_stop
                0x0000000010015546                bsp_aux_start
                0x0000000010015590                bsp_aux_stop
                0x00000000100155c4                bsp_aux_wav_res_start
                0x00000000100155f6                bsp_aux_wav_res_exit
                0x000000001001561e                aux_var_init
 .text.bsp_bt_init
                0x0000000010015626      0x19e Output\obj\platform\bsp\bsp_bt.o
                0x0000000010015626                bsp_bt_init
 .text.bsp_bt_vol_change
                0x00000000100157c4       0x32 Output\obj\platform\bsp\bsp_bt.o
                0x00000000100157c4                bsp_bt_vol_change
 .text.bsp_bt_hid_tog_conn
                0x00000000100157f6       0x36 Output\obj\platform\bsp\bsp_bt.o
                0x00000000100157f6                bsp_bt_hid_tog_conn
 .text.bsp_bt_hid_photo
                0x000000001001582c       0x22 Output\obj\platform\bsp\bsp_bt.o
                0x000000001001582c                bsp_bt_hid_photo
 .text.a2dp_get_vol
                0x000000001001584e       0x2a Output\obj\platform\bsp\bsp_bt.o
                0x000000001001584e                a2dp_get_vol
 .text.hfp_get_mic_gain
                0x0000000010015878        0x4 Output\obj\platform\bsp\bsp_bt.o
                0x0000000010015878                hfp_get_mic_gain
 .text.hfp_get_spk_gain
                0x000000001001587c        0x8 Output\obj\platform\bsp\bsp_bt.o
                0x000000001001587c                hfp_get_spk_gain
 .text.hfp_get_bat_level
                0x0000000010015884       0x44 Output\obj\platform\bsp\bsp_bt.o
                0x0000000010015884                hfp_get_bat_level
 .text.bt_get_tws_info
                0x00000000100158c8       0x3a Output\obj\platform\bsp\bsp_bt.o
                0x00000000100158c8                bt_get_tws_info
 .text.bt_set_tws_info
                0x0000000010015902       0x56 Output\obj\platform\bsp\bsp_bt.o
                0x0000000010015902                bt_set_tws_info
 .text.bt_emit_notice
                0x0000000010015958      0x1b4 Output\obj\platform\bsp\bsp_bt.o
                0x0000000010015958                bt_emit_notice
 .text.bt_get_func_sta
                0x0000000010015b0c       0x14 Output\obj\platform\bsp\bsp_bt.o
                0x0000000010015b0c                bt_get_func_sta
 .text.bt_set_func_sta
                0x0000000010015b20       0x20 Output\obj\platform\bsp\bsp_bt.o
                0x0000000010015b20                bt_set_func_sta
 .text.bt_get_local_name
                0x0000000010015b40       0x22 Output\obj\platform\bsp\bsp_bt.o
                0x0000000010015b40                bt_get_local_name
 .text.bt_get_local_bd_addr
                0x0000000010015b62       0x36 Output\obj\platform\bsp\bsp_bt.o
                0x0000000010015b62                bt_get_local_bd_addr
 .text.bt_get_rand_seed
                0x0000000010015b98        0x8 Output\obj\platform\bsp\bsp_bt.o
                0x0000000010015b98                bt_get_rand_seed
 .text.bt_get_rf_param
                0x0000000010015ba0        0x4 Output\obj\platform\bsp\bsp_bt.o
                0x0000000010015ba0                bt_get_rf_param
 .text.bt_get_guid
                0x0000000010015ba4       0x6c Output\obj\platform\bsp\bsp_bt.o
                0x0000000010015ba4                bt_get_guid
 .text.bt_get_link_info
                0x0000000010015c10       0x30 Output\obj\platform\bsp\bsp_bt.o
                0x0000000010015c10                bt_get_link_info
 .text.bt_put_link_info
                0x0000000010015c40       0x30 Output\obj\platform\bsp\bsp_bt.o
                0x0000000010015c40                bt_put_link_info
 .text.bt_get_ext_link_info
                0x0000000010015c70        0x8 Output\obj\platform\bsp\bsp_bt.o
                0x0000000010015c70                bt_get_ext_link_info
 .text.bt_put_ext_link_info
                0x0000000010015c78        0x8 Output\obj\platform\bsp\bsp_bt.o
                0x0000000010015c78                bt_put_ext_link_info
 .text.bt_sync_link_info
                0x0000000010015c80        0x4 Output\obj\platform\bsp\bsp_bt.o
                0x0000000010015c80                bt_sync_link_info
 .text.cm_loadparam
                0x0000000010015c84       0xbe Output\obj\platform\bsp\bsp_cm.o
                0x0000000010015c84                cm_loadparam
 .text.cm_factory
                0x0000000010015d42       0xd2 Output\obj\platform\bsp\bsp_cm.o
                0x0000000010015d42                cm_factory
 .text.bsp.dac  0x0000000010015e14      0x16a Output\obj\platform\bsp\bsp_dac.o
                0x0000000010015e14                bsp_change_volume
                0x0000000010015e42                bsp_set_volume
                0x0000000010015e9a                bsp_volume_inc
                0x0000000010015eb6                bsp_volume_dec
                0x0000000010015ec0                dac_set_anl_offset
                0x0000000010015ef6                dac_set_vol_table
                0x0000000010015f20                dac_init
 .text.dac      0x0000000010015f7e        0xc Output\obj\platform\bsp\bsp_dac.o
                0x0000000010015f7e                dac_pull_down_delay
 *fill*         0x0000000010015f8a        0x2 
 .text.bsp.dac.table
                0x0000000010015f8c       0x6e Output\obj\platform\bsp\bsp_dac.o
                0x0000000010015f8c                dac_vol_tbl_16
                0x0000000010015fa0                dac_vol_tbl_32
                0x0000000010015fc4                dac_vol_tbl_50
 .text.tx_ack.constprop.2
                0x0000000010015ffa       0x5c Output\obj\platform\bsp\bsp_eq.o
 .text.music    0x0000000010016056       0x7e Output\obj\platform\bsp\bsp_eq.o
                0x0000000010016056                music_set_eq_by_num
                0x000000001001609e                sys_set_eq
 .text.eq_tx_ack
                0x00000000100160d4       0x2a Output\obj\platform\bsp\bsp_eq.o
                0x00000000100160d4                eq_tx_ack
 .text.eq_tx_version
                0x00000000100160fe       0x54 Output\obj\platform\bsp\bsp_eq.o
                0x00000000100160fe                eq_tx_version
 .text.eq_parse_cmd
                0x0000000010016152      0x1a4 Output\obj\platform\bsp\bsp_eq.o
                0x0000000010016152                eq_parse_cmd
 .text.eq_dbg_huart_init
                0x00000000100162f6       0xa2 Output\obj\platform\bsp\bsp_eq.o
                0x00000000100162f6                eq_dbg_huart_init
 .text.eq_dbg_init
                0x0000000010016398       0x46 Output\obj\platform\bsp\bsp_eq.o
                0x0000000010016398                eq_dbg_init
 .text.bsp_eq_init
                0x00000000100163de        0x2 Output\obj\platform\bsp\bsp_eq.o
                0x00000000100163de                bsp_eq_init
 .text.bsp.fmrx
                0x00000000100163e0      0x110 Output\obj\platform\bsp\bsp_fmrx.o
                0x00000000100163e0                fmrx_is_playing
                0x00000000100163ee                get_fmrx_seek_staus
                0x00000000100163f6                set_fmrx_seek_staus
                0x00000000100163fe                fmrx_threshold_init
                0x000000001001642a                fmrx_inside_init
                0x000000001001644c                bsp_fmrx_set_loc_dx
                0x0000000010016478                bsp_fmrx_get_type
                0x0000000010016482                bsp_fmrx_init
                0x00000000100164b6                bsp_fmrx_exit
                0x00000000100164c8                bsp_fmrx_set_volume
                0x00000000100164ca                bsp_fmrx_set_freq
                0x00000000100164dc                bsp_fmrx_check_freq
 .text.fs.scan  0x00000000100164f0       0x9a Output\obj\platform\bsp\bsp_fs.o
                0x00000000100164f0                char_tolower
                0x0000000010016508                str_tolower
                0x0000000010016532                music_file_filter
                0x0000000010016586                music_dir_filter
 .text.iphone_power_set
                0x000000001001658a       0x12 Output\obj\platform\bsp\bsp_iap.o
                0x000000001001658a                iphone_power_set
 .text.bsp.ir   0x000000001001659c       0x74 Output\obj\platform\bsp\bsp_ir.o
                0x000000001001659c                ir_key_clr
                0x00000000100165a4                irrx_hw_init
 .text.bsp.power
                0x0000000010016610      0x350 Output\obj\platform\bsp\bsp_key.o
                0x0000000010016610                pwrkey_get_status
                0x000000001001666e                power_off_check
                0x000000001001676a                is_powron_frist_enable
                0x0000000010016774                charge_full_bled_on_time_check
                0x0000000010016812                power_on_check
 .text.is_lowpower_vbat_warning
                0x0000000010016960       0x68 Output\obj\platform\bsp\bsp_key.o
                0x0000000010016960                is_lowpower_vbat_warning
 .text.get_double_key_time
                0x00000000100169c8       0x1a Output\obj\platform\bsp\bsp_key.o
                0x00000000100169c8                get_double_key_time
 .text.bsp.key.init
                0x00000000100169e2       0x58 Output\obj\platform\bsp\bsp_key.o
                0x00000000100169e2                key_init
 .text.led_disp
                0x0000000010016a3a       0xb6 Output\obj\platform\bsp\bsp_led.o
                0x0000000010016a3a                led_cfg_port_init
                0x0000000010016a80                led_init
                0x0000000010016ab4                led_off
                0x0000000010016ac2                led_on
                0x0000000010016ad2                rled_on
                0x0000000010016ae2                rled_off
 .text.led2_port_init
                0x0000000010016af0       0x50 Output\obj\platform\bsp\bsp_led.o
                0x0000000010016af0                led2_port_init
 .text.music_playmode_next
                0x0000000010016b40       0x20 Output\obj\platform\bsp\bsp_music.o
                0x0000000010016b40                music_playmode_next
 .text.bsp_music_breakpoint_clr
                0x0000000010016b60       0x1a Output\obj\platform\bsp\bsp_music.o
                0x0000000010016b60                bsp_music_breakpoint_clr
 .text.bsp_music_breakpoint_init
                0x0000000010016b7a       0x7c Output\obj\platform\bsp\bsp_music.o
                0x0000000010016b7a                bsp_music_breakpoint_init
 .text.bsp_music_breakpoint_save
                0x0000000010016bf6       0x1a Output\obj\platform\bsp\bsp_music.o
                0x0000000010016bf6                bsp_music_breakpoint_save
 .text.mp3_res_play
                0x0000000010016c10      0x128 Output\obj\platform\bsp\bsp_music.o
                0x0000000010016c10                mp3_res_play
 .text.pf_scan_music
                0x0000000010016d38       0x6a Output\obj\platform\bsp\bsp_music.o
                0x0000000010016d38                pf_scan_music
 .text.bsp.param
                0x0000000010016da2      0x226 Output\obj\platform\bsp\bsp_param.o
                0x0000000010016da2                bsp_param_write
                0x0000000010016da6                bsp_param_read
                0x0000000010016daa                bsp_param_sync
                0x0000000010016dae                param_msc_num_write
                0x0000000010016dd6                param_msc_num_read
                0x0000000010016e34                param_msc_breakpoint_write
                0x0000000010016e5e                param_msc_breakpoint_read
                0x0000000010016e88                param_fmrx_chcur_write
                0x0000000010016e98                param_fmrx_chcur_read
                0x0000000010016ea8                param_fmrx_chcnt_write
                0x0000000010016eb8                param_fmrx_chcnt_read
                0x0000000010016ec8                param_fmrx_chbuf_write
                0x0000000010016ed8                param_fmrx_chbuf_read
                0x0000000010016ee8                param_sys_vol_write
                0x0000000010016ef6                param_sys_vol_read
                0x0000000010016f04                param_init
                0x0000000010016fa4                param_lang_id_write
                0x0000000010016fb2                param_lang_id_read
                0x0000000010016fc0                param_sync
                0x0000000010016fc4                param_get_xosc_addr
 .text.bsp_app_0_process
                0x0000000010016fc8      0x152 Output\obj\platform\bsp\bsp_spp.o
                0x0000000010016fc8                bsp_app_0_process
 .text.spp_rx_callback
                0x000000001001711a        0x4 Output\obj\platform\bsp\bsp_spp.o
                0x000000001001711a                spp_rx_callback
 .text.bsp.sys.init
                0x000000001001711e      0x670 Output\obj\platform\bsp\bsp_sys.o
                0x0000000010017294                sd_soft_detect_poweron_check
                0x0000000010017302                rtc_init
                0x00000000100173e0                tws_pwrkey_820k_check
                0x000000001001747a                tws_gpiox_2_gnd_check
                0x0000000010017554                tws_lr_xcfg_sel
                0x00000000100175be                bsp_update_init
                0x0000000010017642                bsp_sys_init
 .text.bsp.sys  0x000000001001778e       0x9a Output\obj\platform\bsp\bsp_sys.o
                0x000000001001778e                bsp_sys_mute
                0x00000000100177c6                bsp_sys_unmute
                0x0000000010017808                bsp_clr_mute_sta
 .text.uart0_mapping_sel
                0x0000000010017828       0x90 Output\obj\platform\bsp\bsp_sys.o
                0x0000000010017828                uart0_mapping_sel
 .text.bsp_get_xosc_xcfg
                0x00000000100178b8       0x20 Output\obj\platform\bsp\bsp_sys.o
                0x00000000100178b8                bsp_get_xosc_xcfg
 .text.func.msg
                0x00000000100178d8      0x3ee Output\obj\platform\functions\func.o
                0x00000000100178d8                lowpower_vbat_process
                0x00000000100179bc                func_message
 .text.func.process
                0x0000000010017cc6        0xa Output\obj\platform\functions\func.o
                0x0000000010017cc6                func_process
 .text.func     0x0000000010017cd0      0x13a Output\obj\platform\functions\func.o
                0x0000000010017cd0                func_enter
                0x0000000010017d20                func_exit
                0x0000000010017d78                func_run
 .text.func.aux
                0x0000000010017e0a      0x12c Output\obj\platform\functions\func_aux.o
                0x0000000010017e0a                func_aux_start
                0x0000000010017e2a                func_aux_stop
                0x0000000010017e40                func_aux_pause_play
                0x0000000010017e7a                func_aux_setvol_callback
                0x0000000010017e88                func_aux_process
                0x0000000010017e8c                func_aux
 .text.bsp.aux  0x0000000010017f36       0x2e Output\obj\platform\functions\func_aux.o
                0x0000000010017f36                func_aux_mp3_res_play
 .text.func_bt_mp3_res_play
                0x0000000010017f64       0x20 Output\obj\platform\functions\func_bt.o
                0x0000000010017f64                func_bt_mp3_res_play
 .text.func_bt_tws_set_channel
                0x0000000010017f84       0x66 Output\obj\platform\functions\func_bt.o
 *fill*         0x0000000010017fea       0x16 
 .text.func_bt_chkclr_warning
                0x0000000010018000       0x80 Output\obj\platform\functions\func_bt.o
                0x0000000010018000                func_bt_chkclr_warning
 .text.func_bt_switch_voice_lang
                0x0000000010018080        0x2 Output\obj\platform\functions\func_bt.o
                0x0000000010018080                func_bt_switch_voice_lang
 .text.func_bt_warning
                0x0000000010018082      0x1fe Output\obj\platform\functions\func_bt.o
                0x0000000010018082                func_bt_warning
 .text.func_bt_disp_status
                0x0000000010018280       0xec Output\obj\platform\functions\func_bt.o
                0x0000000010018280                func_bt_disp_status
 .text.func.bt  0x000000001001836c      0x1f4 Output\obj\platform\functions\func_bt.o
                0x000000001001836c                func_bt_status
                0x00000000100183a2                func_bt
 .text.func_bt_hid_warning
                0x0000000010018560       0x50 Output\obj\platform\functions\func_bt_hid.o
                0x0000000010018560                func_bt_hid_warning
 .text.func.bt  0x00000000100185b0       0xf0 Output\obj\platform\functions\func_bt_hid.o
                0x00000000100185b0                func_bthid
 .text.func.clock.init
                0x00000000100186a0       0x60 Output\obj\platform\functions\func_clock.o
                0x00000000100186a0                rtc_clock_init
 .text.func.clock
                0x0000000010018700      0x1ea Output\obj\platform\functions\func_clock.o
                0x0000000010018700                rtc_set_alarm_relative_time
                0x000000001001873c                rtc_set_alarm_wakeup
                0x0000000010018784                func_clock_process
                0x0000000010018834                func_clock
 *fill*         0x00000000100188ea        0x2 
 .text.func.clock.tbl
                0x00000000100188ec       0x1e Output\obj\platform\functions\func_clock.o
                0x00000000100188ec                week_str
 .text.func.fmrx
                0x000000001001890a      0x66a Output\obj\platform\functions\func_fmrx.o
                0x000000001001890a                func_fmrx_stop
                0x0000000010018922                func_fmrx_start
                0x0000000010018936                func_fmrx_mp3_res_play
                0x0000000010018962                func_fmrx_pause_play
                0x00000000100189b0                func_fmrx_setvol_callback
                0x00000000100189c0                save_ch_buf
                0x00000000100189f0                get_ch_freq
                0x0000000010018a42                reset_fm_cb
                0x0000000010018a6a                fmrx_set_curch_freq
                0x0000000010018aba                fmrx_switch_freq
                0x0000000010018b12                fmrx_switch_channel
                0x0000000010018b5c                fmrx_seek_start
                0x0000000010018b80                fmrx_seek_stop
                0x0000000010018bda                fmrx_half_seek_start
                0x0000000010018c64                fmrx_half_seek_stop
                0x0000000010018c94                func_fmrx_process
                0x0000000010018e10                func_fmrx_enter
                0x0000000010018ee4                func_fmrx_exit
                0x0000000010018f28                func_fmrx
 *fill*         0x0000000010018f74       0x8c 
 .text.lowpwr.sleep
                0x0000000010019000      0x6b8 Output\obj\platform\functions\func_lowpwr.o
                0x0000000010019000                sleep_process
                0x0000000010019400                func_sleepmode
 *fill*         0x00000000100196b8      0x148 
 .text.lowpwr.pwroff
                0x0000000010019800      0x510 Output\obj\platform\functions\func_lowpwr.o
                0x0000000010019800                sfunc_lowbat
                0x0000000010019a00                sfunc_pwrdown
                0x0000000010019b6a                func_pwroff
 .text.func.music
                0x0000000010019d10      0x8d4 Output\obj\platform\functions\func_music.o
                0x0000000010019d10                func_music_mp3_res_play
                0x0000000010019d70                func_music_remove_device
                0x0000000010019dde                func_music_insert_device
                0x0000000010019e08                func_music_switch_device
                0x0000000010019e8e                func_music_auto_next_device
                0x0000000010019f16                func_music_switch_file
                0x000000001001a064                func_music_auto_next_file
                0x000000001001a08a                func_music_switch_dir
                0x000000001001a0fc                func_music_select_dir
                0x000000001001a146                func_music_file_new
                0x000000001001a246                func_music_device_new
                0x000000001001a30a                func_music_process
                0x000000001001a468                func_music
 .text.func_music_filter_set
                0x000000001001a5e4       0x16 Output\obj\platform\functions\func_music.o
                0x000000001001a5e4                func_music_filter_set
 .text.bsp.speaker
                0x000000001001a5fa       0xac Output\obj\platform\functions\func_speaker.o
                0x000000001001a5fa                func_speaker_stop
                0x000000001001a614                func_speaker_start
                0x000000001001a634                func_speaker_mp3_res_play
                0x000000001001a65e                func_speaker_pause_play
                0x000000001001a698                func_speaker_setvol_callback
 .text.func.speaker
                0x000000001001a6a6       0x96 Output\obj\platform\functions\func_speaker.o
                0x000000001001a6a6                func_speaker_process
                0x000000001001a6aa                func_speaker
 .text.func.update
                0x000000001001a73c       0x40 Output\obj\platform\functions\func_update.o
                0x000000001001a73c                func_update
 .text.func.usbdev
                0x000000001001a77c      0x20a Output\obj\platform\functions\func_usbdev.o
                0x000000001001a77c                ude_mic_start
                0x000000001001a79a                ude_mic_stop
                0x000000001001a7a0                ude_sdcard_switch
                0x000000001001a7dc                ude_sdcard_change_process
                0x000000001001a80c                func_usbdev_process
                0x000000001001a828                func_usbdev
 .text.sco_audio_init
                0x000000001001a986       0xd2 Output\obj\platform\functions\sfunc_bt_call.o
                0x000000001001a986                sco_audio_init
 .text.sco_audio_exit
                0x000000001001aa58       0x2a Output\obj\platform\functions\sfunc_bt_call.o
                0x000000001001aa58                sco_audio_exit
 .text.func.bt  0x000000001001aa82       0x74 Output\obj\platform\functions\sfunc_bt_call.o
                0x000000001001aa82                sfunc_bt_call
 .text.func.btring
                0x000000001001aaf6       0x56 Output\obj\platform\functions\sfunc_bt_ota.o
                0x000000001001aaf6                sfunc_bt_ota
 .text.func.btring
                0x000000001001ab4c      0x1f8 Output\obj\platform\functions\sfunc_bt_ring.o
                0x000000001001ab84                hfp_get_bnip_number
                0x000000001001abce                sfunc_bt_ring
 .text.rec_wave_process
                0x000000001001ad44        0x2 Output\obj\platform\functions\sfunc_record.o
                0x000000001001ad44                rec_wave_process
 .text.gui_init
                0x000000001001ad46       0x12 Output\obj\platform\gui\gui.o
                0x000000001001ad46                gui_init
 .text.gui      0x000000001001ad58      0x1e6 Output\obj\platform\gui\gui.o
                0x000000001001ad58                gui_box_flicker_set
                0x000000001001ad72                gui_box_process
                0x000000001001adce                gui_box_display
                0x000000001001add0                gui_box_clear
                0x000000001001ade2                gui_box_show_vol
                0x000000001001ae0e                gui_box_show_eq
                0x000000001001ae2e                gui_box_show_playmode
                0x000000001001ae4e                gui_box_show_num
                0x000000001001ae72                gui_box_show_chan
                0x000000001001ae92                gui_box_show_inputnum
                0x000000001001aefe                gui_box_show_freq
                0x000000001001af1e                gui_box_show_playdev
 .text.music_enc_process
                0x000000001001af3e        0x2 Output\obj\platform\libs\strong_symbol.o
                0x000000001001af3e                music_enc_process
 .text.adpcm_encode_process
                0x000000001001af40        0x2 Output\obj\platform\libs\strong_symbol.o
                0x000000001001af40                adpcm_encode_process
 .text.msbc_encode_init
                0x000000001001af42        0x4 Output\obj\platform\libs\strong_symbol.o
                0x000000001001af42                msbc_encode_init
 .text.sbc_encode_process
                0x000000001001af46        0x2 Output\obj\platform\libs\strong_symbol.o
                0x000000001001af46                sbc_encode_process
 .text.wma_dec_init
                0x000000001001af48        0x4 Output\obj\platform\libs\strong_symbol.o
                0x000000001001af48                wma_dec_init
 .text.wma_dec_frame
                0x000000001001af4c        0x4 Output\obj\platform\libs\strong_symbol.o
                0x000000001001af4c                wma_dec_frame
 .text.lock_code_wmadec
                0x000000001001af50        0x2 Output\obj\platform\libs\strong_symbol.o
                0x000000001001af50                lock_code_wmadec
 .text.ape_dec_init
                0x000000001001af52        0x4 Output\obj\platform\libs\strong_symbol.o
                0x000000001001af52                ape_dec_init
 .text.ape_dec_frame
                0x000000001001af56        0x4 Output\obj\platform\libs\strong_symbol.o
                0x000000001001af56                ape_dec_frame
 .text.lock_code_apedec
                0x000000001001af5a        0x2 Output\obj\platform\libs\strong_symbol.o
                0x000000001001af5a                lock_code_apedec
 .text.flac_dec_init
                0x000000001001af5c        0x4 Output\obj\platform\libs\strong_symbol.o
                0x000000001001af5c                flac_dec_init
 .text.flac_dec_frame
                0x000000001001af60        0x4 Output\obj\platform\libs\strong_symbol.o
                0x000000001001af60                flac_dec_frame
 .text.lock_code_flacdec
                0x000000001001af64        0x2 Output\obj\platform\libs\strong_symbol.o
                0x000000001001af64                lock_code_flacdec
 .text.sbcio_dec_init
                0x000000001001af66        0x4 Output\obj\platform\libs\strong_symbol.o
                0x000000001001af66                sbcio_dec_init
 .text.sbcio_dec_frame
                0x000000001001af6a        0x4 Output\obj\platform\libs\strong_symbol.o
                0x000000001001af6a                sbcio_dec_frame
 .text.lc_tsco_init
                0x000000001001af6e        0x2 Output\obj\platform\libs\strong_symbol.o
                0x000000001001af6e                lc_tsco_init
 .text.lc_tsco_send_setup
                0x000000001001af70        0x2 Output\obj\platform\libs\strong_symbol.o
                0x000000001001af70                lc_tsco_send_setup
 .text.lc_tsco_send_kill
                0x000000001001af72        0x2 Output\obj\platform\libs\strong_symbol.o
                0x000000001001af72                lc_tsco_send_kill
 .text.magic_voice_process
                0x000000001001af74        0x2 Output\obj\platform\libs\strong_symbol.o
                0x000000001001af74                magic_voice_process
 .text.spdif_process
                0x000000001001af76        0x2 Output\obj\platform\libs\strong_symbol.o
                0x000000001001af76                spdif_process
 .text.bt_sco_fill_remote_buf
                0x000000001001af78        0x2 Output\obj\platform\libs\strong_symbol.o
                0x000000001001af78                bt_sco_fill_remote_buf
 .text.drc_process
                0x000000001001af7a        0x2 Output\obj\platform\libs\strong_symbol.o
                0x000000001001af7a                drc_process
 .text.vbass_process
                0x000000001001af7c        0x2 Output\obj\platform\libs\strong_symbol.o
                0x000000001001af7c                vbass_process
 .text.i2s_process
                0x000000001001af7e        0x2 Output\obj\platform\libs\strong_symbol.o
                0x000000001001af7e                i2s_process
 .text.func     0x000000001001af80        0x4 Output\obj\projects\standard\config.o
                0x000000001001af80                get_funcs_total
 .text.sys_error_hook
                0x000000001001af84        0xe Output\obj\projects\standard\main.o
                0x000000001001af84                sys_error_hook
 .text.startup.main
                0x000000001001af92       0x24 Output\obj\projects\standard\main.o
                0x000000001001af92                main
 .text.func.aux.msg
                0x000000001001afb6       0x50 Output\obj\projects\standard\message\msg_aux.o
                0x000000001001afb6                func_aux_message
 .text.func.bt.msg
                0x000000001001b006      0x268 Output\obj\projects\standard\message\msg_bt.o
                0x000000001001b006                func_bt_message
                0x000000001001b21e                func_bthid_message
 .text.func.btring.msg
                0x000000001001b26e       0x72 Output\obj\projects\standard\message\msg_bt.o
                0x000000001001b26e                sfunc_bt_ring_message
 .text.sfunc_bt_call_message
                0x000000001001b2e0      0x17c Output\obj\projects\standard\message\msg_bt.o
                0x000000001001b2e0                sfunc_bt_call_message
 .text.func.clock.msg
                0x000000001001b45c      0x230 Output\obj\projects\standard\message\msg_clock.o
                0x000000001001b45c                func_clock_message
 .text.func.fmrx.msg
                0x000000001001b68c      0x124 Output\obj\projects\standard\message\msg_fmrx.o
                0x000000001001b68c                func_fmrx_message
 .text.func.music.msg
                0x000000001001b7b0      0x306 Output\obj\projects\standard\message\msg_music.o
                0x000000001001b7b0                func_music_message
 .text.func.speaker.msg
                0x000000001001bab6       0x48 Output\obj\projects\standard\message\msg_speaker.o
                0x000000001001bab6                func_speaker_message
 .text.func.usbdev.msg
                0x000000001001bafe      0x11c Output\obj\projects\standard\message\msg_usbdev.o
                0x000000001001bafe                func_usbdev_message
 .text.plugin_init
                0x000000001001bc1a        0x2 Output\obj\projects\standard\plugin\plugin.o
                0x000000001001bc1a                plugin_init
 .text.plugin_var_init
                0x000000001001bc1c      0x13c Output\obj\projects\standard\plugin\plugin.o
                0x000000001001bc1c                plugin_var_init
 .text.get_sddet_io_num
                0x000000001001bd58       0x1e Output\obj\projects\standard\plugin\plugin.o
                0x000000001001bd58                get_sddet_io_num
 .text.sleep_wakeup_config
                0x000000001001bd76       0x8e Output\obj\projects\standard\plugin\plugin.o
                0x000000001001bd76                sleep_wakeup_config
 .text.maxvol_tone_play
                0x000000001001be04       0x46 Output\obj\projects\standard\plugin\plugin.o
                0x000000001001be04                maxvol_tone_play
 .text.plugin_music_eq
                0x000000001001be4a       0x18 Output\obj\projects\standard\plugin\plugin.o
                0x000000001001be4a                plugin_music_eq
 .text.plugin_saradc_init
                0x000000001001be62        0x2 Output\obj\projects\standard\plugin\plugin.o
                0x000000001001be62                plugin_saradc_init
 .text.plugin_lowbat_vol_reduce
                0x000000001001be64        0x2 Output\obj\projects\standard\plugin\plugin.o
                0x000000001001be64                plugin_lowbat_vol_reduce
 .text.plugin_lowbat_vol_recover
                0x000000001001be66        0x2 Output\obj\projects\standard\plugin\plugin.o
                0x000000001001be66                plugin_lowbat_vol_recover
 .text.earphone_detect_init
                0x000000001001be68       0x84 Output\obj\projects\standard\port\port_earphone.o
                0x000000001001be68                earphone_detect_init
 .text.led_disp
                0x000000001001beec      0x1ca Output\obj\projects\standard\port\port_led.o
                0x000000001001beec                led_power_up
                0x000000001001bf16                led_power_down
                0x000000001001bf3e                led_idle
                0x000000001001bf50                led_bt_init
                0x000000001001bf7a                led_bt_idle
                0x000000001001bfa4                led_bt_reconnect
                0x000000001001bfce                led_bt_connected
                0x000000001001bff8                led_bt_play
                0x000000001001c022                led_bt_ring
                0x000000001001c04c                led_bt_call
                0x000000001001c076                led_fm_scan
                0x000000001001c088                led_music_busy
                0x000000001001c08a                led_record
                0x000000001001c09c                led_fm_play
                0x000000001001c09e                led_aux_play
                0x000000001001c0a0                led_music_play
                0x000000001001c0a2                led_bt_scan
                0x000000001001c0a4                led_bt_pb_sleep
 .text.led_func_init
                0x000000001001c0b6       0xcc Output\obj\projects\standard\port\port_led.o
                0x000000001001c0b6                led_func_init
 .text.is_linein_enter_enable
                0x000000001001c182       0x44 Output\obj\projects\standard\port\port_linein.o
                0x000000001001c182                is_linein_enter_enable
 .text.linein_detect_init
                0x000000001001c1c6       0xbe Output\obj\projects\standard\port\port_linein.o
                0x000000001001c1c6                linein_detect_init
 .text.loudspeaker_mute_init
                0x000000001001c284       0x6c Output\obj\projects\standard\port\port_mute.o
                0x000000001001c284                loudspeaker_mute_init
 .text.amplifier
                0x000000001001c2f0       0x9c Output\obj\projects\standard\port\port_mute.o
                0x000000001001c2f0                amp_sel_cfg_d
                0x000000001001c320                amp_sel_cfg_init
                0x000000001001c336                amp_sel_cfg_ab
                0x000000001001c368                amp_sel_cfg_dis
 .text.sdcard_detect_init
                0x000000001001c38c       0x92 Output\obj\projects\standard\port\port_sd.o
                0x000000001001c38c                sdcard_detect_init
 .text.adpll_init
                0x000000001001c41e       0xc6 ..\..\platform\libs\libplatform.a(audio.o)
                0x000000001001c41e                adpll_init
 .text.adpll_spr_set
                0x000000001001c4e4       0x8a ..\..\platform\libs\libplatform.a(audio.o)
                0x000000001001c4e4                adpll_spr_set
 .text.audio    0x000000001001c56e      0xc00 ..\..\platform\libs\libplatform.a(audio.o)
                0x000000001001c56e                set_aux_analog_gain
                0x000000001001c5c4                set_mic_analog_gain
                0x000000001001c624                aux_analog_channel_select
                0x000000001001c822                aux_analog_channel_close
                0x000000001001c91e                analog_mic2pa_start
                0x000000001001ca42                analog_mic2pa_exit
                0x000000001001cb1e                analog_aux2pa_start_do
                0x000000001001cca6                analog_aux2pa_start
                0x000000001001ccb6                analog_aux2pa_mono_start
                0x000000001001ccc6                analog_aux2pa_exit
                0x000000001001cd56                analog_aux2pa_dig2anl_enable
                0x000000001001cd8c                analog_aux2pa_dig2anl_disable
                0x000000001001cdc6                sdadc_analog_aux_start
                0x000000001001cede                sdadc_analog_aux_exit
                0x000000001001cf52                sdadc_analog_mic_start
                0x000000001001d0dc                sdadc_analog_mic_exit
 *fill*         0x000000001001d16e        0x2 
 .text.audio.table
                0x000000001001d170       0x1a ..\..\platform\libs\libplatform.a(audio.o)
                0x000000001001d170                mic_anl_table
 .text.music_eq_fade_out
                0x000000001001d18a       0x1c ..\..\platform\libs\libplatform.a(audio_eq.o)
 .text.eq.msc   0x000000001001d1a6      0x306 ..\..\platform\libs\libplatform.a(audio_eq.o)
                0x000000001001d1a6                music_set_eq_is_done
                0x000000001001d1b0                music_set_eq_gain
                0x000000001001d1ba                music_set_eq
                0x000000001001d43c                music_set_eq_by_res
                0x000000001001d4a8                music_eq_off
 .text.uart     0x000000001001d4ac       0x44 ..\..\platform\libs\libplatform.a(audio_eq.o)
                0x000000001001d4ac                eq_huart_putcs
 .text.huart_eq_init
                0x000000001001d4f0       0x92 ..\..\platform\libs\libplatform.a(audio_eq.o)
                0x000000001001d4f0                huart_eq_init
 .text.karaok.var
                0x000000001001d582       0x30 ..\..\platform\libs\libplatform.a(audio_karaok.o)
                0x000000001001d582                karaok_var_init
 .text.dac      0x000000001001d5b2      0x96a ..\..\platform\libs\libplatform.a(dac.o)
                0x000000001001d604                dac_analog_fade_in
                0x000000001001d64c                dac_fade_sta_set
                0x000000001001d684                dac_fade_wait
                0x000000001001d6be                dac_dnr_set_sta
                0x000000001001d6e4                dac_dnr_get_sta
                0x000000001001d6f4                dac_cb_init
                0x000000001001d7b8                dac_power_fade2min
                0x000000001001d800                dac_power_fade2max
                0x000000001001d830                dac_start_1
                0x000000001001d9b6                dac_start_2
                0x000000001001daae                dac_set_mono
                0x000000001001db00                dac_set_dual
                0x000000001001db48                dac_channel_enable
                0x000000001001db5a                dac_channel_disable
                0x000000001001dbec                dac_power_on
                0x000000001001dca4                dac_mono_init
                0x000000001001dd04                dac_obuf_init
                0x000000001001dd52                dac_restart
                0x000000001001dda8                dac_src1_init
                0x000000001001dde2                dac_power_off
                0x000000001001ded0                src1_w4_aubuf_empty
 .text.dac_digital_enable
                0x000000001001df1c       0x4c ..\..\platform\libs\libplatform.a(dac.o)
                0x000000001001df1c                dac_digital_enable
 .text.dac_digital_disable
                0x000000001001df68       0x4a ..\..\platform\libs\libplatform.a(dac.o)
                0x000000001001df68                dac_digital_disable
 .text.dac_mix2mono
                0x000000001001dfb2       0x4a ..\..\platform\libs\libplatform.a(dac.o)
                0x000000001001dfb2                dac_mix2mono
 .text.dac_mix2mono_invert
                0x000000001001dffc       0x50 ..\..\platform\libs\libplatform.a(dac.o)
                0x000000001001dffc                dac_mix2mono_invert
 .text.dac_src1_spr_set
                0x000000001001e04c       0x32 ..\..\platform\libs\libplatform.a(dac.o)
                0x000000001001e04c                dac_src1_spr_set
 .text.dac.dnr  0x000000001001e07e       0x42 ..\..\platform\libs\libplatform.a(dac_dnr.o)
                0x000000001001e07e                dac_dnr_init
                0x000000001001e09e                mic_dnr_init
 .text.sdadc    0x000000001001e0c0      0x524 ..\..\platform\libs\libplatform.a(sdadc.o)
                0x000000001001e0c0                sdadc_spr_set
                0x000000001001e148                sdadc_set_digital_gain
                0x000000001001e190                sdadc_init
                0x000000001001e396                sdadc_start
                0x000000001001e4aa                sdadc_exit
 .text.sdadc_var_init
                0x000000001001e5e4       0x1c ..\..\platform\libs\libplatform.a(sdadc.o)
                0x000000001001e5e4                sdadc_var_init
 *fill*         0x000000001001e600        0x0 
 .text.sdadc.table
                0x000000001001e600        0xa ..\..\platform\libs\libplatform.a(sdadc.o)
                0x000000001001e600                sdadc_spr_index_tbl
 .text.bt_hid_wait_tx_complete
                0x000000001001e60a       0x2c ..\..\platform\libs\libplatform.a(bt.o)
 .text.stack.api
                0x000000001001e636      0x288 ..\..\platform\libs\libplatform.a(bt.o)
                0x000000001001e636                bt_send_msg
                0x000000001001e662                bt_setup
                0x000000001001e6a0                bt_connect
                0x000000001001e6c6                bt_disconnect
                0x000000001001e6ec                bt_off
                0x000000001001e738                bt_hid_connect
                0x000000001001e762                bt_hid_disconnect
                0x000000001001e788                bt_hid_send
                0x000000001001e7d4                bt_hid_key
                0x000000001001e802                bt_hid_consumer
                0x000000001001e830                bt_set_scan
                0x000000001001e844                bt_set_tws_scan
                0x000000001001e85e                bt_audio_bypass
                0x000000001001e88e                bt_audio_enable
 .text.bt_wait_disconnect
                0x000000001001e8be       0x38 ..\..\platform\libs\libplatform.a(bt.o)
                0x000000001001e8be                bt_wait_disconnect
 .text.stack.api.tws_search
                0x000000001001e8f6       0x1a ..\..\platform\libs\libplatform.a(bt.o)
                0x000000001001e8f6                bt_tws_search_slave
 .text.stack.api.tws_dis
                0x000000001001e910       0x22 ..\..\platform\libs\libplatform.a(bt.o)
                0x000000001001e910                bt_tws_disconnect
 .text.aec_init
                0x000000001001e932      0x190 ..\..\platform\libs\libplatform.a(bt_aec.o)
                0x000000001001e932                aec_init
 .text.alc      0x000000001001eac2      0x1b2 ..\..\platform\libs\libplatform.a(bt_alc.o)
                0x000000001001eac2                alc_init
 .text.bt_voice_init
                0x000000001001ec74       0x5e ..\..\platform\libs\libplatform.a(bt_sco.o)
                0x000000001001ec74                bt_voice_init
 .text.bt_voice_exit
                0x000000001001ecd2       0x6e ..\..\platform\libs\libplatform.a(bt_sco.o)
                0x000000001001ecd2                bt_voice_exit
 .text.wnr      0x000000001001ed40        0x8 ..\..\platform\libs\libplatform.a(bt_wnr.o)
                0x000000001001ed40                wnr_init
 .text.cm_next_freepage
                0x000000001001ed48       0x34 ..\..\platform\libs\libplatform.a(cm.o)
 .text.cm_loadpage
                0x000000001001ed7c       0x16 ..\..\platform\libs\libplatform.a(cm.o)
 .text.cm_write_cfgpage
                0x000000001001ed92       0x72 ..\..\platform\libs\libplatform.a(cm.o)
 .text.cm_check_loadpage
                0x000000001001ee04       0x9e ..\..\platform\libs\libplatform.a(cm.o)
 .text.cm_check_page
                0x000000001001eea2       0x7a ..\..\platform\libs\libplatform.a(cm.o)
 .text.cm_movepage
                0x000000001001ef1c       0x50 ..\..\platform\libs\libplatform.a(cm.o)
 .text.cm_release
                0x000000001001ef6c       0x74 ..\..\platform\libs\libplatform.a(cm.o)
 .text.cm_get_startaddr
                0x000000001001efe0        0x8 ..\..\platform\libs\libplatform.a(cm.o)
                0x000000001001efe0                cm_get_startaddr
 .text.cm_get_area
                0x000000001001efe8       0x12 ..\..\platform\libs\libplatform.a(cm.o)
                0x000000001001efe8                cm_get_area
 .text.cm_release_all
                0x000000001001effa       0xb0 ..\..\platform\libs\libplatform.a(cm.o)
                0x000000001001effa                cm_release_all
 .text.cm_sync  0x000000001001f0aa       0x6a ..\..\platform\libs\libplatform.a(cm.o)
                0x000000001001f0aa                cm_sync
 .text.cm_read  0x000000001001f114       0x58 ..\..\platform\libs\libplatform.a(cm.o)
                0x000000001001f114                cm_read
 .text.cm_write
                0x000000001001f16c       0x62 ..\..\platform\libs\libplatform.a(cm.o)
                0x000000001001f16c                cm_write
 .text.cm_init  0x000000001001f1ce      0x1e4 ..\..\platform\libs\libplatform.a(cm.o)
                0x000000001001f1ce                cm_init
 .text.xcfg_init
                0x000000001001f3b2       0x5e ..\..\platform\libs\libplatform.a(xcfg.o)
                0x000000001001f3b2                xcfg_init
 .text.sd_disable
                0x000000001001f410       0x18 ..\..\platform\libs\libplatform.a(device.o)
                0x000000001001f410                sd_disable
 .text.usb_disable
                0x000000001001f428       0x24 ..\..\platform\libs\libplatform.a(device.o)
                0x000000001001f428                usb_disable
 .text.device.init
                0x000000001001f44c       0xc8 ..\..\platform\libs\libplatform.a(device.o)
                0x000000001001f44c                dev_init
                0x000000001001f4bc                dev_delay_times
                0x000000001001f4ce                dev_delay_online_times
                0x000000001001f4dc                dev_delay_offline_times
                0x000000001001f4ea                dev_clr_sta
 .text.device   0x000000001001f514       0x66 ..\..\platform\libs\libplatform.a(device.o)
                0x000000001001f514                dev_udisk_activation_try
 .text.fmrx     0x000000001001f57a      0x50e ..\..\platform\libs\libplatform.a(fmrx.o)
                0x000000001001f5d4                fmrx_power_off
                0x000000001001f600                fmrx_digital_stop
                0x000000001001f618                fmrx_digital_start
                0x000000001001f65c                fmrx_sel_cs_filter
                0x000000001001f676                fmrx_set_freq
                0x000000001001f6fa                fmrx_cur_freq_is_stereo
                0x000000001001f77e                fmrx_check_freq
                0x000000001001fa86                fmrx_logger_out
 .text.fmrx.init
                0x000000001001fa88       0x88 ..\..\platform\libs\libplatform.a(fmrx.o)
                0x000000001001fa88                fmrx_power_on
 .text.fmrx_set_pll
                0x000000001001fb10      0x100 ..\..\platform\libs\libplatform.a(fmrx_ang.o)
                0x000000001001fb10                fmrx_set_pll
 .text.fmrx_analog_init
                0x000000001001fc10      0x32c ..\..\platform\libs\libplatform.a(fmrx_ang.o)
                0x000000001001fc10                fmrx_analog_init
 .text.fmrx_set_rf_cap
                0x000000001001ff3c       0x16 ..\..\platform\libs\libplatform.a(fmrx_ang.o)
                0x000000001001ff3c                fmrx_set_rf_cap
 .text.platform_main
                0x000000001001ff52      0x134 ..\..\platform\libs\libplatform.a(main.o)
                0x000000001001ff52                platform_main
 .text.main_startup
                0x0000000010020086       0x4e ..\..\platform\libs\libplatform.a(main.o)
                0x0000000010020086                main_startup
 .text.music    0x00000000100200d4      0x182 ..\..\platform\libs\libplatform.a(music.o)
                0x000000001002015c                music_set_total_time
                0x0000000010020164                music_get_total_time
                0x00000000100201a8                mp3_get_cbr_total_time
                0x00000000100201c4                music_control
 .text.music.init
                0x0000000010020256      0x3fc ..\..\platform\libs\libplatform.a(music.o)
                0x000000001002026e                wav_decode_init
                0x00000000100202e4                mp3_decode_init
                0x0000000010020358                msbc_init
                0x000000001002039a                sbcio_decode_init
                0x000000001002041c                ape_decode_init
                0x0000000010020478                flac_decode_init
                0x00000000100204d4                wma_decode_init
                0x0000000010020530                spi_mp3_decode_init
                0x0000000010020598                sbc_decode_init
                0x00000000100205fa                music_decode_init
                0x000000001002062a                sbc_decode_exit
 .text.fs_lock  0x0000000010020652       0x12 ..\..\platform\libs\libplatform.a(music.o)
                0x0000000010020652                fs_lock
 .text.fs_unlock
                0x0000000010020664       0x10 ..\..\platform\libs\libplatform.a(music.o)
                0x0000000010020664                fs_unlock
 .text.music_is_encrypt
                0x0000000010020674       0x9c ..\..\platform\libs\libplatform.a(music_decrypt.o)
                0x0000000010020674                music_is_encrypt
 .text.spires   0x0000000010020710      0x208 ..\..\platform\libs\libplatform.a(music_res.o)
                0x0000000010020710                spi_res_decrypt
                0x00000000100207a0                register_spi_read_function
                0x00000000100207a8                spi_stream_read
                0x0000000010020832                spi_stream_seek
                0x0000000010020856                spi_save_file_info
                0x0000000010020866                spi_load_file_info
                0x0000000010020878                wav_res_is_play
                0x0000000010020886                obuf1_puts_sample
                0x00000000100208d8                wav_res_dec_process
 .text.mp3_res_play_kick
                0x0000000010020918       0x7a ..\..\platform\libs\libplatform.a(music_res.o)
                0x0000000010020918                mp3_res_play_kick
 *fill*         0x0000000010020992        0x2 
 .text.spires.table
                0x0000000010020994       0x22 ..\..\platform\libs\libplatform.a(music_res.o)
                0x0000000010020994                encrypt_header_tbl
 .text.msc_stream_start
                0x00000000100209b6       0x52 ..\..\platform\libs\libplatform.a(stream.o)
                0x00000000100209b6                msc_stream_start
 .text.msc_stream_end
                0x0000000010020a08       0x62 ..\..\platform\libs\libplatform.a(stream.o)
                0x0000000010020a08                msc_stream_end
 .text.music_stream_var_init
                0x0000000010020a6a       0x14 ..\..\platform\libs\libplatform.a(stream.o)
                0x0000000010020a6a                music_stream_var_init
 .text.timer0_init
                0x0000000010020a7e       0x64 ..\..\platform\libs\libplatform.a(interrupt.o)
                0x0000000010020a7e                timer0_init
 .text.soft_irq_init
                0x0000000010020ae2       0x44 ..\..\platform\libs\libplatform.a(interrupt.o)
                0x0000000010020ae2                soft_irq_init
 .text.bthw_irq_init
                0x0000000010020b26       0x34 ..\..\platform\libs\libplatform.a(interrupt.o)
                0x0000000010020b26                bthw_irq_init
 .text.sd0_irq_init
                0x0000000010020b5a       0x34 ..\..\platform\libs\libplatform.a(interrupt.o)
                0x0000000010020b5a                sd0_irq_init
 .text.usb_irq_init
                0x0000000010020b8e       0x28 ..\..\platform\libs\libplatform.a(interrupt.o)
                0x0000000010020b8e                usb_irq_init
 .text.sdadc_irq_init
                0x0000000010020bb6       0x34 ..\..\platform\libs\libplatform.a(interrupt.o)
                0x0000000010020bb6                sdadc_irq_init
 .text.tws_irq_init
                0x0000000010020bea       0x36 ..\..\platform\libs\libplatform.a(interrupt.o)
                0x0000000010020bea                tws_irq_init
 .text.irrx_irq_init
                0x0000000010020c20       0x34 ..\..\platform\libs\libplatform.a(interrupt.o)
                0x0000000010020c20                irrx_irq_init
 .text.aubuf_irq_init
                0x0000000010020c54       0x34 ..\..\platform\libs\libplatform.a(interrupt.o)
                0x0000000010020c54                aubuf_irq_init
 .text.huart_irq_init
                0x0000000010020c88       0x36 ..\..\platform\libs\libplatform.a(interrupt.o)
                0x0000000010020c88                huart_irq_init
 .text.thread_main_entry
                0x0000000010020cbe      0x27a ..\..\platform\libs\libplatform.a(startup.o)
 .text.sys_set_tmr_enable
                0x0000000010020f38        0xe ..\..\platform\libs\libplatform.a(startup.o)
                0x0000000010020f38                sys_set_tmr_enable
 .text.thread_idle_create
                0x0000000010020f46       0x3c ..\..\platform\libs\libplatform.a(startup.o)
                0x0000000010020f46                thread_idle_create
 .text.startup.init
                0x0000000010020f82      0x160 ..\..\platform\libs\libplatform.a(startup.o)
                0x0000000010020f82                platform_init
                0x0000000010020f84                sys_startup
 .text.sys_hook_init
                0x00000000100210e2       0x12 ..\..\platform\libs\libplatform.a(sys_hook.o)
                0x00000000100210e2                sys_hook_init
 .text.mktime   0x00000000100210f4       0x6e ..\..\platform\libs\libplatform.a(rtc_time.o)
 .text.rtc_time
                0x0000000010021162      0x174 ..\..\platform\libs\libplatform.a(rtc_time.o)
                0x0000000010021162                rtc_month_days
                0x0000000010021198                rtc_time_to_tm
                0x0000000010021294                rtc_tm_to_time
                0x00000000100212b0                get_weekday
 .text.sd_disk_init
                0x00000000100212d6       0xdc ..\..\platform\libs\libplatform.a(sd_api.o)
                0x00000000100212d6                sd_disk_init
 .text.sd_disk_switch
                0x00000000100213b2       0x42 ..\..\platform\libs\libplatform.a(sd_api.o)
                0x00000000100213b2                sd_disk_switch
 .text.ude_sd_remove
                0x00000000100213f4       0x10 ..\..\platform\libs\libplatform.a(sd_api.o)
                0x00000000100213f4                ude_sd_remove
 .text.sd_soft_detect
                0x0000000010021404        0xa ..\..\platform\libs\libplatform.a(sd_api.o)
                0x0000000010021404                sd_soft_detect
 .text.sd0_init
                0x000000001002140e        0xa ..\..\platform\libs\libplatform.a(sd_api.o)
                0x000000001002140e                sd0_init
 .text.sd0_stop
                0x0000000010021418        0xc ..\..\platform\libs\libplatform.a(sd_api.o)
                0x0000000010021418                sd0_stop
 .text.sd0_read
                0x0000000010021424        0xe ..\..\platform\libs\libplatform.a(sd_api.o)
                0x0000000010021424                sd0_read
 .text.sd0_read_start
                0x0000000010021432        0xe ..\..\platform\libs\libplatform.a(sd_api.o)
                0x0000000010021432                sd0_read_start
 .text.sd0_read_kick
                0x0000000010021440        0xc ..\..\platform\libs\libplatform.a(sd_api.o)
                0x0000000010021440                sd0_read_kick
 .text.sd0_read_wait
                0x000000001002144c        0xa ..\..\platform\libs\libplatform.a(sd_api.o)
                0x000000001002144c                sd0_read_wait
 .text.sd0_write
                0x0000000010021456        0xe ..\..\platform\libs\libplatform.a(sd_api.o)
                0x0000000010021456                sd0_write
 .text.sd0_write_start
                0x0000000010021464        0xe ..\..\platform\libs\libplatform.a(sd_api.o)
                0x0000000010021464                sd0_write_start
 .text.sd0_write_kick
                0x0000000010021472        0xc ..\..\platform\libs\libplatform.a(sd_api.o)
                0x0000000010021472                sd0_write_kick
 .text.sd0_write_wait
                0x000000001002147e        0xa ..\..\platform\libs\libplatform.a(sd_api.o)
                0x000000001002147e                sd0_write_wait
 .text.sd0_rw_end
                0x0000000010021488       0x10 ..\..\platform\libs\libplatform.a(sd_api.o)
                0x0000000010021488                sd0_rw_end
 .text.sd0_get_rw_sta
                0x0000000010021498        0xe ..\..\platform\libs\libplatform.a(sd_api.o)
                0x0000000010021498                sd0_get_rw_sta
 .text.debug_set
                0x00000000100214a6       0x1a ..\..\platform\libs\libplatform.a(debug.o)
                0x00000000100214a6                debug_set
 .text.gpio_cfg_init
                0x00000000100214c0       0x62 ..\..\platform\libs\libplatform.a(gpio.o)
                0x00000000100214c0                gpio_cfg_init
 .text.lowpwr.sleep
                0x0000000010021522      0x316 ..\..\platform\libs\libplatform.a(gpio.o)
                0x0000000010021522                adcch_io_wakeup_config
                0x0000000010021628                wakeup_gpio_config
                0x0000000010021768                wakeup_wko_config
                0x00000000100217ac                wakeup_udisk_config
                0x00000000100217fe                wakeup_disable
 .text.bsp.key.init
                0x0000000010021838       0x34 ..\..\platform\libs\libplatform.a(key.o)
                0x0000000010021838                key_var_init
 .text.lock_init
                0x000000001002186c       0x14 ..\..\platform\libs\libplatform.a(lock.o)
                0x000000001002186c                lock_init
 .text.unlock_whcode
                0x0000000010021880       0x3a ..\..\platform\libs\libplatform.a(lock.o)
                0x0000000010021880                unlock_whcode
 .text.lock_whcode
                0x00000000100218ba       0x56 ..\..\platform\libs\libplatform.a(lock.o)
                0x00000000100218ba                lock_whcode
 .text.lock_sleep
                0x0000000010021910       0x14 ..\..\platform\libs\libplatform.a(lock.o)
                0x0000000010021910                lock_sleep
 .text.unlock_sleep
                0x0000000010021924        0x4 ..\..\platform\libs\libplatform.a(lock.o)
                0x0000000010021924                unlock_sleep
 .text.unlock_dcode
                0x0000000010021928       0x4c ..\..\platform\libs\libplatform.a(lock.o)
                0x0000000010021928                unlock_dcode
 .text.lock_dcode
                0x0000000010021974       0x56 ..\..\platform\libs\libplatform.a(lock.o)
                0x0000000010021974                lock_dcode
 .text.lock_code_sbcdec
                0x00000000100219ca       0x38 ..\..\platform\libs\libplatform.a(lock.o)
                0x00000000100219ca                lock_code_sbcdec
 .text.lock_code_mp3dec
                0x0000000010021a02       0x14 ..\..\platform\libs\libplatform.a(lock.o)
                0x0000000010021a02                lock_code_mp3dec
 .text.lock_code_wavdec
                0x0000000010021a16       0x14 ..\..\platform\libs\libplatform.a(lock.o)
                0x0000000010021a16                lock_code_wavdec
 .text.lock_code_do
                0x0000000010021a2a       0x54 ..\..\platform\libs\libplatform.a(lock.o)
                0x0000000010021a2a                lock_code_do
 .text.unlock_code_do
                0x0000000010021a7e       0x30 ..\..\platform\libs\libplatform.a(lock.o)
                0x0000000010021a7e                unlock_code_do
 .text.lock_code_bt_voice
                0x0000000010021aae       0x22 ..\..\platform\libs\libplatform.a(lock.o)
                0x0000000010021aae                lock_code_bt_voice
 .text.lock_code_usbdev
                0x0000000010021ad0       0x22 ..\..\platform\libs\libplatform.a(lock.o)
                0x0000000010021ad0                lock_code_usbdev
 .text.unlock_code_pwrsave
                0x0000000010021af2        0xa ..\..\platform\libs\libplatform.a(lock.o)
                0x0000000010021af2                unlock_code_pwrsave
 .text.unlock_code_usbdev
                0x0000000010021afc        0x4 ..\..\platform\libs\libplatform.a(lock.o)
                0x0000000010021afc                unlock_code_usbdev
 .text.lock_code_sniff
                0x0000000010021b00       0x22 ..\..\platform\libs\libplatform.a(lock.o)
                0x0000000010021b00                lock_code_sniff
 .text.unlock_code_sniff
                0x0000000010021b22        0xa ..\..\platform\libs\libplatform.a(lock.o)
                0x0000000010021b22                unlock_code_sniff
 .text.lock_code_bb_test
                0x0000000010021b2c       0x22 ..\..\platform\libs\libplatform.a(lock.o)
                0x0000000010021b2c                lock_code_bb_test
 .text.unlock_code_bb_test
                0x0000000010021b4e        0xa ..\..\platform\libs\libplatform.a(lock.o)
                0x0000000010021b4e                unlock_code_bb_test
 .text.unlock_code_bt_voice
                0x0000000010021b58        0x4 ..\..\platform\libs\libplatform.a(lock.o)
                0x0000000010021b58                unlock_code_bt_voice
 .text.lock_code_stream
                0x0000000010021b5c       0x22 ..\..\platform\libs\libplatform.a(lock.o)
                0x0000000010021b5c                lock_code_stream
 .text.unlock_code_stream
                0x0000000010021b7e        0xa ..\..\platform\libs\libplatform.a(lock.o)
                0x0000000010021b7e                unlock_code_stream
 .text.pmu_buck_mode
                0x0000000010021b88       0xa4 ..\..\platform\libs\libplatform.a(power.o)
                0x0000000010021b88                pmu_buck_mode
 .text.pmu_ldo_mode
                0x0000000010021c2c       0x24 ..\..\platform\libs\libplatform.a(power.o)
                0x0000000010021c2c                pmu_ldo_mode
 .text.pmu_init
                0x0000000010021c50      0x162 ..\..\platform\libs\libplatform.a(power.o)
                0x0000000010021c50                pmu_init
 .text.sys_get_rand_key
                0x0000000010021db2       0x76 ..\..\platform\libs\libplatform.a(sys.o)
                0x0000000010021db2                sys_get_rand_key
 .text.xosc_init
                0x0000000010021e28       0xd8 ..\..\platform\libs\libplatform.a(sys.o)
                0x0000000010021e28                xosc_init
 .text.bsp.param
                0x0000000010021f00       0x30 ..\..\platform\libs\libplatform.a(sys.o)
                0x0000000010021f00                bt_save_xosc_cap
 .text.bt_restore_xosc_cap
                0x0000000010021f30        0x4 ..\..\platform\libs\libplatform.a(sys.o)
                0x0000000010021f30                bt_restore_xosc_cap
 .text.bt_get_xosc_cap
                0x0000000010021f34       0x18 ..\..\platform\libs\libplatform.a(sys.o)
                0x0000000010021f34                bt_get_xosc_cap
 .text.bt_set_xosc_cap
                0x0000000010021f4c       0x2a ..\..\platform\libs\libplatform.a(sys.o)
                0x0000000010021f4c                bt_set_xosc_cap
 .text.bt_adj_xosc_cap
                0x0000000010021f76       0x58 ..\..\platform\libs\libplatform.a(sys.o)
                0x0000000010021f76                bt_adj_xosc_cap
 .text.__divdi3
                0x0000000010021fce       0xca ..\..\platform\libs\libplatform.a(sys.o)
                0x0000000010021fce                __divdi3
 .text.get_random
                0x0000000010022098       0x44 ..\..\platform\libs\libplatform.a(sys.o)
                0x0000000010022098                get_random
 .text.sys_clk  0x00000000100220dc       0x72 ..\..\platform\libs\libplatform.a(sys_clk.o)
                0x00000000100220dc                get_clksel_val
                0x00000000100220ec                get_cur_sysclk
                0x00000000100220f4                set_audec_clkdiv
                0x0000000010022114                sysclk_update_baud
 *fill*         0x000000001002214e       0xb2 
 .text.set_sys_clk_do
                0x0000000010022200      0x202 ..\..\platform\libs\libplatform.a(sys_clk.o)
                0x0000000010022200                set_sys_clk_do
 .text.set_peripherals_clkdiv
                0x0000000010022402       0x9c ..\..\platform\libs\libplatform.a(sys_clk.o)
                0x0000000010022402                set_peripherals_clkdiv
 .text.set_sys_clk
                0x000000001002249e      0x1aa ..\..\platform\libs\libplatform.a(sys_clk.o)
                0x000000001002249e                set_sys_clk
 *fill*         0x0000000010022648        0x0 
 .text.sys_clk.table
                0x0000000010022648       0x16 ..\..\platform\libs\libplatform.a(sys_clk.o)
                0x0000000010022648                sysclk_sel_tbl
                0x0000000010022654                sysclk_index
 .text.msg.queue.init
                0x000000001002265e       0x14 ..\..\platform\libs\libplatform.a(sys_msg.o)
                0x000000001002265e                msg_queue_init
 .text.voltage.trim
                0x0000000010022672       0x94 ..\..\platform\libs\libplatform.a(voltage_trim.o)
                0x0000000010022672                voltage_trim_value_init
 *fill*         0x0000000010022706        0x2 
 .text.voltage.trim.table
                0x0000000010022708       0x76 ..\..\platform\libs\libplatform.a(voltage_trim.o)
                0x0000000010022708                charge_trim_step
                0x000000001002271c                vddcore_trim_step
                0x000000001002273c                vddio_trim_step
                0x000000001002275c                vddbko_trim_step
 .text.music_eq_get_bass_tbl
                0x000000001002277e        0x4 ..\..\platform\libs\libplatform.a(weak_symbol.o)
                0x000000001002277e                music_eq_get_bass_tbl
 .text.music_eq_get_treble_tbl
                0x0000000010022782        0x4 ..\..\platform\libs\libplatform.a(weak_symbol.o)
                0x0000000010022782                music_eq_get_treble_tbl
 .text.music_eq_get_tbl
                0x0000000010022786        0x4 ..\..\platform\libs\libplatform.a(weak_symbol.o)
                0x0000000010022786                music_eq_get_tbl
 .text.bt_pf_init
                0x000000001002278a       0x28 ..\..\platform\libs\libplatform.a(bt_ota.o)
                0x000000001002278a                bt_pf_init
 .text.bt_pf_exit
                0x00000000100227b2       0x12 ..\..\platform\libs\libplatform.a(bt_ota.o)
                0x00000000100227b2                bt_pf_exit
 .text.bt_pf_read
                0x00000000100227c4       0x3c ..\..\platform\libs\libplatform.a(bt_ota.o)
                0x00000000100227c4                bt_pf_read
 .text.bt_pf_status
                0x0000000010022800       0x34 ..\..\platform\libs\libplatform.a(bt_ota.o)
                0x0000000010022800                bt_pf_status
 .text.bt_pf_get_info
                0x0000000010022834       0x2a ..\..\platform\libs\libplatform.a(bt_ota.o)
                0x0000000010022834                bt_pf_get_info
 .text.bt_pf_post
                0x000000001002285e       0x12 ..\..\platform\libs\libplatform.a(bt_ota.o)
                0x000000001002285e                bt_pf_post
 .text.bthw_get_heap_info
                0x0000000010022870       0x12 ..\..\platform\libs\libbtstack.a(bb.o)
                0x0000000010022870                bthw_get_heap_info
 .text.bb_init  0x0000000010022882      0x112 ..\..\platform\libs\libbtstack.a(bb.o)
                0x0000000010022882                bb_init
 .text.bb_reset
                0x0000000010022994       0x68 ..\..\platform\libs\libbtstack.a(bb.o)
                0x0000000010022994                bb_reset
 .text.bb_off   0x00000000100229fc       0x7c ..\..\platform\libs\libbtstack.a(bb.o)
                0x00000000100229fc                bb_off
 .text.rf_spi_tf
                0x0000000010022a78       0x12 ..\..\platform\libs\libbtstack.a(bb_rf.o)
 .text.rf_rx_cacl_dc
                0x0000000010022a8a       0xca ..\..\platform\libs\libbtstack.a(bb_rf.o)
 .text.rf_filter_init
                0x0000000010022b54      0x244 ..\..\platform\libs\libbtstack.a(bb_rf.o)
 .text.rf_idle  0x0000000010022d98       0x24 ..\..\platform\libs\libbtstack.a(bb_rf.o)
 .text.bt_get_hvbko
                0x0000000010022dbc       0x4c ..\..\platform\libs\libbtstack.a(bb_rf.o)
                0x0000000010022dbc                bt_get_hvbko
 .text.bt_get_packet
                0x0000000010022e08       0x54 ..\..\platform\libs\libbtstack.a(bb_rf.o)
                0x0000000010022e08                bt_get_packet
 .text.bt_get_rfparam
                0x0000000010022e5c       0x32 ..\..\platform\libs\libbtstack.a(bb_rf.o)
                0x0000000010022e5c                bt_get_rfparam
 .text.rf_reg_rd
                0x0000000010022e8e       0x20 ..\..\platform\libs\libbtstack.a(bb_rf.o)
                0x0000000010022e8e                rf_reg_rd
 .text.rf_reg_wr
                0x0000000010022eae       0x22 ..\..\platform\libs\libbtstack.a(bb_rf.o)
                0x0000000010022eae                rf_reg_wr
 .text.rf_txpwr_inc
                0x0000000010022ed0       0x28 ..\..\platform\libs\libbtstack.a(bb_rf.o)
                0x0000000010022ed0                rf_txpwr_inc
 .text.rf_txpwr_dec
                0x0000000010022ef8       0x2c ..\..\platform\libs\libbtstack.a(bb_rf.o)
                0x0000000010022ef8                rf_txpwr_dec
 .text.rf_txpwr_epc_req
                0x0000000010022f24       0x8a ..\..\platform\libs\libbtstack.a(bb_rf.o)
                0x0000000010022f24                rf_txpwr_epc_req
 .text.bb.rf    0x0000000010022fae      0x124 ..\..\platform\libs\libbtstack.a(bb_rf.o)
                0x0000000010022fae                rf_pll_afc
                0x000000001002302c                rf_tx_tone
                0x0000000010023062                rf_tx_pwr
                0x000000001002308e                rf_tx_channel
 .text.rf_sw_ctrl
                0x00000000100230d2       0x16 ..\..\platform\libs\libbtstack.a(bb_rf.o)
                0x00000000100230d2                rf_sw_ctrl
 .text.rf_reset
                0x00000000100230e8      0x5e2 ..\..\platform\libs\libbtstack.a(bb_rf.o)
                0x00000000100230e8                rf_reset
 .text.rf_off   0x00000000100236ca       0x2a ..\..\platform\libs\libbtstack.a(bb_rf.o)
                0x00000000100236ca                rf_off
 .text.rf_init  0x00000000100236f4       0x5e ..\..\platform\libs\libbtstack.a(bb_rf.o)
                0x00000000100236f4                rf_init
 .text.ble_init
                0x0000000010023752       0x14 ..\..\platform\libs\libbtstack.a(ble.o)
                0x0000000010023752                ble_init
 .text.ble_reset
                0x0000000010023766       0x32 ..\..\platform\libs\libbtstack.a(ble.o)
                0x0000000010023766                ble_reset
 .text.hwble_init
                0x0000000010023798      0x20c ..\..\platform\libs\libbtstack.a(ble_con.o)
                0x0000000010023798                hwble_init
 .text.hwble_reset
                0x00000000100239a4       0x2a ..\..\platform\libs\libbtstack.a(ble_con.o)
                0x00000000100239a4                hwble_reset
 .text.ble_evt_init
                0x00000000100239ce       0x12 ..\..\platform\libs\libbtstack.a(ble_evt.o)
                0x00000000100239ce                ble_evt_init
 .text.bt21_init
                0x00000000100239e0       0x22 ..\..\platform\libs\libbtstack.a(bt21.o)
                0x00000000100239e0                bt21_init
 .text.bt21_reset
                0x0000000010023a02       0x3c ..\..\platform\libs\libbtstack.a(bt21.o)
                0x0000000010023a02                bt21_reset
 .text.lc_flush_acl_buf
                0x0000000010023a3e       0xb2 ..\..\platform\libs\libbtstack.a(ext_flush.o)
                0x0000000010023a3e                lc_flush_acl_buf
 .text.hwbt_reset
                0x0000000010023af0       0x56 ..\..\platform\libs\libbtstack.a(ext_init.o)
                0x0000000010023af0                hwbt_reset
 .text.hwbt_init_radio
                0x0000000010023b46       0x3c ..\..\platform\libs\libbtstack.a(ext_init.o)
                0x0000000010023b46                hwbt_init_radio
 .text.hwbt_init
                0x0000000010023b82      0x3e0 ..\..\platform\libs\libbtstack.a(ext_init.o)
                0x0000000010023b82                hwbt_init
 .text.plc_init
                0x0000000010023f62       0x9e ..\..\platform\libs\libbtstack.a(ext_plc.o)
                0x0000000010023f62                plc_init
 .text.plc_exit
                0x0000000010024000       0x2e ..\..\platform\libs\libbtstack.a(ext_plc.o)
                0x0000000010024000                plc_exit
 .text.lc_sco_pkt_init
                0x000000001002402e       0x10 ..\..\platform\libs\libbtstack.a(ext_sco.o)
                0x000000001002402e                lc_sco_pkt_init
 .text.lc_sco_codec_init
                0x000000001002403e      0x126 ..\..\platform\libs\libbtstack.a(ext_sco.o)
                0x000000001002403e                lc_sco_codec_init
 .text.lc_sco_codec_exit
                0x0000000010024164       0x3c ..\..\platform\libs\libbtstack.a(ext_sco.o)
                0x0000000010024164                lc_sco_codec_exit
 .text.lc_tws_init
                0x00000000100241a0       0x5a ..\..\platform\libs\libbtstack.a(ext_tws.o)
                0x00000000100241a0                lc_tws_init
 *fill*         0x00000000100241fa        0x6 
 .text.lc_tws_set_spr
                0x0000000010024200      0x1fe ..\..\platform\libs\libbtstack.a(ext_tws.o)
                0x0000000010024200                lc_tws_set_spr
 .text.lc_tws_set_ticks
                0x00000000100243fe       0x2e ..\..\platform\libs\libbtstack.a(ext_tws.o)
                0x00000000100243fe                lc_tws_set_ticks
 *fill*         0x000000001002442c       0x54 
 .text.lc_tws_stop_ticks
                0x0000000010024480       0x80 ..\..\platform\libs\libbtstack.a(ext_tws.o)
                0x0000000010024480                lc_tws_stop_ticks
 *fill*         0x0000000010024500        0x0 
 .text.lc_tws_set_speed
                0x0000000010024500       0x7c ..\..\platform\libs\libbtstack.a(ext_tws.o)
                0x0000000010024500                lc_tws_set_speed
 .text.hwbt_set_bd_addr
                0x000000001002457c       0x54 ..\..\platform\libs\libbtstack.a(ext_util.o)
                0x000000001002457c                hwbt_set_bd_addr
 .text.hwbt_get_bd_addr
                0x00000000100245d0       0x10 ..\..\platform\libs\libbtstack.a(ext_util.o)
                0x00000000100245d0                hwbt_get_bd_addr
 .text.lc_read_features
                0x00000000100245e0       0x1a ..\..\platform\libs\libbtstack.a(ext_util.o)
                0x00000000100245e0                lc_read_features
 .text.lc_read_extended_features
                0x00000000100245fa       0x68 ..\..\platform\libs\libbtstack.a(ext_util.o)
                0x00000000100245fa                lc_read_extended_features
 .text.hwbt_set_class_of_device
                0x0000000010024662       0x1e ..\..\platform\libs\libbtstack.a(ext_util.o)
                0x0000000010024662                hwbt_set_class_of_device
 .text.lc_is_actived_test_mode
                0x0000000010024680        0xc ..\..\platform\libs\libbtstack.a(ext_util.o)
                0x0000000010024680                lc_is_actived_test_mode
 .text.lc_activate_test_mode
                0x000000001002468c       0x52 ..\..\platform\libs\libbtstack.a(ext_util.o)
                0x000000001002468c                lc_activate_test_mode
 .text.lc_test_mode_check
                0x00000000100246de       0x86 ..\..\platform\libs\libbtstack.a(ext_util.o)
                0x00000000100246de                lc_test_mode_check
 .text.lc_test_mode_set_payload
                0x0000000010024764       0x9c ..\..\platform\libs\libbtstack.a(ext_util.o)
                0x0000000010024764                lc_test_mode_set_payload
 .text.lc_get_cs_clock_offset
                0x0000000010024800       0x12 ..\..\platform\libs\libbtstack.a(ext_util.o)
                0x0000000010024800                lc_get_cs_clock_offset
 .text.lc_get_clock_offset
                0x0000000010024812       0x16 ..\..\platform\libs\libbtstack.a(ext_util.o)
                0x0000000010024812                lc_get_clock_offset
 .text.lc_get_slot_offset
                0x0000000010024828       0x6e ..\..\platform\libs\libbtstack.a(ext_util.o)
                0x0000000010024828                lc_get_slot_offset
 *fill*         0x0000000010024896       0x6a 
 .text.lc_encrypt_bcst_rx
                0x0000000010024900       0x80 ..\..\platform\libs\libbtstack.a(ext_util.o)
                0x0000000010024900                lc_encrypt_bcst_rx
 .text.lc_disable_power_cntl
                0x0000000010024980       0x16 ..\..\platform\libs\libbtstack.a(ext_util.o)
                0x0000000010024980                lc_disable_power_cntl
 .text.lc_inc_power_requested
                0x0000000010024996       0x3a ..\..\platform\libs\libbtstack.a(ext_util.o)
                0x0000000010024996                lc_inc_power_requested
 .text.lc_set_timing_accuracy
                0x00000000100249d0       0x1c ..\..\platform\libs\libbtstack.a(ext_util.o)
                0x00000000100249d0                lc_set_timing_accuracy
 .text.lc_set_rx_max_slot
                0x00000000100249ec       0x18 ..\..\platform\libs\libbtstack.a(ext_util.o)
                0x00000000100249ec                lc_set_rx_max_slot
 .text.lc_get_nb_sco
                0x0000000010024a04        0x8 ..\..\platform\libs\libbtstack.a(ext_util.o)
                0x0000000010024a04                lc_get_nb_sco
 .text.lc_verify_nb_slaves
                0x0000000010024a0c       0x24 ..\..\platform\libs\libbtstack.a(ext_util.o)
                0x0000000010024a0c                lc_verify_nb_slaves
 .text.lc_convert_pref_rate_to_packet_type
                0x0000000010024a30       0x9c ..\..\platform\libs\libbtstack.a(ext_util.o)
                0x0000000010024a30                lc_convert_pref_rate_to_packet_type
 .text.lm_test_generate_prbs9
                0x0000000010024acc       0x9e ..\..\platform\libs\libbtstack.a(ext_util.o)
                0x0000000010024acc                lm_test_generate_prbs9
 .text.lc_disable_test_mode
                0x0000000010024b6a       0x56 ..\..\platform\libs\libbtstack.a(ext_util.o)
                0x0000000010024b6a                lc_disable_test_mode
 .text.lc_set_sp_feature_bit
                0x0000000010024bc0       0x1a ..\..\platform\libs\libbtstack.a(ext_util.o)
                0x0000000010024bc0                lc_set_sp_feature_bit
 .text.lc_set_le_host_features
                0x0000000010024bda       0x2a ..\..\platform\libs\libbtstack.a(ext_util.o)
                0x0000000010024bda                lc_set_le_host_features
 .text.lc_get_le_host_features
                0x0000000010024c04       0x1a ..\..\platform\libs\libbtstack.a(ext_util.o)
                0x0000000010024c04                lc_get_le_host_features
 .text.lc_acl_stop_link
                0x0000000010024c1e       0x24 ..\..\platform\libs\libbtstack.a(ext_util.o)
                0x0000000010024c1e                lc_acl_stop_link
 .text.lc_3dh1_pkt_is_en.isra.0
                0x0000000010024c42       0x34 ..\..\platform\libs\libbtstack.a(lc.o)
 .text.lc_init  0x0000000010024c76       0x68 ..\..\platform\libs\libbtstack.a(lc.o)
                0x0000000010024c76                lc_init
 .text.lc_reset
                0x0000000010024cde       0x58 ..\..\platform\libs\libbtstack.a(lc.o)
                0x0000000010024cde                lc_reset
 .text.lc_chg_pkt_type_cmp
                0x0000000010024d36       0xac ..\..\platform\libs\libbtstack.a(lc.o)
                0x0000000010024d36                lc_chg_pkt_type_cmp
 .text.lc_chg_pkt_type_cont
                0x0000000010024de2       0xa6 ..\..\platform\libs\libbtstack.a(lc.o)
                0x0000000010024de2                lc_chg_pkt_type_cont
 .text.lc_chk_afh_switch_pos
                0x0000000010024e88       0x72 ..\..\platform\libs\libbtstack.a(lc.o)
                0x0000000010024e88                lc_chk_afh_switch_pos
 .text.lc_chk_to
                0x0000000010024efa       0x82 ..\..\platform\libs\libbtstack.a(lc.o)
                0x0000000010024efa                lc_chk_to
 .text.lc_common_cmd_status_send
                0x0000000010024f7c       0x2c ..\..\platform\libs\libbtstack.a(lc.o)
                0x0000000010024f7c                lc_common_cmd_status_send
 .text.lc_common_nb_of_pkt_comp_evt_send
                0x0000000010024fa8       0x58 ..\..\platform\libs\libbtstack.a(lc.o)
                0x0000000010024fa8                lc_common_nb_of_pkt_comp_evt_send
 .text.lc_con_cmp_evt_send
                0x0000000010025000       0xaa ..\..\platform\libs\libbtstack.a(lc.o)
                0x0000000010025000                lc_con_cmp_evt_send
 .text.lc_con_cmp
                0x00000000100250aa      0x1a2 ..\..\platform\libs\libbtstack.a(lc.o)
                0x00000000100250aa                lc_con_cmp
 .text.lc_rem_feats_cmp_evt_send
                0x000000001002524c       0x7c ..\..\platform\libs\libbtstack.a(lc.o)
                0x000000001002524c                lc_rem_feats_cmp_evt_send
 .text.lc_rem_ext_feats_cmp_evt_send
                0x00000000100252c8       0x8c ..\..\platform\libs\libbtstack.a(lc.o)
                0x00000000100252c8                lc_rem_ext_feats_cmp_evt_send
 .text.lc_clock_off_cmp_evt_send
                0x0000000010025354       0x6e ..\..\platform\libs\libbtstack.a(lc.o)
                0x0000000010025354                lc_clock_off_cmp_evt_send
 .text.lc_sp_cmp_evt_send
                0x00000000100253c2       0x64 ..\..\platform\libs\libbtstack.a(lc.o)
                0x00000000100253c2                lc_sp_cmp_evt_send
 .text.lc_mode_chg_evt_send
                0x0000000010025426       0x72 ..\..\platform\libs\libbtstack.a(lc.o)
                0x0000000010025426                lc_mode_chg_evt_send
 .text.lc_discon_event_complete_send
                0x0000000010025498       0x4c ..\..\platform\libs\libbtstack.a(lc.o)
                0x0000000010025498                lc_discon_event_complete_send
 .text.lc_locepr_rsw
                0x00000000100254e4       0xa4 ..\..\platform\libs\libbtstack.a(lc.o)
                0x00000000100254e4                lc_locepr_rsw
 .text.lc_locepr_lkref
                0x0000000010025588       0xa0 ..\..\platform\libs\libbtstack.a(lc.o)
                0x0000000010025588                lc_locepr_lkref
 .text.lc_enc_key_refresh
                0x0000000010025628      0x118 ..\..\platform\libs\libbtstack.a(lc.o)
                0x0000000010025628                lc_enc_key_refresh
 .text.lc_flow_stop_before_sniff_trans
                0x0000000010025740       0x3c ..\..\platform\libs\libbtstack.a(lc.o)
                0x0000000010025740                lc_flow_stop_before_sniff_trans
 .text.lc_free_tx_acl_buf
                0x000000001002577c       0x3a ..\..\platform\libs\libbtstack.a(lc.o)
                0x000000001002577c                lc_free_tx_acl_buf
 .text.lc_get_free_tid
                0x00000000100257b6       0x30 ..\..\platform\libs\libbtstack.a(lc.o)
                0x00000000100257b6                lc_get_free_tid
 .text.lc_initiator_epr
                0x00000000100257e6       0x58 ..\..\platform\libs\libbtstack.a(lc.o)
                0x00000000100257e6                lc_initiator_epr
 .text.lc_epr_resp
                0x000000001002583e       0x98 ..\..\platform\libs\libbtstack.a(lc.o)
                0x000000001002583e                lc_epr_resp
 .text.lc_free_link
                0x00000000100258d6      0x16a ..\..\platform\libs\libbtstack.a(lc.o)
                0x00000000100258d6                lc_free_link
 .text.lc_local_switch
                0x0000000010025a40       0x3c ..\..\platform\libs\libbtstack.a(lc.o)
                0x0000000010025a40                lc_local_switch
 .text.lc_max_slot_mgt
                0x0000000010025a7c      0x182 ..\..\platform\libs\libbtstack.a(lc.o)
                0x0000000010025a7c                lc_max_slot_mgt
 .text.lc_ptt   0x0000000010025bfe      0x10a ..\..\platform\libs\libbtstack.a(lc.o)
                0x0000000010025bfe                lc_ptt
 .text.lc_ptt_cmp
                0x0000000010025d08       0x6e ..\..\platform\libs\libbtstack.a(lc.o)
                0x0000000010025d08                lc_ptt_cmp
 .text.lc_restore_afh_reporting
                0x0000000010025d76       0x54 ..\..\platform\libs\libbtstack.a(lc.o)
                0x0000000010025d76                lc_restore_afh_reporting
 .text.lc_rem_switch
                0x0000000010025dca       0x3c ..\..\platform\libs\libbtstack.a(lc.o)
                0x0000000010025dca                lc_rem_switch
 .text.lc_rem_enc
                0x0000000010025e06       0x46 ..\..\platform\libs\libbtstack.a(lc.o)
                0x0000000010025e06                lc_rem_enc
 .text.lc_resp_auth
                0x0000000010025e4c      0x140 ..\..\platform\libs\libbtstack.a(lc.o)
                0x0000000010025e4c                lc_resp_auth
 .text.lc_free  0x0000000010025f8c      0x122 ..\..\platform\libs\libbtstack.a(lc.o)
                0x0000000010025f8c                lc_free
 .text.lc_get_curr_mode
                0x00000000100260ae       0x24 ..\..\platform\libs\libbtstack.a(lc.o)
                0x00000000100260ae                lc_get_curr_mode
 .text.lc_get_conn_feature
                0x00000000100260d2       0x9a ..\..\platform\libs\libbtstack.a(lc.o)
                0x00000000100260d2                lc_get_conn_feature
 .text.lc_get_nego_feat
                0x000000001002616c       0x28 ..\..\platform\libs\libbtstack.a(lc.o)
                0x000000001002616c                lc_get_nego_feat
 .text.lc_restore_to
                0x0000000010026194       0x60 ..\..\platform\libs\libbtstack.a(lc.o)
                0x0000000010026194                lc_restore_to
 .text.lc_rx_pref_rate
                0x00000000100261f4       0x4e ..\..\platform\libs\libbtstack.a(lc.o)
                0x00000000100261f4                lc_rx_pref_rate
 .text.lc_start
                0x0000000010026242       0xfc ..\..\platform\libs\libbtstack.a(lc.o)
                0x0000000010026242                lc_start
 .text.lc_stop  0x000000001002633e       0x38 ..\..\platform\libs\libbtstack.a(lc.o)
                0x000000001002633e                lc_stop
 .text.lc_start_lmp_to
                0x0000000010026376       0x52 ..\..\platform\libs\libbtstack.a(lc.o)
                0x0000000010026376                lc_start_lmp_to
 .text.lc_afh_switch_on
                0x00000000100263c8       0x80 ..\..\platform\libs\libbtstack.a(lc.o)
                0x00000000100263c8                lc_afh_switch_on
 .text.lc_comb_key_svr
                0x0000000010026448      0x1c8 ..\..\platform\libs\libbtstack.a(lc.o)
                0x0000000010026448                lc_comb_key_svr
 .text.lc_enter_sniff_mode
                0x0000000010026610       0xf0 ..\..\platform\libs\libbtstack.a(lc.o)
                0x0000000010026610                lc_enter_sniff_mode
 .text.lc_init_start_mutual_auth
                0x0000000010026700       0x5e ..\..\platform\libs\libbtstack.a(lc.o)
                0x0000000010026700                lc_init_start_mutual_auth
 .text.lc_mst_send_mst_key
                0x000000001002675e      0x176 ..\..\platform\libs\libbtstack.a(lc.o)
                0x000000001002675e                lc_mst_send_mst_key
 .text.lc_local_untrans_mode
                0x00000000100268d4       0x52 ..\..\platform\libs\libbtstack.a(lc.o)
                0x00000000100268d4                lc_local_untrans_mode
 .text.lc_pairing_cont
                0x0000000010026926      0x18a ..\..\platform\libs\libbtstack.a(lc.o)
                0x0000000010026926                lc_pairing_cont
 .text.lc_legacy_pair
                0x0000000010026ab0       0x88 ..\..\platform\libs\libbtstack.a(lc.o)
                0x0000000010026ab0                lc_legacy_pair
 .text.lc_rd_rem_name
                0x0000000010026b38       0x76 ..\..\platform\libs\libbtstack.a(lc.o)
                0x0000000010026b38                lc_rd_rem_name
 .text.lc_resp_oob_wait_nonce
                0x0000000010026bae       0x22 ..\..\platform\libs\libbtstack.a(lc.o)
                0x0000000010026bae                lc_resp_oob_wait_nonce
 .text.lc_start_enc
                0x0000000010026bd0      0x180 ..\..\platform\libs\libbtstack.a(lc.o)
                0x0000000010026bd0                lc_start_enc
 .text.lc_epr_rsw_cmp
                0x0000000010026d50       0x8a ..\..\platform\libs\libbtstack.a(lc.o)
                0x0000000010026d50                lc_epr_rsw_cmp
 .text.lc_start_enc_key_size
                0x0000000010026dda       0x94 ..\..\platform\libs\libbtstack.a(lc.o)
                0x0000000010026dda                lc_start_enc_key_size
 .text.lc_start_key_exch
                0x0000000010026e6e       0xdc ..\..\platform\libs\libbtstack.a(lc.o)
                0x0000000010026e6e                lc_start_key_exch
 .text.lc_stop_enc
                0x0000000010026f4a       0xa6 ..\..\platform\libs\libbtstack.a(lc.o)
                0x0000000010026f4a                lc_stop_enc
 .text.lc_stop_afh_report
                0x0000000010026ff0       0x3e ..\..\platform\libs\libbtstack.a(lc.o)
                0x0000000010026ff0                lc_stop_afh_report
 .text.lc_skip_hl_oob_req
                0x000000001002702e       0x70 ..\..\platform\libs\libbtstack.a(lc.o)
                0x000000001002702e                lc_skip_hl_oob_req
 .text.lc_start_oob
                0x000000001002709e       0x2c ..\..\platform\libs\libbtstack.a(lc.o)
                0x000000001002709e                lc_start_oob
 .text.lc_send_enc_mode
                0x00000000100270ca       0x4e ..\..\platform\libs\libbtstack.a(lc.o)
                0x00000000100270ca                lc_send_enc_mode
 .text.lc_restart_enc
                0x0000000010027118       0x54 ..\..\platform\libs\libbtstack.a(lc.o)
                0x0000000010027118                lc_restart_enc
 .text.lc_restart_enc_cont
                0x000000001002716c       0x7e ..\..\platform\libs\libbtstack.a(lc.o)
                0x000000001002716c                lc_restart_enc_cont
 .text.lc_send_detach
                0x00000000100271ea       0x40 ..\..\platform\libs\libbtstack.a(lc.o)
                0x00000000100271ea                lc_send_detach
 .text.lc_chg_pkt_type_retry
                0x000000001002722a      0x152 ..\..\platform\libs\libbtstack.a(lc.o)
                0x000000001002722a                lc_chg_pkt_type_retry
 .text.lc_rem_name_cont
                0x000000001002737c       0xa4 ..\..\platform\libs\libbtstack.a(lc.o)
                0x000000001002737c                lc_rem_name_cont
 .text.lc_semi_key_cmp
                0x0000000010027420      0x10a ..\..\platform\libs\libbtstack.a(lc.o)
                0x0000000010027420                lc_semi_key_cmp
 .text.lc_mst_key
                0x000000001002752a      0x160 ..\..\platform\libs\libbtstack.a(lc.o)
                0x000000001002752a                lc_mst_key
 .text.lc_upd_to
                0x000000001002768a       0x9a ..\..\platform\libs\libbtstack.a(lc.o)
                0x000000001002768a                lc_upd_to
 .text.lc_ret_sniff_max_slot_chg
                0x0000000010027724       0x92 ..\..\platform\libs\libbtstack.a(lc.o)
                0x0000000010027724                lc_ret_sniff_max_slot_chg
 .text.lc_sniff_max_slot_chg
                0x00000000100277b6       0xd6 ..\..\platform\libs\libbtstack.a(lc.o)
                0x00000000100277b6                lc_sniff_max_slot_chg
 .text.lc_local_trans_mode
                0x000000001002788c       0x88 ..\..\platform\libs\libbtstack.a(lc.o)
                0x000000001002788c                lc_local_trans_mode
 .text.lc_unit_key_svr
                0x0000000010027914      0x13e ..\..\platform\libs\libbtstack.a(lc.o)
                0x0000000010027914                lc_unit_key_svr
 .text.lc_link_supp
                0x0000000010027a52       0x44 ..\..\platform\libs\libbtstack.a(lc.o)
                0x0000000010027a52                lc_link_supp
 .text.lc_hl_rem_ext
                0x0000000010027a96       0x76 ..\..\platform\libs\libbtstack.a(lc.o)
                0x0000000010027a96                lc_hl_rem_ext
 .text.lc_rem_unsniff
                0x0000000010027b0c       0x86 ..\..\platform\libs\libbtstack.a(lc.o)
                0x0000000010027b0c                lc_rem_unsniff
 .text.lc_feat  0x0000000010027b92       0xa6 ..\..\platform\libs\libbtstack.a(lc.o)
                0x0000000010027b92                lc_feat
 .text.lc_hl_connect
                0x0000000010027c38       0x70 ..\..\platform\libs\libbtstack.a(lc.o)
                0x0000000010027c38                lc_hl_connect
 .text.lc_version
                0x0000000010027ca8       0x40 ..\..\platform\libs\libbtstack.a(lc.o)
                0x0000000010027ca8                lc_version
 .text.lc_vd_nego
                0x0000000010027ce8       0xc8 ..\..\platform\libs\libbtstack.a(lc.o)
                0x0000000010027ce8                lc_vd_nego
 .text.lc_vd_info
                0x0000000010027db0       0x68 ..\..\platform\libs\libbtstack.a(lc.o)
                0x0000000010027db0                lc_vd_info
 .text.lc_vd_msg
                0x0000000010027e18       0x32 ..\..\platform\libs\libbtstack.a(lc.o)
                0x0000000010027e18                lc_vd_msg
 .text.lc_send_vd_msg
                0x0000000010027e4a       0x82 ..\..\platform\libs\libbtstack.a(lc.o)
                0x0000000010027e4a                lc_send_vd_msg
 .text.lc_set_ticks
                0x0000000010027ecc       0x10 ..\..\platform\libs\libbtstack.a(lc.o)
                0x0000000010027ecc                lc_set_ticks
 .text.lc_loc_sniff
                0x0000000010027edc       0x92 ..\..\platform\libs\libbtstack.a(lc.o)
                0x0000000010027edc                lc_loc_sniff
 .text.lc_unsniff
                0x0000000010027f6e       0x62 ..\..\platform\libs\libbtstack.a(lc.o)
                0x0000000010027f6e                lc_unsniff
 .text.lc_clock_off
                0x0000000010027fd0       0x92 ..\..\platform\libs\libbtstack.a(lc.o)
                0x0000000010027fd0                lc_clock_off
 .text.lc_test_cntl
                0x0000000010028062       0x3e ..\..\platform\libs\libbtstack.a(lc.o)
                0x0000000010028062                lc_test_cntl
 .text.lc_ext_feat
                0x00000000100280a0       0x9e ..\..\platform\libs\libbtstack.a(lc.o)
                0x00000000100280a0                lc_ext_feat
 .text.lc_loc_auth
                0x000000001002813e      0x134 ..\..\platform\libs\libbtstack.a(lc.o)
                0x000000001002813e                lc_loc_auth
 .text.lc_packet_type
                0x0000000010028272       0xc4 ..\..\platform\libs\libbtstack.a(lc.o)
                0x0000000010028272                lc_packet_type
 .text.lc_sniff_slot_unchange
                0x0000000010028336      0x162 ..\..\platform\libs\libbtstack.a(lc.o)
                0x0000000010028336                lc_sniff_slot_unchange
 .text.lc_end_of_sniff_nego
                0x0000000010028498       0xda ..\..\platform\libs\libbtstack.a(lc.o)
                0x0000000010028498                lc_end_of_sniff_nego
 .text.lc_rem_trans_mode
                0x0000000010028572       0x70 ..\..\platform\libs\libbtstack.a(lc.o)
                0x0000000010028572                lc_rem_trans_mode
 .text.lc_rem_sniff
                0x00000000100285e2      0x110 ..\..\platform\libs\libbtstack.a(lc.o)
                0x00000000100285e2                lc_rem_sniff
 .text.lc_rem_nego_trans_mode
                0x00000000100286f2       0xca ..\..\platform\libs\libbtstack.a(lc.o)
                0x00000000100286f2                lc_rem_nego_trans_mode
 .text.lc_unsniff_cont
                0x00000000100287bc       0x66 ..\..\platform\libs\libbtstack.a(lc.o)
                0x00000000100287bc                lc_unsniff_cont
 .text.lc_rem_untrans_mode
                0x0000000010028822       0x72 ..\..\platform\libs\libbtstack.a(lc.o)
                0x0000000010028822                lc_rem_untrans_mode
 .text.lc_conn_seq_done
                0x0000000010028894       0x20 ..\..\platform\libs\libbtstack.a(lc.o)
                0x0000000010028894                lc_conn_seq_done
 .text.lc_rsw_clean_up
                0x00000000100288b4      0x114 ..\..\platform\libs\libbtstack.a(lc.o)
                0x00000000100288b4                lc_rsw_clean_up
 .text.lc_rsw_done
                0x00000000100289c8      0x11a ..\..\platform\libs\libbtstack.a(lc.o)
                0x00000000100289c8                lc_rsw_done
 .text.lc_switch_cmp
                0x0000000010028ae2       0x3a ..\..\platform\libs\libbtstack.a(lc.o)
                0x0000000010028ae2                lc_switch_cmp
 .text.lc_bcst_sync_ind
                0x0000000010028b1c       0x58 ..\..\platform\libs\libbtstack.a(lc.o)
                0x0000000010028b1c                lc_bcst_sync_ind
 .text.lc_max_slot_sync_ind
                0x0000000010028b74       0x5e ..\..\platform\libs\libbtstack.a(lc.o)
                0x0000000010028b74                lc_max_slot_sync_ind
 .text.lc_send_enc_evt
                0x0000000010028bd2       0x4c ..\..\platform\libs\libbtstack.a(lc.o)
                0x0000000010028bd2                lc_send_enc_evt
 .text.lc_auth_cmp
                0x0000000010028c1e      0x190 ..\..\platform\libs\libbtstack.a(lc.o)
                0x0000000010028c1e                lc_auth_cmp
 .text.lc_end_chk_colli
                0x0000000010028dae       0xa2 ..\..\platform\libs\libbtstack.a(lc.o)
                0x0000000010028dae                lc_end_chk_colli
 .text.lc_enc_cmp
                0x0000000010028e50      0x13c ..\..\platform\libs\libbtstack.a(lc.o)
                0x0000000010028e50                lc_enc_cmp
 .text.lc_mutual_auth_end2
                0x0000000010028f8c      0x1f0 ..\..\platform\libs\libbtstack.a(lc.o)
                0x0000000010028f8c                lc_mutual_auth_end2
 .text.lc_epr_change_lk
                0x000000001002917c       0x7a ..\..\platform\libs\libbtstack.a(lc.o)
                0x000000001002917c                lc_epr_change_lk
 .text.lc_epr_cmp
                0x00000000100291f6       0xec ..\..\platform\libs\libbtstack.a(lc.o)
                0x00000000100291f6                lc_epr_cmp
 .text.lc_mutual_auth_end
                0x00000000100292e2      0x10c ..\..\platform\libs\libbtstack.a(lc.o)
                0x00000000100292e2                lc_mutual_auth_end
 .text.lc_key_exch_end
                0x00000000100293ee      0x104 ..\..\platform\libs\libbtstack.a(lc.o)
                0x00000000100293ee                lc_key_exch_end
 .text.lc_sp_fail
                0x00000000100294f2       0x64 ..\..\platform\libs\libbtstack.a(lc.o)
                0x00000000100294f2                lc_sp_fail
 .text.lc_calc_link_key
                0x0000000010029556       0xfe ..\..\platform\libs\libbtstack.a(lc.o)
                0x0000000010029556                lc_calc_link_key
 .text.lc_init_calc_f3
                0x0000000010029654       0x9c ..\..\platform\libs\libbtstack.a(lc.o)
                0x0000000010029654                lc_init_calc_f3
 .text.lc_dhkey
                0x00000000100296f0       0x52 ..\..\platform\libs\libbtstack.a(lc.o)
                0x00000000100296f0                lc_dhkey
 .text.lc_init_passkey_loop
                0x0000000010029742       0x9e ..\..\platform\libs\libbtstack.a(lc.o)
                0x0000000010029742                lc_init_passkey_loop
 .text.lc_passkey_comm
                0x00000000100297e0       0xc8 ..\..\platform\libs\libbtstack.a(lc.o)
                0x00000000100297e0                lc_passkey_comm
 .text.lc_resp_calc_f3
                0x00000000100298a8      0x14e ..\..\platform\libs\libbtstack.a(lc.o)
                0x00000000100298a8                lc_resp_calc_f3
 .text.lc_resp_wait_dhkey_cont
                0x00000000100299f6       0x2e ..\..\platform\libs\libbtstack.a(lc.o)
                0x00000000100299f6                lc_resp_wait_dhkey_cont
 .text.lc_proc_rcv_dhkey
                0x0000000010029a24       0x42 ..\..\platform\libs\libbtstack.a(lc.o)
                0x0000000010029a24                lc_proc_rcv_dhkey
 .text.lc_start_passkey_loop
                0x0000000010029a66       0x92 ..\..\platform\libs\libbtstack.a(lc.o)
                0x0000000010029a66                lc_start_passkey_loop
 .text.lc_start_passkey
                0x0000000010029af8       0xe8 ..\..\platform\libs\libbtstack.a(lc.o)
                0x0000000010029af8                lc_start_passkey
 .text.lc_sp_oob_tid_fail
                0x0000000010029be0       0x34 ..\..\platform\libs\libbtstack.a(lc.o)
                0x0000000010029be0                lc_sp_oob_tid_fail
 .text.lc_resp_oob_nonce
                0x0000000010029c14       0x98 ..\..\platform\libs\libbtstack.a(lc.o)
                0x0000000010029c14                lc_resp_oob_nonce
 .text.lc_resp_pair
                0x0000000010029cac       0xe4 ..\..\platform\libs\libbtstack.a(lc.o)
                0x0000000010029cac                lc_resp_pair
 .text.lc_pair  0x0000000010029d90       0xe0 ..\..\platform\libs\libbtstack.a(lc.o)
                0x0000000010029d90                lc_pair
 .text.lc_sp_to
                0x0000000010029e70       0x50 ..\..\platform\libs\libbtstack.a(lc.o)
                0x0000000010029e70                lc_sp_to
 *fill*         0x0000000010029ec0      0x140 
 .text.lc_acl_init_fifo
                0x000000001002a000      0x1fe ..\..\platform\libs\libbtstack.a(lc_acl.o)
                0x000000001002a000                lc_acl_init_fifo
 *fill*         0x000000001002a1fe        0x2 
 .text.lc_acl_disconnect_ltaddr
                0x000000001002a200       0x7e ..\..\platform\libs\libbtstack.a(lc_acl.o)
                0x000000001002a200                lc_acl_disconnect_ltaddr
 *fill*         0x000000001002a27e      0x182 
 .text.lc_acl_flush_all
                0x000000001002a400      0x200 ..\..\platform\libs\libbtstack.a(lc_acl.o)
                0x000000001002a400                lc_acl_flush_all
 *fill*         0x000000001002a600        0x0 
 .text.lc_acl_flow_control
                0x000000001002a600       0xfc ..\..\platform\libs\libbtstack.a(lc_acl.o)
                0x000000001002a600                lc_acl_flow_control
 .text.lc_acl_flow_check
                0x000000001002a6fc       0x12 ..\..\platform\libs\libbtstack.a(lc_acl.o)
                0x000000001002a6fc                lc_acl_flow_check
 *fill*         0x000000001002a70e       0xf2 
 .text.lc_acl_lmp_tx
                0x000000001002a800      0x200 ..\..\platform\libs\libbtstack.a(lc_acl.o)
                0x000000001002a800                lc_acl_lmp_tx
 *fill*         0x000000001002aa00        0x0 
 .text.lc_acl_set_packet_type_table
                0x000000001002aa00       0x7a ..\..\platform\libs\libbtstack.a(lc_acl.o)
                0x000000001002aa00                lc_acl_set_packet_type_table
 *fill*         0x000000001002aa7a        0x6 
 .text.lc_acl_set_tx_packet_type_do
                0x000000001002aa80       0x80 ..\..\platform\libs\libbtstack.a(lc_acl.o)
                0x000000001002aa80                lc_acl_set_tx_packet_type_do
 .text.lc_ack_set_tx_packet_type
                0x000000001002ab00       0x80 ..\..\platform\libs\libbtstack.a(lc_acl.o)
                0x000000001002ab00                lc_ack_set_tx_packet_type
 .text.lc_acl_get_link_sup_timeout
                0x000000001002ab80       0x12 ..\..\platform\libs\libbtstack.a(lc_acl.o)
                0x000000001002ab80                lc_acl_get_link_sup_timeout
 .text.lc_acl_set_link_sup_timeout
                0x000000001002ab92       0x18 ..\..\platform\libs\libbtstack.a(lc_acl.o)
                0x000000001002ab92                lc_acl_set_link_sup_timeout
 .text.lc_acl_poll_int_update
                0x000000001002abaa        0x2 ..\..\platform\libs\libbtstack.a(lc_acl.o)
                0x000000001002abaa                lc_acl_poll_int_update
 .text.lc_acl_get_poll_intervall
                0x000000001002abac       0x1c ..\..\platform\libs\libbtstack.a(lc_acl.o)
                0x000000001002abac                lc_acl_get_poll_intervall
 .text.lc_afh_compute_freq_tab
                0x000000001002abc8       0xa6 ..\..\platform\libs\libbtstack.a(lc_afh.o)
 .text.lc_afh_init
                0x000000001002ac6e      0x178 ..\..\platform\libs\libbtstack.a(lc_afh.o)
                0x000000001002ac6e                lc_afh_init
 *fill*         0x000000001002ade6       0x1a 
 .text.lc_afh_set
                0x000000001002ae00       0x80 ..\..\platform\libs\libbtstack.a(lc_afh.o)
                0x000000001002ae00                lc_afh_set
 .text.lc_afh_compute_piconet_switch_instant
                0x000000001002ae80       0xae ..\..\platform\libs\libbtstack.a(lc_afh.o)
                0x000000001002ae80                lc_afh_compute_piconet_switch_instant
 .text.lc_afh_set_chnl_classif
                0x000000001002af2e       0x3e ..\..\platform\libs\libbtstack.a(lc_afh.o)
                0x000000001002af2e                lc_afh_set_chnl_classif
 .text.lc_afh_get_chnl_classif
                0x000000001002af6c       0x40 ..\..\platform\libs\libbtstack.a(lc_afh.o)
                0x000000001002af6c                lc_afh_get_chnl_classif
 .text.lc_afh_alloc_chnl_map
                0x000000001002afac       0x68 ..\..\platform\libs\libbtstack.a(lc_afh.o)
                0x000000001002afac                lc_afh_alloc_chnl_map
 .text.lc_afh_compute_afh_freq_tab
                0x000000001002b014       0x72 ..\..\platform\libs\libbtstack.a(lc_afh.o)
                0x000000001002b014                lc_afh_compute_afh_freq_tab
 .text.lc_afh_compute_piconet_tab
                0x000000001002b086      0x3c6 ..\..\platform\libs\libbtstack.a(lc_afh.o)
                0x000000001002b086                lc_afh_compute_piconet_tab
 .text.lc_afh_get_chnl_map
                0x000000001002b44c       0x60 ..\..\platform\libs\libbtstack.a(lc_afh.o)
                0x000000001002b44c                lc_afh_get_chnl_map
 .text.lc_afh_chnl_reassess
                0x000000001002b4ac       0xbc ..\..\platform\libs\libbtstack.a(lc_afh.o)
                0x000000001002b4ac                lc_afh_chnl_reassess
 .text.lc_afh_needed
                0x000000001002b568       0x26 ..\..\platform\libs\libbtstack.a(lc_afh.o)
                0x000000001002b568                lc_afh_needed
 .text.lc_afh_set_classif_intv
                0x000000001002b58e        0x4 ..\..\platform\libs\libbtstack.a(lc_afh.o)
                0x000000001002b58e                lc_afh_set_classif_intv
 .text.lc_afh_get_classif_intv
                0x000000001002b592       0x18 ..\..\platform\libs\libbtstack.a(lc_afh.o)
                0x000000001002b592                lc_afh_get_classif_intv
 .text.lc_afh_get_assess_intv
                0x000000001002b5aa        0x8 ..\..\platform\libs\libbtstack.a(lc_afh.o)
                0x000000001002b5aa                lc_afh_get_assess_intv
 .text.lc_afh_get_reassess_cnt
                0x000000001002b5b2       0x16 ..\..\platform\libs\libbtstack.a(lc_afh.o)
                0x000000001002b5b2                lc_afh_get_reassess_cnt
 .text.lc_init_cqddr
                0x000000001002b5c8        0x2 ..\..\platform\libs\libbtstack.a(lc_cqddr.o)
                0x000000001002b5c8                lc_init_cqddr
 .text.lc_set_pref_rate
                0x000000001002b5ca        0x2 ..\..\platform\libs\libbtstack.a(lc_cqddr.o)
                0x000000001002b5ca                lc_set_pref_rate
 .text.lc_send_lmp
                0x000000001002b5cc       0xda ..\..\platform\libs\libbtstack.a(lc_lmppdu.o)
                0x000000001002b5cc                lc_send_lmp
 .text.lc_forward_lmp
                0x000000001002b6a6       0x74 ..\..\platform\libs\libbtstack.a(lc_lmppdu.o)
                0x000000001002b6a6                lc_forward_lmp
 .text.lc_send_pdu_acc
                0x000000001002b71a       0x5a ..\..\platform\libs\libbtstack.a(lc_lmppdu.o)
                0x000000001002b71a                lc_send_pdu_acc
 .text.lc_send_pdu_acc_ext4
                0x000000001002b774       0x60 ..\..\platform\libs\libbtstack.a(lc_lmppdu.o)
                0x000000001002b774                lc_send_pdu_acc_ext4
 .text.lc_send_pdu_not_acc
                0x000000001002b7d4       0x64 ..\..\platform\libs\libbtstack.a(lc_lmppdu.o)
                0x000000001002b7d4                lc_send_pdu_not_acc
 .text.lc_send_pdu_not_acc_ext4
                0x000000001002b838       0x6c ..\..\platform\libs\libbtstack.a(lc_lmppdu.o)
                0x000000001002b838                lc_send_pdu_not_acc_ext4
 .text.lc_send_pdu_set_afh
                0x000000001002b8a4       0x98 ..\..\platform\libs\libbtstack.a(lc_lmppdu.o)
                0x000000001002b8a4                lc_send_pdu_set_afh
 .text.lc_send_pdu_au_rand
                0x000000001002b93c       0x6c ..\..\platform\libs\libbtstack.a(lc_lmppdu.o)
                0x000000001002b93c                lc_send_pdu_au_rand
 .text.lc_send_pdu_in_rand
                0x000000001002b9a8       0x6c ..\..\platform\libs\libbtstack.a(lc_lmppdu.o)
                0x000000001002b9a8                lc_send_pdu_in_rand
 .text.lc_send_pdu_comb_key
                0x000000001002ba14       0x6c ..\..\platform\libs\libbtstack.a(lc_lmppdu.o)
                0x000000001002ba14                lc_send_pdu_comb_key
 .text.lc_send_pdu_unit_key
                0x000000001002ba80       0x6c ..\..\platform\libs\libbtstack.a(lc_lmppdu.o)
                0x000000001002ba80                lc_send_pdu_unit_key
 .text.lc_send_pdu_max_slot
                0x000000001002baec       0x5a ..\..\platform\libs\libbtstack.a(lc_lmppdu.o)
                0x000000001002baec                lc_send_pdu_max_slot
 .text.lc_send_pdu_max_slot_req
                0x000000001002bb46       0x5a ..\..\platform\libs\libbtstack.a(lc_lmppdu.o)
                0x000000001002bb46                lc_send_pdu_max_slot_req
 .text.lc_send_pdu_encaps_payl
                0x000000001002bba0       0x6c ..\..\platform\libs\libbtstack.a(lc_lmppdu.o)
                0x000000001002bba0                lc_send_pdu_encaps_payl
 .text.lc_send_pdu_encaps_head
                0x000000001002bc0c       0x60 ..\..\platform\libs\libbtstack.a(lc_lmppdu.o)
                0x000000001002bc0c                lc_send_pdu_encaps_head
 .text.lc_send_pdu_ptt_req
                0x000000001002bc6c       0x5a ..\..\platform\libs\libbtstack.a(lc_lmppdu.o)
                0x000000001002bc6c                lc_send_pdu_ptt_req
 .text.lc_send_pdu_sp_nb
                0x000000001002bcc6       0x6c ..\..\platform\libs\libbtstack.a(lc_lmppdu.o)
                0x000000001002bcc6                lc_send_pdu_sp_nb
 .text.lc_send_pdu_sp_cfm
                0x000000001002bd32       0x6c ..\..\platform\libs\libbtstack.a(lc_lmppdu.o)
                0x000000001002bd32                lc_send_pdu_sp_cfm
 .text.lc_send_pdu_sres
                0x000000001002bd9e       0x6c ..\..\platform\libs\libbtstack.a(lc_lmppdu.o)
                0x000000001002bd9e                lc_send_pdu_sres
 .text.lc_send_pdu_sco_lk_rem_req
                0x000000001002be0a       0x64 ..\..\platform\libs\libbtstack.a(lc_lmppdu.o)
                0x000000001002be0a                lc_send_pdu_sco_lk_rem_req
 .text.lc_send_pdu_esco_lk_rem_req
                0x000000001002be6e       0x62 ..\..\platform\libs\libbtstack.a(lc_lmppdu.o)
                0x000000001002be6e                lc_send_pdu_esco_lk_rem_req
 .text.lc_send_pdu_auto_rate
                0x000000001002bed0       0x50 ..\..\platform\libs\libbtstack.a(lc_lmppdu.o)
                0x000000001002bed0                lc_send_pdu_auto_rate
 .text.lc_send_pdu_sniff_req
                0x000000001002bf20       0xa4 ..\..\platform\libs\libbtstack.a(lc_lmppdu.o)
                0x000000001002bf20                lc_send_pdu_sniff_req
 .text.lc_send_pdu_lsto
                0x000000001002bfc4       0x60 ..\..\platform\libs\libbtstack.a(lc_lmppdu.o)
                0x000000001002bfc4                lc_send_pdu_lsto
 .text.lc_send_pdu_enc_key_sz_req
                0x000000001002c024       0x5a ..\..\platform\libs\libbtstack.a(lc_lmppdu.o)
                0x000000001002c024                lc_send_pdu_enc_key_sz_req
 .text.lc_send_pdu_feats_res
                0x000000001002c07e       0x5e ..\..\platform\libs\libbtstack.a(lc_lmppdu.o)
                0x000000001002c07e                lc_send_pdu_feats_res
 .text.lc_send_pdu_tim_acc
                0x000000001002c0dc       0x50 ..\..\platform\libs\libbtstack.a(lc_lmppdu.o)
                0x000000001002c0dc                lc_send_pdu_tim_acc
 .text.lc_send_pdu_feats_ext_req
                0x000000001002c12c       0x7e ..\..\platform\libs\libbtstack.a(lc_lmppdu.o)
                0x000000001002c12c                lc_send_pdu_feats_ext_req
 .text.lc_send_pdu_io_cap_res
                0x000000001002c1aa       0x66 ..\..\platform\libs\libbtstack.a(lc_lmppdu.o)
                0x000000001002c1aa                lc_send_pdu_io_cap_res
 .text.lc_send_pdu_num_comp_fail
                0x000000001002c210       0x50 ..\..\platform\libs\libbtstack.a(lc_lmppdu.o)
                0x000000001002c210                lc_send_pdu_num_comp_fail
 .text.lc_send_pdu_paus_enc_req
                0x000000001002c260       0x50 ..\..\platform\libs\libbtstack.a(lc_lmppdu.o)
                0x000000001002c260                lc_send_pdu_paus_enc_req
 .text.lc_send_pdu_resu_enc_req
                0x000000001002c2b0       0x50 ..\..\platform\libs\libbtstack.a(lc_lmppdu.o)
                0x000000001002c2b0                lc_send_pdu_resu_enc_req
 .text.lc_send_pdu_setup_cmp
                0x000000001002c300       0x50 ..\..\platform\libs\libbtstack.a(lc_lmppdu.o)
                0x000000001002c300                lc_send_pdu_setup_cmp
 .text.lc_send_pdu_slot_off
                0x000000001002c350       0x80 ..\..\platform\libs\libbtstack.a(lc_lmppdu.o)
                0x000000001002c350                lc_send_pdu_slot_off
 .text.lc_send_pdu_unsniff_req
                0x000000001002c3d0       0x50 ..\..\platform\libs\libbtstack.a(lc_lmppdu.o)
                0x000000001002c3d0                lc_send_pdu_unsniff_req
 .text.lc_send_pdu_vers_req
                0x000000001002c420       0x6e ..\..\platform\libs\libbtstack.a(lc_lmppdu.o)
                0x000000001002c420                lc_send_pdu_vers_req
 .text.lc_send_pdu_dhkey_chk
                0x000000001002c48e       0x6e ..\..\platform\libs\libbtstack.a(lc_lmppdu.o)
                0x000000001002c48e                lc_send_pdu_dhkey_chk
 .text.lc_send_pdu_vd_ctrl_req
                0x000000001002c4fc       0xbc ..\..\platform\libs\libbtstack.a(lc_lmppdu.o)
                0x000000001002c4fc                lc_send_pdu_vd_ctrl_req
 .text.lc_role_disc_cmd_handler
                0x000000001002c5b8       0x6e ..\..\platform\libs\libbtstack.a(lc_proc.o)
 .text.lc_start_page_scan_req_handler
                0x000000001002c626       0x48 ..\..\platform\libs\libbtstack.a(lc_proc.o)
 .text.lc_auto_repk_pvt_to_handler
                0x000000001002c66e        0x4 ..\..\platform\libs\libbtstack.a(lc_proc.o)
 .text.lc_lmp_setup_cmp_handler
                0x000000001002c672       0x38 ..\..\platform\libs\libbtstack.a(lc_proc.o)
 .text.lc_lmp_slot_off_handler
                0x000000001002c6aa       0x38 ..\..\platform\libs\libbtstack.a(lc_proc.o)
 .text.lc_rem_con_req_handler
                0x000000001002c6e2       0x7c ..\..\platform\libs\libbtstack.a(lc_proc.o)
 .text.lc_sp_auth_stg1_randn_handler
                0x000000001002c75e       0xc4 ..\..\platform\libs\libbtstack.a(lc_proc.o)
 .text.lc_lmp_feats_update
                0x000000001002c822       0x54 ..\..\platform\libs\libbtstack.a(lc_proc.o)
 .text.lc_lmp_rate_auto_handler
                0x000000001002c876       0x40 ..\..\platform\libs\libbtstack.a(lc_proc.o)
 .text.lc_tst_disc_to_handler
                0x000000001002c8b6       0x50 ..\..\platform\libs\libbtstack.a(lc_proc.o)
 .text.lc_lmp_vers_req_handler
                0x000000001002c906       0xa6 ..\..\platform\libs\libbtstack.a(lc_proc.o)
 .text.lc_op_pwr_ctrl_to_handler
                0x000000001002c9ac      0x192 ..\..\platform\libs\libbtstack.a(lc_proc.o)
 .text.lc_lmp_pwr_min_handler
                0x000000001002cb3e       0x32 ..\..\platform\libs\libbtstack.a(lc_proc.o)
 .text.lc_lmp_pwr_max_handler
                0x000000001002cb70       0x32 ..\..\platform\libs\libbtstack.a(lc_proc.o)
 .text.lc_op_vd_msg_ind_handler
                0x000000001002cba2       0xc6 ..\..\platform\libs\libbtstack.a(lc_proc.o)
 .text.lc_send_key_press_notif_handler
                0x000000001002cc68       0xac ..\..\platform\libs\libbtstack.a(lc_proc.o)
 .text.lc_rem_name_req_can_handler
                0x000000001002cd14       0xd0 ..\..\platform\libs\libbtstack.a(lc_proc.o)
 .text.lc_lmp_key_press_notif_handler
                0x000000001002cde4       0xa4 ..\..\platform\libs\libbtstack.a(lc_proc.o)
 .text.lc_op_link_stop_ind_handler
                0x000000001002ce88       0xd0 ..\..\platform\libs\libbtstack.a(lc_proc.o)
 .text.lc_op_max_slot_sync_ind_handler
                0x000000001002cf58       0xd4 ..\..\platform\libs\libbtstack.a(lc_proc.o)
 .text.lc_lmp_max_slot_handler
                0x000000001002d02c       0x84 ..\..\platform\libs\libbtstack.a(lc_proc.o)
 .text.lc_op_detach_ind_handler
                0x000000001002d0b0       0xa8 ..\..\platform\libs\libbtstack.a(lc_proc.o)
 .text.ext_acl_data_rx_ind_handler
                0x000000001002d158      0x116 ..\..\platform\libs\libbtstack.a(lc_proc.o)
 .text.lc_rd_rem_name_req_handler
                0x000000001002d26e      0x112 ..\..\platform\libs\libbtstack.a(lc_proc.o)
 .text.lc_op_set_cmp_ind_handler
                0x000000001002d380       0xca ..\..\platform\libs\libbtstack.a(lc_proc.o)
 .text.lc_op_epr_ind_handler
                0x000000001002d44a       0x8c ..\..\platform\libs\libbtstack.a(lc_proc.o)
 .text.lc_op_auth_ind_handler
                0x000000001002d4d6       0xa0 ..\..\platform\libs\libbtstack.a(lc_proc.o)
 .text.lc_op_hl_cnx_cont_ind_handler
                0x000000001002d576       0xda ..\..\platform\libs\libbtstack.a(lc_proc.o)
 .text.lc_op_pt_ind_handler
                0x000000001002d650       0xb6 ..\..\platform\libs\libbtstack.a(lc_proc.o)
 .text.lc_auto_unsinff_handler
                0x000000001002d706       0xd2 ..\..\platform\libs\libbtstack.a(lc_proc.o)
 .text.lc_slotoff_ind_handler
                0x000000001002d7d8       0x62 ..\..\platform\libs\libbtstack.a(lc_proc.o)
 .text.lc_unsniff_cfm_handler
                0x000000001002d83a       0xf4 ..\..\platform\libs\libbtstack.a(lc_proc.o)
 .text.lc_sniff_start_handler
                0x000000001002d92e       0xca ..\..\platform\libs\libbtstack.a(lc_proc.o)
 .text.lc_afh_switch_cfm_handler
                0x000000001002d9f8      0x136 ..\..\platform\libs\libbtstack.a(lc_proc.o)
 .text.lc_lmp_page_sc_mode_req_handler
                0x000000001002db2e       0x3e ..\..\platform\libs\libbtstack.a(lc_proc.o)
 .text.lc_lmp_page_mode_req_handler
                0x000000001002db6c       0x38 ..\..\platform\libs\libbtstack.a(lc_proc.o)
 .text.lc_lmp_tim_acc_req_handler
                0x000000001002dba4       0xac ..\..\platform\libs\libbtstack.a(lc_proc.o)
 .text.lc_unsupport_req_handler
                0x000000001002dc50       0x22 ..\..\platform\libs\libbtstack.a(lc_proc.o)
 .text.lc_switch_fail_ind_handler
                0x000000001002dc72       0x2e ..\..\platform\libs\libbtstack.a(lc_proc.o)
 .text.lc_acl_flow_stop_ind_handler
                0x000000001002dca0      0x51e ..\..\platform\libs\libbtstack.a(lc_proc.o)
 .text.lc_switch_cfm_handler
                0x000000001002e1be       0xc6 ..\..\platform\libs\libbtstack.a(lc_proc.o)
 .text.lc_link_sup_to_ind_handler
                0x000000001002e284       0xf2 ..\..\platform\libs\libbtstack.a(lc_proc.o)
 .text.ext_acl_data_tx_cfm_handler
                0x000000001002e376       0x58 ..\..\platform\libs\libbtstack.a(lc_proc.o)
 .text.lc_flush_to_ind_handler
                0x000000001002e3ce       0xe0 ..\..\platform\libs\libbtstack.a(lc_proc.o)
 .text.lc_lmp_detach_handler
                0x000000001002e4ae      0x11c ..\..\platform\libs\libbtstack.a(lc_proc.o)
 .text.lc_disc_cfm_handler
                0x000000001002e5ca       0x76 ..\..\platform\libs\libbtstack.a(lc_proc.o)
 .text.lc_page_fail_ind_handler
                0x000000001002e640       0x68 ..\..\platform\libs\libbtstack.a(lc_proc.o)
 .text.lc_abort_req_handler
                0x000000001002e6a8       0x4e ..\..\platform\libs\libbtstack.a(lc_proc.o)
 .text.lc_page_scan_cfm_handler
                0x000000001002e6f6       0xe0 ..\..\platform\libs\libbtstack.a(lc_proc.o)
 .text.lc_rd_link_sup_to_cmd_handler
                0x000000001002e7d6       0x80 ..\..\platform\libs\libbtstack.a(lc_proc.o)
 .text.lc_page_cfm_handler
                0x000000001002e856       0xc8 ..\..\platform\libs\libbtstack.a(lc_proc.o)
 .text.lc_afh_report_to_handler
                0x000000001002e91e       0xe0 ..\..\platform\libs\libbtstack.a(lc_proc.o)
 .text.lc_pass_key_req_neg_rply_handler
                0x000000001002e9fe       0x6a ..\..\platform\libs\libbtstack.a(lc_proc.o)
 .text.lc_pass_key_req_rply_handler
                0x000000001002ea68       0x8c ..\..\platform\libs\libbtstack.a(lc_proc.o)
 .text.lc_lmp_clk_off_res_handler
                0x000000001002eaf4       0x90 ..\..\platform\libs\libbtstack.a(lc_proc.o)
 .text.lc_lmp_rsp_to_ind_handler
                0x000000001002eb84      0x54e ..\..\platform\libs\libbtstack.a(lc_proc.o)
 .text.lc_comp_dhkey_handler
                0x000000001002f0d2       0xe2 ..\..\platform\libs\libbtstack.a(lc_proc.o)
 .text.lc_sync_ind_handler
                0x000000001002f1b4       0x9e ..\..\platform\libs\libbtstack.a(lc_proc.o)
 .text.lc_lmp_max_slot_req_handler
                0x000000001002f252      0x114 ..\..\platform\libs\libbtstack.a(lc_proc.o)
 .text.lc_trans_coll_handler
                0x000000001002f366       0x46 ..\..\platform\libs\libbtstack.a(lc_proc.o)
 .text.lc_io_capa_req_neg_rply_handler
                0x000000001002f3ac       0x8c ..\..\platform\libs\libbtstack.a(lc_proc.o)
 .text.lc_unsupport_ext4_req_handler
                0x000000001002f438       0x22 ..\..\platform\libs\libbtstack.a(lc_proc.o)
 .text.lc_user_cfm_req_neg_rply_handler
                0x000000001002f45a       0xd6 ..\..\platform\libs\libbtstack.a(lc_proc.o)
 .text.lc_user_cfm_req_rply_handler
                0x000000001002f530       0xda ..\..\platform\libs\libbtstack.a(lc_proc.o)
 .text.lc_io_capa_req_rply_handler
                0x000000001002f60a       0xe8 ..\..\platform\libs\libbtstack.a(lc_proc.o)
 .text.lc_pin_code_req_neg_rply_handler
                0x000000001002f6f2      0x110 ..\..\platform\libs\libbtstack.a(lc_proc.o)
 .text.lc_pin_code_req_rply_handler
                0x000000001002f802       0x9c ..\..\platform\libs\libbtstack.a(lc_proc.o)
 .text.lc_ltk_req_neg_rply_handler
                0x000000001002f89e       0xbc ..\..\platform\libs\libbtstack.a(lc_proc.o)
 .text.lc_ltk_req_rply_handler
                0x000000001002f95a      0x11e ..\..\platform\libs\libbtstack.a(lc_proc.o)
 .text.lc_rej_con_req_handler
                0x000000001002fa78      0x104 ..\..\platform\libs\libbtstack.a(lc_proc.o)
 .text.lc_rd_rem_supp_feats_cmd_handler
                0x000000001002fb7c       0xa2 ..\..\platform\libs\libbtstack.a(lc_proc.o)
 .text.lc_set_con_enc_cmd_handler
                0x000000001002fc1e       0xf8 ..\..\platform\libs\libbtstack.a(lc_proc.o)
 .text.lc_rd_rem_ver_info_cmd_handler
                0x000000001002fd16       0xd2 ..\..\platform\libs\libbtstack.a(lc_proc.o)
 .text.lc_acc_con_req_handler
                0x000000001002fde8      0x1a4 ..\..\platform\libs\libbtstack.a(lc_proc.o)
 .text.lc_create_con_can_handler
                0x000000001002ff8c       0xa8 ..\..\platform\libs\libbtstack.a(lc_proc.o)
 .text.lc_wr_link_sup_to_cmd_handler
                0x0000000010030034      0x122 ..\..\platform\libs\libbtstack.a(lc_proc.o)
 .text.lc_switch_role_handler
                0x0000000010030156      0x168 ..\..\platform\libs\libbtstack.a(lc_proc.o)
 .text.lc_sniff_mode_cmd_handler
                0x00000000100302be      0x1d0 ..\..\platform\libs\libbtstack.a(lc_proc.o)
 .text.lc_auto_sinff_to_handler
                0x000000001003048e       0xfc ..\..\platform\libs\libbtstack.a(lc_proc.o)
 .text.lc_rd_clock_off_cmd_handler
                0x000000001003058a      0x104 ..\..\platform\libs\libbtstack.a(lc_proc.o)
 .text.lc_lmp_clk_off_req_handler
                0x000000001003068e       0xcc ..\..\platform\libs\libbtstack.a(lc_proc.o)
 .text.lc_rd_rem_ext_feats_cmd_handler
                0x000000001003075a      0x10a ..\..\platform\libs\libbtstack.a(lc_proc.o)
 .text.lc_lmp_feats_ext_res_handler
                0x0000000010030864      0x11a ..\..\platform\libs\libbtstack.a(lc_proc.o)
 .text.lc_auth_req_cmd_handler
                0x000000001003097e       0xd0 ..\..\platform\libs\libbtstack.a(lc_proc.o)
 .text.lc_disc_cmd_handler
                0x0000000010030a4e      0x10c ..\..\platform\libs\libbtstack.a(lc_proc.o)
 .text.lc_acl_data_req_handler
                0x0000000010030b5a      0x13c ..\..\platform\libs\libbtstack.a(lc_proc.o)
 .text.lc_lmp_sup_to_handler
                0x0000000010030c96       0x9a ..\..\platform\libs\libbtstack.a(lc_proc.o)
 .text.lc_lmp_tx_cfm_handler
                0x0000000010030d30      0x386 ..\..\platform\libs\libbtstack.a(lc_proc.o)
 .text.lc_lmp_pwr_cntl_res_handler
                0x00000000100310b6       0x72 ..\..\platform\libs\libbtstack.a(lc_proc.o)
 .text.lc_lmp_pwr_cntl_req_handler
                0x0000000010031128       0x8a ..\..\platform\libs\libbtstack.a(lc_proc.o)
 .text.lc_lmp_io_cap_res_handler
                0x00000000100311b2       0xf0 ..\..\platform\libs\libbtstack.a(lc_proc.o)
 .text.lc_lmp_io_cap_req_handler
                0x00000000100312a2      0x24c ..\..\platform\libs\libbtstack.a(lc_proc.o)
 .text.lc_lmp_enc_resume_req_handler
                0x00000000100314ee       0xb6 ..\..\platform\libs\libbtstack.a(lc_proc.o)
 .text.lc_lmp_enc_pause_req_handler
                0x00000000100315a4       0xfc ..\..\platform\libs\libbtstack.a(lc_proc.o)
 .text.lc_lmp_ch_class_handler
                0x00000000100316a0       0x5c ..\..\platform\libs\libbtstack.a(lc_proc.o)
 .text.lc_lmp_ch_class_req_handler
                0x00000000100316fc      0x134 ..\..\platform\libs\libbtstack.a(lc_proc.o)
 .text.lc_lmp_pkt_typ_tbl_req_handler
                0x0000000010031830       0xce ..\..\platform\libs\libbtstack.a(lc_proc.o)
 .text.lc_lmp_feats_ext_req_handler
                0x00000000100318fe       0xa6 ..\..\platform\libs\libbtstack.a(lc_proc.o)
 .text.lc_lmp_acc_ext_not_handler
                0x00000000100319a4      0x240 ..\..\platform\libs\libbtstack.a(lc_proc.o)
 .text.lc_lmp_acc_ext_handler
                0x0000000010031be4      0x11c ..\..\platform\libs\libbtstack.a(lc_proc.o)
 .text.lc_lmp_vd_ctrl_req_handler
                0x0000000010031d00      0x280 ..\..\platform\libs\libbtstack.a(lc_proc.o)
 .text.lc_lmp_dhkey_chk_handler
                0x0000000010031f80      0x1a4 ..\..\platform\libs\libbtstack.a(lc_proc.o)
 .text.lc_lmp_sp_nb_handler
                0x0000000010032124      0x374 ..\..\platform\libs\libbtstack.a(lc_proc.o)
 .text.lc_lmp_sp_cfm_handler
                0x0000000010032498      0x162 ..\..\platform\libs\libbtstack.a(lc_proc.o)
 .text.lc_lmp_encaps_payl_handler
                0x00000000100325fa      0x192 ..\..\platform\libs\libbtstack.a(lc_proc.o)
 .text.lc_lmp_encaps_head_handler
                0x000000001003278c      0x130 ..\..\platform\libs\libbtstack.a(lc_proc.o)
 .text.lc_lmp_set_afh_handler
                0x00000000100328bc       0xf0 ..\..\platform\libs\libbtstack.a(lc_proc.o)
 .text.lc_lmp_enc_key_sz_msk_res_handler
                0x00000000100329ac       0x5c ..\..\platform\libs\libbtstack.a(lc_proc.o)
 .text.lc_lmp_vers_res_handler
                0x0000000010032a08      0x14e ..\..\platform\libs\libbtstack.a(lc_proc.o)
 .text.lc_lmp_enc_key_sz_msk_req_handler
                0x0000000010032b56       0x92 ..\..\platform\libs\libbtstack.a(lc_proc.o)
 .text.lc_lmp_tst_cntl_handler
                0x0000000010032be8      0x110 ..\..\platform\libs\libbtstack.a(lc_proc.o)
 .text.lc_lmp_tst_act_handler
                0x0000000010032cf8       0x70 ..\..\platform\libs\libbtstack.a(lc_proc.o)
 .text.lc_lmp_hl_con_req_handler
                0x0000000010032d68       0xe2 ..\..\platform\libs\libbtstack.a(lc_proc.o)
 .text.lc_lmp_tim_acc_res_handler
                0x0000000010032e4a       0xee ..\..\platform\libs\libbtstack.a(lc_proc.o)
 .text.lc_lmp_feats_res_handler
                0x0000000010032f38       0xa6 ..\..\platform\libs\libbtstack.a(lc_proc.o)
 .text.lc_lmp_feats_req_handler
                0x0000000010032fde       0x78 ..\..\platform\libs\libbtstack.a(lc_proc.o)
 .text.lc_lmp_rate_pref_handler
                0x0000000010033056       0x4e ..\..\platform\libs\libbtstack.a(lc_proc.o)
 .text.lc_lmp_pwr_dec_req_handler
                0x00000000100330a4       0x98 ..\..\platform\libs\libbtstack.a(lc_proc.o)
 .text.lc_lmp_pwr_inc_req_handler
                0x000000001003313c       0x96 ..\..\platform\libs\libbtstack.a(lc_proc.o)
 .text.lc_lmp_unsniff_req_handler
                0x00000000100331d2      0x110 ..\..\platform\libs\libbtstack.a(lc_proc.o)
 .text.lc_lmp_sniff_req_handler
                0x00000000100332e2      0x166 ..\..\platform\libs\libbtstack.a(lc_proc.o)
 .text.lc_lmp_switch_req_handler
                0x0000000010033448      0x1d6 ..\..\platform\libs\libbtstack.a(lc_proc.o)
 .text.lc_lmp_enc_stop_req_handler
                0x000000001003361e      0x13a ..\..\platform\libs\libbtstack.a(lc_proc.o)
 .text.lc_lmp_enc_start_req_handler
                0x0000000010033758      0x224 ..\..\platform\libs\libbtstack.a(lc_proc.o)
 .text.lc_lmp_enc_key_size_req_handler
                0x000000001003397c      0x15e ..\..\platform\libs\libbtstack.a(lc_proc.o)
 .text.lc_lmp_enc_mode_req_handler
                0x0000000010033ada      0x206 ..\..\platform\libs\libbtstack.a(lc_proc.o)
 .text.lc_lmp_temp_key_handler
                0x0000000010033ce0       0x86 ..\..\platform\libs\libbtstack.a(lc_proc.o)
 .text.lc_lmp_temp_rand_handler
                0x0000000010033d66      0x12a ..\..\platform\libs\libbtstack.a(lc_proc.o)
 .text.lc_lmp_sres_handler
                0x0000000010033e90      0x340 ..\..\platform\libs\libbtstack.a(lc_proc.o)
 .text.lc_lmp_au_rand_handler
                0x00000000100341d0      0x29e ..\..\platform\libs\libbtstack.a(lc_proc.o)
 .text.lc_lmp_unit_key_handler
                0x000000001003446e      0x160 ..\..\platform\libs\libbtstack.a(lc_proc.o)
 .text.lc_lmp_comb_key_handler
                0x00000000100345ce      0x1ce ..\..\platform\libs\libbtstack.a(lc_proc.o)
 .text.lc_lmp_in_rand_handler
                0x000000001003479c      0x18e ..\..\platform\libs\libbtstack.a(lc_proc.o)
 .text.lc_lmp_acc_not_handler
                0x000000001003492a      0x6d0 ..\..\platform\libs\libbtstack.a(lc_proc.o)
 .text.lc_lmp_acc_handler
                0x0000000010034ffa      0x93a ..\..\platform\libs\libbtstack.a(lc_proc.o)
 .text.lc_lmp_name_res_handler
                0x0000000010035934       0xd0 ..\..\platform\libs\libbtstack.a(lc_proc.o)
 .text.lc_lmp_name_req_handler
                0x0000000010035a04       0x7a ..\..\platform\libs\libbtstack.a(lc_proc.o)
 .text.lc_lmp_pass_key_fail_handler
                0x0000000010035a7e       0x7a ..\..\platform\libs\libbtstack.a(lc_proc.o)
 .text.lc_lmp_oob_fail_handler
                0x0000000010035af8       0x66 ..\..\platform\libs\libbtstack.a(lc_proc.o)
 .text.lc_op_vd_ind_handler
                0x0000000010035b5e       0xa2 ..\..\platform\libs\libbtstack.a(lc_proc.o)
 .text.lc_stop_page_scan_cfm_handler
                0x0000000010035c00       0x44 ..\..\platform\libs\libbtstack.a(lc_proc.o)
 .text.lc_op_name_req_ind_handler
                0x0000000010035c44       0x88 ..\..\platform\libs\libbtstack.a(lc_proc.o)
 .text.lc_op_enc_ind_handler
                0x0000000010035ccc       0x8e ..\..\platform\libs\libbtstack.a(lc_proc.o)
 .text.lc_op_remauth_ind_handler
                0x0000000010035d5a       0x94 ..\..\platform\libs\libbtstack.a(lc_proc.o)
 .text.lc_op_hl_cnx_ind_handler
                0x0000000010035dee       0x9a ..\..\platform\libs\libbtstack.a(lc_proc.o)
 .text.lc_op_afh_ind_handler
                0x0000000010035e88       0x7c ..\..\platform\libs\libbtstack.a(lc_proc.o)
 .text.lc_op_timacc_ind_handler
                0x0000000010035f04       0xba ..\..\platform\libs\libbtstack.a(lc_proc.o)
 .text.lc_op_clkoff_ind_handler
                0x0000000010035fbe       0x8c ..\..\platform\libs\libbtstack.a(lc_proc.o)
 .text.lc_op_vers_ind_handler
                0x000000001003604a       0x8c ..\..\platform\libs\libbtstack.a(lc_proc.o)
 .text.lc_op_feat_ind_handler
                0x00000000100360d6       0x8c ..\..\platform\libs\libbtstack.a(lc_proc.o)
 .text.lc_bad_lmp_handler
                0x0000000010036162       0x50 ..\..\platform\libs\libbtstack.a(lc_proc.o)
 .text.lc_stop_page_cfm_handler
                0x00000000100361b2       0x62 ..\..\platform\libs\libbtstack.a(lc_proc.o)
 .text.lc_con_accept_to_handler
                0x0000000010036214       0x70 ..\..\platform\libs\libbtstack.a(lc_proc.o)
 .text.lc_rej_sync_con_handler
                0x0000000010036284       0x64 ..\..\platform\libs\libbtstack.a(lc_proc.o)
 .text.lc_acc_sync_con_handler
                0x00000000100362e8       0x6e ..\..\platform\libs\libbtstack.a(lc_proc.o)
 .text.lc_start_page_req_handler
                0x0000000010036356       0xba ..\..\platform\libs\libbtstack.a(lc_proc.o)
 .text.lc_setup_sync_con_cmd_handler
                0x0000000010036410       0xd0 ..\..\platform\libs\libbtstack.a(lc_proc.o)
 .text.lc_lmp_msg_handler
                0x00000000100364e0       0xc6 ..\..\platform\libs\libbtstack.a(lc_proc.o)
 .text.lc_lmp_esco_lk_rem_req_handler
                0x00000000100365a6       0x3e ..\..\platform\libs\libbtstack.a(lc_proc.o)
 .text.lc_lmp_sco_lk_rem_req_handler
                0x00000000100365e4       0x3e ..\..\platform\libs\libbtstack.a(lc_proc.o)
 .text.lc_lmp_esco_lk_req_handler
                0x0000000010036622      0x110 ..\..\platform\libs\libbtstack.a(lc_proc.o)
 .text.lc_lmp_sco_lk_req_handler
                0x0000000010036732       0xb8 ..\..\platform\libs\libbtstack.a(lc_proc.o)
 .text.lc_page_scan_end_ind_handler
                0x00000000100367ea       0x44 ..\..\platform\libs\libbtstack.a(lc_proc.o)
 .text.lc_lmp_num_comp_fail_handler
                0x000000001003682e       0x46 ..\..\platform\libs\libbtstack.a(lc_proc.o)
 .text.lc_epc_response_ind
                0x0000000010036874       0x78 ..\..\platform\libs\libbtstack.a(lc_pwrctrl.o)
                0x0000000010036874                lc_epc_response_ind
 .text.lc_sco_alloc_link
                0x00000000100368ec       0x76 ..\..\platform\libs\libbtstack.a(lc_sco.o)
 .text.lc_sco_free_nego
                0x0000000010036962       0x4a ..\..\platform\libs\libbtstack.a(lc_sco.o)
 .text.lc_sco_alloc_nego
                0x00000000100369ac       0x4c ..\..\platform\libs\libbtstack.a(lc_sco.o)
 .text.lc_sco_send_peer_disc
                0x00000000100369f8       0x7c ..\..\platform\libs\libbtstack.a(lc_sco.o)
 .text.lc_sco_send_host_cmp_evt
                0x0000000010036a74      0x17e ..\..\platform\libs\libbtstack.a(lc_sco.o)
 .text.lc_sco_send_peer_req
                0x0000000010036bf2      0x1a0 ..\..\platform\libs\libbtstack.a(lc_sco.o)
 .text.lc_sco_send_peer_accept
                0x0000000010036d92       0x2c ..\..\platform\libs\libbtstack.a(lc_sco.o)
 .text.lc_sco_send_peer_reject
                0x0000000010036dbe       0x1a ..\..\platform\libs\libbtstack.a(lc_sco.o)
 .text.lc_sco_free_link
                0x0000000010036dd8       0x5a ..\..\platform\libs\libbtstack.a(lc_sco.o)
 .text.lc_sco_wrapper_lm_get_sync_param.isra.1
                0x0000000010036e32       0x1e ..\..\platform\libs\libbtstack.a(lc_sco.o)
 .text.lc_sco_init
                0x0000000010036e50       0x20 ..\..\platform\libs\libbtstack.a(lc_sco.o)
                0x0000000010036e50                lc_sco_init
 .text.lc_sco_reset
                0x0000000010036e70       0x54 ..\..\platform\libs\libbtstack.a(lc_sco.o)
                0x0000000010036e70                lc_sco_reset
 .text.lc_sco_host_request
                0x0000000010036ec4      0x10e ..\..\platform\libs\libbtstack.a(lc_sco.o)
                0x0000000010036ec4                lc_sco_host_request
 .text.lc_sco_host_accept
                0x0000000010036fd2      0x196 ..\..\platform\libs\libbtstack.a(lc_sco.o)
                0x0000000010036fd2                lc_sco_host_accept
 .text.lc_sco_host_reject
                0x0000000010037168       0xee ..\..\platform\libs\libbtstack.a(lc_sco.o)
                0x0000000010037168                lc_sco_host_reject
 .text.lc_sco_peer_request
                0x0000000010037256      0x2a2 ..\..\platform\libs\libbtstack.a(lc_sco.o)
                0x0000000010037256                lc_sco_peer_request
 .text.lc_sco_is_exist
                0x00000000100374f8       0x14 ..\..\platform\libs\libbtstack.a(lc_sco.o)
                0x00000000100374f8                lc_sco_is_exist
 .text.lc_sco_peer_reject
                0x000000001003750c       0xb0 ..\..\platform\libs\libbtstack.a(lc_sco.o)
                0x000000001003750c                lc_sco_peer_reject
 .text.lc_sco_con_init
                0x00000000100375bc       0x76 ..\..\platform\libs\libbtstack.a(lc_sco.o)
                0x00000000100375bc                lc_sco_con_init
 *fill*         0x0000000010037632        0xe 
 .text.lc_sco_con_port_sync
                0x0000000010037640       0x40 ..\..\platform\libs\libbtstack.a(lc_sco.o)
                0x0000000010037640                lc_sco_con_port_sync
 *fill*         0x0000000010037680       0x80 
 .text.lc_sco_con_start
                0x0000000010037700      0x100 ..\..\platform\libs\libbtstack.a(lc_sco.o)
                0x0000000010037700                lc_sco_con_start
 *fill*         0x0000000010037800        0x0 
 .text.lc_sco_con_remove
                0x0000000010037800      0x1ee ..\..\platform\libs\libbtstack.a(lc_sco.o)
                0x0000000010037800                lc_sco_con_remove
 .text.lc_sco_detach
                0x00000000100379ee       0xd2 ..\..\platform\libs\libbtstack.a(lc_sco.o)
                0x00000000100379ee                lc_sco_detach
 .text.lc_sco_peer_accept_disc
                0x0000000010037ac0       0xfa ..\..\platform\libs\libbtstack.a(lc_sco.o)
                0x0000000010037ac0                lc_sco_peer_accept_disc
 .text.lc_sco_release
                0x0000000010037bba       0x96 ..\..\platform\libs\libbtstack.a(lc_sco.o)
                0x0000000010037bba                lc_sco_release
 .text.lc_sco_host_request_disc
                0x0000000010037c50       0x86 ..\..\platform\libs\libbtstack.a(lc_sco.o)
                0x0000000010037c50                lc_sco_host_request_disc
 .text.lc_sco_peer_request_disc
                0x0000000010037cd6      0x138 ..\..\platform\libs\libbtstack.a(lc_sco.o)
                0x0000000010037cd6                lc_sco_peer_request_disc
 .text.lc_sco_peer_reject_disc
                0x0000000010037e0e      0x110 ..\..\platform\libs\libbtstack.a(lc_sco.o)
                0x0000000010037e0e                lc_sco_peer_reject_disc
 .text.lc_sco_timeout
                0x0000000010037f1e      0x104 ..\..\platform\libs\libbtstack.a(lc_sco.o)
                0x0000000010037f1e                lc_sco_timeout
 .text.lc_sco_con_configure
                0x0000000010038022      0x212 ..\..\platform\libs\libbtstack.a(lc_sco.o)
                0x0000000010038022                lc_sco_con_configure
 .text.lc_sco_con_add
                0x0000000010038234      0x30e ..\..\platform\libs\libbtstack.a(lc_sco.o)
                0x0000000010038234                lc_sco_con_add
 .text.lc_sco_start_link
                0x0000000010038542      0x112 ..\..\platform\libs\libbtstack.a(lc_sco.o)
 .text.lc_sco_peer_accept
                0x0000000010038654       0xa4 ..\..\platform\libs\libbtstack.a(lc_sco.o)
                0x0000000010038654                lc_sco_peer_accept
 .text.lc_sco_baseband_ack
                0x00000000100386f8      0x132 ..\..\platform\libs\libbtstack.a(lc_sco.o)
                0x00000000100386f8                lc_sco_baseband_ack
 *fill*         0x000000001003882a       0xd6 
 .text.lc_sco_con_null_filtering
                0x0000000010038900       0xfc ..\..\platform\libs\libbtstack.a(lc_sco.o)
                0x0000000010038900                lc_sco_con_null_filtering
 .text.lc_util_set_loc_trans_coll
                0x00000000100389fc       0x1e ..\..\platform\libs\libbtstack.a(lc_util.o)
                0x00000000100389fc                lc_util_set_loc_trans_coll
 .text.lc_util_check_trans_coll
                0x0000000010038a1a       0xe0 ..\..\platform\libs\libbtstack.a(lc_util.o)
                0x0000000010038a1a                lc_util_check_trans_coll
 .text.lm_init  0x0000000010038afa      0x15a ..\..\platform\libs\libbtstack.a(lm.o)
                0x0000000010038afa                lm_init
 .text.lm_common_cmd_complete_send
                0x0000000010038c54       0x2c ..\..\platform\libs\libbtstack.a(lm.o)
                0x0000000010038c54                lm_common_cmd_complete_send
 .text.lm_common_cmd_status_send
                0x0000000010038c80       0x2c ..\..\platform\libs\libbtstack.a(lm.o)
                0x0000000010038c80                lm_common_cmd_status_send
 .text.lm_create_con
                0x0000000010038cac       0xda ..\..\platform\libs\libbtstack.a(lm.o)
                0x0000000010038cac                lm_create_con
 .text.lm_create_con_rem_name
                0x0000000010038d86       0x74 ..\..\platform\libs\libbtstack.a(lm.o)
                0x0000000010038d86                lm_create_con_rem_name
 .text.lm_page_sc
                0x0000000010038dfa       0x84 ..\..\platform\libs\libbtstack.a(lm.o)
                0x0000000010038dfa                lm_page_sc
 .text.lm_inquiry_sc
                0x0000000010038e7e      0x112 ..\..\platform\libs\libbtstack.a(lm.o)
                0x0000000010038e7e                lm_inquiry_sc
 .text.lm_set_iac_en
                0x0000000010038f90       0x7e ..\..\platform\libs\libbtstack.a(lm.o)
                0x0000000010038f90                lm_set_iac_en
 .text.lm_afh_restart_timer
                0x000000001003900e       0x3c ..\..\platform\libs\libbtstack.a(lm.o)
                0x000000001003900e                lm_afh_restart_timer
 .text.lm_afh_process
                0x000000001003904a       0x5c ..\..\platform\libs\libbtstack.a(lm.o)
                0x000000001003904a                lm_afh_process
 .text.lm_afh_init
                0x00000000100390a6       0x50 ..\..\platform\libs\libbtstack.a(lm.o)
                0x00000000100390a6                lm_afh_init
 .text.LM_ExpandAddr
                0x00000000100390f6       0x24 ..\..\platform\libs\libbtstack.a(lm_key.o)
                0x00000000100390f6                LM_ExpandAddr
 .text.LM_ExpandPIN
                0x000000001003911a       0x66 ..\..\platform\libs\libbtstack.a(lm_key.o)
                0x000000001003911a                LM_ExpandPIN
 .text.LM_ExpandCof
                0x0000000010039180       0x24 ..\..\platform\libs\libbtstack.a(lm_key.o)
                0x0000000010039180                LM_ExpandCof
 .text.LM_ExpLog
                0x00000000100391a4       0x4c ..\..\platform\libs\libbtstack.a(lm_key.o)
                0x00000000100391a4                LM_ExpLog
 .text.LM_Offset
                0x00000000100391f0       0xbe ..\..\platform\libs\libbtstack.a(lm_key.o)
                0x00000000100391f0                LM_Offset
 .text.LM_InitKeySchedule
                0x00000000100392ae       0x24 ..\..\platform\libs\libbtstack.a(lm_key.o)
                0x00000000100392ae                LM_InitKeySchedule
 .text.LM_CreateBiasVector
                0x00000000100392d2       0x38 ..\..\platform\libs\libbtstack.a(lm_key.o)
                0x00000000100392d2                LM_CreateBiasVector
 .text.LM_Add   0x000000001003930a       0x1e ..\..\platform\libs\libbtstack.a(lm_key.o)
                0x000000001003930a                LM_Add
 .text.LM_NextKeySchedule
                0x0000000010039328       0x86 ..\..\platform\libs\libbtstack.a(lm_key.o)
                0x0000000010039328                LM_NextKeySchedule
 .text.LM_Xor   0x00000000100393ae       0x1e ..\..\platform\libs\libbtstack.a(lm_key.o)
                0x00000000100393ae                LM_Xor
 .text.LM_XorAdd
                0x00000000100393cc       0x48 ..\..\platform\libs\libbtstack.a(lm_key.o)
                0x00000000100393cc                LM_XorAdd
 .text.LM_AddXor
                0x0000000010039414       0x48 ..\..\platform\libs\libbtstack.a(lm_key.o)
                0x0000000010039414                LM_AddXor
 .text.LM_Permute
                0x000000001003945c       0x4c ..\..\platform\libs\libbtstack.a(lm_key.o)
                0x000000001003945c                LM_Permute
 .text.LM_ArRound
                0x00000000100394a8       0xae ..\..\platform\libs\libbtstack.a(lm_key.o)
                0x00000000100394a8                LM_ArRound
 .text.LM_Ar    0x0000000010039556       0x64 ..\..\platform\libs\libbtstack.a(lm_key.o)
                0x0000000010039556                LM_Ar
 .text.LM_ArPrim
                0x00000000100395ba       0x8c ..\..\platform\libs\libbtstack.a(lm_key.o)
                0x00000000100395ba                LM_ArPrim
 .text.LM_E1    0x0000000010039646       0x94 ..\..\platform\libs\libbtstack.a(lm_key.o)
                0x0000000010039646                LM_E1
 .text.LM_E21   0x00000000100396da       0x4a ..\..\platform\libs\libbtstack.a(lm_key.o)
                0x00000000100396da                LM_E21
 .text.LM_E22   0x0000000010039724       0x54 ..\..\platform\libs\libbtstack.a(lm_key.o)
                0x0000000010039724                LM_E22
 .text.LM_E3    0x0000000010039778       0x5c ..\..\platform\libs\libbtstack.a(lm_key.o)
                0x0000000010039778                LM_E3
 .text.LM_ReverseVector
                0x00000000100397d4       0x32 ..\..\platform\libs\libbtstack.a(lm_key.o)
                0x00000000100397d4                LM_ReverseVector
 .text.LM_Modulo
                0x0000000010039806      0x3dc ..\..\platform\libs\libbtstack.a(lm_key.o)
                0x0000000010039806                LM_Modulo
 .text.LM_Multiply
                0x0000000010039be2      0x3ca ..\..\platform\libs\libbtstack.a(lm_key.o)
                0x0000000010039be2                LM_Multiply
 .text.LM_KPrimC
                0x0000000010039fac       0x8a ..\..\platform\libs\libbtstack.a(lm_key.o)
                0x0000000010039fac                LM_KPrimC
 .text.E1       0x000000001003a036       0x1a ..\..\platform\libs\libbtstack.a(lm_key.o)
                0x000000001003a036                E1
 .text.E21      0x000000001003a050       0x16 ..\..\platform\libs\libbtstack.a(lm_key.o)
                0x000000001003a050                E21
 .text.E22      0x000000001003a066       0x1a ..\..\platform\libs\libbtstack.a(lm_key.o)
                0x000000001003a066                E22
 .text.E3       0x000000001003a080        0xe ..\..\platform\libs\libbtstack.a(lm_key.o)
                0x000000001003a080                E3
 .text.KPrimC   0x000000001003a08e        0xe ..\..\platform\libs\libbtstack.a(lm_key.o)
                0x000000001003a08e                KPrimC
 .text.XorKey   0x000000001003a09c        0xe ..\..\platform\libs\libbtstack.a(lm_key.o)
                0x000000001003a09c                XorKey
 .text.lm_rd_loc_vers_info_cmd_handler
                0x000000001003a0aa       0x5a ..\..\platform\libs\libbtstack.a(lm_proc.o)
 .text.lm_rd_buff_size_cmd_handler
                0x000000001003a104       0x54 ..\..\platform\libs\libbtstack.a(lm_proc.o)
 .text.lm_acl_link_rem_handler
                0x000000001003a158       0x24 ..\..\platform\libs\libbtstack.a(lm_proc.o)
 .text.lm_lsto_ind_handler
                0x000000001003a17c       0x1a ..\..\platform\libs\libbtstack.a(lm_proc.o)
 .text.lm_reset_cmd_handler
                0x000000001003a196       0x28 ..\..\platform\libs\libbtstack.a(lm_proc.o)
 .text.lm_wr_inq_mode_cmd_handler
                0x000000001003a1be       0x2a ..\..\platform\libs\libbtstack.a(lm_proc.o)
 .text.lm_wr_inq_sc_type_cmd_handler
                0x000000001003a1e8       0x2a ..\..\platform\libs\libbtstack.a(lm_proc.o)
 .text.lm_wr_page_sc_type_cmd_handler
                0x000000001003a212       0x2a ..\..\platform\libs\libbtstack.a(lm_proc.o)
 .text.lm_rd_rem_name_cfm_handler
                0x000000001003a23c       0x88 ..\..\platform\libs\libbtstack.a(lm_proc.o)
 .text.lm_chg_loc_name_cmd_handler
                0x000000001003a2c4       0x48 ..\..\platform\libs\libbtstack.a(lm_proc.o)
 .text.lm_rd_loc_name_cmd_handler
                0x000000001003a30c       0x50 ..\..\platform\libs\libbtstack.a(lm_proc.o)
 .text.lm_inq_per_mode_cmd_handler
                0x000000001003a35c       0xd8 ..\..\platform\libs\libbtstack.a(lm_proc.o)
 .text.lm_page_scan_cfm_handler
                0x000000001003a434       0x22 ..\..\platform\libs\libbtstack.a(lm_proc.o)
 .text.lm_afh_to_handler
                0x000000001003a456       0x4e ..\..\platform\libs\libbtstack.a(lm_proc.o)
 .text.lm_remote_name_to_handler
                0x000000001003a4a4       0x8a ..\..\platform\libs\libbtstack.a(lm_proc.o)
 .text.lm_wr_le_host_supp_cmd_handler
                0x000000001003a52e       0x26 ..\..\platform\libs\libbtstack.a(lm_proc.o)
 .text.lm_rd_le_host_supp_cmd_handler
                0x000000001003a554       0x42 ..\..\platform\libs\libbtstack.a(lm_proc.o)
 .text.lm_wr_sp_dbg_mode_cmd_handler
                0x000000001003a596       0x28 ..\..\platform\libs\libbtstack.a(lm_proc.o)
 .text.lm_send_key_press_notif_cmd_handler
                0x000000001003a5be       0x84 ..\..\platform\libs\libbtstack.a(lm_proc.o)
 .text.lm_user_pass_key_req_reply_neg_cmd_handler
                0x000000001003a642       0x72 ..\..\platform\libs\libbtstack.a(lm_proc.o)
 .text.lm_user_pass_key_req_reply_cmd_handler
                0x000000001003a6b4       0x6e ..\..\platform\libs\libbtstack.a(lm_proc.o)
 .text.lm_user_cfm_req_reply_neg_cmd_handler
                0x000000001003a722       0x72 ..\..\platform\libs\libbtstack.a(lm_proc.o)
 .text.lm_user_cfm_req_reply_cmd_handler
                0x000000001003a794       0x7a ..\..\platform\libs\libbtstack.a(lm_proc.o)
 .text.lm_io_cap_req_reply_neg_cmd_handler
                0x000000001003a80e       0x72 ..\..\platform\libs\libbtstack.a(lm_proc.o)
 .text.lm_io_cap_req_reply_cmd_handler
                0x000000001003a880       0x7a ..\..\platform\libs\libbtstack.a(lm_proc.o)
 .text.lm_rem_name_req_can_cmd_handler
                0x000000001003a8fa       0x72 ..\..\platform\libs\libbtstack.a(lm_proc.o)
 .text.lm_pin_code_reply_neg_cmd_handler
                0x000000001003a96c       0x76 ..\..\platform\libs\libbtstack.a(lm_proc.o)
 .text.lm_pin_code_reply_cmd_handler
                0x000000001003a9e2       0x86 ..\..\platform\libs\libbtstack.a(lm_proc.o)
 .text.lm_link_key_reply_neg_cmd_handler
                0x000000001003aa68       0x76 ..\..\platform\libs\libbtstack.a(lm_proc.o)
 .text.lm_link_key_reply_cmd_handler
                0x000000001003aade       0x76 ..\..\platform\libs\libbtstack.a(lm_proc.o)
 .text.lm_create_cnx_can_cmd_handler
                0x000000001003ab54       0x7c ..\..\platform\libs\libbtstack.a(lm_proc.o)
 .text.lm_inq_cmd_handler
                0x000000001003abd0       0xba ..\..\platform\libs\libbtstack.a(lm_proc.o)
 .text.lm_wr_sp_mode_cmd_handler
                0x000000001003ac8a       0x28 ..\..\platform\libs\libbtstack.a(lm_proc.o)
 .text.lm_rd_sp_mode_cmd_handler
                0x000000001003acb2       0x40 ..\..\platform\libs\libbtstack.a(lm_proc.o)
 .text.lm_wr_ext_inq_rsp_cmd_handler
                0x000000001003acf2       0x3c ..\..\platform\libs\libbtstack.a(lm_proc.o)
 .text.lm_rd_ext_inq_rsp_cmd_handler
                0x000000001003ad2e       0x44 ..\..\platform\libs\libbtstack.a(lm_proc.o)
 .text.lm_rd_loc_ext_feats_cmd_handler
                0x000000001003ad72       0x56 ..\..\platform\libs\libbtstack.a(lm_proc.o)
 .text.lm_rd_loc_supp_feats_cmd_handler
                0x000000001003adc8       0x3e ..\..\platform\libs\libbtstack.a(lm_proc.o)
 .text.lm_wr_class_of_dev_cmd_handler
                0x000000001003ae06       0x30 ..\..\platform\libs\libbtstack.a(lm_proc.o)
 .text.lm_wr_page_to_cmd_handler
                0x000000001003ae36       0x2c ..\..\platform\libs\libbtstack.a(lm_proc.o)
 .text.lm_wr_pin_type_cmd_handler
                0x000000001003ae62       0x28 ..\..\platform\libs\libbtstack.a(lm_proc.o)
 .text.lm_wr_scan_en_cmd_handler
                0x000000001003ae8a       0xe8 ..\..\platform\libs\libbtstack.a(lm_proc.o)
 .text.lm_create_cnx_cmd_handler
                0x000000001003af72       0x7c ..\..\platform\libs\libbtstack.a(lm_proc.o)
 .text.lm_host_buff_size_cmd_handler
                0x000000001003afee       0x46 ..\..\platform\libs\libbtstack.a(lm_proc.o)
 .text.lm_set_evt_msk_cmd_handler
                0x000000001003b034       0x1e ..\..\platform\libs\libbtstack.a(lm_proc.o)
 .text.lm_rd_local_supp_cmds_cmd_handler
                0x000000001003b052       0x40 ..\..\platform\libs\libbtstack.a(lm_proc.o)
 .text.lm_rd_bd_addr_cmd_handler
                0x000000001003b092       0x3e ..\..\platform\libs\libbtstack.a(lm_proc.o)
 .text.lm_inq_end_ind_handler
                0x000000001003b0d0       0x48 ..\..\platform\libs\libbtstack.a(lm_proc.o)
 .text.lm_page_scan_end_stop_handler
                0x000000001003b118       0x2c ..\..\platform\libs\libbtstack.a(lm_proc.o)
 .text.lm_inq_stop_cfm_handler
                0x000000001003b144       0x48 ..\..\platform\libs\libbtstack.a(lm_proc.o)
 .text.lm_inq_per_exit_cmd_handler
                0x000000001003b18c       0x98 ..\..\platform\libs\libbtstack.a(lm_proc.o)
 .text.lm_inq_can_cmd_handler
                0x000000001003b224       0x4a ..\..\platform\libs\libbtstack.a(lm_proc.o)
 .text.lm_inq_rslt_ind_handler
                0x000000001003b26e       0xf4 ..\..\platform\libs\libbtstack.a(lm_proc.o)
 .text.lm_page_can_cfm_handler
                0x000000001003b362       0xa0 ..\..\platform\libs\libbtstack.a(lm_proc.o)
 .text.lm_inq_rslt_ext_ind_handler
                0x000000001003b402      0x186 ..\..\platform\libs\libbtstack.a(lm_proc.o)
 .text.lm_page_cfm_handler
                0x000000001003b588       0x8a ..\..\platform\libs\libbtstack.a(lm_proc.o)
 .text.lm_page_fail_ind_handler
                0x000000001003b612       0xbc ..\..\platform\libs\libbtstack.a(lm_proc.o)
 .text.lm_inq_scan_to_handler
                0x000000001003b6ce       0x5a ..\..\platform\libs\libbtstack.a(lm_proc.o)
 .text.lm_inq_to_handler
                0x000000001003b728       0x8c ..\..\platform\libs\libbtstack.a(lm_proc.o)
 .text.lm_page_scan_to_handler
                0x000000001003b7b4       0x60 ..\..\platform\libs\libbtstack.a(lm_proc.o)
 .text.lm_switch_role_cmd_handler
                0x000000001003b814       0x5a ..\..\platform\libs\libbtstack.a(lm_proc.o)
 .text.lm_reject_con_sync_cmd_handler
                0x000000001003b86e       0x3a ..\..\platform\libs\libbtstack.a(lm_proc.o)
 .text.lm_reject_con_cmd_handler
                0x000000001003b8a8       0x3a ..\..\platform\libs\libbtstack.a(lm_proc.o)
 .text.lm_accept_con_sync_cmd_handler
                0x000000001003b8e2       0x3a ..\..\platform\libs\libbtstack.a(lm_proc.o)
 .text.lm_accept_con_cmd_handler
                0x000000001003b91c       0x3a ..\..\platform\libs\libbtstack.a(lm_proc.o)
 .text.lm_remote_name_cmd_handler
                0x000000001003b956      0x102 ..\..\platform\libs\libbtstack.a(lm_proc.o)
 .text.lm_host_nb_comp_pkts_cmd_handler
                0x000000001003ba58       0x36 ..\..\platform\libs\libbtstack.a(lm_proc.o)
 .text.lm_lmp_rx_ind_handler
                0x000000001003ba8e       0x34 ..\..\platform\libs\libbtstack.a(lm_proc.o)
 .text.lm_inq_end_stop_handler
                0x000000001003bac2       0x2c ..\..\platform\libs\libbtstack.a(lm_proc.o)
 .text.lm_convert_flag_to_type
                0x000000001003baee       0x56 ..\..\platform\libs\libbtstack.a(lm_sco.o)
 .text.lm_sync_get_best_win_cont
                0x000000001003bb44       0x96 ..\..\platform\libs\libbtstack.a(lm_sco.o)
 .text.lm_get_sync_frame_size
                0x000000001003bbda       0x90 ..\..\platform\libs\libbtstack.a(lm_sco.o)
 .text.lm_compute_nb_bytes
                0x000000001003bc6a       0x24 ..\..\platform\libs\libbtstack.a(lm_sco.o)
 .text.lm_check_packet_len
                0x000000001003bc8e       0x26 ..\..\platform\libs\libbtstack.a(lm_sco.o)
 .text.lm_check_esco_bandwidth
                0x000000001003bcb4       0xd8 ..\..\platform\libs\libbtstack.a(lm_sco.o)
 .text.lm_get_total_pkt_type
                0x000000001003bd8c       0x48 ..\..\platform\libs\libbtstack.a(lm_sco.o)
 .text.lm_sync_get_best_win
                0x000000001003bdd4       0x56 ..\..\platform\libs\libbtstack.a(lm_sco.o)
 .text.lm_get_common_pkt_types.isra.1
                0x000000001003be2a       0x7a ..\..\platform\libs\libbtstack.a(lm_sco.o)
 .text.lm_get_allowed_intv_bitmask.part.2
                0x000000001003bea4       0x8a ..\..\platform\libs\libbtstack.a(lm_sco.o)
 .text.lm_sync_check_intv_allowed
                0x000000001003bf2e       0x86 ..\..\platform\libs\libbtstack.a(lm_sco.o)
 .text.lm_extract_tesco_bitmask.isra.4
                0x000000001003bfb4       0xa8 ..\..\platform\libs\libbtstack.a(lm_sco.o)
 .text.lm_sync_check_pktAllowed
                0x000000001003c05c       0xb4 ..\..\platform\libs\libbtstack.a(lm_sco.o)
 .text.lm_get_sync_offset.isra.12
                0x000000001003c110      0x102 ..\..\platform\libs\libbtstack.a(lm_sco.o)
 .text.lm_get_esco_params
                0x000000001003c212      0x43e ..\..\platform\libs\libbtstack.a(lm_sco.o)
 .text.lm_sync_check_params.isra.8
                0x000000001003c650      0x114 ..\..\platform\libs\libbtstack.a(lm_sco.o)
 .text.lm_get_sync_param
                0x000000001003c764      0xacc ..\..\platform\libs\libbtstack.a(lm_sco.o)
                0x000000001003c764                lm_get_sync_param
 .text.lm_init_sync
                0x000000001003d230       0x4c ..\..\platform\libs\libbtstack.a(lm_sco.o)
                0x000000001003d230                lm_init_sync
 .text.lm_check_active_sync
                0x000000001003d27c        0xc ..\..\platform\libs\libbtstack.a(lm_sco.o)
                0x000000001003d27c                lm_check_active_sync
 .text.lm_add_sync
                0x000000001003d288      0x40a ..\..\platform\libs\libbtstack.a(lm_sco.o)
                0x000000001003d288                lm_add_sync
 .text.lm_check_sync_hl_rsp
                0x000000001003d692      0x14c ..\..\platform\libs\libbtstack.a(lm_sco.o)
                0x000000001003d692                lm_check_sync_hl_rsp
 .text.lm_look_for_sync
                0x000000001003d7de       0x6a ..\..\platform\libs\libbtstack.a(lm_sco.o)
                0x000000001003d7de                lm_look_for_sync
 .text.lm_remove_sync
                0x000000001003d848       0x80 ..\..\platform\libs\libbtstack.a(lm_sco.o)
                0x000000001003d848                lm_remove_sync
 .text.lm_get_sync_type
                0x000000001003d8c8       0x30 ..\..\platform\libs\libbtstack.a(lm_sco.o)
                0x000000001003d8c8                lm_get_sync_type
 .text.lm_check_sync_bandwidth
                0x000000001003d8f8       0x72 ..\..\platform\libs\libbtstack.a(lm_sco.o)
                0x000000001003d8f8                lm_check_sync_bandwidth
 .text.lm_sleep_init
                0x000000001003d96a       0x1c ..\..\platform\libs\libbtstack.a(lm_sleep.o)
                0x000000001003d96a                lm_sleep_init
 .text.unlikely.lm_get_sniff_timing
                0x000000001003d986      0x1de ..\..\platform\libs\libbtstack.a(lm_sniff.o)
 .text.lm_init_sniff
                0x000000001003db64        0x2 ..\..\platform\libs\libbtstack.a(lm_sniff.o)
                0x000000001003db64                lm_init_sniff
 .text.lm_add_sniff
                0x000000001003db66      0x1c2 ..\..\platform\libs\libbtstack.a(lm_sniff.o)
                0x000000001003db66                lm_add_sniff
 .text.lm_remove_sniff
                0x000000001003dd28       0x50 ..\..\platform\libs\libbtstack.a(lm_sniff.o)
                0x000000001003dd28                lm_remove_sniff
 .text.lm_get_link_timeout
                0x000000001003dd78       0x2c ..\..\platform\libs\libbtstack.a(lm_sniff.o)
                0x000000001003dd78                lm_get_link_timeout
 .text.lm_convert_u32_to_u8
                0x000000001003dda4       0x68 ..\..\platform\libs\libbtstack.a(lm_sp.o)
 .text.lm_convert_u8_to_arr.isra.0
                0x000000001003de0c       0x30 ..\..\platform\libs\libbtstack.a(lm_sp.o)
 .text.lm_get_pub_key
                0x000000001003de3c       0x22 ..\..\platform\libs\libbtstack.a(lm_sp.o)
 .text.lm_sp_get_pairing_mode
                0x000000001003de5e        0x8 ..\..\platform\libs\libbtstack.a(lm_sp.o)
                0x000000001003de5e                lm_sp_get_pairing_mode
 .text.lm_sp_set_pairing_mode
                0x000000001003de66       0x12 ..\..\platform\libs\libbtstack.a(lm_sp.o)
                0x000000001003de66                lm_sp_set_pairing_mode
 .text.lm_get_encap_pdu_data
                0x000000001003de78       0x66 ..\..\platform\libs\libbtstack.a(lm_sp.o)
                0x000000001003de78                lm_get_encap_pdu_data
 .text.lm_set_encap_pdu_data
                0x000000001003dede      0x122 ..\..\platform\libs\libbtstack.a(lm_sp.o)
                0x000000001003dede                lm_set_encap_pdu_data
 .text.lm_check_encap_pdu_hdr
                0x000000001003e000       0x14 ..\..\platform\libs\libbtstack.a(lm_sp.o)
                0x000000001003e000                lm_check_encap_pdu_hdr
 .text.lm_get_auth_method
                0x000000001003e014       0x5e ..\..\platform\libs\libbtstack.a(lm_sp.o)
                0x000000001003e014                lm_get_auth_method
 .text.lm_is_debug_key
                0x000000001003e072       0x1e ..\..\platform\libs\libbtstack.a(lm_sp.o)
                0x000000001003e072                lm_is_debug_key
 .text.lm_get_nonce
                0x000000001003e090       0x72 ..\..\platform\libs\libbtstack.a(lm_sp.o)
                0x000000001003e090                lm_get_nonce
 .text.lm_compare_commit
                0x000000001003e102       0x18 ..\..\platform\libs\libbtstack.a(lm_sp.o)
                0x000000001003e102                lm_compare_commit
 .text.lm_dhkey_check_compare
                0x000000001003e11a       0x18 ..\..\platform\libs\libbtstack.a(lm_sp.o)
                0x000000001003e11a                lm_dhkey_check_compare
 .text.lm_passkey_req
                0x000000001003e132       0x36 ..\..\platform\libs\libbtstack.a(lm_sp.o)
                0x000000001003e132                lm_passkey_req
 .text.lm_get_passkey_bit
                0x000000001003e168       0x12 ..\..\platform\libs\libbtstack.a(lm_sp.o)
                0x000000001003e168                lm_get_passkey_bit
 .text.lm_passkey_generate
                0x000000001003e17a       0x20 ..\..\platform\libs\libbtstack.a(lm_sp.o)
                0x000000001003e17a                lm_passkey_generate
 .text.lm_sp_32bits_to_array
                0x000000001003e19a       0x3e ..\..\platform\libs\libbtstack.a(lm_sp.o)
                0x000000001003e19a                lm_sp_32bits_to_array
 .text.lm_get_oob_local_commit
                0x000000001003e1d8       0x2e ..\..\platform\libs\libbtstack.a(lm_sp.o)
                0x000000001003e1d8                lm_get_oob_local_commit
 .text.lm_f1    0x000000001003e206      0x1ae ..\..\platform\libs\libbtstack.a(lm_sp.o)
                0x000000001003e206                lm_f1
 .text.lm_oob_f1
                0x000000001003e3b4      0x1b6 ..\..\platform\libs\libbtstack.a(lm_sp.o)
                0x000000001003e3b4                lm_oob_f1
 .text.lm_init_sp
                0x000000001003e56a       0x72 ..\..\platform\libs\libbtstack.a(lm_sp.o)
                0x000000001003e56a                lm_init_sp
 .text.lm_sp_set_debug_pairing_mode
                0x000000001003e5dc       0x34 ..\..\platform\libs\libbtstack.a(lm_sp.o)
                0x000000001003e5dc                lm_sp_set_debug_pairing_mode
 .text.lm_g     0x000000001003e610       0xf0 ..\..\platform\libs\libbtstack.a(lm_sp.o)
                0x000000001003e610                lm_g
 .text.lm_f3    0x000000001003e700      0x212 ..\..\platform\libs\libbtstack.a(lm_sp.o)
                0x000000001003e700                lm_f3
 .text.lm_f2    0x000000001003e912      0x1e4 ..\..\platform\libs\libbtstack.a(lm_sp.o)
                0x000000001003e912                lm_f2
 .text.lm_dhkey_calc_init
                0x000000001003eaf6       0xb6 ..\..\platform\libs\libbtstack.a(lm_sp.o)
                0x000000001003eaf6                lm_dhkey_calc_init
 .text.lm_dhkey_compare
                0x000000001003ebac      0x12a ..\..\platform\libs\libbtstack.a(lm_sp.o)
                0x000000001003ebac                lm_dhkey_compare
 .text.lm_sp_dhkey_get_buffer_idx
                0x000000001003ecd6       0x1e ..\..\platform\libs\libbtstack.a(lm_sp.o)
                0x000000001003ecd6                lm_sp_dhkey_get_buffer_idx
 .text.lm_sp_dhkey_free_buffer
                0x000000001003ecf4        0xa ..\..\platform\libs\libbtstack.a(lm_sp.o)
                0x000000001003ecf4                lm_sp_dhkey_free_buffer
 .text.lm_util_get_offset_clkn
                0x000000001003ecfe       0x14 ..\..\platform\libs\libbtstack.a(lm_util.o)
                0x000000001003ecfe                lm_util_get_offset_clkn
 .text.lm_util_get_offset_clke
                0x000000001003ed12       0x10 ..\..\platform\libs\libbtstack.a(lm_util.o)
                0x000000001003ed12                lm_util_get_offset_clke
 .text.lm_util_update_event
                0x000000001003ed22       0x2c ..\..\platform\libs\libbtstack.a(lm_util.o)
                0x000000001003ed22                lm_util_update_event
 .text.lm_util_add_event
                0x000000001003ed4e      0x28c ..\..\platform\libs\libbtstack.a(lm_util.o)
                0x000000001003ed4e                lm_util_add_event
 .text.lm_util_delete_event
                0x000000001003efda       0x52 ..\..\platform\libs\libbtstack.a(lm_util.o)
                0x000000001003efda                lm_util_delete_event
 .text.lm_util_init_events
                0x000000001003f02c       0x2c ..\..\platform\libs\libbtstack.a(lm_util.o)
                0x000000001003f02c                lm_util_init_events
 .text.LM_ComputePacketType
                0x000000001003f058       0x20 ..\..\platform\libs\libbtstack.a(lm_util.o)
                0x000000001003f058                LM_ComputePacketType
 .text.LM_UpdateAclPacketType
                0x000000001003f078       0x70 ..\..\platform\libs\libbtstack.a(lm_util.o)
                0x000000001003f078                LM_UpdateAclPacketType
 .text.LM_UpdateAclEdrPacketType
                0x000000001003f0e8       0xbc ..\..\platform\libs\libbtstack.a(lm_util.o)
                0x000000001003f0e8                LM_UpdateAclEdrPacketType
 .text.LM_SuppressAclPacket
                0x000000001003f1a4       0x4e ..\..\platform\libs\libbtstack.a(lm_util.o)
                0x000000001003f1a4                LM_SuppressAclPacket
 .text.LM_GetInquiryPeriod
                0x000000001003f1f2       0x28 ..\..\platform\libs\libbtstack.a(lm_util.o)
                0x000000001003f1f2                LM_GetInquiryPeriod
 .text.LM_FormatEirResp
                0x000000001003f21a       0x46 ..\..\platform\libs\libbtstack.a(lm_util.o)
                0x000000001003f21a                LM_FormatEirResp
 .text.LM_SetPINType
                0x000000001003f260        0x8 ..\..\platform\libs\libbtstack.a(lm_util.o)
                0x000000001003f260                LM_SetPINType
 .text.LM_GetPINType
                0x000000001003f268        0x8 ..\..\platform\libs\libbtstack.a(lm_util.o)
                0x000000001003f268                LM_GetPINType
 .text.LM_GetConnectionAcceptTimeout
                0x000000001003f270        0x8 ..\..\platform\libs\libbtstack.a(lm_util.o)
                0x000000001003f270                LM_GetConnectionAcceptTimeout
 .text.LM_GetAuthenticationEnable
                0x000000001003f278        0x8 ..\..\platform\libs\libbtstack.a(lm_util.o)
                0x000000001003f278                LM_GetAuthenticationEnable
 .text.LM_GetLocalNameSeg
                0x000000001003f280       0x6a ..\..\platform\libs\libbtstack.a(lm_util.o)
                0x000000001003f280                LM_GetLocalNameSeg
 .text.LM_StoreRemoteNameSeg
                0x000000001003f2ea       0x4c ..\..\platform\libs\libbtstack.a(lm_util.o)
                0x000000001003f2ea                LM_StoreRemoteNameSeg
 .text.LM_MakeRandVec
                0x000000001003f336       0x30 ..\..\platform\libs\libbtstack.a(lm_util.o)
                0x000000001003f336                LM_MakeRandVec
 .text.LM_MaxSlot
                0x000000001003f366       0x5a ..\..\platform\libs\libbtstack.a(lm_util.o)
                0x000000001003f366                LM_MaxSlot
 .text.LM_CreateUnitKey
                0x000000001003f3c0       0x34 ..\..\platform\libs\libbtstack.a(lm_util.o)
                0x000000001003f3c0                LM_CreateUnitKey
 .text.LM_GetUnitKey
                0x000000001003f3f4       0x10 ..\..\platform\libs\libbtstack.a(lm_util.o)
                0x000000001003f3f4                LM_GetUnitKey
 .text.LM_GetMinEncKeySize
                0x000000001003f404        0x8 ..\..\platform\libs\libbtstack.a(lm_util.o)
                0x000000001003f404                LM_GetMinEncKeySize
 .text.LM_GetMaxEncKeySize
                0x000000001003f40c        0x8 ..\..\platform\libs\libbtstack.a(lm_util.o)
                0x000000001003f40c                LM_GetMaxEncKeySize
 .text.LM_GetEncryptionKeySizeMask
                0x000000001003f414       0x2e ..\..\platform\libs\libbtstack.a(lm_util.o)
                0x000000001003f414                LM_GetEncryptionKeySizeMask
 .text.LM_GetPreferredKey
                0x000000001003f442        0x8 ..\..\platform\libs\libbtstack.a(lm_util.o)
                0x000000001003f442                LM_GetPreferredKey
 .text.LM_GetSwitchInstant
                0x000000001003f44a       0x4a ..\..\platform\libs\libbtstack.a(lm_util.o)
                0x000000001003f44a                LM_GetSwitchInstant
 .text.LM_GetMasterKey
                0x000000001003f494       0x10 ..\..\platform\libs\libbtstack.a(lm_util.o)
                0x000000001003f494                LM_GetMasterKey
 .text.LM_GetMasterKeyRand
                0x000000001003f4a4       0x10 ..\..\platform\libs\libbtstack.a(lm_util.o)
                0x000000001003f4a4                LM_GetMasterKeyRand
 .text.LM_KeyToPin
                0x000000001003f4b4       0x1a ..\..\platform\libs\libbtstack.a(lm_util.o)
                0x000000001003f4b4                LM_KeyToPin
 .text.LM_GetMasterEncRand
                0x000000001003f4ce       0x10 ..\..\platform\libs\libbtstack.a(lm_util.o)
                0x000000001003f4ce                LM_GetMasterEncRand
 .text.LM_GetMasterEncKeySize
                0x000000001003f4de       0x12 ..\..\platform\libs\libbtstack.a(lm_util.o)
                0x000000001003f4de                LM_GetMasterEncKeySize
 .text.LM_MakeCof
                0x000000001003f4f0       0x24 ..\..\platform\libs\libbtstack.a(lm_util.o)
                0x000000001003f4f0                LM_MakeCof
 .text.lm_look_for_stored_link_key
                0x000000001003f514        0x4 ..\..\platform\libs\libbtstack.a(lm_util.o)
                0x000000001003f514                lm_look_for_stored_link_key
 .text.LM_ComputeAFHSwitchInstant
                0x000000001003f518       0x14 ..\..\platform\libs\libbtstack.a(lm_util.o)
                0x000000001003f518                LM_ComputeAFHSwitchInstant
 .text.LM_GetAFHSwitchInstant
                0x000000001003f52c       0x5a ..\..\platform\libs\libbtstack.a(lm_util.o)
                0x000000001003f52c                LM_GetAFHSwitchInstant
 .text.LM_GetFeature
                0x000000001003f586       0x2a ..\..\platform\libs\libbtstack.a(lm_util.o)
                0x000000001003f586                LM_GetFeature
 .text.LM_CheckSwitchInstant
                0x000000001003f5b0       0x42 ..\..\platform\libs\libbtstack.a(lm_util.o)
                0x000000001003f5b0                LM_CheckSwitchInstant
 .text.LM_GetDefaultPolicySettings
                0x000000001003f5f2        0x8 ..\..\platform\libs\libbtstack.a(lm_util.o)
                0x000000001003f5f2                LM_GetDefaultPolicySettings
 .text.LM_GetLocalSupportedCommands
                0x000000001003f5fa       0x2a ..\..\platform\libs\libbtstack.a(lm_util.o)
                0x000000001003f5fa                LM_GetLocalSupportedCommands
 .text.LM_CheckEdrFeatureRequest
                0x000000001003f624       0x10 ..\..\platform\libs\libbtstack.a(lm_util.o)
                0x000000001003f624                LM_CheckEdrFeatureRequest
 .text.LM_CheckTransactionID
                0x000000001003f634       0x1a ..\..\platform\libs\libbtstack.a(lm_util.o)
                0x000000001003f634                LM_CheckTransactionID
 .text.LM_CheckDisconnectParam
                0x000000001003f64e       0x48 ..\..\platform\libs\libbtstack.a(lm_util.o)
                0x000000001003f64e                LM_CheckDisconnectParam
 .text.buf.init
                0x000000001003f696       0xf8 ..\..\platform\libs\libbtstack.a(bb_buf.o)
                0x000000001003f696                bb_buf_init
 .text.bb_buf_rx_free
                0x000000001003f78e       0x22 ..\..\platform\libs\libbtstack.a(bb_buf.o)
                0x000000001003f78e                bb_buf_rx_free
 .text.bb_slot_to_ticks
                0x000000001003f7b0       0x16 ..\..\platform\libs\libbtstack.a(bb_utils.o)
                0x000000001003f7b0                bb_slot_to_ticks
 .text.bb_conhdl_init
                0x000000001003f7c6       0x10 ..\..\platform\libs\libbtstack.a(bb_utils.o)
                0x000000001003f7c6                bb_conhdl_init
 .text.bb_conhdl_get
                0x000000001003f7d6       0x6e ..\..\platform\libs\libbtstack.a(bb_utils.o)
                0x000000001003f7d6                bb_conhdl_get
 .text.bb_conhdl_acl_create
                0x000000001003f844       0x3c ..\..\platform\libs\libbtstack.a(bb_utils.o)
                0x000000001003f844                bb_conhdl_acl_create
 .text.bb_conhdl_acl_delete
                0x000000001003f880       0x18 ..\..\platform\libs\libbtstack.a(bb_utils.o)
                0x000000001003f880                bb_conhdl_acl_delete
 .text.bb_conhdl_bdaddr_to_tid
                0x000000001003f898       0x24 ..\..\platform\libs\libbtstack.a(bb_utils.o)
                0x000000001003f898                bb_conhdl_bdaddr_to_tid
 .text.bb_conhdl_index_to_conhdl
                0x000000001003f8bc       0x1c ..\..\platform\libs\libbtstack.a(bb_utils.o)
                0x000000001003f8bc                bb_conhdl_index_to_conhdl
 .text.bb_conhdl_active
                0x000000001003f8d8       0x26 ..\..\platform\libs\libbtstack.a(bb_utils.o)
                0x000000001003f8d8                bb_conhdl_active
 .text.bb_conhdl_database_empty
                0x000000001003f8fe       0x14 ..\..\platform\libs\libbtstack.a(bb_utils.o)
                0x000000001003f8fe                bb_conhdl_database_empty
 .text.bb_conhdl_type_get
                0x000000001003f912       0x1a ..\..\platform\libs\libbtstack.a(bb_utils.o)
                0x000000001003f912                bb_conhdl_type_get
 .text.bb_conhdl_to_tid
                0x000000001003f92c       0x64 ..\..\platform\libs\libbtstack.a(bb_utils.o)
                0x000000001003f92c                bb_conhdl_to_tid
 .text.bb_conhdl_to_lid
                0x000000001003f990       0x3c ..\..\platform\libs\libbtstack.a(bb_utils.o)
                0x000000001003f990                bb_conhdl_to_lid
 .text.complexSubtract
                0x000000001003f9cc        0xa ..\..\platform\libs\libbtstack.a(complex.o)
                0x000000001003f9cc                complexSubtract
 .text.complexMultiply
                0x000000001003f9d6       0x1c ..\..\platform\libs\libbtstack.a(complex.o)
                0x000000001003f9d6                complexMultiply
 .text.complexDivision
                0x000000001003f9f2       0x6c ..\..\platform\libs\libbtstack.a(complex.o)
                0x000000001003f9f2                complexDivision
 .text.nanos_msg_save
                0x000000001003fa5e        0x4 ..\..\platform\libs\libbtstack.a(nanos.o)
                0x000000001003fa5e                nanos_msg_save
 .text.nanos_hook_init
                0x000000001003fa62       0x34 ..\..\platform\libs\libbtstack.a(nanos.o)
                0x000000001003fa62                nanos_hook_init
 .text.hci_unkcmd_ccevt_send
                0x000000001003fa96       0x4e ..\..\platform\libs\libbtstack.a(hcic.o)
 .text.hci_tx_start
                0x000000001003fae4      0x17a ..\..\platform\libs\libbtstack.a(hcic.o)
 .text.hci_tx_done
                0x000000001003fc5e       0x9e ..\..\platform\libs\libbtstack.a(hcic.o)
 .text.hci_host_buf_size_set
                0x000000001003fcfc       0x1a ..\..\platform\libs\libbtstack.a(hcic.o)
                0x000000001003fcfc                hci_host_buf_size_set
 .text.hci_pending_acl_reset
                0x000000001003fd16       0x76 ..\..\platform\libs\libbtstack.a(hcic.o)
                0x000000001003fd16                hci_pending_acl_reset
 .text.hci_get_cpk
                0x000000001003fd8c       0x48 ..\..\platform\libs\libbtstack.a(hcic.o)
                0x000000001003fd8c                hci_get_cpk
 .text.hci_cmd_alloc
                0x000000001003fdd4       0x3e ..\..\platform\libs\libbtstack.a(hcic.o)
                0x000000001003fdd4                hci_cmd_alloc
 .text.hci_cmd_dispatch_basic
                0x000000001003fe12       0x34 ..\..\platform\libs\libbtstack.a(hcic.o)
                0x000000001003fe12                hci_cmd_dispatch_basic
 .text.hci_cmd_dispatch
                0x000000001003fe46       0x56 ..\..\platform\libs\libbtstack.a(hcic.o)
                0x000000001003fe46                hci_cmd_dispatch
 .text.hcic_tx_done
                0x000000001003fe9c        0xa ..\..\platform\libs\libbtstack.a(hcic.o)
                0x000000001003fe9c                hcic_tx_done
 .text.hci_get_lc_taskid
                0x000000001003fea6      0x166 ..\..\platform\libs\libbtstack.a(hcic.o)
                0x000000001003fea6                hci_get_lc_taskid
 .text.hci_data_acl_alloc
                0x000000001004000c       0xde ..\..\platform\libs\libbtstack.a(hcic.o)
                0x000000001004000c                hci_data_acl_alloc
 .text.hci_data_acl_dispatch
                0x00000000100400ea       0xc2 ..\..\platform\libs\libbtstack.a(hcic.o)
                0x00000000100400ea                hci_data_acl_dispatch
 .text.hci_remove_remain_acl_cnt
                0x00000000100401ac       0x24 ..\..\platform\libs\libbtstack.a(hcic.o)
                0x00000000100401ac                hci_remove_remain_acl_cnt
 .text.hci_evt_mask_set
                0x00000000100401d0       0x4e ..\..\platform\libs\libbtstack.a(hcic.o)
                0x00000000100401d0                hci_evt_mask_set
 .text.hcic_reset
                0x000000001004021e       0x3e ..\..\platform\libs\libbtstack.a(hcic.o)
                0x000000001004021e                hcic_reset
 .text.hcic_init
                0x000000001004025c       0x7e ..\..\platform\libs\libbtstack.a(hcic.o)
                0x000000001004025c                hcic_init
 .text.hci_tx_trigger
                0x00000000100402da       0x12 ..\..\platform\libs\libbtstack.a(hcic.o)
                0x00000000100402da                hci_tx_trigger
 .text.hci_host_ack_pkt
                0x00000000100402ec       0xcc ..\..\platform\libs\libbtstack.a(hcic.o)
                0x00000000100402ec                hci_host_ack_pkt
 .text.hcic_send_command
                0x00000000100403b8       0x9e ..\..\platform\libs\libbtstack.a(hcic.o)
                0x00000000100403b8                hcic_send_command
 .text.hcic_acl_segment
                0x0000000010040456       0xb6 ..\..\platform\libs\libbtstack.a(hcic.o)
                0x0000000010040456                hcic_acl_segment
 .text.hci_cmd_aligned_unpk
                0x000000001004050c        0xa ..\..\platform\libs\libbtstack.a(hcic_msg.o)
                0x000000001004050c                hci_cmd_aligned_unpk
 .text.hci_lc_basic_cmd_unpk
                0x0000000010040516       0x42 ..\..\platform\libs\libbtstack.a(hcic_msg.o)
                0x0000000010040516                hci_lc_basic_cmd_unpk
 .text.hci_ccevt_hdr_pk
                0x0000000010040558       0x62 ..\..\platform\libs\libbtstack.a(hcic_msg.o)
                0x0000000010040558                hci_ccevt_hdr_pk
 .text.hci_csevt_pk
                0x00000000100405ba       0x56 ..\..\platform\libs\libbtstack.a(hcic_msg.o)
                0x00000000100405ba                hci_csevt_pk
 .text.hci_sp_ccevt_hdr_pk
                0x0000000010040610       0x1c ..\..\platform\libs\libbtstack.a(hcic_msg.o)
                0x0000000010040610                hci_sp_ccevt_hdr_pk
 .text.hci_polling_to_handler
                0x000000001004062c       0x16 ..\..\platform\libs\libbtstack.a(hcic_proc.o)
 .text.hci_get_epk
                0x0000000010040642       0x84 ..\..\platform\libs\libbtstack.a(hcic_proc.o)
                0x0000000010040642                hci_get_epk
 .text.hci_msg_send_handler
                0x00000000100406c6       0xd4 ..\..\platform\libs\libbtstack.a(hcic_proc.o)
 .text.vs_init  0x000000001004079a       0x46 ..\..\platform\libs\libbtstack.a(vs.o)
                0x000000001004079a                vs_init
 .text.vs_test_to_handler
                0x00000000100407e0        0x4 ..\..\platform\libs\libbtstack.a(vs_proc.o)
 .text.vs_hw_reg_rd_req_handler
                0x00000000100407e4       0x84 ..\..\platform\libs\libbtstack.a(vs_proc.o)
 .text.vs_hw_reg_wr_req_handler
                0x0000000010040868       0xa2 ..\..\platform\libs\libbtstack.a(vs_proc.o)
 .text.vs_set_bd_addr_req_handler
                0x000000001004090a       0x3c ..\..\platform\libs\libbtstack.a(vs_proc.o)
 .text.vs_test_ctrl_req_handler
                0x0000000010040946      0x284 ..\..\platform\libs\libbtstack.a(vs_proc.o)
 .text.vs_send_lmp_req_handler
                0x0000000010040bca       0x4c ..\..\platform\libs\libbtstack.a(vs_proc.o)
 .text.vs_enter_tst_mode_req_handler
                0x0000000010040c16       0x44 ..\..\platform\libs\libbtstack.a(vs_proc.o)
 .text.vs_rf_reg_wr_req_handler
                0x0000000010040c5a       0x7e ..\..\platform\libs\libbtstack.a(vs_proc.o)
 .text.vs_rf_reg_rd_req_handler
                0x0000000010040cd8       0x7c ..\..\platform\libs\libbtstack.a(vs_proc.o)
 .text.vs_wr_mem_req_handler
                0x0000000010040d54       0x7c ..\..\platform\libs\libbtstack.a(vs_proc.o)
 .text.vs_rd_mem_req_handler
                0x0000000010040dd0       0x9a ..\..\platform\libs\libbtstack.a(vs_proc.o)
 .text.dummy_func
                0x0000000010040e6a        0x2 ..\..\platform\libs\libbtstack.a(btstack_api.o)
 .text.btstack_disconnect_for_handle
                0x0000000010040e6c       0xaa ..\..\platform\libs\libbtstack.a(btstack_api.o)
 *fill*         0x0000000010040f16       0xea 
 .text.stack.api
                0x0000000010041000      0xe86 ..\..\platform\libs\libbtstack.a(btstack_api.o)
                0x0000000010041000                btstack_disconnect
                0x0000000010041158                btstack_call_private_swich
                0x00000000100411d4                btstack_scan_enable
                0x0000000010041258                btstack_scan_disable
                0x0000000010041298                btstack_tws_scan_enable
                0x00000000100412d6                btstack_tws_scan_disable
                0x0000000010041314                btstack_hid_connect
                0x000000001004139c                btstack_nor_disconnect
                0x00000000100413d4                btstack_hid_disconnect
                0x000000001004147a                btstack_call_redial
                0x00000000100414c8                btstack_call_answer_incom
                0x00000000100414f0                btstack_call_terminate
                0x0000000010041596                btstack_call_swap
                0x0000000010041602                btstack_report_bat_state
                0x000000001004162a                btstack_set_hfp_mic_gain
                0x000000001004164a                btstack_switch_siri
                0x000000001004167c                bt_init
                0x00000000100416ba                btstack_off
                0x00000000100416d2                btstack_connect_for_bd_addr
                0x0000000010041786                btstack_connect
                0x000000001004182a                btstack_play_pause
                0x0000000010041856                btstack_tws_disconnect_do
                0x000000001004188a                btstack_tws_disconnect
                0x000000001004188e                bt_hid_is_ready_to_discon
                0x0000000010041900                bt_get_status_do
                0x0000000010041a2c                btstack_set_l2cap_status
                0x0000000010041bb0                bt_get_call_indicate
                0x0000000010041c64                btstack_player_ctrl
                0x0000000010041c94                bt_is_playing
                0x0000000010041cae                bt_is_ios_device
                0x0000000010041cca                bt_is_ring
                0x0000000010041d0e                bt_is_connected
                0x0000000010041d28                bt_nor_is_connected
                0x0000000010041d48                bt_tws_is_connected
                0x0000000010041d64                btstack_volume_change_do
                0x0000000010041d7e                btstack_volume_change
                0x0000000010041dcc                btstack_set_hfp_spk_gain
                0x0000000010041e12                btstack_get_bt_scan_en
 .text.btstack_tws_key
                0x0000000010041e86       0x36 ..\..\platform\libs\libbtstack.a(btstack_api.o)
 .text.btstack_tws_slave_key
                0x0000000010041ebc       0x18 ..\..\platform\libs\libbtstack.a(btstack_api.o)
 .text.stack.handler
                0x0000000010041ed4       0x42 ..\..\platform\libs\libbtstack.a(btstack_api.o)
 .text.btstack_audio_bypass
                0x0000000010041f16       0x62 ..\..\platform\libs\libbtstack.a(btstack_api.o)
                0x0000000010041f16                btstack_audio_bypass
 .text.btstack_audio_enable
                0x0000000010041f78       0x72 ..\..\platform\libs\libbtstack.a(btstack_api.o)
                0x0000000010041f78                btstack_audio_enable
 .text.stack.sleep
                0x0000000010041fea       0x2e ..\..\platform\libs\libbtstack.a(btstack_api.o)
                0x0000000010041fea                bt_enter_sleep
                0x0000000010041ffa                bt_exit_sleep
 .text.btstack_establish_service_connection
                0x0000000010042018       0x66 ..\..\platform\libs\libbtstack.a(btstack_api.o)
                0x0000000010042018                btstack_establish_service_connection
 .text.btstack_continue_establish_service_connection
                0x000000001004207e       0xa8 ..\..\platform\libs\libbtstack.a(btstack_api.o)
                0x000000001004207e                btstack_continue_establish_service_connection
 .text.btstack_tws_connect
                0x0000000010042126       0x82 ..\..\platform\libs\libbtstack.a(btstack_api.o)
                0x0000000010042126                btstack_tws_connect
 .text.btstack_nor_connect
                0x00000000100421a8       0x6c ..\..\platform\libs\libbtstack.a(btstack_api.o)
                0x00000000100421a8                btstack_nor_connect
 .text.btstack_tws_disc_continue
                0x0000000010042214       0x70 ..\..\platform\libs\libbtstack.a(btstack_api.o)
                0x0000000010042214                btstack_tws_disc_continue
 .text.btstack_clr_dis_flag
                0x0000000010042284       0x20 ..\..\platform\libs\libbtstack.a(btstack_api.o)
                0x0000000010042284                btstack_clr_dis_flag
 .text.btstack_get_ext_feature
                0x00000000100422a4       0x48 ..\..\platform\libs\libbtstack.a(btstack_api.o)
                0x00000000100422a4                btstack_get_ext_feature
 .text.btstack_clr_l2cap_status
                0x00000000100422ec       0xb6 ..\..\platform\libs\libbtstack.a(btstack_api.o)
                0x00000000100422ec                btstack_clr_l2cap_status
 .text.btstack_set_hfp_status_ptr
                0x00000000100423a2       0x30 ..\..\platform\libs\libbtstack.a(btstack_api.o)
                0x00000000100423a2                btstack_set_hfp_status_ptr
 .text.btstack_clr_hfp_status_ptr
                0x00000000100423d2       0x4a ..\..\platform\libs\libbtstack.a(btstack_api.o)
                0x00000000100423d2                btstack_clr_hfp_status_ptr
 .text.stack.setup
                0x000000001004241c       0xe8 ..\..\platform\libs\libbtstack.a(btstack_api.o)
                0x000000001004241c                btstack_setup
 .text.btstack_tws_search_slave
                0x0000000010042504       0x26 ..\..\platform\libs\libbtstack.a(btstack_api.o)
                0x0000000010042504                btstack_tws_search_slave
 .text.btstack_wait_wakeup
                0x000000001004252a       0x74 ..\..\platform\libs\libbtstack.a(btstack_api.o)
                0x000000001004252a                btstack_wait_wakeup
 .text.btstack_sco_setup
                0x000000001004259e       0xd2 ..\..\platform\libs\libbtstack.a(btstack_api.o)
                0x000000001004259e                btstack_sco_setup
 .text.btstack_sco_kill
                0x0000000010042670       0xb8 ..\..\platform\libs\libbtstack.a(btstack_api.o)
                0x0000000010042670                btstack_sco_kill
 .text.btstack_audio_is_busy
                0x0000000010042728       0x14 ..\..\platform\libs\libbtstack.a(btstack_api.o)
                0x0000000010042728                btstack_audio_is_busy
 .text.btstack_audio_set_busy
                0x000000001004273c        0xe ..\..\platform\libs\libbtstack.a(btstack_api.o)
                0x000000001004273c                btstack_audio_set_busy
 .text.btstack_plc_is_on
                0x000000001004274a        0xe ..\..\platform\libs\libbtstack.a(btstack_api.o)
                0x000000001004274a                btstack_plc_is_on
 .text.btstack_set_lmp_test
                0x0000000010042758       0x14 ..\..\platform\libs\libbtstack.a(btstack_api.o)
                0x0000000010042758                btstack_set_lmp_test
 .text.btstack_tws_hfp_vol
                0x000000001004276c       0x1c ..\..\platform\libs\libbtstack.a(btstack_api.o)
                0x000000001004276c                btstack_tws_hfp_vol
 .text.tws_remote_is_busy
                0x0000000010042788       0x26 ..\..\platform\libs\libbtstack.a(btstack_api.o)
                0x0000000010042788                tws_remote_is_busy
 .text.tws_remote_set_key
                0x00000000100427ae       0xf8 ..\..\platform\libs\libbtstack.a(btstack_api.o)
                0x00000000100427ae                tws_remote_set_key
 .text.tws_remote_set_status
                0x00000000100428a6      0x104 ..\..\platform\libs\libbtstack.a(btstack_api.o)
                0x00000000100428a6                tws_remote_set_status
 .text.tws_remote_set_profile_status
                0x00000000100429aa       0x2a ..\..\platform\libs\libbtstack.a(btstack_api.o)
                0x00000000100429aa                tws_remote_set_profile_status
 .text.btstack_get_conn_feature
                0x00000000100429d4       0xa4 ..\..\platform\libs\libbtstack.a(btstack_api.o)
                0x00000000100429d4                btstack_get_conn_feature
 .text.btstack_set_conn_feature
                0x0000000010042a78       0x20 ..\..\platform\libs\libbtstack.a(btstack_api.o)
                0x0000000010042a78                btstack_set_conn_feature
 .text.btstack_get_guid
                0x0000000010042a98       0x5e ..\..\platform\libs\libbtstack.a(btstack_api.o)
                0x0000000010042a98                btstack_get_guid
 .text.btstack_cmp_guid
                0x0000000010042af6       0x78 ..\..\platform\libs\libbtstack.a(btstack_api.o)
                0x0000000010042af6                btstack_cmp_guid
 .text.btstack_get_tws_scan_en
                0x0000000010042b6e       0x28 ..\..\platform\libs\libbtstack.a(btstack_api.o)
                0x0000000010042b6e                btstack_get_tws_scan_en
 .text.btstack_get_tws_info
                0x0000000010042b96        0x6 ..\..\platform\libs\libbtstack.a(btstack_api.o)
                0x0000000010042b96                btstack_get_tws_info
 .text.btstack_set_tws_info
                0x0000000010042b9c        0xa ..\..\platform\libs\libbtstack.a(btstack_api.o)
                0x0000000010042b9c                btstack_set_tws_info
 .text.btstack_tws_is_need_discon
                0x0000000010042ba6        0x4 ..\..\platform\libs\libbtstack.a(btstack_api.o)
                0x0000000010042ba6                btstack_tws_is_need_discon
 .text.chipset_init
                0x0000000010042baa        0x2 ..\..\platform\libs\libbtstack.a(btstack_chipset_inner.o)
 .text.chipset_set_bd_addr_command
                0x0000000010042bac       0x18 ..\..\platform\libs\libbtstack.a(btstack_chipset_inner.o)
 .text.btstack_chipset_inner_instance
                0x0000000010042bc4        0xa ..\..\platform\libs\libbtstack.a(btstack_chipset_inner.o)
                0x0000000010042bc4                btstack_chipset_inner_instance
 .text.btstack_ble_send
                0x0000000010042bce        0x2 ..\..\platform\libs\libbtstack.a(btstack_gatt_server.o)
                0x0000000010042bce                btstack_ble_send
 .text.dummy_handler
                0x0000000010042bd0        0x2 ..\..\platform\libs\libbtstack.a(btstack_hal.o)
 .text.hal_tick_init
                0x0000000010042bd2        0x2 ..\..\platform\libs\libbtstack.a(btstack_hal.o)
                0x0000000010042bd2                hal_tick_init
 .text.hal_tick_set_handler
                0x0000000010042bd4       0x1a ..\..\platform\libs\libbtstack.a(btstack_hal.o)
                0x0000000010042bd4                hal_tick_set_handler
 .text.stack.handler
                0x0000000010042bee      0x116 ..\..\platform\libs\libbtstack.a(btstack_main.o)
 .text.stack.setup
                0x0000000010042d04      0x160 ..\..\platform\libs\libbtstack.a(btstack_main.o)
                0x0000000010042d04                btstack_main
 .text.stack.hcic
                0x0000000010042e64      0x12a ..\..\platform\libs\libbtstack.a(hci_transport_hcic.o)
                0x0000000010042e66                hcic_register_packet_handler
                0x0000000010042e6e                hcic_send_packet
                0x0000000010042ed8                hcic_close
                0x0000000010042f50                hcic_open
 .text.hcic_recv_packet
                0x0000000010042f8e       0x1a ..\..\platform\libs\libbtstack.a(hci_transport_hcic.o)
                0x0000000010042f8e                hcic_recv_packet
 .text.hci_init_var
                0x0000000010042fa8       0x10 ..\..\platform\libs\libbtstack.a(hci_transport_hcic.o)
                0x0000000010042fa8                hci_init_var
 .text.bt_sniff_featuer_disable
                0x0000000010042fb8        0x4 ..\..\platform\libs\libbtstack.a(weak_symbol.o)
                0x0000000010042fb8                bt_sniff_featuer_disable
 .text.bt_force_super_fast_status
                0x0000000010042fbc        0x4 ..\..\platform\libs\libbtstack.a(weak_symbol.o)
                0x0000000010042fbc                bt_force_super_fast_status
 .text.bt_support_ios_fast_status
                0x0000000010042fc0        0x4 ..\..\platform\libs\libbtstack.a(weak_symbol.o)
                0x0000000010042fc0                bt_support_ios_fast_status
 .text.bt_hid_get_compatibility
                0x0000000010042fc4        0x4 ..\..\platform\libs\libbtstack.a(weak_symbol.o)
                0x0000000010042fc4                bt_hid_get_compatibility
 .text.bt_get_class_of_device
                0x0000000010042fc8       0x3a ..\..\platform\libs\libbtstack.a(weak_symbol.o)
                0x0000000010042fc8                bt_get_class_of_device
 .text.bt_get_pin_code
                0x0000000010043002        0xa ..\..\platform\libs\libbtstack.a(weak_symbol.o)
                0x0000000010043002                bt_get_pin_code
 .text.bt_reconn_paly
                0x000000001004300c        0x4 ..\..\platform\libs\libbtstack.a(weak_symbol.o)
                0x000000001004300c                bt_reconn_paly
 .text.bt_get_remote_guid
                0x0000000010043010        0x4 ..\..\platform\libs\libbtstack.a(weak_symbol.o)
                0x0000000010043010                bt_get_remote_guid
 .text.bt_tws_slave_dis_scan
                0x0000000010043014        0x4 ..\..\platform\libs\libbtstack.a(weak_symbol.o)
                0x0000000010043014                bt_tws_slave_dis_scan
 .text.bt_tws_get_force_role
                0x0000000010043018        0x4 ..\..\platform\libs\libbtstack.a(weak_symbol.o)
                0x0000000010043018                bt_tws_get_force_role
 .text.bt_tws_is_chk_link
                0x000000001004301c        0x4 ..\..\platform\libs\libbtstack.a(weak_symbol.o)
                0x000000001004301c                bt_tws_is_chk_link
 .text.bt_tsco_is_en
                0x0000000010043020        0x4 ..\..\platform\libs\libbtstack.a(weak_symbol.o)
                0x0000000010043020                bt_tsco_is_en
 .text.stack.linkctrl
                0x0000000010043024      0x22c ..\..\platform\libs\libbtstack.a(btstack_link_ctrl.o)
                0x0000000010043024                get_link_ctrl_context_for_bd_addr
                0x0000000010043082                remove_link_ctrl_context
                0x00000000100430f8                remove_waiting_link_ctrl_context_for_bd_addr
                0x0000000010043168                provide_link_ctrl_context_for_bd_addr
 .text.btstack_link_ctrl_stop_timer
                0x0000000010043250       0x1e ..\..\platform\libs\libbtstack.a(btstack_link_ctrl.o)
                0x0000000010043250                btstack_link_ctrl_stop_timer
 .text.btstack_link_ctrl_set_timer
                0x000000001004326e       0x3a ..\..\platform\libs\libbtstack.a(btstack_link_ctrl.o)
                0x000000001004326e                btstack_link_ctrl_set_timer
 .text.link_ctrl_timer_handler
                0x00000000100432a8       0x98 ..\..\platform\libs\libbtstack.a(btstack_link_ctrl.o)
                0x00000000100432a8                link_ctrl_timer_handler
 .text.btstack_link_ctrl_get_num
                0x0000000010043340       0x1e ..\..\platform\libs\libbtstack.a(btstack_link_ctrl.o)
                0x0000000010043340                btstack_link_ctrl_get_num
 .text.btstack_link_ctrl_get_recon_sta
                0x000000001004335e       0x2e ..\..\platform\libs\libbtstack.a(btstack_link_ctrl.o)
                0x000000001004335e                btstack_link_ctrl_get_recon_sta
 .text.btstack_link_ctrl_get_links
                0x000000001004338c        0x8 ..\..\platform\libs\libbtstack.a(btstack_link_ctrl.o)
                0x000000001004338c                btstack_link_ctrl_get_links
 .text.stack.setup
                0x0000000010043394       0x14 ..\..\platform\libs\libbtstack.a(btstack_link_ctrl.o)
                0x0000000010043394                btstack_link_ctrl_init
 .text.stack.memory
                0x00000000100433a8       0x6c ..\..\platform\libs\libbtstack.a(btstack_memory.o)
                0x00000000100433a8                btstack_memory_l2cap_service_get
                0x00000000100433b0                btstack_memory_l2cap_service_free
                0x00000000100433ba                btstack_memory_l2cap_channel_get
                0x00000000100433c2                btstack_memory_l2cap_channel_free
                0x00000000100433cc                btstack_memory_rfcomm_multiplexer_get
                0x00000000100433d4                btstack_memory_rfcomm_multiplexer_free
                0x00000000100433de                btstack_memory_rfcomm_service_get
                0x00000000100433e6                btstack_memory_rfcomm_service_free
                0x00000000100433f0                btstack_memory_rfcomm_channel_get
                0x00000000100433f8                btstack_memory_rfcomm_channel_free
                0x0000000010043402                btstack_memory_service_record_item_get
                0x000000001004340a                btstack_memory_service_record_item_free
 .text.stack.setup
                0x0000000010043414       0x78 ..\..\platform\libs\libbtstack.a(btstack_memory.o)
                0x0000000010043414                btstack_memory_init
 .text.stack.memory
                0x000000001004348c       0x58 ..\..\platform\libs\libbtstack.a(btstack_memory_pool.o)
                0x000000001004348c                btstack_memory_pool_get
                0x0000000010043498                btstack_memory_pool_free
                0x00000000100434ac                btstack_memory_pool_create
 *fill*         0x00000000100434e4       0x1c 
 .text.stack.run_loop
                0x0000000010043500      0x176 ..\..\platform\libs\libbtstack.a(btstack_run_loop.o)
                0x0000000010043500                btstack_run_loop_set_timer_handler
                0x0000000010043504                btstack_run_loop_set_data_source_handler
                0x0000000010043508                btstack_run_loop_set_data_source_fd
                0x000000001004350c                btstack_run_loop_get_data_source_fd
                0x0000000010043510                btstack_run_loop_enable_data_source_callbacks
                0x000000001004351c                btstack_run_loop_disable_data_source_callbacks
                0x000000001004352c                btstack_run_loop_add_data_source
                0x0000000010043538                btstack_run_loop_remove_data_source
                0x0000000010043544                btstack_run_loop_set_timer
                0x000000001004355a                btstack_run_loop_set_timer_context
                0x000000001004355e                btstack_run_loop_get_timer_context
                0x0000000010043580                btstack_run_loop_set_trig_ticks
                0x00000000100435c0                btstack_run_loop_add_timer
                0x00000000100435ee                btstack_run_loop_remove_timer
                0x000000001004361c                btstack_run_loop_get_ticks
                0x0000000010043626                btstack_run_loop_ticks_for_ms
                0x000000001004362a                btstack_run_loop_get_time_ms
                0x0000000010043636                btstack_run_loop_timer_dump
 .text.stack.setup
                0x0000000010043676       0x32 ..\..\platform\libs\libbtstack.a(btstack_run_loop.o)
                0x0000000010043676                btstack_run_loop_init
 .text.btstack_tws_set_timer
                0x00000000100436a8       0x50 ..\..\platform\libs\libbtstack.a(btstack_tws.o)
 .text.btstack_tws_connect
                0x00000000100436f8       0xe8 ..\..\platform\libs\libbtstack.a(btstack_tws.o)
 .text.btstack_nor_connect
                0x00000000100437e0       0x6e ..\..\platform\libs\libbtstack.a(btstack_tws.o)
 .text.btstack_tws_stop_timer
                0x000000001004384e       0x26 ..\..\platform\libs\libbtstack.a(btstack_tws.o)
 .text.tws_start_inq
                0x0000000010043874       0x6e ..\..\platform\libs\libbtstack.a(btstack_tws.o)
 .text.tws_start_pair
                0x00000000100438e2      0x144 ..\..\platform\libs\libbtstack.a(btstack_tws.o)
 .text.btstack_tws_timer_handler
                0x0000000010043a26      0x11c ..\..\platform\libs\libbtstack.a(btstack_tws.o)
 .text.btstack_tws_continue_connect
                0x0000000010043b42       0xd6 ..\..\platform\libs\libbtstack.a(btstack_tws.o)
 .text.stack.handler
                0x0000000010043c18      0x6ca ..\..\platform\libs\libbtstack.a(btstack_tws.o)
 .text.tws.init
                0x00000000100442e2       0x5e ..\..\platform\libs\libbtstack.a(btstack_tws.o)
                0x00000000100442e2                btstack_tws_init
 .text.stack.util
                0x0000000010044340      0x14a ..\..\platform\libs\libbtstack.a(btstack_util.o)
                0x0000000010044340                bd_addr_cmp
                0x000000001004434a                bd_addr_copy
                0x0000000010044354                big_endian_read_16
                0x0000000010044364                big_endian_read_32
                0x0000000010044384                big_endian_store_16
                0x000000001004439e                big_endian_store_32
                0x00000000100443dc                reverse_bytes
                0x00000000100443f8                reverse_24
                0x00000000100443fc                reverse_56
                0x0000000010044400                reverse_64
                0x0000000010044404                reverse_128
                0x0000000010044408                reverse_256
                0x000000001004440e                reverse_bd_addr
                0x0000000010044412                reverse_48
                0x0000000010044414                btstack_min
                0x000000001004441e                btstack_max
                0x0000000010044428                char_for_nibble
                0x000000001004444e                nibble_for_char
 .text.uuid_add_bluetooth_prefix
                0x000000001004448a       0x28 ..\..\platform\libs\libbtstack.a(btstack_util.o)
                0x000000001004448a                uuid_add_bluetooth_prefix
 .text.uuid_has_bluetooth_prefix
                0x00000000100444b2       0x22 ..\..\platform\libs\libbtstack.a(btstack_util.o)
                0x00000000100444b2                uuid_has_bluetooth_prefix
 .text.stack.hci_dump
                0x00000000100444d4       0x66 ..\..\platform\libs\libbtstack.a(btstack_util.o)
                0x00000000100444d4                bd_addr_to_str
 .text.a2dp_get_connections
                0x000000001004453a        0x8 ..\..\platform\libs\libbtstack.a(a2dp.o)
                0x000000001004453a                a2dp_get_connections
 .text.a2dp_get_playing_connection
                0x0000000010044542       0x24 ..\..\platform\libs\libbtstack.a(a2dp.o)
                0x0000000010044542                a2dp_get_playing_connection
 .text.a2dp_get_connections_for_index
                0x0000000010044566       0x30 ..\..\platform\libs\libbtstack.a(a2dp.o)
                0x0000000010044566                a2dp_get_connections_for_index
 .text.get_avdtp_media_connection_context_for_l2cap_cid
                0x0000000010044596       0x36 ..\..\platform\libs\libbtstack.a(a2dp.o)
                0x0000000010044596                get_avdtp_media_connection_context_for_l2cap_cid
 .text.get_avdtp_signal_connection_context_for_l2cap_cid
                0x00000000100445cc       0x36 ..\..\platform\libs\libbtstack.a(a2dp.o)
                0x00000000100445cc                get_avdtp_signal_connection_context_for_l2cap_cid
 .text.get_avctp_connection_context_for_l2cap_cid
                0x0000000010044602       0x34 ..\..\platform\libs\libbtstack.a(a2dp.o)
                0x0000000010044602                get_avctp_connection_context_for_l2cap_cid
 .text.get_a2dp_connection_context_for_handle
                0x0000000010044636       0x30 ..\..\platform\libs\libbtstack.a(a2dp.o)
                0x0000000010044636                get_a2dp_connection_context_for_handle
 .text.get_a2dp_connection_context_for_bd_addr
                0x0000000010044666       0x5a ..\..\platform\libs\libbtstack.a(a2dp.o)
                0x0000000010044666                get_a2dp_connection_context_for_bd_addr
 .text.handle_query_a2dp_event
                0x00000000100446c0       0x52 ..\..\platform\libs\libbtstack.a(a2dp.o)
 .text.remove_a2dp_connection_context
                0x0000000010044712       0x5c ..\..\platform\libs\libbtstack.a(a2dp.o)
                0x0000000010044712                remove_a2dp_connection_context
 .text.provide_a2dp_connection_context_for_bd_addr
                0x000000001004476e       0x8c ..\..\platform\libs\libbtstack.a(a2dp.o)
                0x000000001004476e                provide_a2dp_connection_context_for_bd_addr
 .text.a2dp_establish_service_level_connection
                0x00000000100447fa       0x12 ..\..\platform\libs\libbtstack.a(a2dp.o)
                0x00000000100447fa                a2dp_establish_service_level_connection
 .text.a2dp_run_for_release
                0x000000001004480c       0x58 ..\..\platform\libs\libbtstack.a(a2dp.o)
                0x000000001004480c                a2dp_run_for_release
 .text.a2dp_release_service_level_connection
                0x0000000010044864       0x6a ..\..\platform\libs\libbtstack.a(a2dp.o)
                0x0000000010044864                a2dp_release_service_level_connection
 .text.a2dp_search_os_capacity
                0x00000000100448ce       0x3c ..\..\platform\libs\libbtstack.a(a2dp.o)
                0x00000000100448ce                a2dp_search_os_capacity
 .text.a2dp_is_avctp_ctrl
                0x000000001004490a       0x36 ..\..\platform\libs\libbtstack.a(a2dp.o)
                0x000000001004490a                a2dp_is_avctp_ctrl
 .text.a2dp_is_playing_do
                0x0000000010044940       0x50 ..\..\platform\libs\libbtstack.a(a2dp.o)
                0x0000000010044940                a2dp_is_playing_do
 .text.a2dp_is_playing
                0x0000000010044990       0x1c ..\..\platform\libs\libbtstack.a(a2dp.o)
                0x0000000010044990                a2dp_is_playing
 .text.a2dp_init
                0x00000000100449ac       0x62 ..\..\platform\libs\libbtstack.a(a2dp.o)
                0x00000000100449ac                a2dp_init
 .text.a2dp_init_var
                0x0000000010044a0e       0x30 ..\..\platform\libs\libbtstack.a(a2dp.o)
                0x0000000010044a0e                a2dp_init_var
 .text.sbc.play
                0x0000000010044a3e       0x66 ..\..\platform\libs\libbtstack.a(a2dp_play.o)
                0x0000000010044a3e                sbc_play_init
 .text.tws_trigger_init
                0x0000000010044aa4        0x8 ..\..\platform\libs\libbtstack.a(a2dp_play.o)
                0x0000000010044aa4                tws_trigger_init
 .text.tws_remote_set_volume
                0x0000000010044aac       0x2a ..\..\platform\libs\libbtstack.a(a2dp_play.o)
                0x0000000010044aac                tws_remote_set_volume
 .text.tws_remote_set_func_id
                0x0000000010044ad6       0x40 ..\..\platform\libs\libbtstack.a(a2dp_play.o)
                0x0000000010044ad6                tws_remote_set_func_id
 .text.tws_set_volume
                0x0000000010044b16       0x2e ..\..\platform\libs\libbtstack.a(a2dp_play.o)
                0x0000000010044b16                tws_set_volume
 .text.tws_set_func_id
                0x0000000010044b44       0x2a ..\..\platform\libs\libbtstack.a(a2dp_play.o)
                0x0000000010044b44                tws_set_func_id
 .text.tws_send_key
                0x0000000010044b6e       0x34 ..\..\platform\libs\libbtstack.a(a2dp_play.o)
                0x0000000010044b6e                tws_send_key
 .text.tws_report_status
                0x0000000010044ba2       0x2a ..\..\platform\libs\libbtstack.a(a2dp_play.o)
                0x0000000010044ba2                tws_report_status
 .text.tws_report_profile_status
                0x0000000010044bcc       0x52 ..\..\platform\libs\libbtstack.a(a2dp_play.o)
                0x0000000010044bcc                tws_report_profile_status
 .text.tws_set_spr
                0x0000000010044c1e       0xce ..\..\platform\libs\libbtstack.a(a2dp_play.o)
                0x0000000010044c1e                tws_set_spr
 .text.tws_set_speed_thres
                0x0000000010044cec       0x46 ..\..\platform\libs\libbtstack.a(a2dp_play.o)
                0x0000000010044cec                tws_set_speed_thres
 .text.tws_set_speed
                0x0000000010044d32       0x98 ..\..\platform\libs\libbtstack.a(a2dp_play.o)
                0x0000000010044d32                tws_set_speed
 .text.tws_play_adj
                0x0000000010044dca       0x5e ..\..\platform\libs\libbtstack.a(a2dp_play.o)
                0x0000000010044dca                tws_play_adj
 .text.tws_play_stop
                0x0000000010044e28       0x44 ..\..\platform\libs\libbtstack.a(a2dp_play.o)
                0x0000000010044e28                tws_play_stop
 .text.tws_play_suspend
                0x0000000010044e6c       0x50 ..\..\platform\libs\libbtstack.a(a2dp_play.o)
                0x0000000010044e6c                tws_play_suspend
 .text.tws_play_resume
                0x0000000010044ebc       0x70 ..\..\platform\libs\libbtstack.a(a2dp_play.o)
                0x0000000010044ebc                tws_play_resume
 .text.sbc_res_init
                0x0000000010044f2c        0x2 ..\..\platform\libs\libbtstack.a(a2dp_send.o)
                0x0000000010044f2c                sbc_res_init
 .text.sbc_set_tx_cid
                0x0000000010044f2e       0x24 ..\..\platform\libs\libbtstack.a(a2dp_send.o)
                0x0000000010044f2e                sbc_set_tx_cid
 .text.sbc_clr_tx_cid
                0x0000000010044f52       0x1e ..\..\platform\libs\libbtstack.a(a2dp_send.o)
                0x0000000010044f52                sbc_clr_tx_cid
 .text.sbc_tx_init
                0x0000000010044f70       0x2c ..\..\platform\libs\libbtstack.a(a2dp_send.o)
                0x0000000010044f70                sbc_tx_init
 .text.avctp_timer_play_handler
                0x0000000010044f9c       0x58 ..\..\platform\libs\libbtstack.a(avctp.o)
 .text.avctp_send_req
                0x0000000010044ff4       0xb8 ..\..\platform\libs\libbtstack.a(avctp.o)
                0x0000000010044ff4                avctp_send_req
 .text.avctp_send_rsp
                0x00000000100450ac       0xc0 ..\..\platform\libs\libbtstack.a(avctp.o)
                0x00000000100450ac                avctp_send_rsp
 .text.avctp_send_vendordep_req
                0x000000001004516c        0xa ..\..\platform\libs\libbtstack.a(avctp.o)
                0x000000001004516c                avctp_send_vendordep_req
 .text.avctp_send_vendordep_rsq
                0x0000000010045176        0xa ..\..\platform\libs\libbtstack.a(avctp.o)
                0x0000000010045176                avctp_send_vendordep_rsq
 .text.avctp_send_status_change
                0x0000000010045180       0x52 ..\..\platform\libs\libbtstack.a(avctp.o)
                0x0000000010045180                avctp_send_status_change
 .text.avctp_send_passthrough
                0x00000000100451d2       0x22 ..\..\platform\libs\libbtstack.a(avctp.o)
                0x00000000100451d2                avctp_send_passthrough
 .text.avrcp_get_capabilities
                0x00000000100451f4       0x3a ..\..\platform\libs\libbtstack.a(avctp.o)
                0x00000000100451f4                avrcp_get_capabilities
 .text.avrcp_notify_event
                0x000000001004522e       0x3c ..\..\platform\libs\libbtstack.a(avctp.o)
                0x000000001004522e                avrcp_notify_event
 .text.avrcp_parse_cmd
                0x000000001004526a      0x31e ..\..\platform\libs\libbtstack.a(avctp.o)
                0x000000001004526a                avrcp_parse_cmd
 .text.avrtp_get_capability_bit
                0x0000000010045588       0x26 ..\..\platform\libs\libbtstack.a(avctp.o)
                0x0000000010045588                avrtp_get_capability_bit
 .text.avrtp_get_capability_event
                0x00000000100455ae       0x26 ..\..\platform\libs\libbtstack.a(avctp.o)
                0x00000000100455ae                avrtp_get_capability_event
 .text.avrtp_get_capability_allbit
                0x00000000100455d4        0x4 ..\..\platform\libs\libbtstack.a(avctp.o)
                0x00000000100455d4                avrtp_get_capability_allbit
 .text.avctp_ready_to_send
                0x00000000100455d8       0x44 ..\..\platform\libs\libbtstack.a(avctp.o)
                0x00000000100455d8                avctp_ready_to_send
 .text.avctp_state_machine
                0x000000001004561c      0x122 ..\..\platform\libs\libbtstack.a(avctp.o)
                0x000000001004561c                avctp_state_machine
 .text.avctp_play_pause_for_conn
                0x000000001004573e       0x3c ..\..\platform\libs\libbtstack.a(avctp.o)
                0x000000001004573e                avctp_play_pause_for_conn
 .text.avctp_player_ctrl_for_conn
                0x000000001004577a       0x38 ..\..\platform\libs\libbtstack.a(avctp.o)
                0x000000001004577a                avctp_player_ctrl_for_conn
 .text.avctp_volume_change_for_conn
                0x00000000100457b2       0x30 ..\..\platform\libs\libbtstack.a(avctp.o)
                0x00000000100457b2                avctp_volume_change_for_conn
 .text.avctp_stop_timer
                0x00000000100457e2       0x20 ..\..\platform\libs\libbtstack.a(avctp.o)
                0x00000000100457e2                avctp_stop_timer
 .text.avctp_delay_create
                0x0000000010045802       0x58 ..\..\platform\libs\libbtstack.a(avctp.o)
                0x0000000010045802                avctp_delay_create
 .text.avctp_delay_play
                0x000000001004585a       0x4e ..\..\platform\libs\libbtstack.a(avctp.o)
                0x000000001004585a                avctp_delay_play
 .text.avrcp_parse_rsp
                0x00000000100458a8      0x1f8 ..\..\platform\libs\libbtstack.a(avctp.o)
                0x00000000100458a8                avrcp_parse_rsp
 .text.avctp_packet_handler
                0x0000000010045aa0      0x1fc ..\..\platform\libs\libbtstack.a(avctp.o)
                0x0000000010045aa0                avctp_packet_handler
 .text.avctp_channel_create
                0x0000000010045c9c       0x50 ..\..\platform\libs\libbtstack.a(avctp.o)
                0x0000000010045c9c                avctp_channel_create
 .text.avctp_timer_create_handler
                0x0000000010045cec        0xc ..\..\platform\libs\libbtstack.a(avctp.o)
 .text.avdtp_tx_accept_rsp
                0x0000000010045cf8       0x1a ..\..\platform\libs\libbtstack.a(avdtp.o)
 .text.avdtp_tws_set_spr
                0x0000000010045d12       0x6c ..\..\platform\libs\libbtstack.a(avdtp.o)
 .text.avdtp_init
                0x0000000010045d7e       0x20 ..\..\platform\libs\libbtstack.a(avdtp.o)
                0x0000000010045d7e                avdtp_init
 .text.avdtp_tx_reject_rsp
                0x0000000010045d9e       0x1e ..\..\platform\libs\libbtstack.a(avdtp.o)
                0x0000000010045d9e                avdtp_tx_reject_rsp
 .text.avdtp_tx_conf_reject_rsp
                0x0000000010045dbc       0x22 ..\..\platform\libs\libbtstack.a(avdtp.o)
                0x0000000010045dbc                avdtp_tx_conf_reject_rsp
 .text.avdtp_tx_cmd
                0x0000000010045dde       0x40 ..\..\platform\libs\libbtstack.a(avdtp.o)
                0x0000000010045dde                avdtp_tx_cmd
 .text.avdtp_tx_discover_cmd
                0x0000000010045e1e       0x34 ..\..\platform\libs\libbtstack.a(avdtp.o)
                0x0000000010045e1e                avdtp_tx_discover_cmd
 .text.avdtp_tx_setconf_cmd
                0x0000000010045e52       0x82 ..\..\platform\libs\libbtstack.a(avdtp.o)
                0x0000000010045e52                avdtp_tx_setconf_cmd
 .text.avdtp_set_media_codec
                0x0000000010045ed4      0x150 ..\..\platform\libs\libbtstack.a(avdtp.o)
                0x0000000010045ed4                avdtp_set_media_codec
 .text.avdtp_get_capabilities_rsp
                0x0000000010046024       0xb2 ..\..\platform\libs\libbtstack.a(avdtp.o)
 .text.avdtp_signal_ready_to_send
                0x00000000100460d6       0x2e ..\..\platform\libs\libbtstack.a(avdtp.o)
                0x00000000100460d6                avdtp_signal_ready_to_send
 .text.avdtp_signal_state_machine
                0x0000000010046104       0xae ..\..\platform\libs\libbtstack.a(avdtp.o)
                0x0000000010046104                avdtp_signal_state_machine
 .text.avdtp_play_pause
                0x00000000100461b2       0xba ..\..\platform\libs\libbtstack.a(avdtp.o)
                0x00000000100461b2                avdtp_play_pause
 .text.avdtp_signal_channel_create
                0x000000001004626c       0x76 ..\..\platform\libs\libbtstack.a(avdtp.o)
                0x000000001004626c                avdtp_signal_channel_create
 .text.avdtp_media_channel_create
                0x00000000100462e2       0x50 ..\..\platform\libs\libbtstack.a(avdtp.o)
                0x00000000100462e2                avdtp_media_channel_create
 .text.sbc_rx_init
                0x0000000010046332       0x14 ..\..\platform\libs\libbtstack.a(avdtp.o)
                0x0000000010046332                sbc_rx_init
 .text.avdtp_end_of_play
                0x0000000010046346       0xf0 ..\..\platform\libs\libbtstack.a(avdtp.o)
 .text.avdtp_packet_handler
                0x0000000010046436      0x9da ..\..\platform\libs\libbtstack.a(avdtp.o)
                0x0000000010046436                avdtp_packet_handler
 .text.avdtp_timer_handler
                0x0000000010046e10       0x12 ..\..\platform\libs\libbtstack.a(avdtp.o)
 .text.stack.link_key
                0x0000000010046e22      0x6d6 ..\..\platform\libs\libbtstack.a(btstack_link_key_db.o)
                0x0000000010046f30                btstack_get_link_addr
                0x0000000010047008                btstack_get_link_key
                0x00000000100470b4                btstack_get_link_feature
                0x00000000100470ee                btstack_delete_link_key
                0x00000000100471c6                btstack_delete_all_link_key
                0x000000001004724e                btstack_put_link_key
                0x0000000010047414                btstack_put_link_offset
                0x0000000010047470                btstack_put_link_feature
 .text.stack.setup
                0x00000000100474f8      0x1cc ..\..\platform\libs\libbtstack.a(btstack_link_key_db.o)
                0x0000000010047690                btstack_open_link_info
 .text.remove_hfp_connection_context
                0x00000000100476c4       0x40 ..\..\platform\libs\libbtstack.a(hfp.o)
 .text.hfp_init
                0x0000000010047704       0x18 ..\..\platform\libs\libbtstack.a(hfp.o)
                0x0000000010047704                hfp_init
 .text.hfp_var_init
                0x000000001004771c       0x10 ..\..\platform\libs\libbtstack.a(hfp.o)
                0x000000001004771c                hfp_var_init
 .text.hfp_set_callback
                0x000000001004772c        0x8 ..\..\platform\libs\libbtstack.a(hfp.o)
                0x000000001004772c                hfp_set_callback
 .text.send_str_over_rfcomm
                0x0000000010047734       0x34 ..\..\platform\libs\libbtstack.a(hfp.o)
                0x0000000010047734                send_str_over_rfcomm
 .text.join     0x0000000010047768       0x9a ..\..\platform\libs\libbtstack.a(hfp.o)
                0x0000000010047768                join
 .text.join_bitmap
                0x0000000010047802       0xaa ..\..\platform\libs\libbtstack.a(hfp.o)
                0x0000000010047802                join_bitmap
 .text.hfp_emit_simple_event
                0x00000000100478ac       0x28 ..\..\platform\libs\libbtstack.a(hfp.o)
                0x00000000100478ac                hfp_emit_simple_event
 .text.hfp_emit_event
                0x00000000100478d4       0x2c ..\..\platform\libs\libbtstack.a(hfp.o)
                0x00000000100478d4                hfp_emit_event
 .text.hfp_emit_connection_event
                0x0000000010047900       0x30 ..\..\platform\libs\libbtstack.a(hfp.o)
                0x0000000010047900                hfp_emit_connection_event
 .text.hfp_get_connections
                0x0000000010047930        0x8 ..\..\platform\libs\libbtstack.a(hfp.o)
                0x0000000010047930                hfp_get_connections
 .text.hfp_get_connection_for_index
                0x0000000010047938       0x30 ..\..\platform\libs\libbtstack.a(hfp.o)
                0x0000000010047938                hfp_get_connection_for_index
 .text.get_hfp_connection_context_for_rfcomm_cid
                0x0000000010047968       0x30 ..\..\platform\libs\libbtstack.a(hfp.o)
                0x0000000010047968                get_hfp_connection_context_for_rfcomm_cid
 .text.get_hfp_connection_context_for_bd_addr
                0x0000000010047998       0x5a ..\..\platform\libs\libbtstack.a(hfp.o)
                0x0000000010047998                get_hfp_connection_context_for_bd_addr
 .text.handle_query_rfcomm_event
                0x00000000100479f2       0x9c ..\..\platform\libs\libbtstack.a(hfp.o)
 .text.get_hfp_connection_context_for_sco_handle
                0x0000000010047a8e       0x30 ..\..\platform\libs\libbtstack.a(hfp.o)
                0x0000000010047a8e                get_hfp_connection_context_for_sco_handle
 .text.hfp_reset_context_flags
                0x0000000010047abe       0x2c ..\..\platform\libs\libbtstack.a(hfp.o)
                0x0000000010047abe                hfp_reset_context_flags
 .text.create_hfp_connection_context
                0x0000000010047aea       0x94 ..\..\platform\libs\libbtstack.a(hfp.o)
 .text.hfp_parse
                0x0000000010047b7e      0x7ea ..\..\platform\libs\libbtstack.a(hfp.o)
                0x0000000010047b7e                hfp_parse
 .text.hfp_establish_service_level_connection
                0x0000000010048368       0xb8 ..\..\platform\libs\libbtstack.a(hfp.o)
                0x0000000010048368                hfp_establish_service_level_connection
 .text.hfp_handle_hci_event
                0x0000000010048420      0x21e ..\..\platform\libs\libbtstack.a(hfp.o)
                0x0000000010048420                hfp_handle_hci_event
 .text.hfp_release_audio_connection
                0x000000001004863e       0x1a ..\..\platform\libs\libbtstack.a(hfp.o)
                0x000000001004863e                hfp_release_audio_connection
 .text.hfp_release_service_level_connection
                0x0000000010048658       0x52 ..\..\platform\libs\libbtstack.a(hfp.o)
                0x0000000010048658                hfp_release_service_level_connection
 .text.hfp_setup_synchronous_connection
                0x00000000100486aa       0x54 ..\..\platform\libs\libbtstack.a(hfp.o)
                0x00000000100486aa                hfp_setup_synchronous_connection
 .text.hfp_set_packet_handler_for_rfcomm_connections
                0x00000000100486fe        0x8 ..\..\platform\libs\libbtstack.a(hfp.o)
                0x00000000100486fe                hfp_set_packet_handler_for_rfcomm_connections
 .text.hfp_hf_send_chld
                0x0000000010048706       0x34 ..\..\platform\libs\libbtstack.a(hfp_hf.o)
 .text.hfp_hf_cmd_notify_on_codecs
                0x000000001004873a       0x7a ..\..\platform\libs\libbtstack.a(hfp_hf.o)
 .text.hfp_hf_switch_on_ok
                0x00000000100487b4      0x186 ..\..\platform\libs\libbtstack.a(hfp_hf.o)
 .text.func.outgoing
                0x000000001004893a       0x14 ..\..\platform\libs\libbtstack.a(hfp_hf.o)
                0x000000001004893a                hfp_get_outgoing_number
                0x0000000010048944                hfp_get_at_cmd
 .text.hfp_run_for_context
                0x000000001004894e      0x576 ..\..\platform\libs\libbtstack.a(hfp_hf.o)
 .text.func.btring
                0x0000000010048ec4        0x8 ..\..\platform\libs\libbtstack.a(hfp_hf.o)
                0x0000000010048ec6                hfp_is_list_curr_calls
                0x0000000010048eca                hfp_hf_emit_curr_calls
 .text.hfp_hf_packet_handler
                0x0000000010048ecc      0x1ca ..\..\platform\libs\libbtstack.a(hfp_hf.o)
 .text.hfp_hf_init
                0x0000000010049096       0x5e ..\..\platform\libs\libbtstack.a(hfp_hf.o)
                0x0000000010049096                hfp_hf_init
 .text.hfp_hf_init_codecs
                0x00000000100490f4       0x2e ..\..\platform\libs\libbtstack.a(hfp_hf.o)
                0x00000000100490f4                hfp_hf_init_codecs
 .text.hfp_hf_init_supported_features
                0x0000000010049122        0x8 ..\..\platform\libs\libbtstack.a(hfp_hf.o)
                0x0000000010049122                hfp_hf_init_supported_features
 .text.hfp_hf_init_hf_indicators
                0x000000001004912a        0x2 ..\..\platform\libs\libbtstack.a(hfp_hf.o)
                0x000000001004912a                hfp_hf_init_hf_indicators
 .text.hfp_hf_establish_service_level_connection
                0x000000001004912c       0x1a ..\..\platform\libs\libbtstack.a(hfp_hf.o)
                0x000000001004912c                hfp_hf_establish_service_level_connection
 .text.hfp_hf_release_service_level_connection
                0x0000000010049146       0x1c ..\..\platform\libs\libbtstack.a(hfp_hf.o)
                0x0000000010049146                hfp_hf_release_service_level_connection
 .text.stack.api
                0x0000000010049162      0x330 ..\..\platform\libs\libbtstack.a(hfp_hf.o)
                0x0000000010049162                hfp_hf_switch_siri_do
                0x00000000100491a2                hfp_hf_switch_siri
                0x00000000100491c2                hfp_hf_is_calling
                0x00000000100491de                hfp_hf_answer_incoming_call
                0x000000001004922e                hfp_hf_terminate_call
                0x000000001004928a                hfp_hf_reject_incoming_call
                0x000000001004928c                hfp_hf_swap_calls
                0x00000000100492bc                hfp_hf_dial_number
                0x0000000010049308                hfp_hf_at_cmd
                0x0000000010049346                hfp_hf_redial_last_number_do
                0x0000000010049396                hfp_hf_redial_last_number
                0x00000000100493b6                hfp_hf_set_speaker_gain
                0x00000000100493fe                hfp_hf_set_microphone_gain
                0x0000000010049446                hfp_hf_report_bat_state
 .text.remove_hid_device_context
                0x0000000010049492       0x34 ..\..\platform\libs\libbtstack.a(hid_device.o)
 .text.get_hid_device_context_for_l2cap_cid
                0x00000000100494c6       0x3a ..\..\platform\libs\libbtstack.a(hid_device.o)
 .text.get_hid_device_context_for_bd_addr
                0x0000000010049500       0x4e ..\..\platform\libs\libbtstack.a(hid_device.o)
 .text.provide_hid_device_context_for_bd_addr.part.3
                0x000000001004954e       0x7a ..\..\platform\libs\libbtstack.a(hid_device.o)
 .text.hid_packet_handler
                0x00000000100495c8      0x350 ..\..\platform\libs\libbtstack.a(hid_device.o)
 .text.bt_hid_is_connected
                0x0000000010049918       0x4a ..\..\platform\libs\libbtstack.a(hid_device.o)
                0x0000000010049918                bt_hid_is_connected
 .text.hid_device_init
                0x0000000010049962       0x46 ..\..\platform\libs\libbtstack.a(hid_device.o)
                0x0000000010049962                hid_device_init
 .text.hid_device_request_can_send_now_event
                0x00000000100499a8        0x4 ..\..\platform\libs\libbtstack.a(hid_device.o)
                0x00000000100499a8                hid_device_request_can_send_now_event
 .text.hid_device_send_interrupt_message
                0x00000000100499ac        0x4 ..\..\platform\libs\libbtstack.a(hid_device.o)
                0x00000000100499ac                hid_device_send_interrupt_message
 .text.hid_establish_service_level_connection
                0x00000000100499b0       0x92 ..\..\platform\libs\libbtstack.a(hid_device.o)
                0x00000000100499b0                hid_establish_service_level_connection
 .text.hid_release_service_level_connection
                0x0000000010049a42       0x40 ..\..\platform\libs\libbtstack.a(hid_device.o)
                0x0000000010049a42                hid_release_service_level_connection
 .text.hid_get_interrupt_cid
                0x0000000010049a82       0x16 ..\..\platform\libs\libbtstack.a(hid_device.o)
                0x0000000010049a82                hid_get_interrupt_cid
 .text.hid_report_init
                0x0000000010049a98       0x10 ..\..\platform\libs\libbtstack.a(hid_usage.o)
                0x0000000010049a98                hid_report_init
 .text.hid_report_set
                0x0000000010049aa8       0x1c ..\..\platform\libs\libbtstack.a(hid_usage.o)
                0x0000000010049aa8                hid_report_set
 .text.hid_send_report_callback
                0x0000000010049ac4       0x64 ..\..\platform\libs\libbtstack.a(hid_usage.o)
                0x0000000010049ac4                hid_send_report_callback
 .text.btstack_hid_send
                0x0000000010049b28       0x3c ..\..\platform\libs\libbtstack.a(hid_usage.o)
                0x0000000010049b28                btstack_hid_send
 .text.btstack_hid_key
                0x0000000010049b64       0x74 ..\..\platform\libs\libbtstack.a(hid_usage.o)
                0x0000000010049b64                btstack_hid_key
 .text.btstack_hid_consumer
                0x0000000010049bd8       0x3c ..\..\platform\libs\libbtstack.a(hid_usage.o)
                0x0000000010049bd8                btstack_hid_consumer
 .text.bt_hid_is_send_complete
                0x0000000010049c14       0x10 ..\..\platform\libs\libbtstack.a(hid_usage.o)
                0x0000000010049c14                bt_hid_is_send_complete
 .text.rfcomm_emit_channel_closed
                0x0000000010049c24       0x2c ..\..\platform\libs\libbtstack.a(rfcomm.o)
 .text.rfcomm_emit_can_send_now
                0x0000000010049c50       0x2a ..\..\platform\libs\libbtstack.a(rfcomm.o)
 .text.rfcomm_multiplexer_for_l2cap_cid
                0x0000000010049c7a       0x1c ..\..\platform\libs\libbtstack.a(rfcomm.o)
 .text.rfcomm_channel_for_rfcomm_cid
                0x0000000010049c96       0x1c ..\..\platform\libs\libbtstack.a(rfcomm.o)
 .text.rfcomm_channel_for_multiplexer_and_dlci
                0x0000000010049cb2       0x22 ..\..\platform\libs\libbtstack.a(rfcomm.o)
 .text.stack.rfcomm
                0x0000000010049cd4       0xd2 ..\..\platform\libs\libbtstack.a(rfcomm.o)
                0x0000000010049d76                rfcomm_register_service
 .text.rfcomm_channel_ready_to_send
                0x0000000010049da6       0x56 ..\..\platform\libs\libbtstack.a(rfcomm.o)
 .text.rfcomm_emit_port_configuration
                0x0000000010049dfc       0x3e ..\..\platform\libs\libbtstack.a(rfcomm.o)
 .text.rfcomm_emit_connection_request
                0x0000000010049e3a       0x5a ..\..\platform\libs\libbtstack.a(rfcomm.o)
 .text.rfcomm_multiplexer_for_addr
                0x0000000010049e94       0x32 ..\..\platform\libs\libbtstack.a(rfcomm.o)
 .text.rfcomm_multiplexer_create_for_addr
                0x0000000010049ec6       0x60 ..\..\platform\libs\libbtstack.a(rfcomm.o)
 .text.rfcomm_channel_create
                0x0000000010049f26       0xfe ..\..\platform\libs\libbtstack.a(rfcomm.o)
 .text.rfcomm_channel_create_internal
                0x000000001004a024      0x11e ..\..\platform\libs\libbtstack.a(rfcomm.o)
 .text.rfcomm_multiplexer_ready_to_send
                0x000000001004a142       0x4e ..\..\platform\libs\libbtstack.a(rfcomm.o)
 .text.rfcomm_channel_can_send.part.8
                0x000000001004a190       0x16 ..\..\platform\libs\libbtstack.a(rfcomm.o)
 .text.rfcomm_notify_channel_can_send
                0x000000001004a1a6       0x54 ..\..\platform\libs\libbtstack.a(rfcomm.o)
 .text.rfcomm_emit_channel_opened
                0x000000001004a1fa       0x8c ..\..\platform\libs\libbtstack.a(rfcomm.o)
 .text.rfcomm_multiplexer_prepare_idle_timer
                0x000000001004a286       0x64 ..\..\platform\libs\libbtstack.a(rfcomm.o)
 .text.rfcomm_channel_finalize
                0x000000001004a2ea       0x38 ..\..\platform\libs\libbtstack.a(rfcomm.o)
 .text.rfcomm_multiplexer_finalize
                0x000000001004a322       0x8c ..\..\platform\libs\libbtstack.a(rfcomm.o)
 .text.rfcomm_multiplexer_timer_handler
                0x000000001004a3ae       0x3a ..\..\platform\libs\libbtstack.a(rfcomm.o)
 .text.stack.setup
                0x000000001004a3e8       0x22 ..\..\platform\libs\libbtstack.a(rfcomm.o)
                0x000000001004a3e8                rfcomm_init
 .text.rfcomm_can_send_packet_now
                0x000000001004a40a       0x20 ..\..\platform\libs\libbtstack.a(rfcomm.o)
                0x000000001004a40a                rfcomm_can_send_packet_now
 .text.rfcomm_request_can_send_now_event
                0x000000001004a42a       0x24 ..\..\platform\libs\libbtstack.a(rfcomm.o)
                0x000000001004a42a                rfcomm_request_can_send_now_event
 .text.rfcomm_reserve_packet_buffer
                0x000000001004a44e        0x4 ..\..\platform\libs\libbtstack.a(rfcomm.o)
                0x000000001004a44e                rfcomm_reserve_packet_buffer
 .text.rfcomm_get_outgoing_buffer
                0x000000001004a452       0x10 ..\..\platform\libs\libbtstack.a(rfcomm.o)
                0x000000001004a452                rfcomm_get_outgoing_buffer
 .text.rfcomm_create_channel
                0x000000001004a462        0xa ..\..\platform\libs\libbtstack.a(rfcomm.o)
                0x000000001004a462                rfcomm_create_channel
 .text.rfcomm_disconnect
                0x000000001004a46c       0x2c ..\..\platform\libs\libbtstack.a(rfcomm.o)
                0x000000001004a46c                rfcomm_disconnect
 .text.rfcomm_accept_connection
                0x000000001004a498       0x5c ..\..\platform\libs\libbtstack.a(rfcomm.o)
                0x000000001004a498                rfcomm_accept_connection
 .text.crc8_calc
                0x000000001004a4f4       0x32 ..\..\platform\libs\libbtstack.a(rfcomm.o)
                0x000000001004a4f4                crc8_calc
 .text.rfcomm_send_prepared
                0x000000001004a526       0xce ..\..\platform\libs\libbtstack.a(rfcomm.o)
                0x000000001004a526                rfcomm_send_prepared
 .text.rfcomm_send
                0x000000001004a5f4       0x80 ..\..\platform\libs\libbtstack.a(rfcomm.o)
                0x000000001004a5f4                rfcomm_send
 .text.rfcomm_send_packet_for_multiplexer.isra.12
                0x000000001004a674      0x102 ..\..\platform\libs\libbtstack.a(rfcomm.o)
 .text.rfcomm_send_uih_msc_cmd
                0x000000001004a776       0x42 ..\..\platform\libs\libbtstack.a(rfcomm.o)
 .text.rfcomm_send_disc
                0x000000001004a7b8       0x22 ..\..\platform\libs\libbtstack.a(rfcomm.o)
 .text.rfcomm_send_dm_pf
                0x000000001004a7da       0x24 ..\..\platform\libs\libbtstack.a(rfcomm.o)
 .text.rfcomm_send_sabm
                0x000000001004a7fe       0x22 ..\..\platform\libs\libbtstack.a(rfcomm.o)
 .text.rfcomm_send_ua
                0x000000001004a820       0x26 ..\..\platform\libs\libbtstack.a(rfcomm.o)
 .text.rfcomm_channel_send_credits
                0x000000001004a846       0x48 ..\..\platform\libs\libbtstack.a(rfcomm.o)
 .text.rfcomm_channel_state_machine_with_channel
                0x000000001004a88e      0x63e ..\..\platform\libs\libbtstack.a(rfcomm.o)
 .text.rfcomm_multiplexer_opened
                0x000000001004aecc       0x5e ..\..\platform\libs\libbtstack.a(rfcomm.o)
 .text.rfcomm_channel_state_machine_with_dlci
                0x000000001004af2a       0x9c ..\..\platform\libs\libbtstack.a(rfcomm.o)
 .text.rfcomm_packet_handler
                0x000000001004afc6      0x6f2 ..\..\platform\libs\libbtstack.a(rfcomm.o)
 .text.de_state_size
                0x000000001004b6b8       0x62 ..\..\platform\libs\libbtstack.a(sdp_client.o)
                0x000000001004b6b8                de_state_size
 .text.sdp_parser_init
                0x000000001004b71a       0x30 ..\..\platform\libs\libbtstack.a(sdp_client.o)
                0x000000001004b71a                sdp_parser_init
 .text.sdp_parser_handle_chunk
                0x000000001004b74a      0x258 ..\..\platform\libs\libbtstack.a(sdp_client.o)
                0x000000001004b74a                sdp_parser_handle_chunk
 .text.sdp_parser_handle_done
                0x000000001004b9a2       0x7c ..\..\platform\libs\libbtstack.a(sdp_client.o)
                0x000000001004b9a2                sdp_parser_handle_done
 .text.sdp_client_packet_handler
                0x000000001004ba1e      0x33e ..\..\platform\libs\libbtstack.a(sdp_client.o)
                0x000000001004ba1e                sdp_client_packet_handler
 .text.sdp_client_init
                0x000000001004bd5c       0x1c ..\..\platform\libs\libbtstack.a(sdp_client.o)
                0x000000001004bd5c                sdp_client_init
 .text.sdp_client_query
                0x000000001004bd78      0x106 ..\..\platform\libs\libbtstack.a(sdp_client.o)
                0x000000001004bd78                sdp_client_query
 .text.stack.sdp.server
                0x000000001004be7e      0x966 ..\..\platform\libs\libbtstack.a(sdp_server.o)
                0x000000001004bed6                sdp_get_service_record_handle
                0x000000001004bf16                sdp_get_record_for_handle
                0x000000001004bf2a                sdp_create_service_record_handle
                0x000000001004bf56                sdp_register_service
                0x000000001004bfa2                sdp_unregister_service
                0x000000001004bfce                sdp_handle_service_search_request
                0x000000001004c1d0                sdp_handle_service_attribute_request
                0x000000001004c38a                sdp_handle_service_search_attribute_request
 .text.stack.setup
                0x000000001004c7e4       0x36 ..\..\platform\libs\libbtstack.a(sdp_server.o)
                0x000000001004c7e4                sdp_init
 .text.stack.sdp.util
                0x000000001004c81a      0x69c ..\..\platform\libs\libbtstack.a(sdp_util.o)
                0x000000001004c8e0                de_get_size_type
                0x000000001004c8e8                de_get_element_type
                0x000000001004c8f0                de_get_header_size
                0x000000001004c908                de_get_data_size
                0x000000001004c942                de_get_len
                0x000000001004ca58                de_element_get_uint16
                0x000000001004ca92                de_get_normalized_uuid
                0x000000001004caf8                de_get_uuid32
                0x000000001004cb1e                de_store_descriptor_with_len
                0x000000001004cb54                des_iterator_init
                0x000000001004cb8e                des_iterator_get_type
                0x000000001004cb9e                des_iterator_get_size
                0x000000001004cbd0                des_iterator_has_more
                0x000000001004cbde                des_iterator_get_element
                0x000000001004cbf4                des_iterator_next
                0x000000001004cc18                sdp_attribute_list_constains_id
                0x000000001004cd66                sdp_filter_attributes_in_attributeIDList
                0x000000001004cd9e                spd_get_filtered_size
                0x000000001004cdbe                sdp_get_attribute_value_for_attribute_id
                0x000000001004cddc                sdp_set_attribute_value_for_attribute_id
                0x000000001004ce00                sdp_record_contains_UUID128
                0x000000001004ce64                sdp_traversal_match_pattern
                0x000000001004ce92                sdp_record_matches_service_search_pattern
                0x000000001004ceb4                de_dump_data_element
 .text.remove_spp_connection_context
                0x000000001004ceb6       0x38 ..\..\platform\libs\libbtstack.a(spp.o)
 .text.spp_run_for_context
                0x000000001004ceee       0x42 ..\..\platform\libs\libbtstack.a(spp.o)
 .text.provide_spp_connection_context_for_bd_addr.part.1
                0x000000001004cf30       0x7a ..\..\platform\libs\libbtstack.a(spp.o)
 .text.bt_spp_tx
                0x000000001004cfaa       0x1e ..\..\platform\libs\libbtstack.a(spp.o)
                0x000000001004cfaa                bt_spp_tx
 .text.get_spp_connection_context_for_rfcomm_cid
                0x000000001004cfc8       0x2e ..\..\platform\libs\libbtstack.a(spp.o)
                0x000000001004cfc8                get_spp_connection_context_for_rfcomm_cid
 .text.get_spp_connection_context_for_bd_addr
                0x000000001004cff6       0x58 ..\..\platform\libs\libbtstack.a(spp.o)
                0x000000001004cff6                get_spp_connection_context_for_bd_addr
 .text.handle_query_rfcomm_event
                0x000000001004d04e       0x9c ..\..\platform\libs\libbtstack.a(spp.o)
 .text.stack.spp.handler
                0x000000001004d0ea      0x108 ..\..\platform\libs\libbtstack.a(spp.o)
 .text.spp_establish_service_level_connection
                0x000000001004d1f2       0xb4 ..\..\platform\libs\libbtstack.a(spp.o)
                0x000000001004d1f2                spp_establish_service_level_connection
 .text.spp_release_service_level_connection
                0x000000001004d2a6       0x58 ..\..\platform\libs\libbtstack.a(spp.o)
                0x000000001004d2a6                spp_release_service_level_connection
 .text.spp_init
                0x000000001004d2fe       0x46 ..\..\platform\libs\libbtstack.a(spp.o)
                0x000000001004d2fe                spp_init
 .text.spp_var_init
                0x000000001004d344        0x8 ..\..\platform\libs\libbtstack.a(spp.o)
                0x000000001004d344                spp_var_init
 *fill*         0x000000001004d34c       0xb4 
 .text.stack.hci
                0x000000001004d400      0xe82 ..\..\platform\libs\libbtstack.a(hci.o)
                0x000000001004d528                hci_authentication_active_for_handle
                0x000000001004d54a                gap_drop_link_key_for_bd_addr
                0x000000001004d566                gap_store_link_key_for_bd_addr
                0x000000001004d58a                gap_get_link_feature_for_bd_addr
                0x000000001004d5a8                gap_store_link_feature_for_bd_addr
                0x000000001004d5c6                gap_get_link_addr_by_order
                0x000000001004d5ca                hci_number_free_acl_slots_for_handle
                0x000000001004d5e6                hci_can_send_acl_classic_packet_now
                0x000000001004d614                hci_can_send_acl_le_packet_now
                0x000000001004d640                hci_can_send_prepared_acl_packet_now
                0x000000001004d744                hci_can_send_acl_packet_now
                0x000000001004d756                hci_can_send_prepared_sco_packet_now
                0x000000001004d796                hci_can_send_sco_packet_now
                0x000000001004d7a8                hci_is_packet_buffer_reserved
                0x000000001004d7b4                hci_reserve_packet_buffer
                0x000000001004d7cc                hci_release_packet_buffer
                0x000000001004d7d8                hci_send_acl_packet_buffer
                0x000000001004d84a                hci_usable_acl_packet_types
                0x000000001004d856                hci_get_outgoing_packet_buffer
                0x000000001004d860                hci_max_acl_data_packet_length
                0x000000001004d86c                hci_non_flushable_packet_boundary_flag_supported
                0x000000001004d87c                hci_disconnect_security_block
                0x000000001004d898                gap_ssp_set_enable
                0x000000001004d8a4                hci_run_lowpwr_state
                0x000000001004d90e                hci_remote_esco_supported
                0x000000001004d92a                gap_ssp_supported_on_both_sides
                0x000000001004d964                gap_security_level_for_link_key_type
                0x000000001004d990                hci_run_pend_connection
                0x000000001004dfcc                gap_w_scan_control
                0x000000001004e02c                hci_run_w2_connection
                0x000000001004e0ce                gap_mitm_protection_required_for_security_level
                0x000000001004e0d8                gap_security_level
                0x000000001004e0f2                gap_request_security_level
 .text.stack.hci_init
                0x000000001004e282      0x3d6 ..\..\platform\libs\libbtstack.a(hci.o)
                0x000000001004e5e0                hci_power_control
                0x000000001004e64e                gap_set_local_name
 .text.stack.handler.acl
                0x000000001004e658       0x1a ..\..\platform\libs\libbtstack.a(hci.o)
 .text.stack.setup
                0x000000001004e672      0x1ce ..\..\platform\libs\libbtstack.a(hci.o)
                0x000000001004e6ee                hci_add_event_handler
                0x000000001004e6fe                hci_register_acl_packet_handler
                0x000000001004e708                hci_init
                0x000000001004e7bc                hci_set_chipset
                0x000000001004e7d4                hci_set_control
                0x000000001004e7e8                gap_set_class_of_device
                0x000000001004e7f2                hci_set_bd_addr
                0x000000001004e81c                gap_ssp_set_io_capability
                0x000000001004e828                gap_ssp_set_authentication_requirement
                0x000000001004e834                gap_ssp_set_auto_accept
 .text.hci_shutdown_connection
                0x000000001004e840       0x42 ..\..\platform\libs\libbtstack.a(hci.o)
 .text.stack.hci_emit
                0x000000001004e882      0x136 ..\..\platform\libs\libbtstack.a(hci.o)
                0x000000001004e942                hci_emit_state
                0x000000001004e970                hci_emit_scan_ctrl
                0x000000001004e994                hci_emit_inquiry_ctrl
 .text.stack.hci.conn
                0x000000001004e9b8      0x218 ..\..\platform\libs\libbtstack.a(hci.o)
                0x000000001004eab0                gap_get_connection_parameter_range
                0x000000001004eace                gap_set_connection_parameter_range
                0x000000001004eaee                hci_get_connections
                0x000000001004eaf8                hci_connection_for_bd_addr_and_type
                0x000000001004eb4e                hci_connection_get_other_for_bd_addr_and_type
                0x000000001004eba4                hci_connection_for_index
 .text.stack.hci.sco
                0x000000001004ebd0       0x40 ..\..\platform\libs\libbtstack.a(hci.o)
 .text.hci_free_connect_waiting
                0x000000001004ec10       0x78 ..\..\platform\libs\libbtstack.a(hci.o)
                0x000000001004ec10                hci_free_connect_waiting
 .text.stack.hci_send
                0x000000001004ec88      0x262 ..\..\platform\libs\libbtstack.a(hci.o)
                0x000000001004ec88                hci_send_cmd_packet
                0x000000001004edf0                hci_send_cmd
                0x000000001004ee46                hci_send_create_connection_cmd
 .text.hci_emit_start_action
                0x000000001004eeea       0x36 ..\..\platform\libs\libbtstack.a(hci.o)
                0x000000001004eeea                hci_emit_start_action
 .text.hci_initialization_timeout_handler
                0x000000001004ef20       0x5c ..\..\platform\libs\libbtstack.a(hci.o)
 .text.hci_event_scan_ctrl
                0x000000001004ef7c       0x58 ..\..\platform\libs\libbtstack.a(hci.o)
 .text.gap_inquiry
                0x000000001004efd4       0x16 ..\..\platform\libs\libbtstack.a(hci.o)
                0x000000001004efd4                gap_inquiry
 .text.gap_inquiry_cancel
                0x000000001004efea       0x16 ..\..\platform\libs\libbtstack.a(hci.o)
                0x000000001004efea                gap_inquiry_cancel
 .text.gap_disconnect
                0x000000001004f000       0x38 ..\..\platform\libs\libbtstack.a(hci.o)
                0x000000001004f000                gap_disconnect
 .text.gap_get_connection_type
                0x000000001004f038       0x3a ..\..\platform\libs\libbtstack.a(hci.o)
                0x000000001004f038                gap_get_connection_type
 .text.hci_set_sco_voice_setting
                0x000000001004f072        0xc ..\..\platform\libs\libbtstack.a(hci.o)
                0x000000001004f072                hci_set_sco_voice_setting
 .text.hci_setup_sync
                0x000000001004f07e       0x64 ..\..\platform\libs\libbtstack.a(hci.o)
                0x000000001004f07e                hci_setup_sync
 .text.stack.handler.event
                0x000000001004f0e2      0xc2a ..\..\platform\libs\libbtstack.a(hci.o)
 .text.stack.hci_send
                0x000000001004fd0c      0x280 ..\..\platform\libs\libbtstack.a(hci_cmd.o)
                0x000000001004fd0c                hci_cmd_create_from_template
 .text.stack.setup
                0x000000001004ff8c        0x2 ..\..\platform\libs\libbtstack.a(hci_dump.o)
                0x000000001004ff8c                hci_dump_open
 .text.sco_init_var
                0x000000001004ff8e       0x26 ..\..\platform\libs\libbtstack.a(hci_sco.o)
                0x000000001004ff8e                sco_init_var
 .text.sco_buffer_init
                0x000000001004ffb4       0x38 ..\..\platform\libs\libbtstack.a(hci_sco.o)
                0x000000001004ffb4                sco_buffer_init
 .text.stack.setup
                0x000000001004ffec       0xaa ..\..\platform\libs\libbtstack.a(l2cap.o)
                0x000000001005001c                l2cap_init
                0x0000000010050070                l2cap_register_fixed_channel
 .text.stack.handler.l2cap
                0x0000000010050096      0xa1c ..\..\platform\libs\libbtstack.a(l2cap.o)
                0x0000000010050a02                l2cap_request_can_send_now_event
                0x0000000010050a24                l2cap_request_can_send_fix_channel_now_event
                0x0000000010050a52                l2cap_can_send_packet_now
                0x0000000010050a72                l2cap_can_send_prepared_packet_now
                0x0000000010050a92                l2cap_can_send_fixed_channel_packet_now
                0x0000000010050a96                l2cap_get_remote_mtu_for_local_cid
 .text.stack.l2cap
                0x0000000010050ab2      0x79e ..\..\platform\libs\libbtstack.a(l2cap.o)
                0x00000000100510b6                l2cap_send_prepared
                0x0000000010051136                l2cap_send
                0x00000000100511a0                l2cap_accept_connection
                0x00000000100511be                l2cap_decline_connection
                0x00000000100511e2                l2cap_register_service
 .text.l2cap_send_test_cmd
                0x0000000010051250       0x6e ..\..\platform\libs\libbtstack.a(l2cap.o)
                0x0000000010051250                l2cap_send_test_cmd
 .text.l2cap_send_test_key
                0x00000000100512be       0x30 ..\..\platform\libs\libbtstack.a(l2cap.o)
                0x00000000100512be                l2cap_send_test_key
 .text.l2cap_get_outgoing_buffer
                0x00000000100512ee       0x10 ..\..\platform\libs\libbtstack.a(l2cap.o)
                0x00000000100512ee                l2cap_get_outgoing_buffer
 .text.l2cap_reserve_packet_buffer
                0x00000000100512fe        0x4 ..\..\platform\libs\libbtstack.a(l2cap.o)
                0x00000000100512fe                l2cap_reserve_packet_buffer
 .text.l2cap_release_packet_buffer
                0x0000000010051302        0x4 ..\..\platform\libs\libbtstack.a(l2cap.o)
                0x0000000010051302                l2cap_release_packet_buffer
 .text.l2cap_send_prepared_connectionless
                0x0000000010051306       0x6e ..\..\platform\libs\libbtstack.a(l2cap.o)
                0x0000000010051306                l2cap_send_prepared_connectionless
 .text.l2cap_max_mtu
                0x0000000010051374        0x6 ..\..\platform\libs\libbtstack.a(l2cap.o)
                0x0000000010051374                l2cap_max_mtu
 .text.l2cap_create_channel
                0x000000001005137a      0x116 ..\..\platform\libs\libbtstack.a(l2cap.o)
                0x000000001005137a                l2cap_create_channel
 .text.l2cap_disconnect
                0x0000000010051490       0x1a ..\..\platform\libs\libbtstack.a(l2cap.o)
                0x0000000010051490                l2cap_disconnect
 .text.stack.l2cap_sig
                0x00000000100514aa      0x168 ..\..\platform\libs\libbtstack.a(l2cap_signaling.o)
                0x00000000100515ca                l2cap_next_sig_id
                0x00000000100515ea                l2cap_next_local_cid
                0x0000000010051610                l2cap_create_signaling_classic
 .text.l2cap_end_of_test
                0x0000000010051612       0x34 ..\..\platform\libs\libbtstack.a(l2cap_test.o)
                0x0000000010051612                l2cap_end_of_test
 .text.l2cap_test_cmd
                0x0000000010051646      0x148 ..\..\platform\libs\libbtstack.a(l2cap_test.o)
                0x0000000010051646                l2cap_test_cmd
 .text.l2cap_test_rsp
                0x000000001005178e        0x2 ..\..\platform\libs\libbtstack.a(l2cap_test.o)
                0x000000001005178e                l2cap_test_rsp
 .text.l2cap_vd_test_packet_handle
                0x0000000010051790       0x38 ..\..\platform\libs\libbtstack.a(l2cap_test.o)
                0x0000000010051790                l2cap_vd_test_packet_handle
 .text.l2cap_vd_test_can_send_now
                0x00000000100517c8       0x64 ..\..\platform\libs\libbtstack.a(l2cap_test.o)
                0x00000000100517c8                l2cap_vd_test_can_send_now
 .text.vd_test_packet_handler
                0x000000001005182c       0x5a ..\..\platform\libs\libbtstack.a(l2cap_test.o)
 .text.l2cap_test_init
                0x0000000010051886       0x10 ..\..\platform\libs\libbtstack.a(l2cap_test.o)
                0x0000000010051886                l2cap_test_init
 .text.btstack_ota_read
                0x0000000010051896       0x8e ..\..\platform\libs\libbtstack.a(l2cap_test.o)
                0x0000000010051896                btstack_ota_read
 .text.btstack_ota_status
                0x0000000010051924       0x72 ..\..\platform\libs\libbtstack.a(l2cap_test.o)
                0x0000000010051924                btstack_ota_status
 *fill*         0x0000000010051996       0x6a 
 .text.bb.sw    0x0000000010051a00      0x1fe ..\..\platform\libs\libbtstack.a(ext_rsw.o)
                0x0000000010051a00                lc_rsw_req
 *fill*         0x0000000010051bfe        0x2 
 .text.lc_sniff_abort_transition_mode
                0x0000000010051c00       0x40 ..\..\platform\libs\libbtstack.a(ext_sniff.o)
                0x0000000010051c00                lc_sniff_abort_transition_mode
 *fill*         0x0000000010051c40        0x0 
 .text.lc_sniff_exit_transition_mode
                0x0000000010051c40       0x40 ..\..\platform\libs\libbtstack.a(ext_sniff.o)
                0x0000000010051c40                lc_sniff_exit_transition_mode
 .text.lc_sniff_exit_ready
                0x0000000010051c80       0x18 ..\..\platform\libs\libbtstack.a(ext_sniff.o)
                0x0000000010051c80                lc_sniff_exit_ready
 .text.lc_sniff_exit_fail
                0x0000000010051c98       0x1a ..\..\platform\libs\libbtstack.a(ext_sniff.o)
                0x0000000010051c98                lc_sniff_exit_fail
 *fill*         0x0000000010051cb2       0x4e 
 .text.lc_sniff_exit
                0x0000000010051d00       0x7e ..\..\platform\libs\libbtstack.a(ext_sniff.o)
                0x0000000010051d00                lc_sniff_exit
 .text.lc_tsco_remote_setup
                0x0000000010051d7e       0x7a ..\..\platform\libs\libbtstack.a(ext_tsco.o)
                0x0000000010051d7e                lc_tsco_remote_setup
 .text.lc_tsco_remote_kill
                0x0000000010051df8       0x22 ..\..\platform\libs\libbtstack.a(ext_tsco.o)
                0x0000000010051df8                lc_tsco_remote_kill
 .text.lc_scan_set_eir
                0x0000000010051e1a       0xf2 ..\..\platform\libs\libbtstack.a(lc_scan.o)
                0x0000000010051e1a                lc_scan_set_eir
 .text.lc_scan_get_eir
                0x0000000010051f0c       0x52 ..\..\platform\libs\libbtstack.a(lc_scan.o)
                0x0000000010051f0c                lc_scan_get_eir
 .text.lc_scan_set_page_timeout
                0x0000000010051f5e        0x8 ..\..\platform\libs\libbtstack.a(lc_scan.o)
                0x0000000010051f5e                lc_scan_set_page_timeout
 .text.lm_word_add
                0x0000000010051f66       0x36 ..\..\platform\libs\libbtstack.a(lm_hmac.o)
 .text.lm_n192_ucmp
                0x0000000010051f9c       0x26 ..\..\platform\libs\libbtstack.a(lm_hmac.o)
 .text.lm_word_mul.part.1
                0x0000000010051fc2       0x6c ..\..\platform\libs\libbtstack.a(lm_hmac.o)
 .text.lm_word_mul_add.part.2
                0x000000001005202e       0x6c ..\..\platform\libs\libbtstack.a(lm_hmac.o)
 .text.lm_n_zero.part.3
                0x000000001005209a        0xe ..\..\platform\libs\libbtstack.a(lm_hmac.o)
 .text.lm_n_zero
                0x00000000100520a8       0x16 ..\..\platform\libs\libbtstack.a(lm_hmac.o)
 .text.lm_n192_rshift
                0x00000000100520be       0x9c ..\..\platform\libs\libbtstack.a(lm_hmac.o)
 .text.lm_n_copy.constprop.11
                0x000000001005215a       0x3a ..\..\platform\libs\libbtstack.a(lm_hmac.o)
 .text.lm_n192_lshift1
                0x0000000010052194       0x56 ..\..\platform\libs\libbtstack.a(lm_hmac.o)
 .text.lm_n_is_one.constprop.12
                0x00000000100521ea       0x20 ..\..\platform\libs\libbtstack.a(lm_hmac.o)
 .text.lm_word_sub.part.0.constprop.15
                0x000000001005220a       0x2c ..\..\platform\libs\libbtstack.a(lm_hmac.o)
 .text.lm_n384_192_sub.constprop.5
                0x0000000010052236       0x38 ..\..\platform\libs\libbtstack.a(lm_hmac.o)
 .text.lm_n192_usub
                0x000000001005226e       0x32 ..\..\platform\libs\libbtstack.a(lm_hmac.o)
 .text.lm_n192_add.constprop.7
                0x00000000100522a0       0x76 ..\..\platform\libs\libbtstack.a(lm_hmac.o)
 .text.lm_n192_sqr
                0x0000000010052316      0x13e ..\..\platform\libs\libbtstack.a(lm_hmac.o)
 .text.lm_n192_mod_sub
                0x0000000010052454       0xac ..\..\platform\libs\libbtstack.a(lm_hmac.o)
 .text.lm_n_is_zero
                0x0000000010052500       0x26 ..\..\platform\libs\libbtstack.a(lm_hmac.o)
                0x0000000010052500                lm_n_is_zero
 .text.lm_n_num_bits
                0x0000000010052526       0x80 ..\..\platform\libs\libbtstack.a(lm_hmac.o)
 .text.lm_n192_384_cmp.constprop.8
                0x00000000100525a6       0x3c ..\..\platform\libs\libbtstack.a(lm_hmac.o)
 .text.unlikely.lm_n192_mod_lshift_quick
                0x00000000100525e2      0x116 ..\..\platform\libs\libbtstack.a(lm_hmac.o)
 .text.lm_n192_mod_lshift1_quick
                0x00000000100526f8       0x3c ..\..\platform\libs\libbtstack.a(lm_hmac.o)
 .text.lm_n192_mod_add
                0x0000000010052734       0x7c ..\..\platform\libs\libbtstack.a(lm_hmac.o)
 .text.lm_sp_n192_n_mod
                0x00000000100527b0      0x158 ..\..\platform\libs\libbtstack.a(lm_hmac.o)
 .text.lm_n192_mod_sqr
                0x0000000010052908       0x2a ..\..\platform\libs\libbtstack.a(lm_hmac.o)
 .text.lm_n192_mod_mul
                0x0000000010052932      0x110 ..\..\platform\libs\libbtstack.a(lm_hmac.o)
 .text.lm_n192_rshift1
                0x0000000010052a42       0x74 ..\..\platform\libs\libbtstack.a(lm_hmac.o)
 .text.lm_sp_sha256_calculate
                0x0000000010052ab6      0x2a6 ..\..\platform\libs\libbtstack.a(lm_hmac.o)
                0x0000000010052ab6                lm_sp_sha256_calculate
 .text.lm_sp_n_one
                0x0000000010052d5c       0x2a ..\..\platform\libs\libbtstack.a(lm_hmac.o)
                0x0000000010052d5c                lm_sp_n_one
 .text.lm_n192_mod_inverse
                0x0000000010052d86      0x1de ..\..\platform\libs\libbtstack.a(lm_hmac.o)
 .text.lm_sp_n192_convert_wnaf
                0x0000000010052f64       0xb4 ..\..\platform\libs\libbtstack.a(lm_hmac.o)
                0x0000000010052f64                lm_sp_n192_convert_wnaf
 .text.lm_sp_p192_point_to_inf
                0x0000000010053018       0x16 ..\..\platform\libs\libbtstack.a(lm_hmac.o)
                0x0000000010053018                lm_sp_p192_point_to_inf
 .text.lm_sp_p192_point_jacobian_to_affine
                0x000000001005302e       0x98 ..\..\platform\libs\libbtstack.a(lm_hmac.o)
                0x000000001005302e                lm_sp_p192_point_jacobian_to_affine
 .text.lm_sp_p192_points_jacobian_to_affine
                0x00000000100530c6      0x18c ..\..\platform\libs\libbtstack.a(lm_hmac.o)
                0x00000000100530c6                lm_sp_p192_points_jacobian_to_affine
 .text.lm_sp_p192_dbl
                0x0000000010053252      0x1bc ..\..\platform\libs\libbtstack.a(lm_hmac.o)
                0x0000000010053252                lm_sp_p192_dbl
 .text.lm_sp_p192_add
                0x000000001005340e      0x2e4 ..\..\platform\libs\libbtstack.a(lm_hmac.o)
                0x000000001005340e                lm_sp_p192_add
 .text.lm_sp_pre_compute_points
                0x00000000100536f2       0x52 ..\..\platform\libs\libbtstack.a(lm_hmac.o)
                0x00000000100536f2                lm_sp_pre_compute_points
 .text.lm_sp_p192_invert
                0x0000000010053744       0x4c ..\..\platform\libs\libbtstack.a(lm_hmac.o)
                0x0000000010053744                lm_sp_p192_invert
 .text.stack.linked_list
                0x0000000010053790       0x6e ..\..\platform\libs\libbtstack.a(btstack_linked_list.o)
                0x0000000010053790                btstack_linked_list_get_last_item
                0x000000001005379e                btstack_linked_list_add
                0x00000000100537b2                btstack_linked_list_add_tail
                0x00000000100537c6                btstack_linked_list_remove
                0x00000000100537e0                btstack_linked_list_count
                0x00000000100537ee                btstack_linked_list_iterator_remove
 .text.fsdisk_callback_init
                0x00000000100537fe       0x5e ..\..\platform\libs\libdrivers.a(diskio.o)
                0x00000000100537fe                fsdisk_callback_init
 .text.disk_initialize
                0x000000001005385c       0x1c ..\..\platform\libs\libdrivers.a(diskio.o)
                0x000000001005385c                disk_initialize
 .text.disk_readp
                0x0000000010053878       0x22 ..\..\platform\libs\libdrivers.a(diskio.o)
                0x0000000010053878                disk_readp
 .text.disk_writep
                0x000000001005389a       0x22 ..\..\platform\libs\libdrivers.a(diskio.o)
                0x000000001005389a                disk_writep
 .text.save_filepiont_do
                0x00000000100538bc       0x90 ..\..\platform\libs\libdrivers.a(pff_fat.o)
 .text.fs.scan  0x000000001005394c      0x4c0 ..\..\platform\libs\libdrivers.a(pff_fat.o)
                0x00000000100539c4                save_dir_point
                0x0000000010053a2a                fs_get_short_fname
                0x0000000010053a7e                fs_scan_files
                0x0000000010053dfc                fs_get_fname_extension
 .text.fs_window_lru.isra.1
                0x0000000010053e0c       0x4a ..\..\platform\libs\libdrivers.a(pff_fat.o)
 .text.fclst_init
                0x0000000010053e56       0x1a ..\..\platform\libs\libdrivers.a(pff_fat.o)
                0x0000000010053e56                fclst_init
 .text.save_clust
                0x0000000010053e70       0x9a ..\..\platform\libs\libdrivers.a(pff_fat.o)
                0x0000000010053e70                save_clust
 .text.load_clust
                0x0000000010053f0a       0xe2 ..\..\platform\libs\libdrivers.a(pff_fat.o)
                0x0000000010053f0a                load_clust
 .text.pf_window_counter
                0x0000000010053fec       0x1c ..\..\platform\libs\libdrivers.a(pff_fat.o)
                0x0000000010053fec                pf_window_counter
 .text.fs_move_window_cache
                0x0000000010054008       0x90 ..\..\platform\libs\libdrivers.a(pff_fat.o)
 .text.pf_setdir_root
                0x0000000010054098       0x24 ..\..\platform\libs\libdrivers.a(pff_fat.o)
                0x0000000010054098                pf_setdir_root
 .text.load_dir_point
                0x00000000100540bc       0x6a ..\..\platform\libs\libdrivers.a(pff_fat.o)
                0x00000000100540bc                load_dir_point
 .text.restore_file_point
                0x0000000010054126       0xfc ..\..\platform\libs\libdrivers.a(pff_fat.o)
                0x0000000010054126                restore_file_point
 .text.load_file_point
                0x0000000010054222       0x6e ..\..\platform\libs\libdrivers.a(pff_fat.o)
                0x0000000010054222                load_file_point
 .text.load_file_dpath
                0x0000000010054290       0x3e ..\..\platform\libs\libdrivers.a(pff_fat.o)
                0x0000000010054290                load_file_dpath
 .text.find_dir_index
                0x00000000100542ce       0x4c ..\..\platform\libs\libdrivers.a(pff_fat.o)
                0x00000000100542ce                find_dir_index
 .text.save_file_point
                0x000000001005431a       0xca ..\..\platform\libs\libdrivers.a(pff_fat.o)
                0x000000001005431a                save_file_point
 .text.save_file_dpath
                0x00000000100543e4       0x5a ..\..\platform\libs\libdrivers.a(pff_fat.o)
                0x00000000100543e4                save_file_dpath
 .text.dpath_init
                0x000000001005443e       0x88 ..\..\platform\libs\libdrivers.a(pff_fat.o)
                0x000000001005443e                dpath_init
 .text.fs_scan_set
                0x00000000100544c6       0x20 ..\..\platform\libs\libdrivers.a(pff_fat.o)
                0x00000000100544c6                fs_scan_set
 .text.fs_open  0x00000000100544e6       0x54 ..\..\platform\libs\libdrivers.a(pff_fat.o)
                0x00000000100544e6                fs_open
 .text.fs_mount
                0x000000001005453a       0x52 ..\..\platform\libs\libdrivers.a(pff_fat.o)
                0x000000001005453a                fs_mount
 .text.fs_read  0x000000001005458c       0x30 ..\..\platform\libs\libdrivers.a(pff_fat.o)
                0x000000001005458c                fs_read
 .text.fs_lseek
                0x00000000100545bc       0x2a ..\..\platform\libs\libdrivers.a(pff_fat.o)
                0x00000000100545bc                fs_lseek
 .text.fs_var_init
                0x00000000100545e6       0x14 ..\..\platform\libs\libdrivers.a(pff_fat.o)
                0x00000000100545e6                fs_var_init
 .text.fs_get_total_files
                0x00000000100545fa       0x8a ..\..\platform\libs\libdrivers.a(pff_fat.o)
                0x00000000100545fa                fs_get_total_files
 .text.fs_getdir_files
                0x0000000010054684       0x5c ..\..\platform\libs\libdrivers.a(pff_fat.o)
                0x0000000010054684                fs_getdir_files
 .text.fs_open_num
                0x00000000100546e0       0x90 ..\..\platform\libs\libdrivers.a(pff_fat.o)
                0x00000000100546e0                fs_open_num
 .text.fs_open_dir_num
                0x0000000010054770       0x7c ..\..\platform\libs\libdrivers.a(pff_fat.o)
                0x0000000010054770                fs_open_dir_num
 .text.fs_get_dir_fstart
                0x00000000100547ec        0xe ..\..\platform\libs\libdrivers.a(pff_fat.o)
                0x00000000100547ec                fs_get_dir_fstart
 .text.fs_get_dirs_count
                0x00000000100547fa        0x8 ..\..\platform\libs\libdrivers.a(pff_fat.o)
                0x00000000100547fa                fs_get_dirs_count
 .text.fs_get_file_size
                0x0000000010054802        0x8 ..\..\platform\libs\libdrivers.a(pff_fat.o)
                0x0000000010054802                fs_get_file_size
 .text.fs_save_file_info
                0x000000001005480a       0x10 ..\..\platform\libs\libdrivers.a(pff_fat.o)
                0x000000001005480a                fs_save_file_info
 .text.fs_load_file_info
                0x000000001005481a       0x12 ..\..\platform\libs\libdrivers.a(pff_fat.o)
                0x000000001005481a                fs_load_file_info
 .text.sdio     0x000000001005482c      0x31c ..\..\platform\libs\libdrivers.a(sd.o)
                0x000000001005482c                sd_read_wait
                0x0000000010054884                sd_write_wait
                0x00000000100548d6                sdio_req_pending
                0x00000000100548ee                sdio_req
                0x000000001005494e                sdio_read_kick
                0x000000001005495a                sdio_write_kick
                0x000000001005496a                sdio_isbusy
                0x0000000010054974                sd_go_idle_state
                0x000000001005497e                mmc_send_op_cond
                0x000000001005498a                sd_req_all_send_cid
                0x0000000010054994                sd_send_relative_addr
                0x00000000100549b8                mmc_set_relative_addr
                0x00000000100549c4                sd_select_card
                0x00000000100549ce                sd_req_send_if_cond
                0x00000000100549da                get_sd_capacity
                0x0000000010054a26                get_mmc_capacity
                0x0000000010054a58                sd_req_send_csd
                0x0000000010054a8c                sd_stop_transmission
                0x0000000010054ab8                sd_send_status
                0x0000000010054ac2                sd_read_multiple_block
                0x0000000010054aca                sd_write_multiple_block
                0x0000000010054ad4                sd_app_cmd
                0x0000000010054ade                sd_send_op_cond_0
                0x0000000010054b06                sd_send_op_cond_1
                0x0000000010054b2e                sdio_setbaud
 .text.sd_relative_addr_auto
                0x0000000010054b48       0x18 ..\..\platform\libs\libdrivers.a(sd.o)
                0x0000000010054b48                sd_relative_addr_auto
 .text.sdinit   0x0000000010054b60      0x360 ..\..\platform\libs\libdrivers.a(sd.o)
                0x0000000010054b60                sdcfg_init
                0x0000000010054b82                sdio_init
                0x0000000010054bd8                sd_type_identification
                0x0000000010054c64                sd_go_ready_try
                0x0000000010054cca                sd_go_ready
                0x0000000010054d10                sd_try_init
                0x0000000010054e28                sd_init
 .text.sdfunc   0x0000000010054ec0       0x20 ..\..\platform\libs\libdrivers.a(sd.o)
                0x0000000010054ec0                sdfunc_init
 .text.sdread   0x0000000010054ee0      0x298 ..\..\platform\libs\libdrivers.a(sd.o)
                0x0000000010054ee0                sd_read_send_cmd
                0x0000000010054f32                sd_stop
                0x0000000010054ff4                sd_read_start
                0x000000001005506c                sd_read_try
                0x00000000100550c8                sd_read
 .text.sdwrite  0x0000000010055178      0x16e ..\..\platform\libs\libdrivers.a(sd.o)
                0x0000000010055178                sd_write_send_cmd
                0x00000000100551a2                sd_write_start
                0x0000000010055214                sd_write_try
                0x0000000010055266                sd_write
 .text.usb_init
                0x00000000100552e6       0x82 ..\..\platform\libs\libdrivers.a(usb_comm.o)
                0x00000000100552e6                usb_init
 .text.usb_host_enter
                0x0000000010055368       0x60 ..\..\platform\libs\libdrivers.a(usb_comm.o)
                0x0000000010055368                usb_host_enter
 .text.usb_device_exit
                0x00000000100553c8       0x22 ..\..\platform\libs\libdrivers.a(usb_device_run_loop.o)
                0x00000000100553c8                usb_device_exit
 .text.usb_device_init
                0x00000000100553ea       0xfc ..\..\platform\libs\libdrivers.a(usb_device_run_loop.o)
                0x00000000100553ea                usb_device_init
 .text.usb_device_enter
                0x00000000100554e6       0x68 ..\..\platform\libs\libdrivers.a(usb_device_run_loop.o)
                0x00000000100554e6                usb_device_enter
 .text.usb_host_var_init
                0x000000001005554e       0x30 ..\..\platform\libs\libdrivers.a(usb_host_manage.o)
                0x000000001005554e                usb_host_var_init
 .text.uhs_is_iphone
                0x000000001005557e       0x10 ..\..\platform\libs\libdrivers.a(usb_host_manage.o)
                0x000000001005557e                uhs_is_iphone
 .text.usb.host.init
                0x000000001005558e       0x9e ..\..\platform\libs\libdrivers.a(usb_host_manage.o)
                0x000000001005558e                usb_host_init
 .text.udisk_read
                0x000000001005562c       0x84 ..\..\platform\libs\libdrivers.a(usb_host_manage.o)
                0x000000001005562c                udisk_read
 .text.udisk_write
                0x00000000100556b0       0x56 ..\..\platform\libs\libdrivers.a(usb_host_manage.o)
                0x00000000100556b0                udisk_write
 .text.do_transfer
                0x0000000010055706       0xcc ..\..\platform\libs\libdrivers.a(usb_host_storage.o)
 .text.do_receive
                0x00000000100557d2      0x102 ..\..\platform\libs\libdrivers.a(usb_host_storage.o)
 .text.do_request
                0x00000000100558d4      0x1ee ..\..\platform\libs\libdrivers.a(usb_host_storage.o)
 .text.do_scsi_request
                0x0000000010055ac2      0x118 ..\..\platform\libs\libdrivers.a(usb_host_storage.o)
 .text.uhs_start
                0x0000000010055bda      0x1a4 ..\..\platform\libs\libdrivers.a(usb_host_storage.o)
                0x0000000010055bda                uhs_start
 .text.uhs_read
                0x0000000010055d7e       0x6c ..\..\platform\libs\libdrivers.a(usb_host_storage.o)
                0x0000000010055d7e                uhs_read
 .text.uhs_write
                0x0000000010055dea       0x6c ..\..\platform\libs\libdrivers.a(usb_host_storage.o)
                0x0000000010055dea                uhs_write
 .text.uhs_init
                0x0000000010055e56       0x24 ..\..\platform\libs\libdrivers.a(usb_host_storage.o)
                0x0000000010055e56                uhs_init
 .text.st_clust
                0x0000000010055e7a       0x1c ..\..\platform\libs\libdrivers.a(pff.o)
 .text.get_clust
                0x0000000010055e96       0x22 ..\..\platform\libs\libdrivers.a(pff.o)
 .text.xdir_sum
                0x0000000010055eb8       0x38 ..\..\platform\libs\libdrivers.a(pff.o)
 .text.xname_hash
                0x0000000010055ef0       0x40 ..\..\platform\libs\libdrivers.a(pff.o)
 .text.read_window
                0x0000000010055f30       0x20 ..\..\platform\libs\libdrivers.a(pff.o)
 .text.sync_window
                0x0000000010055f50       0x50 ..\..\platform\libs\libdrivers.a(pff.o)
 .text.move_window
                0x0000000010055fa0       0x42 ..\..\platform\libs\libdrivers.a(pff.o)
 .text.get_fat_exfat
                0x0000000010055fe2       0xde ..\..\platform\libs\libdrivers.a(pff.o)
 .text.check_fs
                0x00000000100560c0       0x48 ..\..\platform\libs\libdrivers.a(pff.o)
 .text.unicode_lfn_compare.constprop.7
                0x0000000010056108       0x58 ..\..\platform\libs\libdrivers.a(pff.o)
 .text.get_fattime
                0x0000000010056160       0x10 ..\..\platform\libs\libdrivers.a(pff.o)
                0x0000000010056160                get_fattime
 .text.set_move_window
                0x0000000010056170       0x36 ..\..\platform\libs\libdrivers.a(pff.o)
                0x0000000010056170                set_move_window
 .text.fs.scan  0x00000000100561a6      0x450 ..\..\platform\libs\libdrivers.a(pff.o)
                0x00000000100561a6                get_fat
                0x00000000100562bc                clust2sect
                0x00000000100562dc                pf_readdir
 .text.dir_sdi  0x00000000100565f6       0xd0 ..\..\platform\libs\libdrivers.a(pff.o)
 .text.put_fat  0x00000000100566c6      0x1ba ..\..\platform\libs\libdrivers.a(pff.o)
                0x00000000100566c6                put_fat
 .text.remove_chain
                0x0000000010056880       0xa2 ..\..\platform\libs\libdrivers.a(pff.o)
 .text.get_next_free
                0x0000000010056922       0xa0 ..\..\platform\libs\libdrivers.a(pff.o)
                0x0000000010056922                get_next_free
 .text.create_chain
                0x00000000100569c2       0x8e ..\..\platform\libs\libdrivers.a(pff.o)
 .text.dir_next
                0x0000000010056a50      0x126 ..\..\platform\libs\libdrivers.a(pff.o)
 .text.dir_alloc
                0x0000000010056b76       0xf2 ..\..\platform\libs\libdrivers.a(pff.o)
 .text.dir_rewind
                0x0000000010056c68       0x50 ..\..\platform\libs\libdrivers.a(pff.o)
                0x0000000010056c68                dir_rewind
 .text.follow_path
                0x0000000010056cb8      0x50c ..\..\platform\libs\libdrivers.a(pff.o)
 .text.dir_register_exfat
                0x00000000100571c4      0x16e ..\..\platform\libs\libdrivers.a(pff.o)
                0x00000000100571c4                dir_register_exfat
 .text.dir_register
                0x0000000010057332      0x226 ..\..\platform\libs\libdrivers.a(pff.o)
 .text.pf_mount
                0x0000000010057558      0x356 ..\..\platform\libs\libdrivers.a(pff.o)
                0x0000000010057558                pf_mount
 .text.pf_open  0x00000000100578ae      0x340 ..\..\platform\libs\libdrivers.a(pff.o)
                0x00000000100578ae                pf_open
 .text.pf_read  0x0000000010057bee      0x352 ..\..\platform\libs\libdrivers.a(pff.o)
                0x0000000010057bee                pf_read
 .text.pf_lseek
                0x0000000010057f40       0x74 ..\..\platform\libs\libdrivers.a(pff.o)
                0x0000000010057f40                pf_lseek
 .text.pf_rootdir
                0x0000000010057fb4       0x3c ..\..\platform\libs\libdrivers.a(pff.o)
                0x0000000010057fb4                pf_rootdir
 .text.pf_open_exist
                0x0000000010057ff0       0x68 ..\..\platform\libs\libdrivers.a(pff.o)
                0x0000000010057ff0                pf_open_exist
 .text.pf_opendir_exist
                0x0000000010058058       0x3e ..\..\platform\libs\libdrivers.a(pff.o)
                0x0000000010058058                pf_opendir_exist
 .text.wait_transfering
                0x0000000010058096       0x3e ..\..\platform\libs\libdrivers.a(usb_host_enum.o)
 .text.do_receive
                0x00000000100580d4       0x94 ..\..\platform\libs\libdrivers.a(usb_host_enum.o)
 .text.do_skip_rxdata
                0x0000000010058168       0x4a ..\..\platform\libs\libdrivers.a(usb_host_enum.o)
 .text.do_request
                0x00000000100581b2      0x266 ..\..\platform\libs\libdrivers.a(usb_host_enum.o)
 .text.uhe_reset
                0x0000000010058418       0x32 ..\..\platform\libs\libdrivers.a(usb_host_enum.o)
                0x0000000010058418                uhe_reset
 .text.uhe_start
                0x000000001005844a      0x1f6 ..\..\platform\libs\libdrivers.a(usb_host_enum.o)
                0x000000001005844a                uhe_start
 .text.uhe_clear_feature
                0x0000000010058640       0x4c ..\..\platform\libs\libdrivers.a(usb_host_enum.o)
                0x0000000010058640                uhe_clear_feature
 .text.uhe_init
                0x000000001005868c       0x26 ..\..\platform\libs\libdrivers.a(usb_host_enum.o)
                0x000000001005868c                uhe_init
 .text.aviobuf  0x00000000100586b2       0x92 ..\..\platform\libs\libcodecs.a(aviobuf.o)
                0x00000000100586b2                avio_get_sample_index
                0x00000000100586de                avio_buf_init
 *fill*         0x0000000010058744        0x0 
 .text.spr.table
                0x0000000010058744       0x16 ..\..\platform\libs\libcodecs.a(aviobuf.o)
                0x0000000010058744                tbl_sample_rate
 .text.deccom   0x000000001005875a       0x16 ..\..\platform\libs\libcodecs.a(codecs_com.o)
                0x000000001005875a                calc_frame_count
 .text.qskip    0x0000000010058770      0x128 ..\..\platform\libs\libcodecs.a(codecs_com.o)
                0x0000000010058770                codec_qskip_init
                0x00000000100587b4                music_qskip
                0x000000001005881a                calc_qskip_target_offset
                0x000000001005884c                music_qskip_end
                0x0000000010058874                music_set_jump
 .text.mp3.init
                0x0000000010058898      0x242 ..\..\platform\libs\libcodecs.a(mp3_dec.o)
                0x0000000010058898                mp3_id3v2_match
                0x000000001005890e                mp3_id3v2_tag_len
                0x0000000010058946                mp3_id3v2_parse
                0x00000000100589a6                mp3_read_init
                0x0000000010058a4a                mp3_dec_init
                0x0000000010058a78                spi_mp3_dec_init
 .text.msbc.init
                0x0000000010058ada       0x4e ..\..\platform\libs\libcodecs.a(bt_sbc.o)
                0x0000000010058ada                msbc_dec_init
 .text          0x0000000010058b28        0x4 ..\..\platform\libs\libcodecs.a(sbc.o)
                0x0000000010058b28                sbc_get_trig_len
 .text.msbc.init
                0x0000000010058b2c       0x72 ..\..\platform\libs\libcodecs.a(sbc_dec.o)
                0x0000000010058b2c                sbcdec_init_msbc
 *(.rodata*)
 *fill*         0x0000000010058b9e        0x2 
 .rodata        0x0000000010058ba0       0x48 Output\obj\platform\bsp\bsp_audio.o
                0x0000000010058ba0                rec_cfg_tbl
 .rodata        0x0000000010058be8       0x5c Output\obj\platform\bsp\bsp_bt.o
                0x0000000010058c34                bt_local_guid
 .rodata.str1.4
                0x0000000010058c44       0x28 Output\obj\platform\bsp\bsp_bt.o
 .rodata        0x0000000010058c6c        0x9 Output\obj\platform\bsp\bsp_dac.o
 *fill*         0x0000000010058c75        0x3 
 .rodata.str1.4
                0x0000000010058c78       0x1d Output\obj\platform\bsp\bsp_dac.o
 *fill*         0x0000000010058c95        0x3 
 .rodata        0x0000000010058c98        0xa Output\obj\platform\bsp\bsp_eq.o
                0x0000000010058c98                tbl_eq_version
 *fill*         0x0000000010058ca2        0x2 
 .rodata.str1.4
                0x0000000010058ca4        0xd Output\obj\platform\bsp\bsp_eq.o
                                         0x16 (size before relaxing)
 *fill*         0x0000000010058cb1        0x3 
 .rodata        0x0000000010058cb4        0xe Output\obj\platform\bsp\bsp_fmrx.o
 *fill*         0x0000000010058cc2        0x2 
 .rodata.str1.4
                0x0000000010058cc4        0x4 Output\obj\platform\bsp\bsp_fmrx.o
 .rodata.str1.4
                0x0000000010058cc8        0x8 Output\obj\platform\bsp\bsp_fs.o
 .rodata.str1.4
                0x0000000010058cd0       0x2e Output\obj\platform\bsp\bsp_key.o
 *fill*         0x0000000010058cfe        0x2 
 .rodata.str1.4
                0x0000000010058d00       0x17 Output\obj\platform\bsp\bsp_param.o
 *fill*         0x0000000010058d17        0x1 
 .rodata        0x0000000010058d18        0xc Output\obj\platform\bsp\bsp_spp.o
                0x0000000010058d18                bt_key_msg_tbl
 .rodata.str1.4
                0x0000000010058d24        0x8 Output\obj\platform\bsp\bsp_spp.o
 .rodata.str1.4
                0x0000000010058d2c       0x85 Output\obj\platform\bsp\bsp_sys.o
 *fill*         0x0000000010058db1        0x3 
 .rodata        0x0000000010058db4       0x39 Output\obj\platform\functions\func.o
 *fill*         0x0000000010058ded        0x3 
 .rodata.str1.4
                0x0000000010058df0       0x14 Output\obj\platform\functions\func.o
                                         0x18 (size before relaxing)
 .rodata        0x0000000010058e04        0x9 Output\obj\platform\functions\func_aux.o
 .rodata.str1.4
                0x0000000010058e0d        0x4 Output\obj\platform\functions\func_aux.o
 *fill*         0x0000000010058e0d        0x3 
 .rodata        0x0000000010058e10       0x28 Output\obj\platform\functions\func_bt.o
 .rodata.str1.4
                0x0000000010058e38        0x4 Output\obj\platform\functions\func_bt.o
 .rodata        0x0000000010058e38        0xb Output\obj\platform\functions\func_bt_hid.o
 .rodata.str1.4
                0x0000000010058e43        0x4 Output\obj\platform\functions\func_bt_hid.o
 *fill*         0x0000000010058e43        0x1 
 .rodata        0x0000000010058e44        0xb Output\obj\platform\functions\func_clock.o
 *fill*         0x0000000010058e4f        0x1 
 .rodata.str1.4
                0x0000000010058e50       0x2a Output\obj\platform\functions\func_clock.o
                                         0x30 (size before relaxing)
 *fill*         0x0000000010058e7a        0x2 
 .rodata        0x0000000010058e7c       0x1a Output\obj\platform\functions\func_fmrx.o
 *fill*         0x0000000010058e96        0x2 
 .rodata.str1.4
                0x0000000010058e98       0x1c Output\obj\platform\functions\func_fmrx.o
                                         0x20 (size before relaxing)
 .rodata        0x0000000010058eb4       0x18 Output\obj\platform\functions\func_lowpwr.o
 .rodata.str1.4
                0x0000000010058ecc        0xc Output\obj\platform\functions\func_lowpwr.o
                                         0x10 (size before relaxing)
 .rodata        0x0000000010058ed8        0xb Output\obj\platform\functions\func_music.o
 *fill*         0x0000000010058ee3        0x1 
 .rodata.str1.4
                0x0000000010058ee4       0x85 Output\obj\platform\functions\func_music.o
                                         0x8c (size before relaxing)
 *fill*         0x0000000010058f69        0x3 
 .rodata        0x0000000010058f6c        0xd Output\obj\platform\functions\func_speaker.o
 .rodata.str1.4
                0x0000000010058f79        0x4 Output\obj\platform\functions\func_speaker.o
 *fill*         0x0000000010058f79        0x3 
 .rodata        0x0000000010058f7c        0xd Output\obj\platform\functions\func_update.o
                0x0000000010058f7c                upd_filename
 *fill*         0x0000000010058f89        0x3 
 .rodata        0x0000000010058f8c        0xc Output\obj\platform\functions\func_usbdev.o
 .rodata.str1.4
                0x0000000010058f98        0x4 Output\obj\platform\functions\func_usbdev.o
 .rodata        0x0000000010058f98        0xe Output\obj\platform\functions\sfunc_bt_call.o
 .rodata.str1.4
                0x0000000010058fa6        0x4 Output\obj\platform\functions\sfunc_bt_call.o
 *fill*         0x0000000010058fa6        0x2 
 .rodata        0x0000000010058fa8        0xd Output\obj\platform\functions\sfunc_bt_ota.o
 .rodata.str1.4
                0x0000000010058fb5        0x4 Output\obj\platform\functions\sfunc_bt_ota.o
 *fill*         0x0000000010058fb5        0x3 
 .rodata        0x0000000010058fb8       0x5e Output\obj\platform\functions\sfunc_bt_ring.o
                0x0000000010058fb8                ring_num_tbl
 .rodata.str1.4
                0x0000000010059016        0x4 Output\obj\platform\functions\sfunc_bt_ring.o
 *fill*         0x0000000010059016        0x2 
 .rodata.func.table
                0x0000000010059018        0x8 Output\obj\projects\standard\config.o
                0x0000000010059018                func_sort_table
 .rodata.str1.4
                0x0000000010059020        0xe Output\obj\projects\standard\main.o
 *fill*         0x000000001005902e        0x2 
 .rodata.str1.4
                0x0000000010059030       0x25 Output\obj\projects\standard\message\msg_music.o
 *fill*         0x0000000010059055        0x3 
 .rodata        0x0000000010059058       0x30 Output\obj\projects\standard\plugin\eq_table.o
                0x0000000010059058                music_eq_tbl
 .rodata        0x0000000010059088       0xdc ..\..\platform\libs\libplatform.a(audio_eq.o)
                0x0000000010059150                eq_param_normal_tbl
 .rodata.str1.4
                0x0000000010059164       0x30 ..\..\platform\libs\libplatform.a(audio_eq.o)
                                         0x38 (size before relaxing)
 .rodata.str1.4
                0x0000000010059194        0xd ..\..\platform\libs\libplatform.a(bt.o)
 *fill*         0x00000000100591a1        0x3 
 .rodata.str1.4
                0x00000000100591a4        0xd ..\..\platform\libs\libplatform.a(bt_aec.o)
 *fill*         0x00000000100591b1        0x3 
 .rodata.alc    0x00000000100591b4       0x18 ..\..\platform\libs\libplatform.a(bt_alc.o)
                0x00000000100591b4                tbl_alc_fade_delay
                0x00000000100591c0                tbl_alc_fade_step
 .rodata.str1.4
                0x00000000100591cc        0xd ..\..\platform\libs\libplatform.a(bt_alc.o)
 *fill*         0x00000000100591d9        0x3 
 .rodata.str1.4
                0x00000000100591dc       0x5c ..\..\platform\libs\libplatform.a(cm.o)
 .rodata.str1.4
                0x0000000010059238       0x10 ..\..\platform\libs\libplatform.a(main.o)
 .rodata        0x0000000010059248       0x1c ..\..\platform\libs\libplatform.a(music.o)
 .rodata.str1.4
                0x0000000010059264       0x8b ..\..\platform\libs\libplatform.a(startup.o)
 *fill*         0x00000000100592ef        0x1 
 .rodata.str1.4
                0x00000000100592f0       0x65 ..\..\platform\libs\libplatform.a(sys_hook.o)
 *fill*         0x0000000010059355        0x3 
 .rodata        0x0000000010059358        0xc ..\..\platform\libs\libplatform.a(rtc_time.o)
 .rodata.str1.4
                0x0000000010059364       0x8f ..\..\platform\libs\libplatform.a(lock.o)
 *fill*         0x00000000100593f3        0x1 
 .rodata        0x00000000100593f4       0x28 ..\..\platform\libs\libplatform.a(sys_clk.o)
 .rodata        0x000000001005941c        0xb ..\..\platform\libs\libplatform.a(update.o)
 *fill*         0x0000000010059427        0x1 
 .rodata        0x0000000010059428       0x20 ..\..\platform\libs\libplatform.a(thread_driver.o)
 .rodata        0x0000000010059448       0x1c ..\..\platform\libs\libplatform.a(audio_pcm.o)
 .rodata.str1.4
                0x0000000010059464        0x4 ..\..\platform\libs\libplatform.a(bt_ota.o)
 .rodata        0x0000000010059468       0x59 ..\..\platform\libs\libbtstack.a(bb_rf.o)
 *fill*         0x00000000100594c1        0x3 
 .rodata.bb.ble
                0x00000000100594c4       0x1c ..\..\platform\libs\libbtstack.a(ble_con.o)
 .rodata.bb.tbl
                0x00000000100594e0       0x48 ..\..\platform\libs\libbtstack.a(ext_init.o)
 .rodata        0x0000000010059528       0x40 ..\..\platform\libs\libbtstack.a(ext_util.o)
                0x0000000010059528                ext_util_prbs_64bytes
 .rodata.bb.tbl
                0x0000000010059568       0x14 ..\..\platform\libs\libbtstack.a(lc.o)
 .rodata.bb.tbl
                0x000000001005957c       0x69 ..\..\platform\libs\libbtstack.a(lc_lmppdu.o)
 *fill*         0x00000000100595e5        0x3 
 .rodata        0x00000000100595e8      0x2e3 ..\..\platform\libs\libbtstack.a(lc_proc.o)
 *fill*         0x00000000100598cb        0x1 
 .rodata.bb.tbl
                0x00000000100598cc      0x464 ..\..\platform\libs\libbtstack.a(lc_proc.o)
                0x0000000010059a60                lc_default_handler
 .rodata.str1.4
                0x0000000010059d30       0x2e ..\..\platform\libs\libbtstack.a(lc_proc.o)
 *fill*         0x0000000010059d5e        0x2 
 .rodata.bb.sco
                0x0000000010059d60       0x2c ..\..\platform\libs\libbtstack.a(lc_sco.o)
 .rodata.str1.4
                0x0000000010059d8c       0x29 ..\..\platform\libs\libbtstack.a(lc_sco.o)
 *fill*         0x0000000010059db5        0x3 
 .rodata.bb.tbl
                0x0000000010059db8       0x14 ..\..\platform\libs\libbtstack.a(lm.o)
 .rodata.bb.lm_key
                0x0000000010059dcc      0x430 ..\..\platform\libs\libbtstack.a(lm_key.o)
 .rodata.bb.tbl
                0x000000001005a1fc      0x2e8 ..\..\platform\libs\libbtstack.a(lm_proc.o)
                0x000000001005a1fc                lm_default_handler
                0x000000001005a204                lm_state_handler
 .rodata        0x000000001005a4e4       0x9c ..\..\platform\libs\libbtstack.a(lm_sco.o)
 .rodata.bb.lm  0x000000001005a580        0x4 ..\..\platform\libs\libbtstack.a(lm_sco.o)
                0x000000001005a580                vx_set_to_air_mode
 .rodata        0x000000001005a584       0x10 ..\..\platform\libs\libbtstack.a(lm_sp.o)
 .rodata.bb.lm_sp
                0x000000001005a594      0x240 ..\..\platform\libs\libbtstack.a(lm_sp.o)
 .rodata.bb.lm  0x000000001005a7d4       0x1e ..\..\platform\libs\libbtstack.a(lm_util.o)
 *fill*         0x000000001005a7f2        0x2 
 .rodata.bb.tbl
                0x000000001005a7f4      0xd34 ..\..\platform\libs\libbtstack.a(hcic.o)
                0x000000001005a7f4                hci_cpk_ogf
                0x000000001005a844                hci_vs_cpk
                0x000000001005a8a4                hci_le_cpk
                0x000000001005a924                hci_test_cpk
                0x000000001005a938                hci_stat_cpk
                0x000000001005a95c                hci_info_cpk
                0x000000001005a98c                hci_bb_cpk
                0x000000001005ab44                hci_lk_pol_cpk
                0x000000001005ab74                hci_lk_ctrl_cpk
                0x000000001005ac48                hci_vs_epk
                0x000000001005ace0                hci_llc_epk
                0x000000001005ad98                hci_llm_epk
                0x000000001005aec8                hci_lc_epk
                0x000000001005b180                hci_lm_epk
 .rodata.str1.4
                0x000000001005b528       0x31 ..\..\platform\libs\libbtstack.a(hcic.o)
 *fill*         0x000000001005b559        0x3 
 .rodata        0x000000001005b55c       0x20 ..\..\platform\libs\libbtstack.a(hcic_proc.o)
 .rodata.bb.tbl
                0x000000001005b57c       0x18 ..\..\platform\libs\libbtstack.a(hcic_proc.o)
                0x000000001005b57c                hci_default_handler
                0x000000001005b584                hci_default_state
 .rodata.str1.4
                0x000000001005b594       0x16 ..\..\platform\libs\libbtstack.a(hcic_proc.o)
 *fill*         0x000000001005b5aa        0x2 
 .rodata.bb.tbl
                0x000000001005b5ac       0x14 ..\..\platform\libs\libbtstack.a(vs.o)
 .rodata.bb.tbl
                0x000000001005b5c0       0x60 ..\..\platform\libs\libbtstack.a(vs_proc.o)
                0x000000001005b5c0                vs_default_handler
 .rodata.stack.api
                0x000000001005b620       0xa8 ..\..\platform\libs\libbtstack.a(btstack_api.o)
                0x000000001005b620                btstack_api
 .rodata.stack.setup
                0x000000001005b6c8       0x14 ..\..\platform\libs\libbtstack.a(btstack_api.o)
 .rodata.str1.4
                0x000000001005b6dc       0x3c ..\..\platform\libs\libbtstack.a(btstack_api.o)
 .rodata        0x000000001005b718       0x14 ..\..\platform\libs\libbtstack.a(btstack_chipset_inner.o)
 .rodata.str1.4
                0x000000001005b72c        0x6 ..\..\platform\libs\libbtstack.a(btstack_chipset_inner.o)
 *fill*         0x000000001005b732        0x2 
 .rodata.str1.4
                0x000000001005b734        0x9 ..\..\platform\libs\libbtstack.a(btstack_main.o)
 *fill*         0x000000001005b73d        0x3 
 .rodata.str1.4
                0x000000001005b740        0x5 ..\..\platform\libs\libbtstack.a(weak_symbol.o)
 *fill*         0x000000001005b745        0x3 
 .rodata        0x000000001005b748       0x30 ..\..\platform\libs\libbtstack.a(btstack_tws.o)
 .rodata.str1.4
                0x000000001005b778       0x67 ..\..\platform\libs\libbtstack.a(btstack_tws.o)
                                         0x6f (size before relaxing)
 *fill*         0x000000001005b7df        0x1 
 .rodata        0x000000001005b7e0       0x10 ..\..\platform\libs\libbtstack.a(btstack_util.o)
                0x000000001005b7e0                bluetooth_base_uuid
 .rodata.stack.a2dp
                0x000000001005b7f0       0x1c ..\..\platform\libs\libbtstack.a(a2dp.o)
 .rodata        0x000000001005b80c        0xe ..\..\platform\libs\libbtstack.a(a2dp_play.o)
 *fill*         0x000000001005b81a        0x2 
 .rodata.str1.4
                0x000000001005b81c       0x19 ..\..\platform\libs\libbtstack.a(a2dp_play.o)
 *fill*         0x000000001005b835        0x3 
 .rodata.stack.avctp
                0x000000001005b838        0x9 ..\..\platform\libs\libbtstack.a(avctp.o)
                0x000000001005b838                remote_capability_events
                0x000000001005b83c                local_capability_events_len
                0x000000001005b840                local_capability_events
 *fill*         0x000000001005b841        0x3 
 .rodata        0x000000001005b844       0x6c ..\..\platform\libs\libbtstack.a(avdtp.o)
 .rodata        0x000000001005b8b0       0x18 ..\..\platform\libs\libbtstack.a(btstack_link_key_db.o)
 .rodata        0x000000001005b8c8       0xe6 ..\..\platform\libs\libbtstack.a(hfp.o)
 *fill*         0x000000001005b9ae        0x2 
 .rodata.str1.4
                0x000000001005b9b0       0xc5 ..\..\platform\libs\libbtstack.a(hfp.o)
 *fill*         0x000000001005ba75        0x3 
 .rodata        0x000000001005ba78       0x70 ..\..\platform\libs\libbtstack.a(hfp_hf.o)
 .rodata.str1.4
                0x000000001005bae8       0xba ..\..\platform\libs\libbtstack.a(hfp_hf.o)
                                        0x12e (size before relaxing)
 *fill*         0x000000001005bba2        0x2 
 .rodata        0x000000001005bba4      0x134 ..\..\platform\libs\libbtstack.a(rfcomm.o)
 .rodata        0x000000001005bcd8       0x2c ..\..\platform\libs\libbtstack.a(sdp_client.o)
 .rodata.sdp.tbl
                0x000000001005bd04      0x397 ..\..\platform\libs\libbtstack.a(sdp_tbl.o)
                0x000000001005bd04                device_id_sdp_service_buffer
                0x000000001005bd44                hid_service_buffer2
                0x000000001005be10                hid_service_buffer
                0x000000001005bf20                avctp_target_service_buffer
                0x000000001005bf64                avctp_controller_service_buffer
                0x000000001005bfa8                avdtp_service_buffer
                0x000000001005bfec                hfp_service_buffer
                0x000000001005c044                spp_service_buffer
 *fill*         0x000000001005c09b        0x1 
 .rodata        0x000000001005c09c       0x18 ..\..\platform\libs\libbtstack.a(spp.o)
 .rodata.stack.spp
                0x000000001005c0b4       0x12 ..\..\platform\libs\libbtstack.a(spp.o)
 *fill*         0x000000001005c0c6        0x2 
 .rodata        0x000000001005c0c8       0x9a ..\..\platform\libs\libbtstack.a(hci.o)
 *fill*         0x000000001005c162        0x2 
 .rodata.str1.4
                0x000000001005c164        0xf ..\..\platform\libs\libbtstack.a(hci.o)
 *fill*         0x000000001005c173        0x1 
 .rodata.stack.hci_send
                0x000000001005c174      0x1a0 ..\..\platform\libs\libbtstack.a(hci_cmd.o)
                0x000000001005c174                hci_test_mode_emul
                0x000000001005c17c                hci_read_rssi
                0x000000001005c184                hci_read_bd_addr
                0x000000001005c18c                hci_read_buffer_size
                0x000000001005c194                hci_read_local_supported_features
                0x000000001005c19c                hci_read_local_supported_commands
                0x000000001005c1a4                hci_write_loopback_mode
                0x000000001005c1ac                hci_read_loopback_mode
                0x000000001005c1b4                hci_write_le_host_supported
                0x000000001005c1bc                hci_read_le_host_supported
                0x000000001005c1c4                hci_write_simple_pairing_mode
                0x000000001005c1cc                hci_write_extended_inquiry_response
                0x000000001005c1d4                hci_write_inquiry_scan_type
                0x000000001005c1dc                hci_write_inquiry_mode
                0x000000001005c1e4                hci_write_link_supervision_timeout
                0x000000001005c1ec                hci_host_buffer_size
                0x000000001005c1f4                hci_write_class_of_device
                0x000000001005c1fc                hci_write_scan_enable
                0x000000001005c204                hci_write_page_timeout
                0x000000001005c20c                hci_write_local_name
                0x000000001005c214                hci_reset
                0x000000001005c21c                hci_set_event_mask
                0x000000001005c224                hci_switch_role_command
                0x000000001005c22c                hci_role_discovery
                0x000000001005c234                hci_io_capability_request_negative_reply
                0x000000001005c23c                hci_remote_oob_data_request_negative_reply
                0x000000001005c244                hci_user_passkey_request_negative_reply
                0x000000001005c24c                hci_user_passkey_request_reply
                0x000000001005c254                hci_user_confirmation_request_negative_reply
                0x000000001005c25c                hci_user_confirmation_request_reply
                0x000000001005c264                hci_io_capability_request_reply
                0x000000001005c26c                hci_accept_synchronous_connection
                0x000000001005c274                hci_setup_synchronous_connection
                0x000000001005c27c                hci_read_clock_offset_command
                0x000000001005c284                hci_read_remote_version_info_command
                0x000000001005c28c                hci_read_remote_supported_features_command
                0x000000001005c294                hci_remote_name_request_cancel
                0x000000001005c29c                hci_remote_name_request
                0x000000001005c2a4                hci_change_connection_link_key
                0x000000001005c2ac                hci_set_connection_encryption
                0x000000001005c2b4                hci_authentication_requested
                0x000000001005c2bc                hci_pin_code_request_negative_reply
                0x000000001005c2c4                hci_pin_code_request_reply
                0x000000001005c2cc                hci_link_key_request_negative_reply
                0x000000001005c2d4                hci_link_key_request_reply
                0x000000001005c2dc                hci_reject_connection_request
                0x000000001005c2e4                hci_accept_connection_request
                0x000000001005c2ec                hci_create_connection_cancel
                0x000000001005c2f4                hci_disconnect
                0x000000001005c2fc                hci_create_connection
                0x000000001005c304                hci_inquiry_cancel
                0x000000001005c30c                hci_inquiry
 .rodata.str1.4
                0x000000001005c314       0x78 ..\..\platform\libs\libbtstack.a(hci_cmd.o)
                                         0x80 (size before relaxing)
 .rodata        0x000000001005c38c       0x70 ..\..\platform\libs\libbtstack.a(l2cap.o)
 .rodata        0x000000001005c3fc       0x2c ..\..\platform\libs\libbtstack.a(l2cap_signaling.o)
 .rodata.str1.4
                0x000000001005c428       0x19 ..\..\platform\libs\libbtstack.a(l2cap_signaling.o)
                                         0x22 (size before relaxing)
 *fill*         0x000000001005c441        0x3 
 .rodata.bb.lm_hmac
                0x000000001005c444      0x1ac ..\..\platform\libs\libbtstack.a(lm_hmac.o)
 .rodata.str1.4
                0x000000001005c5f0       0x1c ..\..\platform\libs\libdrivers.a(usb_device_storage.o)
                                         0x19 (size before relaxing)
 .rodata        0x000000001005c60c       0x3f ..\..\platform\libs\libdrivers.a(usb_host_storage.o)
 *fill*         0x000000001005c64b        0x1 
 .rodata        0x000000001005c64c       0x48 ..\..\platform\libs\libdrivers.a(usb_host_enum.o)
 .rodata        0x000000001005c694       0x2c ..\..\platform\libs\libcodecs.a(frame.o)
 *(.srodata*)
 *(.rela*)
 .rela.text.audio_path_init
                0x000000001005c6c0        0x0 Output\obj\platform\bsp\bsp_audio.o
 .rela.text.audio_path_start
                0x000000001005c6c0        0x0 Output\obj\platform\bsp\bsp_audio.o
 .rela.text.audio_path_exit
                0x000000001005c6c0        0x0 Output\obj\platform\bsp\bsp_audio.o
 .rela.text.get_aux_channel_cfg
                0x000000001005c6c0        0x0 Output\obj\platform\bsp\bsp_audio.o
 .rela.rodata   0x000000001005c6c0        0x0 Output\obj\platform\bsp\bsp_audio.o
 .rela.text.bsp.aux
                0x000000001005c6c0        0x0 Output\obj\platform\bsp\bsp_audio.o
 .rela.text.bsp_bt_init
                0x000000001005c6c0        0x0 Output\obj\platform\bsp\bsp_audio.o
 .rela.text.bsp_bt_vol_change
                0x000000001005c6c0        0x0 Output\obj\platform\bsp\bsp_audio.o
 .rela.text.bsp_bt_hid_tog_conn
                0x000000001005c6c0        0x0 Output\obj\platform\bsp\bsp_audio.o
 .rela.text.bsp_bt_hid_photo
                0x000000001005c6c0        0x0 Output\obj\platform\bsp\bsp_audio.o
 .rela.text.a2dp_get_vol
                0x000000001005c6c0        0x0 Output\obj\platform\bsp\bsp_audio.o
 .rela.text.hfp_get_spk_gain
                0x000000001005c6c0        0x0 Output\obj\platform\bsp\bsp_audio.o
 .rela.text.hfp_get_bat_level
                0x000000001005c6c0        0x0 Output\obj\platform\bsp\bsp_audio.o
 .rela.text.bt_get_tws_info
                0x000000001005c6c0        0x0 Output\obj\platform\bsp\bsp_audio.o
 .rela.text.bt_set_tws_info
                0x000000001005c6c0        0x0 Output\obj\platform\bsp\bsp_audio.o
 .rela.text.bt_emit_notice
                0x000000001005c6c0        0x0 Output\obj\platform\bsp\bsp_audio.o
 .rela.text.bt_get_func_sta
                0x000000001005c6c0        0x0 Output\obj\platform\bsp\bsp_audio.o
 .rela.text.bt_set_func_sta
                0x000000001005c6c0        0x0 Output\obj\platform\bsp\bsp_audio.o
 .rela.text.bt_get_local_name
                0x000000001005c6c0        0x0 Output\obj\platform\bsp\bsp_audio.o
 .rela.text.bt_get_local_bd_addr
                0x000000001005c6c0        0x0 Output\obj\platform\bsp\bsp_audio.o
 .rela.text.bt_get_rand_seed
                0x000000001005c6c0        0x0 Output\obj\platform\bsp\bsp_audio.o
 .rela.text.bt_get_guid
                0x000000001005c6c0        0x0 Output\obj\platform\bsp\bsp_audio.o
 .rela.text.bt_get_link_info
                0x000000001005c6c0        0x0 Output\obj\platform\bsp\bsp_audio.o
 .rela.text.bt_put_link_info
                0x000000001005c6c0        0x0 Output\obj\platform\bsp\bsp_audio.o
 .rela.text.bt_get_ext_link_info
                0x000000001005c6c0        0x0 Output\obj\platform\bsp\bsp_audio.o
 .rela.text.bt_put_ext_link_info
                0x000000001005c6c0        0x0 Output\obj\platform\bsp\bsp_audio.o
 .rela.text.bt_sync_link_info
                0x000000001005c6c0        0x0 Output\obj\platform\bsp\bsp_audio.o
 .rela.text.cm_loadparam
                0x000000001005c6c0        0x0 Output\obj\platform\bsp\bsp_audio.o
 .rela.text.cm_factory
                0x000000001005c6c0        0x0 Output\obj\platform\bsp\bsp_audio.o
 .rela.text.bsp.dac
                0x000000001005c6c0        0x0 Output\obj\platform\bsp\bsp_audio.o
 .rela.text.dac
                0x000000001005c6c0        0x0 Output\obj\platform\bsp\bsp_audio.o
 .rela.com_text.dac
                0x000000001005c6c0        0x0 Output\obj\platform\bsp\bsp_audio.o
 .rela.text.tx_ack.constprop.2
                0x000000001005c6c0        0x0 Output\obj\platform\bsp\bsp_audio.o
 .rela.text.music
                0x000000001005c6c0        0x0 Output\obj\platform\bsp\bsp_audio.o
 .rela.text.eq_tx_version
                0x000000001005c6c0        0x0 Output\obj\platform\bsp\bsp_audio.o
 .rela.text.eq_parse_cmd
                0x000000001005c6c0        0x0 Output\obj\platform\bsp\bsp_audio.o
 .rela.com_text.eq
                0x000000001005c6c0        0x0 Output\obj\platform\bsp\bsp_audio.o
 .rela.text.eq_dbg_huart_init
                0x000000001005c6c0        0x0 Output\obj\platform\bsp\bsp_audio.o
 .rela.text.eq_dbg_init
                0x000000001005c6c0        0x0 Output\obj\platform\bsp\bsp_audio.o
 .rela.com_text.fmrx.isr
                0x000000001005c6c0        0x0 Output\obj\platform\bsp\bsp_audio.o
 .rela.text.bsp.fmrx
                0x000000001005c6c0        0x0 Output\obj\platform\bsp\bsp_audio.o
 .rela.text.fs.scan
                0x000000001005c6c0        0x0 Output\obj\platform\bsp\bsp_audio.o
 .rela.com_text.stream
                0x000000001005c6c0        0x0 Output\obj\platform\bsp\bsp_audio.o
 .rela.com_text.ir
                0x000000001005c6c0        0x0 Output\obj\platform\bsp\bsp_audio.o
 .rela.text.bsp.ir
                0x000000001005c6c0        0x0 Output\obj\platform\bsp\bsp_audio.o
 .rela.com_text.port.key
                0x000000001005c6c0        0x0 Output\obj\platform\bsp\bsp_audio.o
 .rela.text.bsp.power
                0x000000001005c6c0        0x0 Output\obj\platform\bsp\bsp_audio.o
 .rela.com_text.port.vbat
                0x000000001005c6c0        0x0 Output\obj\platform\bsp\bsp_audio.o
 .rela.saradc_text.init
                0x000000001005c6c0        0x0 Output\obj\platform\bsp\bsp_audio.o
 .rela.text.is_lowpower_vbat_warning
                0x000000001005c6c0        0x0 Output\obj\platform\bsp\bsp_audio.o
 .rela.com_text.bsp.key
                0x000000001005c6c0        0x0 Output\obj\platform\bsp\bsp_audio.o
 .rela.text.get_double_key_time
                0x000000001005c6c0        0x0 Output\obj\platform\bsp\bsp_audio.o
 .rela.text.bsp.key.init
                0x000000001005c6c0        0x0 Output\obj\platform\bsp\bsp_audio.o
 .rela.com_text.led_disp
                0x000000001005c6c0        0x0 Output\obj\platform\bsp\bsp_audio.o
 .rela.text.led_disp
                0x000000001005c6c0        0x0 Output\obj\platform\bsp\bsp_audio.o
 .rela.text.charge_bled_on
                0x000000001005c6c0        0x0 Output\obj\platform\bsp\bsp_audio.o
 .rela.text.music_playmode_next
                0x000000001005c6c0        0x0 Output\obj\platform\bsp\bsp_audio.o
 .rela.text.bsp_music_breakpoint_clr
                0x000000001005c6c0        0x0 Output\obj\platform\bsp\bsp_audio.o
 .rela.text.bsp_music_breakpoint_init
                0x000000001005c6c0        0x0 Output\obj\platform\bsp\bsp_audio.o
 .rela.text.bsp_music_breakpoint_save
                0x000000001005c6c0        0x0 Output\obj\platform\bsp\bsp_audio.o
 .rela.text.mp3_res_play
                0x000000001005c6c0        0x0 Output\obj\platform\bsp\bsp_audio.o
 .rela.text.pf_scan_music
                0x000000001005c6c0        0x0 Output\obj\platform\bsp\bsp_audio.o
 .rela.text.wav_res_play
                0x000000001005c6c0        0x0 Output\obj\platform\bsp\bsp_audio.o
 .rela.text.bsp.param
                0x000000001005c6c0        0x0 Output\obj\platform\bsp\bsp_audio.o
 .rela.text.bsp_app_0_process
                0x000000001005c6c0        0x0 Output\obj\platform\bsp\bsp_audio.o
 .rela.text.bsp.sys.init
                0x000000001005c6c0        0x0 Output\obj\platform\bsp\bsp_audio.o
 .rela.com_text.detect
                0x000000001005c6c0        0x0 Output\obj\platform\bsp\bsp_audio.o
 .rela.com_text.timer
                0x000000001005c6c0        0x0 Output\obj\platform\bsp\bsp_audio.o
 .rela.com_text.bsp.sys
                0x000000001005c6c0        0x0 Output\obj\platform\bsp\bsp_audio.o
 .rela.text.bsp.sys
                0x000000001005c6c0        0x0 Output\obj\platform\bsp\bsp_audio.o
 .rela.text.bsp_get_xosc_xcfg
                0x000000001005c6c0        0x0 Output\obj\platform\bsp\bsp_audio.o
 .rela.text.func.msg
                0x000000001005c6c0        0x0 Output\obj\platform\bsp\bsp_audio.o
 .rela.text.func
                0x000000001005c6c0        0x0 Output\obj\platform\bsp\bsp_audio.o
 .rela.com_text.func.aux
                0x000000001005c6c0        0x0 Output\obj\platform\bsp\bsp_audio.o
 .rela.text.func.aux
                0x000000001005c6c0        0x0 Output\obj\platform\bsp\bsp_audio.o
 .rela.text.func_bt_mp3_res_play
                0x000000001005c6c0        0x0 Output\obj\platform\bsp\bsp_audio.o
 .rela.text.func_bt_tws_set_channel
                0x000000001005c6c0        0x0 Output\obj\platform\bsp\bsp_audio.o
 .rela.text.func_bt_chkclr_warning
                0x000000001005c6c0        0x0 Output\obj\platform\bsp\bsp_audio.o
 .rela.text.func_bt_warning
                0x000000001005c6c0        0x0 Output\obj\platform\bsp\bsp_audio.o
 .rela.text.func_bt_disp_status
                0x000000001005c6c0        0x0 Output\obj\platform\bsp\bsp_audio.o
 .rela.text.func.bt
                0x000000001005c6c0        0x0 Output\obj\platform\bsp\bsp_audio.o
 .rela.com_text.bthid
                0x000000001005c6c0        0x0 Output\obj\platform\bsp\bsp_audio.o
 .rela.text.func.clock.init
                0x000000001005c6c0        0x0 Output\obj\platform\bsp\bsp_audio.o
 .rela.text.func.clock
                0x000000001005c6c0        0x0 Output\obj\platform\bsp\bsp_audio.o
 .rela.text.func.fmrx
                0x000000001005c6c0        0x0 Output\obj\platform\bsp\bsp_audio.o
 .rela.sleep_text.timer
                0x000000001005c6c0        0x0 Output\obj\platform\bsp\bsp_audio.o
 .rela.text.lowpwr.sleep
                0x000000001005c6c0        0x0 Output\obj\platform\bsp\bsp_audio.o
 .rela.text.lowpwr.pwroff
                0x000000001005c6c0        0x0 Output\obj\platform\bsp\bsp_audio.o
 .rela.text.func.music
                0x000000001005c6c0        0x0 Output\obj\platform\bsp\bsp_audio.o
 .rela.text.func_music_filter_set
                0x000000001005c6c0        0x0 Output\obj\platform\bsp\bsp_audio.o
 .rela.text.bsp.speaker
                0x000000001005c6c0        0x0 Output\obj\platform\bsp\bsp_audio.o
 .rela.com_text.func.speaker
                0x000000001005c6c0        0x0 Output\obj\platform\bsp\bsp_audio.o
 .rela.text.func.speaker
                0x000000001005c6c0        0x0 Output\obj\platform\bsp\bsp_audio.o
 .rela.text.func.update
                0x000000001005c6c0        0x0 Output\obj\platform\bsp\bsp_audio.o
 .rela.text.func.usbdev
                0x000000001005c6c0        0x0 Output\obj\platform\bsp\bsp_audio.o
 .rela.usbdev.com
                0x000000001005c6c0        0x0 Output\obj\platform\bsp\bsp_audio.o
 .rela.text.sco_audio_init
                0x000000001005c6c0        0x0 Output\obj\platform\bsp\bsp_audio.o
 .rela.text.sco_audio_exit
                0x000000001005c6c0        0x0 Output\obj\platform\bsp\bsp_audio.o
 .rela.text.func.btring
                0x000000001005c6c0        0x0 Output\obj\platform\bsp\bsp_audio.o
 .rela.text.gui_init
                0x000000001005c6c0        0x0 Output\obj\platform\bsp\bsp_audio.o
 .rela.com_text.display
                0x000000001005c6c0        0x0 Output\obj\platform\bsp\bsp_audio.o
 .rela.text.gui
                0x000000001005c6c0        0x0 Output\obj\platform\bsp\bsp_audio.o
 .rela.text.gui_box_flicker_clr
                0x000000001005c6c0        0x0 Output\obj\platform\bsp\bsp_audio.o
 .rela.text.startup.main
                0x000000001005c6c0        0x0 Output\obj\platform\bsp\bsp_audio.o
 .rela.text.func.bt.msg
                0x000000001005c6c0        0x0 Output\obj\platform\bsp\bsp_audio.o
 .rela.text.func.btring.msg
                0x000000001005c6c0        0x0 Output\obj\platform\bsp\bsp_audio.o
 .rela.text.sfunc_bt_call_message
                0x000000001005c6c0        0x0 Output\obj\platform\bsp\bsp_audio.o
 .rela.text.func.clock.msg
                0x000000001005c6c0        0x0 Output\obj\platform\bsp\bsp_audio.o
 .rela.text.func.music.msg
                0x000000001005c6c0        0x0 Output\obj\platform\bsp\bsp_audio.o
 .rela.text.func.usbdev.msg
                0x000000001005c6c0        0x0 Output\obj\platform\bsp\bsp_audio.o
 .rela.text.plugin_var_init
                0x000000001005c6c0        0x0 Output\obj\platform\bsp\bsp_audio.o
 .rela.com_text.plugin
                0x000000001005c6c0        0x0 Output\obj\platform\bsp\bsp_audio.o
 .rela.text.sleep_wakeup_config
                0x000000001005c6c0        0x0 Output\obj\platform\bsp\bsp_audio.o
 .rela.text.maxvol_tone_play
                0x000000001005c6c0        0x0 Output\obj\platform\bsp\bsp_audio.o
 .rela.text.earphone_detect_init
                0x000000001005c6c0        0x0 Output\obj\platform\bsp\bsp_audio.o
 .rela.com_text.linein
                0x000000001005c6c0        0x0 Output\obj\platform\bsp\bsp_audio.o
 .rela.com_text.key
                0x000000001005c6c0        0x0 Output\obj\platform\bsp\bsp_audio.o
 .rela.com_text.adkey
                0x000000001005c6c0        0x0 Output\obj\platform\bsp\bsp_audio.o
 .rela.com_text.pwrkey
                0x000000001005c6c0        0x0 Output\obj\platform\bsp\bsp_audio.o
 .rela.text.led_func_init
                0x000000001005c6c0        0x0 Output\obj\platform\bsp\bsp_audio.o
 .rela.text.is_linein_enter_enable
                0x000000001005c6c0        0x0 Output\obj\platform\bsp\bsp_audio.o
 .rela.text.linein_detect_init
                0x000000001005c6c0        0x0 Output\obj\platform\bsp\bsp_audio.o
 .rela.text.loudspeaker_mute_init
                0x000000001005c6c0        0x0 Output\obj\platform\bsp\bsp_audio.o
 .rela.com_text.mute
                0x000000001005c6c0        0x0 Output\obj\platform\bsp\bsp_audio.o
 .rela.text.amplifier
                0x000000001005c6c0        0x0 Output\obj\platform\bsp\bsp_audio.o
 .rela.text.sdcard_detect_init
                0x000000001005c6c0        0x0 Output\obj\platform\bsp\bsp_audio.o
 .rela.com_text.sdio
                0x000000001005c6c0        0x0 Output\obj\platform\bsp\bsp_audio.o
 .rela.com_text.sdio.init
                0x000000001005c6c0        0x0 Output\obj\platform\bsp\bsp_audio.o
 .rela.text.adpll_init
                0x000000001005c6c0        0x0 Output\obj\platform\bsp\bsp_audio.o
 .rela.text.adpll_spr_set
                0x000000001005c6c0        0x0 Output\obj\platform\bsp\bsp_audio.o
 .rela.wmadec.windows
                0x000000001005c6c0        0x0 Output\obj\platform\bsp\bsp_audio.o
 .rela.text.audio
                0x000000001005c6c0        0x0 Output\obj\platform\bsp\bsp_audio.o
 .rela.text.sdadc.eq
                0x000000001005c6c0        0x0 Output\obj\platform\bsp\bsp_audio.o
 .rela.text.eq.msc
                0x000000001005c6c0        0x0 Output\obj\platform\bsp\bsp_audio.o
 .rela.text.eq.mic
                0x000000001005c6c0        0x0 Output\obj\platform\bsp\bsp_audio.o
 .rela.text.huart_eq_init
                0x000000001005c6c0        0x0 Output\obj\platform\bsp\bsp_audio.o
 .rela.com_text.sdadc
                0x000000001005c6c0        0x0 Output\obj\platform\bsp\bsp_audio.o
 .rela.text.iir_lp_filter_init
                0x000000001005c6c0        0x0 Output\obj\platform\bsp\bsp_audio.o
 .rela.text.thread_echo_set_priority
                0x000000001005c6c0        0x0 Output\obj\platform\bsp\bsp_audio.o
 .rela.text.karaok
                0x000000001005c6c0        0x0 Output\obj\platform\bsp\bsp_audio.o
 .rela.text.karaok.var
                0x000000001005c6c0        0x0 Output\obj\platform\bsp\bsp_audio.o
 .rela.com_text.karaok.proc
                0x000000001005c6c0        0x0 Output\obj\platform\bsp\bsp_audio.o
 .rela.text.karaok_voice_rm_enable
                0x000000001005c6c0        0x0 Output\obj\platform\bsp\bsp_audio.o
 .rela.com_text.karaok
                0x000000001005c6c0        0x0 Output\obj\platform\bsp\bsp_audio.o
 .rela.text.karaok_aux_rec_enable
                0x000000001005c6c0        0x0 Output\obj\platform\bsp\bsp_audio.o
 .rela.text.karaok_aux_rec_disable
                0x000000001005c6c0        0x0 Output\obj\platform\bsp\bsp_audio.o
 .rela.text.karaok_fmrx_rec_enable
                0x000000001005c6c0        0x0 Output\obj\platform\bsp\bsp_audio.o
 .rela.text.karaok_fmrx_rec_disable
                0x000000001005c6c0        0x0 Output\obj\platform\bsp\bsp_audio.o
 .rela.com_text.karaok.rec
                0x000000001005c6c0        0x0 Output\obj\platform\bsp\bsp_audio.o
 .rela.text.karaok_rec_init
                0x000000001005c6c0        0x0 Output\obj\platform\bsp\bsp_audio.o
 .rela.text.kara_rec_stop
                0x000000001005c6c0        0x0 Output\obj\platform\bsp\bsp_audio.o
 .rela.text.kara_rec_start
                0x000000001005c6c0        0x0 Output\obj\platform\bsp\bsp_audio.o
 .rela.text.kara_sco_start
                0x000000001005c6c0        0x0 Output\obj\platform\bsp\bsp_audio.o
 .rela.text.kara_sco_stop
                0x000000001005c6c0        0x0 Output\obj\platform\bsp\bsp_audio.o
 .rela.com_text.audio
                0x000000001005c6c0        0x0 Output\obj\platform\bsp\bsp_audio.o
 .rela.text.dac_digital_enable
                0x000000001005c6c0        0x0 Output\obj\platform\bsp\bsp_audio.o
 .rela.text.dac_digital_disable
                0x000000001005c6c0        0x0 Output\obj\platform\bsp\bsp_audio.o
 .rela.text.dac.drc
                0x000000001005c6c0        0x0 Output\obj\platform\bsp\bsp_audio.o
 .rela.text.dac.vbs
                0x000000001005c6c0        0x0 Output\obj\platform\bsp\bsp_audio.o
 .rela.text.sdadc
                0x000000001005c6c0        0x0 Output\obj\platform\bsp\bsp_audio.o
 .rela.com_text.isr.sdadc
                0x000000001005c6c0        0x0 Output\obj\platform\bsp\bsp_audio.o
 .rela.text.sdadc_var_init
                0x000000001005c6c0        0x0 Output\obj\platform\bsp\bsp_audio.o
 .rela.text.bt_hid_wait_tx_complete
                0x000000001005c6c0        0x0 Output\obj\platform\bsp\bsp_audio.o
 .rela.bt_voice.plc
                0x000000001005c6c0        0x0 Output\obj\platform\bsp\bsp_audio.o
 .rela.com_text.bthw
                0x000000001005c6c0        0x0 Output\obj\platform\bsp\bsp_audio.o
 .rela.text.stack.api
                0x000000001005c6c0        0x0 Output\obj\platform\bsp\bsp_audio.o
 .rela.text.bt_wait_disconnect
                0x000000001005c6c0        0x0 Output\obj\platform\bsp\bsp_audio.o
 .rela.text.stack.api.tws_search
                0x000000001005c6c0        0x0 Output\obj\platform\bsp\bsp_audio.o
 .rela.text.stack.api.tws_conn
                0x000000001005c6c0        0x0 Output\obj\platform\bsp\bsp_audio.o
 .rela.text.stack.api.tws_dis
                0x000000001005c6c0        0x0 Output\obj\platform\bsp\bsp_audio.o
 .rela.com_text.stack.thread
                0x000000001005c6c0        0x0 Output\obj\platform\bsp\bsp_audio.o
 .rela.com_text.stack.run_loop
                0x000000001005c6c0        0x0 Output\obj\platform\bsp\bsp_audio.o
 .rela.bt_voice.aec
                0x000000001005c6c0        0x0 Output\obj\platform\bsp\bsp_audio.o
 .rela.com_text.aec
                0x000000001005c6c0        0x0 Output\obj\platform\bsp\bsp_audio.o
 .rela.com_text.bb.cvsd
                0x000000001005c6c0        0x0 Output\obj\platform\bsp\bsp_audio.o
 .rela.text.aec_init
                0x000000001005c6c0        0x0 Output\obj\platform\bsp\bsp_audio.o
 .rela.bt_voice.alc
                0x000000001005c6c0        0x0 Output\obj\platform\bsp\bsp_audio.o
 .rela.text.alc
                0x000000001005c6c0        0x0 Output\obj\platform\bsp\bsp_audio.o
 .rela.text.bt_music_rec_start
                0x000000001005c6c0        0x0 Output\obj\platform\bsp\bsp_audio.o
 .rela.text.bt_music_rec_stop
                0x000000001005c6c0        0x0 Output\obj\platform\bsp\bsp_audio.o
 .rela.text.bt_sco_rec_start
                0x000000001005c6c0        0x0 Output\obj\platform\bsp\bsp_audio.o
 .rela.text.bt_sco_rec_stop
                0x000000001005c6c0        0x0 Output\obj\platform\bsp\bsp_audio.o
 .rela.com_text.bt_rec.isr
                0x000000001005c6c0        0x0 Output\obj\platform\bsp\bsp_audio.o
 .rela.com_text.bt_rec
                0x000000001005c6c0        0x0 Output\obj\platform\bsp\bsp_audio.o
 .rela.text.bt_sbc_src_init
                0x000000001005c6c0        0x0 Output\obj\platform\bsp\bsp_audio.o
 .rela.text.bt_src_exit
                0x000000001005c6c0        0x0 Output\obj\platform\bsp\bsp_audio.o
 .rela.com_text.bt_rec.
                0x000000001005c6c0        0x0 Output\obj\platform\bsp\bsp_audio.o
 .rela.sbcdec.code.pcm
                0x000000001005c6c0        0x0 Output\obj\platform\bsp\bsp_audio.o
 .rela.bt_voice.sco
                0x000000001005c6c0        0x0 Output\obj\platform\bsp\bsp_audio.o
 .rela.text.bt_voice_init
                0x000000001005c6c0        0x0 Output\obj\platform\bsp\bsp_audio.o
 .rela.text.bt_voice_exit
                0x000000001005c6c0        0x0 Output\obj\platform\bsp\bsp_audio.o
 .rela.text.cm_loadpage
                0x000000001005c6c0        0x0 Output\obj\platform\bsp\bsp_audio.o
 .rela.text.cm_write_cfgpage
                0x000000001005c6c0        0x0 Output\obj\platform\bsp\bsp_audio.o
 .rela.text.cm_check_loadpage
                0x000000001005c6c0        0x0 Output\obj\platform\bsp\bsp_audio.o
 .rela.text.cm_check_page
                0x000000001005c6c0        0x0 Output\obj\platform\bsp\bsp_audio.o
 .rela.text.cm_movepage
                0x000000001005c6c0        0x0 Output\obj\platform\bsp\bsp_audio.o
 .rela.text.cm_release
                0x000000001005c6c0        0x0 Output\obj\platform\bsp\bsp_audio.o
 .rela.text.cm_release_all
                0x000000001005c6c0        0x0 Output\obj\platform\bsp\bsp_audio.o
 .rela.text.cm_sync
                0x000000001005c6c0        0x0 Output\obj\platform\bsp\bsp_audio.o
 .rela.text.cm_read
                0x000000001005c6c0        0x0 Output\obj\platform\bsp\bsp_audio.o
 .rela.text.cm_write
                0x000000001005c6c0        0x0 Output\obj\platform\bsp\bsp_audio.o
 .rela.text.cm_clear
                0x000000001005c6c0        0x0 Output\obj\platform\bsp\bsp_audio.o
 .rela.text.cm_init
                0x000000001005c6c0        0x0 Output\obj\platform\bsp\bsp_audio.o
 .rela.com_text.spiflash
                0x000000001005c6c0        0x0 Output\obj\platform\bsp\bsp_audio.o
 .rela.text.device.init
                0x000000001005c6c0        0x0 Output\obj\platform\bsp\bsp_audio.o
 .rela.text.device
                0x000000001005c6c0        0x0 Output\obj\platform\bsp\bsp_audio.o
 .rela.text.fmrx
                0x000000001005c6c0        0x0 Output\obj\platform\bsp\bsp_audio.o
 .rela.text.fmrx.init
                0x000000001005c6c0        0x0 Output\obj\platform\bsp\bsp_audio.o
 .rela.text.fmrx_analog_init
                0x000000001005c6c0        0x0 Output\obj\platform\bsp\bsp_audio.o
 .rela.com_text.delay
                0x000000001005c6c0        0x0 Output\obj\platform\bsp\bsp_audio.o
 .rela.com_text.exception
                0x000000001005c6c0        0x0 Output\obj\platform\bsp\bsp_audio.o
 .rela.com_text.ledseg
                0x000000001005c6c0        0x0 Output\obj\platform\bsp\bsp_audio.o
 .rela.text.platform_main
                0x000000001005c6c0        0x0 Output\obj\platform\bsp\bsp_audio.o
 .rela.com_text.music
                0x000000001005c6c0        0x0 Output\obj\platform\bsp\bsp_audio.o
 .rela.text.music.init
                0x000000001005c6c0        0x0 Output\obj\platform\bsp\bsp_audio.o
 .rela.text.fs_lock
                0x000000001005c6c0        0x0 Output\obj\platform\bsp\bsp_audio.o
 .rela.text.fs_unlock
                0x000000001005c6c0        0x0 Output\obj\platform\bsp\bsp_audio.o
 .rela.com_text.sbc
                0x000000001005c6c0        0x0 Output\obj\platform\bsp\bsp_audio.o
 .rela.mp3dec.sync
                0x000000001005c6c0        0x0 Output\obj\platform\bsp\bsp_audio.o
 .rela.text.music_is_encrypt
                0x000000001005c6c0        0x0 Output\obj\platform\bsp\bsp_audio.o
 .rela.mp3dec.decrypt
                0x000000001005c6c0        0x0 Output\obj\platform\bsp\bsp_audio.o
 .rela.text.spires
                0x000000001005c6c0        0x0 Output\obj\platform\bsp\bsp_audio.o
 .rela.text.wav_res_play_kick
                0x000000001005c6c0        0x0 Output\obj\platform\bsp\bsp_audio.o
 .rela.com_stream.text
                0x000000001005c6c0        0x0 Output\obj\platform\bsp\bsp_audio.o
 .rela.text.msc_stream_start
                0x000000001005c6c0        0x0 Output\obj\platform\bsp\bsp_audio.o
 .rela.text.msc_stream_end
                0x000000001005c6c0        0x0 Output\obj\platform\bsp\bsp_audio.o
 .rela.text.music_stream_var_init
                0x000000001005c6c0        0x0 Output\obj\platform\bsp\bsp_audio.o
 .rela.com_text.irq
                0x000000001005c6c0        0x0 Output\obj\platform\bsp\bsp_audio.o
 .rela.com_text.tws.isr
                0x000000001005c6c0        0x0 Output\obj\platform\bsp\bsp_audio.o
 .rela.text.timer0_init
                0x000000001005c6c0        0x0 Output\obj\platform\bsp\bsp_audio.o
 .rela.text.soft_irq_init
                0x000000001005c6c0        0x0 Output\obj\platform\bsp\bsp_audio.o
 .rela.text.bthw_irq_init
                0x000000001005c6c0        0x0 Output\obj\platform\bsp\bsp_audio.o
 .rela.text.sd0_irq_init
                0x000000001005c6c0        0x0 Output\obj\platform\bsp\bsp_audio.o
 .rela.text.usb_irq_init
                0x000000001005c6c0        0x0 Output\obj\platform\bsp\bsp_audio.o
 .rela.text.thread_main_entry
                0x000000001005c6c0        0x0 Output\obj\platform\bsp\bsp_audio.o
 .rela.com_text.usb.api
                0x000000001005c6c0        0x0 Output\obj\platform\bsp\bsp_audio.o
 .rela.text.bt_set_timer_enable
                0x000000001005c6c0        0x0 Output\obj\platform\bsp\bsp_audio.o
 .rela.text.sys_set_tmr_enable
                0x000000001005c6c0        0x0 Output\obj\platform\bsp\bsp_audio.o
 .rela.text.startup.init
                0x000000001005c6c0        0x0 Output\obj\platform\bsp\bsp_audio.o
 .rela.com_text.stack
                0x000000001005c6c0        0x0 Output\obj\platform\bsp\bsp_audio.o
 .rela.reset    0x000000001005c6c0        0x0 Output\obj\platform\bsp\bsp_audio.o
 .rela.com_text.irtc
                0x000000001005c6c0        0x0 Output\obj\platform\bsp\bsp_audio.o
 .rela.com_text.sd.isr
                0x000000001005c6c0        0x0 Output\obj\platform\bsp\bsp_audio.o
 .rela.com_text.sd.api
                0x000000001005c6c0        0x0 Output\obj\platform\bsp\bsp_audio.o
 .rela.text.sd_other_param_set
                0x000000001005c6c0        0x0 Output\obj\platform\bsp\bsp_audio.o
 .rela.text.sd_disk_init
                0x000000001005c6c0        0x0 Output\obj\platform\bsp\bsp_audio.o
 .rela.text.sd_disk_switch
                0x000000001005c6c0        0x0 Output\obj\platform\bsp\bsp_audio.o
 .rela.text.ude_sd_remove
                0x000000001005c6c0        0x0 Output\obj\platform\bsp\bsp_audio.o
 .rela.text.sd_soft_detect
                0x000000001005c6c0        0x0 Output\obj\platform\bsp\bsp_audio.o
 .rela.text.sd0_init
                0x000000001005c6c0        0x0 Output\obj\platform\bsp\bsp_audio.o
 .rela.text.sd0_stop
                0x000000001005c6c0        0x0 Output\obj\platform\bsp\bsp_audio.o
 .rela.text.sd0_read
                0x000000001005c6c0        0x0 Output\obj\platform\bsp\bsp_audio.o
 .rela.text.sd0_read_start
                0x000000001005c6c0        0x0 Output\obj\platform\bsp\bsp_audio.o
 .rela.text.sd0_read_kick
                0x000000001005c6c0        0x0 Output\obj\platform\bsp\bsp_audio.o
 .rela.text.sd0_read_wait
                0x000000001005c6c0        0x0 Output\obj\platform\bsp\bsp_audio.o
 .rela.text.sd0_write
                0x000000001005c6c0        0x0 Output\obj\platform\bsp\bsp_audio.o
 .rela.text.sd0_write_start
                0x000000001005c6c0        0x0 Output\obj\platform\bsp\bsp_audio.o
 .rela.text.sd0_write_kick
                0x000000001005c6c0        0x0 Output\obj\platform\bsp\bsp_audio.o
 .rela.text.sd0_write_wait
                0x000000001005c6c0        0x0 Output\obj\platform\bsp\bsp_audio.o
 .rela.text.sd0_rw_end
                0x000000001005c6c0        0x0 Output\obj\platform\bsp\bsp_audio.o
 .rela.text.sd0_go_idle_state
                0x000000001005c6c0        0x0 Output\obj\platform\bsp\bsp_audio.o
 .rela.text.sd0_get_rw_sta
                0x000000001005c6c0        0x0 Output\obj\platform\bsp\bsp_audio.o
 .rela.com_text.debug
                0x000000001005c6c0        0x0 Output\obj\platform\bsp\bsp_audio.o
 .rela.text.lock_wh_rlc44q
                0x000000001005c6c0        0x0 Output\obj\platform\bsp\bsp_audio.o
 .rela.text.lock_wh_rlc44o
                0x000000001005c6c0        0x0 Output\obj\platform\bsp\bsp_audio.o
 .rela.text.lock_wh_rlc16
                0x000000001005c6c0        0x0 Output\obj\platform\bsp\bsp_audio.o
 .rela.text.lock_sleep
                0x000000001005c6c0        0x0 Output\obj\platform\bsp\bsp_audio.o
 .rela.text.lock_code_sbcdec
                0x000000001005c6c0        0x0 Output\obj\platform\bsp\bsp_audio.o
 .rela.text.lock_code_mp3dec
                0x000000001005c6c0        0x0 Output\obj\platform\bsp\bsp_audio.o
 .rela.text.lock_code_wavdec
                0x000000001005c6c0        0x0 Output\obj\platform\bsp\bsp_audio.o
 .rela.text.lock_code_wmadec
                0x000000001005c6c0        0x0 Output\obj\platform\bsp\bsp_audio.o
 .rela.text.lock_code_apedec
                0x000000001005c6c0        0x0 Output\obj\platform\bsp\bsp_audio.o
 .rela.text.lock_code_flacdec
                0x000000001005c6c0        0x0 Output\obj\platform\bsp\bsp_audio.o
 .rela.text.lock_code_mp3enc
                0x000000001005c6c0        0x0 Output\obj\platform\bsp\bsp_audio.o
 .rela.text.unlock_code_mp3enc
                0x000000001005c6c0        0x0 Output\obj\platform\bsp\bsp_audio.o
 .rela.text.lock_code_mp2enc
                0x000000001005c6c0        0x0 Output\obj\platform\bsp\bsp_audio.o
 .rela.com_text.cache
                0x000000001005c6c0        0x0 Output\obj\platform\bsp\bsp_audio.o
 .rela.text.lock_code_bt_voice
                0x000000001005c6c0        0x0 Output\obj\platform\bsp\bsp_audio.o
 .rela.text.lock_code_usbdev
                0x000000001005c6c0        0x0 Output\obj\platform\bsp\bsp_audio.o
 .rela.text.lock_code_pwrsave
                0x000000001005c6c0        0x0 Output\obj\platform\bsp\bsp_audio.o
 .rela.text.lock_code_sniff
                0x000000001005c6c0        0x0 Output\obj\platform\bsp\bsp_audio.o
 .rela.text.lock_code_bb_test
                0x000000001005c6c0        0x0 Output\obj\platform\bsp\bsp_audio.o
 .rela.text.lock_code_stream
                0x000000001005c6c0        0x0 Output\obj\platform\bsp\bsp_audio.o
 .rela.text.pmu_init
                0x000000001005c6c0        0x0 Output\obj\platform\bsp\bsp_audio.o
 .rela.com_text.voltage.trim
                0x000000001005c6c0        0x0 Output\obj\platform\bsp\bsp_audio.o
 .rela.pwrsave_text.bsp
                0x000000001005c6c0        0x0 Output\obj\platform\bsp\bsp_audio.o
 .rela.text.sys_get_rand_key
                0x000000001005c6c0        0x0 Output\obj\platform\bsp\bsp_audio.o
 .rela.text.get_random
                0x000000001005c6c0        0x0 Output\obj\platform\bsp\bsp_audio.o
 .rela.text.random_init
                0x000000001005c6c0        0x0 Output\obj\platform\bsp\bsp_audio.o
 .rela.text.sys_clk
                0x000000001005c6c0        0x0 Output\obj\platform\bsp\bsp_audio.o
 .rela.text.set_peripherals_clkdiv
                0x000000001005c6c0        0x0 Output\obj\platform\bsp\bsp_audio.o
 .rela.text.update_sd0baud
                0x000000001005c6c0        0x0 Output\obj\platform\bsp\bsp_audio.o
 .rela.text.set_sys_clk
                0x000000001005c6c0        0x0 Output\obj\platform\bsp\bsp_audio.o
 .rela.text.set_uart0_baud
                0x000000001005c6c0        0x0 Output\obj\platform\bsp\bsp_audio.o
 .rela.text.update
                0x000000001005c6c0        0x0 Output\obj\platform\bsp\bsp_audio.o
 .rela.text.voltage.trim
                0x000000001005c6c0        0x0 Output\obj\platform\bsp\bsp_audio.o
 .rela.com_text.thread.driver
                0x000000001005c6c0        0x0 Output\obj\platform\bsp\bsp_audio.o
 .rela.com_text.aupcm
                0x000000001005c6c0        0x0 Output\obj\platform\bsp\bsp_audio.o
 .rela.com_text.mav
                0x000000001005c6c0        0x0 Output\obj\platform\bsp\bsp_audio.o
 .rela.com_text.thread.aupcm
                0x000000001005c6c0        0x0 Output\obj\platform\bsp\bsp_audio.o
 .rela.com_text.bb.btisr
                0x000000001005c6c0        0x0 Output\obj\platform\bsp\bsp_audio.o
 .rela.text.bb_init
                0x000000001005c6c0        0x0 Output\obj\platform\bsp\bsp_audio.o
 .rela.text.bb_reset
                0x000000001005c6c0        0x0 Output\obj\platform\bsp\bsp_audio.o
 .rela.text.bb_off
                0x000000001005c6c0        0x0 Output\obj\platform\bsp\bsp_audio.o
 .rela.sleep_text.bb
                0x000000001005c6c0        0x0 Output\obj\platform\bsp\bsp_audio.o
 .rela.com_text.bb.sleep
                0x000000001005c6c0        0x0 Output\obj\platform\bsp\bsp_audio.o
 .rela.text.bt_get_hvbko
                0x000000001005c6c0        0x0 Output\obj\platform\bsp\bsp_audio.o
 .rela.text.rf_txpwr_dbm_get
                0x000000001005c6c0        0x0 Output\obj\platform\bsp\bsp_audio.o
 .rela.text.rf_reset
                0x000000001005c6c0        0x0 Output\obj\platform\bsp\bsp_audio.o
 .rela.text.rf_init
                0x000000001005c6c0        0x0 Output\obj\platform\bsp\bsp_audio.o
 .rela.text.ble_init
                0x000000001005c6c0        0x0 Output\obj\platform\bsp\bsp_audio.o
 .rela.text.ble_reset
                0x000000001005c6c0        0x0 Output\obj\platform\bsp\bsp_audio.o
 .rela.text.hwble_init
                0x000000001005c6c0        0x0 Output\obj\platform\bsp\bsp_audio.o
 .rela.rodata.bb.ble
                0x000000001005c6c0        0x0 Output\obj\platform\bsp\bsp_audio.o
 .rela.text.bt21_init
                0x000000001005c6c0        0x0 Output\obj\platform\bsp\bsp_audio.o
 .rela.text.bt21_reset
                0x000000001005c6c0        0x0 Output\obj\platform\bsp\bsp_audio.o
 .rela.com_text.bb.bttx
                0x000000001005c6c0        0x0 Output\obj\platform\bsp\bsp_audio.o
 .rela.com_text.bb.btrx
                0x000000001005c6c0        0x0 Output\obj\platform\bsp\bsp_audio.o
 .rela.com_text.bb.sco
                0x000000001005c6c0        0x0 Output\obj\platform\bsp\bsp_audio.o
 .rela.com_text.sbc.tx
                0x000000001005c6c0        0x0 Output\obj\platform\bsp\bsp_audio.o
 .rela.text.hwbt_init
                0x000000001005c6c0        0x0 Output\obj\platform\bsp\bsp_audio.o
 .rela.rodata.bb.tbl
                0x000000001005c6c0        0x0 Output\obj\platform\bsp\bsp_audio.o
 .rela.text.plc_init
                0x000000001005c6c0        0x0 Output\obj\platform\bsp\bsp_audio.o
 .rela.text.plc_exit
                0x000000001005c6c0        0x0 Output\obj\platform\bsp\bsp_audio.o
 .rela.text.lc_sco_codec_init
                0x000000001005c6c0        0x0 Output\obj\platform\bsp\bsp_audio.o
 .rela.com_text.bb.tws
                0x000000001005c6c0        0x0 Output\obj\platform\bsp\bsp_audio.o
 .rela.text.lc_tws_init
                0x000000001005c6c0        0x0 Output\obj\platform\bsp\bsp_audio.o
 .rela.text.lc_tws_set_spr
                0x000000001005c6c0        0x0 Output\obj\platform\bsp\bsp_audio.o
 .rela.text.lc_tws_set_ticks
                0x000000001005c6c0        0x0 Output\obj\platform\bsp\bsp_audio.o
 .rela.text.lc_tws_stop_ticks
                0x000000001005c6c0        0x0 Output\obj\platform\bsp\bsp_audio.o
 .rela.text.lc_tws_set_speed
                0x000000001005c6c0        0x0 Output\obj\platform\bsp\bsp_audio.o
 .rela.bb_test.lmp
                0x000000001005c6c0        0x0 Output\obj\platform\bsp\bsp_audio.o
 .rela.text.lc_acl_stop_link
                0x000000001005c6c0        0x0 Output\obj\platform\bsp\bsp_audio.o
 .rela.text.lc_3dh1_pkt_is_en.isra.0
                0x000000001005c6c0        0x0 Output\obj\platform\bsp\bsp_audio.o
 .rela.text.lc_init
                0x000000001005c6c0        0x0 Output\obj\platform\bsp\bsp_audio.o
 .rela.text.lc_reset
                0x000000001005c6c0        0x0 Output\obj\platform\bsp\bsp_audio.o
 .rela.text.lc_chg_pkt_type_cont
                0x000000001005c6c0        0x0 Output\obj\platform\bsp\bsp_audio.o
 .rela.text.lc_chk_afh_switch_pos
                0x000000001005c6c0        0x0 Output\obj\platform\bsp\bsp_audio.o
 .rela.text.lc_chk_to
                0x000000001005c6c0        0x0 Output\obj\platform\bsp\bsp_audio.o
 .rela.text.lc_con_cmp_evt_send
                0x000000001005c6c0        0x0 Output\obj\platform\bsp\bsp_audio.o
 .rela.text.lc_con_cmp
                0x000000001005c6c0        0x0 Output\obj\platform\bsp\bsp_audio.o
 .rela.text.lc_locepr_rsw
                0x000000001005c6c0        0x0 Output\obj\platform\bsp\bsp_audio.o
 .rela.text.lc_locepr_lkref
                0x000000001005c6c0        0x0 Output\obj\platform\bsp\bsp_audio.o
 .rela.text.lc_enc_key_refresh
                0x000000001005c6c0        0x0 Output\obj\platform\bsp\bsp_audio.o
 .rela.text.lc_flow_stop_before_sniff_trans
                0x000000001005c6c0        0x0 Output\obj\platform\bsp\bsp_audio.o
 .rela.text.lc_initiator_epr
                0x000000001005c6c0        0x0 Output\obj\platform\bsp\bsp_audio.o
 .rela.text.lc_epr_resp
                0x000000001005c6c0        0x0 Output\obj\platform\bsp\bsp_audio.o
 .rela.text.lc_free_link
                0x000000001005c6c0        0x0 Output\obj\platform\bsp\bsp_audio.o
 .rela.text.lc_local_switch
                0x000000001005c6c0        0x0 Output\obj\platform\bsp\bsp_audio.o
 .rela.text.lc_max_slot_mgt
                0x000000001005c6c0        0x0 Output\obj\platform\bsp\bsp_audio.o
 .rela.text.lc_ptt
                0x000000001005c6c0        0x0 Output\obj\platform\bsp\bsp_audio.o
 .rela.text.lc_ptt_cmp
                0x000000001005c6c0        0x0 Output\obj\platform\bsp\bsp_audio.o
 .rela.text.lc_rem_switch
                0x000000001005c6c0        0x0 Output\obj\platform\bsp\bsp_audio.o
 .rela.text.lc_rem_enc
                0x000000001005c6c0        0x0 Output\obj\platform\bsp\bsp_audio.o
 .rela.text.lc_resp_auth
                0x000000001005c6c0        0x0 Output\obj\platform\bsp\bsp_audio.o
 .rela.text.lc_free
                0x000000001005c6c0        0x0 Output\obj\platform\bsp\bsp_audio.o
 .rela.text.lc_restore_to
                0x000000001005c6c0        0x0 Output\obj\platform\bsp\bsp_audio.o
 .rela.text.lc_rx_pref_rate
                0x000000001005c6c0        0x0 Output\obj\platform\bsp\bsp_audio.o
 .rela.text.lc_start
                0x000000001005c6c0        0x0 Output\obj\platform\bsp\bsp_audio.o
 .rela.text.lc_start_lmp_to
                0x000000001005c6c0        0x0 Output\obj\platform\bsp\bsp_audio.o
 .rela.text.lc_afh_switch_off
                0x000000001005c6c0        0x0 Output\obj\platform\bsp\bsp_audio.o
 .rela.text.lc_afh_switch_on
                0x000000001005c6c0        0x0 Output\obj\platform\bsp\bsp_audio.o
 .rela.text.lc_comb_key_svr
                0x000000001005c6c0        0x0 Output\obj\platform\bsp\bsp_audio.o
 .rela.text.lc_enter_sniff_mode
                0x000000001005c6c0        0x0 Output\obj\platform\bsp\bsp_audio.o
 .rela.text.lc_init_start_mutual_auth
                0x000000001005c6c0        0x0 Output\obj\platform\bsp\bsp_audio.o
 .rela.text.lc_mst_send_mst_key
                0x000000001005c6c0        0x0 Output\obj\platform\bsp\bsp_audio.o
 .rela.text.lc_local_untrans_mode
                0x000000001005c6c0        0x0 Output\obj\platform\bsp\bsp_audio.o
 .rela.text.lc_pairing_cont
                0x000000001005c6c0        0x0 Output\obj\platform\bsp\bsp_audio.o
 .rela.text.lc_rd_rem_name
                0x000000001005c6c0        0x0 Output\obj\platform\bsp\bsp_audio.o
 .rela.text.lc_start_enc
                0x000000001005c6c0        0x0 Output\obj\platform\bsp\bsp_audio.o
 .rela.text.lc_epr_rsw_cmp
                0x000000001005c6c0        0x0 Output\obj\platform\bsp\bsp_audio.o
 .rela.text.lc_start_enc_key_size
                0x000000001005c6c0        0x0 Output\obj\platform\bsp\bsp_audio.o
 .rela.text.lc_start_key_exch
                0x000000001005c6c0        0x0 Output\obj\platform\bsp\bsp_audio.o
 .rela.text.lc_stop_enc
                0x000000001005c6c0        0x0 Output\obj\platform\bsp\bsp_audio.o
 .rela.text.lc_skip_hl_oob_req
                0x000000001005c6c0        0x0 Output\obj\platform\bsp\bsp_audio.o
 .rela.text.lc_send_enc_mode
                0x000000001005c6c0        0x0 Output\obj\platform\bsp\bsp_audio.o
 .rela.text.lc_send_detach
                0x000000001005c6c0        0x0 Output\obj\platform\bsp\bsp_audio.o
 .rela.text.lc_chg_pkt_type_retry
                0x000000001005c6c0        0x0 Output\obj\platform\bsp\bsp_audio.o
 .rela.text.lc_mst_key
                0x000000001005c6c0        0x0 Output\obj\platform\bsp\bsp_audio.o
 .rela.text.lc_upd_to
                0x000000001005c6c0        0x0 Output\obj\platform\bsp\bsp_audio.o
 .rela.text.lc_ret_sniff_max_slot_chg
                0x000000001005c6c0        0x0 Output\obj\platform\bsp\bsp_audio.o
 .rela.text.lc_sniff_max_slot_chg
                0x000000001005c6c0        0x0 Output\obj\platform\bsp\bsp_audio.o
 .rela.text.lc_local_trans_mode
                0x000000001005c6c0        0x0 Output\obj\platform\bsp\bsp_audio.o
 .rela.text.lc_unit_key_svr
                0x000000001005c6c0        0x0 Output\obj\platform\bsp\bsp_audio.o
 .rela.text.lc_link_supp
                0x000000001005c6c0        0x0 Output\obj\platform\bsp\bsp_audio.o
 .rela.text.lc_hl_rem_ext
                0x000000001005c6c0        0x0 Output\obj\platform\bsp\bsp_audio.o
 .rela.text.lc_rem_unsniff
                0x000000001005c6c0        0x0 Output\obj\platform\bsp\bsp_audio.o
 .rela.text.lc_feat
                0x000000001005c6c0        0x0 Output\obj\platform\bsp\bsp_audio.o
 .rela.text.lc_hl_connect
                0x000000001005c6c0        0x0 Output\obj\platform\bsp\bsp_audio.o
 .rela.text.lc_version
                0x000000001005c6c0        0x0 Output\obj\platform\bsp\bsp_audio.o
 .rela.text.lc_vd_nego
                0x000000001005c6c0        0x0 Output\obj\platform\bsp\bsp_audio.o
 .rela.text.lc_vd_info
                0x000000001005c6c0        0x0 Output\obj\platform\bsp\bsp_audio.o
 .rela.text.lc_vd_msg
                0x000000001005c6c0        0x0 Output\obj\platform\bsp\bsp_audio.o
 .rela.text.lc_loc_sniff
                0x000000001005c6c0        0x0 Output\obj\platform\bsp\bsp_audio.o
 .rela.text.lc_unsniff
                0x000000001005c6c0        0x0 Output\obj\platform\bsp\bsp_audio.o
 .rela.text.lc_clock_off
                0x000000001005c6c0        0x0 Output\obj\platform\bsp\bsp_audio.o
 .rela.text.lc_test_cntl
                0x000000001005c6c0        0x0 Output\obj\platform\bsp\bsp_audio.o
 .rela.text.lc_ext_feat
                0x000000001005c6c0        0x0 Output\obj\platform\bsp\bsp_audio.o
 .rela.text.lc_loc_auth
                0x000000001005c6c0        0x0 Output\obj\platform\bsp\bsp_audio.o
 .rela.text.lc_packet_type
                0x000000001005c6c0        0x0 Output\obj\platform\bsp\bsp_audio.o
 .rela.text.lc_sniff_slot_unchange
                0x000000001005c6c0        0x0 Output\obj\platform\bsp\bsp_audio.o
 .rela.text.lc_end_of_sniff_nego
                0x000000001005c6c0        0x0 Output\obj\platform\bsp\bsp_audio.o
 .rela.text.lc_rem_trans_mode
                0x000000001005c6c0        0x0 Output\obj\platform\bsp\bsp_audio.o
 .rela.text.lc_rem_sniff
                0x000000001005c6c0        0x0 Output\obj\platform\bsp\bsp_audio.o
 .rela.text.lc_rem_nego_trans_mode
                0x000000001005c6c0        0x0 Output\obj\platform\bsp\bsp_audio.o
 .rela.text.lc_unsniff_cont
                0x000000001005c6c0        0x0 Output\obj\platform\bsp\bsp_audio.o
 .rela.text.lc_rem_untrans_mode
                0x000000001005c6c0        0x0 Output\obj\platform\bsp\bsp_audio.o
 .rela.text.lc_rsw_clean_up
                0x000000001005c6c0        0x0 Output\obj\platform\bsp\bsp_audio.o
 .rela.text.lc_switch_cmp
                0x000000001005c6c0        0x0 Output\obj\platform\bsp\bsp_audio.o
 .rela.text.lc_bcst_sync_ind
                0x000000001005c6c0        0x0 Output\obj\platform\bsp\bsp_audio.o
 .rela.text.lc_max_slot_sync_ind
                0x000000001005c6c0        0x0 Output\obj\platform\bsp\bsp_audio.o
 .rela.text.lc_end_chk_colli
                0x000000001005c6c0        0x0 Output\obj\platform\bsp\bsp_audio.o
 .rela.text.lc_enc_cmp
                0x000000001005c6c0        0x0 Output\obj\platform\bsp\bsp_audio.o
 .rela.text.lc_epr_cmp
                0x000000001005c6c0        0x0 Output\obj\platform\bsp\bsp_audio.o
 .rela.text.lc_mutual_auth_end
                0x000000001005c6c0        0x0 Output\obj\platform\bsp\bsp_audio.o
 .rela.text.lc_key_exch_end
                0x000000001005c6c0        0x0 Output\obj\platform\bsp\bsp_audio.o
 .rela.text.lc_sp_fail
                0x000000001005c6c0        0x0 Output\obj\platform\bsp\bsp_audio.o
 .rela.text.lc_calc_link_key
                0x000000001005c6c0        0x0 Output\obj\platform\bsp\bsp_audio.o
 .rela.text.lc_init_calc_f3
                0x000000001005c6c0        0x0 Output\obj\platform\bsp\bsp_audio.o
 .rela.text.lc_init_passkey_loop
                0x000000001005c6c0        0x0 Output\obj\platform\bsp\bsp_audio.o
 .rela.text.lc_passkey_comm
                0x000000001005c6c0        0x0 Output\obj\platform\bsp\bsp_audio.o
 .rela.text.lc_resp_calc_f3
                0x000000001005c6c0        0x0 Output\obj\platform\bsp\bsp_audio.o
 .rela.text.lc_proc_rcv_dhkey
                0x000000001005c6c0        0x0 Output\obj\platform\bsp\bsp_audio.o
 .rela.text.lc_start_passkey_loop
                0x000000001005c6c0        0x0 Output\obj\platform\bsp\bsp_audio.o
 .rela.text.lc_start_passkey
                0x000000001005c6c0        0x0 Output\obj\platform\bsp\bsp_audio.o
 .rela.text.lc_resp_num_comp
                0x000000001005c6c0        0x0 Output\obj\platform\bsp\bsp_audio.o
 .rela.text.lc_sp_oob_tid_fail
                0x000000001005c6c0        0x0 Output\obj\platform\bsp\bsp_audio.o
 .rela.text.lc_resp_oob_nonce
                0x000000001005c6c0        0x0 Output\obj\platform\bsp\bsp_audio.o
 .rela.text.lc_resp_pair
                0x000000001005c6c0        0x0 Output\obj\platform\bsp\bsp_audio.o
 .rela.text.lc_pair
                0x000000001005c6c0        0x0 Output\obj\platform\bsp\bsp_audio.o
 .rela.text.lc_sp_to
                0x000000001005c6c0        0x0 Output\obj\platform\bsp\bsp_audio.o
 .rela.text.lc_acl_flush_all
                0x000000001005c6c0        0x0 Output\obj\platform\bsp\bsp_audio.o
 .rela.text.lc_acl_set_packet_type_table
                0x000000001005c6c0        0x0 Output\obj\platform\bsp\bsp_audio.o
 .rela.text.lc_send_pdu_vd_ctrl_req
                0x000000001005c6c0        0x0 Output\obj\platform\bsp\bsp_audio.o
 .rela.text.lc_sp_auth_stg1_randn_handler
                0x000000001005c6c0        0x0 Output\obj\platform\bsp\bsp_audio.o
 .rela.text.lc_lmp_feats_update
                0x000000001005c6c0        0x0 Output\obj\platform\bsp\bsp_audio.o
 .rela.text.lc_lmp_rate_auto_handler
                0x000000001005c6c0        0x0 Output\obj\platform\bsp\bsp_audio.o
 .rela.text.lc_op_pwr_ctrl_to_handler
                0x000000001005c6c0        0x0 Output\obj\platform\bsp\bsp_audio.o
 .rela.text.lc_op_max_slot_sync_ind_handler
                0x000000001005c6c0        0x0 Output\obj\platform\bsp\bsp_audio.o
 .rela.text.lc_op_hl_cnx_cont_ind_handler
                0x000000001005c6c0        0x0 Output\obj\platform\bsp\bsp_audio.o
 .rela.text.lc_op_pt_ind_handler
                0x000000001005c6c0        0x0 Output\obj\platform\bsp\bsp_audio.o
 .rela.text.lc_unsniff_cfm_handler
                0x000000001005c6c0        0x0 Output\obj\platform\bsp\bsp_audio.o
 .rela.text.lc_afh_switch_cfm_handler
                0x000000001005c6c0        0x0 Output\obj\platform\bsp\bsp_audio.o
 .rela.text.lc_lmp_tim_acc_req_handler
                0x000000001005c6c0        0x0 Output\obj\platform\bsp\bsp_audio.o
 .rela.text.lc_acl_flow_stop_ind_handler
                0x000000001005c6c0        0x0 Output\obj\platform\bsp\bsp_audio.o
 .rela.text.lc_link_sup_to_ind_handler
                0x000000001005c6c0        0x0 Output\obj\platform\bsp\bsp_audio.o
 .rela.text.lc_page_fail_ind_handler
                0x000000001005c6c0        0x0 Output\obj\platform\bsp\bsp_audio.o
 .rela.text.lc_abort_req_handler
                0x000000001005c6c0        0x0 Output\obj\platform\bsp\bsp_audio.o
 .rela.text.lc_page_scan_cfm_handler
                0x000000001005c6c0        0x0 Output\obj\platform\bsp\bsp_audio.o
 .rela.text.lc_page_cfm_handler
                0x000000001005c6c0        0x0 Output\obj\platform\bsp\bsp_audio.o
 .rela.text.lc_lmp_clk_off_res_handler
                0x000000001005c6c0        0x0 Output\obj\platform\bsp\bsp_audio.o
 .rela.text.lc_lmp_rsp_to_ind_handler
                0x000000001005c6c0        0x0 Output\obj\platform\bsp\bsp_audio.o
 .rela.text.lc_comp_dhkey_handler
                0x000000001005c6c0        0x0 Output\obj\platform\bsp\bsp_audio.o
 .rela.text.lc_sync_ind_handler
                0x000000001005c6c0        0x0 Output\obj\platform\bsp\bsp_audio.o
 .rela.text.lc_lmp_max_slot_req_handler
                0x000000001005c6c0        0x0 Output\obj\platform\bsp\bsp_audio.o
 .rela.text.lc_ltk_req_rply_handler
                0x000000001005c6c0        0x0 Output\obj\platform\bsp\bsp_audio.o
 .rela.text.lc_rej_con_req_handler
                0x000000001005c6c0        0x0 Output\obj\platform\bsp\bsp_audio.o
 .rela.text.lc_acc_con_req_handler
                0x000000001005c6c0        0x0 Output\obj\platform\bsp\bsp_audio.o
 .rela.text.lc_create_con_can_handler
                0x000000001005c6c0        0x0 Output\obj\platform\bsp\bsp_audio.o
 .rela.text.lc_switch_role_handler
                0x000000001005c6c0        0x0 Output\obj\platform\bsp\bsp_audio.o
 .rela.text.lc_sniff_mode_cmd_handler
                0x000000001005c6c0        0x0 Output\obj\platform\bsp\bsp_audio.o
 .rela.text.lc_auto_sinff_to_handler
                0x000000001005c6c0        0x0 Output\obj\platform\bsp\bsp_audio.o
 .rela.text.lc_rd_rem_ext_feats_cmd_handler
                0x000000001005c6c0        0x0 Output\obj\platform\bsp\bsp_audio.o
 .rela.text.lc_auth_req_cmd_handler
                0x000000001005c6c0        0x0 Output\obj\platform\bsp\bsp_audio.o
 .rela.text.lc_disc_cmd_handler
                0x000000001005c6c0        0x0 Output\obj\platform\bsp\bsp_audio.o
 .rela.text.lc_lmp_tx_cfm_handler
                0x000000001005c6c0        0x0 Output\obj\platform\bsp\bsp_audio.o
 .rela.text.lc_lmp_pwr_cntl_res_handler
                0x000000001005c6c0        0x0 Output\obj\platform\bsp\bsp_audio.o
 .rela.text.lc_lmp_io_cap_req_handler
                0x000000001005c6c0        0x0 Output\obj\platform\bsp\bsp_audio.o
 .rela.text.lc_lmp_enc_resume_req_handler
                0x000000001005c6c0        0x0 Output\obj\platform\bsp\bsp_audio.o
 .rela.text.lc_lmp_enc_pause_req_handler
                0x000000001005c6c0        0x0 Output\obj\platform\bsp\bsp_audio.o
 .rela.text.lc_lmp_ch_class_req_handler
                0x000000001005c6c0        0x0 Output\obj\platform\bsp\bsp_audio.o
 .rela.text.lc_lmp_acc_ext_not_handler
                0x000000001005c6c0        0x0 Output\obj\platform\bsp\bsp_audio.o
 .rela.text.lc_lmp_acc_ext_handler
                0x000000001005c6c0        0x0 Output\obj\platform\bsp\bsp_audio.o
 .rela.text.lc_lmp_vd_ctrl_req_handler
                0x000000001005c6c0        0x0 Output\obj\platform\bsp\bsp_audio.o
 .rela.text.lc_lmp_dhkey_chk_handler
                0x000000001005c6c0        0x0 Output\obj\platform\bsp\bsp_audio.o
 .rela.text.lc_lmp_sp_nb_handler
                0x000000001005c6c0        0x0 Output\obj\platform\bsp\bsp_audio.o
 .rela.text.lc_lmp_encaps_payl_handler
                0x000000001005c6c0        0x0 Output\obj\platform\bsp\bsp_audio.o
 .rela.text.lc_lmp_encaps_head_handler
                0x000000001005c6c0        0x0 Output\obj\platform\bsp\bsp_audio.o
 .rela.text.lc_lmp_set_afh_handler
                0x000000001005c6c0        0x0 Output\obj\platform\bsp\bsp_audio.o
 .rela.text.lc_lmp_enc_key_sz_msk_req_handler
                0x000000001005c6c0        0x0 Output\obj\platform\bsp\bsp_audio.o
 .rela.text.lc_lmp_tst_act_handler
                0x000000001005c6c0        0x0 Output\obj\platform\bsp\bsp_audio.o
 .rela.text.lc_lmp_hl_con_req_handler
                0x000000001005c6c0        0x0 Output\obj\platform\bsp\bsp_audio.o
 .rela.text.lc_lmp_rate_pref_handler
                0x000000001005c6c0        0x0 Output\obj\platform\bsp\bsp_audio.o
 .rela.text.lc_lmp_pwr_dec_req_handler
                0x000000001005c6c0        0x0 Output\obj\platform\bsp\bsp_audio.o
 .rela.text.lc_lmp_pwr_inc_req_handler
                0x000000001005c6c0        0x0 Output\obj\platform\bsp\bsp_audio.o
 .rela.text.lc_lmp_sniff_req_handler
                0x000000001005c6c0        0x0 Output\obj\platform\bsp\bsp_audio.o
 .rela.text.lc_lmp_switch_req_handler
                0x000000001005c6c0        0x0 Output\obj\platform\bsp\bsp_audio.o
 .rela.text.lc_lmp_enc_stop_req_handler
                0x000000001005c6c0        0x0 Output\obj\platform\bsp\bsp_audio.o
 .rela.text.lc_lmp_enc_start_req_handler
                0x000000001005c6c0        0x0 Output\obj\platform\bsp\bsp_audio.o
 .rela.text.lc_lmp_enc_key_size_req_handler
                0x000000001005c6c0        0x0 Output\obj\platform\bsp\bsp_audio.o
 .rela.text.lc_lmp_enc_mode_req_handler
                0x000000001005c6c0        0x0 Output\obj\platform\bsp\bsp_audio.o
 .rela.text.lc_lmp_temp_key_handler
                0x000000001005c6c0        0x0 Output\obj\platform\bsp\bsp_audio.o
 .rela.text.lc_lmp_temp_rand_handler
                0x000000001005c6c0        0x0 Output\obj\platform\bsp\bsp_audio.o
 .rela.text.lc_lmp_sres_handler
                0x000000001005c6c0        0x0 Output\obj\platform\bsp\bsp_audio.o
 .rela.text.lc_lmp_au_rand_handler
                0x000000001005c6c0        0x0 Output\obj\platform\bsp\bsp_audio.o
 .rela.text.lc_lmp_unit_key_handler
                0x000000001005c6c0        0x0 Output\obj\platform\bsp\bsp_audio.o
 .rela.text.lc_lmp_comb_key_handler
                0x000000001005c6c0        0x0 Output\obj\platform\bsp\bsp_audio.o
 .rela.text.lc_lmp_in_rand_handler
                0x000000001005c6c0        0x0 Output\obj\platform\bsp\bsp_audio.o
 .rela.text.lc_lmp_acc_not_handler
                0x000000001005c6c0        0x0 Output\obj\platform\bsp\bsp_audio.o
 .rela.text.lc_lmp_acc_handler
                0x000000001005c6c0        0x0 Output\obj\platform\bsp\bsp_audio.o
 .rela.text.lc_lmp_name_res_handler
                0x000000001005c6c0        0x0 Output\obj\platform\bsp\bsp_audio.o
 .rela.text.lc_lmp_name_req_handler
                0x000000001005c6c0        0x0 Output\obj\platform\bsp\bsp_audio.o
 .rela.text.lc_op_timacc_ind_handler
                0x000000001005c6c0        0x0 Output\obj\platform\bsp\bsp_audio.o
 .rela.text.lc_con_accept_to_handler
                0x000000001005c6c0        0x0 Output\obj\platform\bsp\bsp_audio.o
 .rela.text.lc_rej_sync_con_handler
                0x000000001005c6c0        0x0 Output\obj\platform\bsp\bsp_audio.o
 .rela.text.lc_acc_sync_con_handler
                0x000000001005c6c0        0x0 Output\obj\platform\bsp\bsp_audio.o
 .rela.text.lc_start_page_req_handler
                0x000000001005c6c0        0x0 Output\obj\platform\bsp\bsp_audio.o
 .rela.text.lc_setup_sync_con_cmd_handler
                0x000000001005c6c0        0x0 Output\obj\platform\bsp\bsp_audio.o
 .rela.text.lc_lmp_esco_lk_rem_req_handler
                0x000000001005c6c0        0x0 Output\obj\platform\bsp\bsp_audio.o
 .rela.text.lc_lmp_sco_lk_rem_req_handler
                0x000000001005c6c0        0x0 Output\obj\platform\bsp\bsp_audio.o
 .rela.text.lc_lmp_esco_lk_req_handler
                0x000000001005c6c0        0x0 Output\obj\platform\bsp\bsp_audio.o
 .rela.text.lc_lmp_sco_lk_req_handler
                0x000000001005c6c0        0x0 Output\obj\platform\bsp\bsp_audio.o
 .rela.text.lc_sco_send_peer_disc
                0x000000001005c6c0        0x0 Output\obj\platform\bsp\bsp_audio.o
 .rela.text.lc_sco_send_peer_req
                0x000000001005c6c0        0x0 Output\obj\platform\bsp\bsp_audio.o
 .rela.text.lc_sco_free_link
                0x000000001005c6c0        0x0 Output\obj\platform\bsp\bsp_audio.o
 .rela.text.lc_sco_wrapper_lm_get_sync_param.isra.1
                0x000000001005c6c0        0x0 Output\obj\platform\bsp\bsp_audio.o
 .rela.text.lc_sco_host_request
                0x000000001005c6c0        0x0 Output\obj\platform\bsp\bsp_audio.o
 .rela.text.lc_sco_host_accept
                0x000000001005c6c0        0x0 Output\obj\platform\bsp\bsp_audio.o
 .rela.text.lc_sco_peer_request
                0x000000001005c6c0        0x0 Output\obj\platform\bsp\bsp_audio.o
 .rela.text.lc_sco_con_remove
                0x000000001005c6c0        0x0 Output\obj\platform\bsp\bsp_audio.o
 .rela.text.lc_sco_con_add
                0x000000001005c6c0        0x0 Output\obj\platform\bsp\bsp_audio.o
 .rela.text.lc_sco_start_link
                0x000000001005c6c0        0x0 Output\obj\platform\bsp\bsp_audio.o
 .rela.text.lm_init
                0x000000001005c6c0        0x0 Output\obj\platform\bsp\bsp_audio.o
 .rela.text.lm_create_con
                0x000000001005c6c0        0x0 Output\obj\platform\bsp\bsp_audio.o
 .rela.text.lm_inquiry_sc
                0x000000001005c6c0        0x0 Output\obj\platform\bsp\bsp_audio.o
 .rela.text.lm_afh_restart_timer
                0x000000001005c6c0        0x0 Output\obj\platform\bsp\bsp_audio.o
 .rela.text.lm_afh_process
                0x000000001005c6c0        0x0 Output\obj\platform\bsp\bsp_audio.o
 .rela.text.lm_afh_init
                0x000000001005c6c0        0x0 Output\obj\platform\bsp\bsp_audio.o
 .rela.text.lm_wr_sp_dbg_mode_cmd_handler
                0x000000001005c6c0        0x0 Output\obj\platform\bsp\bsp_audio.o
 .rela.text.lm_send_key_press_notif_cmd_handler
                0x000000001005c6c0        0x0 Output\obj\platform\bsp\bsp_audio.o
 .rela.text.lm_user_pass_key_req_reply_neg_cmd_handler
                0x000000001005c6c0        0x0 Output\obj\platform\bsp\bsp_audio.o
 .rela.text.lm_user_pass_key_req_reply_cmd_handler
                0x000000001005c6c0        0x0 Output\obj\platform\bsp\bsp_audio.o
 .rela.text.lm_user_cfm_req_reply_neg_cmd_handler
                0x000000001005c6c0        0x0 Output\obj\platform\bsp\bsp_audio.o
 .rela.text.lm_user_cfm_req_reply_cmd_handler
                0x000000001005c6c0        0x0 Output\obj\platform\bsp\bsp_audio.o
 .rela.text.lm_io_cap_req_reply_neg_cmd_handler
                0x000000001005c6c0        0x0 Output\obj\platform\bsp\bsp_audio.o
 .rela.text.lm_io_cap_req_reply_cmd_handler
                0x000000001005c6c0        0x0 Output\obj\platform\bsp\bsp_audio.o
 .rela.text.lm_rem_name_req_can_cmd_handler
                0x000000001005c6c0        0x0 Output\obj\platform\bsp\bsp_audio.o
 .rela.text.lm_pin_code_reply_neg_cmd_handler
                0x000000001005c6c0        0x0 Output\obj\platform\bsp\bsp_audio.o
 .rela.text.lm_pin_code_reply_cmd_handler
                0x000000001005c6c0        0x0 Output\obj\platform\bsp\bsp_audio.o
 .rela.text.lm_link_key_reply_neg_cmd_handler
                0x000000001005c6c0        0x0 Output\obj\platform\bsp\bsp_audio.o
 .rela.text.lm_link_key_reply_cmd_handler
                0x000000001005c6c0        0x0 Output\obj\platform\bsp\bsp_audio.o
 .rela.text.lm_create_cnx_can_cmd_handler
                0x000000001005c6c0        0x0 Output\obj\platform\bsp\bsp_audio.o
 .rela.text.lm_wr_sp_mode_cmd_handler
                0x000000001005c6c0        0x0 Output\obj\platform\bsp\bsp_audio.o
 .rela.text.lm_rd_sp_mode_cmd_handler
                0x000000001005c6c0        0x0 Output\obj\platform\bsp\bsp_audio.o
 .rela.text.lm_wr_ext_inq_rsp_cmd_handler
                0x000000001005c6c0        0x0 Output\obj\platform\bsp\bsp_audio.o
 .rela.text.lm_rd_ext_inq_rsp_cmd_handler
                0x000000001005c6c0        0x0 Output\obj\platform\bsp\bsp_audio.o
 .rela.text.lm_wr_page_to_cmd_handler
                0x000000001005c6c0        0x0 Output\obj\platform\bsp\bsp_audio.o
 .rela.text.lm_wr_pin_type_cmd_handler
                0x000000001005c6c0        0x0 Output\obj\platform\bsp\bsp_audio.o
 .rela.text.lm_create_cnx_cmd_handler
                0x000000001005c6c0        0x0 Output\obj\platform\bsp\bsp_audio.o
 .rela.text.lm_host_buff_size_cmd_handler
                0x000000001005c6c0        0x0 Output\obj\platform\bsp\bsp_audio.o
 .rela.text.lm_set_evt_msk_cmd_handler
                0x000000001005c6c0        0x0 Output\obj\platform\bsp\bsp_audio.o
 .rela.text.lm_rd_local_supp_cmds_cmd_handler
                0x000000001005c6c0        0x0 Output\obj\platform\bsp\bsp_audio.o
 .rela.text.lm_inq_rslt_ext_ind_handler
                0x000000001005c6c0        0x0 Output\obj\platform\bsp\bsp_audio.o
 .rela.text.lm_page_fail_ind_handler
                0x000000001005c6c0        0x0 Output\obj\platform\bsp\bsp_audio.o
 .rela.text.lm_inq_scan_to_handler
                0x000000001005c6c0        0x0 Output\obj\platform\bsp\bsp_audio.o
 .rela.text.lm_inq_to_handler
                0x000000001005c6c0        0x0 Output\obj\platform\bsp\bsp_audio.o
 .rela.text.lm_switch_role_cmd_handler
                0x000000001005c6c0        0x0 Output\obj\platform\bsp\bsp_audio.o
 .rela.text.lm_reject_con_sync_cmd_handler
                0x000000001005c6c0        0x0 Output\obj\platform\bsp\bsp_audio.o
 .rela.text.lm_reject_con_cmd_handler
                0x000000001005c6c0        0x0 Output\obj\platform\bsp\bsp_audio.o
 .rela.text.lm_accept_con_sync_cmd_handler
                0x000000001005c6c0        0x0 Output\obj\platform\bsp\bsp_audio.o
 .rela.text.lm_accept_con_cmd_handler
                0x000000001005c6c0        0x0 Output\obj\platform\bsp\bsp_audio.o
 .rela.text.lm_remote_name_cmd_handler
                0x000000001005c6c0        0x0 Output\obj\platform\bsp\bsp_audio.o
 .rela.text.lm_host_nb_comp_pkts_cmd_handler
                0x000000001005c6c0        0x0 Output\obj\platform\bsp\bsp_audio.o
 .rela.text.lm_get_sync_offset.isra.12
                0x000000001005c6c0        0x0 Output\obj\platform\bsp\bsp_audio.o
 .rela.text.lm_remove_sync
                0x000000001005c6c0        0x0 Output\obj\platform\bsp\bsp_audio.o
 .rela.text.unlikely.lm_get_sniff_timing
                0x000000001005c6c0        0x0 Output\obj\platform\bsp\bsp_audio.o
 .rela.text.lm_add_sniff
                0x000000001005c6c0        0x0 Output\obj\platform\bsp\bsp_audio.o
 .rela.text.lm_remove_sniff
                0x000000001005c6c0        0x0 Output\obj\platform\bsp\bsp_audio.o
 .rela.text.lm_set_encap_pdu_data
                0x000000001005c6c0        0x0 Output\obj\platform\bsp\bsp_audio.o
 .rela.text.lm_get_nonce
                0x000000001005c6c0        0x0 Output\obj\platform\bsp\bsp_audio.o
 .rela.text.lm_f1
                0x000000001005c6c0        0x0 Output\obj\platform\bsp\bsp_audio.o
 .rela.text.lm_oob_f1
                0x000000001005c6c0        0x0 Output\obj\platform\bsp\bsp_audio.o
 .rela.text.lm_g
                0x000000001005c6c0        0x0 Output\obj\platform\bsp\bsp_audio.o
 .rela.text.lm_f3
                0x000000001005c6c0        0x0 Output\obj\platform\bsp\bsp_audio.o
 .rela.text.lm_f2
                0x000000001005c6c0        0x0 Output\obj\platform\bsp\bsp_audio.o
 .rela.text.lm_dhkey_calc_init
                0x000000001005c6c0        0x0 Output\obj\platform\bsp\bsp_audio.o
 .rela.text.lm_dhkey_compare
                0x000000001005c6c0        0x0 Output\obj\platform\bsp\bsp_audio.o
 .rela.text.bb_conhdl_acl_delete
                0x000000001005c6c0        0x0 Output\obj\platform\bsp\bsp_audio.o
 .rela.com_text.nanos
                0x000000001005c6c0        0x0 Output\obj\platform\bsp\bsp_audio.o
 .rela.text.hci_tx_start
                0x000000001005c6c0        0x0 Output\obj\platform\bsp\bsp_audio.o
 .rela.text.hci_cmd_dispatch
                0x000000001005c6c0        0x0 Output\obj\platform\bsp\bsp_audio.o
 .rela.text.btstack_disconnect_for_handle
                0x000000001005c6c0        0x0 Output\obj\platform\bsp\bsp_audio.o
 .rela.text.btstack_tws_key
                0x000000001005c6c0        0x0 Output\obj\platform\bsp\bsp_audio.o
 .rela.text.btstack_tws_slave_key
                0x000000001005c6c0        0x0 Output\obj\platform\bsp\bsp_audio.o
 .rela.text.stack.handler
                0x000000001005c6c0        0x0 Output\obj\platform\bsp\bsp_audio.o
 .rela.text.btstack_audio_bypass
                0x000000001005c6c0        0x0 Output\obj\platform\bsp\bsp_audio.o
 .rela.text.btstack_audio_enable
                0x000000001005c6c0        0x0 Output\obj\platform\bsp\bsp_audio.o
 .rela.text.stack.sleep
                0x000000001005c6c0        0x0 Output\obj\platform\bsp\bsp_audio.o
 .rela.com_text.stack.api
                0x000000001005c6c0        0x0 Output\obj\platform\bsp\bsp_audio.o
 .rela.text.btstack_establish_service_connection
                0x000000001005c6c0        0x0 Output\obj\platform\bsp\bsp_audio.o
 .rela.text.btstack_continue_establish_service_connection
                0x000000001005c6c0        0x0 Output\obj\platform\bsp\bsp_audio.o
 .rela.text.btstack_tws_connect
                0x000000001005c6c0        0x0 Output\obj\platform\bsp\bsp_audio.o
 .rela.text.btstack_nor_connect
                0x000000001005c6c0        0x0 Output\obj\platform\bsp\bsp_audio.o
 .rela.text.btstack_tws_disc_continue
                0x000000001005c6c0        0x0 Output\obj\platform\bsp\bsp_audio.o
 .rela.text.btstack_clr_dis_flag
                0x000000001005c6c0        0x0 Output\obj\platform\bsp\bsp_audio.o
 .rela.text.btstack_clr_l2cap_status
                0x000000001005c6c0        0x0 Output\obj\platform\bsp\bsp_audio.o
 .rela.text.btstack_set_hfp_status_ptr
                0x000000001005c6c0        0x0 Output\obj\platform\bsp\bsp_audio.o
 .rela.text.btstack_clr_hfp_status_ptr
                0x000000001005c6c0        0x0 Output\obj\platform\bsp\bsp_audio.o
 .rela.text.le_is_connect
                0x000000001005c6c0        0x0 Output\obj\platform\bsp\bsp_audio.o
 .rela.text.stack.setup
                0x000000001005c6c0        0x0 Output\obj\platform\bsp\bsp_audio.o
 .rela.text.btstack_tws_search_slave
                0x000000001005c6c0        0x0 Output\obj\platform\bsp\bsp_audio.o
 .rela.com_text.sco
                0x000000001005c6c0        0x0 Output\obj\platform\bsp\bsp_audio.o
 .rela.text.btstack_wait_wakeup
                0x000000001005c6c0        0x0 Output\obj\platform\bsp\bsp_audio.o
 .rela.text.btstack_sco_setup
                0x000000001005c6c0        0x0 Output\obj\platform\bsp\bsp_audio.o
 .rela.text.btstack_sco_kill
                0x000000001005c6c0        0x0 Output\obj\platform\bsp\bsp_audio.o
 .rela.text.btstack_audio_is_busy
                0x000000001005c6c0        0x0 Output\obj\platform\bsp\bsp_audio.o
 .rela.text.btstack_audio_set_busy
                0x000000001005c6c0        0x0 Output\obj\platform\bsp\bsp_audio.o
 .rela.text.btstack_set_lmp_test
                0x000000001005c6c0        0x0 Output\obj\platform\bsp\bsp_audio.o
 .rela.text.btstack_tws_hfp_vol
                0x000000001005c6c0        0x0 Output\obj\platform\bsp\bsp_audio.o
 .rela.text.tws_remote_is_busy
                0x000000001005c6c0        0x0 Output\obj\platform\bsp\bsp_audio.o
 .rela.text.tws_remote_set_key
                0x000000001005c6c0        0x0 Output\obj\platform\bsp\bsp_audio.o
 .rela.text.tws_remote_set_status
                0x000000001005c6c0        0x0 Output\obj\platform\bsp\bsp_audio.o
 .rela.text.tws_remote_set_profile_status
                0x000000001005c6c0        0x0 Output\obj\platform\bsp\bsp_audio.o
 .rela.text.btstack_get_conn_feature
                0x000000001005c6c0        0x0 Output\obj\platform\bsp\bsp_audio.o
 .rela.text.btstack_set_conn_feature
                0x000000001005c6c0        0x0 Output\obj\platform\bsp\bsp_audio.o
 .rela.text.btstack_cmp_guid
                0x000000001005c6c0        0x0 Output\obj\platform\bsp\bsp_audio.o
 .rela.text.btstack_get_tws_scan_en
                0x000000001005c6c0        0x0 Output\obj\platform\bsp\bsp_audio.o
 .rela.rodata.stack.api
                0x000000001005c6c0        0x0 Output\obj\platform\bsp\bsp_audio.o
 .rela.text.chipset_set_bd_addr_command
                0x000000001005c6c0        0x0 Output\obj\platform\bsp\bsp_audio.o
 .rela.com_text.stack.ticks
                0x000000001005c6c0        0x0 Output\obj\platform\bsp\bsp_audio.o
 .rela.com_text.stack.uart_isr
                0x000000001005c6c0        0x0 Output\obj\platform\bsp\bsp_audio.o
 .rela.text.stack.hal
                0x000000001005c6c0        0x0 Output\obj\platform\bsp\bsp_audio.o
 .rela.text.stack.hcic
                0x000000001005c6c0        0x0 Output\obj\platform\bsp\bsp_audio.o
 .rela.text.hcic_recv_packet
                0x000000001005c6c0        0x0 Output\obj\platform\bsp\bsp_audio.o
 .rela.text.hci_init_var
                0x000000001005c6c0        0x0 Output\obj\platform\bsp\bsp_audio.o
 .rela.text.bt_get_class_of_device
                0x000000001005c6c0        0x0 Output\obj\platform\bsp\bsp_audio.o
 .rela.text.stack.linkctrl
                0x000000001005c6c0        0x0 Output\obj\platform\bsp\bsp_audio.o
 .rela.text.btstack_link_ctrl_stop_timer
                0x000000001005c6c0        0x0 Output\obj\platform\bsp\bsp_audio.o
 .rela.text.btstack_link_ctrl_set_timer
                0x000000001005c6c0        0x0 Output\obj\platform\bsp\bsp_audio.o
 .rela.text.link_ctrl_timer_handler
                0x000000001005c6c0        0x0 Output\obj\platform\bsp\bsp_audio.o
 .rela.text.stack.memory
                0x000000001005c6c0        0x0 Output\obj\platform\bsp\bsp_audio.o
 .rela.text.stack.run_loop
                0x000000001005c6c0        0x0 Output\obj\platform\bsp\bsp_audio.o
 .rela.text.tws_start_inq
                0x000000001005c6c0        0x0 Output\obj\platform\bsp\bsp_audio.o
 .rela.text.tws_start_pair
                0x000000001005c6c0        0x0 Output\obj\platform\bsp\bsp_audio.o
 .rela.text.btstack_tws_timer_handler
                0x000000001005c6c0        0x0 Output\obj\platform\bsp\bsp_audio.o
 .rela.text.btstack_tws_continue_connect
                0x000000001005c6c0        0x0 Output\obj\platform\bsp\bsp_audio.o
 .rela.text.tws.init
                0x000000001005c6c0        0x0 Output\obj\platform\bsp\bsp_audio.o
 .rela.text.handle_query_a2dp_event
                0x000000001005c6c0        0x0 Output\obj\platform\bsp\bsp_audio.o
 .rela.text.remove_a2dp_connection_context
                0x000000001005c6c0        0x0 Output\obj\platform\bsp\bsp_audio.o
 .rela.text.provide_a2dp_connection_context_for_bd_addr
                0x000000001005c6c0        0x0 Output\obj\platform\bsp\bsp_audio.o
 .rela.text.a2dp_establish_service_level_connection
                0x000000001005c6c0        0x0 Output\obj\platform\bsp\bsp_audio.o
 .rela.text.a2dp_run_for_release
                0x000000001005c6c0        0x0 Output\obj\platform\bsp\bsp_audio.o
 .rela.text.a2dp_search_os_capacity
                0x000000001005c6c0        0x0 Output\obj\platform\bsp\bsp_audio.o
 .rela.text.a2dp_is_avctp_ctrl
                0x000000001005c6c0        0x0 Output\obj\platform\bsp\bsp_audio.o
 .rela.text.a2dp_init
                0x000000001005c6c0        0x0 Output\obj\platform\bsp\bsp_audio.o
 .rela.text.a2dp_init_var
                0x000000001005c6c0        0x0 Output\obj\platform\bsp\bsp_audio.o
 .rela.com_text.sbc.play
                0x000000001005c6c0        0x0 Output\obj\platform\bsp\bsp_audio.o
 .rela.text.sbc.play
                0x000000001005c6c0        0x0 Output\obj\platform\bsp\bsp_audio.o
 .rela.com_text.sbc_cache
                0x000000001005c6c0        0x0 Output\obj\platform\bsp\bsp_audio.o
 .rela.sbcdec.code
                0x000000001005c6c0        0x0 Output\obj\platform\bsp\bsp_audio.o
 .rela.com_text.sbc_play
                0x000000001005c6c0        0x0 Output\obj\platform\bsp\bsp_audio.o
 .rela.text.tws_remote_set_volume
                0x000000001005c6c0        0x0 Output\obj\platform\bsp\bsp_audio.o
 .rela.text.tws_remote_set_func_id
                0x000000001005c6c0        0x0 Output\obj\platform\bsp\bsp_audio.o
 .rela.text.tws_set_volume
                0x000000001005c6c0        0x0 Output\obj\platform\bsp\bsp_audio.o
 .rela.text.tws_set_func_id
                0x000000001005c6c0        0x0 Output\obj\platform\bsp\bsp_audio.o
 .rela.text.tws_send_key
                0x000000001005c6c0        0x0 Output\obj\platform\bsp\bsp_audio.o
 .rela.text.tws_report_status
                0x000000001005c6c0        0x0 Output\obj\platform\bsp\bsp_audio.o
 .rela.text.tws_report_profile_status
                0x000000001005c6c0        0x0 Output\obj\platform\bsp\bsp_audio.o
 .rela.text.tws_set_spr
                0x000000001005c6c0        0x0 Output\obj\platform\bsp\bsp_audio.o
 .rela.com_text.a2dp_play
                0x000000001005c6c0        0x0 Output\obj\platform\bsp\bsp_audio.o
 .rela.text.tws_set_speed_thres
                0x000000001005c6c0        0x0 Output\obj\platform\bsp\bsp_audio.o
 .rela.text.tws_set_speed
                0x000000001005c6c0        0x0 Output\obj\platform\bsp\bsp_audio.o
 .rela.text.tws_play_adj
                0x000000001005c6c0        0x0 Output\obj\platform\bsp\bsp_audio.o
 .rela.text.tws_play_stop
                0x000000001005c6c0        0x0 Output\obj\platform\bsp\bsp_audio.o
 .rela.text.tws_play_suspend
                0x000000001005c6c0        0x0 Output\obj\platform\bsp\bsp_audio.o
 .rela.text.tws_play_resume
                0x000000001005c6c0        0x0 Output\obj\platform\bsp\bsp_audio.o
 .rela.com_text.sbc.send
                0x000000001005c6c0        0x0 Output\obj\platform\bsp\bsp_audio.o
 .rela.text.avctp_timer_play_handler
                0x000000001005c6c0        0x0 Output\obj\platform\bsp\bsp_audio.o
 .rela.text.avctp_send_req
                0x000000001005c6c0        0x0 Output\obj\platform\bsp\bsp_audio.o
 .rela.text.avctp_send_rsp
                0x000000001005c6c0        0x0 Output\obj\platform\bsp\bsp_audio.o
 .rela.text.avrcp_parse_cmd
                0x000000001005c6c0        0x0 Output\obj\platform\bsp\bsp_audio.o
 .rela.text.avctp_state_machine
                0x000000001005c6c0        0x0 Output\obj\platform\bsp\bsp_audio.o
 .rela.text.avctp_play_pause_for_conn
                0x000000001005c6c0        0x0 Output\obj\platform\bsp\bsp_audio.o
 .rela.text.avctp_player_ctrl_for_conn
                0x000000001005c6c0        0x0 Output\obj\platform\bsp\bsp_audio.o
 .rela.text.avctp_volume_change_for_conn
                0x000000001005c6c0        0x0 Output\obj\platform\bsp\bsp_audio.o
 .rela.text.avrcp_parse_rsp
                0x000000001005c6c0        0x0 Output\obj\platform\bsp\bsp_audio.o
 .rela.text.avctp_packet_handler
                0x000000001005c6c0        0x0 Output\obj\platform\bsp\bsp_audio.o
 .rela.text.avctp_channel_create
                0x000000001005c6c0        0x0 Output\obj\platform\bsp\bsp_audio.o
 .rela.text.avdtp_tws_set_spr
                0x000000001005c6c0        0x0 Output\obj\platform\bsp\bsp_audio.o
 .rela.text.avdtp_tx_cmd
                0x000000001005c6c0        0x0 Output\obj\platform\bsp\bsp_audio.o
 .rela.text.avdtp_tx_discover_cmd
                0x000000001005c6c0        0x0 Output\obj\platform\bsp\bsp_audio.o
 .rela.text.avdtp_tx_setconf_cmd
                0x000000001005c6c0        0x0 Output\obj\platform\bsp\bsp_audio.o
 .rela.text.avdtp_signal_state_machine
                0x000000001005c6c0        0x0 Output\obj\platform\bsp\bsp_audio.o
 .rela.text.avdtp_signal_channel_create
                0x000000001005c6c0        0x0 Output\obj\platform\bsp\bsp_audio.o
 .rela.text.avdtp_media_channel_create
                0x000000001005c6c0        0x0 Output\obj\platform\bsp\bsp_audio.o
 .rela.com_text.stack.sbc
                0x000000001005c6c0        0x0 Output\obj\platform\bsp\bsp_audio.o
 .rela.text.avdtp_end_of_play
                0x000000001005c6c0        0x0 Output\obj\platform\bsp\bsp_audio.o
 .rela.text.avdtp_packet_handler
                0x000000001005c6c0        0x0 Output\obj\platform\bsp\bsp_audio.o
 .rela.text.remove_hfp_connection_context
                0x000000001005c6c0        0x0 Output\obj\platform\bsp\bsp_audio.o
 .rela.text.send_str_over_rfcomm
                0x000000001005c6c0        0x0 Output\obj\platform\bsp\bsp_audio.o
 .rela.text.handle_query_rfcomm_event
                0x000000001005c6c0        0x0 Output\obj\platform\bsp\bsp_audio.o
 .rela.text.create_hfp_connection_context
                0x000000001005c6c0        0x0 Output\obj\platform\bsp\bsp_audio.o
 .rela.text.hfp_parse
                0x000000001005c6c0        0x0 Output\obj\platform\bsp\bsp_audio.o
 .rela.text.hfp_establish_service_level_connection
                0x000000001005c6c0        0x0 Output\obj\platform\bsp\bsp_audio.o
 .rela.text.hfp_handle_hci_event
                0x000000001005c6c0        0x0 Output\obj\platform\bsp\bsp_audio.o
 .rela.text.hfp_release_service_level_connection
                0x000000001005c6c0        0x0 Output\obj\platform\bsp\bsp_audio.o
 .rela.text.hfp_setup_synchronous_connection
                0x000000001005c6c0        0x0 Output\obj\platform\bsp\bsp_audio.o
 .rela.text.hfp_hf_switch_on_ok
                0x000000001005c6c0        0x0 Output\obj\platform\bsp\bsp_audio.o
 .rela.text.hfp_run_for_context
                0x000000001005c6c0        0x0 Output\obj\platform\bsp\bsp_audio.o
 .rela.text.hfp_hf_packet_handler
                0x000000001005c6c0        0x0 Output\obj\platform\bsp\bsp_audio.o
 .rela.text.hfp_hf_init
                0x000000001005c6c0        0x0 Output\obj\platform\bsp\bsp_audio.o
 .rela.text.hid_packet_handler
                0x000000001005c6c0        0x0 Output\obj\platform\bsp\bsp_audio.o
 .rela.text.bt_hid_is_connected
                0x000000001005c6c0        0x0 Output\obj\platform\bsp\bsp_audio.o
 .rela.text.hid_device_init
                0x000000001005c6c0        0x0 Output\obj\platform\bsp\bsp_audio.o
 .rela.text.hid_device_request_can_send_now_event
                0x000000001005c6c0        0x0 Output\obj\platform\bsp\bsp_audio.o
 .rela.text.hid_device_send_interrupt_message
                0x000000001005c6c0        0x0 Output\obj\platform\bsp\bsp_audio.o
 .rela.text.hid_device_send_contro_message
                0x000000001005c6c0        0x0 Output\obj\platform\bsp\bsp_audio.o
 .rela.text.hid_establish_service_level_connection
                0x000000001005c6c0        0x0 Output\obj\platform\bsp\bsp_audio.o
 .rela.text.hid_release_service_level_connection
                0x000000001005c6c0        0x0 Output\obj\platform\bsp\bsp_audio.o
 .rela.text.stack.rfcomm
                0x000000001005c6c0        0x0 Output\obj\platform\bsp\bsp_audio.o
 .rela.text.rfcomm_multiplexer_create_for_addr
                0x000000001005c6c0        0x0 Output\obj\platform\bsp\bsp_audio.o
 .rela.text.rfcomm_channel_create
                0x000000001005c6c0        0x0 Output\obj\platform\bsp\bsp_audio.o
 .rela.text.rfcomm_channel_create_internal
                0x000000001005c6c0        0x0 Output\obj\platform\bsp\bsp_audio.o
 .rela.text.rfcomm_channel_can_send.part.8
                0x000000001005c6c0        0x0 Output\obj\platform\bsp\bsp_audio.o
 .rela.text.rfcomm_notify_channel_can_send
                0x000000001005c6c0        0x0 Output\obj\platform\bsp\bsp_audio.o
 .rela.text.rfcomm_channel_finalize
                0x000000001005c6c0        0x0 Output\obj\platform\bsp\bsp_audio.o
 .rela.text.rfcomm_multiplexer_finalize
                0x000000001005c6c0        0x0 Output\obj\platform\bsp\bsp_audio.o
 .rela.text.rfcomm_multiplexer_timer_handler
                0x000000001005c6c0        0x0 Output\obj\platform\bsp\bsp_audio.o
 .rela.text.rfcomm_request_can_send_now_event
                0x000000001005c6c0        0x0 Output\obj\platform\bsp\bsp_audio.o
 .rela.text.rfcomm_reserve_packet_buffer
                0x000000001005c6c0        0x0 Output\obj\platform\bsp\bsp_audio.o
 .rela.text.rfcomm_release_packet_buffer
                0x000000001005c6c0        0x0 Output\obj\platform\bsp\bsp_audio.o
 .rela.text.rfcomm_get_outgoing_buffer
                0x000000001005c6c0        0x0 Output\obj\platform\bsp\bsp_audio.o
 .rela.text.rfcomm_disconnect
                0x000000001005c6c0        0x0 Output\obj\platform\bsp\bsp_audio.o
 .rela.text.rfcomm_unregister_service
                0x000000001005c6c0        0x0 Output\obj\platform\bsp\bsp_audio.o
 .rela.text.rfcomm_accept_connection
                0x000000001005c6c0        0x0 Output\obj\platform\bsp\bsp_audio.o
 .rela.text.rfcomm_decline_connection
                0x000000001005c6c0        0x0 Output\obj\platform\bsp\bsp_audio.o
 .rela.text.rfcomm_grant_credits
                0x000000001005c6c0        0x0 Output\obj\platform\bsp\bsp_audio.o
 .rela.text.rfcomm_send_prepared
                0x000000001005c6c0        0x0 Output\obj\platform\bsp\bsp_audio.o
 .rela.text.rfcomm_send
                0x000000001005c6c0        0x0 Output\obj\platform\bsp\bsp_audio.o
 .rela.text.rfcomm_send_packet_for_multiplexer.isra.12
                0x000000001005c6c0        0x0 Output\obj\platform\bsp\bsp_audio.o
 .rela.text.rfcomm_channel_state_machine_with_channel
                0x000000001005c6c0        0x0 Output\obj\platform\bsp\bsp_audio.o
 .rela.text.rfcomm_multiplexer_opened
                0x000000001005c6c0        0x0 Output\obj\platform\bsp\bsp_audio.o
 .rela.text.rfcomm_channel_state_machine_with_dlci
                0x000000001005c6c0        0x0 Output\obj\platform\bsp\bsp_audio.o
 .rela.text.rfcomm_packet_handler
                0x000000001005c6c0        0x0 Output\obj\platform\bsp\bsp_audio.o
 .rela.text.de_state_size
                0x000000001005c6c0        0x0 Output\obj\platform\bsp\bsp_audio.o
 .rela.text.sdp_parser_handle_done
                0x000000001005c6c0        0x0 Output\obj\platform\bsp\bsp_audio.o
 .rela.text.sdp_client_packet_handler
                0x000000001005c6c0        0x0 Output\obj\platform\bsp\bsp_audio.o
 .rela.text.sdp_client_query
                0x000000001005c6c0        0x0 Output\obj\platform\bsp\bsp_audio.o
 .rela.text.stack.sdp.server
                0x000000001005c6c0        0x0 Output\obj\platform\bsp\bsp_audio.o
 .rela.text.remove_spp_connection_context
                0x000000001005c6c0        0x0 Output\obj\platform\bsp\bsp_audio.o
 .rela.text.provide_spp_connection_context_for_bd_addr.part.1
                0x000000001005c6c0        0x0 Output\obj\platform\bsp\bsp_audio.o
 .rela.text.spp_release_service_level_connection
                0x000000001005c6c0        0x0 Output\obj\platform\bsp\bsp_audio.o
 .rela.text.spp_init
                0x000000001005c6c0        0x0 Output\obj\platform\bsp\bsp_audio.o
 .rela.text.stack.hci
                0x000000001005c6c0        0x0 Output\obj\platform\bsp\bsp_audio.o
 .rela.text.stack.hci_init
                0x000000001005c6c0        0x0 Output\obj\platform\bsp\bsp_audio.o
 .rela.text.hci_shutdown_connection
                0x000000001005c6c0        0x0 Output\obj\platform\bsp\bsp_audio.o
 .rela.text.stack.hci.conn
                0x000000001005c6c0        0x0 Output\obj\platform\bsp\bsp_audio.o
 .rela.com_text.stack.hci
                0x000000001005c6c0        0x0 Output\obj\platform\bsp\bsp_audio.o
 .rela.text.stack.hci_send
                0x000000001005c6c0        0x0 Output\obj\platform\bsp\bsp_audio.o
 .rela.text.hci_initialization_timeout_handler
                0x000000001005c6c0        0x0 Output\obj\platform\bsp\bsp_audio.o
 .rela.text.hci_event_scan_ctrl
                0x000000001005c6c0        0x0 Output\obj\platform\bsp\bsp_audio.o
 .rela.text.hci_setup_sync
                0x000000001005c6c0        0x0 Output\obj\platform\bsp\bsp_audio.o
 .rela.text.stack.handler.event
                0x000000001005c6c0        0x0 Output\obj\platform\bsp\bsp_audio.o
 .rela.text.sco_init_var
                0x000000001005c6c0        0x0 Output\obj\platform\bsp\bsp_audio.o
 .rela.text.bt_set_sco_far_delay
                0x000000001005c6c0        0x0 Output\obj\platform\bsp\bsp_audio.o
 .rela.text.stack.handler.l2cap
                0x000000001005c6c0        0x0 Output\obj\platform\bsp\bsp_audio.o
 .rela.text.stack.l2cap
                0x000000001005c6c0        0x0 Output\obj\platform\bsp\bsp_audio.o
 .rela.text.l2cap_send_test_cmd
                0x000000001005c6c0        0x0 Output\obj\platform\bsp\bsp_audio.o
 .rela.text.l2cap_send_test_key
                0x000000001005c6c0        0x0 Output\obj\platform\bsp\bsp_audio.o
 .rela.text.l2cap_create_channel
                0x000000001005c6c0        0x0 Output\obj\platform\bsp\bsp_audio.o
 .rela.text.l2cap_unregister_service
                0x000000001005c6c0        0x0 Output\obj\platform\bsp\bsp_audio.o
 .rela.text.l2cap_end_of_test
                0x000000001005c6c0        0x0 Output\obj\platform\bsp\bsp_audio.o
 .rela.text.l2cap_test_cmd
                0x000000001005c6c0        0x0 Output\obj\platform\bsp\bsp_audio.o
 .rela.text.l2cap_vd_test_can_send_now
                0x000000001005c6c0        0x0 Output\obj\platform\bsp\bsp_audio.o
 .rela.text.vd_test_packet_handler
                0x000000001005c6c0        0x0 Output\obj\platform\bsp\bsp_audio.o
 .rela.text.btstack_ota_read
                0x000000001005c6c0        0x0 Output\obj\platform\bsp\bsp_audio.o
 .rela.text.btstack_ota_status
                0x000000001005c6c0        0x0 Output\obj\platform\bsp\bsp_audio.o
 .rela.text.fsdisk_callback_init
                0x000000001005c6c0        0x0 Output\obj\platform\bsp\bsp_audio.o
 .rela.text.disk_initialize
                0x000000001005c6c0        0x0 Output\obj\platform\bsp\bsp_audio.o
 .rela.text.disk_readp
                0x000000001005c6c0        0x0 Output\obj\platform\bsp\bsp_audio.o
 .rela.text.disk_writep
                0x000000001005c6c0        0x0 Output\obj\platform\bsp\bsp_audio.o
 .rela.text.pf_setdir_root
                0x000000001005c6c0        0x0 Output\obj\platform\bsp\bsp_audio.o
 .rela.text.restore_file_point
                0x000000001005c6c0        0x0 Output\obj\platform\bsp\bsp_audio.o
 .rela.text.fs_mkdir
                0x000000001005c6c0        0x0 Output\obj\platform\bsp\bsp_audio.o
 .rela.text.fs_mkdir_lfn
                0x000000001005c6c0        0x0 Output\obj\platform\bsp\bsp_audio.o
 .rela.text.fs_open
                0x000000001005c6c0        0x0 Output\obj\platform\bsp\bsp_audio.o
 .rela.text.fs_open_lfn
                0x000000001005c6c0        0x0 Output\obj\platform\bsp\bsp_audio.o
 .rela.text.fs_get_file_ssect
                0x000000001005c6c0        0x0 Output\obj\platform\bsp\bsp_audio.o
 .rela.text.fs_get_filename
                0x000000001005c6c0        0x0 Output\obj\platform\bsp\bsp_audio.o
 .rela.text.fs_mount
                0x000000001005c6c0        0x0 Output\obj\platform\bsp\bsp_audio.o
 .rela.text.fs_read
                0x000000001005c6c0        0x0 Output\obj\platform\bsp\bsp_audio.o
 .rela.text.fs_lseek
                0x000000001005c6c0        0x0 Output\obj\platform\bsp\bsp_audio.o
 .rela.text.fs_write
                0x000000001005c6c0        0x0 Output\obj\platform\bsp\bsp_audio.o
 .rela.text.fs_sync
                0x000000001005c6c0        0x0 Output\obj\platform\bsp\bsp_audio.o
 .rela.text.fs_close
                0x000000001005c6c0        0x0 Output\obj\platform\bsp\bsp_audio.o
 .rela.text.fs_getdir_files
                0x000000001005c6c0        0x0 Output\obj\platform\bsp\bsp_audio.o
 .rela.text.fs_open_num
                0x000000001005c6c0        0x0 Output\obj\platform\bsp\bsp_audio.o
 .rela.text.fs_delete
                0x000000001005c6c0        0x0 Output\obj\platform\bsp\bsp_audio.o
 .rela.text.fs_open_t
                0x000000001005c6c0        0x0 Output\obj\platform\bsp\bsp_audio.o
 .rela.text.fs_open_lrc
                0x000000001005c6c0        0x0 Output\obj\platform\bsp\bsp_audio.o
 .rela.text.fs_read_lrc
                0x000000001005c6c0        0x0 Output\obj\platform\bsp\bsp_audio.o
 .rela.text.fs_lseek_lrc
                0x000000001005c6c0        0x0 Output\obj\platform\bsp\bsp_audio.o
 .rela.text.usb_init
                0x000000001005c6c0        0x0 Output\obj\platform\bsp\bsp_audio.o
 .rela.text.usb_host_enter
                0x000000001005c6c0        0x0 Output\obj\platform\bsp\bsp_audio.o
 .rela.com_text.usbdev
                0x000000001005c6c0        0x0 Output\obj\platform\bsp\bsp_audio.o
 .rela.text.usb_device_exit
                0x000000001005c6c0        0x0 Output\obj\platform\bsp\bsp_audio.o
 .rela.text.usb_device_init
                0x000000001005c6c0        0x0 Output\obj\platform\bsp\bsp_audio.o
 .rela.text.usb_device_enter
                0x000000001005c6c0        0x0 Output\obj\platform\bsp\bsp_audio.o
 .rela.com_text.usb.device
                0x000000001005c6c0        0x0 Output\obj\platform\bsp\bsp_audio.o
 .rela.text.usb_host_var_init
                0x000000001005c6c0        0x0 Output\obj\platform\bsp\bsp_audio.o
 .rela.text.uhs_is_iphone
                0x000000001005c6c0        0x0 Output\obj\platform\bsp\bsp_audio.o
 .rela.text.usb.host.init
                0x000000001005c6c0        0x0 Output\obj\platform\bsp\bsp_audio.o
 .rela.text.udisk_suspend
                0x000000001005c6c0        0x0 Output\obj\platform\bsp\bsp_audio.o
 .rela.text.udisk_resume
                0x000000001005c6c0        0x0 Output\obj\platform\bsp\bsp_audio.o
 .rela.com_text.usb.host
                0x000000001005c6c0        0x0 Output\obj\platform\bsp\bsp_audio.o
 .rela.text.udisk_read
                0x000000001005c6c0        0x0 Output\obj\platform\bsp\bsp_audio.o
 .rela.text.udisk_write
                0x000000001005c6c0        0x0 Output\obj\platform\bsp\bsp_audio.o
 .rela.text.do_receive
                0x000000001005c6c0        0x0 Output\obj\platform\bsp\bsp_audio.o
 .rela.text.dir_register_exfat
                0x000000001005c6c0        0x0 Output\obj\platform\bsp\bsp_audio.o
 .rela.text.pf_mount
                0x000000001005c6c0        0x0 Output\obj\platform\bsp\bsp_audio.o
 .rela.text.pf_open
                0x000000001005c6c0        0x0 Output\obj\platform\bsp\bsp_audio.o
 .rela.text.pf_mkdir
                0x000000001005c6c0        0x0 Output\obj\platform\bsp\bsp_audio.o
 .rela.com_text.avio
                0x000000001005c6c0        0x0 Output\obj\platform\bsp\bsp_audio.o
 .rela.com_text.dac.drc
                0x000000001005c6c0        0x0 Output\obj\platform\bsp\bsp_audio.o
 .rela.text.dac.drc.init
                0x000000001005c6c0        0x0 Output\obj\platform\bsp\bsp_audio.o
 .rela.com_text.dac.vbs
                0x000000001005c6c0        0x0 Output\obj\platform\bsp\bsp_audio.o
 .rela.text.mav
                0x000000001005c6c0        0x0 Output\obj\platform\bsp\bsp_audio.o
 .rela.text.mp3.init
                0x000000001005c6c0        0x0 Output\obj\platform\bsp\bsp_audio.o
 .rela.mp3dec.dec
                0x000000001005c6c0        0x0 Output\obj\platform\bsp\bsp_audio.o
 .rela.sbcdec.init
                0x000000001005c6c0        0x0 Output\obj\platform\bsp\bsp_audio.o
 .rela.text.msbc.init
                0x000000001005c6c0        0x0 Output\obj\platform\bsp\bsp_audio.o
 .rela.text     0x000000001005c6c0        0x0 Output\obj\platform\bsp\bsp_audio.o
 .rela.mp3dec.frame
                0x000000001005c6c0        0x0 Output\obj\platform\bsp\bsp_audio.o
 .rela.mp3dec.layer2
                0x000000001005c6c0        0x0 Output\obj\platform\bsp\bsp_audio.o
 .rela.mp3dec.layer1
                0x000000001005c6c0        0x0 Output\obj\platform\bsp\bsp_audio.o
 .rela.mp3dec.layer3
                0x000000001005c6c0        0x0 Output\obj\platform\bsp\bsp_audio.o
                0x000000001005c6c0        0x4 LONG 0x0
                0x000000001005c800                . = ALIGN (0x200)
 *fill*         0x000000001005c6c4      0x13c 

.stack          0x0000000000010800      0x400
                0x0000000000010800                __irq_stack_start = .
                0x0000000000000400                . = 0x400
 *fill*         0x0000000000010800      0x400 
                0x0000000000010c00                __irq_stack = .
                0x0000000000000400                __irq_stack_size = (__irq_stack - __irq_stack_start)

.fram_a2dp      0x0000000000017000      0xf78
 *(.bss.a2dp_play)
 .bss.a2dp_play
                0x0000000000017000      0xf78 ..\..\platform\libs\libbtstack.a(a2dp_play.o)

.fram_buf       0x0000000000017000      0x4dc
 *(.buf.mp3)
 .buf.mp3       0x0000000000017000      0x406 ..\..\platform\libs\libcodecs.a(mp3_dec.o)
                0x0000000000017000                mp3_bitpool
 *(.buf.deccom)
 *fill*         0x0000000000017406        0x2 
 .buf.deccom    0x0000000000017408       0x1c ..\..\platform\libs\libcodecs.a(codecs_com.o)
                0x0000000000017408                codec_info
                0x000000000001740c                qskip
 *(.buf.fmrx.cb)
 .buf.fmrx.cb   0x0000000000017424       0x24 Output\obj\platform\functions\func_fmrx.o
                0x0000000000017424                fmrx_cb
 .buf.fmrx.cb   0x0000000000017448       0x10 ..\..\platform\libs\libplatform.a(fmrx.o)
                0x0000000000017448                fmrx_thd
                0x0000000000017450                rssi_cb
 *(.buf.sbcen)
 .buf.sbcen     0x0000000000017458       0x84 ..\..\platform\libs\libcodecs.a(sbcen_io.o)
                0x0000000000017458                sbcen_obuf
 *(.rec.wave.header)

.bss            0x0000000000010c00     0x4690
                0x0000000000010c00                __bss_start = .
 *(COMMON)
 COMMON         0x0000000000010c00        0x8 Output\obj\platform\bsp\bsp_bt.o
                0x0000000000010c00                rf_cfg
 COMMON         0x0000000000010c08        0x8 Output\obj\platform\bsp\bsp_dac.o
                0x0000000000010c08                dac_dvol_table
                0x0000000000010c0c                dac_avol_table
 COMMON         0x0000000000010c10      0x118 Output\obj\platform\bsp\bsp_eq.o
                0x0000000000010c10                eq_rx_buf
                0x0000000000010d20                eq_dbg_cb
 COMMON         0x0000000000010d28      0x11a Output\obj\platform\bsp\bsp_sys.o
                0x0000000000010d28                micl2gnd_flag
                0x0000000000010d2c                xcfg_cb
 *fill*         0x0000000000010e42        0x2 
 COMMON         0x0000000000010e44        0x2 Output\obj\platform\functions\func_aux.o
                0x0000000000010e44                f_aux
 *fill*         0x0000000000010e46        0x2 
 COMMON         0x0000000000010e48        0x7 Output\obj\platform\functions\func_bt.o
                0x0000000000010e48                f_bt
 *fill*         0x0000000000010e4f        0x1 
 COMMON         0x0000000000010e50       0x64 Output\obj\platform\functions\func_music.o
                0x0000000000010e50                fname_buf
 COMMON         0x0000000000010eb4        0x1 Output\obj\platform\functions\func_speaker.o
                0x0000000000010eb4                f_spk
 *fill*         0x0000000000010eb5        0x3 
 COMMON         0x0000000000010eb8        0x4 Output\obj\platform\functions\func_usbdev.o
                0x0000000000010eb8                f_ude
 COMMON         0x0000000000010ebc       0x20 Output\obj\platform\functions\sfunc_bt_ring.o
                0x0000000000010ebc                f_bt_ring
 COMMON         0x0000000000010edc        0xc Output\obj\platform\gui\gui.o
                0x0000000000010edc                box_cb
 COMMON         0x0000000000010ee8        0x4 Output\obj\projects\standard\plugin\plugin.o
                0x0000000000010ee8                pwrkey_detect_flag
 COMMON         0x0000000000010eec       0x58 ..\..\platform\libs\libplatform.a(audio_karaok.o)
                0x0000000000010eec                iir_coef
                0x0000000000010f24                kara_cb
 COMMON         0x0000000000010f44       0x14 ..\..\platform\libs\libplatform.a(sdadc.o)
                0x0000000000010f44                sdadc_cb
 COMMON         0x0000000000010f58        0x8 ..\..\platform\libs\libplatform.a(bt.o)
                0x0000000000010f58                bt_thread_res
                0x0000000000010f5c                bthw_soft_flag
 COMMON         0x0000000000010f60        0x8 ..\..\platform\libs\libplatform.a(bt_aec.o)
                0x0000000000010f60                temp_far_rptr
                0x0000000000010f64                temp_fifo_cnt
 COMMON         0x0000000000010f68        0xc ..\..\platform\libs\libplatform.a(bt_rec.o)
                0x0000000000010f68                bt_rec_en
                0x0000000000010f6c                bt_sco_rec_en
                0x0000000000010f70                bt_src_done_flag
 COMMON         0x0000000000010f74        0x1 ..\..\platform\libs\libplatform.a(bt_sco.o)
                0x0000000000010f74                sco_phase_en
 *fill*         0x0000000000010f75        0x3 
 COMMON         0x0000000000010f78        0xc ..\..\platform\libs\libplatform.a(main.o)
                0x0000000000010f78                sys
 COMMON         0x0000000000010f84        0x4 ..\..\platform\libs\libplatform.a(music.o)
                0x0000000000010f84                sbcdec_frame
 COMMON         0x0000000000010f88       0x24 ..\..\platform\libs\libplatform.a(stream.o)
                0x0000000000010f88                stm_cb
                0x0000000000010fa0                stm_avio
 COMMON         0x0000000000010fac       0x10 ..\..\platform\libs\libplatform.a(interrupt.o)
                0x0000000000010fac                src_isr_process
                0x0000000000010fb0                tmr5ms_cnt
                0x0000000000010fb4                tmr0_counter
                0x0000000000010fb8                ms_tick
 COMMON         0x0000000000010fbc       0x5c ..\..\platform\libs\libplatform.a(startup.o)
                0x0000000000010fbc                pmutex_irtc
                0x0000000000010fc0                pmutex_uart
                0x0000000000010fc4                psem_twshw
                0x0000000000010fc8                psem_mschw
                0x0000000000010fcc                pmq_music
                0x0000000000010fd0                pmutex_dac
                0x0000000000010fd4                pmutex_cm
                0x0000000000010fd8                psem_usb
                0x0000000000010fdc                psem_btstack
                0x0000000000010fe0                user_timer_isr_en
                0x0000000000010fe4                pmq_aupcm
                0x0000000000010fe8                psem_aubuf1
                0x0000000000010fec                pmq_btstack
                0x0000000000010ff0                psem_stm
                0x0000000000010ff4                bt_timer_isr_en
                0x0000000000010ff8                pmutex_pff
                0x0000000000010ffc                psem_src
                0x0000000000011000                psem_bthw
                0x0000000000011004                psem_plc
                0x0000000000011008                psem_sd
                0x000000000001100c                psem_aubuf
                0x0000000000011010                psem_aec
                0x0000000000011014                pmq_driver
 COMMON         0x0000000000011018       0x6c ..\..\platform\libs\libplatform.a(sd_api.o)
                0x0000000000011018                sdcfg_0
                0x0000000000011028                sdfunc_0
                0x0000000000011040                sdcb_0
                0x0000000000011078                sdfunc
                0x000000000001107c                sdcfg
                0x0000000000011080                sd_cb
 COMMON         0x0000000000011084        0x4 ..\..\platform\libs\libplatform.a(spiflash.o)
                0x0000000000011084                spi_dummy_byte
 COMMON         0x0000000000011088        0x8 ..\..\platform\libs\libplatform.a(voltage_trim.o)
                0x0000000000011088                sys_trim
 COMMON         0x0000000000011090       0x24 ..\..\platform\libs\libbtstack.a(ble_con.o)
                0x0000000000011090                hwble_env
 COMMON         0x00000000000110b4      0x698 ..\..\platform\libs\libbtstack.a(ext_plc.o)
                0x00000000000110b4                plc_buf
                0x0000000000011708                ext_plc_cb
 COMMON         0x000000000001174c      0x3c0 ..\..\platform\libs\libbtstack.a(ext_sco.o)
                0x000000000001174c                sco_hci_rx_buf
 COMMON         0x0000000000011b0c       0x24 ..\..\platform\libs\libbtstack.a(ext_tws.o)
                0x0000000000011b0c                tws_ticks_env
 COMMON         0x0000000000011b30       0x34 ..\..\platform\libs\libbtstack.a(btstack_api.o)
                0x0000000000011b30                btstack_cb
                0x0000000000011b38                btstack_st
 COMMON         0x0000000000011b64        0x4 ..\..\platform\libs\libbtstack.a(hci_transport_hcic.o)
                0x0000000000011b64                p_hci_transport
 COMMON         0x0000000000011b68        0x4 ..\..\platform\libs\libbtstack.a(hci_sco.o)
                0x0000000000011b68                sco_far_delay
 COMMON         0x0000000000011b6c      0x214 ..\..\platform\libs\libdrivers.a(diskio.o)
                0x0000000000011b6c                win_buf
                0x0000000000011d6c                diskio
                0x0000000000011d7c                dsk_cb
 COMMON         0x0000000000011d80        0xa ..\..\platform\libs\libdrivers.a(usb_device_enum.o)
                0x0000000000011d80                usb_device_qualifier
 *fill*         0x0000000000011d8a        0x2 
 COMMON         0x0000000000011d8c       0x24 ..\..\platform\libs\libdrivers.a(usb_device_ep.o)
                0x0000000000011d8c                eps
 COMMON         0x0000000000011db0      0x104 ..\..\platform\libs\libdrivers.a(usb_device_run_loop.o)
                0x0000000000011db0                epcb2_rx
                0x0000000000011dc8                ude_0
                0x0000000000011df0                lun_0
                0x0000000000011e08                epcb1_rx
                0x0000000000011e20                epcb2_tx
                0x0000000000011e38                udh_0
                0x0000000000011e40                epcb3_tx
                0x0000000000011e58                epcb1_tx
                0x0000000000011e70                uds_0
                0x0000000000011ea4                uda_0
 COMMON         0x0000000000011eb4       0x70 ..\..\platform\libs\libdrivers.a(usb_host_manage.o)
                0x0000000000011eb4                uhs_0
                0x0000000000011efc                uhe_0
 COMMON         0x0000000000011f24      0x1e4 ..\..\platform\libs\libcodecs.a(bt_sbc.o)
                0x0000000000011f24                bt_plc_buf
                0x0000000000012104                bt_sbc_flag
 COMMON         0x0000000000012108        0x4 ..\..\platform\libs\libcodecs.a(sbc_dec.o)
                0x0000000000012108                unpack_header
 *(.bss*)
 .bss           0x000000000001210c        0xc Output\obj\platform\bsp\bsp_eq.o
 .bss           0x0000000000012118       0x40 ..\..\platform\libs\libplatform.a(audio_karaok.o)
 .bss           0x0000000000012158       0x16 ..\..\platform\libs\libplatform.a(dac_dnr.o)
 *fill*         0x000000000001216e        0x2 
 .bss           0x0000000000012170      0x11c ..\..\platform\libs\libplatform.a(cm.o)
 .bss.irq_tbl   0x000000000001228c       0x60 ..\..\platform\libs\libplatform.a(interrupt.o)
                0x000000000001228c                tbl_irq_vector
                0x00000000000122e8                irq_mask
 .bss           0x00000000000122ec       0x28 ..\..\platform\libs\libplatform.a(startup.o)
 *fill*         0x0000000000012314        0x4 
 .bss           0x0000000000012318       0x50 ..\..\platform\libs\libplatform.a(lock.o)
 .bss           0x0000000000012368       0x24 ..\..\platform\libs\libbtstack.a(ext_plc.o)
 .bss           0x000000000001238c      0x5a8 ..\..\platform\libs\libbtstack.a(btstack_memory.o)
 .bss           0x0000000000012934       0x78 ..\..\platform\libs\libbtstack.a(btstack_tws.o)
 .bss           0x00000000000129ac       0x3e ..\..\platform\libs\libbtstack.a(btstack_link_key_db.o)
 *fill*         0x00000000000129ea        0x2 
 .bss           0x00000000000129ec      0x598 ..\..\platform\libs\libbtstack.a(hci.o)
 .bss           0x0000000000012f84       0x48 ..\..\platform\libs\libbtstack.a(ext_tsco.o)
 *(.sbss*)
 .sbss          0x0000000000012fcc        0x2 Output\obj\platform\bsp\bsp_key.o
 *fill*         0x0000000000012fce        0x2 
 .sbss          0x0000000000012fd0       0x10 Output\obj\platform\bsp\bsp_sys.o
 .sbss          0x0000000000012fe0        0x1 Output\obj\platform\functions\func_bt.o
 .sbss          0x0000000000012fe1        0x1 Output\obj\platform\functions\func_usbdev.o
 *fill*         0x0000000000012fe2        0x2 
 .sbss          0x0000000000012fe4        0x8 Output\obj\projects\standard\port\port_earphone.o
 .sbss          0x0000000000012fec        0x1 Output\obj\projects\standard\port\port_led.o
 *fill*         0x0000000000012fed        0x3 
 .sbss          0x0000000000012ff0        0x8 Output\obj\projects\standard\port\port_linein.o
 .sbss          0x0000000000012ff8       0x14 Output\obj\projects\standard\port\port_mute.o
 .sbss          0x000000000001300c        0x8 Output\obj\projects\standard\port\port_sd.o
 .sbss          0x0000000000013014        0xc ..\..\platform\libs\libplatform.a(audio_eq.o)
 .sbss          0x0000000000013020       0x1c ..\..\platform\libs\libplatform.a(dac.o)
 .sbss          0x000000000001303c        0x1 ..\..\platform\libs\libplatform.a(bt_aec.o)
                0x000000000001303c                aec_isr_type
 .sbss          0x000000000001303d        0x2 ..\..\platform\libs\libplatform.a(bt_alc.o)
 *fill*         0x000000000001303f        0x1 
 .sbss          0x0000000000013040        0x4 ..\..\platform\libs\libplatform.a(bt_sco.o)
                0x0000000000013040                bt_voice_cfg
 .sbss          0x0000000000013044        0x4 ..\..\platform\libs\libplatform.a(bt_wnr.o)
                0x0000000000013044                ratio
 .sbss          0x0000000000013048        0x8 ..\..\platform\libs\libplatform.a(music_res.o)
                0x000000000001304c                spiflash_ex_read
 .sbss          0x0000000000013050        0x8 ..\..\platform\libs\libplatform.a(startup.o)
 .sbss          0x0000000000013058        0x4 ..\..\platform\libs\libbtstack.a(bb.o)
 .sbss          0x000000000001305c        0x3 ..\..\platform\libs\libbtstack.a(ext_bt.o)
 *fill*         0x000000000001305f        0x1 
 .sbss          0x0000000000013060        0x8 ..\..\platform\libs\libbtstack.a(btstack_api.o)
 .sbss          0x0000000000013068        0x8 ..\..\platform\libs\libbtstack.a(btstack_hal.o)
 .sbss          0x0000000000013070        0x8 ..\..\platform\libs\libbtstack.a(btstack_main.o)
 .sbss          0x0000000000013078        0x4 ..\..\platform\libs\libbtstack.a(hci_transport_hcic.o)
 .sbss          0x000000000001307c       0x18 ..\..\platform\libs\libbtstack.a(btstack_memory.o)
 .sbss          0x0000000000013094        0x8 ..\..\platform\libs\libbtstack.a(btstack_tws.o)
 .sbss          0x000000000001309c        0x4 ..\..\platform\libs\libbtstack.a(a2dp_play.o)
 .sbss          0x00000000000130a0       0x14 ..\..\platform\libs\libbtstack.a(hfp_hf.o)
 .sbss          0x00000000000130b4       0x12 ..\..\platform\libs\libbtstack.a(rfcomm.o)
 *fill*         0x00000000000130c6        0x2 
 .sbss          0x00000000000130c8        0x4 ..\..\platform\libs\libbtstack.a(sdp_server.o)
 .sbss          0x00000000000130cc        0x4 ..\..\platform\libs\libbtstack.a(hci.o)
 .sbss          0x00000000000130d0        0x2 ..\..\platform\libs\libdrivers.a(sd.o)
                0x00000000000130d1                sd_gpio_init_type
 *fill*         0x00000000000130d2        0x2 
 .sbss          0x00000000000130d4       0x10 ..\..\platform\libs\libdrivers.a(pff.o)
 .sbss          0x00000000000130e4        0x8 ..\..\platform\libs\libcodecs.a(bt_sbc.o)
 *(.buf*)
 .buf.aux       0x00000000000130ec        0x1 Output\obj\platform\bsp\bsp_aux.o
 *fill*         0x00000000000130ed        0x3 
 .buf.ir.cb     0x00000000000130f0        0x8 Output\obj\platform\bsp\bsp_ir.o
                0x00000000000130f0                ir_cb
 .buf.key.cb    0x00000000000130f8       0x14 Output\obj\platform\bsp\bsp_key.o
                0x00000000000130f8                adc_cb
 .buf.led       0x000000000001310c       0x14 Output\obj\platform\bsp\bsp_led.o
                0x000000000001310c                led_cb
                0x0000000000013114                port2led_sta
                0x0000000000013118                led_bak
 .buf.bsp.sys_cb
                0x0000000000013120       0x40 Output\obj\platform\bsp\bsp_sys.o
                0x0000000000013120                sys_cb
 .buf.func_cb   0x0000000000013160        0xc Output\obj\platform\functions\func.o
                0x0000000000013160                func_cb
 .buf.rtc.clock
                0x000000000001316c        0xa Output\obj\platform\functions\func_clock.o
                0x000000000001316c                rtc_tm
                0x0000000000013174                tm_cb
 *fill*         0x0000000000013176        0x2 
 .buf.func.music
                0x0000000000013178       0x28 Output\obj\platform\functions\func_music.o
                0x0000000000013178                f_msc
 .buf.led       0x00000000000131a0       0x28 Output\obj\projects\standard\port\port_led.o
                0x00000000000131a0                bled_gpio
                0x00000000000131a8                bled_func
                0x00000000000131b4                rled_gpio
                0x00000000000131bc                rled_func
 .buf.dac       0x00000000000131c8       0x18 ..\..\platform\libs\libplatform.a(dac.o)
                0x00000000000131c8                dac_cb
 .buf.device.cb
                0x00000000000131e0       0x18 ..\..\platform\libs\libplatform.a(device.o)
                0x00000000000131e0                dev_cb
 .buf.music.cb  0x00000000000131f8        0x8 ..\..\platform\libs\libplatform.a(music.o)
                0x00000000000131f8                music_cb
 .buf.encrypt   0x0000000000013200        0x4 ..\..\platform\libs\libplatform.a(music_decrypt.o)
                0x0000000000013200                msc_encrypt_cb
 .buf.spires    0x0000000000013204       0x10 ..\..\platform\libs\libplatform.a(music_res.o)
                0x0000000000013204                spires_cb
 .buf.key.cb    0x0000000000013214        0xa ..\..\platform\libs\libplatform.a(key.o)
 *fill*         0x000000000001321e        0x2 
 .buf.msg.queue
                0x0000000000013220       0x40 ..\..\platform\libs\libplatform.a(sys_msg.o)
                0x0000000000013220                msg_cb
 .buf.pff       0x0000000000013260      0x278 ..\..\platform\libs\libdrivers.a(pff_fat.o)
                0x0000000000013260                fp_cb
                0x000000000001326c                dpath_cb
                0x0000000000013280                fat_fs
                0x00000000000132c4                file_info
                0x00000000000132f8                file_dir
                0x0000000000013310                fclst
                0x0000000000013358                pf_apiinfo
                0x0000000000013364                dp_cb
                0x0000000000013378                fscan_cb
                0x0000000000013384                fat_file
                0x00000000000133a4                fp_item_buf
 .buf.usb.ctrl  0x00000000000134d8       0x40 ..\..\platform\libs\libdrivers.a(usb_comm.o)
                0x00000000000134d8                ep0_buf
 .buf.usbchk.cb
                0x0000000000013518        0x2 ..\..\platform\libs\libdrivers.a(usb_detect.o)
                0x0000000000013518                usbchk_cb
 *fill*         0x000000000001351a        0x2 
 .buf.usb.hid   0x000000000001351c        0x8 ..\..\platform\libs\libdrivers.a(usb_device_run_loop.o)
                0x000000000001351c                ep3_buf
 .buf.usb.isoc  0x0000000000013524      0x140 ..\..\platform\libs\libdrivers.a(usb_device_run_loop.o)
                0x0000000000013524                ep2_isoc
 .buf.avio      0x0000000000013664      0x22c ..\..\platform\libs\libcodecs.a(aviobuf.o)
                0x0000000000013664                avio_buf
 *(.sdadc_buf)
 .sdadc_buf     0x0000000000013890      0x400 ..\..\platform\libs\libplatform.a(sdadc.o)
                0x0000000000013890                sdadc_buf
 *(.dac_obuf)
 .dac_obuf      0x0000000000013c90     0x1600 ..\..\platform\libs\libplatform.a(dac.o)
                0x0000000000013c90                dac_obuf
                0x0000000000014e90                dac_src1_obuf
                0x0000000000015290                __bss_end = .
                0x0000000000004690                __bss_size = (__bss_end - __bss_start)

.heap           0x0000000000028800     0x3000
 *(.mem_heap)
 .mem_heap      0x0000000000028800     0x3000 ..\..\platform\libs\libplatform.a(startup.o)
                0x0000000000028800                mem_heap

.bram           0x0000000000018000     0x5e9c
 *(.btmem.bthw)
 .btmem.bthw    0x0000000000018000     0x2bd2 ..\..\platform\libs\libbtstack.a(bb.o)
                0x0000000000018000                bt_mem_buf
 *(.btmem*)
 *fill*         0x000000000001abd2        0x2 
 .btmem.bb.buf  0x000000000001abd4     0x1530 ..\..\platform\libs\libbtstack.a(bb.o)
 .btmem.bb.sniff
                0x000000000001c104       0x34 ..\..\platform\libs\libbtstack.a(bb.o)
 .btmem.bb.ble  0x000000000001c138       0x18 ..\..\platform\libs\libbtstack.a(ble_evt.o)
                0x000000000001c138                ble_evt_env
 .btmem.bb      0x000000000001c150       0x20 ..\..\platform\libs\libbtstack.a(ext_acl.o)
                0x000000000001c150                p_acl_conn
                0x000000000001c158                acl_conn_ext
 .btmem.bb.acl  0x000000000001c170        0xc ..\..\platform\libs\libbtstack.a(ext_acl.o)
                0x000000000001c170                p_acl_dlink
                0x000000000001c178                p_acl_buf
 .btmem.bb.afh  0x000000000001c17c      0x232 ..\..\platform\libs\libbtstack.a(ext_afh.o)
                0x000000000001c17c                lc_afh_map
                0x000000000001c1b0                lc_afh
 *fill*         0x000000000001c3ae        0x2 
 .btmem.bb      0x000000000001c3b0       0x88 ..\..\platform\libs\libbtstack.a(ext_bt.o)
                0x000000000001c3b0                hwbt_env
 .btmem.bb.acl  0x000000000001c438       0x60 ..\..\platform\libs\libbtstack.a(ext_init.o)
 .btmem.bb.acl_buf
                0x000000000001c498       0x4c ..\..\platform\libs\libbtstack.a(ext_init.o)
 .btmem.bb.conn
                0x000000000001c4e4      0x190 ..\..\platform\libs\libbtstack.a(ext_init.o)
 .btmem.bb.rf   0x000000000001c674        0x2 ..\..\platform\libs\libbtstack.a(ext_init.o)
                0x000000000001c674                bt_edr_enabled
                0x000000000001c675                bt_con_pause
 *fill*         0x000000000001c676        0x2 
 .btmem.bb.sco  0x000000000001c678       0x48 ..\..\platform\libs\libbtstack.a(ext_init.o)
 .btmem.bb.scan
                0x000000000001c6c0       0x68 ..\..\platform\libs\libbtstack.a(ext_scan.o)
                0x000000000001c6c0                lc_scan_env
 .btmem.bb.sco  0x000000000001c728      0x388 ..\..\platform\libs\libbtstack.a(ext_sco.o)
                0x000000000001caa8                p_sco_conn
 .btmem.bb.lc   0x000000000001cab0      0x3a8 ..\..\platform\libs\libbtstack.a(lc.o)
                0x000000000001cab0                lc_env
 .btmem.bb.lc   0x000000000001ce58        0x2 ..\..\platform\libs\libbtstack.a(lc_proc.o)
                0x000000000001ce58                lc_state
 *fill*         0x000000000001ce5a        0x2 
 .btmem.bb.lc_sco
                0x000000000001ce5c       0x12 ..\..\platform\libs\libbtstack.a(lc_sco.o)
 *fill*         0x000000000001ce6e        0x2 
 .btmem.bb.lm   0x000000000001ce70      0x228 ..\..\platform\libs\libbtstack.a(lm.o)
                0x000000000001ce70                lm_env
 .btmem.bb.lc   0x000000000001d098        0x1 ..\..\platform\libs\libbtstack.a(lm_proc.o)
                0x000000000001d098                lm_state
 *fill*         0x000000000001d099        0x3 
 .btmem.bb.lm_sco
                0x000000000001d09c       0x8f ..\..\platform\libs\libbtstack.a(lm_sco.o)
 *fill*         0x000000000001d12b        0x1 
 .btmem.bb.lm_sniff
                0x000000000001d12c       0x20 ..\..\platform\libs\libbtstack.a(lm_sniff.o)
 .btmem.bb.lm_sp
                0x000000000001d14c      0x4d0 ..\..\platform\libs\libbtstack.a(lm_sp.o)
 .btmem.bb.lm   0x000000000001d61c       0xb8 ..\..\platform\libs\libbtstack.a(lm_util.o)
                0x000000000001d680                lm_util_env
 .btmem.bb.util
                0x000000000001d6d4       0x50 ..\..\platform\libs\libbtstack.a(bb_buf.o)
                0x000000000001d6d4                p_le_buf
                0x000000000001d6d8                p_bt_buf
                0x000000000001d6dc                le_tx_node
 .btmem.bb.util
                0x000000000001d724       0x18 ..\..\platform\libs\libbtstack.a(bb_utils.o)
 .btmem.bb.hcic
                0x000000000001d73c       0x5c ..\..\platform\libs\libbtstack.a(hcic.o)
                0x000000000001d73c                hci_env
 .btmem.bb.hcic
                0x000000000001d798        0x1 ..\..\platform\libs\libbtstack.a(hcic_proc.o)
                0x000000000001d798                hci_state
 *fill*         0x000000000001d799        0x3 
 .btmem.bb.test
                0x000000000001d79c        0xa ..\..\platform\libs\libbtstack.a(vs.o)
                0x000000000001d79c                vs_fcc_env
 *fill*         0x000000000001d7a6        0x2 
 .btmem.bb.vs   0x000000000001d7a8        0x1 ..\..\platform\libs\libbtstack.a(vs_proc.o)
                0x000000000001d7a8                vs_state
 *fill*         0x000000000001d7a9        0x3 
 .btmem.hci.transport
                0x000000000001d7ac       0x20 ..\..\platform\libs\libbtstack.a(hci_transport_hcic.o)
 .btmem.stack.linkctrl
                0x000000000001d7cc       0x49 ..\..\platform\libs\libbtstack.a(btstack_link_ctrl.o)
 *fill*         0x000000000001d815        0x3 
 .btmem.stack   0x000000000001d818       0x14 ..\..\platform\libs\libbtstack.a(btstack_run_loop.o)
 .btmem.stack.util
                0x000000000001d82c       0x12 ..\..\platform\libs\libbtstack.a(btstack_util.o)
 *fill*         0x000000000001d83e        0x2 
 .btmem.stack.a2dp
                0x000000000001d840      0x146 ..\..\platform\libs\libbtstack.a(a2dp.o)
                0x000000000001d844                a2dp_media_index
                0x000000000001d978                a2dp_media_l2cap
                0x000000000001d984                a2dp_media_handle
 *fill*         0x000000000001d986        0x2 
 .btmem.stack.a2dp
                0x000000000001d988       0x29 ..\..\platform\libs\libbtstack.a(a2dp_send.o)
                0x000000000001d9b0                avdtp_tx_enable
 *fill*         0x000000000001d9b1        0x3 
 .btmem.stack.a2dp
                0x000000000001d9b4       0x44 ..\..\platform\libs\libbtstack.a(avdtp.o)
 .btmem.stack.hfp
                0x000000000001d9f8      0x190 ..\..\platform\libs\libbtstack.a(hfp.o)
                0x000000000001db74                hfp_index
 .btmem.stack.hid
                0x000000000001db88       0x38 ..\..\platform\libs\libbtstack.a(hid_device.o)
 .btmem.hid.usage
                0x000000000001dbc0       0x10 ..\..\platform\libs\libbtstack.a(hid_usage.o)
                0x000000000001dbc0                hrpt_cb
                0x000000000001dbc8                hid_report_buf
 .btmem.stack.sdp
                0x000000000001dbd0       0xba ..\..\platform\libs\libbtstack.a(sdp_client.o)
 *fill*         0x000000000001dc8a        0x2 
 .btmem.stack.sdp
                0x000000000001dc8c      0x10c ..\..\platform\libs\libbtstack.a(sdp_server.o)
 .btmem.stack.spp
                0x000000000001dd98       0x54 ..\..\platform\libs\libbtstack.a(spp.o)
 .btmem.stack.l2cap
                0x000000000001ddec       0xb0 ..\..\platform\libs\libbtstack.a(l2cap.o)

.bram_echo
 *(.bram_echo)

.cram_flac
 *(.flac_decoded_buf)

.cram_upd       0x000000000002b800      0x5d8
 *(.upd_buf*)
 .upd_buf       0x000000000002b800      0x5b0 ..\..\platform\libs\libplatform.a(update.o)
                0x000000000002b800                run_ram_addr
                0x000000000002b804                run_driver_length
                0x000000000002bb08                upd_cb
                0x000000000002bd80                upd_head
 .upd_buf       0x000000000002bdb0       0x10 ..\..\platform\libs\libplatform.a(bt_ota.o)
 .upd_buf.ota   0x000000000002bdc0       0x18 ..\..\platform\libs\libbtstack.a(l2cap_test.o)
                0x000000000002bdc0                vd_test
 *(.fcc_buf*)

.cram_wma
 *(.wma_coefs_buf)
 *(.wma_ctx_buf)
 *(.wma_wincb_buf)

.cram_mp3enc
 *(.mp3_enc_buf)
 *(.recenc.obuf)

.cram_mp2enc    0x000000000002b800     0x2400
 *(.l2enc_sb_buf)
                0x0000000000002400                . = 0x2400
 *fill*         0x000000000002b800     0x2400 

.cram_echo
 *(.cram_echo)

.cram_fmrx      0x000000000002b800     0x4800
 *(.fmrx_pcm_buf)
 .fmrx_pcm_buf  0x000000000002b800     0x4800 ..\..\platform\libs\libplatform.a(fmrx.o)
                0x000000000002b800                fmrx_pcm

.aec_ram        0x0000000000050000     0x3554
 *(.aec_buf)
 .aec_buf       0x0000000000050000     0x3554 ..\..\platform\libs\libplatform.a(bt_aec.o)
                0x0000000000050000                aec_ram

.echo_ram
 *(.echo_buf)

.sbc_cache      0x0000000000050000     0x4000
 *(.sbc_cache_buf)
 .sbc_cache_buf
                0x0000000000050000     0x4000 ..\..\platform\libs\libcodecs.a(bt_sbc.o)
                0x0000000000050000                sbc_inbuf

.aram_music     0x0000000000050000     0x3544
 *(.mp3buf.dec)
 .mp3buf.dec    0x0000000000050000     0x1000 ..\..\platform\libs\libplatform.a(stream.o)
                0x0000000000050000                stream_cache
 .mp3buf.dec    0x0000000000051000      0x1dc ..\..\platform\libs\libcodecs.a(mp3_dec.o)
                0x0000000000051000                mp3_frame
                0x00000000000511b0                mp3_ctx
 .mp3buf.dec    0x00000000000511dc      0x99c ..\..\platform\libs\libcodecs.a(layer3.o)
                0x00000000000511dc                xr_tmp
                0x0000000000051adc                exp_tmp
 *(.mp3_id3_buf)
 *(.lrc_buf*)
 *(.pff_buf*)
 .pff_buf.tempbuf
                0x0000000000051b78     0x18f0 ..\..\platform\libs\libdrivers.a(pff_fat.o)
 .pff_buf.fat2  0x0000000000053468       0x78 ..\..\platform\libs\libdrivers.a(pff_fat2.o)
                0x0000000000053468                t_fno
                0x000000000005349c                t_fdir
                0x00000000000534b4                t_apiinfo
                0x00000000000534c0                t_file
 .pff_buf.lfn   0x00000000000534e0       0x64 ..\..\platform\libs\libdrivers.a(pff.o)
                0x00000000000534e0                pff_lfn
 *(.fmrx_cb_buf)
 *(.mp3enbuf.cb)

.dram_mp3       0x0000000000054000     0x3000
 *(.mp3_decram_buf)
 .mp3_decram_buf
                0x0000000000054000     0x2c38 ..\..\platform\libs\libcodecs.a(layer3.o)
                0x0000000000054000                mp3ram
                0x0000000000003000                . = 0x3000
 *fill*         0x0000000000056c38      0x3c8 

.dram_ape       0x0000000000054000     0x3000
 *(.apebuf.cb)
 *(.apebuf.filter)
 *(.apebuf.decode)
 *(.apebuf.seektbl)
                0x0000000000003000                . = 0x3000
 *fill*         0x0000000000054000     0x3000 

.dram_wma       0x0000000000054000     0x3000
 *(.wmabuf*)
                0x0000000000003000                . = 0x3000
 *fill*         0x0000000000054000     0x3000 

.dram_flac      0x0000000000054000     0x3000
 *(.flacbuf*)
 *(.wavbuf.dec)
 .wavbuf.dec    0x0000000000054000       0x9c ..\..\platform\libs\libcodecs.a(wavdec.o)
                0x0000000000054000                wav_ctx
                0x000000000005407c                adpcm_buf
                0x0000000000003000                . = 0x3000
 *fill*         0x000000000005409c     0x2f64 

.dram_sco       0x0000000000054000     0x3000
 *(.sbc_decram_buf)
 .sbc_decram_buf
                0x0000000000054000      0xd38 ..\..\platform\libs\libcodecs.a(sbc_dec.o)
                0x0000000000054000                sbchw_cb
 *(.sbcbuf.dec)
 .sbcbuf.dec    0x0000000000054d38      0x124 ..\..\platform\libs\libcodecs.a(bt_sbc.o)
                0x0000000000054d38                sbc_cache
                0x0000000000054d48                sbc_dec
 .sbcbuf.dec    0x0000000000054e5c      0x584 ..\..\platform\libs\libcodecs.a(sbc_dec.o)
                0x0000000000054e5c                unpack_cb
                0x0000000000054f6c                sbcdec_priv
                0x00000000000553d0                bits
 *(.sco_cache)
 .sco_cache     0x00000000000553e0     0x17e8 ..\..\platform\libs\libbtstack.a(hci_sco.o)
                0x00000000000553e0                sco_far_pcm
                0x0000000000002f80                . = 0x2f80
 *fill*         0x0000000000056bc8      0x3b8 
 *(.sco_data)
 .sco_data      0x0000000000056f80       0x10 Output\obj\platform\functions\sfunc_bt_call.o
 .sco_data      0x0000000000056f90        0xc ..\..\platform\libs\libplatform.a(bt_aec.o)
 .sco_data      0x0000000000056f9c        0xc ..\..\platform\libs\libplatform.a(bt_alc.o)
 .sco_data      0x0000000000056fa8       0x18 ..\..\platform\libs\libbtstack.a(hci_sco.o)
                0x0000000000056fa8                sco_far_len
                0x0000000000056fac                sco_far_wptr
                0x0000000000056fb0                sco_far_rptr
                0x0000000000056fb4                sco_far_end
                0x0000000000056fb8                sco_near_cb
                0x0000000000003000                . = 0x3000
 *fill*         0x0000000000056fc0       0x40 

.dram_sco_2     0x0000000000054000     0x3000
 *(.sco_cache_2)
                0x0000000000002f80                . = 0x2f80
 *fill*         0x0000000000054000     0x2f80 
                0x0000000000003000                . = 0x3000
 *fill*         0x0000000000056f80       0x80 

.dram_rec       0x0000000000054000     0x3000
 *(.rec.sco)
                0x0000000000001400                . = 0x1400
 *fill*         0x0000000000054000     0x1400 
 *(.recbuf.cb)
 *(.rec.obuf)
 *(.mp3enbuf*)
 *(.l2enc_smr_buf)
                0x0000000000003000                . = 0x3000
 *fill*         0x0000000000055400     0x1c00 

.dram_usb       0x0000000000054000     0x3000
 *(.usb.device.desc.buf)
 .usb.device.desc.buf
                0x0000000000054000      0x400 ..\..\platform\libs\libdrivers.a(usb_device_run_loop.o)
                0x0000000000054000                cfg_desc_buf
 *(.ude.aubuf)
 .ude.aubuf     0x0000000000054400      0x8d4 ..\..\platform\libs\libdrivers.a(usb_device_audio.o)
                0x0000000000054400                aumic_cb
                0x0000000000054414                ude_aubuf
                0x00000000000544d4                ude_micbuf
                0x0000000000001400                . = 0x1400
 *fill*         0x0000000000054cd4      0x72c 
                0x0000000000003000                . = 0x3000
 *fill*         0x0000000000055400     0x1c00 

.dram_spf       0x0000000000054000     0x3000
 *(.spf_buf)
                0x0000000000001400                . = 0x1400
 *fill*         0x0000000000054000     0x1400 
                0x0000000000003000                . = 0x3000
 *fill*         0x0000000000055400     0x1c00 

.eram_mp3enc    0x0000000000057000      0xa00
 *(.mp3_enc_hwbuf)
                0x0000000000000a00                . = 0xa00
 *fill*         0x0000000000057000      0xa00 

.eram_mp2enc    0x0000000000057000      0xa00
 *(.l2enc.buf*)
                0x0000000000000a00                . = 0xa00
 *fill*         0x0000000000057000      0xa00 

.eram_adpcmenc  0x0000000000057000      0xa00
 *(.adpcmenc.buf)
                0x0000000000000a00                . = 0xa00
 *fill*         0x0000000000057000      0xa00 

.eram_wavres    0x0000000000057000      0xa00
 *(.wavres.buf)
 .wavres.buf    0x0000000000057000      0x208 ..\..\platform\libs\libplatform.a(music_res.o)
                0x0000000000057000                wavres_cb
                0x0000000000000a00                . = 0xa00
 *fill*         0x0000000000057208      0x7f8 

.fram_mav       0x0000000000017000     0x1000
                0x0000000000000200                . = 0x200
 *fill*         0x0000000000017000      0x200 
 *(.mav*)
 .mav.spf       0x0000000000017200      0xe00 ..\..\platform\libs\libplatform.a(music.o)
                0x0000000000017200                spf_buf
                0x0000000000053c00                __bank_size = SIZEOF (.flash)
                0x0000000010002200                __comm_lma = LOADADDR (.comm)
                0x0000000000006a00                __comm_size = SIZEOF (.comm)
                0x0000000010000200                __bcomm_lma = LOADADDR (.bcomm)
                0x0000000000002000                __bcomm_size = SIZEOF (.bcomm)
LOAD ..\..\platform\libs\libplatform.a
LOAD ..\..\platform\libs\libbtstack.a
LOAD ..\..\platform\libs\libdrivers.a
LOAD ..\..\platform\libs\libcodecs.a
OUTPUT(Output\bin\app.rv32 elf32-littleriscv)

.comment        0x0000000000000000       0x11
 .comment       0x0000000000000000       0x11 Output\obj\platform\bsp\bsp_audio.o
                                         0x12 (size before relaxing)
 .comment       0x0000000000000011       0x12 Output\obj\platform\bsp\bsp_aux.o
 .comment       0x0000000000000011       0x12 Output\obj\platform\bsp\bsp_bt.o
 .comment       0x0000000000000011       0x12 Output\obj\platform\bsp\bsp_cm.o
 .comment       0x0000000000000011       0x12 Output\obj\platform\bsp\bsp_dac.o
 .comment       0x0000000000000011       0x12 Output\obj\platform\bsp\bsp_eq.o
 .comment       0x0000000000000011       0x12 Output\obj\platform\bsp\bsp_fmrx.o
 .comment       0x0000000000000011       0x12 Output\obj\platform\bsp\bsp_fs.o
 .comment       0x0000000000000011       0x12 Output\obj\platform\bsp\bsp_iap.o
 .comment       0x0000000000000011       0x12 Output\obj\platform\bsp\bsp_ir.o
 .comment       0x0000000000000011       0x12 Output\obj\platform\bsp\bsp_key.o
 .comment       0x0000000000000011       0x12 Output\obj\platform\bsp\bsp_led.o
 .comment       0x0000000000000011       0x12 Output\obj\platform\bsp\bsp_music.o
 .comment       0x0000000000000011       0x12 Output\obj\platform\bsp\bsp_param.o
 .comment       0x0000000000000011       0x12 Output\obj\platform\bsp\bsp_spp.o
 .comment       0x0000000000000011       0x12 Output\obj\platform\bsp\bsp_sys.o
 .comment       0x0000000000000011       0x12 Output\obj\platform\functions\func.o
 .comment       0x0000000000000011       0x12 Output\obj\platform\functions\func_aux.o
 .comment       0x0000000000000011       0x12 Output\obj\platform\functions\func_bt.o
 .comment       0x0000000000000011       0x12 Output\obj\platform\functions\func_bt_hid.o
 .comment       0x0000000000000011       0x12 Output\obj\platform\functions\func_clock.o
 .comment       0x0000000000000011       0x12 Output\obj\platform\functions\func_fmrx.o
 .comment       0x0000000000000011       0x12 Output\obj\platform\functions\func_lowpwr.o
 .comment       0x0000000000000011       0x12 Output\obj\platform\functions\func_music.o
 .comment       0x0000000000000011       0x12 Output\obj\platform\functions\func_speaker.o
 .comment       0x0000000000000011       0x12 Output\obj\platform\functions\func_update.o
 .comment       0x0000000000000011       0x12 Output\obj\platform\functions\func_usbdev.o
 .comment       0x0000000000000011       0x12 Output\obj\platform\functions\sfunc_bt_call.o
 .comment       0x0000000000000011       0x12 Output\obj\platform\functions\sfunc_bt_ota.o
 .comment       0x0000000000000011       0x12 Output\obj\platform\functions\sfunc_bt_ring.o
 .comment       0x0000000000000011       0x12 Output\obj\platform\functions\sfunc_record.o
 .comment       0x0000000000000011       0x12 Output\obj\platform\gui\gui.o
 .comment       0x0000000000000011       0x12 Output\obj\platform\libs\strong_symbol.o
 .comment       0x0000000000000011       0x12 Output\obj\projects\standard\config.o
 .comment       0x0000000000000011       0x12 Output\obj\projects\standard\main.o
 .comment       0x0000000000000011       0x12 Output\obj\projects\standard\message\msg_aux.o
 .comment       0x0000000000000011       0x12 Output\obj\projects\standard\message\msg_bt.o
 .comment       0x0000000000000011       0x12 Output\obj\projects\standard\message\msg_clock.o
 .comment       0x0000000000000011       0x12 Output\obj\projects\standard\message\msg_fmrx.o
 .comment       0x0000000000000011       0x12 Output\obj\projects\standard\message\msg_music.o
 .comment       0x0000000000000011       0x12 Output\obj\projects\standard\message\msg_speaker.o
 .comment       0x0000000000000011       0x12 Output\obj\projects\standard\message\msg_usbdev.o
 .comment       0x0000000000000011       0x12 Output\obj\projects\standard\plugin\eq_table.o
 .comment       0x0000000000000011       0x12 Output\obj\projects\standard\plugin\plugin.o
 .comment       0x0000000000000011       0x12 Output\obj\projects\standard\port\port_earphone.o
 .comment       0x0000000000000011       0x12 Output\obj\projects\standard\port\port_ir.o
 .comment       0x0000000000000011       0x12 Output\obj\projects\standard\port\port_key.o
 .comment       0x0000000000000011       0x12 Output\obj\projects\standard\port\port_led.o
 .comment       0x0000000000000011       0x12 Output\obj\projects\standard\port\port_linein.o
 .comment       0x0000000000000011       0x12 Output\obj\projects\standard\port\port_mute.o
 .comment       0x0000000000000011       0x12 Output\obj\projects\standard\port\port_sd.o
 .comment       0x0000000000000011       0x12 Output\obj\projects\standard\port\port_sd1.o
 .comment       0x0000000000000011       0x12 Output\obj\projects\standard\port\port_update.o
 .comment       0x0000000000000011       0x12 ..\..\platform\libs\libplatform.a(audio.o)
 .comment       0x0000000000000011       0x12 ..\..\platform\libs\libplatform.a(audio_eq.o)
 .comment       0x0000000000000011       0x12 ..\..\platform\libs\libplatform.a(audio_karaok.o)
 .comment       0x0000000000000011       0x12 ..\..\platform\libs\libplatform.a(dac.o)
 .comment       0x0000000000000011       0x12 ..\..\platform\libs\libplatform.a(dac_dnr.o)
 .comment       0x0000000000000011       0x12 ..\..\platform\libs\libplatform.a(sdadc.o)
 .comment       0x0000000000000011       0x12 ..\..\platform\libs\libplatform.a(bt.o)
 .comment       0x0000000000000011       0x12 ..\..\platform\libs\libplatform.a(bt_aec.o)
 .comment       0x0000000000000011       0x12 ..\..\platform\libs\libplatform.a(bt_alc.o)
 .comment       0x0000000000000011       0x12 ..\..\platform\libs\libplatform.a(bt_rec.o)
 .comment       0x0000000000000011       0x12 ..\..\platform\libs\libplatform.a(bt_sco.o)
 .comment       0x0000000000000011       0x12 ..\..\platform\libs\libplatform.a(bt_wnr.o)
 .comment       0x0000000000000011       0x12 ..\..\platform\libs\libplatform.a(cm.o)
 .comment       0x0000000000000011       0x12 ..\..\platform\libs\libplatform.a(os_flash.o)
 .comment       0x0000000000000011       0x12 ..\..\platform\libs\libplatform.a(xcfg.o)
 .comment       0x0000000000000011       0x12 ..\..\platform\libs\libplatform.a(device.o)
 .comment       0x0000000000000011       0x12 ..\..\platform\libs\libplatform.a(fmrx.o)
 .comment       0x0000000000000011       0x12 ..\..\platform\libs\libplatform.a(fmrx_ang.o)
 .comment       0x0000000000000011       0x12 ..\..\platform\libs\libplatform.a(main.o)
 .comment       0x0000000000000011       0x12 ..\..\platform\libs\libplatform.a(music.o)
 .comment       0x0000000000000011       0x12 ..\..\platform\libs\libplatform.a(music_decrypt.o)
 .comment       0x0000000000000011       0x12 ..\..\platform\libs\libplatform.a(music_res.o)
 .comment       0x0000000000000011       0x12 ..\..\platform\libs\libplatform.a(stream.o)
 .comment       0x0000000000000011       0x12 ..\..\platform\libs\libplatform.a(interrupt.o)
 .comment       0x0000000000000011       0x12 ..\..\platform\libs\libplatform.a(startup.o)
 .comment       0x0000000000000011       0x12 ..\..\platform\libs\libplatform.a(sys_hook.o)
 .comment       0x0000000000000011       0x12 ..\..\platform\libs\libplatform.a(rtc.o)
 .comment       0x0000000000000011       0x12 ..\..\platform\libs\libplatform.a(rtc_time.o)
 .comment       0x0000000000000011       0x12 ..\..\platform\libs\libplatform.a(sd_api.o)
 .comment       0x0000000000000011       0x12 ..\..\platform\libs\libplatform.a(spiflash.o)
 .comment       0x0000000000000011       0x12 ..\..\platform\libs\libplatform.a(debug.o)
 .comment       0x0000000000000011       0x12 ..\..\platform\libs\libplatform.a(gpio.o)
 .comment       0x0000000000000011       0x12 ..\..\platform\libs\libplatform.a(key.o)
 .comment       0x0000000000000011       0x12 ..\..\platform\libs\libplatform.a(lock.o)
 .comment       0x0000000000000011       0x12 ..\..\platform\libs\libplatform.a(power.o)
 .comment       0x0000000000000011       0x12 ..\..\platform\libs\libplatform.a(saradc.o)
 .comment       0x0000000000000011       0x12 ..\..\platform\libs\libplatform.a(sys.o)
 .comment       0x0000000000000011       0x12 ..\..\platform\libs\libplatform.a(sys_clk.o)
 .comment       0x0000000000000011       0x12 ..\..\platform\libs\libplatform.a(sys_msg.o)
 .comment       0x0000000000000011       0x12 ..\..\platform\libs\libplatform.a(update.o)
 .comment       0x0000000000000011       0x12 ..\..\platform\libs\libplatform.a(voltage_trim.o)
 .comment       0x0000000000000011       0x12 ..\..\platform\libs\libplatform.a(weak_symbol.o)
 .comment       0x0000000000000011       0x12 ..\..\platform\libs\libplatform.a(thread_driver.o)
 .comment       0x0000000000000011       0x12 ..\..\platform\libs\libplatform.a(audio_pcm.o)
 .comment       0x0000000000000011       0x12 ..\..\platform\libs\libplatform.a(bt_ota.o)
 .comment       0x0000000000000011       0x12 ..\..\platform\libs\libbtstack.a(bb.o)
 .comment       0x0000000000000011       0x12 ..\..\platform\libs\libbtstack.a(bb_rf.o)
 .comment       0x0000000000000011       0x12 ..\..\platform\libs\libbtstack.a(ble.o)
 .comment       0x0000000000000011       0x12 ..\..\platform\libs\libbtstack.a(ble_con.o)
 .comment       0x0000000000000011       0x12 ..\..\platform\libs\libbtstack.a(ble_evt.o)
 .comment       0x0000000000000011       0x12 ..\..\platform\libs\libbtstack.a(ble_lc.o)
 .comment       0x0000000000000011       0x12 ..\..\platform\libs\libbtstack.a(ble_lm.o)
 .comment       0x0000000000000011       0x12 ..\..\platform\libs\libbtstack.a(ble_sleep.o)
 .comment       0x0000000000000011       0x12 ..\..\platform\libs\libbtstack.a(bt21.o)
 .comment       0x0000000000000011       0x12 ..\..\platform\libs\libbtstack.a(ext_acl.o)
 .comment       0x0000000000000011       0x12 ..\..\platform\libs\libbtstack.a(ext_afh.o)
 .comment       0x0000000000000011       0x12 ..\..\platform\libs\libbtstack.a(ext_bt.o)
 .comment       0x0000000000000011       0x12 ..\..\platform\libs\libbtstack.a(ext_flush.o)
 .comment       0x0000000000000011       0x12 ..\..\platform\libs\libbtstack.a(ext_init.o)
 .comment       0x0000000000000011       0x12 ..\..\platform\libs\libbtstack.a(ext_plc.o)
 .comment       0x0000000000000011       0x12 ..\..\platform\libs\libbtstack.a(ext_scan.o)
 .comment       0x0000000000000011       0x12 ..\..\platform\libs\libbtstack.a(ext_sco.o)
 .comment       0x0000000000000011       0x12 ..\..\platform\libs\libbtstack.a(ext_tws.o)
 .comment       0x0000000000000011       0x12 ..\..\platform\libs\libbtstack.a(ext_util.o)
 .comment       0x0000000000000011       0x12 ..\..\platform\libs\libbtstack.a(lc.o)
 .comment       0x0000000000000011       0x12 ..\..\platform\libs\libbtstack.a(lc_acl.o)
 .comment       0x0000000000000011       0x12 ..\..\platform\libs\libbtstack.a(lc_afh.o)
 .comment       0x0000000000000011       0x12 ..\..\platform\libs\libbtstack.a(lc_cqddr.o)
 .comment       0x0000000000000011       0x12 ..\..\platform\libs\libbtstack.a(lc_lmppdu.o)
 .comment       0x0000000000000011       0x12 ..\..\platform\libs\libbtstack.a(lc_proc.o)
 .comment       0x0000000000000011       0x12 ..\..\platform\libs\libbtstack.a(lc_pwrctrl.o)
 .comment       0x0000000000000011       0x12 ..\..\platform\libs\libbtstack.a(lc_sco.o)
 .comment       0x0000000000000011       0x12 ..\..\platform\libs\libbtstack.a(lc_util.o)
 .comment       0x0000000000000011       0x12 ..\..\platform\libs\libbtstack.a(lm.o)
 .comment       0x0000000000000011       0x12 ..\..\platform\libs\libbtstack.a(lm_key.o)
 .comment       0x0000000000000011       0x12 ..\..\platform\libs\libbtstack.a(lm_proc.o)
 .comment       0x0000000000000011       0x12 ..\..\platform\libs\libbtstack.a(lm_sco.o)
 .comment       0x0000000000000011       0x12 ..\..\platform\libs\libbtstack.a(lm_sleep.o)
 .comment       0x0000000000000011       0x12 ..\..\platform\libs\libbtstack.a(lm_sniff.o)
 .comment       0x0000000000000011       0x12 ..\..\platform\libs\libbtstack.a(lm_sp.o)
 .comment       0x0000000000000011       0x12 ..\..\platform\libs\libbtstack.a(lm_util.o)
 .comment       0x0000000000000011       0x12 ..\..\platform\libs\libbtstack.a(bb_buf.o)
 .comment       0x0000000000000011       0x12 ..\..\platform\libs\libbtstack.a(bb_utils.o)
 .comment       0x0000000000000011       0x12 ..\..\platform\libs\libbtstack.a(complex.o)
 .comment       0x0000000000000011       0x12 ..\..\platform\libs\libbtstack.a(nanos.o)
 .comment       0x0000000000000011       0x12 ..\..\platform\libs\libbtstack.a(hcic.o)
 .comment       0x0000000000000011       0x12 ..\..\platform\libs\libbtstack.a(hcic_msg.o)
 .comment       0x0000000000000011       0x12 ..\..\platform\libs\libbtstack.a(hcic_proc.o)
 .comment       0x0000000000000011       0x12 ..\..\platform\libs\libbtstack.a(vs.o)
 .comment       0x0000000000000011       0x12 ..\..\platform\libs\libbtstack.a(vs_proc.o)
 .comment       0x0000000000000011       0x12 ..\..\platform\libs\libbtstack.a(btstack_api.o)
 .comment       0x0000000000000011       0x12 ..\..\platform\libs\libbtstack.a(btstack_chipset_inner.o)
 .comment       0x0000000000000011       0x12 ..\..\platform\libs\libbtstack.a(btstack_gatt_server.o)
 .comment       0x0000000000000011       0x12 ..\..\platform\libs\libbtstack.a(btstack_hal.o)
 .comment       0x0000000000000011       0x12 ..\..\platform\libs\libbtstack.a(btstack_main.o)
 .comment       0x0000000000000011       0x12 ..\..\platform\libs\libbtstack.a(btstack_misc.o)
 .comment       0x0000000000000011       0x12 ..\..\platform\libs\libbtstack.a(hci_transport_hcic.o)
 .comment       0x0000000000000011       0x12 ..\..\platform\libs\libbtstack.a(weak_symbol.o)
 .comment       0x0000000000000011       0x12 ..\..\platform\libs\libbtstack.a(btstack_link_ctrl.o)
 .comment       0x0000000000000011       0x12 ..\..\platform\libs\libbtstack.a(btstack_memory.o)
 .comment       0x0000000000000011       0x12 ..\..\platform\libs\libbtstack.a(btstack_memory_pool.o)
 .comment       0x0000000000000011       0x12 ..\..\platform\libs\libbtstack.a(btstack_run_loop.o)
 .comment       0x0000000000000011       0x12 ..\..\platform\libs\libbtstack.a(btstack_tws.o)
 .comment       0x0000000000000011       0x12 ..\..\platform\libs\libbtstack.a(btstack_util.o)
 .comment       0x0000000000000011       0x12 ..\..\platform\libs\libbtstack.a(a2dp.o)
 .comment       0x0000000000000011       0x12 ..\..\platform\libs\libbtstack.a(a2dp_play.o)
 .comment       0x0000000000000011       0x12 ..\..\platform\libs\libbtstack.a(a2dp_send.o)
 .comment       0x0000000000000011       0x12 ..\..\platform\libs\libbtstack.a(avctp.o)
 .comment       0x0000000000000011       0x12 ..\..\platform\libs\libbtstack.a(avdtp.o)
 .comment       0x0000000000000011       0x12 ..\..\platform\libs\libbtstack.a(btstack_link_key_db.o)
 .comment       0x0000000000000011       0x12 ..\..\platform\libs\libbtstack.a(hfp.o)
 .comment       0x0000000000000011       0x12 ..\..\platform\libs\libbtstack.a(hfp_hf.o)
 .comment       0x0000000000000011       0x12 ..\..\platform\libs\libbtstack.a(hid_device.o)
 .comment       0x0000000000000011       0x12 ..\..\platform\libs\libbtstack.a(hid_usage.o)
 .comment       0x0000000000000011       0x12 ..\..\platform\libs\libbtstack.a(rfcomm.o)
 .comment       0x0000000000000011       0x12 ..\..\platform\libs\libbtstack.a(sdp_client.o)
 .comment       0x0000000000000011       0x12 ..\..\platform\libs\libbtstack.a(sdp_server.o)
 .comment       0x0000000000000011       0x12 ..\..\platform\libs\libbtstack.a(sdp_tbl.o)
 .comment       0x0000000000000011       0x12 ..\..\platform\libs\libbtstack.a(sdp_util.o)
 .comment       0x0000000000000011       0x12 ..\..\platform\libs\libbtstack.a(spp.o)
 .comment       0x0000000000000011       0x12 ..\..\platform\libs\libbtstack.a(hci.o)
 .comment       0x0000000000000011       0x12 ..\..\platform\libs\libbtstack.a(hci_cmd.o)
 .comment       0x0000000000000011       0x12 ..\..\platform\libs\libbtstack.a(hci_dump.o)
 .comment       0x0000000000000011       0x12 ..\..\platform\libs\libbtstack.a(hci_sco.o)
 .comment       0x0000000000000011       0x12 ..\..\platform\libs\libbtstack.a(l2cap.o)
 .comment       0x0000000000000011       0x12 ..\..\platform\libs\libbtstack.a(l2cap_signaling.o)
 .comment       0x0000000000000011       0x12 ..\..\platform\libs\libbtstack.a(l2cap_test.o)
 .comment       0x0000000000000011       0x12 ..\..\platform\libs\libbtstack.a(ext_rsw.o)
 .comment       0x0000000000000011       0x12 ..\..\platform\libs\libbtstack.a(ext_sniff.o)
 .comment       0x0000000000000011       0x12 ..\..\platform\libs\libbtstack.a(ext_tsco.o)
 .comment       0x0000000000000011       0x12 ..\..\platform\libs\libbtstack.a(lc_scan.o)
 .comment       0x0000000000000011       0x12 ..\..\platform\libs\libbtstack.a(lm_hmac.o)
 .comment       0x0000000000000011       0x12 ..\..\platform\libs\libbtstack.a(btstack_linked_list.o)
 .comment       0x0000000000000011       0x12 ..\..\platform\libs\libdrivers.a(diskio.o)
 .comment       0x0000000000000011       0x12 ..\..\platform\libs\libdrivers.a(pff_fat.o)
 .comment       0x0000000000000011       0x12 ..\..\platform\libs\libdrivers.a(pff_fat2.o)
 .comment       0x0000000000000011       0x12 ..\..\platform\libs\libdrivers.a(sd.o)
 .comment       0x0000000000000011       0x12 ..\..\platform\libs\libdrivers.a(usb_comm.o)
 .comment       0x0000000000000011       0x12 ..\..\platform\libs\libdrivers.a(usb_detect.o)
 .comment       0x0000000000000011       0x12 ..\..\platform\libs\libdrivers.a(usb_device_audio.o)
 .comment       0x0000000000000011       0x12 ..\..\platform\libs\libdrivers.a(usb_device_enum.o)
 .comment       0x0000000000000011       0x12 ..\..\platform\libs\libdrivers.a(usb_device_ep.o)
 .comment       0x0000000000000011       0x12 ..\..\platform\libs\libdrivers.a(usb_device_hid.o)
 .comment       0x0000000000000011       0x12 ..\..\platform\libs\libdrivers.a(usb_device_run_loop.o)
 .comment       0x0000000000000011       0x12 ..\..\platform\libs\libdrivers.a(usb_device_storage.o)
 .comment       0x0000000000000011       0x12 ..\..\platform\libs\libdrivers.a(usb_device_table.o)
 .comment       0x0000000000000011       0x12 ..\..\platform\libs\libdrivers.a(usb_host_manage.o)
 .comment       0x0000000000000011       0x12 ..\..\platform\libs\libdrivers.a(usb_host_storage.o)
 .comment       0x0000000000000011       0x12 ..\..\platform\libs\libdrivers.a(pff.o)
 .comment       0x0000000000000011       0x12 ..\..\platform\libs\libdrivers.a(usb_host_enum.o)
 .comment       0x0000000000000011       0x12 ..\..\platform\libs\libcodecs.a(aviobuf.o)
 .comment       0x0000000000000011       0x12 ..\..\platform\libs\libcodecs.a(codecs_com.o)
 .comment       0x0000000000000011       0x12 ..\..\platform\libs\libcodecs.a(mp3_dec.o)
 .comment       0x0000000000000011       0x12 ..\..\platform\libs\libcodecs.a(bt_sbc.o)
 .comment       0x0000000000000011       0x12 ..\..\platform\libs\libcodecs.a(sbc.o)
 .comment       0x0000000000000011       0x12 ..\..\platform\libs\libcodecs.a(sbc_dec.o)
 .comment       0x0000000000000011       0x12 ..\..\platform\libs\libcodecs.a(sbcen_io.o)
 .comment       0x0000000000000011       0x12 ..\..\platform\libs\libcodecs.a(wavdec.o)
 .comment       0x0000000000000011       0x12 ..\..\platform\libs\libcodecs.a(bit.o)
 .comment       0x0000000000000011       0x12 ..\..\platform\libs\libcodecs.a(frame.o)
 .comment       0x0000000000000011       0x12 ..\..\platform\libs\libcodecs.a(layer12.o)
 .comment       0x0000000000000011       0x12 ..\..\platform\libs\libcodecs.a(layer3.o)
 .comment       0x0000000000000011       0x12 ..\..\platform\libs\libcodecs.a(huffman.o)

.debug_frame    0x0000000000000000     0x61c4
 .debug_frame   0x0000000000000000      0x3cc ..\..\platform\libs\libplatform.a(audio.o)
 .debug_frame   0x00000000000003cc      0x4dc ..\..\platform\libs\libplatform.a(audio_eq.o)
 .debug_frame   0x00000000000008a8      0x584 ..\..\platform\libs\libplatform.a(audio_karaok.o)
 .debug_frame   0x0000000000000e2c      0x9e4 ..\..\platform\libs\libplatform.a(dac.o)
 .debug_frame   0x0000000000001810       0x70 ..\..\platform\libs\libplatform.a(dac_dnr.o)
 .debug_frame   0x0000000000001880      0x220 ..\..\platform\libs\libplatform.a(sdadc.o)
 .debug_frame   0x0000000000001aa0      0x5cc ..\..\platform\libs\libplatform.a(bt.o)
 .debug_frame   0x000000000000206c      0x1f8 ..\..\platform\libs\libplatform.a(bt_aec.o)
 .debug_frame   0x0000000000002264      0x204 ..\..\platform\libs\libplatform.a(bt_alc.o)
 .debug_frame   0x0000000000002468      0x2dc ..\..\platform\libs\libplatform.a(bt_rec.o)
 .debug_frame   0x0000000000002744       0xe0 ..\..\platform\libs\libplatform.a(bt_sco.o)
 .debug_frame   0x0000000000002824       0x30 ..\..\platform\libs\libplatform.a(bt_wnr.o)
 .debug_frame   0x0000000000002854      0x520 ..\..\platform\libs\libplatform.a(cm.o)
 .debug_frame   0x0000000000002d74       0xb8 ..\..\platform\libs\libplatform.a(os_flash.o)
 .debug_frame   0x0000000000002e2c       0x58 ..\..\platform\libs\libplatform.a(xcfg.o)
 .debug_frame   0x0000000000002e84      0x178 ..\..\platform\libs\libplatform.a(device.o)
 .debug_frame   0x0000000000002ffc      0x284 ..\..\platform\libs\libplatform.a(fmrx.o)
 .debug_frame   0x0000000000003280       0x74 ..\..\platform\libs\libplatform.a(fmrx_ang.o)
 .debug_frame   0x00000000000032f4      0x150 ..\..\platform\libs\libplatform.a(main.o)
 .debug_frame   0x0000000000003444      0x600 ..\..\platform\libs\libplatform.a(music.o)
 .debug_frame   0x0000000000003a44       0xac ..\..\platform\libs\libplatform.a(music_decrypt.o)
 .debug_frame   0x0000000000003af0      0x2f4 ..\..\platform\libs\libplatform.a(music_res.o)
 .debug_frame   0x0000000000003de4      0x2f8 ..\..\platform\libs\libplatform.a(stream.o)
 .debug_frame   0x00000000000040dc      0x4b0 ..\..\platform\libs\libplatform.a(interrupt.o)
 .debug_frame   0x000000000000458c      0x1d8 ..\..\platform\libs\libplatform.a(startup.o)
 .debug_frame   0x0000000000004764       0x74 ..\..\platform\libs\libplatform.a(sys_hook.o)
 .debug_frame   0x00000000000047d8      0x228 ..\..\platform\libs\libplatform.a(rtc.o)
 .debug_frame   0x0000000000004a00       0xc8 ..\..\platform\libs\libplatform.a(rtc_time.o)
 .debug_frame   0x0000000000004ac8      0x1e4 ..\..\platform\libs\libplatform.a(sd_api.o)
 .debug_frame   0x0000000000004cac      0x158 ..\..\platform\libs\libplatform.a(spiflash.o)
 .debug_frame   0x0000000000004e04      0x100 ..\..\platform\libs\libplatform.a(debug.o)
 .debug_frame   0x0000000000004f04       0xc8 ..\..\platform\libs\libplatform.a(gpio.o)
 .debug_frame   0x0000000000004fcc       0xe0 ..\..\platform\libs\libplatform.a(key.o)
 .debug_frame   0x00000000000050ac      0x3fc ..\..\platform\libs\libplatform.a(lock.o)
 .debug_frame   0x00000000000054a8      0x258 ..\..\platform\libs\libplatform.a(power.o)
 .debug_frame   0x0000000000005700       0xa8 ..\..\platform\libs\libplatform.a(saradc.o)
 .debug_frame   0x00000000000057a8      0x188 ..\..\platform\libs\libplatform.a(sys.o)
 .debug_frame   0x0000000000005930      0x1a0 ..\..\platform\libs\libplatform.a(sys_clk.o)
 .debug_frame   0x0000000000005ad0       0x60 ..\..\platform\libs\libplatform.a(sys_msg.o)
 .debug_frame   0x0000000000005b30      0x300 ..\..\platform\libs\libplatform.a(update.o)
 .debug_frame   0x0000000000005e30       0x20 ..\..\platform\libs\libplatform.a(voltage_trim.o)
 .debug_frame   0x0000000000005e50       0xe0 ..\..\platform\libs\libplatform.a(weak_symbol.o)
 .debug_frame   0x0000000000005f30      0x11c ..\..\platform\libs\libplatform.a(thread_driver.o)
 .debug_frame   0x000000000000604c       0x9c ..\..\platform\libs\libplatform.a(audio_pcm.o)
 .debug_frame   0x00000000000060e8       0xdc ..\..\platform\libs\libplatform.a(bt_ota.o)

.debug_info     0x0000000000000000    0x3637d
 .debug_info    0x0000000000000000     0x1547 ..\..\platform\libs\libplatform.a(audio.o)
 .debug_info    0x0000000000001547     0x1a03 ..\..\platform\libs\libplatform.a(audio_eq.o)
 .debug_info    0x0000000000002f4a     0x1f5f ..\..\platform\libs\libplatform.a(audio_karaok.o)
 .debug_info    0x0000000000004ea9     0x1f43 ..\..\platform\libs\libplatform.a(dac.o)
 .debug_info    0x0000000000006dec      0xdc8 ..\..\platform\libs\libplatform.a(dac_dnr.o)
 .debug_info    0x0000000000007bb4       0xb9 ..\..\platform\libs\libplatform.a(s_dac.o)
 .debug_info    0x0000000000007c6d     0x153f ..\..\platform\libs\libplatform.a(sdadc.o)
 .debug_info    0x00000000000091ac     0x1ace ..\..\platform\libs\libplatform.a(bt.o)
 .debug_info    0x000000000000ac7a     0x18ea ..\..\platform\libs\libplatform.a(bt_aec.o)
 .debug_info    0x000000000000c564     0x16d7 ..\..\platform\libs\libplatform.a(bt_alc.o)
 .debug_info    0x000000000000dc3b     0x1574 ..\..\platform\libs\libplatform.a(bt_rec.o)
 .debug_info    0x000000000000f1af      0xe68 ..\..\platform\libs\libplatform.a(bt_sco.o)
 .debug_info    0x0000000000010017      0xc3c ..\..\platform\libs\libplatform.a(bt_wnr.o)
 .debug_info    0x0000000000010c53       0xba ..\..\platform\libs\libplatform.a(s_wnr.o)
 .debug_info    0x0000000000010d0d     0x1ab6 ..\..\platform\libs\libplatform.a(cm.o)
 .debug_info    0x00000000000127c3      0xd2b ..\..\platform\libs\libplatform.a(os_flash.o)
 .debug_info    0x00000000000134ee      0xca1 ..\..\platform\libs\libplatform.a(xcfg.o)
 .debug_info    0x000000000001418f      0xebc ..\..\platform\libs\libplatform.a(device.o)
 .debug_info    0x000000000001504b     0x14d6 ..\..\platform\libs\libplatform.a(fmrx.o)
 .debug_info    0x0000000000016521      0xca1 ..\..\platform\libs\libplatform.a(fmrx_ang.o)
 .debug_info    0x00000000000171c2     0x110c ..\..\platform\libs\libplatform.a(main.o)
 .debug_info    0x00000000000182ce     0x20dd ..\..\platform\libs\libplatform.a(music.o)
 .debug_info    0x000000000001a3ab      0xf4f ..\..\platform\libs\libplatform.a(music_decrypt.o)
 .debug_info    0x000000000001b2fa     0x15d7 ..\..\platform\libs\libplatform.a(music_res.o)
 .debug_info    0x000000000001c8d1     0x131b ..\..\platform\libs\libplatform.a(stream.o)
 .debug_info    0x000000000001dbec     0x13eb ..\..\platform\libs\libplatform.a(interrupt.o)
 .debug_info    0x000000000001efd7     0x1df9 ..\..\platform\libs\libplatform.a(startup.o)
 .debug_info    0x0000000000020dd0      0xf90 ..\..\platform\libs\libplatform.a(sys_hook.o)
 .debug_info    0x0000000000021d60       0xb3 ..\..\platform\libs\libplatform.a(reset.o)
 .debug_info    0x0000000000021e13     0x1204 ..\..\platform\libs\libplatform.a(rtc.o)
 .debug_info    0x0000000000023017      0xee3 ..\..\platform\libs\libplatform.a(rtc_time.o)
 .debug_info    0x0000000000023efa     0x1625 ..\..\platform\libs\libplatform.a(sd_api.o)
 .debug_info    0x000000000002551f      0xff2 ..\..\platform\libs\libplatform.a(spiflash.o)
 .debug_info    0x0000000000026511     0x143f ..\..\platform\libs\libplatform.a(debug.o)
 .debug_info    0x0000000000027950      0xd47 ..\..\platform\libs\libplatform.a(gpio.o)
 .debug_info    0x0000000000028697      0xdc5 ..\..\platform\libs\libplatform.a(key.o)
 .debug_info    0x000000000002945c     0x189a ..\..\platform\libs\libplatform.a(lock.o)
 .debug_info    0x000000000002acf6     0x1328 ..\..\platform\libs\libplatform.a(power.o)
 .debug_info    0x000000000002c01e       0xbb ..\..\platform\libs\libplatform.a(s_sys.o)
 .debug_info    0x000000000002c0d9      0xd42 ..\..\platform\libs\libplatform.a(saradc.o)
 .debug_info    0x000000000002ce1b     0x1140 ..\..\platform\libs\libplatform.a(sys.o)
 .debug_info    0x000000000002df5b     0x1007 ..\..\platform\libs\libplatform.a(sys_clk.o)
 .debug_info    0x000000000002ef62      0xd72 ..\..\platform\libs\libplatform.a(sys_msg.o)
 .debug_info    0x000000000002fcd4     0x1ca5 ..\..\platform\libs\libplatform.a(update.o)
 .debug_info    0x0000000000031979      0xcb3 ..\..\platform\libs\libplatform.a(voltage_trim.o)
 .debug_info    0x000000000003262c      0xddc ..\..\platform\libs\libplatform.a(weak_symbol.o)
 .debug_info    0x0000000000033408      0xfe3 ..\..\platform\libs\libplatform.a(thread_driver.o)
 .debug_info    0x00000000000343eb      0xeb4 ..\..\platform\libs\libplatform.a(audio_pcm.o)
 .debug_info    0x000000000003529f     0x10de ..\..\platform\libs\libplatform.a(bt_ota.o)

.debug_abbrev   0x0000000000000000     0x9474
 .debug_abbrev  0x0000000000000000      0x31c ..\..\platform\libs\libplatform.a(audio.o)
 .debug_abbrev  0x000000000000031c      0x48d ..\..\platform\libs\libplatform.a(audio_eq.o)
 .debug_abbrev  0x00000000000007a9      0x4b7 ..\..\platform\libs\libplatform.a(audio_karaok.o)
 .debug_abbrev  0x0000000000000c60      0x544 ..\..\platform\libs\libplatform.a(dac.o)
 .debug_abbrev  0x00000000000011a4      0x26d ..\..\platform\libs\libplatform.a(dac_dnr.o)
 .debug_abbrev  0x0000000000001411       0x12 ..\..\platform\libs\libplatform.a(s_dac.o)
 .debug_abbrev  0x0000000000001423      0x3eb ..\..\platform\libs\libplatform.a(sdadc.o)
 .debug_abbrev  0x000000000000180e      0x3ad ..\..\platform\libs\libplatform.a(bt.o)
 .debug_abbrev  0x0000000000001bbb      0x3e8 ..\..\platform\libs\libplatform.a(bt_aec.o)
 .debug_abbrev  0x0000000000001fa3      0x3e2 ..\..\platform\libs\libplatform.a(bt_alc.o)
 .debug_abbrev  0x0000000000002385      0x360 ..\..\platform\libs\libplatform.a(bt_rec.o)
 .debug_abbrev  0x00000000000026e5      0x2c1 ..\..\platform\libs\libplatform.a(bt_sco.o)
 .debug_abbrev  0x00000000000029a6      0x233 ..\..\platform\libs\libplatform.a(bt_wnr.o)
 .debug_abbrev  0x0000000000002bd9       0x14 ..\..\platform\libs\libplatform.a(s_wnr.o)
 .debug_abbrev  0x0000000000002bed      0x4a4 ..\..\platform\libs\libplatform.a(cm.o)
 .debug_abbrev  0x0000000000003091      0x271 ..\..\platform\libs\libplatform.a(os_flash.o)
 .debug_abbrev  0x0000000000003302      0x247 ..\..\platform\libs\libplatform.a(xcfg.o)
 .debug_abbrev  0x0000000000003549      0x2d3 ..\..\platform\libs\libplatform.a(device.o)
 .debug_abbrev  0x000000000000381c      0x4a4 ..\..\platform\libs\libplatform.a(fmrx.o)
 .debug_abbrev  0x0000000000003cc0      0x25b ..\..\platform\libs\libplatform.a(fmrx_ang.o)
 .debug_abbrev  0x0000000000003f1b      0x2f4 ..\..\platform\libs\libplatform.a(main.o)
 .debug_abbrev  0x000000000000420f      0x4f4 ..\..\platform\libs\libplatform.a(music.o)
 .debug_abbrev  0x0000000000004703      0x2c9 ..\..\platform\libs\libplatform.a(music_decrypt.o)
 .debug_abbrev  0x00000000000049cc      0x3d8 ..\..\platform\libs\libplatform.a(music_res.o)
 .debug_abbrev  0x0000000000004da4      0x36b ..\..\platform\libs\libplatform.a(stream.o)
 .debug_abbrev  0x000000000000510f      0x39a ..\..\platform\libs\libplatform.a(interrupt.o)
 .debug_abbrev  0x00000000000054a9      0x3e0 ..\..\platform\libs\libplatform.a(startup.o)
 .debug_abbrev  0x0000000000005889      0x2c8 ..\..\platform\libs\libplatform.a(sys_hook.o)
 .debug_abbrev  0x0000000000005b51       0x12 ..\..\platform\libs\libplatform.a(reset.o)
 .debug_abbrev  0x0000000000005b63      0x28e ..\..\platform\libs\libplatform.a(rtc.o)
 .debug_abbrev  0x0000000000005df1      0x2f3 ..\..\platform\libs\libplatform.a(rtc_time.o)
 .debug_abbrev  0x00000000000060e4      0x334 ..\..\platform\libs\libplatform.a(sd_api.o)
 .debug_abbrev  0x0000000000006418      0x353 ..\..\platform\libs\libplatform.a(spiflash.o)
 .debug_abbrev  0x000000000000676b      0x3c8 ..\..\platform\libs\libplatform.a(debug.o)
 .debug_abbrev  0x0000000000006b33      0x26d ..\..\platform\libs\libplatform.a(gpio.o)
 .debug_abbrev  0x0000000000006da0      0x291 ..\..\platform\libs\libplatform.a(key.o)
 .debug_abbrev  0x0000000000007031      0x38a ..\..\platform\libs\libplatform.a(lock.o)
 .debug_abbrev  0x00000000000073bb      0x34f ..\..\platform\libs\libplatform.a(power.o)
 .debug_abbrev  0x000000000000770a       0x14 ..\..\platform\libs\libplatform.a(s_sys.o)
 .debug_abbrev  0x000000000000771e      0x28b ..\..\platform\libs\libplatform.a(saradc.o)
 .debug_abbrev  0x00000000000079a9      0x419 ..\..\platform\libs\libplatform.a(sys.o)
 .debug_abbrev  0x0000000000007dc2      0x382 ..\..\platform\libs\libplatform.a(sys_clk.o)
 .debug_abbrev  0x0000000000008144      0x2b2 ..\..\platform\libs\libplatform.a(sys_msg.o)
 .debug_abbrev  0x00000000000083f6      0x43c ..\..\platform\libs\libplatform.a(update.o)
 .debug_abbrev  0x0000000000008832      0x246 ..\..\platform\libs\libplatform.a(voltage_trim.o)
 .debug_abbrev  0x0000000000008a78      0x2b2 ..\..\platform\libs\libplatform.a(weak_symbol.o)
 .debug_abbrev  0x0000000000008d2a      0x258 ..\..\platform\libs\libplatform.a(thread_driver.o)
 .debug_abbrev  0x0000000000008f82      0x258 ..\..\platform\libs\libplatform.a(audio_pcm.o)
 .debug_abbrev  0x00000000000091da      0x29a ..\..\platform\libs\libplatform.a(bt_ota.o)

.debug_loc      0x0000000000000000     0x8f45
 .debug_loc     0x0000000000000000      0x734 ..\..\platform\libs\libplatform.a(audio.o)
 .debug_loc     0x0000000000000734      0xd73 ..\..\platform\libs\libplatform.a(audio_eq.o)
 .debug_loc     0x00000000000014a7      0xaf8 ..\..\platform\libs\libplatform.a(audio_karaok.o)
 .debug_loc     0x0000000000001f9f      0x5c0 ..\..\platform\libs\libplatform.a(dac.o)
 .debug_loc     0x000000000000255f       0x6e ..\..\platform\libs\libplatform.a(dac_dnr.o)
 .debug_loc     0x00000000000025cd      0x567 ..\..\platform\libs\libplatform.a(sdadc.o)
 .debug_loc     0x0000000000002b34      0x287 ..\..\platform\libs\libplatform.a(bt.o)
 .debug_loc     0x0000000000002dbb      0x2f5 ..\..\platform\libs\libplatform.a(bt_aec.o)
 .debug_loc     0x00000000000030b0      0x26a ..\..\platform\libs\libplatform.a(bt_alc.o)
 .debug_loc     0x000000000000331a      0x281 ..\..\platform\libs\libplatform.a(bt_rec.o)
 .debug_loc     0x000000000000359b       0xad ..\..\platform\libs\libplatform.a(bt_sco.o)
 .debug_loc     0x0000000000003648       0x94 ..\..\platform\libs\libplatform.a(bt_wnr.o)
 .debug_loc     0x00000000000036dc      0x8a4 ..\..\platform\libs\libplatform.a(cm.o)
 .debug_loc     0x0000000000003f80      0x15a ..\..\platform\libs\libplatform.a(os_flash.o)
 .debug_loc     0x00000000000040da       0x58 ..\..\platform\libs\libplatform.a(xcfg.o)
 .debug_loc     0x0000000000004132      0x160 ..\..\platform\libs\libplatform.a(device.o)
 .debug_loc     0x0000000000004292      0x57c ..\..\platform\libs\libplatform.a(fmrx.o)
 .debug_loc     0x000000000000480e       0x76 ..\..\platform\libs\libplatform.a(fmrx_ang.o)
 .debug_loc     0x0000000000004884      0x1a8 ..\..\platform\libs\libplatform.a(main.o)
 .debug_loc     0x0000000000004a2c      0x2a9 ..\..\platform\libs\libplatform.a(music.o)
 .debug_loc     0x0000000000004cd5      0x176 ..\..\platform\libs\libplatform.a(music_decrypt.o)
 .debug_loc     0x0000000000004e4b      0x574 ..\..\platform\libs\libplatform.a(music_res.o)
 .debug_loc     0x00000000000053bf      0x230 ..\..\platform\libs\libplatform.a(stream.o)
 .debug_loc     0x00000000000055ef      0x335 ..\..\platform\libs\libplatform.a(interrupt.o)
 .debug_loc     0x0000000000005924      0x110 ..\..\platform\libs\libplatform.a(startup.o)
 .debug_loc     0x0000000000005a34       0xed ..\..\platform\libs\libplatform.a(sys_hook.o)
 .debug_loc     0x0000000000005b21      0x215 ..\..\platform\libs\libplatform.a(rtc.o)
 .debug_loc     0x0000000000005d36      0x377 ..\..\platform\libs\libplatform.a(rtc_time.o)
 .debug_loc     0x00000000000060ad      0x36e ..\..\platform\libs\libplatform.a(sd_api.o)
 .debug_loc     0x000000000000641b      0x2a8 ..\..\platform\libs\libplatform.a(spiflash.o)
 .debug_loc     0x00000000000066c3      0x132 ..\..\platform\libs\libplatform.a(debug.o)
 .debug_loc     0x00000000000067f5      0x17b ..\..\platform\libs\libplatform.a(gpio.o)
 .debug_loc     0x0000000000006970      0x1f5 ..\..\platform\libs\libplatform.a(key.o)
 .debug_loc     0x0000000000006b65      0x45a ..\..\platform\libs\libplatform.a(lock.o)
 .debug_loc     0x0000000000006fbf      0x46d ..\..\platform\libs\libplatform.a(power.o)
 .debug_loc     0x000000000000742c      0x129 ..\..\platform\libs\libplatform.a(saradc.o)
 .debug_loc     0x0000000000007555      0x76e ..\..\platform\libs\libplatform.a(sys.o)
 .debug_loc     0x0000000000007cc3      0x5f9 ..\..\platform\libs\libplatform.a(sys_clk.o)
 .debug_loc     0x00000000000082bc       0x78 ..\..\platform\libs\libplatform.a(sys_msg.o)
 .debug_loc     0x0000000000008334      0x9b0 ..\..\platform\libs\libplatform.a(update.o)
 .debug_loc     0x0000000000008ce4       0x2e ..\..\platform\libs\libplatform.a(voltage_trim.o)
 .debug_loc     0x0000000000008d12       0x84 ..\..\platform\libs\libplatform.a(weak_symbol.o)
 .debug_loc     0x0000000000008d96       0x4c ..\..\platform\libs\libplatform.a(thread_driver.o)
 .debug_loc     0x0000000000008de2       0x4c ..\..\platform\libs\libplatform.a(audio_pcm.o)
 .debug_loc     0x0000000000008e2e      0x117 ..\..\platform\libs\libplatform.a(bt_ota.o)

.debug_aranges  0x0000000000000000     0x16c8
 .debug_aranges
                0x0000000000000000       0xe8 ..\..\platform\libs\libplatform.a(audio.o)
 .debug_aranges
                0x00000000000000e8       0xa0 ..\..\platform\libs\libplatform.a(audio_eq.o)
 .debug_aranges
                0x0000000000000188      0x150 ..\..\platform\libs\libplatform.a(audio_karaok.o)
 .debug_aranges
                0x00000000000002d8      0x1b8 ..\..\platform\libs\libplatform.a(dac.o)
 .debug_aranges
                0x0000000000000490       0x48 ..\..\platform\libs\libplatform.a(dac_dnr.o)
 .debug_aranges
                0x00000000000004d8       0x28 ..\..\platform\libs\libplatform.a(s_dac.o)
 .debug_aranges
                0x0000000000000500       0x78 ..\..\platform\libs\libplatform.a(sdadc.o)
 .debug_aranges
                0x0000000000000578      0x108 ..\..\platform\libs\libplatform.a(bt.o)
 .debug_aranges
                0x0000000000000680       0x58 ..\..\platform\libs\libplatform.a(bt_aec.o)
 .debug_aranges
                0x00000000000006d8       0x58 ..\..\platform\libs\libplatform.a(bt_alc.o)
 .debug_aranges
                0x0000000000000730       0x88 ..\..\platform\libs\libplatform.a(bt_rec.o)
 .debug_aranges
                0x00000000000007b8       0x38 ..\..\platform\libs\libplatform.a(bt_sco.o)
 .debug_aranges
                0x00000000000007f0       0x28 ..\..\platform\libs\libplatform.a(bt_wnr.o)
 .debug_aranges
                0x0000000000000818       0x20 ..\..\platform\libs\libplatform.a(s_wnr.o)
 .debug_aranges
                0x0000000000000838       0xc0 ..\..\platform\libs\libplatform.a(cm.o)
 .debug_aranges
                0x00000000000008f8       0x30 ..\..\platform\libs\libplatform.a(os_flash.o)
 .debug_aranges
                0x0000000000000928       0x20 ..\..\platform\libs\libplatform.a(xcfg.o)
 .debug_aranges
                0x0000000000000948       0x80 ..\..\platform\libs\libplatform.a(device.o)
 .debug_aranges
                0x00000000000009c8       0x88 ..\..\platform\libs\libplatform.a(fmrx.o)
 .debug_aranges
                0x0000000000000a50       0x30 ..\..\platform\libs\libplatform.a(fmrx_ang.o)
 .debug_aranges
                0x0000000000000a80       0x60 ..\..\platform\libs\libplatform.a(main.o)
 .debug_aranges
                0x0000000000000ae0      0x168 ..\..\platform\libs\libplatform.a(music.o)
 .debug_aranges
                0x0000000000000c48       0x28 ..\..\platform\libs\libplatform.a(music_decrypt.o)
 .debug_aranges
                0x0000000000000c70       0x88 ..\..\platform\libs\libplatform.a(music_res.o)
 .debug_aranges
                0x0000000000000cf8       0x70 ..\..\platform\libs\libplatform.a(stream.o)
 .debug_aranges
                0x0000000000000d68      0x108 ..\..\platform\libs\libplatform.a(interrupt.o)
 .debug_aranges
                0x0000000000000e70       0x80 ..\..\platform\libs\libplatform.a(startup.o)
 .debug_aranges
                0x0000000000000ef0       0x28 ..\..\platform\libs\libplatform.a(sys_hook.o)
 .debug_aranges
                0x0000000000000f18       0x38 ..\..\platform\libs\libplatform.a(reset.o)
 .debug_aranges
                0x0000000000000f50       0x48 ..\..\platform\libs\libplatform.a(rtc.o)
 .debug_aranges
                0x0000000000000f98       0x40 ..\..\platform\libs\libplatform.a(rtc_time.o)
 .debug_aranges
                0x0000000000000fd8       0xd0 ..\..\platform\libs\libplatform.a(sd_api.o)
 .debug_aranges
                0x00000000000010a8       0x58 ..\..\platform\libs\libplatform.a(spiflash.o)
 .debug_aranges
                0x0000000000001100       0x48 ..\..\platform\libs\libplatform.a(debug.o)
 .debug_aranges
                0x0000000000001148       0x58 ..\..\platform\libs\libplatform.a(gpio.o)
 .debug_aranges
                0x00000000000011a0       0x30 ..\..\platform\libs\libplatform.a(key.o)
 .debug_aranges
                0x00000000000011d0      0x128 ..\..\platform\libs\libplatform.a(lock.o)
 .debug_aranges
                0x00000000000012f8       0x78 ..\..\platform\libs\libplatform.a(power.o)
 .debug_aranges
                0x0000000000001370       0x20 ..\..\platform\libs\libplatform.a(s_sys.o)
 .debug_aranges
                0x0000000000001390       0x48 ..\..\platform\libs\libplatform.a(saradc.o)
 .debug_aranges
                0x00000000000013d8       0x88 ..\..\platform\libs\libplatform.a(sys.o)
 .debug_aranges
                0x0000000000001460       0x70 ..\..\platform\libs\libplatform.a(sys_clk.o)
 .debug_aranges
                0x00000000000014d0       0x40 ..\..\platform\libs\libplatform.a(sys_msg.o)
 .debug_aranges
                0x0000000000001510       0x70 ..\..\platform\libs\libplatform.a(update.o)
 .debug_aranges
                0x0000000000001580       0x20 ..\..\platform\libs\libplatform.a(voltage_trim.o)
 .debug_aranges
                0x00000000000015a0       0x68 ..\..\platform\libs\libplatform.a(weak_symbol.o)
 .debug_aranges
                0x0000000000001608       0x48 ..\..\platform\libs\libplatform.a(thread_driver.o)
 .debug_aranges
                0x0000000000001650       0x30 ..\..\platform\libs\libplatform.a(audio_pcm.o)
 .debug_aranges
                0x0000000000001680       0x48 ..\..\platform\libs\libplatform.a(bt_ota.o)

.debug_ranges   0x0000000000000000     0x1af8
 .debug_ranges  0x0000000000000000       0xd8 ..\..\platform\libs\libplatform.a(audio.o)
 .debug_ranges  0x00000000000000d8      0x128 ..\..\platform\libs\libplatform.a(audio_eq.o)
 .debug_ranges  0x0000000000000200      0x230 ..\..\platform\libs\libplatform.a(audio_karaok.o)
 .debug_ranges  0x0000000000000430      0x270 ..\..\platform\libs\libplatform.a(dac.o)
 .debug_ranges  0x00000000000006a0       0x38 ..\..\platform\libs\libplatform.a(dac_dnr.o)
 .debug_ranges  0x00000000000006d8       0x20 ..\..\platform\libs\libplatform.a(s_dac.o)
 .debug_ranges  0x00000000000006f8       0x98 ..\..\platform\libs\libplatform.a(sdadc.o)
 .debug_ranges  0x0000000000000790       0xf8 ..\..\platform\libs\libplatform.a(bt.o)
 .debug_ranges  0x0000000000000888       0x60 ..\..\platform\libs\libplatform.a(bt_aec.o)
 .debug_ranges  0x00000000000008e8       0x60 ..\..\platform\libs\libplatform.a(bt_alc.o)
 .debug_ranges  0x0000000000000948       0xc0 ..\..\platform\libs\libplatform.a(bt_rec.o)
 .debug_ranges  0x0000000000000a08       0x28 ..\..\platform\libs\libplatform.a(bt_sco.o)
 .debug_ranges  0x0000000000000a30       0x18 ..\..\platform\libs\libplatform.a(bt_wnr.o)
 .debug_ranges  0x0000000000000a48      0x158 ..\..\platform\libs\libplatform.a(cm.o)
 .debug_ranges  0x0000000000000ba0       0x20 ..\..\platform\libs\libplatform.a(os_flash.o)
 .debug_ranges  0x0000000000000bc0       0x10 ..\..\platform\libs\libplatform.a(xcfg.o)
 .debug_ranges  0x0000000000000bd0       0x70 ..\..\platform\libs\libplatform.a(device.o)
 .debug_ranges  0x0000000000000c40      0x168 ..\..\platform\libs\libplatform.a(fmrx.o)
 .debug_ranges  0x0000000000000da8       0x38 ..\..\platform\libs\libplatform.a(fmrx_ang.o)
 .debug_ranges  0x0000000000000de0       0x50 ..\..\platform\libs\libplatform.a(main.o)
 .debug_ranges  0x0000000000000e30      0x158 ..\..\platform\libs\libplatform.a(music.o)
 .debug_ranges  0x0000000000000f88       0x18 ..\..\platform\libs\libplatform.a(music_decrypt.o)
 .debug_ranges  0x0000000000000fa0       0xc8 ..\..\platform\libs\libplatform.a(music_res.o)
 .debug_ranges  0x0000000000001068       0x60 ..\..\platform\libs\libplatform.a(stream.o)
 .debug_ranges  0x00000000000010c8       0xf8 ..\..\platform\libs\libplatform.a(interrupt.o)
 .debug_ranges  0x00000000000011c0       0x88 ..\..\platform\libs\libplatform.a(startup.o)
 .debug_ranges  0x0000000000001248       0x48 ..\..\platform\libs\libplatform.a(sys_hook.o)
 .debug_ranges  0x0000000000001290       0x30 ..\..\platform\libs\libplatform.a(reset.o)
 .debug_ranges  0x00000000000012c0       0x38 ..\..\platform\libs\libplatform.a(rtc.o)
 .debug_ranges  0x00000000000012f8       0x30 ..\..\platform\libs\libplatform.a(rtc_time.o)
 .debug_ranges  0x0000000000001328       0xc0 ..\..\platform\libs\libplatform.a(sd_api.o)
 .debug_ranges  0x00000000000013e8       0x60 ..\..\platform\libs\libplatform.a(spiflash.o)
 .debug_ranges  0x0000000000001448       0xb0 ..\..\platform\libs\libplatform.a(debug.o)
 .debug_ranges  0x00000000000014f8       0x48 ..\..\platform\libs\libplatform.a(gpio.o)
 .debug_ranges  0x0000000000001540       0x20 ..\..\platform\libs\libplatform.a(key.o)
 .debug_ranges  0x0000000000001560      0x170 ..\..\platform\libs\libplatform.a(lock.o)
 .debug_ranges  0x00000000000016d0       0x68 ..\..\platform\libs\libplatform.a(power.o)
 .debug_ranges  0x0000000000001738       0x50 ..\..\platform\libs\libplatform.a(saradc.o)
 .debug_ranges  0x0000000000001788       0x98 ..\..\platform\libs\libplatform.a(sys.o)
 .debug_ranges  0x0000000000001820       0x88 ..\..\platform\libs\libplatform.a(sys_clk.o)
 .debug_ranges  0x00000000000018a8       0x30 ..\..\platform\libs\libplatform.a(sys_msg.o)
 .debug_ranges  0x00000000000018d8      0x128 ..\..\platform\libs\libplatform.a(update.o)
 .debug_ranges  0x0000000000001a00       0x10 ..\..\platform\libs\libplatform.a(voltage_trim.o)
 .debug_ranges  0x0000000000001a10       0x58 ..\..\platform\libs\libplatform.a(weak_symbol.o)
 .debug_ranges  0x0000000000001a68       0x38 ..\..\platform\libs\libplatform.a(thread_driver.o)
 .debug_ranges  0x0000000000001aa0       0x20 ..\..\platform\libs\libplatform.a(audio_pcm.o)
 .debug_ranges  0x0000000000001ac0       0x38 ..\..\platform\libs\libplatform.a(bt_ota.o)

.debug_line     0x0000000000000000     0xa145
 .debug_line    0x0000000000000000      0x575 ..\..\platform\libs\libplatform.a(audio.o)
 .debug_line    0x0000000000000575      0x501 ..\..\platform\libs\libplatform.a(audio_eq.o)
 .debug_line    0x0000000000000a76      0x6ed ..\..\platform\libs\libplatform.a(audio_karaok.o)
 .debug_line    0x0000000000001163      0x707 ..\..\platform\libs\libplatform.a(dac.o)
 .debug_line    0x000000000000186a      0x248 ..\..\platform\libs\libplatform.a(dac_dnr.o)
 .debug_line    0x0000000000001ab2       0xaf ..\..\platform\libs\libplatform.a(s_dac.o)
 .debug_line    0x0000000000001b61      0x458 ..\..\platform\libs\libplatform.a(sdadc.o)
 .debug_line    0x0000000000001fb9      0x3f0 ..\..\platform\libs\libplatform.a(bt.o)
 .debug_line    0x00000000000023a9      0x42a ..\..\platform\libs\libplatform.a(bt_aec.o)
 .debug_line    0x00000000000027d3      0x401 ..\..\platform\libs\libplatform.a(bt_alc.o)
 .debug_line    0x0000000000002bd4      0x3db ..\..\platform\libs\libplatform.a(bt_rec.o)
 .debug_line    0x0000000000002faf      0x298 ..\..\platform\libs\libplatform.a(bt_sco.o)
 .debug_line    0x0000000000003247      0x234 ..\..\platform\libs\libplatform.a(bt_wnr.o)
 .debug_line    0x000000000000347b       0xc4 ..\..\platform\libs\libplatform.a(s_wnr.o)
 .debug_line    0x000000000000353f      0x551 ..\..\platform\libs\libplatform.a(cm.o)
 .debug_line    0x0000000000003a90      0x24b ..\..\platform\libs\libplatform.a(os_flash.o)
 .debug_line    0x0000000000003cdb      0x221 ..\..\platform\libs\libplatform.a(xcfg.o)
 .debug_line    0x0000000000003efc      0x2c7 ..\..\platform\libs\libplatform.a(device.o)
 .debug_line    0x00000000000041c3      0x402 ..\..\platform\libs\libplatform.a(fmrx.o)
 .debug_line    0x00000000000045c5      0x2da ..\..\platform\libs\libplatform.a(fmrx_ang.o)
 .debug_line    0x000000000000489f      0x327 ..\..\platform\libs\libplatform.a(main.o)
 .debug_line    0x0000000000004bc6      0x4f3 ..\..\platform\libs\libplatform.a(music.o)
 .debug_line    0x00000000000050b9      0x289 ..\..\platform\libs\libplatform.a(music_decrypt.o)
 .debug_line    0x0000000000005342      0x39f ..\..\platform\libs\libplatform.a(music_res.o)
 .debug_line    0x00000000000056e1      0x368 ..\..\platform\libs\libplatform.a(stream.o)
 .debug_line    0x0000000000005a49      0x47d ..\..\platform\libs\libplatform.a(interrupt.o)
 .debug_line    0x0000000000005ec6      0x366 ..\..\platform\libs\libplatform.a(startup.o)
 .debug_line    0x000000000000622c      0x264 ..\..\platform\libs\libplatform.a(sys_hook.o)
 .debug_line    0x0000000000006490      0x103 ..\..\platform\libs\libplatform.a(reset.o)
 .debug_line    0x0000000000006593      0x27a ..\..\platform\libs\libplatform.a(rtc.o)
 .debug_line    0x000000000000680d      0x29b ..\..\platform\libs\libplatform.a(rtc_time.o)
 .debug_line    0x0000000000006aa8      0x3cf ..\..\platform\libs\libplatform.a(sd_api.o)
 .debug_line    0x0000000000006e77      0x2e1 ..\..\platform\libs\libplatform.a(spiflash.o)
 .debug_line    0x0000000000007158      0x303 ..\..\platform\libs\libplatform.a(debug.o)
 .debug_line    0x000000000000745b      0x2ec ..\..\platform\libs\libplatform.a(gpio.o)
 .debug_line    0x0000000000007747      0x2a4 ..\..\platform\libs\libplatform.a(key.o)
 .debug_line    0x00000000000079eb      0x50e ..\..\platform\libs\libplatform.a(lock.o)
 .debug_line    0x0000000000007ef9      0x3b5 ..\..\platform\libs\libplatform.a(power.o)
 .debug_line    0x00000000000082ae       0x94 ..\..\platform\libs\libplatform.a(s_sys.o)
 .debug_line    0x0000000000008342      0x27d ..\..\platform\libs\libplatform.a(saradc.o)
 .debug_line    0x00000000000085bf      0x412 ..\..\platform\libs\libplatform.a(sys.o)
 .debug_line    0x00000000000089d1      0x3b2 ..\..\platform\libs\libplatform.a(sys_clk.o)
 .debug_line    0x0000000000008d83      0x25d ..\..\platform\libs\libplatform.a(sys_msg.o)
 .debug_line    0x0000000000008fe0      0x4e7 ..\..\platform\libs\libplatform.a(update.o)
 .debug_line    0x00000000000094c7      0x22f ..\..\platform\libs\libplatform.a(voltage_trim.o)
 .debug_line    0x00000000000096f6      0x291 ..\..\platform\libs\libplatform.a(weak_symbol.o)
 .debug_line    0x0000000000009987      0x29f ..\..\platform\libs\libplatform.a(thread_driver.o)
 .debug_line    0x0000000000009c26      0x286 ..\..\platform\libs\libplatform.a(audio_pcm.o)
 .debug_line    0x0000000000009eac      0x299 ..\..\platform\libs\libplatform.a(bt_ota.o)

.debug_str      0x0000000000000000     0x7076
 .debug_str     0x0000000000000000      0xa06 ..\..\platform\libs\libplatform.a(audio.o)
                                        0xb11 (size before relaxing)
 .debug_str     0x0000000000000a06      0x3da ..\..\platform\libs\libplatform.a(audio_eq.o)
                                        0xb58 (size before relaxing)
 .debug_str     0x0000000000000de0      0x83a ..\..\platform\libs\libplatform.a(audio_karaok.o)
                                        0xfdf (size before relaxing)
 .debug_str     0x000000000000161a      0x62b ..\..\platform\libs\libplatform.a(dac.o)
                                        0xe87 (size before relaxing)
 .debug_str     0x0000000000001c45       0xcf ..\..\platform\libs\libplatform.a(dac_dnr.o)
                                        0x805 (size before relaxing)
 .debug_str     0x0000000000001d14      0x285 ..\..\platform\libs\libplatform.a(sdadc.o)
                                        0xb75 (size before relaxing)
 .debug_str     0x0000000000001f99      0x7ee ..\..\platform\libs\libplatform.a(bt.o)
                                       0x1191 (size before relaxing)
 .debug_str     0x0000000000002787      0x5a5 ..\..\platform\libs\libplatform.a(bt_aec.o)
                                        0xde2 (size before relaxing)
 .debug_str     0x0000000000002d2c      0x141 ..\..\platform\libs\libplatform.a(bt_alc.o)
                                        0xe1a (size before relaxing)
 .debug_str     0x0000000000002e6d      0x214 ..\..\platform\libs\libplatform.a(bt_rec.o)
                                        0xc7d (size before relaxing)
 .debug_str     0x0000000000003081       0xb5 ..\..\platform\libs\libplatform.a(bt_sco.o)
                                        0x914 (size before relaxing)
 .debug_str     0x0000000000003136       0x62 ..\..\platform\libs\libplatform.a(bt_wnr.o)
                                        0x764 (size before relaxing)
 .debug_str     0x0000000000003198      0x290 ..\..\platform\libs\libplatform.a(cm.o)
                                        0xbc2 (size before relaxing)
 .debug_str     0x0000000000003428       0x66 ..\..\platform\libs\libplatform.a(os_flash.o)
                                        0x775 (size before relaxing)
 .debug_str     0x000000000000348e       0xa9 ..\..\platform\libs\libplatform.a(xcfg.o)
                                        0x76f (size before relaxing)
 .debug_str     0x0000000000003537      0x173 ..\..\platform\libs\libplatform.a(device.o)
                                        0x884 (size before relaxing)
 .debug_str     0x00000000000036aa      0x2cf ..\..\platform\libs\libplatform.a(fmrx.o)
                                        0xa86 (size before relaxing)
 .debug_str     0x0000000000003979       0x66 ..\..\platform\libs\libplatform.a(fmrx_ang.o)
                                        0x732 (size before relaxing)
 .debug_str     0x00000000000039df      0x22b ..\..\platform\libs\libplatform.a(main.o)
                                        0x9b9 (size before relaxing)
 .debug_str     0x0000000000003c0a      0x651 ..\..\platform\libs\libplatform.a(music.o)
                                       0x1208 (size before relaxing)
 .debug_str     0x000000000000425b      0x189 ..\..\platform\libs\libplatform.a(music_decrypt.o)
                                        0x925 (size before relaxing)
 .debug_str     0x00000000000043e4      0x1fa ..\..\platform\libs\libplatform.a(music_res.o)
                                        0xb60 (size before relaxing)
 .debug_str     0x00000000000045de      0x237 ..\..\platform\libs\libplatform.a(stream.o)
                                        0xa8f (size before relaxing)
 .debug_str     0x0000000000004815      0x2b0 ..\..\platform\libs\libplatform.a(interrupt.o)
                                        0xb1d (size before relaxing)
 .debug_str     0x0000000000004ac5      0x3ae ..\..\platform\libs\libplatform.a(startup.o)
                                        0xf23 (size before relaxing)
 .debug_str     0x0000000000004e73       0xc2 ..\..\platform\libs\libplatform.a(sys_hook.o)
                                        0x901 (size before relaxing)
 .debug_str     0x0000000000004f35      0x10a ..\..\platform\libs\libplatform.a(rtc.o)
                                        0x9b1 (size before relaxing)
 .debug_str     0x000000000000503f       0xcd ..\..\platform\libs\libplatform.a(rtc_time.o)
                                        0x82e (size before relaxing)
 .debug_str     0x000000000000510c      0x3b4 ..\..\platform\libs\libplatform.a(sd_api.o)
                                        0xc18 (size before relaxing)
 .debug_str     0x00000000000054c0      0x12f ..\..\platform\libs\libplatform.a(spiflash.o)
                                        0x874 (size before relaxing)
 .debug_str     0x00000000000055ef      0x5e8 ..\..\platform\libs\libplatform.a(debug.o)
                                        0xe56 (size before relaxing)
 .debug_str     0x0000000000005bd7      0x10c ..\..\platform\libs\libplatform.a(gpio.o)
                                        0x7d0 (size before relaxing)
 .debug_str     0x0000000000005ce3      0x163 ..\..\platform\libs\libplatform.a(key.o)
                                        0x86e (size before relaxing)
 .debug_str     0x0000000000005e46      0x46b ..\..\platform\libs\libplatform.a(lock.o)
                                        0xf77 (size before relaxing)
 .debug_str     0x00000000000062b1      0x1eb ..\..\platform\libs\libplatform.a(power.o)
                                        0x924 (size before relaxing)
 .debug_str     0x000000000000649c       0xb2 ..\..\platform\libs\libplatform.a(saradc.o)
                                        0x7c1 (size before relaxing)
 .debug_str     0x000000000000654e      0x1f9 ..\..\platform\libs\libplatform.a(sys.o)
                                        0x8e2 (size before relaxing)
 .debug_str     0x0000000000006747      0x1b7 ..\..\platform\libs\libplatform.a(sys_clk.o)
                                        0x95b (size before relaxing)
 .debug_str     0x00000000000068fe       0xb6 ..\..\platform\libs\libplatform.a(sys_msg.o)
                                        0x7c5 (size before relaxing)
 .debug_str     0x00000000000069b4      0x36d ..\..\platform\libs\libplatform.a(update.o)
                                        0xc19 (size before relaxing)
 .debug_str     0x0000000000006d21       0xbf ..\..\platform\libs\libplatform.a(voltage_trim.o)
                                        0x7d0 (size before relaxing)
 .debug_str     0x0000000000006de0       0x55 ..\..\platform\libs\libplatform.a(weak_symbol.o)
                                        0x8ab (size before relaxing)
 .debug_str     0x0000000000006e35      0x11b ..\..\platform\libs\libplatform.a(thread_driver.o)
                                        0x9d2 (size before relaxing)
 .debug_str     0x0000000000006f50       0x7c ..\..\platform\libs\libplatform.a(audio_pcm.o)
                                        0x92e (size before relaxing)
 .debug_str     0x0000000000006fcc       0xaa ..\..\platform\libs\libplatform.a(bt_ota.o)
                                        0xc16 (size before relaxing)
