
mus_scan.exe:     file format elf32-tradlittlemips

Disassembly of section .text:

bfc27e00 <key_op_entry>:
bfc27e00:	6b08      	li	v1,8
bfc27e02:	e805      	break	0

bfc27e04 <libc_op_entry>:
bfc27e04:	6b10      	li	v1,16
bfc27e06:	e805      	break	0

bfc27e08 <sys_op_entry>:
bfc27e08:	6b0f      	li	v1,15
bfc27e0a:	e805      	break	0

bfc27e0c <vfs_op_entry>:
bfc27e0c:	6b11      	li	v1,17
bfc27e0e:	e805      	break	0

bfc27e10 <dir_count>:
bfc27e10:	664d3319 	0x664d3319
bfc27e14:	ccb39980 	pref	0x13,-26240(a1)

bfc27e18 <info_vram_addr>:
bfc27e18:	00200000 	0x200000
bfc27e1c:	00210000 	0x210000
bfc27e20:	00220000 	0x220000
bfc27e24:	00230000 	0x230000
bfc27e28:	00240000 	0x240000
bfc27e2c:	00250000 	0x250000
bfc27e30:	00260000 	0x260000
bfc27e34:	00270000 	0x270000

bfc27e38 <tail>:
bfc27e38:	04100800 	bltzal	zero,bfc29e3c <g_rec_folder_long+0x1f84>
bfc27e3c:	0008000c 	syscall	0x2000

bfc27e40 <index_vram_addr>:
bfc27e40:	00280000 	0x280000
bfc27e44:	00290000 	0x290000
bfc27e48:	002a0000 	0x2a0000
bfc27e4c:	002b0000 	0x2b0000
bfc27e50:	002c0000 	0x2c0000
bfc27e54:	002d0000 	0x2d0000
bfc27e58:	002e0000 	0x2e0000
bfc27e5c:	002f0000 	0x2f0000

bfc27e60 <uhost_drv_name>:
bfc27e60:	736f6875 	0x736f6875
bfc27e64:	72642e74 	0x72642e74
bfc27e68:	00000076 	tne	zero,zero,0x1

bfc27e6c <card_drv_name>:
bfc27e6c:	64726163 	0x64726163
bfc27e70:	7672642e 	jalx	b9c990b8 <g_vm_file_newest_time+0x1a070f34>
bfc27e74:	00000000 	nop

bfc27e78 <com_load_share_data>:
bfc27e78:	64e3      	save	24,ra,s0
bfc27e7a:	7404      	cmpi	a0,4
bfc27e7c:	6800      	li	s0,0
bfc27e7e:	610a      	btnez	bfc27e94 <com_load_share_data+0x1c>
bfc27e80:	b209      	lw	v0,bfc27ea4 <com_load_share_data+0x2c>
bfc27e82:	2f03      	bnez	a3,bfc27e8a <com_load_share_data+0x12>
bfc27e84:	6785      	move	a0,a1
bfc27e86:	b507      	lw	a1,bfc27ea0 <com_load_share_data+0x28>
bfc27e88:	1002      	b	bfc27e8e <com_load_share_data+0x16>
bfc27e8a:	6785      	move	a0,a1
bfc27e8c:	b507      	lw	a1,bfc27ea8 <com_load_share_data+0x30>
bfc27e8e:	ea40      	jalr	v0
bfc27e90:	67f0      	move	a3,s0
bfc27e92:	1002      	b	bfc27e98 <com_load_share_data+0x20>
bfc27e94:	6801      	li	s0,1
bfc27e96:	e80b      	neg	s0
bfc27e98:	6750      	move	v0,s0
bfc27e9a:	6463      	restore	24,ra,s0
bfc27e9c:	e8a0      	jrc	ra
bfc27e9e:	0000      	addiu	s0,sp,0
bfc27ea0:	7eac      	sd	a1,96(a2)
bfc27ea2:	bfc2      	lwu	a2,8(a3)
bfc27ea4:	7e05      	sd	s0,40(a2)
bfc27ea6:	bfc2      	lwu	a2,8(a3)
bfc27ea8:	7eb8      	sd	a1,192(a2)
bfc27eaa:	bfc2      	lwu	a2,8(a3)

bfc27eac <g_rec_folder_short>:
bfc27eac:	4f434552 	c3	0x1434552
bfc27eb0:	20204452 	addi	zero,at,17490
bfc27eb4:	00000000 	nop

bfc27eb8 <g_rec_folder_long>:
bfc27eb8:	0052feff 	0x52feff
bfc27ebc:	00430045 	0x430045
bfc27ec0:	0052004f 	0x52004f
bfc27ec4:	00000044 	0x44
Disassembly of section .data:

9fc27ec8 <g_fs_mount_id>:
9fc27ec8:	ffffffff 	sdc3	$31,-1(ra)
Disassembly of section .bss:

9fc27ecc <g_scan_thread_task_addr>:
9fc27ecc:	00000000 	nop

9fc27ed0 <g_scan_error>:
	...

9fc27ed1 <g_scan_end>:
	...

9fc27ed2 <g_scan_dir_index>:
	...

9fc27ed3 <g_scan_disk>:
	...

9fc27ed4 <s_rec_folder_short>:
	...

9fc27ede <g_dir_total>:
	...

9fc27ee0 <g_file_total>:
	...

9fc27ee2 <g_dir_layer>:
	...

9fc27ee4 <g_dir_file_no>:
9fc27ee4:	00000000 	nop

9fc27ee8 <s_rec_folder_long>:
	...

9fc27efc <g_pscan_handle>:
9fc27efc:	00000000 	nop

9fc27f00 <s_plist>:
9fc27f00:	00000000 	nop

9fc27f04 <s_phead>:
9fc27f04:	00000000 	nop

9fc27f08 <g_scan_cur_timer>:
9fc27f08:	00000000 	nop

9fc27f0c <g_dir_layer_info>:
	...

9fc27f58 <s_buf>:
	...

9fc28170 <g_scan_param>:
	...

9fc2817c <g_vfs_changed>:
9fc2817c:	00000000 	nop

9fc28180 <g_file_newest_time>:
9fc28180:	00000000 	nop

9fc28184 <g_vm_file_newest_time>:
	...
Disassembly of section BANK_BASAL_1_0:

5000b000 <music_scan_open>:
5000b000:	64f6      	save	48,ra,s0-s1
5000b002:	6704      	move	s0,a0
5000b004:	b32e      	lw	v1,5000b0bc <BANK_BASAL_ADDR_BASE+0xbc>
5000b006:	b42d      	lw	a0,5000b0b8 <BANK_BASAL_ADDR_BASE+0xb8>
5000b008:	6d00      	li	a1,0
5000b00a:	6e0c      	li	a2,12
5000b00c:	eb40      	jalr	v1
5000b00e:	6f01      	li	a3,1
5000b010:	6d00      	li	a1,0
5000b012:	b42a      	lw	a0,5000b0b8 <BANK_BASAL_ADDR_BASE+0xb8>
5000b014:	b12a      	lw	s1,5000b0bc <BANK_BASAL_ADDR_BASE+0xbc>
5000b016:	67c5      	move	a2,a1
5000b018:	e940      	jalr	s1
5000b01a:	6f17      	li	a3,23
5000b01c:	b229      	lw	v0,5000b0c0 <BANK_BASAL_ADDR_BASE+0xc0>
5000b01e:	b12b      	lw	s1,5000b0c8 <BANK_BASAL_ADDR_BASE+0xc8>
5000b020:	d005      	sw	s0,20(sp)
5000b022:	f500 6800 	li	s0,1280
5000b026:	6790      	move	a0,s0
5000b028:	6d20      	li	a1,32
5000b02a:	6e00      	li	a2,0
5000b02c:	6f16      	li	a3,22
5000b02e:	e940      	jalr	s1
5000b030:	d204      	sw	v0,16(sp)
5000b032:	b525      	lw	a1,5000b0c4 <BANK_BASAL_ADDR_BASE+0xc4>
5000b034:	677d      	move	v1,sp
5000b036:	f500 4280 	addiu	a0,v0,1280
5000b03a:	cb0e      	sh	s0,28(v1)
5000b03c:	dd40      	sw	v0,0(a1)
5000b03e:	d406      	sw	a0,24(sp)
5000b040:	67a2      	move	a1,v0
5000b042:	0c16      	la	a0,5000b098 <BANK_BASAL_ADDR_BASE+0x98>
5000b044:	6e02      	li	a2,2
5000b046:	e940      	jalr	s1
5000b048:	6f4b      	li	a3,75
5000b04a:	6c00      	li	a0,0
5000b04c:	67a4      	move	a1,a0
5000b04e:	67c4      	move	a2,a0
5000b050:	e940      	jalr	s1
5000b052:	6f33      	li	a3,51
5000b054:	0404      	addiu	a0,sp,16
5000b056:	6d09      	li	a1,9
5000b058:	6eff      	li	a2,255
5000b05a:	e940      	jalr	s1
5000b05c:	6f4a      	li	a3,74
5000b05e:	5200      	slti	v0,0
5000b060:	600e      	bteqz	5000b07e <BANK_BASAL_ADDR_BASE+0x7e>
5000b062:	b616      	lw	a2,5000b0b8 <BANK_BASAL_ADDR_BASE+0xb8>
5000b064:	6d00      	li	a1,0
5000b066:	9e81      	lw	a0,4(a2)
5000b068:	b315      	lw	v1,5000b0bc <BANK_BASAL_ADDR_BASE+0xbc>
5000b06a:	67c5      	move	a2,a1
5000b06c:	eb40      	jalr	v1
5000b06e:	6f11      	li	a3,17
5000b070:	6c00      	li	a0,0
5000b072:	67a4      	move	a1,a0
5000b074:	67c4      	move	a2,a0
5000b076:	e940      	jalr	s1
5000b078:	6f34      	li	a3,52
5000b07a:	6a00      	li	v0,0
5000b07c:	100b      	b	5000b094 <BANK_BASAL_ADDR_BASE+0x94>
5000b07e:	6d00      	li	a1,0
5000b080:	67c5      	move	a2,a1
5000b082:	0c0b      	la	a0,5000b0ac <BANK_BASAL_ADDR_BASE+0xac>
5000b084:	e940      	jalr	s1
5000b086:	6f4b      	li	a3,75
5000b088:	6c00      	li	a0,0
5000b08a:	67a4      	move	a1,a0
5000b08c:	67c4      	move	a2,a0
5000b08e:	e940      	jalr	s1
5000b090:	6f34      	li	a3,52
5000b092:	b20a      	lw	v0,5000b0b8 <BANK_BASAL_ADDR_BASE+0xb8>
5000b094:	6476      	restore	48,ra,s0-s1
5000b096:	e8a0      	jrc	ra
5000b098:	6373      	addiu	sp,920
5000b09a:	6e61      	li	a2,97
5000b09c:	7420      	cmpi	a0,32
5000b09e:	7268      	cmpi	v0,104
5000b0a0:	6165      	btnez	5000b16c <music_scan_fs_init+0x38>
5000b0a2:	2064      	beqz	s0,5000b16c <music_scan_fs_init+0x38>
5000b0a4:	6461      	restore	8,ra,s0
5000b0a6:	7264      	cmpi	v0,100
5000b0a8:	003a      	addiu	s0,sp,232
5000b0aa:	0000      	addiu	s0,sp,0
5000b0ac:	6373      	addiu	sp,920
5000b0ae:	6e61      	li	a2,97
5000b0b0:	6220      	sw	ra,128(sp)
5000b0b2:	6765      	move	v1,a1
5000b0b4:	6e69      	li	a2,105
5000b0b6:	0000      	addiu	s0,sp,0
5000b0b8:	8170      	lb	v1,16(s1)
5000b0ba:	9fc2      	lw	a2,8(a3)
5000b0bc:	7e05      	sd	s0,40(a2)
5000b0be:	bfc2      	lwu	a2,8(a3)
5000b0c0:	b609      	lw	a2,5000b0e4 <music_scan_close+0x18>
5000b0c2:	5004      	slti	s0,4
5000b0c4:	7ecc      	sd	a2,96(a2)
5000b0c6:	9fc2      	lw	a2,8(a3)
5000b0c8:	7e09      	sd	s0,72(a2)
5000b0ca:	bfc2      	lwu	a2,8(a3)

5000b0cc <music_scan_close>:
5000b0cc:	64f4      	save	32,ra,s0-s1
5000b0ce:	6704      	move	s0,a0
5000b0d0:	2420      	beqz	a0,5000b112 <music_scan_close+0x46>
5000b0d2:	6a01      	li	v0,1
5000b0d4:	dc42      	sw	v0,8(a0)
5000b0d6:	6d00      	li	a1,0
5000b0d8:	9880      	lw	a0,0(s0)
5000b0da:	b114      	lw	s1,5000b128 <music_scan_close+0x5c>
5000b0dc:	67c5      	move	a2,a1
5000b0de:	e940      	jalr	s1
5000b0e0:	6f1a      	li	a3,26
5000b0e2:	6d00      	li	a1,0
5000b0e4:	b212      	lw	v0,5000b12c <music_scan_close+0x60>
5000b0e6:	67c5      	move	a2,a1
5000b0e8:	6c01      	li	a0,1
5000b0ea:	ea40      	jalr	v0
5000b0ec:	6f31      	li	a3,49
5000b0ee:	6d00      	li	a1,0
5000b0f0:	9880      	lw	a0,0(s0)
5000b0f2:	67c5      	move	a2,a1
5000b0f4:	e940      	jalr	s1
5000b0f6:	6f19      	li	a3,25
5000b0f8:	9862      	lw	v1,8(s0)
5000b0fa:	7301      	cmpi	v1,1
5000b0fc:	60ec      	bteqz	5000b0d6 <music_scan_close+0xa>
5000b0fe:	6d00      	li	a1,0
5000b100:	9880      	lw	a0,0(s0)
5000b102:	67c5      	move	a2,a1
5000b104:	e940      	jalr	s1
5000b106:	6f1a      	li	a3,26
5000b108:	6d00      	li	a1,0
5000b10a:	6790      	move	a0,s0
5000b10c:	67c5      	move	a2,a1
5000b10e:	e940      	jalr	s1
5000b110:	6f18      	li	a3,24
5000b112:	b508      	lw	a1,5000b130 <music_scan_close+0x64>
5000b114:	b206      	lw	v0,5000b12c <music_scan_close+0x60>
5000b116:	9d80      	lw	a0,0(a1)
5000b118:	6e00      	li	a2,0
5000b11a:	6d20      	li	a1,32
5000b11c:	ea40      	jalr	v0
5000b11e:	6f17      	li	a3,23
5000b120:	6a00      	li	v0,0
5000b122:	6474      	restore	32,ra,s0-s1
5000b124:	e8a0      	jrc	ra
5000b126:	0000      	addiu	s0,sp,0
5000b128:	7e05      	sd	s0,40(a2)
5000b12a:	bfc2      	lwu	a2,8(a3)
5000b12c:	7e09      	sd	s0,72(a2)
5000b12e:	bfc2      	lwu	a2,8(a3)
5000b130:	7ecc      	sd	a2,96(a2)
5000b132:	9fc2      	lw	a2,8(a3)

5000b134 <music_scan_fs_init>:
5000b134:	64f5      	save	40,ra,s0-s1
5000b136:	6724      	move	s1,a0
5000b138:	e911      	zeb	s1
5000b13a:	b216      	lw	v0,5000b190 <music_scan_fs_init+0x5c>
5000b13c:	7110      	cmpi	s1,16
5000b13e:	ed11      	zeb	a1
5000b140:	c223      	sb	s1,3(v0)
5000b142:	6104      	btnez	5000b14c <music_scan_fs_init+0x18>
5000b144:	b614      	lw	a2,5000b194 <music_scan_fs_init+0x60>
5000b146:	6b01      	li	v1,1
5000b148:	d304      	sw	v1,16(sp)
5000b14a:	1007      	b	5000b15a <music_scan_fs_init+0x26>
5000b14c:	6c01      	li	a0,1
5000b14e:	7120      	cmpi	s1,32
5000b150:	ea8b      	neg	v0,a0
5000b152:	611c      	btnez	5000b18c <music_scan_fs_init+0x58>
5000b154:	6e02      	li	a2,2
5000b156:	d604      	sw	a2,16(sp)
5000b158:	b610      	lw	a2,5000b198 <music_scan_fs_init+0x64>
5000b15a:	b011      	lw	s0,5000b19c <music_scan_fs_init+0x68>
5000b15c:	9404      	lw	a0,16(sp)
5000b15e:	e840      	jalr	s0
5000b160:	6f0a      	li	a3,10
5000b162:	6702      	move	s0,v0
5000b164:	6d01      	li	a1,1
5000b166:	eaab      	neg	v0,a1
5000b168:	2811      	bnez	s0,5000b18c <music_scan_fs_init+0x58>
5000b16a:	67b1      	move	a1,s1
5000b16c:	9404      	lw	a0,16(sp)
5000b16e:	b10c      	lw	s1,5000b19c <music_scan_fs_init+0x68>
5000b170:	6f29      	li	a3,41
5000b172:	e940      	jalr	s1
5000b174:	67d0      	move	a2,s0
5000b176:	6722      	move	s1,v0
5000b178:	e991      	seb	s1
5000b17a:	ef2f      	not	a3,s1
5000b17c:	2f06      	bnez	a3,5000b18a <music_scan_fs_init+0x56>
5000b17e:	9404      	lw	a0,16(sp)
5000b180:	b307      	lw	v1,5000b19c <music_scan_fs_init+0x68>
5000b182:	67b0      	move	a1,s0
5000b184:	67d0      	move	a2,s0
5000b186:	eb40      	jalr	v1
5000b188:	6f0b      	li	a3,11
5000b18a:	6751      	move	v0,s1
5000b18c:	6475      	restore	40,ra,s0-s1
5000b18e:	e8a0      	jrc	ra
5000b190:	7ed0      	sd	a2,128(a2)
5000b192:	9fc2      	lw	a2,8(a3)
5000b194:	7e6c      	sd	v1,96(a2)
5000b196:	bfc2      	lwu	a2,8(a3)
5000b198:	7e60      	sd	v1,0(a2)
5000b19a:	bfc2      	lwu	a2,8(a3)
5000b19c:	7e09      	sd	s0,72(a2)
5000b19e:	bfc2      	lwu	a2,8(a3)

5000b1a0 <music_file_init>:
5000b1a0:	64f5      	save	40,ra,s0-s1
5000b1a2:	6800      	li	s0,0
5000b1a4:	ec11      	zeb	a0
5000b1a6:	1800 2c4d 	jal	5000b134 <music_scan_fs_init>
5000b1aa:	67b0      	move	a1,s0
5000b1ac:	b31a      	lw	v1,5000b214 <music_file_init+0x74>
5000b1ae:	6782      	move	a0,v0
5000b1b0:	db40      	sw	v0,0(v1)
5000b1b2:	ea4f      	not	v0
5000b1b4:	222b      	beqz	v0,5000b20c <music_file_init+0x6c>
5000b1b6:	6f00      	li	a3,0
5000b1b8:	b118      	lw	s1,5000b218 <music_file_init+0x78>
5000b1ba:	d704      	sw	a3,16(sp)
5000b1bc:	6d3a      	li	a1,58
5000b1be:	e940      	jalr	s1
5000b1c0:	67c7      	move	a2,a3
5000b1c2:	b117      	lw	s1,5000b21c <music_file_init+0x7c>
5000b1c4:	4001      	addiu	s0,s0,1
5000b1c6:	a142      	lbu	v0,2(s1)
5000b1c8:	72ff      	cmpi	v0,255
5000b1ca:	6020      	bteqz	5000b20c <music_file_init+0x6c>
5000b1cc:	7280      	cmpi	v0,128
5000b1ce:	6114      	btnez	5000b1f8 <music_file_init+0x58>
5000b1d0:	b511      	lw	a1,5000b214 <music_file_init+0x74>
5000b1d2:	67d1      	move	a2,s1
5000b1d4:	9d80      	lw	a0,0(a1)
5000b1d6:	b311      	lw	v1,5000b218 <music_file_init+0x78>
5000b1d8:	d004      	sw	s0,16(sp)
5000b1da:	6d82      	li	a1,130
5000b1dc:	4e18      	addiu	a2,24
5000b1de:	eb40      	jalr	v1
5000b1e0:	67f0      	move	a3,s0
5000b1e2:	2a0a      	bnez	v0,5000b1f8 <music_file_init+0x58>
5000b1e4:	b60c      	lw	a2,5000b214 <music_file_init+0x74>
5000b1e6:	b30d      	lw	v1,5000b218 <music_file_init+0x78>
5000b1e8:	9e80      	lw	a0,0(a2)
5000b1ea:	6d82      	li	a1,130
5000b1ec:	d004      	sw	s0,16(sp)
5000b1ee:	41c4      	addiu	a2,s1,4
5000b1f0:	eb40      	jalr	v1
5000b1f2:	67f0      	move	a3,s0
5000b1f4:	2a01      	bnez	v0,5000b1f8 <music_file_init+0x58>
5000b1f6:	6702      	move	s0,v0
5000b1f8:	7001      	cmpi	s0,1
5000b1fa:	6108      	btnez	5000b20c <music_file_init+0x6c>
5000b1fc:	b706      	lw	a3,5000b214 <music_file_init+0x74>
5000b1fe:	b207      	lw	v0,5000b218 <music_file_init+0x78>
5000b200:	9f80      	lw	a0,0(a3)
5000b202:	6f00      	li	a3,0
5000b204:	d704      	sw	a3,16(sp)
5000b206:	6d2f      	li	a1,47
5000b208:	ea40      	jalr	v0
5000b20a:	67c7      	move	a2,a3
5000b20c:	6750      	move	v0,s0
5000b20e:	6475      	restore	40,ra,s0-s1
5000b210:	e8a0      	jrc	ra
5000b212:	0000      	addiu	s0,sp,0
5000b214:	7ec8      	sd	a2,64(a2)
5000b216:	9fc2      	lw	a2,8(a3)
5000b218:	7e0d      	sd	s0,104(a2)
5000b21a:	bfc2      	lwu	a2,8(a3)
5000b21c:	7ed0      	sd	a2,128(a2)
5000b21e:	9fc2      	lw	a2,8(a3)

5000b220 <music_scan_init>:
5000b220:	64f5      	save	40,ra,s0-s1
5000b222:	b11f      	lw	s1,5000b29c <music_scan_init+0x7c>
5000b224:	6704      	move	s0,a0
5000b226:	6d0b      	li	a1,11
5000b228:	6c09      	li	a0,9
5000b22a:	6e00      	li	a2,0
5000b22c:	e940      	jalr	s1
5000b22e:	6f03      	li	a3,3
5000b230:	a060      	lbu	v1,0(s0)
5000b232:	d304      	sw	v1,16(sp)
5000b234:	a041      	lbu	v0,1(s0)
5000b236:	b31b      	lw	v1,5000b2a0 <music_scan_init+0x80>
5000b238:	4af5      	addiu	v0,-11
5000b23a:	5a02      	sltiu	v0,2
5000b23c:	6a80      	li	v0,128
5000b23e:	ea4b      	neg	v0
5000b240:	6102      	btnez	5000b246 <music_scan_init+0x26>
5000b242:	6a01      	li	v0,1
5000b244:	ea4b      	neg	v0
5000b246:	b017      	lw	s0,5000b2a0 <music_scan_init+0x80>
5000b248:	c342      	sb	v0,2(v1)
5000b24a:	f080 4028 	addiu	s1,s0,136
5000b24e:	67b1      	move	a1,s1
5000b250:	4d0c      	addiu	a1,12
5000b252:	d8ac      	sw	a1,48(s0)
5000b254:	b515      	lw	a1,5000b2a8 <music_scan_init+0x88>
5000b256:	b414      	lw	a0,5000b2a4 <music_scan_init+0x84>
5000b258:	b215      	lw	v0,5000b2ac <music_scan_init+0x8c>
5000b25a:	4d08      	addiu	a1,8
5000b25c:	6e04      	li	a2,4
5000b25e:	ea40      	jalr	v0
5000b260:	6f12      	li	a3,18
5000b262:	b214      	lw	v0,5000b2b0 <music_scan_init+0x90>
5000b264:	6791      	move	a0,s1
5000b266:	6d00      	li	a1,0
5000b268:	f200 6e18 	li	a2,536
5000b26c:	ea40      	jalr	v0
5000b26e:	6f01      	li	a3,1
5000b270:	b111      	lw	s1,5000b2b4 <music_scan_init+0x94>
5000b272:	40a4      	addiu	a1,s0,4
5000b274:	6c04      	li	a0,4
5000b276:	6e08      	li	a2,8
5000b278:	e940      	jalr	s1
5000b27a:	6f00      	li	a3,0
5000b27c:	67b0      	move	a1,s0
5000b27e:	4d18      	addiu	a1,24
5000b280:	6e10      	li	a2,16
5000b282:	6f01      	li	a3,1
5000b284:	e940      	jalr	s1
5000b286:	6c04      	li	a0,4
5000b288:	1800 2c68 	jal	5000b1a0 <music_file_init>
5000b28c:	9404      	lw	a0,16(sp)
5000b28e:	6c00      	li	a0,0
5000b290:	c080      	sb	a0,0(s0)
5000b292:	4001      	addiu	s0,s0,1
5000b294:	c080      	sb	a0,0(s0)
5000b296:	6475      	restore	40,ra,s0-s1
5000b298:	e8a0      	jrc	ra
5000b29a:	0000      	addiu	s0,sp,0
5000b29c:	7e01      	sd	s0,8(a2)
5000b29e:	bfc2      	lwu	a2,8(a3)
5000b2a0:	7ed0      	sd	a2,128(a2)
5000b2a2:	9fc2      	lw	a2,8(a3)
5000b2a4:	8184      	lb	a0,4(s1)
5000b2a6:	9fc2      	lw	a2,8(a3)
5000b2a8:	0000      	addiu	s0,sp,0
5000b2aa:	0020      	addiu	s0,sp,128
5000b2ac:	7e09      	sd	s0,72(a2)
5000b2ae:	bfc2      	lwu	a2,8(a3)
5000b2b0:	7e05      	sd	s0,40(a2)
5000b2b2:	bfc2      	lwu	a2,8(a3)
5000b2b4:	7e79      	sd	v1,200(a2)
5000b2b6:	bfc2      	lwu	a2,8(a3)

5000b2b8 <music_scan_cmd>:
5000b2b8:	f00c 64f4 	save	a0-a2,32,ra,s0-s1
5000b2bc:	6705      	move	s0,a1
5000b2be:	b424      	lw	a0,5000b34c <.L148+0xa>
5000b2c0:	b222      	lw	v0,5000b348 <.L148+0x6>
5000b2c2:	e811      	zeb	s0
5000b2c4:	6900      	li	s1,0
5000b2c6:	da8b      	sw	a0,44(v0)
5000b2c8:	280d      	bnez	s0,5000b2e4 <music_scan_cmd+0x2c>
5000b2ca:	1800 2c00 	jal	5000b000 <BANK_BASAL_ADDR_BASE>
5000b2ce:	6786      	move	a0,a2
5000b2d0:	2a04      	bnez	v0,5000b2da <music_scan_cmd+0x22>
5000b2d2:	9308      	lw	v1,32(sp)
5000b2d4:	db20      	sw	s1,0(v1)
5000b2d6:	412f      	addiu	s1,s1,-1
5000b2d8:	1034      	b	5000b342 <.L148>
5000b2da:	b61c      	lw	a2,5000b348 <.L148+0x6>
5000b2dc:	9408      	lw	a0,32(sp)
5000b2de:	9eab      	lw	a1,44(a2)
5000b2e0:	dca0      	sw	a1,0(a0)
5000b2e2:	102f      	b	5000b342 <.L148>
5000b2e4:	9c80      	lw	a0,0(a0)
5000b2e6:	b31b      	lw	v1,5000b350 <.L148+0xe>
5000b2e8:	67b1      	move	a1,s1
5000b2ea:	67d1      	move	a2,s1
5000b2ec:	eb40      	jalr	v1
5000b2ee:	6f19      	li	a3,25
5000b2f0:	7001      	cmpi	s0,1
5000b2f2:	6018      	bteqz	5000b324 <music_scan_cmd+0x6c>
5000b2f4:	7002      	cmpi	s0,2
5000b2f6:	611b      	btnez	5000b32e <music_scan_cmd+0x76>
5000b2f8:	b414      	lw	a0,5000b348 <.L148+0x6>
5000b2fa:	b717      	lw	a3,5000b354 <.L148+0x12>
5000b2fc:	a440      	lbu	v0,0(a0)
5000b2fe:	a760      	lbu	v1,0(a3)
5000b300:	a4a1      	lbu	a1,1(a0)
5000b302:	3664      	sll	a2,v1,1
5000b304:	ed4d      	or	a1,v0
5000b306:	920a      	lw	v0,40(sp)
5000b308:	edcd      	or	a1,a2
5000b30a:	c2a0      	sb	a1,0(v0)
5000b30c:	a4e0      	lbu	a3,0(a0)
5000b30e:	7780      	cmpi	a3,128
5000b310:	6110      	btnez	5000b332 <music_scan_cmd+0x7a>
5000b312:	4c7f      	addiu	a0,127
5000b314:	b30f      	lw	v1,5000b350 <.L148+0xe>
5000b316:	4c09      	addiu	a0,9
5000b318:	67b1      	move	a1,s1
5000b31a:	f200 6e18 	li	a2,536
5000b31e:	eb40      	jalr	v1
5000b320:	6f01      	li	a3,1
5000b322:	1007      	b	5000b332 <music_scan_cmd+0x7a>
5000b324:	1800 2c33 	jal	5000b0cc <music_scan_close>
5000b328:	9408      	lw	a0,32(sp)
5000b32a:	6722      	move	s1,v0
5000b32c:	100a      	b	5000b342 <.L148>
5000b32e:	6901      	li	s1,1
5000b330:	e92b      	neg	s1
5000b332:	b406      	lw	a0,5000b348 <.L148+0x6>
5000b334:	b207      	lw	v0,5000b350 <.L148+0xe>
5000b336:	9cab      	lw	a1,44(a0)
5000b338:	6f1a      	li	a3,26
5000b33a:	9d80      	lw	a0,0(a1)
5000b33c:	6d00      	li	a1,0
5000b33e:	ea40      	jalr	v0
5000b340:	67c5      	move	a2,a1

5000b342 <.L148>:
5000b342:	6751      	move	v0,s1
5000b344:	6474      	restore	32,ra,s0-s1
5000b346:	e8a0      	jrc	ra
5000b348:	7ed0      	sd	a2,128(a2)
5000b34a:	9fc2      	lw	a2,8(a3)
5000b34c:	8170      	lb	v1,16(s1)
5000b34e:	9fc2      	lw	a2,8(a3)
5000b350:	7e05      	sd	s0,40(a2)
5000b352:	bfc2      	lwu	a2,8(a3)
5000b354:	817c      	lb	v1,28(s1)
5000b356:	9fc2      	lw	a2,8(a3)
	...
Disassembly of section BANK_BASAL_1_1:

5004b000 <music_scan_exit>:
5004b000:	f008 64f4 	save	a0-a1,32,ra,s0-s1
5004b004:	6800      	li	s0,0
5004b006:	b213      	lw	v0,5004b050 <music_scan_exit+0x50>
5004b008:	6724      	move	s1,a0
5004b00a:	67b0      	move	a1,s0
5004b00c:	6c09      	li	a0,9
5004b00e:	67d0      	move	a2,s0
5004b010:	ea40      	jalr	v0
5004b012:	6f03      	li	a3,3
5004b014:	9309      	lw	v1,36(sp)
5004b016:	e911      	zeb	s1
5004b018:	ea6f      	not	v0,v1
5004b01a:	2216      	beqz	v0,5004b048 <music_scan_exit+0x48>
5004b01c:	b20e      	lw	v0,5004b054 <music_scan_exit+0x54>
5004b01e:	6783      	move	a0,v1
5004b020:	67b0      	move	a1,s0
5004b022:	67d0      	move	a2,s0
5004b024:	ea40      	jalr	v0
5004b026:	6f2a      	li	a3,42
5004b028:	2a0c      	bnez	v0,5004b042 <music_scan_exit+0x42>
5004b02a:	7110      	cmpi	s1,16
5004b02c:	6c01      	li	a0,1
5004b02e:	6004      	bteqz	5004b038 <music_scan_exit+0x38>
5004b030:	7120      	cmpi	s1,32
5004b032:	4481      	addiu	a0,a0,1
5004b034:	6750      	move	v0,s0
5004b036:	6109      	btnez	5004b04a <music_scan_exit+0x4a>
5004b038:	6d00      	li	a1,0
5004b03a:	b207      	lw	v0,5004b054 <music_scan_exit+0x54>
5004b03c:	67c5      	move	a2,a1
5004b03e:	ea40      	jalr	v0
5004b040:	6f0b      	li	a3,11
5004b042:	5200      	slti	v0,0
5004b044:	6a00      	li	v0,0
5004b046:	6101      	btnez	5004b04a <music_scan_exit+0x4a>
5004b048:	6a01      	li	v0,1
5004b04a:	6474      	restore	32,ra,s0-s1
5004b04c:	e8a0      	jrc	ra
5004b04e:	0000      	addiu	s0,sp,0
5004b050:	7e01      	sd	s0,8(a2)
5004b052:	bfc2      	lwu	a2,8(a3)
5004b054:	7e09      	sd	s0,72(a2)
5004b056:	bfc2      	lwu	a2,8(a3)

5004b058 <music_dirinfo_tovm>:
5004b058:	64f4      	save	32,ra,s0-s1
5004b05a:	b10e      	lw	s1,5004b090 <music_dirinfo_tovm+0x38>
5004b05c:	651c      	move	t8,a0
5004b05e:	497f      	addiu	s1,127
5004b060:	6705      	move	s0,a1
5004b062:	4909      	addiu	s1,9
5004b064:	b20c      	lw	v0,5004b094 <music_dirinfo_tovm+0x3c>
5004b066:	e811      	zeb	s0
5004b068:	6791      	move	a0,s1
5004b06a:	67b8      	move	a1,t8
5004b06c:	f200 6e00 	li	a2,512
5004b070:	ea40      	jalr	v0
5004b072:	6f13      	li	a3,19
5004b074:	2008      	beqz	s0,5004b086 <music_dirinfo_tovm+0x2e>
5004b076:	b507      	lw	a1,5004b090 <music_dirinfo_tovm+0x38>
5004b078:	b208      	lw	v0,5004b098 <music_dirinfo_tovm+0x40>
5004b07a:	6791      	move	a0,s1
5004b07c:	f280 4d08 	addiu	a1,648
5004b080:	67d0      	move	a2,s0
5004b082:	ea40      	jalr	v0
5004b084:	6f00      	li	a3,0
5004b086:	b303      	lw	v1,5004b090 <music_dirinfo_tovm+0x38>
5004b088:	e031      	addu	a0,s0,s1
5004b08a:	db8c      	sw	a0,48(v1)
5004b08c:	6474      	restore	32,ra,s0-s1
5004b08e:	e8a0      	jrc	ra
5004b090:	7ed0      	sd	a2,128(a2)
5004b092:	9fc2      	lw	a2,8(a3)
5004b094:	7e09      	sd	s0,72(a2)
5004b096:	bfc2      	lwu	a2,8(a3)
5004b098:	7e05      	sd	s0,40(a2)
5004b09a:	bfc2      	lwu	a2,8(a3)

5004b09c <music_store_dirinfo>:
5004b09c:	64f6      	save	48,ra,s0-s1
5004b09e:	b32f      	lw	v1,5004b158 <music_store_dirinfo+0xbc>
5004b0a0:	b127      	lw	s1,5004b13c <music_store_dirinfo+0xa0>
5004b0a2:	ab40      	lhu	v0,0(v1)
5004b0a4:	6b00      	li	v1,0
5004b0a6:	5acc      	sltiu	v0,204
5004b0a8:	6046      	bteqz	5004b136 <music_store_dirinfo+0x9a>
5004b0aa:	a908      	lhu	s0,16(s1)
5004b0ac:	998c      	lw	a0,48(s1)
5004b0ae:	b625      	lw	a2,5004b140 <music_store_dirinfo+0xa4>
5004b0b0:	b32a      	lw	v1,5004b158 <music_store_dirinfo+0xbc>
5004b0b2:	40e1      	addiu	a3,s0,1
5004b0b4:	4241      	addiu	v0,v0,1
5004b0b6:	6711      	move	s0,s1
5004b0b8:	cb40      	sh	v0,0(v1)
5004b0ba:	483c      	addiu	s0,60
5004b0bc:	cce0      	sh	a3,0(a0)
5004b0be:	6d03      	li	a1,3
5004b0c0:	9e80      	lw	a0,0(a2)
5004b0c2:	b221      	lw	v0,5004b144 <music_store_dirinfo+0xa8>
5004b0c4:	d504      	sw	a1,16(sp)
5004b0c6:	0606      	addiu	a2,sp,24
5004b0c8:	67b0      	move	a1,s0
5004b0ca:	ea40      	jalr	v0
5004b0cc:	6f00      	li	a3,0
5004b0ce:	f040 a0a8 	lbu	a1,72(s0)
5004b0d2:	994c      	lw	v0,48(s1)
5004b0d4:	c2a2      	sb	a1,2(v0)
5004b0d6:	2503      	beqz	a1,5004b0de <music_store_dirinfo+0x42>
5004b0d8:	45cf      	addiu	a2,a1,-1
5004b0da:	67a6      	move	a1,a2
5004b0dc:	ed11      	zeb	a1
5004b0de:	998c      	lw	a0,48(s1)
5004b0e0:	37ac      	sll	a3,a1,3
5004b0e2:	e715      	addu	a1,a3,s0
5004b0e4:	b019      	lw	s0,5004b148 <music_store_dirinfo+0xac>
5004b0e6:	4484      	addiu	a0,a0,4
5004b0e8:	6e08      	li	a2,8
5004b0ea:	e840      	jalr	s0
5004b0ec:	6f00      	li	a3,0
5004b0ee:	998c      	lw	a0,48(s1)
5004b0f0:	0506      	addiu	a1,sp,24
5004b0f2:	4c0c      	addiu	a0,12
5004b0f4:	6e08      	li	a2,8
5004b0f6:	e840      	jalr	s0
5004b0f8:	6f00      	li	a3,0
5004b0fa:	b518      	lw	a1,5004b158 <music_store_dirinfo+0xbc>
5004b0fc:	6c00      	li	a0,0
5004b0fe:	ad60      	lhu	v1,0(a1)
5004b100:	b513      	lw	a1,5004b14c <music_store_dirinfo+0xb0>
5004b102:	67d1      	move	a2,s1
5004b104:	e4bd      	addu	a3,a0,a1
5004b106:	a740      	lbu	v0,0(a3)
5004b108:	ea6e      	xor	v0,v1
5004b10a:	2205      	beqz	v0,5004b116 <music_store_dirinfo+0x7a>
5004b10c:	4441      	addiu	v0,a0,1
5004b10e:	6782      	move	a0,v0
5004b110:	ec11      	zeb	a0
5004b112:	5c08      	sltiu	a0,8
5004b114:	61f7      	btnez	5004b104 <music_store_dirinfo+0x68>
5004b116:	7408      	cmpi	a0,8
5004b118:	6104      	btnez	5004b122 <music_store_dirinfo+0x86>
5004b11a:	9e6c      	lw	v1,48(a2)
5004b11c:	4b14      	addiu	v1,20
5004b11e:	de6c      	sw	v1,48(a2)
5004b120:	1009      	b	5004b134 <music_store_dirinfo+0x98>
5004b122:	b20c      	lw	v0,5004b150 <music_store_dirinfo+0xb4>
5004b124:	b70c      	lw	a3,5004b154 <music_store_dirinfo+0xb8>
5004b126:	3388      	sll	v1,a0,2
5004b128:	e355      	addu	a1,v1,v0
5004b12a:	e4f9      	addu	a2,a0,a3
5004b12c:	9d80      	lw	a0,0(a1)
5004b12e:	1820 2c16 	jal	5004b058 <music_dirinfo_tovm>
5004b132:	a6a0      	lbu	a1,0(a2)
5004b134:	6b01      	li	v1,1
5004b136:	6743      	move	v0,v1
5004b138:	6476      	restore	48,ra,s0-s1
5004b13a:	e8a0      	jrc	ra
5004b13c:	7ed0      	sd	a2,128(a2)
5004b13e:	9fc2      	lw	a2,8(a3)
5004b140:	7ec8      	sd	a2,64(a2)
5004b142:	9fc2      	lw	a2,8(a3)
5004b144:	7e0d      	sd	s0,104(a2)
5004b146:	bfc2      	lwu	a2,8(a3)
5004b148:	7e05      	sd	s0,40(a2)
5004b14a:	bfc2      	lwu	a2,8(a3)
5004b14c:	7e10      	sd	s0,128(a2)
5004b14e:	bfc2      	lwu	a2,8(a3)
5004b150:	7e18      	sd	s0,192(a2)
5004b152:	bfc2      	lwu	a2,8(a3)
5004b154:	7e38      	sd	s1,192(a2)
5004b156:	bfc2      	lwu	a2,8(a3)
5004b158:	7ede      	sd	a2,240(a2)
5004b15a:	9fc2      	lw	a2,8(a3)

5004b15c <music_save_init_list>:
5004b15c:	64f5      	save	40,ra,s0-s1
5004b15e:	b522      	lw	a1,5004b1e4 <music_save_init_list+0x88>
5004b160:	6eff      	li	a2,255
5004b162:	ad48      	lhu	v0,16(a1)
5004b164:	4681      	addiu	a0,a2,1
5004b166:	ea9b      	divu	zero,v0,a0
5004b168:	6f01      	li	a3,1
5004b16a:	d705      	sw	a3,20(sp)
5004b16c:	e912      	mflo	s1
5004b16e:	eb10      	mfhi	v1
5004b170:	e931      	zeh	s1
5004b172:	2303      	beqz	v1,5004b17a <music_save_init_list+0x1e>
5004b174:	4161      	addiu	v1,s1,1
5004b176:	6723      	move	s1,v1
5004b178:	e931      	zeh	s1
5004b17a:	5909      	sltiu	s1,9
5004b17c:	6101      	btnez	5004b180 <music_save_init_list+0x24>
5004b17e:	6908      	li	s1,8
5004b180:	6c00      	li	a0,0
5004b182:	d404      	sw	a0,16(sp)
5004b184:	212d      	beqz	s1,5004b1e0 <music_save_init_list+0x84>
5004b186:	b018      	lw	s0,5004b1e4 <music_save_init_list+0x88>
5004b188:	b218      	lw	v0,5004b1e8 <music_save_init_list+0x8c>
5004b18a:	487f      	addiu	s0,127
5004b18c:	4809      	addiu	s0,9
5004b18e:	f200 6e00 	li	a2,512
5004b192:	6790      	move	a0,s0
5004b194:	6d00      	li	a1,0
5004b196:	ea40      	jalr	v0
5004b198:	6f01      	li	a3,1
5004b19a:	b313      	lw	v1,5004b1e4 <music_save_init_list+0x88>
5004b19c:	6e00      	li	a2,0
5004b19e:	aba8      	lhu	a1,16(v1)
5004b1a0:	9405      	lw	a0,20(sp)
5004b1a2:	ed83      	sltu	a1,a0
5004b1a4:	610b      	btnez	5004b1bc <music_save_init_list+0x60>
5004b1a6:	46e1      	addiu	a3,a2,1
5004b1a8:	67c7      	move	a2,a3
5004b1aa:	4441      	addiu	v0,a0,1
5004b1ac:	ee31      	zeh	a2
5004b1ae:	ea31      	zeh	v0
5004b1b0:	f100 5e00 	sltiu	a2,256
5004b1b4:	c880      	sh	a0,0(s0)
5004b1b6:	d205      	sw	v0,20(sp)
5004b1b8:	4002      	addiu	s0,s0,2
5004b1ba:	61f1      	btnez	5004b19e <music_save_init_list+0x42>
5004b1bc:	9304      	lw	v1,16(sp)
5004b1be:	b50c      	lw	a1,5004b1ec <music_save_init_list+0x90>
5004b1c0:	3468      	sll	a0,v1,2
5004b1c2:	e4bd      	addu	a3,a0,a1
5004b1c4:	b408      	lw	a0,5004b1e4 <music_save_init_list+0x88>
5004b1c6:	9fa0      	lw	a1,0(a3)
5004b1c8:	4c7f      	addiu	a0,127
5004b1ca:	b20a      	lw	v0,5004b1f0 <music_save_init_list+0x94>
5004b1cc:	36c4      	sll	a2,1
5004b1ce:	4c09      	addiu	a0,9
5004b1d0:	ea40      	jalr	v0
5004b1d2:	6f13      	li	a3,19
5004b1d4:	9304      	lw	v1,16(sp)
5004b1d6:	43c1      	addiu	a2,v1,1
5004b1d8:	ee31      	zeh	a2
5004b1da:	ee23      	sltu	a2,s1
5004b1dc:	d604      	sw	a2,16(sp)
5004b1de:	61d3      	btnez	5004b186 <music_save_init_list+0x2a>
5004b1e0:	6475      	restore	40,ra,s0-s1
5004b1e2:	e8a0      	jrc	ra
5004b1e4:	7ed0      	sd	a2,128(a2)
5004b1e6:	9fc2      	lw	a2,8(a3)
5004b1e8:	7e05      	sd	s0,40(a2)
5004b1ea:	bfc2      	lwu	a2,8(a3)
5004b1ec:	7e40      	sd	v0,0(a2)
5004b1ee:	bfc2      	lwu	a2,8(a3)
5004b1f0:	7e09      	sd	s0,72(a2)
5004b1f2:	bfc2      	lwu	a2,8(a3)

5004b1f4 <music_save_header>:
5004b1f4:	64f4      	save	32,ra,s0-s1
5004b1f6:	b245      	lw	v0,5004b308 <music_save_header+0x114>
5004b1f8:	6c00      	li	a0,0
5004b1fa:	aa27      	lhu	s1,14(v0)
5004b1fc:	b044      	lw	s0,5004b30c <music_save_header+0x118>
5004b1fe:	67d1      	move	a2,s1
5004b200:	67e4      	move	a3,a0
5004b202:	653a      	move	t9,v0
5004b204:	ee31      	zeh	a2
5004b206:	e715      	addu	a1,a3,s0
5004b208:	a560      	lbu	v1,0(a1)
5004b20a:	ebc3      	sltu	v1,a2
5004b20c:	6005      	bteqz	5004b218 <music_save_header+0x24>
5004b20e:	4741      	addiu	v0,a3,1
5004b210:	67e2      	move	a3,v0
5004b212:	ef11      	zeb	a3
5004b214:	5f08      	sltiu	a3,8
5004b216:	61f7      	btnez	5004b206 <music_save_header+0x12>
5004b218:	7708      	cmpi	a3,8
5004b21a:	6101      	btnez	5004b21e <music_save_header+0x2a>
5004b21c:	6f07      	li	a3,7
5004b21e:	e715      	addu	a1,a3,s0
5004b220:	a560      	lbu	v1,0(a1)
5004b222:	ebce      	xor	v1,a2
5004b224:	2b0b      	bnez	v1,5004b23c <music_save_header+0x48>
5004b226:	b63b      	lw	a2,5004b310 <music_save_header+0x11c>
5004b228:	5f07      	sltiu	a3,7
5004b22a:	e7d1      	addu	a0,a3,a2
5004b22c:	a4c0      	lbu	a2,0(a0)
5004b22e:	6d00      	li	a1,0
5004b230:	601c      	bteqz	5004b26a <music_save_header+0x76>
5004b232:	b139      	lw	s1,5004b314 <music_save_header+0x120>
5004b234:	30e8      	sll	s0,a3,2
5004b236:	e03d      	addu	a3,s0,s1
5004b238:	9fa1      	lw	a1,4(a3)
5004b23a:	1017      	b	5004b26a <music_save_header+0x76>
5004b23c:	b336      	lw	v1,5004b314 <music_save_header+0x120>
5004b23e:	35e8      	sll	a1,a3,2
5004b240:	e569      	addu	v0,a1,v1
5004b242:	9aa0      	lw	a1,0(v0)
5004b244:	2709      	beqz	a3,5004b258 <music_save_header+0x64>
5004b246:	476f      	addiu	v1,a3,-1
5004b248:	67e3      	move	a3,v1
5004b24a:	ef11      	zeb	a3
5004b24c:	e709      	addu	v0,a3,s0
5004b24e:	a2c0      	lbu	a2,0(v0)
5004b250:	e1c3      	subu	s0,s1,a2
5004b252:	67d0      	move	a2,s0
5004b254:	ee31      	zeh	a2
5004b256:	1001      	b	5004b25a <music_save_header+0x66>
5004b258:	6c0c      	li	a0,12
5004b25a:	b32e      	lw	v1,5004b310 <music_save_header+0x11c>
5004b25c:	6914      	li	s1,20
5004b25e:	e769      	addu	v0,a3,v1
5004b260:	ee38      	mult	a2,s1
5004b262:	a200      	lbu	s0,0(v0)
5004b264:	e41d      	addu	a3,a0,s0
5004b266:	ec12      	mflo	a0
5004b268:	e799      	addu	a2,a3,a0
5004b26a:	2606      	beqz	a2,5004b278 <music_save_header+0x84>
5004b26c:	6799      	move	a0,t9
5004b26e:	4c7f      	addiu	a0,127
5004b270:	b12a      	lw	s1,5004b318 <music_save_header+0x124>
5004b272:	4c09      	addiu	a0,9
5004b274:	e940      	jalr	s1
5004b276:	6f13      	li	a3,19
5004b278:	b524      	lw	a1,5004b308 <music_save_header+0x114>
5004b27a:	adc7      	lhu	a2,14(a1)
5004b27c:	f080 4588 	addiu	a0,a1,136
5004b280:	5e19      	sltiu	a2,25
5004b282:	dd8d      	sw	a0,52(a1)
5004b284:	6108      	btnez	5004b296 <music_save_header+0xa2>
5004b286:	f200 6900 	li	s1,512
5004b28a:	b525      	lw	a1,5004b31c <music_save_header+0x128>
5004b28c:	b023      	lw	s0,5004b318 <music_save_header+0x124>
5004b28e:	67d1      	move	a2,s1
5004b290:	e840      	jalr	s0
5004b292:	6f12      	li	a3,18
5004b294:	1004      	b	5004b29e <music_save_header+0xaa>
5004b296:	6c14      	li	a0,20
5004b298:	ee98      	mult	a2,a0
5004b29a:	e912      	mflo	s1
5004b29c:	490c      	addiu	s1,12
5004b29e:	b01b      	lw	s0,5004b308 <music_save_header+0x114>
5004b2a0:	b320      	lw	v1,5004b320 <music_save_header+0x12c>
5004b2a2:	a8e8      	lhu	a3,16(s0)
5004b2a4:	98ad      	lw	a1,52(s0)
5004b2a6:	b220      	lw	v0,5004b324 <music_save_header+0x130>
5004b2a8:	cde0      	sh	a3,0(a1)
5004b2aa:	a8c7      	lhu	a2,14(s0)
5004b2ac:	cdc1      	sh	a2,2(a1)
5004b2ae:	a083      	lbu	a0,3(s0)
5004b2b0:	c584      	sb	a0,4(a1)
5004b2b2:	9be0      	lw	a3,0(v1)
5004b2b4:	9ac0      	lw	a2,0(v0)
5004b2b6:	efc3      	sltu	a3,a2
5004b2b8:	6009      	bteqz	5004b2cc <music_save_header+0xd8>
5004b2ba:	b31c      	lw	v1,5004b328 <music_save_header+0x134>
5004b2bc:	6d01      	li	a1,1
5004b2be:	c3a0      	sb	a1,0(v1)
5004b2c0:	b216      	lw	v0,5004b318 <music_save_header+0x124>
5004b2c2:	6d00      	li	a1,0
5004b2c4:	0c0a      	la	a0,5004b2ec <music_save_header+0xf8>
5004b2c6:	67c5      	move	a2,a1
5004b2c8:	ea40      	jalr	v0
5004b2ca:	6f4b      	li	a3,75
5004b2cc:	b416      	lw	a0,5004b324 <music_save_header+0x130>
5004b2ce:	98cd      	lw	a2,52(s0)
5004b2d0:	9ce0      	lw	a3,0(a0)
5004b2d2:	b513      	lw	a1,5004b31c <music_save_header+0x128>
5004b2d4:	b211      	lw	v0,5004b318 <music_save_header+0x124>
5004b2d6:	dee2      	sw	a3,8(a2)
5004b2d8:	f080 4088 	addiu	a0,s0,136
5004b2dc:	67d1      	move	a2,s1
5004b2de:	ea40      	jalr	v0
5004b2e0:	6f13      	li	a3,19
5004b2e2:	1820 2c57 	jal	5004b15c <music_save_init_list>
5004b2e6:	6500      	nop
5004b2e8:	6474      	restore	32,ra,s0-s1
5004b2ea:	e8a0      	jrc	ra
5004b2ec:	493c      	addiu	s1,60
5004b2ee:	203e      	beqz	s0,5004b36c <get_newest_file_time+0x4>
5004b2f0:	756d      	cmpi	a1,109
5004b2f2:	6973      	li	s1,115
5004b2f4:	2063      	beqz	s0,5004b3bc <music_scan_time_dly+0x24>
5004b2f6:	6966      	li	s1,102
5004b2f8:	656c      	move	t3,a0
5004b2fa:	2073      	beqz	s0,5004b3e2 <music_filtrate_dir+0x16>
5004b2fc:	6863      	li	s0,99
5004b2fe:	6e61      	li	a2,97
5004b300:	6567      	move	v1,a3
5004b302:	2e64      	bnez	a2,5004b3cc <music_filtrate_dir>
5004b304:	0000      	addiu	s0,sp,0
5004b306:	0000      	addiu	s0,sp,0
5004b308:	7ed0      	sd	a2,128(a2)
5004b30a:	9fc2      	lw	a2,8(a3)
5004b30c:	7e10      	sd	s0,128(a2)
5004b30e:	bfc2      	lwu	a2,8(a3)
5004b310:	7e38      	sd	s1,192(a2)
5004b312:	bfc2      	lwu	a2,8(a3)
5004b314:	7e18      	sd	s0,192(a2)
5004b316:	bfc2      	lwu	a2,8(a3)
5004b318:	7e09      	sd	s0,72(a2)
5004b31a:	bfc2      	lwu	a2,8(a3)
5004b31c:	0000      	addiu	s0,sp,0
5004b31e:	0020      	addiu	s0,sp,128
5004b320:	8184      	lb	a0,4(s1)
5004b322:	9fc2      	lw	a2,8(a3)
5004b324:	8180      	lb	a0,0(s1)
5004b326:	9fc2      	lw	a2,8(a3)
5004b328:	817c      	lb	v1,28(s1)
5004b32a:	9fc2      	lw	a2,8(a3)

5004b32c <rtc_to_uint32>:
5004b32c:	ac40      	lhu	v0,0(a0)
5004b32e:	67a4      	move	a1,a0
5004b330:	f7c0 5a11 	sltiu	v0,2001
5004b334:	f03f 4a10 	addiu	v0,-2000
5004b338:	6001      	bteqz	5004b33c <rtc_to_uint32+0x10>
5004b33a:	6a00      	li	v0,0
5004b33c:	a562      	lbu	v1,2(a1)
5004b33e:	a5e3      	lbu	a3,3(a1)
5004b340:	f640 3440 	sll	a0,v0,25
5004b344:	f540 3260 	sll	v0,v1,21
5004b348:	e451      	addu	a0,v0
5004b34a:	a544      	lbu	v0,4(a1)
5004b34c:	36e0      	sll	a2,a3,8
5004b34e:	33c0      	sll	v1,a2,8
5004b350:	3740      	sll	a3,v0,8
5004b352:	a5c5      	lbu	a2,5(a1)
5004b354:	32ec      	sll	v0,a3,3
5004b356:	a5e6      	lbu	a3,6(a1)
5004b358:	e471      	addu	a0,v1
5004b35a:	33d4      	sll	v1,a2,5
5004b35c:	e279      	addu	a2,v0,v1
5004b35e:	33e6      	srl	v1,a3,1
5004b360:	e669      	addu	v0,a2,v1
5004b362:	e820      	jr	ra
5004b364:	e449      	addu	v0,a0,v0
	...

5004b368 <get_newest_file_time>:
5004b368:	64c5      	save	40,ra
5004b36a:	6b0a      	li	v1,10
5004b36c:	6e00      	li	a2,0
5004b36e:	b209      	lw	v0,5004b390 <get_newest_file_time+0x28>
5004b370:	d304      	sw	v1,16(sp)
5004b372:	0506      	addiu	a1,sp,24
5004b374:	ea40      	jalr	v0
5004b376:	67e6      	move	a3,a2
5004b378:	ea11      	zeb	v0
5004b37a:	2208      	beqz	v0,5004b38c <get_newest_file_time+0x24>
5004b37c:	1820 2ccb 	jal	5004b32c <rtc_to_uint32>
5004b380:	0406      	addiu	a0,sp,24
5004b382:	b405      	lw	a0,5004b394 <get_newest_file_time+0x2c>
5004b384:	9ca1      	lw	a1,4(a0)
5004b386:	ed43      	sltu	a1,v0
5004b388:	6001      	bteqz	5004b38c <get_newest_file_time+0x24>
5004b38a:	dc41      	sw	v0,4(a0)
5004b38c:	6445      	restore	40,ra
5004b38e:	e8a0      	jrc	ra
5004b390:	7e0d      	sd	s0,104(a2)
5004b392:	bfc2      	lwu	a2,8(a3)
5004b394:	817c      	lb	v1,28(s1)
5004b396:	9fc2      	lw	a2,8(a3)

5004b398 <music_scan_time_dly>:
5004b398:	64f4      	save	32,ra,s0-s1
5004b39a:	6724      	move	s1,a0
5004b39c:	b00a      	lw	s0,5004b3c4 <music_scan_time_dly+0x2c>
5004b39e:	6c00      	li	a0,0
5004b3a0:	67a4      	move	a1,a0
5004b3a2:	67c4      	move	a2,a0
5004b3a4:	e840      	jalr	s0
5004b3a6:	6f1c      	li	a3,28
5004b3a8:	b408      	lw	a0,5004b3c8 <music_scan_time_dly+0x30>
5004b3aa:	6762      	move	v1,v0
5004b3ac:	9cae      	lw	a1,56(a0)
5004b3ae:	e2ab      	subu	v0,a1
5004b3b0:	5afa      	sltiu	v0,250
5004b3b2:	6106      	btnez	5004b3c0 <music_scan_time_dly+0x28>
5004b3b4:	6d00      	li	a1,0
5004b3b6:	dc6e      	sw	v1,56(a0)
5004b3b8:	67c5      	move	a2,a1
5004b3ba:	6791      	move	a0,s1
5004b3bc:	e840      	jalr	s0
5004b3be:	6f31      	li	a3,49
5004b3c0:	6474      	restore	32,ra,s0-s1
5004b3c2:	e8a0      	jrc	ra
5004b3c4:	7e09      	sd	s0,72(a2)
5004b3c6:	bfc2      	lwu	a2,8(a3)
5004b3c8:	7ed0      	sd	a2,128(a2)
5004b3ca:	9fc2      	lw	a2,8(a3)

5004b3cc <music_filtrate_dir>:
5004b3cc:	64fa      	save	80,ra,s0-s1
5004b3ce:	b226      	lw	v0,5004b464 <music_filtrate_dir+0x98>
5004b3d0:	ec11      	zeb	a0
5004b3d2:	aae9      	lhu	a3,18(v0)
5004b3d4:	d40e      	sw	a0,56(sp)
5004b3d6:	6b00      	li	v1,0
5004b3d8:	2f41      	bnez	a3,5004b45c <music_filtrate_dir+0x90>
5004b3da:	b524      	lw	a1,5004b468 <music_filtrate_dir+0x9c>
5004b3dc:	6b02      	li	v1,2
5004b3de:	9d80      	lw	a0,0(a1)
5004b3e0:	b223      	lw	v0,5004b46c <music_filtrate_dir+0xa0>
5004b3e2:	d304      	sw	v1,16(sp)
5004b3e4:	0506      	addiu	a1,sp,24
5004b3e6:	ea40      	jalr	v0
5004b3e8:	6e10      	li	a2,16
5004b3ea:	6762      	move	v1,v0
5004b3ec:	eb31      	zeh	v1
5004b3ee:	730b      	cmpi	v1,11
5004b3f0:	6108      	btnez	5004b402 <music_filtrate_dir+0x36>
5004b3f2:	679d      	move	a0,sp
5004b3f4:	a4d8      	lbu	a2,24(a0)
5004b3f6:	76ff      	cmpi	a2,255
5004b3f8:	6004      	bteqz	5004b402 <music_filtrate_dir+0x36>
5004b3fa:	0106      	addiu	s1,sp,24
5004b3fc:	6e08      	li	a2,8
5004b3fe:	6801      	li	s0,1
5004b400:	100a      	b	5004b416 <music_filtrate_dir+0x4a>
5004b402:	7308      	cmpi	v1,8
5004b404:	6128      	btnez	5004b456 <music_filtrate_dir+0x8a>
5004b406:	675d      	move	v0,sp
5004b408:	a2f8      	lbu	a3,24(v0)
5004b40a:	77ff      	cmpi	a3,255
5004b40c:	6124      	btnez	5004b456 <music_filtrate_dir+0x8a>
5004b40e:	f000 011a 	addiu	s1,sp,26
5004b412:	6e06      	li	a2,6
5004b414:	6802      	li	s0,2
5004b416:	6c00      	li	a0,0
5004b418:	ecc3      	sltu	a0,a2
5004b41a:	67a4      	move	a1,a0
5004b41c:	6010      	bteqz	5004b43e <music_filtrate_dir+0x72>
5004b41e:	b312      	lw	v1,5004b464 <music_filtrate_dir+0x98>
5004b420:	43e4      	addiu	a3,v1,4
5004b422:	e4e9      	addu	v0,a0,a3
5004b424:	e1ad      	addu	v1,s1,a1
5004b426:	a240      	lbu	v0,0(v0)
5004b428:	a360      	lbu	v1,0(v1)
5004b42a:	ea6e      	xor	v0,v1
5004b42c:	2a14      	bnez	v0,5004b456 <music_filtrate_dir+0x8a>
5004b42e:	4461      	addiu	v1,a0,1
5004b430:	6783      	move	a0,v1
5004b432:	e509      	addu	v0,a1,s0
5004b434:	ec11      	zeb	a0
5004b436:	67a2      	move	a1,v0
5004b438:	ecc3      	sltu	a0,a2
5004b43a:	ed11      	zeb	a1
5004b43c:	61f2      	btnez	5004b422 <music_filtrate_dir+0x56>
5004b43e:	b00b      	lw	s0,5004b468 <music_filtrate_dir+0x9c>
5004b440:	950e      	lw	a1,56(sp)
5004b442:	9880      	lw	a0,0(s0)
5004b444:	b20a      	lw	v0,5004b46c <music_filtrate_dir+0xa0>
5004b446:	6801      	li	s0,1
5004b448:	d004      	sw	s0,16(sp)
5004b44a:	6e00      	li	a2,0
5004b44c:	ea40      	jalr	v0
5004b44e:	67f0      	move	a3,s0
5004b450:	6b00      	li	v1,0
5004b452:	2a04      	bnez	v0,5004b45c <music_filtrate_dir+0x90>
5004b454:	1002      	b	5004b45a <music_filtrate_dir+0x8e>
5004b456:	6b00      	li	v1,0
5004b458:	1001      	b	5004b45c <music_filtrate_dir+0x90>
5004b45a:	6770      	move	v1,s0
5004b45c:	6743      	move	v0,v1
5004b45e:	647a      	restore	80,ra,s0-s1
5004b460:	e8a0      	jrc	ra
5004b462:	0000      	addiu	s0,sp,0
5004b464:	7ed0      	sd	a2,128(a2)
5004b466:	9fc2      	lw	a2,8(a3)
5004b468:	7ec8      	sd	a2,64(a2)
5004b46a:	9fc2      	lw	a2,8(a3)
5004b46c:	7e0d      	sd	s0,104(a2)
5004b46e:	bfc2      	lwu	a2,8(a3)

5004b470 <_dir_next>:
5004b470:	64f5      	save	40,ra,s0-s1
5004b472:	b30f      	lw	v1,5004b4ac <_dir_next+0x3c>
5004b474:	6d82      	li	a1,130
5004b476:	ab4a      	lhu	v0,20(v1)
5004b478:	2201      	beqz	v0,5004b47c <_dir_next+0xc>
5004b47a:	45ae      	addiu	a1,a1,-2
5004b47c:	b10d      	lw	s1,5004b4b0 <_dir_next+0x40>
5004b47e:	6801      	li	s0,1
5004b480:	9980      	lw	a0,0(s1)
5004b482:	b70d      	lw	a3,5004b4b4 <_dir_next+0x44>
5004b484:	b20d      	lw	v0,5004b4b8 <_dir_next+0x48>
5004b486:	d004      	sw	s0,16(sp)
5004b488:	ea40      	jalr	v0
5004b48a:	6e00      	li	a2,0
5004b48c:	651a      	move	t8,v0
5004b48e:	220b      	beqz	v0,5004b4a6 <_dir_next+0x36>
5004b490:	1820 2ce6 	jal	5004b398 <music_scan_time_dly>
5004b494:	6790      	move	a0,s0
5004b496:	b406      	lw	a0,5004b4ac <_dir_next+0x3c>
5004b498:	acca      	lhu	a2,20(a0)
5004b49a:	46a1      	addiu	a1,a2,1
5004b49c:	ccaa      	sh	a1,20(a0)
5004b49e:	1820 2cda 	jal	5004b368 <get_newest_file_time>
5004b4a2:	9980      	lw	a0,0(s1)
5004b4a4:	6518      	move	t8,s0
5004b4a6:	6758      	move	v0,t8
5004b4a8:	6475      	restore	40,ra,s0-s1
5004b4aa:	e8a0      	jrc	ra
5004b4ac:	7ed0      	sd	a2,128(a2)
5004b4ae:	9fc2      	lw	a2,8(a3)
5004b4b0:	7ec8      	sd	a2,64(a2)
5004b4b2:	9fc2      	lw	a2,8(a3)
5004b4b4:	0c00      	la	a0,5004b4b4 <_dir_next+0x44>
5004b4b6:	7600      	cmpi	a2,0
5004b4b8:	7e0d      	sd	s0,104(a2)
5004b4ba:	bfc2      	lwu	a2,8(a3)

5004b4bc <_sub>:
5004b4bc:	64e4      	save	32,ra,s0
5004b4be:	b314      	lw	v1,5004b50c <_sub+0x50>
5004b4c0:	6800      	li	s0,0
5004b4c2:	9b80      	lw	a0,0(v1)
5004b4c4:	b213      	lw	v0,5004b510 <_sub+0x54>
5004b4c6:	d004      	sw	s0,16(sp)
5004b4c8:	6d2f      	li	a1,47
5004b4ca:	67d0      	move	a2,s0
5004b4cc:	ea40      	jalr	v0
5004b4ce:	67f0      	move	a3,s0
5004b4d0:	ea11      	zeb	v0
5004b4d2:	b411      	lw	a0,5004b514 <_sub+0x58>
5004b4d4:	2a06      	bnez	v0,5004b4e2 <_sub+0x26>
5004b4d6:	6d80      	li	a1,128
5004b4d8:	edab      	neg	a1
5004b4da:	c4a0      	sb	a1,0(a0)
5004b4dc:	6c01      	li	a0,1
5004b4de:	eb8b      	neg	v1,a0
5004b4e0:	1011      	b	5004b504 <_sub+0x48>
5004b4e2:	67c4      	move	a2,a0
5004b4e4:	4e12      	addiu	a2,18
5004b4e6:	ae40      	lhu	v0,0(a2)
5004b4e8:	cc0a      	sh	s0,20(a0)
5004b4ea:	42e1      	addiu	a3,v0,1
5004b4ec:	1820 2d1c 	jal	5004b470 <_dir_next>
5004b4f0:	cee0      	sh	a3,0(a2)
5004b4f2:	6762      	move	v1,v0
5004b4f4:	2207      	beqz	v0,5004b504 <_sub+0x48>
5004b4f6:	1820 2c27 	jal	5004b09c <music_store_dirinfo>
5004b4fa:	6500      	nop
5004b4fc:	7201      	cmpi	v0,1
5004b4fe:	6b01      	li	v1,1
5004b500:	6001      	bteqz	5004b504 <_sub+0x48>
5004b502:	436d      	addiu	v1,v1,-3
5004b504:	6743      	move	v0,v1
5004b506:	6464      	restore	32,ra,s0
5004b508:	e8a0      	jrc	ra
5004b50a:	0000      	addiu	s0,sp,0
5004b50c:	7ec8      	sd	a2,64(a2)
5004b50e:	9fc2      	lw	a2,8(a3)
5004b510:	7e0d      	sd	s0,104(a2)
5004b512:	bfc2      	lwu	a2,8(a3)
5004b514:	7ed0      	sd	a2,128(a2)
5004b516:	9fc2      	lw	a2,8(a3)

5004b518 <music_get_nextfile>:
5004b518:	64f6      	save	48,ra,s0-s1
5004b51a:	1820 2d1c 	jal	5004b470 <_dir_next>
5004b51e:	6500      	nop
5004b520:	7201      	cmpi	v0,1
5004b522:	6a01      	li	v0,1
5004b524:	6068      	bteqz	5004b5f6 <music_get_nextfile+0xde>
5004b526:	b336      	lw	v1,5004b5fc <music_get_nextfile+0xe4>
5004b528:	a342      	lbu	v0,2(v1)
5004b52a:	72ff      	cmpi	v0,255
5004b52c:	6a00      	li	v0,0
5004b52e:	6163      	btnez	5004b5f6 <music_get_nextfile+0xde>
5004b530:	1008      	b	5004b542 <music_get_nextfile+0x2a>
5004b532:	6a00      	li	v0,0
5004b534:	1060      	b	5004b5f6 <music_get_nextfile+0xde>
5004b536:	b432      	lw	a0,5004b5fc <music_get_nextfile+0xe4>
5004b538:	6d80      	li	a1,128
5004b53a:	edab      	neg	a1
5004b53c:	6743      	move	v0,v1
5004b53e:	c4a0      	sb	a1,0(a0)
5004b540:	105a      	b	5004b5f6 <music_get_nextfile+0xde>
5004b542:	6a01      	li	v0,1
5004b544:	d206      	sw	v0,24(sp)
5004b546:	b22e      	lw	v0,5004b5fc <music_get_nextfile+0xe4>
5004b548:	9aeb      	lw	a3,44(v0)
5004b54a:	9fc2      	lw	a2,8(a3)
5004b54c:	7601      	cmpi	a2,1
5004b54e:	60f1      	bteqz	5004b532 <music_get_nextfile+0x1a>
5004b550:	1820 2ce6 	jal	5004b398 <music_scan_time_dly>
5004b554:	6c01      	li	a0,1
5004b556:	b02a      	lw	s0,5004b5fc <music_get_nextfile+0xe4>
5004b558:	9406      	lw	a0,24(sp)
5004b55a:	4812      	addiu	s0,18
5004b55c:	a860      	lhu	v1,0(s0)
5004b55e:	241f      	beqz	a0,5004b59e <music_get_nextfile+0x86>
5004b560:	5b08      	sltiu	v1,8
5004b562:	6103      	btnez	5004b56a <music_get_nextfile+0x52>
5004b564:	6b00      	li	v1,0
5004b566:	d306      	sw	v1,24(sp)
5004b568:	17ee      	b	5004b546 <music_get_nextfile+0x2e>
5004b56a:	b126      	lw	s1,5004b600 <music_get_nextfile+0xe8>
5004b56c:	b226      	lw	v0,5004b604 <music_get_nextfile+0xec>
5004b56e:	9980      	lw	a0,0(s1)
5004b570:	6901      	li	s1,1
5004b572:	d104      	sw	s1,16(sp)
5004b574:	6d82      	li	a1,130
5004b576:	6e00      	li	a2,0
5004b578:	ea40      	jalr	v0
5004b57a:	67f1      	move	a3,s1
5004b57c:	ea11      	zeb	v0
5004b57e:	220d      	beqz	v0,5004b59a <music_get_nextfile+0x82>
5004b580:	1820 2cf3 	jal	5004b3cc <music_filtrate_dir>
5004b584:	6c80      	li	a0,128
5004b586:	6702      	move	s0,v0
5004b588:	2a08      	bnez	v0,5004b59a <music_get_nextfile+0x82>
5004b58a:	1820 2d2f 	jal	5004b4bc <_sub>
5004b58e:	6500      	nop
5004b590:	22da      	beqz	v0,5004b546 <music_get_nextfile+0x2e>
5004b592:	5200      	slti	v0,0
5004b594:	6751      	move	v0,s1
5004b596:	602f      	bteqz	5004b5f6 <music_get_nextfile+0xde>
5004b598:	102d      	b	5004b5f4 <music_get_nextfile+0xdc>
5004b59a:	6a00      	li	v0,0
5004b59c:	17d3      	b	5004b544 <music_get_nextfile+0x2c>
5004b59e:	6743      	move	v0,v1
5004b5a0:	ea31      	zeh	v0
5004b5a2:	2229      	beqz	v0,5004b5f6 <music_get_nextfile+0xde>
5004b5a4:	b517      	lw	a1,5004b600 <music_get_nextfile+0xe8>
5004b5a6:	6900      	li	s1,0
5004b5a8:	9d80      	lw	a0,0(a1)
5004b5aa:	b317      	lw	v1,5004b604 <music_get_nextfile+0xec>
5004b5ac:	d104      	sw	s1,16(sp)
5004b5ae:	6d7c      	li	a1,124
5004b5b0:	67d1      	move	a2,s1
5004b5b2:	eb40      	jalr	v1
5004b5b4:	67f1      	move	a3,s1
5004b5b6:	6762      	move	v1,v0
5004b5b8:	eb11      	zeb	v1
5004b5ba:	23bd      	beqz	v1,5004b536 <music_get_nextfile+0x1e>
5004b5bc:	a8e0      	lhu	a3,0(s0)
5004b5be:	b312      	lw	v1,5004b604 <music_get_nextfile+0xec>
5004b5c0:	47cf      	addiu	a2,a3,-1
5004b5c2:	c8c0      	sh	a2,0(s0)
5004b5c4:	b00f      	lw	s0,5004b600 <music_get_nextfile+0xe8>
5004b5c6:	6d80      	li	a1,128
5004b5c8:	9880      	lw	a0,0(s0)
5004b5ca:	6801      	li	s0,1
5004b5cc:	d004      	sw	s0,16(sp)
5004b5ce:	67d1      	move	a2,s1
5004b5d0:	eb40      	jalr	v1
5004b5d2:	67f0      	move	a3,s0
5004b5d4:	ea11      	zeb	v0
5004b5d6:	22b7      	beqz	v0,5004b546 <music_get_nextfile+0x2e>
5004b5d8:	1820 2cf3 	jal	5004b3cc <music_filtrate_dir>
5004b5dc:	6c80      	li	a0,128
5004b5de:	ea0a      	cmp	v0,s0
5004b5e0:	60b2      	bteqz	5004b546 <music_get_nextfile+0x2e>
5004b5e2:	1820 2d2f 	jal	5004b4bc <_sub>
5004b5e6:	6500      	nop
5004b5e8:	2a02      	bnez	v0,5004b5ee <music_get_nextfile+0xd6>
5004b5ea:	d006      	sw	s0,24(sp)
5004b5ec:	17ac      	b	5004b546 <music_get_nextfile+0x2e>
5004b5ee:	5200      	slti	v0,0
5004b5f0:	6751      	move	v0,s1
5004b5f2:	6101      	btnez	5004b5f6 <music_get_nextfile+0xde>
5004b5f4:	6750      	move	v0,s0
5004b5f6:	6476      	restore	48,ra,s0-s1
5004b5f8:	e8a0      	jrc	ra
5004b5fa:	0000      	addiu	s0,sp,0
5004b5fc:	7ed0      	sd	a2,128(a2)
5004b5fe:	9fc2      	lw	a2,8(a3)
5004b600:	7ec8      	sd	a2,64(a2)
5004b602:	9fc2      	lw	a2,8(a3)
5004b604:	7e0d      	sd	s0,104(a2)
5004b606:	bfc2      	lwu	a2,8(a3)

5004b608 <music_scan_file>:
5004b608:	64f5      	save	40,ra,s0-s1
5004b60a:	a440      	lbu	v0,0(a0)
5004b60c:	1800 2c88 	jal	5000b220 <music_scan_init>
5004b610:	d204      	sw	v0,16(sp)
5004b612:	d205      	sw	v0,20(sp)
5004b614:	b034      	lw	s0,5004b6e4 <.L135+0x4c>
5004b616:	b135      	lw	s1,5004b6e8 <.L135+0x50>
5004b618:	98ab      	lw	a1,44(s0)
5004b61a:	6f19      	li	a3,25
5004b61c:	9d80      	lw	a0,0(a1)
5004b61e:	6d00      	li	a1,0
5004b620:	e940      	jalr	s1
5004b622:	67c5      	move	a2,a1
5004b624:	988b      	lw	a0,44(s0)
5004b626:	9c62      	lw	v1,8(a0)
5004b628:	7301      	cmpi	v1,1
5004b62a:	6036      	bteqz	5004b698 <.L135>
5004b62c:	9605      	lw	a2,20(sp)
5004b62e:	2e05      	bnez	a2,5004b63a <music_scan_file+0x32>
5004b630:	6a80      	li	v0,128
5004b632:	ea4b      	neg	v0
5004b634:	6f01      	li	a3,1
5004b636:	c040      	sb	v0,0(s0)
5004b638:	c0e1      	sb	a3,1(s0)
5004b63a:	4021      	addiu	s1,s0,1
5004b63c:	a160      	lbu	v1,0(s1)
5004b63e:	7301      	cmpi	v1,1
5004b640:	601f      	bteqz	5004b680 <.L138>
5004b642:	1820 2d46 	jal	5004b518 <music_get_nextfile>
5004b646:	6500      	nop
5004b648:	2a03      	bnez	v0,5004b650 <music_scan_file+0x48>
5004b64a:	6801      	li	s0,1
5004b64c:	c100      	sb	s0,0(s1)
5004b64e:	1015      	b	5004b67a <music_scan_file+0x72>
5004b650:	a888      	lhu	a0,16(s0)
5004b652:	2c05      	bnez	a0,5004b65e <music_scan_file+0x56>
5004b654:	a829      	lhu	s1,18(s0)
5004b656:	2903      	bnez	s1,5004b65e <music_scan_file+0x56>
5004b658:	1820 2c27 	jal	5004b09c <music_store_dirinfo>
5004b65c:	6500      	nop
5004b65e:	b422      	lw	a0,5004b6e4 <.L135+0x4c>
5004b660:	acc8      	lhu	a2,16(a0)
5004b662:	aca7      	lhu	a1,14(a0)
5004b664:	4661      	addiu	v1,a2,1
5004b666:	5dcd      	sltiu	a1,205
5004b668:	cc68      	sh	v1,16(a0)
5004b66a:	6005      	bteqz	5004b676 <music_scan_file+0x6e>
5004b66c:	67e3      	move	a3,v1
5004b66e:	ef31      	zeh	a3
5004b670:	f382 5f08 	sltiu	a3,5000
5004b674:	6105      	btnez	5004b680 <.L138>
5004b676:	6a01      	li	v0,1
5004b678:	c441      	sb	v0,1(a0)
5004b67a:	1820 2c7d 	jal	5004b1f4 <music_save_header>
5004b67e:	6500      	nop

5004b680 <.L138>:
5004b680:	b419      	lw	a0,5004b6e4 <.L135+0x4c>
5004b682:	6d00      	li	a1,0
5004b684:	9c6b      	lw	v1,44(a0)
5004b686:	b019      	lw	s0,5004b6e8 <.L135+0x50>
5004b688:	9b80      	lw	a0,0(v1)
5004b68a:	67c5      	move	a2,a1
5004b68c:	e840      	jalr	s0
5004b68e:	6f1a      	li	a3,26
5004b690:	1820 2ce6 	jal	5004b398 <music_scan_time_dly>
5004b694:	6c02      	li	a0,2
5004b696:	17be      	b	5004b614 <music_scan_file+0xc>

5004b698 <.L135>:
5004b698:	b013      	lw	s0,5004b6e4 <.L135+0x4c>
5004b69a:	b215      	lw	v0,5004b6ec <.L135+0x54>
5004b69c:	a8a8      	lhu	a1,16(s0)
5004b69e:	6f4b      	li	a3,75
5004b6a0:	0c0d      	la	a0,5004b6d4 <.L135+0x3c>
5004b6a2:	ea40      	jalr	v0
5004b6a4:	6e02      	li	a2,2
5004b6a6:	b613      	lw	a2,5004b6f0 <.L135+0x58>
5004b6a8:	9404      	lw	a0,16(sp)
5004b6aa:	1820 2c00 	jal	5004b000 <music_scan_exit>
5004b6ae:	9ea0      	lw	a1,0(a2)
5004b6b0:	982b      	lw	s1,44(s0)
5004b6b2:	6800      	li	s0,0
5004b6b4:	d902      	sw	s0,8(s1)
5004b6b6:	9980      	lw	a0,0(s1)
5004b6b8:	b10c      	lw	s1,5004b6e8 <.L135+0x50>
5004b6ba:	67b0      	move	a1,s0
5004b6bc:	67d0      	move	a2,s0
5004b6be:	e940      	jalr	s1
5004b6c0:	6f1a      	li	a3,26
5004b6c2:	6790      	move	a0,s0
5004b6c4:	67b0      	move	a1,s0
5004b6c6:	67d0      	move	a2,s0
5004b6c8:	e940      	jalr	s1
5004b6ca:	6f0c      	li	a3,12
5004b6cc:	6750      	move	v0,s0
5004b6ce:	6475      	restore	40,ra,s0-s1
5004b6d0:	e8a0      	jrc	ra
5004b6d2:	0000      	addiu	s0,sp,0
5004b6d4:	493c      	addiu	s1,60
5004b6d6:	203e      	beqz	s0,5004b754 <.L135+0xbc>
5004b6d8:	6373      	addiu	sp,920
5004b6da:	6e61      	li	a2,97
5004b6dc:	6f20      	li	a3,32
5004b6de:	6576      	move	s3,a2
5004b6e0:	3a72      	ld	v1,144(v0)
5004b6e2:	0000      	addiu	s0,sp,0
5004b6e4:	7ed0      	sd	a2,128(a2)
5004b6e6:	9fc2      	lw	a2,8(a3)
5004b6e8:	7e05      	sd	s0,40(a2)
5004b6ea:	bfc2      	lwu	a2,8(a3)
5004b6ec:	7e09      	sd	s0,72(a2)
5004b6ee:	bfc2      	lwu	a2,8(a3)
5004b6f0:	7ec8      	sd	a2,64(a2)
5004b6f2:	9fc2      	lw	a2,8(a3)
	...
Disassembly of section .reginfo:

00000000 <.reginfo>:
   0:	00000008 	jr	zero
   4:	00000000 	nop
	...
Disassembly of section .pdr:

00000000 <.pdr>:
   0:	bfc27e01 	cache	0x2,32257(s8)
	...
  18:	0000001d 	0x1d
  1c:	0000001f 	0x1f
  20:	bfc27e05 	cache	0x2,32261(s8)
	...
  38:	0000001d 	0x1d
  3c:	0000001f 	0x1f
  40:	bfc27e09 	cache	0x2,32265(s8)
	...
  58:	0000001d 	0x1d
  5c:	0000001f 	0x1f
  60:	bfc27e0d 	cache	0x2,32269(s8)
	...
  78:	0000001d 	0x1d
  7c:	0000001f 	0x1f
  80:	5004b399 	beql	zero,a0,fffecee8 <g_rec_folder_long+0x403c5030>
  84:	80030000 	lb	v1,0(zero)
  88:	fffffffc 	sdc3	$31,-4(ra)
	...
  94:	00000020 	add	zero,zero,zero
  98:	0000001d 	0x1d
  9c:	0000001f 	0x1f
  a0:	5004b3cd 	beql	zero,a0,fffecfd8 <g_rec_folder_long+0x403c5120>
  a4:	80030000 	lb	v1,0(zero)
  a8:	fffffffc 	sdc3	$31,-4(ra)
	...
  b4:	00000050 	0x50
  b8:	0000001d 	0x1d
  bc:	0000001f 	0x1f
  c0:	5000b135 	beqzl	zero,fffec598 <g_rec_folder_long+0x403c46e0>
  c4:	80030000 	lb	v1,0(zero)
  c8:	fffffffc 	sdc3	$31,-4(ra)
	...
  d4:	00000028 	0x28
  d8:	0000001d 	0x1d
  dc:	0000001f 	0x1f
  e0:	5004b001 	beql	zero,a0,fffec0e8 <g_rec_folder_long+0x403c4230>
  e4:	80030000 	lb	v1,0(zero)
  e8:	fffffffc 	sdc3	$31,-4(ra)
	...
  f4:	00000020 	add	zero,zero,zero
  f8:	0000001d 	0x1d
  fc:	0000001f 	0x1f
 100:	5000b1a1 	beqzl	zero,fffec788 <g_rec_folder_long+0x403c48d0>
 104:	80030000 	lb	v1,0(zero)
 108:	fffffffc 	sdc3	$31,-4(ra)
	...
 114:	00000028 	0x28
 118:	0000001d 	0x1d
 11c:	0000001f 	0x1f
 120:	5004b059 	beql	zero,a0,fffec288 <g_rec_folder_long+0x403c43d0>
 124:	80030000 	lb	v1,0(zero)
 128:	fffffffc 	sdc3	$31,-4(ra)
	...
 134:	00000020 	add	zero,zero,zero
 138:	0000001d 	0x1d
 13c:	0000001f 	0x1f
 140:	5004b09d 	beql	zero,a0,fffec3b8 <g_rec_folder_long+0x403c4500>
 144:	80030000 	lb	v1,0(zero)
 148:	fffffffc 	sdc3	$31,-4(ra)
	...
 154:	00000030 	tge	zero,zero
 158:	0000001d 	0x1d
 15c:	0000001f 	0x1f
 160:	5004b15d 	beql	zero,a0,fffec6d8 <g_rec_folder_long+0x403c4820>
 164:	80030000 	lb	v1,0(zero)
 168:	fffffffc 	sdc3	$31,-4(ra)
	...
 174:	00000028 	0x28
 178:	0000001d 	0x1d
 17c:	0000001f 	0x1f
 180:	5004b1f5 	beql	zero,a0,fffec958 <g_rec_folder_long+0x403c4aa0>
 184:	80030000 	lb	v1,0(zero)
 188:	fffffffc 	sdc3	$31,-4(ra)
	...
 194:	00000020 	add	zero,zero,zero
 198:	0000001d 	0x1d
 19c:	0000001f 	0x1f
 1a0:	5004b471 	beql	zero,a0,fffed368 <g_rec_folder_long+0x403c54b0>
 1a4:	80030000 	lb	v1,0(zero)
 1a8:	fffffffc 	sdc3	$31,-4(ra)
	...
 1b4:	00000028 	0x28
 1b8:	0000001d 	0x1d
 1bc:	0000001f 	0x1f
 1c0:	5004b4bd 	beql	zero,a0,fffed4b8 <g_rec_folder_long+0x403c5600>
 1c4:	80010000 	lb	at,0(zero)
 1c8:	fffffffc 	sdc3	$31,-4(ra)
	...
 1d4:	00000020 	add	zero,zero,zero
 1d8:	0000001d 	0x1d
 1dc:	0000001f 	0x1f
 1e0:	5004b519 	beql	zero,a0,fffed648 <g_rec_folder_long+0x403c5790>
 1e4:	80030000 	lb	v1,0(zero)
 1e8:	fffffffc 	sdc3	$31,-4(ra)
	...
 1f4:	00000030 	tge	zero,zero
 1f8:	0000001d 	0x1d
 1fc:	0000001f 	0x1f
 200:	5000b221 	beqzl	zero,fffeca88 <g_rec_folder_long+0x403c4bd0>
 204:	80030000 	lb	v1,0(zero)
 208:	fffffffc 	sdc3	$31,-4(ra)
	...
 214:	00000028 	0x28
 218:	0000001d 	0x1d
 21c:	0000001f 	0x1f
 220:	5004b609 	beql	zero,a0,fffeda48 <g_rec_folder_long+0x403c5b90>
 224:	80030000 	lb	v1,0(zero)
 228:	fffffffc 	sdc3	$31,-4(ra)
	...
 234:	00000028 	0x28
 238:	0000001d 	0x1d
 23c:	0000001f 	0x1f
 240:	5000b2b9 	beqzl	zero,fffecd28 <g_rec_folder_long+0x403c4e70>
 244:	80030000 	lb	v1,0(zero)
 248:	fffffffc 	sdc3	$31,-4(ra)
	...
 254:	00000020 	add	zero,zero,zero
 258:	0000001d 	0x1d
 25c:	0000001f 	0x1f
 260:	bfc27e79 	cache	0x2,32377(s8)
 264:	80010000 	lb	at,0(zero)
 268:	fffffffc 	sdc3	$31,-4(ra)
	...
 274:	00000018 	mult	zero,zero
 278:	0000001d 	0x1d
 27c:	0000001f 	0x1f
 280:	5000b001 	beqzl	zero,fffec288 <g_rec_folder_long+0x403c43d0>
 284:	80030000 	lb	v1,0(zero)
 288:	fffffffc 	sdc3	$31,-4(ra)
	...
 294:	00000030 	tge	zero,zero
 298:	0000001d 	0x1d
 29c:	0000001f 	0x1f
 2a0:	5000b0cd 	beqzl	zero,fffec5d8 <g_rec_folder_long+0x403c4720>
 2a4:	80030000 	lb	v1,0(zero)
 2a8:	fffffffc 	sdc3	$31,-4(ra)
	...
 2b4:	00000020 	add	zero,zero,zero
 2b8:	0000001d 	0x1d
 2bc:	0000001f 	0x1f
 2c0:	5004b32d 	beql	zero,a0,fffecf78 <g_rec_folder_long+0x403c50c0>
 2c4:	00000000 	nop
	...
 2d8:	0000001d 	0x1d
 2dc:	0000001f 	0x1f
 2e0:	5004b369 	beql	zero,a0,fffed088 <g_rec_folder_long+0x403c51d0>
 2e4:	80000000 	lb	zero,0(zero)
 2e8:	fffffffc 	sdc3	$31,-4(ra)
	...
 2f4:	00000028 	0x28
 2f8:	0000001d 	0x1d
 2fc:	0000001f 	0x1f
Disassembly of section .debug_abbrev:

00000000 <.debug_abbrev>:
   0:	10011101 	beq	zero,at,4408 <SRAM_AP_BANK_BACK_AL_1_SIZE+0x408>
   4:	130e2506 	beq	t8,t6,9420 <SRAM_BANK_B_ADDR+0x20>
   8:	1b0e030b 	0x1b0e030b
   c:	0200000e 	0x200000e
  10:	0e030024 	jal	80c0090 <BANK_SPACE+0x8080090>
  14:	0b3e0b0b 	j	cf82c2c <BANK_SPACE+0xcf42c2c>
  18:	16030000 	bne	s0,v1,1c <SRAM_CARD_GLOBAL_DATA_SIZE+0xc>
  1c:	3a0e0300 	xori	t6,s0,0x300
  20:	490b3b0b 	bc2tl	$cc2,ec50 <SRAM_ASRC_BUF_0_ADDR+0xc50>
  24:	04000013 	bltz	zero,74 <AP_BANK_BTENGINE_LIB_2>
  28:	08030024 	j	c0090 <BANK_SPACE+0x80090>
  2c:	0b3e0b0b 	j	cf82c2c <BANK_SPACE+0xcf42c2c>
  30:	0f050000 	jal	c140000 <BANK_SPACE+0xc100000>
  34:	000b0b00 	sll	at,t3,0xc
  38:	01010600 	0x1010600
  3c:	13491301 	beq	k0,t1,4c44 <SRAM_AP_BANK_BACK_AL_1_SIZE+0xc44>
  40:	21070000 	addi	a3,t0,0
  44:	2f134900 	sltiu	s3,t8,18688
  48:	0800000b 	j	2c <SRAM_CARD_GLOBAL_DATA_SIZE+0x1c>
  4c:	13010113 	beq	t8,at,49c <RCODE_DATA_BSS_SIZE+0x9c>
  50:	0b3a0b0b 	j	ce82c2c <BANK_SPACE+0xce42c2c>
  54:	00000b3b 	0xb3b
  58:	03000d09 	0x3000d09
  5c:	3b0b3a0e 	xori	t3,t8,0x3a0e
  60:	3813490b 	xori	s3,zero,0x490b
  64:	0a00000a 	j	8000028 <BANK_SPACE+0x7fc0028>
  68:	0b0b000f 	j	c2c003c <BANK_SPACE+0xc28003c>
  6c:	00001349 	0x1349
  70:	0101040b 	0x101040b
  74:	3a0b0b13 	xori	t3,s0,0xb13
  78:	000b3b0b 	0xb3b0b
  7c:	00280c00 	0x280c00
  80:	0d1c0e03 	jal	470380c <BANK_SPACE+0x46c380c>
  84:	130d0000 	beq	t8,t5,88 <SRAM_CARD_DATA_SIZE+0x8>
  88:	0b130101 	j	c4c0404 <BANK_SPACE+0xc480404>
  8c:	3b0b3a0b 	xori	t3,t8,0x3a0b
  90:	0e000005 	jal	8000014 <BANK_SPACE+0x7fc0014>
  94:	0e03000d 	jal	80c0034 <BANK_SPACE+0x8080034>
  98:	053b0b3a 	0x53b0b3a
  9c:	0a381349 	j	8e04d24 <BANK_SPACE+0x8dc4d24>
  a0:	0d0f0000 	jal	43c0000 <BANK_SPACE+0x4380000>
  a4:	3a0e0300 	xori	t6,s0,0x300
  a8:	49053b0b 	bc2t	$cc1,ecd8 <SRAM_ASRC_BUF_0_ADDR+0xcd8>
  ac:	0d0b0b13 	jal	42c2c4c <BANK_SPACE+0x4282c4c>
  b0:	380b0c0b 	xori	t3,zero,0xc0b
  b4:	1000000a 	b	e0 <SRAM_RAM2_RESEVER_SIZE>
  b8:	0e030016 	jal	80c0058 <BANK_SPACE+0x8080058>
  bc:	053b0b3a 	0x53b0b3a
  c0:	00001349 	0x1349
  c4:	01012e11 	0x1012e11
  c8:	030c3f13 	0x30c3f13
  cc:	3b0b3a0e 	xori	t3,t8,0x3a0e
  d0:	110c270b 	beq	t0,t4,9d00 <SRAM_UI_RCODE_ADDR+0x100>
  d4:	40011201 	0x40011201
  d8:	1200000a 	beqz	s0,104 <SRAM_AP_MANAGER_RCODE_SIZE+0x4>
  dc:	08030005 	j	c0014 <BANK_SPACE+0x80014>
  e0:	0b3b0b3a 	j	cec2ce8 <BANK_SPACE+0xce82ce8>
  e4:	0a021349 	j	8084d24 <BANK_SPACE+0x8044d24>
  e8:	34130000 	li	s3,0x0
  ec:	3a0e0300 	xori	t6,s0,0x300
  f0:	490b3b0b 	bc2tl	$cc2,ed20 <SRAM_ASRC_BUF_0_ADDR+0xd20>
  f4:	000a0213 	0xa0213
  f8:	012e1400 	0x12e1400
  fc:	0c3f1301 	jal	fc4c04 <BANK_SPACE+0xf84c04>
 100:	0b3a0e03 	j	ce8380c <BANK_SPACE+0xce4380c>
 104:	0c270b3b 	jal	9c2cec <BANK_SPACE+0x982cec>
 108:	01111349 	0x1111349
 10c:	0a400112 	j	9000448 <BANK_SPACE+0x8fc0448>
 110:	05150000 	0x5150000
 114:	3a0e0300 	xori	t6,s0,0x300
 118:	490b3b0b 	bc2tl	$cc2,ed48 <SRAM_ASRC_BUF_0_ADDR+0xd48>
 11c:	000a0213 	0xa0213
 120:	00341600 	0x341600
 124:	0b3a0803 	j	ce8200c <BANK_SPACE+0xce4200c>
 128:	13490b3b 	beq	k0,t1,2e18 <SRAM_BTSTACK_AVDTP_DATA_SIZE+0x498>
 12c:	00000a02 	srl	at,zero,0x8
 130:	01012e17 	0x1012e17
 134:	030c3f13 	0x30c3f13
 138:	3b0b3a0e 	xori	t3,t8,0x3a0e
 13c:	110c2705 	beq	t0,t4,9d54 <SRAM_UI_RCODE_ADDR+0x154>
 140:	40011201 	0x40011201
 144:	1800000a 	blez	zero,170 <SRAM_BTMANAGER_DATA_SIZE+0x30>
 148:	0e030005 	jal	80c0014 <BANK_SPACE+0x8080014>
 14c:	053b0b3a 	0x53b0b3a
 150:	0a021349 	j	8084d24 <BANK_SPACE+0x8044d24>
 154:	2e190000 	sltiu	t9,s0,0
 158:	3f130101 	0x3f130101
 15c:	3a0e030c 	xori	t6,s0,0x30c
 160:	27053b0b 	addiu	a1,t8,15115
 164:	1113490c 	beq	t0,s3,12598 <SRAM_BT_BACK_RCODE_ADDR+0x1598>
 168:	40011201 	0x40011201
 16c:	1a00000a 	blez	s0,198 <SRAM_BTMANAGER_DATA_SIZE+0x58>
 170:	0e030034 	jal	80c00d0 <BANK_SPACE+0x80800d0>
 174:	053b0b3a 	0x53b0b3a
 178:	0a021349 	j	8084d24 <BANK_SPACE+0x8044d24>
 17c:	341b0000 	li	k1,0x0
 180:	3a080300 	xori	t0,s0,0x300
 184:	49053b0b 	bc2t	$cc1,edb4 <SRAM_ASRC_BUF_0_ADDR+0xdb4>
 188:	000a0213 	0xa0213
 18c:	012e1c00 	0x12e1c00
 190:	0e031301 	jal	80c4c04 <BANK_SPACE+0x8084c04>
 194:	053b0b3a 	0x53b0b3a
 198:	13490c27 	beq	k0,t1,3238 <SROM_TWI_ADDR+0x38>
 19c:	01120111 	0x1120111
 1a0:	00000a40 	sll	at,zero,0x9
 1a4:	03002e1d 	0x3002e1d
 1a8:	3b0b3a0e 	xori	t3,t8,0x3a0e
 1ac:	490c2705 	bc2f	$cc3,9dc4 <SRAM_UI_RCODE_ADDR+0x1c4>
 1b0:	12011113 	beq	s0,at,4600 <SRAM_AP_BANK_BACK_AL_1_SIZE+0x600>
 1b4:	000a4001 	0xa4001
 1b8:	00341e00 	0x341e00
 1bc:	0b3a0e03 	j	ce8380c <BANK_SPACE+0xce4380c>
 1c0:	1349053b 	beq	k0,t1,16b0 <SRAM_BTCALL_CALLRING_BUF_SIZE+0x6b0>
 1c4:	0a1f0000 	j	87c0000 <BANK_SPACE+0x8780000>
 1c8:	3a0e0300 	xori	t6,s0,0x300
 1cc:	11053b0b 	beq	t0,a1,edfc <SRAM_ASRC_BUF_0_ADDR+0xdfc>
 1d0:	20000001 	addi	zero,zero,1
 1d4:	08030005 	j	c0014 <BANK_SPACE+0x80014>
 1d8:	053b0b3a 	0x53b0b3a
 1dc:	0a021349 	j	8084d24 <BANK_SPACE+0x8044d24>
 1e0:	34210000 	ori	at,at,0x0
 1e4:	3a0e0300 	xori	t6,s0,0x300
 1e8:	490b3b0b 	bc2tl	$cc2,ee18 <SRAM_ASRC_BUF_0_ADDR+0xe18>
 1ec:	3c0c3f13 	lui	t4,0x3f13
 1f0:	2200000c 	addi	zero,s0,12
 1f4:	0e030034 	jal	80c00d0 <BANK_SPACE+0x80800d0>
 1f8:	0b3b0b3a 	j	cec2ce8 <BANK_SPACE+0xce82ce8>
 1fc:	0c3f1349 	jal	fc4d24 <BANK_SPACE+0xf84d24>
 200:	00000a02 	srl	at,zero,0x8
 204:	03003423 	0x3003423
 208:	3b0b3a0e 	xori	t3,t8,0x3a0e
 20c:	3f134905 	0x3f134905
 210:	000c3c0c 	syscall	0x30f0
 214:	00212400 	0x212400
 218:	052f1349 	0x52f1349
 21c:	26250000 	addiu	a1,s1,0
 220:	00134900 	sll	t1,s3,0x4
 224:	11010000 	beq	t0,at,228 <SRAM_AP_RCP_COMMAND_BUFFER_SIZE+0x8>
 228:	12061001 	beq	s0,a2,4230 <SRAM_AP_BANK_BACK_AL_1_SIZE+0x230>
 22c:	25011101 	addiu	at,t0,4353
 230:	030b130e 	0x30b130e
 234:	000e1b0e 	0xe1b0e
 238:	00240200 	0x240200
 23c:	0b0b0e03 	j	c2c380c <BANK_SPACE+0xc28380c>
 240:	00000b3e 	0xb3e
 244:	03001603 	0x3001603
 248:	3b0b3a0e 	xori	t3,t8,0x3a0e
 24c:	0013490b 	0x13490b
 250:	00240400 	0x240400
 254:	0b0b0803 	j	c2c200c <BANK_SPACE+0xc28200c>
 258:	00000b3e 	0xb3e
 25c:	0b000f05 	j	c003c14 <BANK_SPACE+0xbfc3c14>
 260:	0013490b 	0x13490b
 264:	01130600 	0x1130600
 268:	0b0b1301 	j	c2c4c04 <BANK_SPACE+0xc284c04>
 26c:	053b0b3a 	0x53b0b3a
 270:	0d070000 	jal	41c0000 <BANK_SPACE+0x4180000>
 274:	3a0e0300 	xori	t6,s0,0x300
 278:	49053b0b 	bc2t	$cc1,eea8 <SRAM_ASRC_BUF_0_ADDR+0xea8>
 27c:	000a3813 	0xa3813
 280:	000d0800 	sll	at,t5,0x0
 284:	0b3a0e03 	j	ce8380c <BANK_SPACE+0xce4380c>
 288:	1349053b 	beq	k0,t1,1778 <SRAM_BTCALL_CALLRING_BUF_SIZE+0x778>
 28c:	0b0d0b0b 	j	c342c2c <BANK_SPACE+0xc302c2c>
 290:	0a380b0c 	j	8e02c30 <BANK_SPACE+0x8dc2c30>
 294:	16090000 	bne	s0,t1,298 <SRAM_AP_RCP_COMMAND_BUFFER_SIZE+0x78>
 298:	3a0e0300 	xori	t6,s0,0x300
 29c:	49053b0b 	bc2t	$cc1,eecc <SRAM_ASRC_BUF_0_ADDR+0xecc>
 2a0:	0a000013 	j	800004c <BANK_SPACE+0x7fc004c>
 2a4:	1301012e 	beq	t8,at,760 <BANK_BASAL_SIZE+0x60>
 2a8:	0e030c3f 	jal	80c30fc <BANK_SPACE+0x80830fc>
 2ac:	0b3b0b3a 	j	cec2ce8 <BANK_SPACE+0xce82ce8>
 2b0:	13490c27 	beq	k0,t1,3350 <SROM_TWI_ADDR+0x150>
 2b4:	01120111 	0x1120111
 2b8:	00000a40 	sll	at,zero,0x9
 2bc:	0300050b 	0x300050b
 2c0:	3b0b3a0e 	xori	t3,t8,0x3a0e
 2c4:	0213490b 	0x213490b
 2c8:	0c00000a 	jal	28 <SRAM_CARD_GLOBAL_DATA_SIZE+0x18>
 2cc:	08030034 	j	c00d0 <BANK_SPACE+0x800d0>
 2d0:	0b3b0b3a 	j	cec2ce8 <BANK_SPACE+0xce82ce8>
 2d4:	0a021349 	j	8084d24 <BANK_SPACE+0x8044d24>
 2d8:	340d0000 	li	t5,0x0
 2dc:	3a0e0300 	xori	t6,s0,0x300
 2e0:	490b3b0b 	bc2tl	$cc2,ef10 <SRAM_ASRC_BUF_0_ADDR+0xf10>
 2e4:	3c0c3f13 	lui	t4,0x3f13
 2e8:	0e00000c 	jal	8000030 <BANK_SPACE+0x7fc0030>
 2ec:	0e030034 	jal	80c00d0 <BANK_SPACE+0x80800d0>
 2f0:	053b0b3a 	0x53b0b3a
 2f4:	0c3f1349 	jal	fc4d24 <BANK_SPACE+0xf84d24>
 2f8:	00000c3c 	0xc3c
 2fc:	0101010f 	0x101010f
 300:	00134913 	0x134913
 304:	00211000 	0x211000
 308:	0b2f1349 	j	cbc4d24 <BANK_SPACE+0xcb84d24>
 30c:	26110000 	addiu	s1,s0,0
 310:	00134900 	sll	t1,s3,0x4
 314:	00341200 	0x341200
 318:	0b3a0e03 	j	ce8380c <BANK_SPACE+0xce4380c>
 31c:	13490b3b 	beq	k0,t1,300c <SRAM_BTSTACK_AVDTP_DATA_SIZE+0x68c>
 320:	0a020c3f 	j	80830fc <BANK_SPACE+0x80430fc>
 324:	01000000 	0x1000000
 328:	06100111 	bltzal	s0,770 <BANK_BASAL_SIZE+0x70>
 32c:	01110112 	0x1110112
 330:	0b130e25 	j	c4c3894 <BANK_SPACE+0xc483894>
 334:	0e1b0e03 	jal	86c380c <BANK_SPACE+0x868380c>
 338:	24020000 	li	v0,0
 33c:	0b0e0300 	j	c380c00 <BANK_SPACE+0xc340c00>
 340:	000b3e0b 	0xb3e0b
 344:	00160300 	sll	zero,s6,0xc
 348:	0b3a0e03 	j	ce8380c <BANK_SPACE+0xce4380c>
 34c:	13490b3b 	beq	k0,t1,303c <SRAM_BTSTACK_AVDTP_DATA_SIZE+0x6bc>
 350:	24040000 	li	a0,0
 354:	0b080300 	j	c200c00 <BANK_SPACE+0xc1c0c00>
 358:	000b3e0b 	0xb3e0b
 35c:	000f0500 	sll	zero,t7,0x14
 360:	00000b0b 	0xb0b
 364:	01010106 	0x1010106
 368:	00134913 	0x134913
 36c:	00210700 	0x210700
 370:	0b2f1349 	j	cbc4d24 <BANK_SPACE+0xcb84d24>
 374:	13080000 	beq	t8,t0,378 <SRAM_FS_DATA_SIZE+0x78>
 378:	0b130101 	j	c4c0404 <BANK_SPACE+0xc480404>
 37c:	3b0b3a0b 	xori	t3,t8,0x3a0b
 380:	0900000b 	j	400002c <BANK_SPACE+0x3fc002c>
 384:	0e03000d 	jal	80c0034 <BANK_SPACE+0x8080034>
 388:	0b3b0b3a 	j	cec2ce8 <BANK_SPACE+0xce82ce8>
 38c:	0a381349 	j	8e04d24 <BANK_SPACE+0x8dc4d24>
 390:	0f0a0000 	jal	c280000 <BANK_SPACE+0xc240000>
 394:	490b0b00 	bc2tl	$cc2,2f98 <SRAM_BTSTACK_AVDTP_DATA_SIZE+0x618>
 398:	0b000013 	j	c00004c <BANK_SPACE+0xbfc004c>
 39c:	13010115 	beq	t8,at,7f4 <BANK_BASAL_SIZE+0xf4>
 3a0:	13490c27 	beq	k0,t1,3440 <SRAM_BT_HEAD_SIZE+0x40>
 3a4:	050c0000 	teqi	t0,0
 3a8:	00134900 	sll	t1,s3,0x4
 3ac:	000d0d00 	sll	at,t5,0x14
 3b0:	0b3a0803 	j	ce8200c <BANK_SPACE+0xce4200c>
 3b4:	13490b3b 	beq	k0,t1,30a4 <SRAM_BTSTACK_AVDTP_DATA_SIZE+0x724>
 3b8:	00000a38 	0xa38
 3bc:	01012e0e 	0x1012e0e
 3c0:	030c3f13 	0x30c3f13
 3c4:	3b0b3a0e 	xori	t3,t8,0x3a0e
 3c8:	490c270b 	bc2f	$cc3,9ff8 <SRAM_RAM6_CCD_GLOBAL_DATA_ADDR+0x38>
 3cc:	12011113 	beq	s0,at,481c <SRAM_AP_BANK_BACK_AL_1_SIZE+0x81c>
 3d0:	000a4001 	0xa4001
 3d4:	00050f00 	sll	at,a1,0x1c
 3d8:	0b3a0e03 	j	ce8380c <BANK_SPACE+0xce4380c>
 3dc:	13490b3b 	beq	k0,t1,30cc <SRAM_BTSTACK_AVDTP_DATA_SIZE+0x74c>
 3e0:	00000a02 	srl	at,zero,0x8
 3e4:	03003410 	0x3003410
 3e8:	3b0b3a0e 	xori	t3,t8,0x3a0e
 3ec:	0013490b 	0x13490b
 3f0:	00341100 	0x341100
 3f4:	0b3a0e03 	j	ce8380c <BANK_SPACE+0xce4380c>
 3f8:	13490b3b 	beq	k0,t1,30e8 <SRAM_BTSTACK_AVDTP_DATA_SIZE+0x768>
 3fc:	00000a02 	srl	at,zero,0x8
 400:	03003412 	0x3003412
 404:	3b0b3a0e 	xori	t3,t8,0x3a0e
 408:	3f13490b 	0x3f13490b
 40c:	000a020c 	syscall	0x2808
 410:	00341300 	0x341300
 414:	0b3a0e03 	j	ce8380c <BANK_SPACE+0xce4380c>
 418:	13490b3b 	beq	k0,t1,3108 <SRAM_BTSTACK_AVDTP_DATA_SIZE+0x788>
 41c:	0c3c0c3f 	jal	f030fc <BANK_SPACE+0xec30fc>
 420:	01000000 	0x1000000
 424:	06100111 	bltzal	s0,86c <SRAM_AP_BACK_RCODE_SIZE+0x6c>
 428:	01110112 	0x1110112
 42c:	0b130e25 	j	c4c3894 <BANK_SPACE+0xc483894>
 430:	0e1b0e03 	jal	86c380c <BANK_SPACE+0x868380c>
 434:	24020000 	li	v0,0
 438:	0b0e0300 	j	c380c00 <BANK_SPACE+0xc340c00>
 43c:	000b3e0b 	0xb3e0b
 440:	00160300 	sll	zero,s6,0xc
 444:	0b3a0e03 	j	ce8380c <BANK_SPACE+0xce4380c>
 448:	13490b3b 	beq	k0,t1,3138 <SRAM_BTSTACK_AVDTP_DATA_SIZE+0x7b8>
 44c:	24040000 	li	a0,0
 450:	0b080300 	j	c200c00 <BANK_SPACE+0xc1c0c00>
 454:	000b3e0b 	0xb3e0b
 458:	01130500 	0x1130500
 45c:	0b0b1301 	j	c2c4c04 <BANK_SPACE+0xc284c04>
 460:	0b3b0b3a 	j	cec2ce8 <BANK_SPACE+0xce82ce8>
 464:	0d060000 	jal	4180000 <BANK_SPACE+0x4140000>
 468:	3a0e0300 	xori	t6,s0,0x300
 46c:	490b3b0b 	bc2tl	$cc2,f09c <SRAM_ASRC_BUF_1_ADDR+0x9c>
 470:	000a3813 	0xa3813
 474:	000d0700 	sll	zero,t5,0x1c
 478:	0b3a0803 	j	ce8200c <BANK_SPACE+0xce4200c>
 47c:	13490b3b 	beq	k0,t1,316c <SRAM_BTSTACK_AVDTP_DATA_SIZE+0x7ec>
 480:	00000a38 	0xa38
 484:	0b000f08 	j	c003c20 <BANK_SPACE+0xbfc3c20>
 488:	0013490b 	0x13490b
 48c:	01130900 	0x1130900
 490:	0b0b1301 	j	c2c4c04 <BANK_SPACE+0xc284c04>
 494:	053b0b3a 	0x53b0b3a
 498:	0d0a0000 	jal	4280000 <BANK_SPACE+0x4240000>
 49c:	3a0e0300 	xori	t6,s0,0x300
 4a0:	49053b0b 	bc2t	$cc1,f0d0 <SRAM_ASRC_BUF_1_ADDR+0xd0>
 4a4:	000a3813 	0xa3813
 4a8:	000d0b00 	sll	at,t5,0xc
 4ac:	0b3a0e03 	j	ce8380c <BANK_SPACE+0xce4380c>
 4b0:	1349053b 	beq	k0,t1,19a0 <SRAM_BTCALL_CALLRING_BUF_SIZE+0x9a0>
 4b4:	0b0d0b0b 	j	c342c2c <BANK_SPACE+0xc302c2c>
 4b8:	0a380b0c 	j	8e02c30 <BANK_SPACE+0x8dc2c30>
 4bc:	160c0000 	bne	s0,t4,4c0 <RCODE_DATA_BSS_SIZE+0xc0>
 4c0:	3a0e0300 	xori	t6,s0,0x300
 4c4:	49053b0b 	bc2t	$cc1,f0f4 <SRAM_ASRC_BUF_1_ADDR+0xf4>
 4c8:	0d000013 	jal	400004c <BANK_SPACE+0x3fc004c>
 4cc:	1301012e 	beq	t8,at,988 <SRAM_OS_DATA_SIZE+0x108>
 4d0:	0e030c3f 	jal	80c30fc <BANK_SPACE+0x80830fc>
 4d4:	0b3b0b3a 	j	cec2ce8 <BANK_SPACE+0xce82ce8>
 4d8:	13490c27 	beq	k0,t1,3578 <SRAM_BT_HEAD_SIZE+0x178>
 4dc:	01120111 	0x1120111
 4e0:	00000a40 	sll	at,zero,0x9
 4e4:	0300050e 	0x300050e
 4e8:	3b0b3a08 	xori	t3,t8,0x3a08
 4ec:	0213490b 	0x213490b
 4f0:	0f00000a 	jal	c000028 <BANK_SPACE+0xbfc0028>
 4f4:	08030034 	j	c00d0 <BANK_SPACE+0x800d0>
 4f8:	0b3b0b3a 	j	cec2ce8 <BANK_SPACE+0xce82ce8>
 4fc:	0a021349 	j	8084d24 <BANK_SPACE+0x8044d24>
 500:	2e100000 	sltiu	s0,s0,0
 504:	3f130101 	0x3f130101
 508:	3a0e030c 	xori	t6,s0,0x30c
 50c:	270b3b0b 	addiu	t3,t8,15115
 510:	1201110c 	beq	s0,at,4944 <SRAM_AP_BANK_BACK_AL_1_SIZE+0x944>
 514:	000a4001 	0xa4001
 518:	00051100 	sll	v0,a1,0x4
 51c:	0b3a0e03 	j	ce8380c <BANK_SPACE+0xce4380c>
 520:	13490b3b 	beq	k0,t1,3210 <SROM_TWI_ADDR+0x10>
 524:	00000a02 	srl	at,zero,0x8
 528:	03003412 	0x3003412
 52c:	3b0b3a0e 	xori	t3,t8,0x3a0e
 530:	0213490b 	0x213490b
 534:	1300000a 	beqz	t8,560 <SRAM_BT_CONTROLLER_RCODE_SIZE+0x60>
 538:	08030034 	j	c00d0 <BANK_SPACE+0x800d0>
 53c:	0b3b0b3a 	j	cec2ce8 <BANK_SPACE+0xce82ce8>
 540:	00001349 	0x1349
 544:	03003414 	0x3003414
 548:	3b0b3a0e 	xori	t3,t8,0x3a0e
 54c:	3f13490b 	0x3f13490b
 550:	000a020c 	syscall	0x2808
 554:	00341500 	0x341500
 558:	0b3a0e03 	j	ce8380c <BANK_SPACE+0xce4380c>
 55c:	13490b3b 	beq	k0,t1,324c <SROM_TWI_ADDR+0x4c>
 560:	0c3c0c3f 	jal	f030fc <BANK_SPACE+0xec30fc>
 564:	34160000 	li	s6,0x0
 568:	3a0e0300 	xori	t6,s0,0x300
 56c:	49053b0b 	bc2t	$cc1,f19c <SRAM_ASRC_BUF_1_ADDR+0x19c>
 570:	3c0c3f13 	lui	t4,0x3f13
 574:	0000000c 	syscall
Disassembly of section .debug_info:

00000000 <.debug_info>:
       0:	00000e17 	0xe17
       4:	00000002 	srl	zero,zero,0x0
       8:	01040000 	0x1040000
       c:	00000000 	nop
      10:	000000e3 	0xe3
      14:	0007f801 	0x7f801
      18:	00017d00 	sll	t7,at,0x14
      1c:	04f30200 	bgezall	a3,820 <SRAM_AP_BACK_RCODE_SIZE+0x20>
      20:	08010000 	j	40000 <BANK_SPACE>
      24:	0002f003 	sra	s8,v0,0x0
      28:	1d0f0300 	0x1d0f0300
      2c:	02000000 	0x2000000
      30:	000004f5 	0x4f5
      34:	83020601 	lb	v0,1537(t8)
      38:	02000004 	sllv	zero,zero,s0
      3c:	071e0207 	0x71e0207
      40:	05020000 	bltzl	t0,44 <AP_BANK_AUTOTEST+0x3>
      44:	0004db02 	srl	k1,a0,0xc
      48:	02070400 	0x2070400
      4c:	00000005 	0x5
      50:	ed020504 	swc3	$2,1284(t0)
      54:	04000004 	bltz	zero,68 <AP_BANK_BACK_BASAL>
      58:	024c0204 	0x24c0204
      5c:	04080000 	tgei	zero,0
      60:	0004d602 	srl	k0,a0,0x18
      64:	02070800 	0x2070800
      68:	00000000 	nop
      6c:	e0020508 	sc	v0,1288(zero)
      70:	04000004 	bltz	zero,84 <SRAM_CARD_DATA_SIZE+0x4>
      74:	02460307 	0x2460307
      78:	15020000 	bne	t0,v0,7c <AP_BANK_BTENGINE_EXTEND_4>
      7c:	0000001d 	0x1d
      80:	00024703 	sra	t0,v0,0x1c
      84:	2f190200 	sltiu	t9,t8,512
      88:	03000000 	0x3000000
      8c:	00000a88 	0xa88
      90:	00361d02 	ror	v1,s6,0x14
      94:	51030000 	beql	t0,v1,98 <SRAM_CARD_DATA_SIZE+0x18>
      98:	0200000c 	syscall	0x80000
      9c:	00006e25 	0x6e25
      a0:	0c520300 	jal	1480c00 <BANK_SPACE+0x1440c00>
      a4:	29020000 	slti	v0,t0,0
      a8:	000000ac 	0xac
      ac:	746e6904 	jalx	1b9a410 <BANK_SPACE+0x1b5a410>
      b0:	02050400 	0x2050400
      b4:	000004fc 	0x4fc
      b8:	db020601 	ldc2	$2,1537(t8)
      bc:	04000004 	bltz	zero,d0 <SRAM_CARD_DATA_SIZE+0x50>
      c0:	06040507 	0x6040507
      c4:	000000d3 	0xd3
      c8:	0000001d 	0x1d
      cc:	0000ba07 	0xba07
      d0:	08000100 	j	400 <RCODE_DATA_BSS_SIZE>
      d4:	000000ea 	0xea
      d8:	09860449 	j	6181124 <BANK_SPACE+0x6141124>
      dc:	0000054c 	syscall	0x15
      e0:	00ea8504 	0xea8504
      e4:	23020000 	addi	v0,t8,0
      e8:	fa060000 	sdc2	$6,0(s0)
      ec:	75000000 	jalx	4000000 <BANK_SPACE+0x3fc0000>
      f0:	07000000 	bltz	t8,f4 <SRAM_RAM2_RESEVER_SIZE+0x14>
      f4:	000000ba 	0xba
      f8:	aa030048 	swl	v1,72(s0)
      fc:	0400000a 	bltz	zero,128 <SRAM_DSP_IRQ_TABLE_SIZE+0x8>
     100:	0000d386 	0xd386
     104:	011c0800 	0x11c0800
     108:	04080000 	tgei	zero,0
     10c:	054c098d 	teqi	t2,2445
     110:	8c040000 	lw	a0,0(zero)
     114:	0000011c 	0x11c
     118:	00002302 	srl	a0,zero,0xc
     11c:	00012c06 	0x12c06
     120:	00007500 	sll	t6,zero,0x14
     124:	00ba0700 	0xba0700
     128:	00070000 	sll	zero,a3,0x0
     12c:	00026e03 	sra	t5,v0,0x18
     130:	058d0400 	0x58d0400
     134:	08000001 	j	4 <DRV_GROUP_EXFAT>
     138:	00000186 	0x186
     13c:	09e3080c 	j	78c2030 <BANK_SPACE+0x7882030>
     140:	00000704 	0x704
     144:	001ddb08 	0x1ddb08
     148:	23020000 	addi	v0,t8,0
     14c:	091a0900 	j	4682400 <BANK_SPACE+0x4642400>
     150:	dc080000 	ldc3	$8,0(zero)
     154:	0000001d 	0x1d
     158:	09012302 	j	4048c08 <BANK_SPACE+0x4008c08>
     15c:	00000642 	srl	zero,zero,0x19
     160:	0036dd08 	0x36dd08
     164:	23020000 	addi	v0,t8,0
     168:	08650902 	j	1942408 <BANK_SPACE+0x1902408>
     16c:	de080000 	ldc3	$8,0(s0)
     170:	000000c1 	0xc1
     174:	09042302 	j	4108c08 <BANK_SPACE+0x40c8c08>
     178:	000008fa 	0x8fa
     17c:	00c3df08 	0xc3df08
     180:	23020000 	addi	v0,t8,0
     184:	8a030008 	lwl	v1,8(s0)
     188:	08000003 	j	c <DRV_GROUP_BT>
     18c:	000137e3 	0x137e3
     190:	86040a00 	lh	a0,2560(s0)
     194:	0a000001 	j	8000004 <BANK_SPACE+0x7fc0004>
     198:	00007504 	0x7504
     19c:	01b80b00 	0x1b80b00
     1a0:	06010000 	bgez	s0,1a4 <SRAM_BTMANAGER_DATA_SIZE+0x64>
     1a4:	060e0c1f 	tnei	s0,3103
     1a8:	0c000000 	jal	0 <CODEC_INDEX>
     1ac:	000009a0 	0x9a0
     1b0:	03c50c01 	0x3c50c01
     1b4:	00020000 	sll	zero,v0,0x0
     1b8:	0004b203 	sra	s6,a0,0x8
     1bc:	9d260600 	0x9d260600
     1c0:	08000001 	j	4 <DRV_GROUP_EXFAT>
     1c4:	0000022e 	0x22e
     1c8:	09270b14 	j	49c2c50 <BANK_SPACE+0x4982c50>
     1cc:	0000078b 	0x78b
     1d0:	008b1b0b 	0x8b1b0b
     1d4:	23020000 	addi	v0,t8,0
     1d8:	07db0900 	0x7db0900
     1dc:	1d0b0000 	0x1d0b0000
     1e0:	00000075 	0x75
     1e4:	09022302 	j	4088c08 <BANK_SPACE+0x4048c08>
     1e8:	0000040f 	sync.p
     1ec:	00751e0b 	0x751e0b
     1f0:	23020000 	addi	v0,t8,0
     1f4:	07aa0903 	tlti	sp,2307
     1f8:	200b0000 	addi	t3,zero,0
     1fc:	00000096 	0x96
     200:	09042302 	j	4108c08 <BANK_SPACE+0x40c8c08>
     204:	00000355 	0x355
     208:	0096220b 	0x96220b
     20c:	23020000 	addi	v0,t8,0
     210:	05c10908 	bgez	t6,2634 <SROM_BROM_SIZE+0x34>
     214:	240b0000 	li	t3,0
     218:	00000096 	0x96
     21c:	090c2302 	j	4308c08 <BANK_SPACE+0x42c8c08>
     220:	00000728 	0x728
     224:	0096260b 	0x96260b
     228:	23020000 	addi	v0,t8,0
     22c:	69030010 	0x69030010
     230:	0b000000 	j	c000000 <BANK_SPACE+0xbfc0000>
     234:	0001c327 	0x1c327
     238:	02880800 	0x2880800
     23c:	0b0c0000 	j	c300000 <BANK_SPACE+0xc2c0000>
     240:	06280934 	tgei	s1,2356
     244:	2c0b0000 	sltiu	t3,zero,0
     248:	0000008b 	0x8b
     24c:	09002302 	j	4008c08 <BANK_SPACE+0x3fc8c08>
     250:	00000287 	0x287
     254:	008b2e0b 	0x8b2e0b
     258:	23020000 	addi	v0,t8,0
     25c:	06f10902 	bgezal	s7,2668 <SROM_BROM_SIZE+0x68>
     260:	300b0000 	andi	t3,zero,0x0
     264:	00000075 	0x75
     268:	09042302 	j	4108c08 <BANK_SPACE+0x40c8c08>
     26c:	0000088c 	syscall	0x22
     270:	0288320b 	0x288320b
     274:	23020000 	addi	v0,t8,0
     278:	09fd0905 	j	7f42414 <BANK_SPACE+0x7f02414>
     27c:	330b0000 	andi	t3,t8,0x0
     280:	00000096 	0x96
     284:	00082302 	srl	a0,t0,0xc
     288:	00029806 	srlv	s3,v0,zero
     28c:	00007500 	sll	t6,zero,0x14
     290:	00ba0700 	0xba0700
     294:	00020000 	sll	zero,v0,0x0
     298:	0009b103 	sra	s6,t1,0x4
     29c:	39340b00 	xori	s4,t1,0xb00
     2a0:	0b000002 	j	c000008 <BANK_SPACE+0xbfc0008>
     2a4:	000002fa 	0x2fa
     2a8:	0cbf0501 	jal	2fc1404 <BANK_SPACE+0x2f81404>
     2ac:	000007d0 	0x7d0
     2b0:	00850c00 	0x850c00
     2b4:	0c010000 	jal	40000 <BANK_SPACE>
     2b8:	000002df 	0x2df
     2bc:	002f0c02 	ror	at,t7,0x10
     2c0:	0c030000 	jal	c0000 <BANK_SPACE+0x80000>
     2c4:	00000054 	0x54
     2c8:	0a0e0c04 	j	8383010 <BANK_SPACE+0x8343010>
     2cc:	0c050000 	jal	140000 <BANK_SPACE+0x100000>
     2d0:	00000a24 	0xa24
     2d4:	058c0c06 	teqi	t4,3078
     2d8:	0c070000 	jal	1c0000 <BANK_SPACE+0x180000>
     2dc:	00000824 	and	at,zero,zero
     2e0:	09cf0c08 	j	73c3020 <BANK_SPACE+0x7383020>
     2e4:	0c090000 	jal	240000 <BANK_SPACE+0x200000>
     2e8:	000008e7 	0x8e7
     2ec:	00ad0c0a 	0xad0c0a
     2f0:	0c0b0000 	jal	2c0000 <BANK_SPACE+0x280000>
     2f4:	00000907 	0x907
     2f8:	8a03000c 	lwl	v1,12(s0)
     2fc:	05000009 	bltz	t0,324 <SRAM_FS_DATA_SIZE+0x24>
     300:	0002a3db 	0x2a3db
     304:	3d040a00 	0x3d040a00
     308:	06000000 	bltz	s0,30c <SRAM_FS_DATA_SIZE+0xc>
     30c:	0000031b 	0x31b
     310:	00000075 	0x75
     314:	0000ba07 	0xba07
     318:	08001f00 	j	7c00 <SRAM_AP_BACK_AL_RCODE_1_SIZE+0xc00>
     31c:	0000034e 	0x34e
     320:	091c070c 	j	4701c30 <BANK_SPACE+0x46c1c30>
     324:	000008d4 	0x8d4
     328:	01911707 	0x1911707
     32c:	23020000 	addi	v0,t8,0
     330:	089b0900 	j	26c2400 <BANK_SPACE+0x2682400>
     334:	19070000 	0x19070000
     338:	000000a1 	0xa1
     33c:	09042302 	j	4108c08 <BANK_SPACE+0x40c8c08>
     340:	000000d3 	0xd3
     344:	00a11b07 	0xa11b07
     348:	23020000 	addi	v0,t8,0
     34c:	dc030008 	ldc3	$3,8(zero)
     350:	07000005 	bltz	t8,368 <SRAM_FS_DATA_SIZE+0x68>
     354:	00031b1c 	0x31b1c
     358:	04d40d00 	0x4d40d00
     35c:	0a1c0000 	j	8700000 <BANK_SPACE+0x86c0000>
     360:	670e0132 	0x670e0132
     364:	0a000004 	j	8000010 <BANK_SPACE+0x7fc0010>
     368:	00750107 	0x750107
     36c:	23020000 	addi	v0,t8,0
     370:	012a0e00 	0x12a0e00
     374:	090a0000 	j	4280000 <BANK_SPACE+0x4240000>
     378:	00007501 	0x7501
     37c:	01230200 	0x1230200
     380:	0009540e 	0x9540e
     384:	010b0a00 	0x10b0a00
     388:	00000075 	0x75
     38c:	0e022302 	jal	8088c08 <BANK_SPACE+0x8048c08>
     390:	0000049b 	0x49b
     394:	75010d0a 	jalx	4043428 <BANK_SPACE+0x4003428>
     398:	02000000 	0x2000000
     39c:	9f0e0323 	0x9f0e0323
     3a0:	0a000005 	j	8000014 <BANK_SPACE+0x7fc0014>
     3a4:	00750112 	0x750112
     3a8:	23020000 	addi	v0,t8,0
     3ac:	01590e04 	0x1590e04
     3b0:	130a0000 	beq	t8,t2,3b4 <SRAM_FS_DATA_SIZE+0xb4>
     3b4:	00007501 	0x7501
     3b8:	05230200 	bgezl	t1,bbc <SRAM_COMMON_BT_MANAGER_SIZE+0xbc>
     3bc:	0001fa0f 	0x1fa0f
     3c0:	01140a00 	0x1140a00
     3c4:	00000075 	0x75
     3c8:	02040401 	0x2040401
     3cc:	6e0f0623 	0x6e0f0623
     3d0:	0a000009 	j	8000024 <BANK_SPACE+0x7fc0024>
     3d4:	00750115 	0x750115
     3d8:	04010000 	b	3dc <SRAM_FS_DATA_SIZE+0xdc>
     3dc:	06230200 	bgezl	s1,be0 <SRAM_COMMON_BT_MANAGER_SIZE+0xe0>
     3e0:	0005b50e 	0x5b50e
     3e4:	01180a00 	0x1180a00
     3e8:	00000075 	0x75
     3ec:	0e072302 	jal	81c8c08 <BANK_SPACE+0x8188c08>
     3f0:	00000340 	sll	zero,zero,0xd
     3f4:	75011a0a 	jalx	4046828 <BANK_SPACE+0x4006828>
     3f8:	02000000 	0x2000000
     3fc:	d00e0823 	0xd00e0823
     400:	0a000006 	j	8000018 <BANK_SPACE+0x7fc0018>
     404:	0075011d 	0x75011d
     408:	23020000 	addi	v0,t8,0
     40c:	032a0e09 	0x32a0e09
     410:	200a0000 	addi	t2,zero,0
     414:	00002401 	0x2401
     418:	0a230200 	j	88c0800 <BANK_SPACE+0x8880800>
     41c:	0006330e 	0x6330e
     420:	01210a00 	0x1210a00
     424:	00000305 	0x305
     428:	0e0c2302 	jal	8308c08 <BANK_SPACE+0x82c8c08>
     42c:	000003fa 	0x3fa
     430:	0501240a 	bgez	t0,945c <SRAM_BANK_B_ADDR+0x5c>
     434:	02000003 	0x2000003
     438:	1a0e1023 	0x1a0e1023
     43c:	0a000000 	j	8000000 <BANK_SPACE+0x7fc0000>
     440:	03050125 	0x3050125
     444:	23020000 	addi	v0,t8,0
     448:	075d0e14 	0x75d0e14
     44c:	280a0000 	slti	t2,zero,0
     450:	00007501 	0x7501
     454:	18230200 	0x18230200
     458:	0004440e 	0x4440e
     45c:	01290a00 	0x1290a00
     460:	00000075 	0x75
     464:	0f192302 	jal	c648c08 <BANK_SPACE+0xc608c08>
     468:	000006ba 	0x6ba
     46c:	75012b0a 	jalx	404ac28 <BANK_SPACE+0x400ac28>
     470:	01000000 	0x1000000
     474:	23020503 	addi	v0,t8,1283
     478:	05170f1a 	0x5170f1a
     47c:	2c0a0000 	sltiu	t2,zero,0
     480:	00007501 	0x7501
     484:	04010100 	b	888 <SRAM_OS_DATA_SIZE+0x8>
     488:	0f1a2302 	jal	c688c08 <BANK_SPACE+0xc648c08>
     48c:	000005cd 	break	0x0,0x17
     490:	75012d0a 	jalx	404b428 <BANK_SPACE+0x400b428>
     494:	01000000 	0x1000000
     498:	23020301 	addi	v0,t8,769
     49c:	03a90f1a 	0x3a90f1a
     4a0:	2e0a0000 	sltiu	t2,s0,0
     4a4:	00007501 	0x7501
     4a8:	02010100 	0x2010100
     4ac:	0f1a2302 	jal	c688c08 <BANK_SPACE+0xc648c08>
     4b0:	0000084c 	syscall	0x21
     4b4:	75012f0a 	jalx	404bc28 <BANK_SPACE+0x400bc28>
     4b8:	01000000 	0x1000000
     4bc:	23020101 	addi	v0,t8,257
     4c0:	08370f1a 	j	dc3c68 <BANK_SPACE+0xd83c68>
     4c4:	310a0000 	andi	t2,t0,0x0
     4c8:	00007501 	0x7501
     4cc:	00010100 	sll	zero,at,0x4
     4d0:	001a2302 	srl	a0,k0,0xc
     4d4:	000a4c10 	0xa4c10
     4d8:	01320a00 	0x1320a00
     4dc:	00000359 	0x359
     4e0:	0006670d 	break	0x6,0x19c
     4e4:	6b0a1800 	0x6b0a1800
     4e8:	03ef0e01 	0x3ef0e01
     4ec:	3a0a0000 	xori	t2,s0,0x0
     4f0:	00002401 	0x2401
     4f4:	00230200 	0x230200
     4f8:	0009380e 	0x9380e
     4fc:	013c0a00 	0x13c0a00
     500:	00000024 	and	zero,zero,zero
     504:	0e012302 	jal	8048c08 <BANK_SPACE+0x8008c08>
     508:	00000781 	0x781
     50c:	75013e0a 	jalx	404f828 <BANK_SPACE+0x400f828>
     510:	02000000 	0x2000000
     514:	1a0e0223 	0x1a0e0223
     518:	0a000001 	j	8000004 <BANK_SPACE+0x7fc0004>
     51c:	00750140 	0x750140
     520:	23020000 	addi	v0,t8,0
     524:	06e60e03 	0x6e60e03
     528:	420a0000 	c0	0xa0000
     52c:	00007501 	0x7501
     530:	04230200 	bgezl	at,d34 <SRAM_BT_EXT3_BANK_SIZE+0x34>
     534:	0002240e 	0x2240e
     538:	01440a00 	0x1440a00
     53c:	00000075 	0x75
     540:	0e052302 	jal	8148c08 <BANK_SPACE+0x8108c08>
     544:	000009c2 	srl	at,zero,0x7
     548:	7501460a 	jalx	4051828 <BANK_SPACE+0x4011828>
     54c:	02000000 	0x2000000
     550:	e50e0623 	swc1	$f14,1571(t0)
     554:	0a000007 	j	800001c <BANK_SPACE+0x7fc001c>
     558:	00750148 	0x750148
     55c:	23020000 	addi	v0,t8,0
     560:	07c00e07 	bltz	s8,3d80 <SROM_STUB_ADDR_MDY+0x280>
     564:	4a0a0000 	c2	0xa0000
     568:	00002401 	0x2401
     56c:	08230200 	j	8c0800 <BANK_SPACE+0x880800>
     570:	0008da0e 	0x8da0e
     574:	014c0a00 	0x14c0a00
     578:	00000075 	0x75
     57c:	0e092302 	jal	8248c08 <BANK_SPACE+0x8208c08>
     580:	00000208 	0x208
     584:	75014e0a 	jalx	4053828 <BANK_SPACE+0x4013828>
     588:	02000000 	0x2000000
     58c:	c50e0a23 	lwc1	$f14,2595(t0)
     590:	0a000006 	j	8000018 <BANK_SPACE+0x7fc0018>
     594:	00240150 	0x240150
     598:	23020000 	addi	v0,t8,0
     59c:	087c0f0b 	j	1f03c2c <BANK_SPACE+0x1ec3c2c>
     5a0:	520a0000 	beql	s0,t2,5a4 <SRAM_BT_CONTROLLER_RCODE_SIZE+0xa4>
     5a4:	00007501 	0x7501
     5a8:	01070100 	0x1070100
     5ac:	0f0c2302 	jal	c308c08 <BANK_SPACE+0xc2c8c08>
     5b0:	00000444 	0x444
     5b4:	7501530a 	jalx	4054c28 <BANK_SPACE+0x4014c28>
     5b8:	01000000 	0x1000000
     5bc:	23020001 	addi	v0,t8,1
     5c0:	0a6a0e0c 	j	9a83830 <BANK_SPACE+0x9a43830>
     5c4:	550a0000 	bnel	t0,t2,5c8 <SRAM_BT_CONTROLLER_RCODE_SIZE+0xc8>
     5c8:	00007501 	0x7501
     5cc:	0d230200 	jal	48c0800 <BANK_SPACE+0x4880800>
     5d0:	0009400e 	0x9400e
     5d4:	01580a00 	0x1580a00
     5d8:	00000024 	and	zero,zero,zero
     5dc:	0e0e2302 	jal	8388c08 <BANK_SPACE+0x8348c08>
     5e0:	00000751 	0x751
     5e4:	24015a0a 	li	at,23050
     5e8:	02000000 	0x2000000
     5ec:	c40e0f23 	lwc1	$f14,3875(zero)
     5f0:	0a000008 	j	8000020 <BANK_SPACE+0x7fc0020>
     5f4:	0024015c 	0x24015c
     5f8:	23020000 	addi	v0,t8,0
     5fc:	02300e10 	0x2300e10
     600:	5e0a0000 	0x5e0a0000
     604:	00002401 	0x2401
     608:	11230200 	beq	t1,v1,e0c <SRAM_ASRC_BUF_0_SIZE+0xc>
     60c:	0006ab0e 	0x6ab0e
     610:	01600a00 	0x1600a00
     614:	00000075 	0x75
     618:	0e122302 	jal	8488c08 <BANK_SPACE+0x8448c08>
     61c:	00000079 	0x79
     620:	7501620a 	jalx	4058828 <BANK_SPACE+0x4018828>
     624:	02000000 	0x2000000
     628:	b60e1323 	0xb60e1323
     62c:	0a000001 	j	8000004 <BANK_SPACE+0x7fc0004>
     630:	00750164 	0x750164
     634:	23020000 	addi	v0,t8,0
     638:	01450e14 	0x1450e14
     63c:	660a0000 	0x660a0000
     640:	00007501 	0x7501
     644:	15230200 	bne	t1,v1,e48 <SRAM_ASRC_BUF_0_SIZE+0x48>
     648:	0006700e 	0x6700e
     64c:	01680a00 	0x1680a00
     650:	00000075 	0x75
     654:	0e162302 	jal	8588c08 <BANK_SPACE+0x8548c08>
     658:	000002f6 	tne	zero,zero,0xb
     65c:	75016a0a 	jalx	405a828 <BANK_SPACE+0x401a828>
     660:	02000000 	0x2000000
     664:	10001723 	b	62f4 <SRAM_AP_BANK_BACK_AL_1_SIZE+0x22f4>
     668:	00000770 	tge	zero,zero,0x1d
     66c:	e0016b0a 	sc	at,27402(zero)
     670:	0d000004 	jal	4000010 <BANK_SPACE+0x3fc0010>
     674:	000006b9 	0x6b9
     678:	017a0a04 	0x17a0a04
     67c:	0009960e 	0x9960e
     680:	01730a00 	0x1730a00
     684:	00000075 	0x75
     688:	0e002302 	jal	8008c08 <BANK_SPACE+0x7fc8c08>
     68c:	00000044 	0x44
     690:	7501750a 	jalx	405d428 <BANK_SPACE+0x401d428>
     694:	02000000 	0x2000000
     698:	600e0123 	0x600e0123
     69c:	0a000006 	j	8000018 <BANK_SPACE+0x7fc0018>
     6a0:	00750177 	0x750177
     6a4:	23020000 	addi	v0,t8,0
     6a8:	04960e02 	0x4960e02
     6ac:	790a0000 	0x790a0000
     6b0:	00007501 	0x7501
     6b4:	03230200 	0x3230200
     6b8:	02911000 	0x2911000
     6bc:	7a0a0000 	0x7a0a0000
     6c0:	00067301 	0x67301
     6c4:	8b040a00 	lwl	a0,2560(t8)
     6c8:	11000000 	beqz	t0,6cc <SRAM_OS_HEAP_SIZE+0x4c>
     6cc:	000006fd 	0x6fd
     6d0:	0008b001 	movf	s6,zero,$fcc2
     6d4:	01720100 	0x1720100
     6d8:	5004b399 	beql	zero,a0,fffed540 <g_rec_folder_long+0x403c5688>
     6dc:	5004b3c4 	beql	zero,a0,fffed5f0 <g_rec_folder_long+0x403c5738>
     6e0:	64126d01 	0x64126d01
     6e4:	0100796c 	0x100796c
     6e8:	00009671 	tgeu	zero,zero,0x259
     6ec:	13610100 	beq	k1,at,af0 <SRAM_AP_BACK_CODEC_RCODE_SIZE+0xf0>
     6f0:	0000031c 	0x31c
     6f4:	00967301 	0x967301
     6f8:	53010000 	beql	t8,at,6fc <SRAM_OS_HEAP_SIZE+0x7c>
     6fc:	07721400 	bltzall	k1,5700 <SRAM_AP_BANK_BACK_AL_1_SIZE+0x1700>
     700:	e7010000 	swc1	$f1,0(t8)
     704:	01000001 	movf	zero,t0,$fcc0
     708:	00240186 	0x240186
     70c:	b3cd0000 	0xb3cd0000
     710:	b4645004 	0xb4645004
     714:	6d015004 	0x6d015004
     718:	00025315 	0x25315
     71c:	75850100 	jalx	6140400 <BANK_SPACE+0x6100400>
     720:	02000000 	0x2000000
     724:	43133891 	c0	0x1133891
     728:	01000005 	0x1000005
     72c:	00030b87 	0x30b87
     730:	18910200 	0x18910200
     734:	00074813 	0x74813
     738:	8b880100 	lwl	t0,256(gp)
     73c:	01000000 	0x1000000
     740:	08931353 	j	24c4d4c <BANK_SPACE+0x2484d4c>
     744:	89010000 	lwl	at,0(t0)
     748:	00000075 	0x75
     74c:	69166001 	0x69166001
     750:	75890100 	jalx	6240400 <BANK_SPACE+0x6200400>
     754:	01000000 	0x1000000
     758:	006a1655 	0x6a1655
     75c:	00758901 	0x758901
     760:	54010000 	bnel	zero,at,764 <BANK_BASAL_SIZE+0x64>
     764:	66756216 	0x66756216
     768:	978a0100 	lhu	t2,256(gp)
     76c:	01000001 	movf	zero,t0,$fcc0
     770:	d0140061 	0xd0140061
     774:	01000007 	srav	zero,zero,t0
     778:	000004c3 	sra	zero,zero,0x13
     77c:	a101b801 	sb	at,-18431(t0)
     780:	35000000 	ori	zero,t0,0x0
     784:	905000b1 	lbu	s0,177(v0)
     788:	015000b1 	tgeu	t2,s0,0x2
     78c:	023c156d 	0x23c156d
     790:	b7010000 	0xb7010000
     794:	00000075 	0x75
     798:	ca156101 	lwc2	$21,24833(s0)
     79c:	01000000 	0x1000000
     7a0:	000075b7 	0x75b7
     7a4:	13550100 	beq	k0,s5,ba8 <SRAM_COMMON_BT_MANAGER_SIZE+0xa8>
     7a8:	00000735 	0x735
     7ac:	0075b901 	0x75b901
     7b0:	91020000 	lbu	v0,0(t0)
     7b4:	03701310 	0x3701310
     7b8:	ba010000 	swr	at,0(s0)
     7bc:	00000197 	0x197
     7c0:	04135601 	bgezall	zero,15fc8 <SRAM_BT_EXT5_BANK_ADDR+0x19c8>
     7c4:	01000003 	0x1000003
     7c8:	0000a1bb 	0xa1bb
     7cc:	00610100 	0x610100
     7d0:	00082114 	0x82114
     7d4:	042c0100 	teqi	at,256
     7d8:	da010000 	ldc2	$1,0(s0)
     7dc:	00002401 	0x2401
     7e0:	04b00100 	bltzal	a1,be4 <SRAM_COMMON_BT_MANAGER_SIZE+0xe4>
     7e4:	04b05050 	bltzal	a1,14928 <SRAM_BT_EXT5_BANK_ADDR+0x328>
     7e8:	156d0150 	bne	t3,t5,d2c <SRAM_BT_EXT3_BANK_SIZE+0x2c>
     7ec:	0000023c 	0x23c
     7f0:	0075d901 	0x75d901
     7f4:	61010000 	0x61010000
     7f8:	0009e115 	0x9e115
     7fc:	a1d90100 	sb	t9,256(t6)
     800:	02000000 	0x2000000
     804:	7d132491 	0x7d132491
     808:	01000002 	0x1000002
     80c:	0000a1db 	0xa1db
     810:	13520100 	beq	k0,s2,c14 <SRAM_ASRC_BUF_1_SIZE+0x14>
     814:	00000735 	0x735
     818:	0075dd01 	0x75dd01
     81c:	54010000 	bnel	zero,at,820 <SRAM_AP_BACK_RCODE_SIZE+0x20>
     820:	08571400 	j	15c5000 <BANK_SPACE+0x1585000>
     824:	73010000 	madd	t8,at
     828:	01000004 	sllv	zero,zero,t0
     82c:	002401fb 	0x2401fb
     830:	b1a10000 	0xb1a10000
     834:	b2145000 	0xb2145000
     838:	6d015000 	0x6d015000
     83c:	000a3a15 	0xa3a15
     840:	75fa0100 	jalx	7e80400 <BANK_SPACE+0x7e40400>
     844:	01000000 	0x1000000
     848:	05761354 	0x5761354
     84c:	fc010000 	sdc3	$1,0(zero)
     850:	00000024 	and	zero,zero,zero
     854:	17006001 	bnez	t8,1885c <SRAM_FS_BUF_ADDR+0x55c>
     858:	0000088c 	syscall	0x22
     85c:	0005ef01 	0x5ef01
     860:	012d0100 	0x12d0100
     864:	04b05901 	bltzal	a1,16c6c <SRAM_BTCALL_ASQT_BUF_ADDR+0x6c>
     868:	04b09050 	bltzal	a1,fffe49ac <g_rec_folder_long+0x403bcaf4>
     86c:	186d0150 	0x186d0150
     870:	00000872 	tlt	zero,zero,0x21
     874:	96012c01 	lhu	at,11265(s0)
     878:	01000000 	0x1000000
     87c:	000e1868 	0xe1868
     880:	2c010000 	sltiu	at,zero,0
     884:	00007501 	0x7501
     888:	00600100 	0x600100
     88c:	0008d219 	0x8d219
     890:	03db0100 	0x3db0100
     894:	3b010000 	xori	at,t8,0x0
     898:	00240101 	0x240101
     89c:	b09d0000 	0xb09d0000
     8a0:	b13c5004 	0xb13c5004
     8a4:	6d015004 	0x6d015004
     8a8:	0007db1a 	0x7db1a
     8ac:	013c0100 	0x13c0100
     8b0:	00000075 	0x75
     8b4:	691b5501 	0x691b5501
     8b8:	013c0100 	0x13c0100
     8bc:	00000075 	0x75
     8c0:	ed1a5401 	swc3	$26,21505(t0)
     8c4:	01000009 	jalr	zero,t0
     8c8:	012c013d 	0x12c013d
     8cc:	91020000 	lbu	v0,0(t0)
     8d0:	3b170018 	xori	s7,t8,0x18
     8d4:	01000009 	jalr	zero,t0
     8d8:	000002ca 	0x2ca
     8dc:	01017b01 	0x1017b01
     8e0:	5004b15d 	beql	zero,a0,fffece58 <g_rec_folder_long+0x403c4fa0>
     8e4:	5004b1e4 	beql	zero,a0,fffed078 <g_rec_folder_long+0x403c51c0>
     8e8:	691b6d01 	0x691b6d01
     8ec:	017c0100 	0x17c0100
     8f0:	0000008b 	0x8b
     8f4:	1b109102 	0x1b109102
     8f8:	7c01006a 	0x7c01006a
     8fc:	00008b01 	0x8b01
     900:	1b560100 	0x1b560100
     904:	7e01006e 	0x7e01006e
     908:	00008b01 	0x8b01
     90c:	14910200 	bne	a0,s1,1110 <SRAM_BTCALL_CALLRING_BUF_SIZE+0x110>
     910:	00057f1a 	0x57f1a
     914:	017f0100 	0x17f0100
     918:	000006c5 	0x6c5
     91c:	c91a6001 	lwc2	$26,24577(t0)
     920:	01000007 	srav	zero,zero,t0
     924:	008b0181 	0x8b0181
     928:	61010000 	0x61010000
     92c:	000a441a 	0xa441a
     930:	01830100 	0x1830100
     934:	0000008b 	0x8b
     938:	17005301 	bnez	t8,15540 <SRAM_BT_EXT5_BANK_ADDR+0xf40>
     93c:	00000998 	0x998
     940:	0002a701 	0x2a701
     944:	01a70100 	0x1a70100
     948:	04b1f501 	bgezal	a1,ffffdd50 <g_rec_folder_long+0x403d5e98>
     94c:	04b2ec50 	bltzall	a1,ffffba90 <g_rec_folder_long+0x403d3bd8>
     950:	1b6d0150 	0x1b6d0150
     954:	a8010069 	swl	at,105(zero)
     958:	00007501 	0x7501
     95c:	1a570100 	0x1a570100
     960:	000007b6 	tne	zero,zero,0x1e
     964:	7501ab01 	jalx	406ac04 <BANK_SPACE+0x402ac04>
     968:	01000000 	0x1000000
     96c:	0a611a54 	j	9846950 <BANK_SPACE+0x9806950>
     970:	ad010000 	sw	at,0(t0)
     974:	00009601 	0x9601
     978:	1a560100 	0x1a560100
     97c:	000001d0 	0x1d0
     980:	9601af01 	lhu	at,-20735(s0)
     984:	01000000 	0x1000000
     988:	07f11a55 	bgezal	ra,72e0 <SRAM_AP_BACK_AL_RCODE_1_SIZE+0x2e0>
     98c:	b1010000 	0xb1010000
     990:	00008b01 	0x8b01
     994:	00560100 	0x560100
     998:	0009c21c 	0x9c21c
     99c:	0006fa00 	sll	ra,a2,0x8
     9a0:	02030100 	0x2030100
     9a4:	00002401 	0x2401
     9a8:	04b47100 	0x4b47100
     9ac:	04b4ac50 	0x4b4ac50
     9b0:	1a6d0150 	0x1a6d0150
     9b4:	00000253 	0x253
     9b8:	75020401 	jalx	4081004 <BANK_SPACE+0x4041004>
     9bc:	01000000 	0x1000000
     9c0:	121d0055 	beq	s0,sp,b18 <SRAM_COMMON_BT_MANAGER_SIZE+0x18>
     9c4:	01000002 	0x1000002
     9c8:	80010224 	lb	at,548(zero)
     9cc:	bd000000 	cache	0x0,0(t0)
     9d0:	0c5004b4 	jal	14012d0 <BANK_SPACE+0x13c12d0>
     9d4:	015004b5 	0x15004b5
     9d8:	0a2b196d 	j	8ac65b4 <BANK_SPACE+0x8a865b4>
     9dc:	97010000 	lhu	at,0(t8)
     9e0:	01000007 	srav	zero,zero,t0
     9e4:	24010249 	li	at,585
     9e8:	19000000 	blez	t0,9ec <SRAM_OS_DATA_SIZE+0x16c>
     9ec:	fc5004b5 	sdc3	$16,1205(v0)
     9f0:	015004b5 	0x15004b5
     9f4:	02661a6d 	0x2661a6d
     9f8:	4b010000 	c2	0x1010000
     9fc:	00002402 	srl	a0,zero,0x10
     a00:	1e520100 	0x1e520100
     a04:	0000043c 	0x43c
     a08:	24024d01 	li	v0,19713
     a0c:	1b000000 	blez	t8,a10 <SRAM_AP_BACK_CODEC_RCODE_SIZE+0x10>
     a10:	4e01006e 	c3	0x1006e
     a14:	00008002 	srl	s0,zero,0x0
     a18:	1a520100 	0x1a520100
     a1c:	000004a5 	0x4a5
     a20:	24025001 	li	v0,20481
     a24:	02000000 	0x2000000
     a28:	19001891 	blez	t0,6c70 <SRAM_AP_BANK_BACK_AL_1_SIZE+0x2c70>
     a2c:	00000a7f 	0xa7f
     a30:	00095e01 	0x95e01
     a34:	02ba0100 	0x2ba0100
     a38:	00002401 	0x2401
     a3c:	00b22100 	0xb22100
     a40:	00b29c50 	0xb29c50
     a44:	186d0150 	0x186d0150
     a48:	00000b78 	0xb78
     a4c:	c102b901 	ll	v0,-18175(t0)
     a50:	01000000 	0x1000000
     a54:	0a9e1e60 	j	a787980 <BANK_SPACE+0xa747980>
     a58:	bc010000 	cache	0x1,0(zero)
     a5c:	00002402 	srl	a0,zero,0x10
     a60:	00c01a00 	0xc01a00
     a64:	be010000 	cache	0x1,0(s0)
     a68:	0002fa02 	srl	ra,v0,0x8
     a6c:	1a520100 	0x1a520100
     a70:	00000362 	0x362
     a74:	7502c001 	jalx	40b0004 <BANK_SPACE+0x4070004>
     a78:	02000000 	0x2000000
     a7c:	19001091 	blez	t0,4cc4 <SRAM_AP_BANK_BACK_AL_1_SIZE+0xcc4>
     a80:	00000aec 	0xaec
     a84:	000a7801 	0xa7801
     a88:	02f90100 	0x2f90100
     a8c:	0000c101 	0xc101
     a90:	04b60900 	0x4b60900
     a94:	04b6d450 	0x4b6d450
     a98:	186d0150 	0x186d0150
     a9c:	00000b78 	0xb78
     aa0:	c102f801 	ll	v0,-2047(t0)
     aa4:	01000000 	0x1000000
     aa8:	03621a54 	0x3621a54
     aac:	fa010000 	sdc2	$1,0(s0)
     ab0:	00007502 	srl	t6,zero,0x14
     ab4:	10910200 	beq	a0,s1,12b8 <SRAM_BTCALL_CALLRING_BUF_SIZE+0x2b8>
     ab8:	0000c01e 	0xc01e
     abc:	02fb0100 	0x2fb0100
     ac0:	00000075 	0x75
     ac4:	000a9e1a 	0xa9e1a
     ac8:	02fc0100 	0x2fc0100
     acc:	00000024 	and	zero,zero,zero
     ad0:	1f149102 	0x1f149102
     ad4:	0000073e 	0x73e
     ad8:	99033501 	lwr	v1,13569(t0)
     adc:	1f5004b6 	0x1f5004b6
     ae0:	0000030e 	0x30e
     ae4:	81032f01 	lb	v1,12033(t0)
     ae8:	005004b6 	tne	v0,s0,0x12
     aec:	000b4f19 	0xb4f19
     af0:	01c10100 	0x1c10100
     af4:	45010000 	bc1t	af8 <SRAM_AP_BACK_CODEC_RCODE_SIZE+0xf8>
     af8:	00ac0103 	0xac0103
     afc:	b2b90000 	0xb2b90000
     b00:	b3485000 	0xb3485000
     b04:	6d015000 	0x6d015000
     b08:	00055318 	0x55318
     b0c:	03440100 	0x3440100
     b10:	000000c1 	0xc1
     b14:	20209102 	addi	zero,at,-28414
     b18:	00646d63 	0x646d63
     b1c:	b8034401 	swr	v1,17409(zero)
     b20:	01000001 	movf	zero,t0,$fcc0
     b24:	0b781860 	j	de06180 <BANK_SPACE+0xddc6180>
     b28:	44010000 	mfc1	at,$f0
     b2c:	00006e03 	sra	t5,zero,0x18
     b30:	28910200 	slti	s1,a0,512
     b34:	7465721b 	jalx	195c86c <BANK_SPACE+0x191c86c>
     b38:	03460100 	0x3460100
     b3c:	000000a1 	0xa1
     b40:	951f6101 	lhu	ra,24833(t0)
     b44:	01000003 	0x1000003
     b48:	b343036b 	0xb343036b
     b4c:	21005000 	addi	zero,t0,20480
     b50:	00000217 	0x217
     b54:	034e1e07 	0x34e1e07
     b58:	01010000 	0x1010000
     b5c:	0009fb21 	0x9fb21
     b60:	961f0700 	lhu	ra,1792(s0)
     b64:	01000000 	0x1000000
     b68:	05012101 	bgez	t0,8f70 <SRAM_SPINOR_RCODE_ADDR+0x370>
     b6c:	20070000 	addi	a3,zero,0
     b70:	00000096 	0x96
     b74:	9d210101 	0x9d210101
     b78:	07000006 	bltz	t8,b94 <SRAM_COMMON_BT_MANAGER_SIZE+0x94>
     b7c:	00002421 	0x2421
     b80:	22010100 	addi	at,s0,256
     b84:	00000685 	0x685
     b88:	01973a01 	0x1973a01
     b8c:	05010000 	bgez	t0,b90 <SRAM_COMMON_BT_MANAGER_SIZE+0x90>
     b90:	c27ecc03 	ll	s8,-13309(s3)
     b94:	0417219f 	0x417219f
     b98:	85090000 	lh	t1,0(t0)
     b9c:	00000075 	0x75
     ba0:	52230101 	beql	s1,v1,fa8 <SRAM_ASRC_BUF_0_SIZE+0x1a8>
     ba4:	0a000004 	j	8000010 <BANK_SPACE+0x7fc0010>
     ba8:	04d4018e 	0x4d4018e
     bac:	01010000 	0x1010000
     bb0:	0002b923 	0x2b923
     bb4:	01940a00 	0x1940a00
     bb8:	000006b9 	0x6b9
     bbc:	4f230101 	c3	0x1230101
     bc0:	0a000006 	j	8000018 <BANK_SPACE+0x7fc0018>
     bc4:	0667019a 	0x667019a
     bc8:	01010000 	0x1010000
     bcc:	000bdd06 	0xbdd06
     bd0:	00007500 	sll	t6,zero,0x14
     bd4:	00ba2400 	0xba2400
     bd8:	02170000 	0x2170000
     bdc:	03bf1300 	0x3bf1300
     be0:	0c010000 	jal	40000 <BANK_SPACE>
     be4:	00000bcc 	syscall	0x2f
     be8:	7f580305 	0x7f580305
     bec:	a5139fc2 	sh	s3,-24638(t0)
     bf0:	01000000 	0x1000000
     bf4:	000bff0e 	0xbff0e
     bf8:	00030500 	sll	zero,v1,0x14
     bfc:	0a9fc27f 	j	a7f09fc <BANK_SPACE+0xa7b09fc>
     c00:	00022e04 	0x22e04
     c04:	061e1300 	0x61e1300
     c08:	11010000 	beq	t0,at,c0c <SRAM_ASRC_BUF_1_SIZE+0xc>
     c0c:	00000c16 	0xc16
     c10:	7f040305 	0x7f040305
     c14:	040a9fc2 	tlti	zero,-24638
     c18:	00000298 	0x298
     c1c:	00053222 	0x53222
     c20:	96140100 	lhu	s4,256(s0)
     c24:	01000000 	0x1000000
     c28:	7f080305 	0x7f080305
     c2c:	26229fc2 	addiu	v0,s1,-24638
     c30:	01000006 	srlv	zero,zero,t0
     c34:	00008b17 	0x8b17
     c38:	03050100 	0x3050100
     c3c:	9fc27ee0 	0x9fc27ee0
     c40:	00013722 	0x13722
     c44:	8b1a0100 	lwl	k0,256(t8)
     c48:	01000000 	0x1000000
     c4c:	7ee40305 	0x7ee40305
     c50:	85229fc2 	lh	v0,-24638(t1)
     c54:	01000002 	0x1000002
     c58:	00008b1d 	0x8b1d
     c5c:	03050100 	0x3050100
     c60:	9fc27ede 	0x9fc27ede
     c64:	00060222 	0x60222
     c68:	8b200100 	lwl	zero,256(t9)
     c6c:	01000000 	0x1000000
     c70:	7ee20305 	0x7ee20305
     c74:	5d229fc2 	0x5d229fc2
     c78:	01000005 	0x1000005
     c7c:	0000a123 	0xa123
     c80:	03050100 	0x3050100
     c84:	9fc27ec8 	0x9fc27ec8
     c88:	00092722 	0x92722
     c8c:	fa260100 	sdc2	$6,256(s1)
     c90:	01000000 	0x1000000
     c94:	7f0c0305 	0x7f0c0305
     c98:	6b229fc2 	0x6b229fc2
     c9c:	01000005 	0x1000005
     ca0:	0000242c 	0x242c
     ca4:	03050100 	0x3050100
     ca8:	9fc27ed1 	0x9fc27ed1
     cac:	00097d22 	0x97d22
     cb0:	752f0100 	jalx	4bc0400 <BANK_SPACE+0x4b80400>
     cb4:	01000000 	0x1000000
     cb8:	7ed00305 	0x7ed00305
     cbc:	8f229fc2 	lw	v0,-24638(t9)
     cc0:	0100000a 	movz	zero,t0,zero
     cc4:	000cd032 	tlt	zero,t4,0x340
     cc8:	03050100 	0x3050100
     ccc:	9fc27efc 	0x9fc27efc
     cd0:	034e040a 	0x34e040a
     cd4:	79220000 	0x79220000
     cd8:	01000003 	0x1000003
     cdc:	00007535 	0x7535
     ce0:	03050100 	0x3050100
     ce4:	9fc27ed2 	0x9fc27ed2
     ce8:	00071222 	0x71222
     cec:	75380100 	jalx	4e00400 <BANK_SPACE+0x4dc0400>
     cf0:	01000000 	0x1000000
     cf4:	7ed30305 	0x7ed30305
     cf8:	0a069fc2 	j	81a7f08 <BANK_SPACE+0x8167f08>
     cfc:	0a00000d 	j	8000034 <BANK_SPACE+0x7fc0034>
     d00:	0700000d 	bltz	t8,d38 <SRAM_BT_EXT3_BANK_SIZE+0x38>
     d04:	000000ba 	0xba
     d08:	75250008 	jalx	4940020 <BANK_SPACE+0x4900020>
     d0c:	13000000 	beqz	t8,d10 <SRAM_BT_EXT3_BANK_SIZE+0x10>
     d10:	0000036b 	0x36b
     d14:	0d203c01 	jal	480f004 <BANK_SPACE+0x47cf004>
     d18:	03050000 	0x3050000
     d1c:	bfc27e6c 	cache	0x2,32364(s8)
     d20:	000cfa25 	0xcfa25
     d24:	0d350600 	jal	4d41800 <BANK_SPACE+0x4d01800>
     d28:	0d0a0000 	jal	4280000 <BANK_SPACE+0x4240000>
     d2c:	ba070000 	swr	a3,0(s0)
     d30:	09000000 	j	4000000 <BANK_SPACE+0x3fc0000>
     d34:	01d81300 	0x1d81300
     d38:	3d010000 	0x3d010000
     d3c:	00000d46 	0xd46
     d40:	7e600305 	0x7e600305
     d44:	2525bfc2 	addiu	a1,t1,-16446
     d48:	0600000d 	bltz	s0,d80 <SRAM_BT_EXT3_BANK_SIZE+0x80>
     d4c:	00000d5b 	0xd5b
     d50:	00000075 	0x75
     d54:	0000ba07 	0xba07
     d58:	13000800 	beqz	t8,2d5c <SRAM_BTSTACK_AVDTP_DATA_SIZE+0x3dc>
     d5c:	00000811 	0x811
     d60:	0d4b4001 	jal	52d0004 <BANK_SPACE+0x5290004>
     d64:	03050000 	0x3050000
     d68:	9fc27ed4 	0x9fc27ed4
     d6c:	000d7c06 	0xd7c06
     d70:	00007500 	sll	t6,zero,0x14
     d74:	00ba0700 	0xba0700
     d78:	00100000 	sll	zero,s0,0x0
     d7c:	00010813 	0x10813
     d80:	6c420100 	0x6c420100
     d84:	0500000d 	bltz	t0,dbc <SRAM_BT_EXT3_BANK_SIZE+0xbc>
     d88:	c27ee803 	ll	s8,-6141(s3)
     d8c:	0d9d069f 	jal	6741a7c <BANK_SPACE+0x6701a7c>
     d90:	0d9d0000 	jal	6740000 <BANK_SPACE+0x6700000>
     d94:	ba070000 	swr	a3,0(s0)
     d98:	07000000 	bltz	t8,d9c <SRAM_BT_EXT3_BANK_SIZE+0x9c>
     d9c:	00962500 	0x962500
     da0:	96130000 	lhu	s3,0(s0)
     da4:	01000000 	0x1000000
     da8:	000db345 	0xdb345
     dac:	18030500 	0x18030500
     db0:	25bfc27e 	addiu	ra,t5,-15746
     db4:	00000d8d 	break	0x0,0x36
     db8:	000dc806 	srlv	t9,t5,zero
     dbc:	000d0a00 	sll	at,t5,0x8
     dc0:	00ba0700 	0xba0700
     dc4:	00070000 	sll	zero,a3,0x0
     dc8:	00025c13 	0x25c13
     dcc:	d9580100 	ldc2	$24,256(t2)
     dd0:	0500000d 	bltz	t0,e08 <SRAM_ASRC_BUF_0_SIZE+0x8>
     dd4:	c27e1003 	ll	s8,4099(s3)
     dd8:	0db825bf 	jal	6e096fc <BANK_SPACE+0x6dc96fc>
     ddc:	a2130000 	sb	s3,0(s0)
     de0:	01000002 	0x1000002
     de4:	000def5e 	0xdef5e
     de8:	38030500 	xori	v1,zero,0x500
     dec:	25bfc27e 	addiu	ra,t5,-15746
     df0:	00000db8 	0xdb8
     df4:	000e0406 	0xe0406
     df8:	000d9d00 	sll	s3,t5,0x14
     dfc:	00ba0700 	0xba0700
     e00:	00070000 	sll	zero,a3,0x0
     e04:	00016d13 	0x16d13
     e08:	15660100 	bne	t3,a2,120c <SRAM_BTCALL_CALLRING_BUF_SIZE+0x20c>
     e0c:	0500000e 	bltz	t0,e48 <SRAM_ASRC_BUF_0_SIZE+0x48>
     e10:	c27e4003 	ll	s8,16387(s3)
     e14:	0df425bf 	jal	7d096fc <BANK_SPACE+0x7cc96fc>
     e18:	f9000000 	sdc2	$0,0(t0)
     e1c:	02000004 	sllv	zero,zero,s0
     e20:	00022600 	sll	a0,v0,0x18
     e24:	33010400 	andi	at,t8,0x400
     e28:	ac000003 	sw	zero,3(zero)
     e2c:	78bfc27e 	0x78bfc27e
     e30:	e3bfc27e 	sc	ra,-15746(sp)
     e34:	01000000 	0x1000000
     e38:	00000ae4 	0xae4
     e3c:	0000017d 	0x17d
     e40:	0004f302 	srl	s8,a0,0xc
     e44:	03080100 	0x3080100
     e48:	000002f0 	tge	zero,zero,0xb
     e4c:	00250f05 	0x250f05
     e50:	f5020000 	sdc1	$f2,0(t0)
     e54:	01000004 	sllv	zero,zero,t0
     e58:	04830206 	bgezl	a0,1674 <SRAM_BTCALL_CALLRING_BUF_SIZE+0x674>
     e5c:	07020000 	bltzl	t8,e60 <SRAM_ASRC_BUF_0_SIZE+0x60>
     e60:	00071e02 	srl	v1,a3,0x18
     e64:	02050200 	0x2050200
     e68:	000004db 	0x4db
     e6c:	05020704 	bltzl	t0,2a80 <SRAM_BTSTACK_AVDTP_DATA_SIZE+0x100>
     e70:	04000000 	bltz	zero,e74 <SRAM_ASRC_BUF_0_SIZE+0x74>
     e74:	04ed0205 	0x4ed0205
     e78:	04040000 	0x4040000
     e7c:	00024c02 	srl	t1,v0,0x10
     e80:	02040800 	0x2040800
     e84:	000004d6 	0x4d6
     e88:	00020708 	0x20708
     e8c:	08000000 	j	0 <CODEC_INDEX>
     e90:	04e00205 	bltz	a3,16a8 <SRAM_BTCALL_CALLRING_BUF_SIZE+0x6a8>
     e94:	07040000 	0x7040000
     e98:	00024603 	sra	t0,v0,0x18
     e9c:	25150200 	addiu	s5,t0,512
     ea0:	04000000 	bltz	zero,ea4 <SRAM_ASRC_BUF_0_SIZE+0xa4>
     ea4:	00746e69 	0x746e69
     ea8:	fc020504 	sdc3	$2,1284(zero)
     eac:	01000004 	sllv	zero,zero,t0
     eb0:	04db0206 	0x4db0206
     eb4:	07040000 	0x7040000
     eb8:	007d0405 	0x7d0405
     ebc:	1e060000 	0x1e060000
     ec0:	1c000002 	bgtz	zero,ecc <SRAM_ASRC_BUF_0_SIZE+0xcc>
     ec4:	07013204 	bgez	t8,d6d8 <SROM_FS_ADDR+0x16d8>
     ec8:	00000467 	0x467
     ecc:	7d010704 	0x7d010704
     ed0:	02000000 	0x2000000
     ed4:	2a070023 	slti	a3,s0,35
     ed8:	04000001 	bltz	zero,ee0 <SRAM_ASRC_BUF_0_SIZE+0xe0>
     edc:	007d0109 	0x7d0109
     ee0:	23020000 	addi	v0,t8,0
     ee4:	09540701 	j	5501c04 <BANK_SPACE+0x54c1c04>
     ee8:	0b040000 	j	c100000 <BANK_SPACE+0xc0c0000>
     eec:	00007d01 	0x7d01
     ef0:	02230200 	0x2230200
     ef4:	00049b07 	0x49b07
     ef8:	010d0400 	0x10d0400
     efc:	0000007d 	0x7d
     f00:	07032302 	bgezl	t8,9b0c <SRAM_BANK_B_ADDR+0x70c>
     f04:	0000059f 	0x59f
     f08:	7d011204 	0x7d011204
     f0c:	02000000 	0x2000000
     f10:	59070423 	0x59070423
     f14:	04000001 	bltz	zero,f1c <SRAM_ASRC_BUF_0_SIZE+0x11c>
     f18:	007d0113 	0x7d0113
     f1c:	23020000 	addi	v0,t8,0
     f20:	01fa0805 	0x1fa0805
     f24:	14040000 	bne	zero,a0,f28 <SRAM_ASRC_BUF_0_SIZE+0x128>
     f28:	00007d01 	0x7d01
     f2c:	04040100 	0x4040100
     f30:	08062302 	j	188c08 <BANK_SPACE+0x148c08>
     f34:	0000096e 	0x96e
     f38:	7d011504 	0x7d011504
     f3c:	01000000 	0x1000000
     f40:	23020004 	addi	v0,t8,4
     f44:	05b50706 	0x5b50706
     f48:	18040000 	0x18040000
     f4c:	00007d01 	0x7d01
     f50:	07230200 	bgezl	t9,1754 <SRAM_BTCALL_CALLRING_BUF_SIZE+0x754>
     f54:	00034007 	srav	t0,v1,zero
     f58:	011a0400 	0x11a0400
     f5c:	0000007d 	0x7d
     f60:	07082302 	tgei	t8,8962
     f64:	000006d0 	0x6d0
     f68:	7d011d04 	0x7d011d04
     f6c:	02000000 	0x2000000
     f70:	2a070923 	slti	a3,s0,2339
     f74:	04000003 	bltz	zero,f84 <SRAM_ASRC_BUF_0_SIZE+0x184>
     f78:	002c0120 	0x2c0120
     f7c:	23020000 	addi	v0,t8,0
     f80:	0633070a 	bgezall	s1,2bac <SRAM_BTSTACK_AVDTP_DATA_SIZE+0x22c>
     f84:	21040000 	addi	a0,t0,0
     f88:	00021e01 	0x21e01
     f8c:	0c230200 	jal	8c0800 <BANK_SPACE+0x880800>
     f90:	0003fa07 	0x3fa07
     f94:	01240400 	0x1240400
     f98:	0000021e 	0x21e
     f9c:	07102302 	bltzal	t8,9ba8 <SRAM_BANK_B_ADDR+0x7a8>
     fa0:	0000001a 	div	zero,zero,zero
     fa4:	1e012504 	0x1e012504
     fa8:	02000002 	0x2000002
     fac:	5d071423 	0x5d071423
     fb0:	04000007 	bltz	zero,fd0 <SRAM_ASRC_BUF_0_SIZE+0x1d0>
     fb4:	007d0128 	0x7d0128
     fb8:	23020000 	addi	v0,t8,0
     fbc:	04440718 	0x4440718
     fc0:	29040000 	slti	a0,t0,0
     fc4:	00007d01 	0x7d01
     fc8:	19230200 	0x19230200
     fcc:	0006ba08 	0x6ba08
     fd0:	012b0400 	0x12b0400
     fd4:	0000007d 	0x7d
     fd8:	02050301 	0x2050301
     fdc:	17081a23 	bne	t8,t0,786c <SRAM_AP_BACK_AL_RCODE_1_SIZE+0x86c>
     fe0:	04000005 	bltz	zero,ff8 <SRAM_ASRC_BUF_0_SIZE+0x1f8>
     fe4:	007d012c 	0x7d012c
     fe8:	01010000 	0x1010000
     fec:	1a230204 	0x1a230204
     ff0:	0005cd08 	0x5cd08
     ff4:	012d0400 	0x12d0400
     ff8:	0000007d 	0x7d
     ffc:	02030101 	0x2030101
    1000:	a9081a23 	swl	t0,6691(t0)
    1004:	04000003 	bltz	zero,1014 <SRAM_BTCALL_CALLRING_BUF_SIZE+0x14>
    1008:	007d012e 	0x7d012e
    100c:	01010000 	0x1010000
    1010:	1a230202 	0x1a230202
    1014:	00084c08 	0x84c08
    1018:	012f0400 	0x12f0400
    101c:	0000007d 	0x7d
    1020:	02010101 	0x2010101
    1024:	37081a23 	ori	t0,t8,0x1a23
    1028:	04000008 	bltz	zero,104c <SRAM_BTCALL_CALLRING_BUF_SIZE+0x4c>
    102c:	007d0131 	tgeu	v1,sp,0x4
    1030:	01010000 	0x1010000
    1034:	1a230200 	0x1a230200
    1038:	45040500 	bc1f	$fcc1,243c <SRAM_AP_BACK_AL_RCODE_2_SIZE+0x43c>
    103c:	09000000 	j	4000000 <BANK_SPACE+0x3fc0000>
    1040:	00000a4c 	syscall	0x29
    1044:	a3013204 	sb	at,12804(t8)
    1048:	06000000 	bltz	s0,104c <SRAM_BTCALL_CALLRING_BUF_SIZE+0x4c>
    104c:	000003b7 	0x3b7
    1050:	016b0418 	0x16b0418
    1054:	0003ef07 	0x3ef07
    1058:	013a0400 	0x13a0400
    105c:	0000002c 	0x2c
    1060:	07002302 	bltz	t8,9c6c <SRAM_UI_RCODE_ADDR+0x6c>
    1064:	00000938 	0x938
    1068:	2c013c04 	sltiu	at,zero,15364
    106c:	02000000 	0x2000000
    1070:	81070123 	lb	a3,291(t0)
    1074:	04000007 	bltz	zero,1094 <SRAM_BTCALL_CALLRING_BUF_SIZE+0x94>
    1078:	007d013e 	0x7d013e
    107c:	23020000 	addi	v0,t8,0
    1080:	011a0702 	0x11a0702
    1084:	40040000 	mfc0	a0,c0_index
    1088:	00007d01 	0x7d01
    108c:	03230200 	0x3230200
    1090:	0006e607 	0x6e607
    1094:	01420400 	0x1420400
    1098:	0000007d 	0x7d
    109c:	07042302 	0x7042302
    10a0:	00000224 	0x224
    10a4:	7d014404 	0x7d014404
    10a8:	02000000 	0x2000000
    10ac:	c2070523 	ll	a3,1315(s0)
    10b0:	04000009 	bltz	zero,10d8 <SRAM_BTCALL_CALLRING_BUF_SIZE+0xd8>
    10b4:	007d0146 	0x7d0146
    10b8:	23020000 	addi	v0,t8,0
    10bc:	07e50706 	0x7e50706
    10c0:	48040000 	mfc2	a0,$0
    10c4:	00007d01 	0x7d01
    10c8:	07230200 	bgezl	t9,18cc <SRAM_BTCALL_CALLRING_BUF_SIZE+0x8cc>
    10cc:	0007c007 	srav	t8,a3,zero
    10d0:	014a0400 	0x14a0400
    10d4:	0000002c 	0x2c
    10d8:	07082302 	tgei	t8,8962
    10dc:	000008da 	0x8da
    10e0:	7d014c04 	0x7d014c04
    10e4:	02000000 	0x2000000
    10e8:	08070923 	j	1c248c <BANK_SPACE+0x18248c>
    10ec:	04000002 	bltz	zero,10f8 <SRAM_BTCALL_CALLRING_BUF_SIZE+0xf8>
    10f0:	007d014e 	0x7d014e
    10f4:	23020000 	addi	v0,t8,0
    10f8:	06c5070a 	0x6c5070a
    10fc:	50040000 	beql	zero,a0,1100 <SRAM_BTCALL_CALLRING_BUF_SIZE+0x100>
    1100:	00002c01 	0x2c01
    1104:	0b230200 	j	c8c0800 <BANK_SPACE+0xc880800>
    1108:	00087c08 	0x87c08
    110c:	01520400 	0x1520400
    1110:	0000007d 	0x7d
    1114:	02010701 	0x2010701
    1118:	44080c23 	0x44080c23
    111c:	04000004 	bltz	zero,1130 <SRAM_BTCALL_CALLRING_BUF_SIZE+0x130>
    1120:	007d0153 	0x7d0153
    1124:	01010000 	0x1010000
    1128:	0c230200 	jal	8c0800 <BANK_SPACE+0x880800>
    112c:	000a6a07 	0xa6a07
    1130:	01550400 	0x1550400
    1134:	0000007d 	0x7d
    1138:	070d2302 	0x70d2302
    113c:	00000940 	sll	at,zero,0x5
    1140:	2c015804 	sltiu	at,zero,22532
    1144:	02000000 	0x2000000
    1148:	51070e23 	beql	t0,a3,49d8 <SRAM_AP_BANK_BACK_AL_1_SIZE+0x9d8>
    114c:	04000007 	bltz	zero,116c <SRAM_BTCALL_CALLRING_BUF_SIZE+0x16c>
    1150:	002c015a 	0x2c015a
    1154:	23020000 	addi	v0,t8,0
    1158:	08c4070f 	j	3101c3c <BANK_SPACE+0x30c1c3c>
    115c:	5c040000 	0x5c040000
    1160:	00002c01 	0x2c01
    1164:	10230200 	beq	at,v1,1968 <SRAM_BTCALL_CALLRING_BUF_SIZE+0x968>
    1168:	00023007 	srav	a2,v0,zero
    116c:	015e0400 	0x15e0400
    1170:	0000002c 	0x2c
    1174:	07112302 	bgezal	t8,9d80 <SRAM_UI_RCODE_ADDR+0x180>
    1178:	000006ab 	0x6ab
    117c:	7d016004 	0x7d016004
    1180:	02000000 	0x2000000
    1184:	79071223 	0x79071223
    1188:	04000000 	bltz	zero,118c <SRAM_BTCALL_CALLRING_BUF_SIZE+0x18c>
    118c:	007d0162 	0x7d0162
    1190:	23020000 	addi	v0,t8,0
    1194:	01b60713 	0x1b60713
    1198:	64040000 	0x64040000
    119c:	00007d01 	0x7d01
    11a0:	14230200 	bne	at,v1,19a4 <SRAM_BTCALL_CALLRING_BUF_SIZE+0x9a4>
    11a4:	00014507 	0x14507
    11a8:	01660400 	0x1660400
    11ac:	0000007d 	0x7d
    11b0:	07152302 	0x7152302
    11b4:	00000670 	tge	zero,zero,0x19
    11b8:	7d016804 	0x7d016804
    11bc:	02000000 	0x2000000
    11c0:	f6071623 	sdc1	$f7,5667(s0)
    11c4:	04000002 	bltz	zero,11d0 <SRAM_BTCALL_CALLRING_BUF_SIZE+0x1d0>
    11c8:	007d016a 	0x7d016a
    11cc:	23020000 	addi	v0,t8,0
    11d0:	70090017 	udi7	zero,t1,zero,0x0
    11d4:	04000007 	bltz	zero,11f4 <SRAM_BTCALL_CALLRING_BUF_SIZE+0x1f4>
    11d8:	0230016b 	0x230016b
    11dc:	09060000 	j	4180000 <BANK_SPACE+0x4140000>
    11e0:	04000004 	bltz	zero,11f4 <SRAM_BTCALL_CALLRING_BUF_SIZE+0x1f4>
    11e4:	07017a04 	bgez	t8,1f9f8 <SRAM_KEY_MESSAGE_RCODE_ADDR+0x1f8>
    11e8:	00000996 	0x996
    11ec:	7d017304 	0x7d017304
    11f0:	02000000 	0x2000000
    11f4:	44070023 	0x44070023
    11f8:	04000000 	bltz	zero,11fc <SRAM_BTCALL_CALLRING_BUF_SIZE+0x1fc>
    11fc:	007d0175 	0x7d0175
    1200:	23020000 	addi	v0,t8,0
    1204:	06600701 	bltz	s3,2e0c <SRAM_BTSTACK_AVDTP_DATA_SIZE+0x48c>
    1208:	77040000 	jalx	c100000 <BANK_SPACE+0xc0c0000>
    120c:	00007d01 	0x7d01
    1210:	02230200 	0x2230200
    1214:	00049607 	0x49607
    1218:	01790400 	0x1790400
    121c:	0000007d 	0x7d
    1220:	00032302 	srl	a0,v1,0xc
    1224:	00029109 	0x29109
    1228:	017a0400 	0x17a0400
    122c:	000003c3 	sra	zero,zero,0xf
    1230:	0004720a 	0x4720a
    1234:	0b280100 	j	ca00400 <BANK_SPACE+0xc9c0400>
    1238:	31010000 	andi	at,t0,0x0
    123c:	00008801 	movf	s1,zero,$fcc0
    1240:	c27e7900 	ll	s8,30976(s3)
    1244:	c27ea0bf 	ll	s8,-24385(s3)
    1248:	0b6d01bf 	j	db406fc <BANK_SPACE+0xdb006fc>
    124c:	00000adc 	0xadc
    1250:	00883001 	movf	a2,a0,$fcc2
    1254:	54010000 	bnel	zero,at,1258 <SRAM_BTCALL_CALLRING_BUF_SIZE+0x258>
    1258:	000ab70b 	0xab70b
    125c:	9d300100 	0x9d300100
    1260:	01000000 	0x1000000
    1264:	0ac00b55 	j	b002d54 <BANK_SPACE+0xafc2d54>
    1268:	30010000 	andi	at,zero,0x0
    126c:	00000088 	0x88
    1270:	780b5601 	0x780b5601
    1274:	0100000b 	movn	zero,t0,zero
    1278:	00008830 	tge	zero,zero,0x220
    127c:	0c570100 	jal	15c0400 <BANK_SPACE+0x1580400>
    1280:	00746572 	tlt	v1,s4,0x195
    1284:	00883201 	0x883201
    1288:	60010000 	0x60010000
    128c:	04170d00 	0x4170d00
    1290:	85030000 	lh	v1,0(t0)
    1294:	0000007d 	0x7d
    1298:	520e0101 	beql	s0,t6,16a0 <SRAM_BTCALL_CALLRING_BUF_SIZE+0x6a0>
    129c:	04000004 	bltz	zero,12b0 <SRAM_BTCALL_CALLRING_BUF_SIZE+0x2b0>
    12a0:	0224018e 	0x224018e
    12a4:	01010000 	0x1010000
    12a8:	0002b90e 	0x2b90e
    12ac:	01940400 	0x1940400
    12b0:	00000409 	jalr.hb	zero,zero
    12b4:	4f0e0101 	c3	0x10e0101
    12b8:	04000006 	bltz	zero,12d4 <SRAM_BTCALL_CALLRING_BUF_SIZE+0x2d4>
    12bc:	03b7019a 	0x3b7019a
    12c0:	01010000 	0x1010000
    12c4:	0004b90f 	0x4b90f
    12c8:	0004b900 	sll	s7,a0,0x4
    12cc:	00961000 	0x961000
    12d0:	000f0000 	sll	zero,t7,0x0
    12d4:	00007d11 	0x7d11
    12d8:	0b161200 	j	c584800 <BANK_SPACE+0xc544800>
    12dc:	2a010000 	slti	at,s0,0
    12e0:	000004d0 	0x4d0
    12e4:	b8030501 	swr	v1,1281(zero)
    12e8:	11bfc27e 	beq	t5,ra,ffff1ce4 <g_rec_folder_long+0x403c9e2c>
    12ec:	000004a9 	0x4a9
    12f0:	0004e50f 	0x4e50f
    12f4:	0004b900 	sll	s7,a0,0x4
    12f8:	00961000 	0x961000
    12fc:	00080000 	sll	zero,t0,0x0
    1300:	000ac912 	0xac912
    1304:	f72e0100 	sdc1	$f14,256(t9)
    1308:	01000004 	sllv	zero,zero,t0
    130c:	7eac0305 	0x7eac0305
    1310:	d511bfc2 	ldc1	$f17,-16446(t0)
    1314:	00000004 	sllv	zero,zero,zero
    1318:	00000280 	sll	zero,zero,0xa
    131c:	03270002 	0x3270002
    1320:	01040000 	0x1040000
    1324:	0000041b 	0x41b
    1328:	5000b134 	beqzl	zero,fffed7fc <g_rec_folder_long+0x403c5944>
    132c:	5000b000 	beqzl	zero,fffed330 <g_rec_folder_long+0x403c5478>
    1330:	000000e3 	0xe3
    1334:	000b5001 	0xb5001
    1338:	00017d00 	sll	t7,at,0x14
    133c:	04f30200 	bgezall	a3,1b40 <SRAM_BTCALL_CALLRING_BUF_SIZE+0xb40>
    1340:	08010000 	j	40000 <BANK_SPACE>
    1344:	0004f502 	srl	s8,a0,0x14
    1348:	02060100 	0x2060100
    134c:	00000483 	sra	zero,zero,0x12
    1350:	1e020702 	0x1e020702
    1354:	02000007 	srav	zero,zero,s0
    1358:	04db0205 	0x4db0205
    135c:	07040000 	0x7040000
    1360:	00000502 	srl	zero,zero,0x14
    1364:	02050400 	0x2050400
    1368:	000004ed 	0x4ed
    136c:	4c020404 	0x4c020404
    1370:	08000002 	j	8 <DRV_GROUP_KEY>
    1374:	04d60204 	0x4d60204
    1378:	07080000 	tgei	t8,0
    137c:	00000002 	srl	zero,zero,0x0
    1380:	03050800 	0x3050800
    1384:	00000b49 	0xb49
    1388:	00762206 	0x762206
    138c:	e0020000 	sc	v0,0(zero)
    1390:	04000004 	bltz	zero,13a4 <SRAM_BTCALL_CALLRING_BUF_SIZE+0x3a4>
    1394:	02460307 	0x2460307
    1398:	15040000 	bne	t0,a0,139c <SRAM_BTCALL_CALLRING_BUF_SIZE+0x39c>
    139c:	00000025 	move	zero,zero
    13a0:	000a8803 	sra	s1,t2,0x0
    13a4:	331d0400 	andi	sp,t8,0x400
    13a8:	03000000 	0x3000000
    13ac:	00000c52 	0xc52
    13b0:	009e2904 	0x9e2904
    13b4:	69040000 	0x69040000
    13b8:	0400746e 	bltz	zero,1e574 <SRAM_BT_HCI_BUF_ADDR+0xc74>
    13bc:	04fc0205 	0x4fc0205
    13c0:	06010000 	bgez	s0,13c4 <SRAM_BTCALL_CALLRING_BUF_SIZE+0x3c4>
    13c4:	0004db02 	srl	k1,a0,0xc
    13c8:	05070400 	0x5070400
    13cc:	00c50604 	0xc50604
    13d0:	00250000 	0x250000
    13d4:	ac070000 	sw	a3,0(zero)
    13d8:	01000000 	0x1000000
    13dc:	01140800 	0x1140800
    13e0:	030c0000 	0x30c0000
    13e4:	070409e3 	0x70409e3
    13e8:	db030000 	ldc2	$3,0(t8)
    13ec:	00000025 	move	zero,zero
    13f0:	09002302 	j	4008c08 <BANK_SPACE+0x3fc8c08>
    13f4:	0000091a 	0x91a
    13f8:	0025dc03 	0x25dc03
    13fc:	23020000 	addi	v0,t8,0
    1400:	06420901 	bltzl	s2,3808 <SRAM_BT_HEAD_SIZE+0x408>
    1404:	dd030000 	ldc3	$3,0(t0)
    1408:	00000033 	tltu	zero,zero
    140c:	09022302 	j	4088c08 <BANK_SPACE+0x4048c08>
    1410:	00000865 	0x865
    1414:	00b3de03 	0xb3de03
    1418:	23020000 	addi	v0,t8,0
    141c:	08fa0904 	j	3e82410 <BANK_SPACE+0x3e42410>
    1420:	df030000 	ldc3	$3,0(t8)
    1424:	000000b5 	0xb5
    1428:	00082302 	srl	a0,t0,0xc
    142c:	00038a03 	sra	s1,v1,0x8
    1430:	c5e30300 	lwc1	$f3,768(t7)
    1434:	0a000000 	j	8000000 <BANK_SPACE+0x7fc0000>
    1438:	00011404 	0x11404
    143c:	01350b00 	0x1350b00
    1440:	b3010000 	0xb3010000
    1444:	0c000000 	jal	0 <CODEC_INDEX>
    1448:	000000b3 	tltu	zero,zero,0x2
    144c:	25040a00 	addiu	a0,t0,2560
    1450:	08000001 	j	4 <DRV_GROUP_EXFAT>
    1454:	0000016e 	0x16e
    1458:	0943050c 	j	50c1430 <BANK_SPACE+0x5081430>
    145c:	00000ba4 	0xba4
    1460:	01354005 	0x1354005
    1464:	23020000 	addi	v0,t8,0
    1468:	72610d00 	0x72610d00
    146c:	41050067 	0x41050067
    1470:	000000b3 	tltu	zero,zero,0x2
    1474:	09042302 	j	4108c08 <BANK_SPACE+0x40c8c08>
    1478:	00000b67 	0xb67
    147c:	016e4205 	0x16e4205
    1480:	23020000 	addi	v0,t8,0
    1484:	040a0008 	tlti	zero,8
    1488:	0000006b 	0x6b
    148c:	000b8b03 	sra	s1,t3,0xc
    1490:	3b430500 	xori	v1,k0,0x500
    1494:	08000001 	j	4 <DRV_GROUP_EXFAT>
    1498:	000001a4 	0x1a4
    149c:	09480510 	j	5201440 <BANK_SPACE+0x51c1440>
    14a0:	00000be3 	0xbe3
    14a4:	01744605 	0x1744605
    14a8:	23020000 	addi	v0,t8,0
    14ac:	0b9b0900 	j	e6c2400 <BANK_SPACE+0xe682400>
    14b0:	47050000 	c1	0x1050000
    14b4:	00000088 	0x88
    14b8:	000c2302 	srl	a0,t4,0xc
    14bc:	000bae03 	sra	s5,t3,0x18
    14c0:	7f480500 	0x7f480500
    14c4:	0a000001 	j	8000004 <BANK_SPACE+0x7fc0004>
    14c8:	00007d04 	0x7d04
    14cc:	01e80800 	0x1e80800
    14d0:	020c0000 	0x20c0000
    14d4:	08d4091c 	j	3502470 <BANK_SPACE+0x34c2470>
    14d8:	17020000 	bne	t8,v0,14dc <SRAM_BTCALL_CALLRING_BUF_SIZE+0x4dc>
    14dc:	0000011f 	0x11f
    14e0:	09002302 	j	4008c08 <BANK_SPACE+0x3fc8c08>
    14e4:	0000089b 	0x89b
    14e8:	00931902 	0x931902
    14ec:	23020000 	addi	v0,t8,0
    14f0:	00d30904 	0xd30904
    14f4:	1b020000 	0x1b020000
    14f8:	00000093 	0x93
    14fc:	00082302 	srl	a0,t0,0xc
    1500:	0005dc03 	sra	k1,a1,0x10
    1504:	b51c0200 	0xb51c0200
    1508:	0e000001 	jal	8000004 <BANK_SPACE+0x7fc0004>
    150c:	00000235 	0x235
    1510:	000bc201 	0xbc201
    1514:	01070100 	0x1070100
    1518:	000000b3 	tltu	zero,zero,0x2
    151c:	5000b001 	beqzl	zero,fffed524 <g_rec_folder_long+0x403c566c>
    1520:	5000b098 	beqzl	zero,fffed784 <g_rec_folder_long+0x403c58cc>
    1524:	780f6d01 	0x780f6d01
    1528:	0100000b 	movn	zero,t0,zero
    152c:	0000b306 	0xb306
    1530:	10600100 	beqz	v1,1934 <SRAM_BTCALL_CALLRING_BUF_SIZE+0x934>
    1534:	00000b3c 	0xb3c
    1538:	02350801 	movt	at,s1,$fcc5
    153c:	6c110000 	0x6c110000
    1540:	0100000b 	movn	zero,t0,zero
    1544:	0001a409 	0x1a409
    1548:	10910200 	beq	a0,s1,1d4c <SROM_FS_SIZE+0x14c>
    154c:	e8040a00 	swc2	$4,2560(zero)
    1550:	0e000001 	jal	8000004 <BANK_SPACE+0x7fc0004>
    1554:	00000264 	0x264
    1558:	000bd201 	0xbd201
    155c:	012c0100 	0x12c0100
    1560:	00000093 	0x93
    1564:	5000b0cd 	beqzl	zero,fffed89c <g_rec_folder_long+0x403c59e4>
    1568:	5000b128 	beqzl	zero,fffeda0c <g_rec_folder_long+0x403c5b54>
    156c:	7e0f6d01 	0x7e0f6d01
    1570:	0100000b 	movn	zero,t0,zero
    1574:	0002352b 	0x2352b
    1578:	00600100 	0x600100
    157c:	00021712 	0x21712
    1580:	e8030100 	swc2	$3,256(zero)
    1584:	01000001 	movf	zero,t0,$fcc0
    1588:	81700305 	lb	s0,773(t3)
    158c:	85139fc2 	lh	s3,-24638(t0)
    1590:	02000006 	srlv	zero,zero,s0
    1594:	0001af22 	0x1af22
    1598:	00010100 	sll	zero,at,0x4
    159c:	0000057a 	0x57a
    15a0:	04230002 	bgezl	at,15ac <SRAM_BTCALL_CALLRING_BUF_SIZE+0x5ac>
    15a4:	01040000 	0x1040000
    15a8:	00000502 	srl	zero,zero,0x14
    15ac:	5004b398 	beql	zero,a0,fffee410 <g_rec_folder_long+0x403c6558>
    15b0:	5004b32c 	beql	zero,a0,fffee264 <g_rec_folder_long+0x403c63ac>
    15b4:	000000e3 	0xe3
    15b8:	000c0801 	movf	at,zero,$fcc3
    15bc:	00017d00 	sll	t7,at,0x14
    15c0:	04f30200 	bgezall	a3,1dc4 <SROM_FS_SIZE+0x1c4>
    15c4:	08010000 	j	40000 <BANK_SPACE>
    15c8:	0002f003 	sra	s8,v0,0x0
    15cc:	250f0400 	addiu	t7,t0,1024
    15d0:	02000000 	0x2000000
    15d4:	000004f5 	0x4f5
    15d8:	83020601 	lb	v0,1537(t8)
    15dc:	02000004 	sllv	zero,zero,s0
    15e0:	071e0207 	0x71e0207
    15e4:	05020000 	bltzl	t0,15e8 <SRAM_BTCALL_CALLRING_BUF_SIZE+0x5e8>
    15e8:	0004db02 	srl	k1,a0,0xc
    15ec:	02070400 	0x2070400
    15f0:	00000005 	0x5
    15f4:	ed020504 	swc3	$2,1284(t0)
    15f8:	04000004 	bltz	zero,160c <SRAM_BTCALL_CALLRING_BUF_SIZE+0x60c>
    15fc:	024c0204 	0x24c0204
    1600:	04080000 	tgei	zero,0
    1604:	0004d602 	srl	k0,a0,0x18
    1608:	02070800 	0x2070800
    160c:	00000000 	nop
    1610:	e0020508 	sc	v0,1288(zero)
    1614:	04000004 	bltz	zero,1628 <SRAM_BTCALL_CALLRING_BUF_SIZE+0x628>
    1618:	02460307 	0x2460307
    161c:	15020000 	bne	t0,v0,1620 <SRAM_BTCALL_CALLRING_BUF_SIZE+0x620>
    1620:	00000025 	move	zero,zero
    1624:	000a8803 	sra	s1,t2,0x0
    1628:	3e1d0200 	0x3e1d0200
    162c:	03000000 	0x3000000
    1630:	00000c51 	0xc51
    1634:	00762502 	0x762502
    1638:	52030000 	beql	s0,v1,163c <SRAM_BTCALL_CALLRING_BUF_SIZE+0x63c>
    163c:	0200000c 	syscall	0x80000
    1640:	0000a929 	0xa929
    1644:	6e690400 	0x6e690400
    1648:	05040074 	0x5040074
    164c:	0004fc02 	srl	ra,a0,0x10
    1650:	02060100 	0x2060100
    1654:	000004db 	0x4db
    1658:	1b050704 	0x1b050704
    165c:	08000001 	j	4 <DRV_GROUP_EXFAT>
    1660:	f1068103 	0xf1068103
    1664:	0300000b 	movn	zero,t8,zero
    1668:	0000887b 	0x887b
    166c:	00230200 	0x230200
    1670:	000bf606 	0xbf606
    1674:	7d7c0300 	0x7d7c0300
    1678:	02000000 	0x2000000
    167c:	64070223 	0x64070223
    1680:	03007961 	0x3007961
    1684:	00007d7d 	0x7d7d
    1688:	03230200 	0x3230200
    168c:	000bfc06 	0xbfc06
    1690:	7d7e0300 	0x7d7e0300
    1694:	02000000 	0x2000000
    1698:	1b060423 	0x1b060423
    169c:	0300000c 	syscall	0xc0000
    16a0:	00007d7f 	0x7d7f
    16a4:	05230200 	bgezl	t1,1ea8 <SRAM_OS_TASK_STACK_SIZE+0xa8>
    16a8:	000c2206 	0xc2206
    16ac:	7d800300 	0x7d800300
    16b0:	02000000 	0x2000000
    16b4:	03000623 	0x3000623
    16b8:	00000c29 	0xc29
    16bc:	00be8103 	0xbe8103
    16c0:	04080000 	tgei	zero,0
    16c4:	00000045 	0x45
    16c8:	0002a709 	0x2a709
    16cc:	32061c00 	andi	a2,s0,0x1c00
    16d0:	04670a01 	0x4670a01
    16d4:	07060000 	0x7060000
    16d8:	00007d01 	0x7d01
    16dc:	00230200 	0x230200
    16e0:	00012a0a 	0x12a0a
    16e4:	01090600 	0x1090600
    16e8:	0000007d 	0x7d
    16ec:	0a012302 	j	8048c08 <BANK_SPACE+0x8008c08>
    16f0:	00000954 	0x954
    16f4:	7d010b06 	0x7d010b06
    16f8:	02000000 	0x2000000
    16fc:	9b0a0223 	lwr	t2,547(t8)
    1700:	06000004 	bltz	s0,1714 <SRAM_BTCALL_CALLRING_BUF_SIZE+0x714>
    1704:	007d010d 	break	0x7d,0x4
    1708:	23020000 	addi	v0,t8,0
    170c:	059f0a03 	0x59f0a03
    1710:	12060000 	beq	s0,a2,1714 <SRAM_BTCALL_CALLRING_BUF_SIZE+0x714>
    1714:	00007d01 	0x7d01
    1718:	04230200 	bgezl	at,1f1c <SRAM_OS_TASK_STACK_SIZE+0x11c>
    171c:	0001590a 	0x1590a
    1720:	01130600 	0x1130600
    1724:	0000007d 	0x7d
    1728:	0b052302 	j	c148c08 <BANK_SPACE+0xc108c08>
    172c:	000001fa 	0x1fa
    1730:	7d011406 	0x7d011406
    1734:	01000000 	0x1000000
    1738:	23020404 	addi	v0,t8,1028
    173c:	096e0b06 	j	5b82c18 <BANK_SPACE+0x5b42c18>
    1740:	15060000 	bne	t0,a2,1744 <SRAM_BTCALL_CALLRING_BUF_SIZE+0x744>
    1744:	00007d01 	0x7d01
    1748:	00040100 	sll	zero,a0,0x4
    174c:	0a062302 	j	8188c08 <BANK_SPACE+0x8148c08>
    1750:	000005b5 	0x5b5
    1754:	7d011806 	0x7d011806
    1758:	02000000 	0x2000000
    175c:	400a0723 	0x400a0723
    1760:	06000003 	bltz	s0,1770 <SRAM_BTCALL_CALLRING_BUF_SIZE+0x770>
    1764:	007d011a 	0x7d011a
    1768:	23020000 	addi	v0,t8,0
    176c:	06d00a08 	bltzal	s6,3f90 <SROM_STUB_ADDR_MDY+0x490>
    1770:	1d060000 	0x1d060000
    1774:	00007d01 	0x7d01
    1778:	09230200 	j	48c0800 <BANK_SPACE+0x4880800>
    177c:	00032a0a 	0x32a0a
    1780:	01200600 	0x1200600
    1784:	0000002c 	0x2c
    1788:	0a0a2302 	j	8288c08 <BANK_SPACE+0x8248c08>
    178c:	00000633 	tltu	zero,zero,0x18
    1790:	26012106 	addiu	at,s0,8454
    1794:	02000001 	movf	zero,s0,$fcc0
    1798:	fa0a0c23 	sdc2	$10,3107(s0)
    179c:	06000003 	bltz	s0,17ac <SRAM_BTCALL_CALLRING_BUF_SIZE+0x7ac>
    17a0:	01260124 	0x1260124
    17a4:	23020000 	addi	v0,t8,0
    17a8:	001a0a10 	0x1a0a10
    17ac:	25060000 	addiu	a2,t0,0
    17b0:	00012601 	0x12601
    17b4:	14230200 	bne	at,v1,1fb8 <SRAM_OS_TASK_STACK_SIZE+0x1b8>
    17b8:	00075d0a 	0x75d0a
    17bc:	01280600 	0x1280600
    17c0:	0000007d 	0x7d
    17c4:	0a182302 	j	8608c08 <BANK_SPACE+0x85c8c08>
    17c8:	00000444 	0x444
    17cc:	7d012906 	0x7d012906
    17d0:	02000000 	0x2000000
    17d4:	ba0b1923 	swr	t3,6435(s0)
    17d8:	06000006 	bltz	s0,17f4 <SRAM_BTCALL_CALLRING_BUF_SIZE+0x7f4>
    17dc:	007d012b 	0x7d012b
    17e0:	03010000 	0x3010000
    17e4:	1a230205 	0x1a230205
    17e8:	0005170b 	0x5170b
    17ec:	012c0600 	0x12c0600
    17f0:	0000007d 	0x7d
    17f4:	02040101 	0x2040101
    17f8:	cd0b1a23 	pref	0xb,6691(t0)
    17fc:	06000005 	bltz	s0,1814 <SRAM_BTCALL_CALLRING_BUF_SIZE+0x814>
    1800:	007d012d 	0x7d012d
    1804:	01010000 	0x1010000
    1808:	1a230203 	0x1a230203
    180c:	0003a90b 	0x3a90b
    1810:	012e0600 	0x12e0600
    1814:	0000007d 	0x7d
    1818:	02020101 	0x2020101
    181c:	4c0b1a23 	0x4c0b1a23
    1820:	06000008 	bltz	s0,1844 <SRAM_BTCALL_CALLRING_BUF_SIZE+0x844>
    1824:	007d012f 	0x7d012f
    1828:	01010000 	0x1010000
    182c:	1a230201 	0x1a230201
    1830:	0008370b 	0x8370b
    1834:	01310600 	0x1310600
    1838:	0000007d 	0x7d
    183c:	02000101 	0x2000101
    1840:	0c001a23 	jal	688c <SRAM_AP_BANK_BACK_AL_1_SIZE+0x288c>
    1844:	00000a4c 	syscall	0x29
    1848:	2c013206 	sltiu	at,zero,12806
    184c:	09000001 	j	4000004 <BANK_SPACE+0x3fc0004>
    1850:	0000043a 	0x43a
    1854:	016b0618 	0x16b0618
    1858:	0003ef0a 	0x3ef0a
    185c:	013a0600 	0x13a0600
    1860:	0000002c 	0x2c
    1864:	0a002302 	j	8008c08 <BANK_SPACE+0x7fc8c08>
    1868:	00000938 	0x938
    186c:	2c013c06 	sltiu	at,zero,15366
    1870:	02000000 	0x2000000
    1874:	810a0123 	lb	t2,291(t0)
    1878:	06000007 	bltz	s0,1898 <SRAM_BTCALL_CALLRING_BUF_SIZE+0x898>
    187c:	007d013e 	0x7d013e
    1880:	23020000 	addi	v0,t8,0
    1884:	011a0a02 	0x11a0a02
    1888:	40060000 	mfc0	a2,c0_index
    188c:	00007d01 	0x7d01
    1890:	03230200 	0x3230200
    1894:	0006e60a 	0x6e60a
    1898:	01420600 	0x1420600
    189c:	0000007d 	0x7d
    18a0:	0a042302 	j	8108c08 <BANK_SPACE+0x80c8c08>
    18a4:	00000224 	0x224
    18a8:	7d014406 	0x7d014406
    18ac:	02000000 	0x2000000
    18b0:	c20a0523 	ll	t2,1315(s0)
    18b4:	06000009 	bltz	s0,18dc <SRAM_BTCALL_CALLRING_BUF_SIZE+0x8dc>
    18b8:	007d0146 	0x7d0146
    18bc:	23020000 	addi	v0,t8,0
    18c0:	07e50a06 	0x7e50a06
    18c4:	48060000 	mfc2	a2,$0
    18c8:	00007d01 	0x7d01
    18cc:	07230200 	bgezl	t9,20d0 <SRAM_AP_BACK_AL_RCODE_2_SIZE+0xd0>
    18d0:	0007c00a 	movz	t8,zero,a3
    18d4:	014a0600 	0x14a0600
    18d8:	0000002c 	0x2c
    18dc:	0a082302 	j	8208c08 <BANK_SPACE+0x81c8c08>
    18e0:	000008da 	0x8da
    18e4:	7d014c06 	0x7d014c06
    18e8:	02000000 	0x2000000
    18ec:	080a0923 	j	28248c <BANK_SPACE+0x24248c>
    18f0:	06000002 	bltz	s0,18fc <SRAM_BTCALL_CALLRING_BUF_SIZE+0x8fc>
    18f4:	007d014e 	0x7d014e
    18f8:	23020000 	addi	v0,t8,0
    18fc:	06c50a0a 	0x6c50a0a
    1900:	50060000 	beql	zero,a2,1904 <SRAM_BTCALL_CALLRING_BUF_SIZE+0x904>
    1904:	00002c01 	0x2c01
    1908:	0b230200 	j	c8c0800 <BANK_SPACE+0xc880800>
    190c:	00087c0b 	0x87c0b
    1910:	01520600 	0x1520600
    1914:	0000007d 	0x7d
    1918:	02010701 	0x2010701
    191c:	440b0c23 	0x440b0c23
    1920:	06000004 	bltz	s0,1934 <SRAM_BTCALL_CALLRING_BUF_SIZE+0x934>
    1924:	007d0153 	0x7d0153
    1928:	01010000 	0x1010000
    192c:	0c230200 	jal	8c0800 <BANK_SPACE+0x880800>
    1930:	000a6a0a 	0xa6a0a
    1934:	01550600 	0x1550600
    1938:	0000007d 	0x7d
    193c:	0a0d2302 	j	8348c08 <BANK_SPACE+0x8308c08>
    1940:	00000940 	sll	at,zero,0x5
    1944:	2c015806 	sltiu	at,zero,22534
    1948:	02000000 	0x2000000
    194c:	510a0e23 	beql	t0,t2,51dc <SRAM_AP_BANK_BACK_AL_1_SIZE+0x11dc>
    1950:	06000007 	bltz	s0,1970 <SRAM_BTCALL_CALLRING_BUF_SIZE+0x970>
    1954:	002c015a 	0x2c015a
    1958:	23020000 	addi	v0,t8,0
    195c:	08c40a0f 	j	310283c <BANK_SPACE+0x30c283c>
    1960:	5c060000 	0x5c060000
    1964:	00002c01 	0x2c01
    1968:	10230200 	beq	at,v1,216c <SRAM_AP_BACK_AL_RCODE_2_SIZE+0x16c>
    196c:	0002300a 	movz	a2,zero,v0
    1970:	015e0600 	0x15e0600
    1974:	0000002c 	0x2c
    1978:	0a112302 	j	8448c08 <BANK_SPACE+0x8408c08>
    197c:	000006ab 	0x6ab
    1980:	7d016006 	0x7d016006
    1984:	02000000 	0x2000000
    1988:	790a1223 	0x790a1223
    198c:	06000000 	bltz	s0,1990 <SRAM_BTCALL_CALLRING_BUF_SIZE+0x990>
    1990:	007d0162 	0x7d0162
    1994:	23020000 	addi	v0,t8,0
    1998:	01b60a13 	0x1b60a13
    199c:	64060000 	0x64060000
    19a0:	00007d01 	0x7d01
    19a4:	14230200 	bne	at,v1,21a8 <SRAM_AP_BACK_AL_RCODE_2_SIZE+0x1a8>
    19a8:	0001450a 	0x1450a
    19ac:	01660600 	0x1660600
    19b0:	0000007d 	0x7d
    19b4:	0a152302 	j	8548c08 <BANK_SPACE+0x8508c08>
    19b8:	00000670 	tge	zero,zero,0x19
    19bc:	7d016806 	0x7d016806
    19c0:	02000000 	0x2000000
    19c4:	f60a1623 	sdc1	$f10,5667(s0)
    19c8:	06000002 	bltz	s0,19d4 <SRAM_BTCALL_CALLRING_BUF_SIZE+0x9d4>
    19cc:	007d016a 	0x7d016a
    19d0:	23020000 	addi	v0,t8,0
    19d4:	700c0017 	udi7	zero,t4,zero,0x0
    19d8:	06000007 	bltz	s0,19f8 <SRAM_BTCALL_CALLRING_BUF_SIZE+0x9f8>
    19dc:	02b3016b 	0x2b3016b
    19e0:	8c090000 	lw	t1,0(zero)
    19e4:	04000004 	bltz	zero,19f8 <SRAM_BTCALL_CALLRING_BUF_SIZE+0x9f8>
    19e8:	0a017a06 	j	805e818 <BANK_SPACE+0x801e818>
    19ec:	00000996 	0x996
    19f0:	7d017306 	0x7d017306
    19f4:	02000000 	0x2000000
    19f8:	440a0023 	0x440a0023
    19fc:	06000000 	bltz	s0,1a00 <SRAM_BTCALL_CALLRING_BUF_SIZE+0xa00>
    1a00:	007d0175 	0x7d0175
    1a04:	23020000 	addi	v0,t8,0
    1a08:	06600a01 	bltz	s3,4210 <SRAM_AP_BANK_BACK_AL_1_SIZE+0x210>
    1a0c:	77060000 	jalx	c180000 <BANK_SPACE+0xc140000>
    1a10:	00007d01 	0x7d01
    1a14:	02230200 	0x2230200
    1a18:	0004960a 	0x4960a
    1a1c:	01790600 	0x1790600
    1a20:	0000007d 	0x7d
    1a24:	00032302 	srl	a0,v1,0xc
    1a28:	0002910c 	syscall	0xa44
    1a2c:	017a0600 	0x17a0600
    1a30:	00000446 	0x446
    1a34:	0004cc0d 	break	0x4,0x330
    1a38:	0c4a0100 	jal	1280400 <BANK_SPACE+0x1240400>
    1a3c:	12010000 	beq	s0,at,1a40 <SRAM_BTCALL_CALLRING_BUF_SIZE+0xa40>
    1a40:	00009301 	0x9301
    1a44:	04b32d00 	bgezall	a1,ce48 <SROM_FS_ADDR+0xe48>
    1a48:	04b36850 	bgezall	a1,1bb8c <SRAM_OS_TASK_STACK_ADDR+0x58c>
    1a4c:	0e6d0150 	jal	9b40540 <BANK_SPACE+0x9b00540>
    1a50:	00637472 	tlt	v1,v1,0x1d1
    1a54:	04cc1101 	teqi	a2,4353
    1a58:	55010000 	bnel	t0,at,1a5c <SRAM_BTCALL_CALLRING_BUF_SIZE+0xa5c>
    1a5c:	0100740f 	0x100740f
    1a60:	00009313 	0x9313
    1a64:	00520100 	0x520100
    1a68:	011b0408 	0x11b0408
    1a6c:	10100000 	beq	zero,s0,1a70 <SRAM_BTCALL_CALLRING_BUF_SIZE+0xa70>
    1a70:	01000005 	0x1000005
    1a74:	00000c35 	0xc35
    1a78:	69012801 	0x69012801
    1a7c:	905004b3 	lbu	s0,1203(v0)
    1a80:	015004b3 	tltu	t2,s0,0x12
    1a84:	0c58116d 	jal	16045b4 <BANK_SPACE+0x15c45b4>
    1a88:	27010000 	addiu	at,t8,0
    1a8c:	0000009e 	0x9e
    1a90:	01125401 	0x1125401
    1a94:	0100000c 	syscall	0x40000
    1a98:	00011b29 	0x11b29
    1a9c:	18910200 	0x18910200
    1aa0:	706d7413 	udi3	v1,t5,t6,0x10
    1aa4:	932a0100 	lbu	t2,256(t9)
    1aa8:	00000000 	nop
    1aac:	0009fb14 	0x9fb14
    1ab0:	930a0100 	lbu	t2,256(t8)
    1ab4:	01000000 	0x1000000
    1ab8:	81800305 	lb	zero,773(t4)
    1abc:	01149fc2 	0x1149fc2
    1ac0:	01000005 	0x1000005
    1ac4:	00009308 	0x9308
    1ac8:	03050100 	0x3050100
    1acc:	9fc28184 	0x9fc28184
    1ad0:	00069d14 	0x69d14
    1ad4:	2c0c0100 	sltiu	t4,zero,256
    1ad8:	01000000 	0x1000000
    1adc:	817c0305 	lb	gp,773(t3)
    1ae0:	17159fc2 	bne	t8,s5,fffe99ec <g_rec_folder_long+0x403c1b34>
    1ae4:	05000004 	bltz	t0,1af8 <SRAM_BTCALL_CALLRING_BUF_SIZE+0xaf8>
    1ae8:	00007d85 	0x7d85
    1aec:	16010100 	bne	s0,at,1ef0 <SRAM_OS_TASK_STACK_SIZE+0xf0>
    1af0:	00000452 	0x452
    1af4:	a7018e06 	sh	at,-29178(t8)
    1af8:	01000002 	0x1000002
    1afc:	02b91601 	0x2b91601
    1b00:	94060000 	lhu	a2,0(zero)
    1b04:	00048c01 	0x48c01
    1b08:	16010100 	bne	s0,at,1f0c <SRAM_OS_TASK_STACK_SIZE+0x10c>
    1b0c:	0000064f 	0x64f
    1b10:	3a019a06 	xori	at,s0,0x9a06
    1b14:	01000004 	sllv	zero,zero,t0
    1b18:	Address 0x1b18 is out of bounds.

Disassembly of section .debug_line:

00000000 <.debug_line>:
   0:	0000032f 	0x32f
   4:	010c0002 	0x10c0002
   8:	01010000 	0x1010000
   c:	000a0efb 	0xa0efb
  10:	01010101 	0x1010101
  14:	01000000 	0x1000000
  18:	2e2e2f2e 	sltiu	t6,s1,12078
  1c:	2f2e2e2f 	sltiu	t6,t9,11823
  20:	702f2e2e 	0x702f2e2e
  24:	725f7073 	0x725f7073
  28:	692f6c65 	0x692f6c65
  2c:	756c636e 	jalx	5b18db8 <BANK_SPACE+0x5ad8db8>
  30:	2e006564 	sltiu	zero,s0,25956
  34:	2f2e2e2f 	sltiu	t6,t9,11823
  38:	2e2f2e2e 	sltiu	t7,s1,11822
  3c:	73702f2e 	0x73702f2e
  40:	65725f70 	0x65725f70
  44:	6e692f6c 	0x6e692f6c
  48:	64756c63 	0x64756c63
  4c:	63752f65 	0x63752f65
  50:	2e00736f 	sltiu	zero,s0,29551
  54:	2f2e2e2f 	sltiu	t6,t9,11823
  58:	692f2e2e 	0x692f2e2e
  5c:	0000636e 	0x636e
  60:	6973756d 	0x6973756d
  64:	63735f63 	0x63735f63
  68:	665f6e61 	0x665f6e61
  6c:	5f656c69 	0x5f656c69
  70:	65726874 	0x65726874
  74:	632e6461 	0x632e6461
  78:	00000000 	nop
  7c:	65707974 	0x65707974
  80:	2e747865 	sltiu	s4,s3,30821
  84:	00010068 	0x10068
  88:	6f637500 	0x6f637500
  8c:	79745f73 	0x79745f73
  90:	2e736570 	sltiu	s3,s3,25968
  94:	00020068 	0x20068
  98:	73667600 	0x73667600
  9c:	746e695f 	jalx	1b9a57c <BANK_SPACE+0x1b5a57c>
  a0:	61667265 	0x61667265
  a4:	682e6563 	0x682e6563
  a8:	00000100 	sll	zero,zero,0x4
  ac:	65736163 	0x65736163
  b0:	7079745f 	udi15	v1,t9,t6,0x11
  b4:	00682e65 	0x682e65
  b8:	6d000003 	0x6d000003
  bc:	63697375 	0x63697375
  c0:	6163735f 	0x6163735f
  c4:	6d635f6e 	0x6d635f6e
  c8:	00682e64 	0x682e64
  cc:	6d000003 	0x6d000003
  d0:	63697375 	0x63697375
  d4:	6163735f 	0x6163735f
  d8:	69665f6e 	0x69665f6e
  dc:	682e656c 	0x682e656c
  e0:	00000000 	nop
  e4:	682e736f 	0x682e736f
  e8:	00000200 	sll	zero,zero,0x8
  ec:	5f707061 	0x5f707061
  f0:	656d6974 	0x656d6974
  f4:	00682e72 	tlt	v1,t0,0xb9
  f8:	61000003 	0x61000003
  fc:	696c7070 	0x696c7070
 100:	00682e62 	0x682e62
 104:	64000003 	0x64000003
 108:	6c5f7269 	0x6c5f7269
 10c:	2e747369 	sltiu	s4,s3,29545
 110:	00010068 	0x10068
 114:	05000000 	bltz	t0,118 <SRAM_AP_MANAGER_RCODE_SIZE+0x18>
 118:	00b2b902 	0xb2b902
 11c:	06c40350 	0x6c40350
 120:	442e4701 	0x442e4701
 124:	2c2e2d2c 	sltiu	t6,at,11564
 128:	81494880 	lb	t1,18560(t2)
 12c:	0882b82e 	j	20ae0b8 <BANK_SPACE+0x206e0b8>
 130:	2ef1653a 	sltiu	s1,s7,25914
 134:	f34b2d81 	0xf34b2d81
 138:	01001502 	0x1001502
 13c:	02050001 	movt	zero,s0,$fcc1
 140:	5004b059 	beql	zero,a0,fffec2a8 <g_rec_folder_long+0x403c43f0>
 144:	0102ac03 	0x102ac03
 148:	2a2c2a2c 	slti	t4,s1,10796
 14c:	b92c462c 	swr	t4,17964(t1)
 150:	5d08f12c 	0x5d08f12c
 154:	4e2a642f 	c3	0x2a642f
 158:	292d2848 	slti	t5,t1,10312
 15c:	2a2e282e 	slti	t6,s1,10286
 160:	4848f12c 	0x4848f12c
 164:	d6f1662c 	ldc1	$f17,26156(s7)
 168:	48a07e80 	0x48a07e80
 16c:	2c1f0881 	sltiu	ra,zero,2177
 170:	26021c03 	addiu	v0,s0,7171
 174:	2b0d0301 	slti	t5,t8,769
 178:	2d292d29 	sltiu	t1,t1,11561
 17c:	032b7603 	0x32b7603
 180:	292d470a 	slti	t5,t1,18186
 184:	49652c2d 	0x49652c2d
 188:	5808642f 	0x5808642f
 18c:	274b7d2d 	addiu	t3,k0,32045
 190:	2c4a272f 	sltiu	t2,v0,10031
 194:	2b78032f 	slti	t8,k1,815
 198:	032b0a03 	0x32b0a03
 19c:	03710872 	tlt	k1,s1,0x21
 1a0:	48e10814 	0x48e10814
 1a4:	647f0b03 	0x647f0b03
 1a8:	2f49a07e 	sltiu	t1,k0,-24450
 1ac:	4c2a2c83 	0x4c2a2c83
 1b0:	81a12c27 	lb	at,11303(t5)
 1b4:	2fb9642c 	sltiu	t9,sp,25644
 1b8:	2dbb2cf2 	sltiu	k1,t5,11506
 1bc:	2d294929 	sltiu	t1,t1,18729
 1c0:	81ba482d 	lb	k0,18477(t5)
 1c4:	274b272f 	addiu	t3,k0,10031
 1c8:	8049482c 	lb	t1,18476(v0)
 1cc:	4565ba64 	0x4565ba64
 1d0:	49029d2d 	bc2fl	fffe7688 <g_rec_folder_long+0x403bf7d0>
 1d4:	00010100 	sll	zero,at,0x4
 1d8:	b0010205 	0xb0010205
 1dc:	d9035004 	ldc2	$3,20484(t0)
 1e0:	30480101 	andi	t0,v0,0x101
 1e4:	312b7a03 	andi	t3,t1,0x7a03
 1e8:	2b78039d 	slti	t8,k1,925
 1ec:	2cb94833 	sltiu	t9,a1,18483
 1f0:	2c2d2a2c 	sltiu	t5,at,10796
 1f4:	9e31282d 	0x9e31282d
 1f8:	2c2f2a2c 	sltiu	t7,at,10796
 1fc:	01000d02 	0x1000d02
 200:	02050001 	movt	zero,s0,$fcc1
 204:	5000b135 	beqzl	zero,fffec6dc <g_rec_folder_long+0x403c4824>
 208:	0101b703 	0x101b703
 20c:	032d4c2b 	0x32d4c2b
 210:	2d302b79 	sltiu	s0,t1,11129
 214:	30482a2d 	andi	t0,v0,0x2a2d
 218:	2c272f27 	sltiu	a3,at,12071
 21c:	469c3148 	c1	0x9c3148
 220:	ba48f130 	swr	t0,-3792(s2)
 224:	0825032c 	j	940cb0 <BANK_SPACE+0x900cb0>
 228:	d52e2c39 	ldc1	$f14,11321(t1)
 22c:	2f27b94a 	sltiu	a3,t9,-18102
 230:	3a084b65 	xori	t0,s0,0x4b65
 234:	13031e08 	beq	t8,v1,7a58 <SRAM_AP_BACK_AL_RCODE_1_SIZE+0xa58>
 238:	03f5492b 	0x3f5492b
 23c:	39080391 	xori	t0,t0,0x391
 240:	032b0903 	0x32b0903
 244:	09032b77 	j	40caddc <BANK_SPACE+0x408addc>
 248:	4a499e2b 	c2	0x499e2b
 24c:	03470e03 	0x3470e03
 250:	12034772 	beq	s0,v1,1201c <SRAM_BT_BACK_RCODE_ADDR+0x101c>
 254:	2f274b2b 	sltiu	a3,t9,19243
 258:	b9d5b9b9 	swr	s5,-17991(t6)
 25c:	4b4866bb 	c2	0x14866bb
 260:	01002102 	0x1002102
 264:	02050001 	movt	zero,s0,$fcc1
 268:	5004b399 	beql	zero,a0,fffed0d0 <g_rec_folder_long+0x403c5218>
 26c:	0100f103 	0x100f103
 270:	29b92c2b 	slti	t9,t5,11307
 274:	2d29822d 	sltiu	t1,t1,-32211
 278:	b70b0382 	0xb70b0382
 27c:	2b7a0331 	slti	k0,k1,817
 280:	2b7a0331 	slti	k0,k1,817
 284:	082f2a32 	j	bca8c8 <BANK_SPACE+0xb8a8c8>
 288:	2c2cb93b 	sltiu	t4,at,-18117
 28c:	2c48b949 	sltiu	t0,v0,-18103
 290:	b69c2c31 	0xb69c2c31
 294:	272f274b 	addiu	t7,t9,10059
 298:	0833272f 	j	cc9cbc <BANK_SPACE+0xc89cbc>
 29c:	7a03291f 	0x7a03291f
 2a0:	470b0347 	c1	0x10b0347
 2a4:	02d1032d 	0x2d1032d
 2a8:	2d2d3908 	sltiu	t5,t1,14600
 2ac:	032e4c29 	0x32e4c29
 2b0:	7103ef0f 	0x7103ef0f
 2b4:	85642e2b 	lh	a0,11819(t3)
 2b8:	5c082f65 	0x5c082f65
 2bc:	6473082d 	0x6473082d
 2c0:	65630903 	0x65630903
 2c4:	2a642f29 	slti	a0,s3,12073
 2c8:	2f2a802f 	sltiu	t2,t9,-32721
 2cc:	080a032c 	j	280cb0 <BANK_SPACE+0x240cb0>
 2d0:	2b0a0339 	slti	t2,t8,825
 2d4:	2f2a2c64 	sltiu	t2,t9,11364
 2d8:	0a032866 	j	80ca198 <BANK_SPACE+0x808a198>
 2dc:	472e0347 	c1	0x12e0347
 2e0:	032c2a64 	0x32c2a64
 2e4:	a04a2b4d 	sb	t2,11085(v0)
 2e8:	48488081 	0x48488081
 2ec:	bd3a0830 	cache	0x1a,2096(t1)
 2f0:	272f3164 	addiu	t7,t9,12644
 2f4:	03674d4d 	break	0x367,0x135
 2f8:	2d71080b 	sltiu	s1,t3,2059
 2fc:	1e084929 	0x1e084929
 300:	64b70d03 	0x64b70d03
 304:	2c2e2c2e 	sltiu	t6,at,11310
 308:	032d2f2a 	0x32d2f2a
 30c:	1d0800c2 	0x1d0800c2
 310:	f0822e31 	0xf0822e31
 314:	2a484884 	slti	t0,s2,18564
 318:	81862e2c 	lb	a2,11820(t4)
 31c:	4965816b 	0x4965816b
 320:	2d292d29 	sltiu	t1,t1,11561
 324:	f26749ba 	0xf26749ba
 328:	659cd583 	0x659cd583
 32c:	27029dba 	addiu	v0,t8,-25158
 330:	e4010100 	swc1	$f1,256(zero)
 334:	02000000 	0x2000000
 338:	0000c400 	sll	t8,zero,0x10
 33c:	fb010100 	sdc2	$1,256(t8)
 340:	01000a0e 	0x1000a0e
 344:	00010101 	0x10101
 348:	2e010000 	sltiu	at,s0,0
 34c:	2f2e2e2f 	sltiu	t6,t9,11823
 350:	612f2e2e 	0x612f2e2e
 354:	6f632f70 	0x6f632f70
 358:	6e6f6d6d 	0x6e6f6d6d
 35c:	6d6f632f 	0x6d6f632f
 360:	5f6e6f6d 	0x5f6e6f6d
 364:	636e7566 	0x636e7566
 368:	2e2f2e00 	sltiu	t7,s1,11776
 36c:	2e2e2f2e 	sltiu	t6,s1,12078
 370:	2f2e2e2f 	sltiu	t6,t9,11823
 374:	5f707370 	0x5f707370
 378:	2f6c6572 	sltiu	t4,k1,25970
 37c:	6c636e69 	0x6c636e69
 380:	00656475 	0x656475
 384:	2e2e2f2e 	sltiu	t6,s1,12078
 388:	2f2e2e2f 	sltiu	t6,t9,11823
 38c:	00636e69 	0x636e69
 390:	2e2e2f2e 	sltiu	t6,s1,12078
 394:	2f2e2e2f 	sltiu	t6,t9,11823
 398:	702f2e2e 	0x702f2e2e
 39c:	725f7073 	0x725f7073
 3a0:	692f6c65 	0x692f6c65
 3a4:	756c636e 	jalx	5b18db8 <BANK_SPACE+0x5ad8db8>
 3a8:	752f6564 	jalx	4bd9590 <BANK_SPACE+0x4b99590>
 3ac:	00736f63 	0x736f63
 3b0:	6d6f6300 	0x6d6f6300
 3b4:	5f6e6f6d 	0x5f6e6f6d
 3b8:	72616873 	0x72616873
 3bc:	61645f65 	0x61645f65
 3c0:	632e6174 	0x632e6174
 3c4:	00000100 	sll	zero,zero,0x4
 3c8:	65707974 	0x65707974
 3cc:	2e747865 	sltiu	s4,s3,30821
 3d0:	00020068 	0x20068
 3d4:	70706100 	0x70706100
 3d8:	6d69745f 	0x6d69745f
 3dc:	682e7265 	0x682e7265
 3e0:	00000300 	sll	zero,zero,0xc
 3e4:	6c707061 	0x6c707061
 3e8:	682e6269 	0x682e6269
 3ec:	00000300 	sll	zero,zero,0xc
 3f0:	736f6375 	0x736f6375
 3f4:	7079745f 	udi15	v1,t9,t6,0x11
 3f8:	682e7365 	0x682e7365
 3fc:	00000400 	sll	zero,zero,0x10
 400:	02050000 	0x2050000
 404:	bfc27e79 	cache	0x2,32377(s8)
 408:	2e013003 	sltiu	at,s0,12291
 40c:	22032d29 	addi	v1,s0,11561
 410:	81652c47 	lb	a1,11335(t3)
 414:	13024c2e 	beq	t8,v0,134d0 <SRAM_BT_BACK_RCODE_ADDR+0x24d0>
 418:	e3010100 	sc	at,256(t8)
 41c:	02000000 	0x2000000
 420:	0000ac00 	sll	s5,zero,0x10
 424:	fb010100 	sdc2	$1,256(t8)
 428:	01000a0e 	0x1000a0e
 42c:	00010101 	0x10101
 430:	2e010000 	sltiu	at,s0,0
 434:	2f2e2e2f 	sltiu	t6,t9,11823
 438:	2e2f2e2e 	sltiu	t7,s1,11822
 43c:	73702f2e 	0x73702f2e
 440:	65725f70 	0x65725f70
 444:	6e692f6c 	0x6e692f6c
 448:	64756c63 	0x64756c63
 44c:	63752f65 	0x63752f65
 450:	2e00736f 	sltiu	zero,s0,29551
 454:	2f2e2e2f 	sltiu	t6,t9,11823
 458:	2e2f2e2e 	sltiu	t7,s1,11822
 45c:	73702f2e 	0x73702f2e
 460:	65725f70 	0x65725f70
 464:	6e692f6c 	0x6e692f6c
 468:	64756c63 	0x64756c63
 46c:	6d000065 	0x6d000065
 470:	63697375 	0x63697375
 474:	6163735f 	0x6163735f
 478:	6e695f6e 	0x6e695f6e
 47c:	66726574 	0x66726574
 480:	2e656361 	sltiu	a1,s3,25441
 484:	00000063 	0x63
 488:	73756d00 	0x73756d00
 48c:	735f6369 	0x735f6369
 490:	5f6e6163 	0x5f6e6163
 494:	656c6966 	0x656c6966
 498:	0000682e 	0x682e
 49c:	736f0000 	madd	k1,t7
 4a0:	0100682e 	0x100682e
 4a4:	79740000 	0x79740000
 4a8:	78656570 	0x78656570
 4ac:	00682e74 	teq	v1,t0,0xb9
 4b0:	70000002 	mul	zero,zero,zero
 4b4:	65726874 	0x65726874
 4b8:	682e6461 	0x682e6461
 4bc:	00000200 	sll	zero,zero,0x8
 4c0:	736f6375 	0x736f6375
 4c4:	7079745f 	udi15	v1,t9,t6,0x11
 4c8:	682e7365 	0x682e7365
 4cc:	00000100 	sll	zero,zero,0x4
 4d0:	02050000 	0x2050000
 4d4:	5000b001 	beqzl	zero,fffec4dc <g_rec_folder_long+0x403c4624>
 4d8:	ba2f2b15 	swr	t7,11029(s1)
 4dc:	2d292eba 	sltiu	t1,t1,11962
 4e0:	482a65b7 	0x482a65b7
 4e4:	9d2e2c29 	0x9d2e2c29
 4e8:	9cd4d49e 	0x9cd4d49e
 4ec:	2c9d9d4a 	sltiu	sp,a0,-25270
 4f0:	2b133802 	slti	s3,t8,14338
 4f4:	b94b2c2d 	swr	t3,11309(t2)
 4f8:	9e9cf1ba 	0x9e9cf1ba
 4fc:	001302d5 	0x1302d5
 500:	00df0101 	0xdf0101
 504:	00020000 	sll	zero,v0,0x0
 508:	000000b8 	0xb8
 50c:	0efb0101 	jal	bec0404 <BANK_SPACE+0xbe80404>
 510:	0101000a 	movz	zero,t0,at
 514:	00000101 	0x101
 518:	2f2e0100 	sltiu	t6,t9,256
 51c:	2e2f2e2e 	sltiu	t7,s1,11822
 520:	2e2e2f2e 	sltiu	t6,s1,12078
 524:	7073702f 	0x7073702f
 528:	6c65725f 	0x6c65725f
 52c:	636e692f 	0x636e692f
 530:	6564756c 	0x6564756c
 534:	2e2f2e00 	sltiu	t7,s1,11776
 538:	2e2e2f2e 	sltiu	t6,s1,12078
 53c:	2f2e2e2f 	sltiu	t6,t9,11823
 540:	5f707370 	0x5f707370
 544:	2f6c6572 	sltiu	t4,k1,25970
 548:	6c636e69 	0x6c636e69
 54c:	2f656475 	sltiu	a1,k1,25717
 550:	736f6375 	0x736f6375
 554:	2e2f2e00 	sltiu	t7,s1,11776
 558:	2e2e2f2e 	sltiu	t6,s1,12078
 55c:	636e692f 	0x636e692f
 560:	756d0000 	jalx	5b40000 <BANK_SPACE+0x5b00000>
 564:	5f636973 	0x5f636973
 568:	6e616373 	0x6e616373
 56c:	6c69665f 	0x6c69665f
 570:	632e3265 	0x632e3265
 574:	00000000 	nop
 578:	65707974 	0x65707974
 57c:	2e747865 	sltiu	s4,s3,30821
 580:	00010068 	0x10068
 584:	73667600 	0x73667600
 588:	746e695f 	jalx	1b9a57c <BANK_SPACE+0x1b5a57c>
 58c:	61667265 	0x61667265
 590:	682e6563 	0x682e6563
 594:	00000100 	sll	zero,zero,0x4
 598:	736f6375 	0x736f6375
 59c:	7079745f 	udi15	v1,t9,t6,0x11
 5a0:	682e7365 	0x682e7365
 5a4:	00000200 	sll	zero,zero,0x8
 5a8:	5f707061 	0x5f707061
 5ac:	656d6974 	0x656d6974
 5b0:	00682e72 	tlt	v1,t0,0xb9
 5b4:	61000003 	0x61000003
 5b8:	696c7070 	0x696c7070
 5bc:	00682e62 	0x682e62
 5c0:	00000003 	sra	zero,zero,0x0
 5c4:	2d020500 	sltiu	v0,t0,1280
 5c8:	035004b3 	tltu	k0,s0,0x12
 5cc:	2c2a0112 	sltiu	t2,at,274
 5d0:	482ad4b8 	0x482ad4b8
 5d4:	03812c7e 	0x3812c7e
 5d8:	082e6311 	j	b98c44 <BANK_SPACE+0xb58c44>
 5dc:	2f80641e 	sltiu	zero,gp,25630
 5e0:	01000b02 	0x1000b02
 5e4:	Address 0x5e4 is out of bounds.

Disassembly of section .debug_frame:

00000000 <.debug_frame>:
   0:	0000000c 	syscall
   4:	ffffffff 	sdc3	$31,-1(ra)
   8:	04010001 	b	10 <SRAM_CARD_GLOBAL_DATA_SIZE>
   c:	001d0c1f 	0x1d0c1f
  10:	00000020 	add	zero,zero,zero
  14:	00000000 	nop
  18:	5004b399 	beql	zero,a0,fffece80 <g_rec_folder_long+0x403c4fc8>
  1c:	0000002b 	sltu	zero,zero,zero
  20:	0e040e42 	jal	8103908 <BANK_SPACE+0x80c3908>
  24:	0e0c0e08 	jal	8303820 <BANK_SPACE+0x82c3820>
  28:	7d101120 	0x7d101120
  2c:	117e1111 	beq	t3,s8,4474 <SRAM_AP_BANK_BACK_AL_1_SIZE+0x474>
  30:	00007f1f 	0x7f1f
  34:	00000020 	add	zero,zero,zero
  38:	00000000 	nop
  3c:	5004b3cd 	beql	zero,a0,fffecf74 <g_rec_folder_long+0x403c50bc>
  40:	00000097 	0x97
  44:	0e040e42 	jal	8103908 <BANK_SPACE+0x80c3908>
  48:	0e0c0e08 	jal	8303820 <BANK_SPACE+0x82c3820>
  4c:	7d101150 	0x7d101150
  50:	117e1111 	beq	t3,s8,4498 <SRAM_AP_BANK_BACK_AL_1_SIZE+0x498>
  54:	00007f1f 	0x7f1f
  58:	00000020 	add	zero,zero,zero
  5c:	00000000 	nop
  60:	5000b135 	beqzl	zero,fffec538 <g_rec_folder_long+0x403c4680>
  64:	0000005b 	0x5b
  68:	0e040e42 	jal	8103908 <BANK_SPACE+0x80c3908>
  6c:	0e0c0e08 	jal	8303820 <BANK_SPACE+0x82c3820>
  70:	7d101128 	0x7d101128
  74:	117e1111 	beq	t3,s8,44bc <SRAM_AP_BANK_BACK_AL_1_SIZE+0x4bc>
  78:	00007f1f 	0x7f1f
  7c:	00000020 	add	zero,zero,zero
  80:	00000000 	nop
  84:	5004b001 	beql	zero,a0,fffec08c <g_rec_folder_long+0x403c41d4>
  88:	0000004f 	0x4f
  8c:	0e040e44 	jal	8103910 <BANK_SPACE+0x80c3910>
  90:	0e0c0e08 	jal	8303820 <BANK_SPACE+0x82c3820>
  94:	7d101120 	0x7d101120
  98:	117e1111 	beq	t3,s8,44e0 <SRAM_AP_BANK_BACK_AL_1_SIZE+0x4e0>
  9c:	00007f1f 	0x7f1f
  a0:	00000020 	add	zero,zero,zero
  a4:	00000000 	nop
  a8:	5000b1a1 	beqzl	zero,fffec730 <g_rec_folder_long+0x403c4878>
  ac:	00000073 	tltu	zero,zero,0x1
  b0:	0e040e42 	jal	8103908 <BANK_SPACE+0x80c3908>
  b4:	0e0c0e08 	jal	8303820 <BANK_SPACE+0x82c3820>
  b8:	7d101128 	0x7d101128
  bc:	117e1111 	beq	t3,s8,4504 <SRAM_AP_BANK_BACK_AL_1_SIZE+0x504>
  c0:	00007f1f 	0x7f1f
  c4:	00000020 	add	zero,zero,zero
  c8:	00000000 	nop
  cc:	5004b059 	beql	zero,a0,fffec234 <g_rec_folder_long+0x403c437c>
  d0:	00000037 	0x37
  d4:	0e040e42 	jal	8103908 <BANK_SPACE+0x80c3908>
  d8:	0e0c0e08 	jal	8303820 <BANK_SPACE+0x82c3820>
  dc:	7d101120 	0x7d101120
  e0:	117e1111 	beq	t3,s8,4528 <SRAM_AP_BANK_BACK_AL_1_SIZE+0x528>
  e4:	00007f1f 	0x7f1f
  e8:	00000020 	add	zero,zero,zero
  ec:	00000000 	nop
  f0:	5004b09d 	beql	zero,a0,fffec368 <g_rec_folder_long+0x403c44b0>
  f4:	0000009f 	0x9f
  f8:	0e040e42 	jal	8103908 <BANK_SPACE+0x80c3908>
  fc:	0e0c0e08 	jal	8303820 <BANK_SPACE+0x82c3820>
 100:	7d101130 	0x7d101130
 104:	117e1111 	beq	t3,s8,454c <SRAM_AP_BANK_BACK_AL_1_SIZE+0x54c>
 108:	00007f1f 	0x7f1f
 10c:	00000020 	add	zero,zero,zero
 110:	00000000 	nop
 114:	5004b15d 	beql	zero,a0,fffec68c <g_rec_folder_long+0x403c47d4>
 118:	00000087 	0x87
 11c:	0e040e42 	jal	8103908 <BANK_SPACE+0x80c3908>
 120:	0e0c0e08 	jal	8303820 <BANK_SPACE+0x82c3820>
 124:	7d101128 	0x7d101128
 128:	117e1111 	beq	t3,s8,4570 <SRAM_AP_BANK_BACK_AL_1_SIZE+0x570>
 12c:	00007f1f 	0x7f1f
 130:	00000020 	add	zero,zero,zero
 134:	00000000 	nop
 138:	5004b1f5 	beql	zero,a0,fffec910 <g_rec_folder_long+0x403c4a58>
 13c:	000000f7 	0xf7
 140:	0e040e42 	jal	8103908 <BANK_SPACE+0x80c3908>
 144:	0e0c0e08 	jal	8303820 <BANK_SPACE+0x82c3820>
 148:	7d101120 	0x7d101120
 14c:	117e1111 	beq	t3,s8,4594 <SRAM_AP_BANK_BACK_AL_1_SIZE+0x594>
 150:	00007f1f 	0x7f1f
 154:	00000020 	add	zero,zero,zero
 158:	00000000 	nop
 15c:	5004b471 	beql	zero,a0,fffed324 <g_rec_folder_long+0x403c546c>
 160:	0000003b 	0x3b
 164:	0e040e42 	jal	8103908 <BANK_SPACE+0x80c3908>
 168:	0e0c0e08 	jal	8303820 <BANK_SPACE+0x82c3820>
 16c:	7d101128 	0x7d101128
 170:	117e1111 	beq	t3,s8,45b8 <SRAM_AP_BANK_BACK_AL_1_SIZE+0x5b8>
 174:	00007f1f 	0x7f1f
 178:	0000001c 	0x1c
 17c:	00000000 	nop
 180:	5004b4bd 	beql	zero,a0,fffed478 <g_rec_folder_long+0x403c55c0>
 184:	0000004f 	0x4f
 188:	0e040e42 	jal	8103908 <BANK_SPACE+0x80c3908>
 18c:	11200e08 	beqz	t1,39b0 <SROM_STUB_ADDR+0xb0>
 190:	1f117e10 	0x1f117e10
 194:	0000007f 	0x7f
 198:	00000020 	add	zero,zero,zero
 19c:	00000000 	nop
 1a0:	5004b519 	beql	zero,a0,fffed608 <g_rec_folder_long+0x403c5750>
 1a4:	000000e3 	0xe3
 1a8:	0e040e42 	jal	8103908 <BANK_SPACE+0x80c3908>
 1ac:	0e0c0e08 	jal	8303820 <BANK_SPACE+0x82c3820>
 1b0:	7d101130 	0x7d101130
 1b4:	117e1111 	beq	t3,s8,45fc <SRAM_AP_BANK_BACK_AL_1_SIZE+0x5fc>
 1b8:	00007f1f 	0x7f1f
 1bc:	00000020 	add	zero,zero,zero
 1c0:	00000000 	nop
 1c4:	5000b221 	beqzl	zero,fffeca4c <g_rec_folder_long+0x403c4b94>
 1c8:	0000007b 	0x7b
 1cc:	0e040e42 	jal	8103908 <BANK_SPACE+0x80c3908>
 1d0:	0e0c0e08 	jal	8303820 <BANK_SPACE+0x82c3820>
 1d4:	7d101128 	0x7d101128
 1d8:	117e1111 	beq	t3,s8,4620 <SRAM_AP_BANK_BACK_AL_1_SIZE+0x620>
 1dc:	00007f1f 	0x7f1f
 1e0:	00000020 	add	zero,zero,zero
 1e4:	00000000 	nop
 1e8:	5004b609 	beql	zero,a0,fffeda10 <g_rec_folder_long+0x403c5b58>
 1ec:	000000cb 	0xcb
 1f0:	0e040e42 	jal	8103908 <BANK_SPACE+0x80c3908>
 1f4:	0e0c0e08 	jal	8303820 <BANK_SPACE+0x82c3820>
 1f8:	7d101128 	0x7d101128
 1fc:	117e1111 	beq	t3,s8,4644 <SRAM_AP_BANK_BACK_AL_1_SIZE+0x644>
 200:	00007f1f 	0x7f1f
 204:	00000020 	add	zero,zero,zero
 208:	00000000 	nop
 20c:	5000b2b9 	beqzl	zero,fffeccf4 <g_rec_folder_long+0x403c4e3c>
 210:	0000008f 	0x8f
 214:	0e040e44 	jal	8103910 <BANK_SPACE+0x80c3910>
 218:	0e0c0e08 	jal	8303820 <BANK_SPACE+0x82c3820>
 21c:	7d101120 	0x7d101120
 220:	117e1111 	beq	t3,s8,4668 <SRAM_AP_BANK_BACK_AL_1_SIZE+0x668>
 224:	00007f1f 	0x7f1f
 228:	0000000c 	syscall
 22c:	ffffffff 	sdc3	$31,-1(ra)
 230:	04010001 	b	238 <SRAM_AP_RCP_COMMAND_BUFFER_SIZE+0x18>
 234:	001d0c1f 	0x1d0c1f
 238:	0000001c 	0x1c
 23c:	00000228 	0x228
 240:	bfc27e79 	cache	0x2,32377(s8)
 244:	00000027 	nor	zero,zero,zero
 248:	0e040e42 	jal	8103908 <BANK_SPACE+0x80c3908>
 24c:	11180e08 	beq	t0,t8,3a70 <SROM_STUB_ADDR+0x170>
 250:	1f117e10 	0x1f117e10
 254:	0000007f 	0x7f
 258:	0000000c 	syscall
 25c:	ffffffff 	sdc3	$31,-1(ra)
 260:	04010001 	b	268 <SRAM_AP_RCP_COMMAND_BUFFER_SIZE+0x48>
 264:	001d0c1f 	0x1d0c1f
 268:	00000020 	add	zero,zero,zero
 26c:	00000258 	0x258
 270:	5000b001 	beqzl	zero,fffec278 <g_rec_folder_long+0x403c43c0>
 274:	00000097 	0x97
 278:	0e040e42 	jal	8103908 <BANK_SPACE+0x80c3908>
 27c:	0e0c0e08 	jal	8303820 <BANK_SPACE+0x82c3820>
 280:	7d101130 	0x7d101130
 284:	117e1111 	beq	t3,s8,46cc <SRAM_AP_BANK_BACK_AL_1_SIZE+0x6cc>
 288:	00007f1f 	0x7f1f
 28c:	00000020 	add	zero,zero,zero
 290:	00000258 	0x258
 294:	5000b0cd 	beqzl	zero,fffec5cc <g_rec_folder_long+0x403c4714>
 298:	0000005b 	0x5b
 29c:	0e040e42 	jal	8103908 <BANK_SPACE+0x80c3908>
 2a0:	0e0c0e08 	jal	8303820 <BANK_SPACE+0x82c3820>
 2a4:	7d101120 	0x7d101120
 2a8:	117e1111 	beq	t3,s8,46f0 <SRAM_AP_BANK_BACK_AL_1_SIZE+0x6f0>
 2ac:	00007f1f 	0x7f1f
 2b0:	0000000c 	syscall
 2b4:	ffffffff 	sdc3	$31,-1(ra)
 2b8:	04010001 	b	2c0 <SRAM_AP_RCP_COMMAND_BUFFER_SIZE+0xa0>
 2bc:	001d0c1f 	0x1d0c1f
 2c0:	0000000c 	syscall
 2c4:	000002b0 	tge	zero,zero,0xa
 2c8:	5004b32d 	beql	zero,a0,fffecf80 <g_rec_folder_long+0x403c50c8>
 2cc:	0000003b 	0x3b
 2d0:	00000014 	0x14
 2d4:	000002b0 	tge	zero,zero,0xa
 2d8:	5004b369 	beql	zero,a0,fffed080 <g_rec_folder_long+0x403c51c8>
 2dc:	00000027 	nor	zero,zero,zero
 2e0:	0e040e42 	jal	8103908 <BANK_SPACE+0x80c3908>
 2e4:	7f1f1128 	0x7f1f1128
Disassembly of section .debug_pubnames:

00000000 <.debug_pubnames>:
   0:	0000021f 	0x21f
   4:	00000002 	srl	zero,zero,0x0
   8:	0e1b0000 	jal	86c0000 <BANK_SPACE+0x8680000>
   c:	06cb0000 	tltiu	s6,0
  10:	756d0000 	jalx	5b40000 <BANK_SPACE+0x5b00000>
  14:	5f636973 	0x5f636973
  18:	6e616373 	0x6e616373
  1c:	6d69745f 	0x6d69745f
  20:	6c645f65 	0x6c645f65
  24:	06fd0079 	0x6fd0079
  28:	756d0000 	jalx	5b40000 <BANK_SPACE+0x5b00000>
  2c:	5f636973 	0x5f636973
  30:	746c6966 	jalx	1b1a598 <BANK_SPACE+0x1ada598>
  34:	65746172 	0x65746172
  38:	7269645f 	udi15	s3,t1,t4,0x11
  3c:	00077200 	sll	t6,a3,0x8
  40:	73756d00 	0x73756d00
  44:	735f6369 	0x735f6369
  48:	5f6e6163 	0x5f6e6163
  4c:	695f7366 	0x695f7366
  50:	0074696e 	0x74696e
  54:	000007d0 	0x7d0
  58:	6973756d 	0x6973756d
  5c:	63735f63 	0x63735f63
  60:	655f6e61 	0x655f6e61
  64:	00746978 	0x746978
  68:	00000821 	move	at,zero
  6c:	6973756d 	0x6973756d
  70:	69665f63 	0x69665f63
  74:	695f656c 	0x695f656c
  78:	0074696e 	0x74696e
  7c:	00000857 	0x857
  80:	6973756d 	0x6973756d
  84:	69645f63 	0x69645f63
  88:	666e6972 	0x666e6972
  8c:	6f745f6f 	0x6f745f6f
  90:	8c006d76 	lw	zero,28022(zero)
  94:	6d000008 	0x6d000008
  98:	63697375 	0x63697375
  9c:	6f74735f 	0x6f74735f
  a0:	645f6572 	0x645f6572
  a4:	6e697269 	0x6e697269
  a8:	d2006f66 	0xd2006f66
  ac:	6d000008 	0x6d000008
  b0:	63697375 	0x63697375
  b4:	7661735f 	jalx	985cd7c <BANK_SPACE+0x981cd7c>
  b8:	6e695f65 	0x6e695f65
  bc:	6c5f7469 	0x6c5f7469
  c0:	00747369 	0x747369
  c4:	0000093b 	0x93b
  c8:	6973756d 	0x6973756d
  cc:	61735f63 	0x61735f63
  d0:	685f6576 	0x685f6576
  d4:	65646165 	0x65646165
  d8:	09d90072 	j	76401c8 <BANK_SPACE+0x76001c8>
  dc:	756d0000 	jalx	5b40000 <BANK_SPACE+0x5b00000>
  e0:	5f636973 	0x5f636973
  e4:	5f746567 	0x5f746567
  e8:	7478656e 	jalx	1e195b8 <BANK_SPACE+0x1dd95b8>
  ec:	656c6966 	0x656c6966
  f0:	000a2b00 	sll	a1,t2,0xc
  f4:	73756d00 	0x73756d00
  f8:	735f6369 	0x735f6369
  fc:	5f6e6163 	0x5f6e6163
 100:	74696e69 	jalx	1a5b9a4 <BANK_SPACE+0x1a1b9a4>
 104:	000a7f00 	sll	t7,t2,0x1c
 108:	73756d00 	0x73756d00
 10c:	735f6369 	0x735f6369
 110:	5f6e6163 	0x5f6e6163
 114:	656c6966 	0x656c6966
 118:	000aec00 	sll	sp,t2,0x10
 11c:	73756d00 	0x73756d00
 120:	735f6369 	0x735f6369
 124:	5f6e6163 	0x5f6e6163
 128:	00646d63 	0x646d63
 12c:	00000b83 	sra	at,zero,0xe
 130:	63735f67 	0x63735f67
 134:	745f6e61 	jalx	17db984 <BANK_SPACE+0x179b984>
 138:	61657268 	0x61657268
 13c:	61745f64 	0x61745f64
 140:	615f6b73 	0x615f6b73
 144:	00726464 	0x726464
 148:	00000c1c 	0xc1c
 14c:	63735f67 	0x63735f67
 150:	635f6e61 	0x635f6e61
 154:	745f7275 	jalx	17dc9d4 <BANK_SPACE+0x179c9d4>
 158:	72656d69 	0x72656d69
 15c:	000c2e00 	sll	a1,t4,0x18
 160:	665f6700 	0x665f6700
 164:	5f656c69 	0x5f656c69
 168:	61746f74 	0x61746f74
 16c:	0c40006c 	jal	10001b0 <BANK_SPACE+0xfc01b0>
 170:	5f670000 	0x5f670000
 174:	5f726964 	0x5f726964
 178:	656c6966 	0x656c6966
 17c:	006f6e5f 	0x6f6e5f
 180:	00000c52 	0xc52
 184:	69645f67 	0x69645f67
 188:	6f745f72 	0x6f745f72
 18c:	006c6174 	teq	v1,t4,0x185
 190:	00000c64 	0xc64
 194:	69645f67 	0x69645f67
 198:	616c5f72 	0x616c5f72
 19c:	00726579 	0x726579
 1a0:	00000c76 	tne	zero,zero,0x31
 1a4:	73665f67 	0x73665f67
 1a8:	756f6d5f 	jalx	5bdb57c <BANK_SPACE+0x5b9b57c>
 1ac:	695f746e 	0x695f746e
 1b0:	0c880064 	jal	2200190 <BANK_SPACE+0x21c0190>
 1b4:	5f670000 	0x5f670000
 1b8:	5f726964 	0x5f726964
 1bc:	6579616c 	0x6579616c
 1c0:	6e695f72 	0x6e695f72
 1c4:	9a006f66 	lwr	zero,28518(s0)
 1c8:	6700000c 	0x6700000c
 1cc:	6163735f 	0x6163735f
 1d0:	6e655f6e 	0x6e655f6e
 1d4:	0cac0064 	jal	2b00190 <BANK_SPACE+0x2ac0190>
 1d8:	5f670000 	0x5f670000
 1dc:	6e616373 	0x6e616373
 1e0:	7272655f 	udi15	s3,s2,t4,0x15
 1e4:	be00726f 	cache	0x0,29295(s0)
 1e8:	6700000c 	0x6700000c
 1ec:	6373705f 	0x6373705f
 1f0:	685f6e61 	0x685f6e61
 1f4:	6c646e61 	0x6c646e61
 1f8:	0cd60065 	jal	3580194 <BANK_SPACE+0x3540194>
 1fc:	5f670000 	0x5f670000
 200:	6e616373 	0x6e616373
 204:	7269645f 	udi15	s3,t1,t4,0x11
 208:	646e695f 	0x646e695f
 20c:	e8007865 	swc2	$0,30821(zero)
 210:	6700000c 	0x6700000c
 214:	6163735f 	0x6163735f
 218:	69645f6e 	0x69645f6e
 21c:	00006b73 	tltu	zero,zero,0x1ad
 220:	53000000 	beqzl	t8,224 <SRAM_AP_RCP_COMMAND_BUFFER_SIZE+0x4>
 224:	02000000 	0x2000000
 228:	000e1b00 	sll	v1,t6,0xc
 22c:	0004fd00 	sll	ra,a0,0x14
 230:	00041500 	sll	v0,a0,0x14
 234:	6d6f6300 	0x6d6f6300
 238:	616f6c5f 	0x616f6c5f
 23c:	68735f64 	0x68735f64
 240:	5f657261 	0x5f657261
 244:	61746164 	0x61746164
 248:	0004be00 	sll	s7,a0,0x18
 24c:	725f6700 	0x725f6700
 250:	665f6365 	0x665f6365
 254:	65646c6f 	0x65646c6f
 258:	6f6c5f72 	0x6f6c5f72
 25c:	e500676e 	swc1	$f0,26478(t0)
 260:	67000004 	0x67000004
 264:	6365725f 	0x6365725f
 268:	6c6f665f 	0x6c6f665f
 26c:	5f726564 	0x5f726564
 270:	726f6873 	0x726f6873
 274:	00000074 	teq	zero,zero,0x1
 278:	00480000 	0x480000
 27c:	00020000 	sll	zero,v0,0x0
 280:	00001318 	0x1318
 284:	00000284 	0x284
 288:	000001f3 	tltu	zero,zero,0x7
 28c:	6973756d 	0x6973756d
 290:	63735f63 	0x63735f63
 294:	6f5f6e61 	0x6f5f6e61
 298:	006e6570 	tge	v1,t6,0x195
 29c:	0000023b 	0x23b
 2a0:	6973756d 	0x6973756d
 2a4:	63735f63 	0x63735f63
 2a8:	635f6e61 	0x635f6e61
 2ac:	65736f6c 	0x65736f6c
 2b0:	00026400 	sll	t4,v0,0x10
 2b4:	735f6700 	0x735f6700
 2b8:	5f6e6163 	0x5f6e6163
 2bc:	61726170 	0x61726170
 2c0:	0000006d 	0x6d
 2c4:	007c0000 	0x7c0000
 2c8:	00020000 	sll	zero,v0,0x0
 2cc:	0000159c 	0x159c
 2d0:	0000057e 	0x57e
 2d4:	00000498 	0x498
 2d8:	5f637472 	0x5f637472
 2dc:	755f6f74 	jalx	57dbdd0 <BANK_SPACE+0x579bdd0>
 2e0:	33746e69 	andi	s4,k1,0x6e69
 2e4:	04d20032 	bltzall	a2,3b0 <SRAM_FS_DATA_SIZE+0xb0>
 2e8:	65670000 	0x65670000
 2ec:	656e5f74 	0x656e5f74
 2f0:	74736577 	jalx	1cd95dc <BANK_SPACE+0x1c995dc>
 2f4:	6c69665f 	0x6c69665f
 2f8:	69745f65 	0x69745f65
 2fc:	1000656d 	b	198b4 <SRAM_FM_DRV_RDATA_ADDR+0x134>
 300:	67000005 	0x67000005
 304:	6c69665f 	0x6c69665f
 308:	656e5f65 	0x656e5f65
 30c:	74736577 	jalx	1cd95dc <BANK_SPACE+0x1c995dc>
 310:	6d69745f 	0x6d69745f
 314:	05220065 	bltzl	t1,4ac <RCODE_DATA_BSS_SIZE+0xac>
 318:	5f670000 	0x5f670000
 31c:	665f6d76 	0x665f6d76
 320:	5f656c69 	0x5f656c69
 324:	6577656e 	0x6577656e
 328:	745f7473 	jalx	17dd1cc <BANK_SPACE+0x179d1cc>
 32c:	00656d69 	0x656d69
 330:	00000534 	teq	zero,zero,0x14
 334:	66765f67 	0x66765f67
 338:	68635f73 	0x68635f73
 33c:	65676e61 	0x65676e61
 340:	00000064 	0x64
	...
Disassembly of section .debug_aranges:

00000000 <.debug_aranges>:
   0:	00000064 	0x64
   4:	00000002 	srl	zero,zero,0x0
   8:	00040000 	sll	zero,a0,0x0
   c:	00000000 	nop
  10:	5004b398 	beql	zero,a0,fffece74 <g_rec_folder_long+0x403c4fbc>
  14:	0000035c 	0x35c
  18:	5000b135 	beqzl	zero,fffec4f0 <g_rec_folder_long+0x403c4638>
  1c:	0000005b 	0x5b
  20:	5004b001 	beql	zero,a0,fffec028 <g_rec_folder_long+0x403c4170>
  24:	0000004f 	0x4f
  28:	5000b1a1 	beqzl	zero,fffec6b0 <g_rec_folder_long+0x403c47f8>
  2c:	00000073 	tltu	zero,zero,0x1
  30:	5004b059 	beql	zero,a0,fffec198 <g_rec_folder_long+0x403c42e0>
  34:	00000037 	0x37
  38:	5004b09d 	beql	zero,a0,fffec2b0 <g_rec_folder_long+0x403c43f8>
  3c:	0000009f 	0x9f
  40:	5004b15d 	beql	zero,a0,fffec5b8 <g_rec_folder_long+0x403c4700>
  44:	00000087 	0x87
  48:	5004b1f5 	beql	zero,a0,fffec820 <g_rec_folder_long+0x403c4968>
  4c:	000000f7 	0xf7
  50:	5000b221 	beqzl	zero,fffec8d8 <g_rec_folder_long+0x403c4a20>
  54:	0000007b 	0x7b
  58:	5000b2b9 	beqzl	zero,fffecb40 <g_rec_folder_long+0x403c4c88>
  5c:	0000008f 	0x8f
	...
  68:	0000001c 	0x1c
  6c:	0e1b0002 	jal	86c0008 <BANK_SPACE+0x8680008>
  70:	00040000 	sll	zero,a0,0x0
  74:	00000000 	nop
  78:	bfc27e78 	cache	0x2,32376(s8)
  7c:	00000034 	teq	zero,zero
	...
  88:	0000001c 	0x1c
  8c:	13180002 	beq	t8,t8,98 <SRAM_CARD_DATA_SIZE+0x18>
  90:	00040000 	sll	zero,a0,0x0
  94:	00000000 	nop
  98:	5000b000 	beqzl	zero,fffec09c <g_rec_folder_long+0x403c41e4>
  9c:	00000134 	teq	zero,zero,0x4
	...
  a8:	0000001c 	0x1c
  ac:	159c0002 	bne	t4,gp,b8 <SRAM_CARD_DATA_SIZE+0x38>
  b0:	00040000 	sll	zero,a0,0x0
  b4:	00000000 	nop
  b8:	5004b32c 	beql	zero,a0,fffecd6c <g_rec_folder_long+0x403c4eb4>
  bc:	0000006c 	0x6c
	...
Disassembly of section .debug_str:

00000000 <.debug_str>:
   0:	676e6f6c 	0x676e6f6c
   4:	6e6f6c20 	0x6e6f6c20
   8:	6e692067 	0x6e692067
   c:	65680074 	0x65680074
  10:	6f5f6461 	0x6f5f6461
  14:	65736666 	0x65736666
  18:	5f700074 	0x5f700074
  1c:	72656e65 	0x72656e65
  20:	765f7967 	jalx	97de59c <BANK_SPACE+0x979e59c>
  24:	65756c61 	0x65756c61
  28:	6572665f 	0x6572665f
  2c:	50007371 	beqzl	zero,1cdf4 <SRAM_OS_TASK_STACK_ADDR+0x17f4>
  30:	4d415241 	0x4d415241
  34:	4f52465f 	c3	0x152465f
  38:	41525f4d 	0x41525f4d
  3c:	5f4f4944 	0x5f4f4944
  40:	00434f54 	0x434f54
  44:	7473616c 	jalx	1cd85b0 <BANK_SPACE+0x1c985b0>
  48:	6e75665f 	0x6e75665f
  4c:	6e695f63 	0x6e695f63
  50:	00786564 	0x786564
  54:	41524150 	0x41524150
  58:	52465f4d 	beql	s2,a2,17d90 <SRAM_CARD_UD_RCODE_ADDR+0x990>
  5c:	525f4d4f 	beql	s2,ra,1359c <SRAM_BT_BACK_RCODE_ADDR+0x259c>
  60:	4f494441 	c3	0x1494441
  64:	554f545f 	bnel	t2,t7,151e4 <SRAM_BT_EXT5_BANK_ADDR+0xbe4>
  68:	73696c00 	0x73696c00
  6c:	69645f74 	0x69645f74
  70:	6e695f72 	0x6e695f72
  74:	745f6f66 	jalx	17dbd98 <BANK_SPACE+0x179bd98>
  78:	72756300 	0x72756300
  7c:	6e75665f 	0x6e75665f
  80:	64695f63 	0x64695f63
  84:	52415000 	beql	s2,at,14088 <SRAM_BT_EXT3_BANK_ADDR+0x788>
  88:	465f4d41 	c1	0x5f4d41
  8c:	5f4d4f52 	0x5f4d4f52
  90:	53494455 	beql	k0,t1,111e8 <SRAM_BT_BACK_RCODE_ADDR+0x1e8>
  94:	6e69004b 	0x6e69004b
  98:	765f6f66 	jalx	97dbd98 <BANK_SPACE+0x979bd98>
  9c:	5f6d6172 	0x5f6d6172
  a0:	72646461 	0x72646461
  a4:	705f7300 	0x705f7300
  a8:	7473696c 	jalx	1cda5b0 <BANK_SPACE+0x1c9a5b0>
  ac:	52415000 	beql	s2,at,140b0 <SRAM_BT_EXT3_BANK_ADDR+0x7b0>
  b0:	525f4d41 	beql	s2,ra,135b8 <SRAM_BT_BACK_RCODE_ADDR+0x25b8>
  b4:	524f4345 	beql	s2,t7,10dcc <SRAM_COMMON_BT_MANAGER_RCODE+0x8cc>
  b8:	50435f44 	beql	v0,v1,17dcc <SRAM_CARD_UD_RCODE_ADDR+0x9cc>
  bc:	0059414c 	syscall	0x16505
  c0:	6e616373 	0x6e616373
  c4:	646f6d5f 	0x646f6d5f
  c8:	72640065 	0x72640065
  cc:	6f6d5f76 	0x6f6d5f76
  d0:	74006564 	jalx	19590 <SRAM_AP_BACK_DATA_ADDR+0x10>
  d4:	61657268 	0x61657268
  d8:	6e655f64 	0x6e655f64
  dc:	6c665f64 	0x6c665f64
  e0:	47006761 	c1	0x1006761
  e4:	4320554e 	c0	0x120554e
  e8:	342e3320 	ori	t6,at,0x3320
  ec:	6d20342e 	0x6d20342e
  f0:	73737069 	0x73737069
  f4:	362d6564 	ori	t5,s1,0x6564
  f8:	2e36302e 	sltiu	s6,s1,12334
  fc:	322d3130 	andi	t5,s1,0x3130
 100:	30373030 	andi	s7,at,0x3030
 104:	00303234 	teq	at,s0,0xc8
 108:	65725f73 	0x65725f73
 10c:	6f665f63 	0x6f665f63
 110:	7265646c 	0x7265646c
 114:	6e6f6c5f 	0x6e6f6c5f
 118:	61620067 	0x61620067
 11c:	696c6b63 	0x696c6b63
 120:	5f746867 	0x5f746867
 124:	74617473 	jalx	185d1cc <BANK_SPACE+0x181d1cc>
 128:	6e650065 	0x6e650065
 12c:	656e6967 	0x656e6967
 130:	6174735f 	0x6174735f
 134:	67006574 	0x67006574
 138:	7269645f 	udi15	s3,t1,t4,0x11
 13c:	6c69665f 	0x6c69665f
 140:	6f6e5f65 	0x6f6e5f65
 144:	72657600 	0x72657600
 148:	63696669 	0x63696669
 14c:	6f697461 	0x6f697461
 150:	74735f6e 	jalx	1cd7db8 <BANK_SPACE+0x1c97db8>
 154:	73757461 	0x73757461
 158:	735f6700 	0x735f6700
 15c:	5f646e65 	0x5f646e65
 160:	74697865 	jalx	1a5e194 <BANK_SPACE+0x1a1e194>
 164:	6d6d6d5f 	0x6d6d6d5f
 168:	7374745f 	udi15	k1,s4,t6,0x11
 16c:	646e6900 	0x646e6900
 170:	765f7865 	jalx	97de194 <BANK_SPACE+0x979e194>
 174:	5f6d6172 	0x5f6d6172
 178:	72646461 	0x72646461
 17c:	79632f00 	0x79632f00
 180:	69726467 	0x69726467
 184:	662f6576 	0x662f6576
 188:	666f532f 	0x666f532f
 18c:	64735f74 	0x64735f74
 190:	54412f6b 	bnel	v0,at,bf40 <SRAM_UI_DATA_ADDR+0x40>
 194:	32383253 	andi	t8,s1,0x3253
 198:	44535f35 	0x44535f35
 19c:	34565f4b 	ori	s6,v0,0x5f4b
 1a0:	632f322e 	0x632f322e
 1a4:	2f657361 	sltiu	a1,k1,29537
 1a8:	6d2f7061 	0x6d2f7061
 1ac:	63697375 	0x63697375
 1b0:	6163735f 	0x6163735f
 1b4:	7061006e 	0x7061006e
 1b8:	74735f6b 	jalx	1cd7dac <BANK_SPACE+0x1c97dac>
 1bc:	73757461 	0x73757461
 1c0:	73756d00 	0x73756d00
 1c4:	735f6369 	0x735f6369
 1c8:	5f6e6163 	0x5f6e6163
 1cc:	00646d63 	0x646d63
 1d0:	615f7277 	0x615f7277
 1d4:	00726464 	0x726464
 1d8:	736f6875 	0x736f6875
 1dc:	72645f74 	0x72645f74
 1e0:	616e5f76 	0x616e5f76
 1e4:	6d00656d 	0x6d00656d
 1e8:	63697375 	0x63697375
 1ec:	6c69665f 	0x6c69665f
 1f0:	74617274 	jalx	185c9d0 <BANK_SPACE+0x181c9d0>
 1f4:	69645f65 	0x69645f65
 1f8:	6f700072 	0x6f700072
 1fc:	5f726577 	0x5f726577
 200:	665f6e6f 	0x665f6e6f
 204:	0067616c 	0x67616c
 208:	5f746162 	0x5f746162
 20c:	756c6176 	jalx	5b185d8 <BANK_SPACE+0x5ad85d8>
 210:	735f0065 	0x735f0065
 214:	67006275 	0x67006275
 218:	6163735f 	0x6163735f
 21c:	61705f6e 	0x61705f6e
 220:	006d6172 	tlt	v1,t5,0x185
 224:	736f6875 	0x736f6875
 228:	74735f74 	jalx	1cd7dd0 <BANK_SPACE+0x1c97dd0>
 22c:	00657461 	0x657461
 230:	6574756f 	0x6574756f
 234:	61705f72 	0x61705f72
 238:	006e6f5f 	0x6e6f5f
 23c:	6b736964 	0x6b736964
 240:	7079745f 	udi15	v1,t9,t6,0x11
 244:	69750065 	0x69750065
 248:	0038746e 	0x38746e
 24c:	62756f64 	0x62756f64
 250:	6400656c 	0x6400656c
 254:	745f7269 	jalx	17dc9a4 <BANK_SPACE+0x179c9a4>
 258:	00657079 	0x657079
 25c:	5f726964 	0x5f726964
 260:	6e756f63 	0x6e756f63
 264:	69640074 	0x69640074
 268:	65725f72 	0x65725f72
 26c:	66700074 	0x66700074
 270:	5f656c69 	0x5f656c69
 274:	7366666f 	0x7366666f
 278:	745f7465 	jalx	17dd194 <BANK_SPACE+0x179d194>
 27c:	74657200 	jalx	195c800 <BANK_SPACE+0x191c800>
 280:	6c61765f 	0x6c61765f
 284:	645f6700 	0x645f6700
 288:	745f7269 	jalx	17dc9a4 <BANK_SPACE+0x179c9a4>
 28c:	6c61746f 	0x6c61746f
 290:	70706100 	0x70706100
 294:	73616c5f 	udi15	k1,at,t5,0x11
 298:	74735f74 	jalx	1cd7dd0 <BANK_SPACE+0x1c97dd0>
 29c:	5f657461 	0x5f657461
 2a0:	61740074 	0x61740074
 2a4:	6d006c69 	0x6d006c69
 2a8:	63697375 	0x63697375
 2ac:	7661735f 	jalx	985cd7c <BANK_SPACE+0x981cd7c>
 2b0:	65685f65 	0x65685f65
 2b4:	72656461 	0x72656461
 2b8:	615f6700 	0x615f6700
 2bc:	6c5f7070 	0x6c5f7070
 2c0:	5f747361 	0x5f747361
 2c4:	74617473 	jalx	185d1cc <BANK_SPACE+0x181d1cc>
 2c8:	756d0065 	jalx	5b40194 <BANK_SPACE+0x5b00194>
 2cc:	5f636973 	0x5f636973
 2d0:	65766173 	0x65766173
 2d4:	696e695f 	0x696e695f
 2d8:	696c5f74 	0x696c5f74
 2dc:	50007473 	beqzl	zero,1d4ac <SRAM_OS_TASK_STACK_ADDR+0x1eac>
 2e0:	4d415241 	0x4d415241
 2e4:	4f52465f 	c3	0x152465f
 2e8:	4c415f4d 	0x4c415f4d
 2ec:	004d5241 	0x4d5241
 2f0:	38544e49 	xori	s4,v0,0x4e49
 2f4:	78650055 	0x78650055
 2f8:	6e726574 	0x6e726574
 2fc:	7461625f 	jalx	185897c <BANK_SPACE+0x181897c>
 300:	006e695f 	0x6e695f
 304:	5f736676 	0x5f736676
 308:	6e756f6d 	0x6e756f6d
 30c:	6f6c0074 	0x6f6c0074
 310:	635f706f 	0x635f706f
 314:	69746e6f 	0x69746e6f
 318:	0065756e 	0x65756e
 31c:	5f706d74 	0x5f706d74
 320:	5f727563 	0x5f727563
 324:	656d6974 	0x656d6974
 328:	6e650072 	0x6e650072
 32c:	79677265 	0x79677265
 330:	6176615f 	0x6176615f
 334:	62616c69 	0x62616c69
 338:	665f656c 	0x665f656c
 33c:	0067616c 	0x67616c
 340:	5f786966 	0x5f786966
 344:	706d6173 	0x706d6173
 348:	725f656c 	0x725f656c
 34c:	5f657461 	0x5f657461
 350:	67616c66 	0x67616c66
 354:	72616600 	0x72616600
 358:	7269645f 	udi15	s3,t1,t4,0x11
 35c:	72746e65 	0x72746e65
 360:	61700079 	0x61700079
 364:	765f6d72 	jalx	97db5c8 <BANK_SPACE+0x979b5c8>
 368:	63006c61 	0x63006c61
 36c:	5f647261 	0x5f647261
 370:	5f767264 	0x5f767264
 374:	656d616e 	0x656d616e
 378:	735f6700 	0x735f6700
 37c:	5f6e6163 	0x5f6e6163
 380:	5f726964 	0x5f726964
 384:	65646e69 	0x65646e69
 388:	736f0078 	0x736f0078
 38c:	6576655f 	0x6576655f
 390:	745f746e 	jalx	17dd1b8 <BANK_SPACE+0x179d1b8>
 394:	73756d00 	0x73756d00
 398:	735f6369 	0x735f6369
 39c:	5f6e6163 	0x5f6e6163
 3a0:	5f646d63 	0x5f646d63
 3a4:	74697865 	jalx	1a5e194 <BANK_SPACE+0x1a1e194>
 3a8:	696f7600 	0x696f7600
 3ac:	725f6563 	0x725f6563
 3b0:	6e6f6365 	0x6e6f6365
 3b4:	7a696e67 	0x7a696e67
 3b8:	6f6d5f65 	0x6f6d5f65
 3bc:	73006564 	0x73006564
 3c0:	6675625f 	0x6675625f
 3c4:	53554d00 	beql	k0,s5,137c8 <SRAM_BT_BACK_RCODE_ADDR+0x27c8>
 3c8:	535f4349 	beql	k0,ra,110f0 <SRAM_BT_BACK_RCODE_ADDR+0xf0>
 3cc:	5f4e4143 	0x5f4e4143
 3d0:	5f544547 	0x5f544547
 3d4:	54415453 	bnel	v0,at,15524 <SRAM_BT_EXT5_BANK_ADDR+0xf24>
 3d8:	6d005355 	0x6d005355
 3dc:	63697375 	0x63697375
 3e0:	6f74735f 	0x6f74735f
 3e4:	645f6572 	0x645f6572
 3e8:	6e697269 	0x6e697269
 3ec:	6d006f66 	0x6d006f66
 3f0:	5f657475 	0x5f657475
 3f4:	74617473 	jalx	185d1cc <BANK_SPACE+0x181d1cc>
 3f8:	5f700065 	0x5f700065
 3fc:	72656e65 	0x72656e65
 400:	765f7967 	jalx	97de59c <BANK_SPACE+0x979e59c>
 404:	65756c61 	0x65756c61
 408:	6e61625f 	0x6e61625f
 40c:	72007364 	0x72007364
 410:	72657365 	0x72657365
 414:	67006576 	0x67006576
 418:	6968745f 	0x6968745f
 41c:	70615f73 	0x70615f73
 420:	69745f70 	0x69745f70
 424:	5f72656d 	0x5f72656d
 428:	00676174 	teq	v1,a3,0x185
 42c:	6973756d 	0x6973756d
 430:	63735f63 	0x63735f63
 434:	655f6e61 	0x655f6e61
 438:	00746978 	0x746978
 43c:	5f726964 	0x5f726964
 440:	006c6176 	tne	v1,t4,0x185
 444:	62757473 	0x62757473
 448:	7968705f 	0x7968705f
 44c:	7079745f 	udi15	v1,t9,t6,0x11
 450:	5f670065 	0x5f670065
 454:	5f707061 	0x5f707061
 458:	6f666e69 	0x6f666e69
 45c:	6174735f 	0x6174735f
 460:	615f6574 	0x615f6574
 464:	65006c6c 	0x65006c6c
 468:	6e69676e 	0x6e69676e
 46c:	79745f65 	0x79745f65
 470:	6d006570 	0x6d006570
 474:	63697375 	0x63697375
 478:	6c69665f 	0x6c69665f
 47c:	6e695f65 	0x6e695f65
 480:	73007469 	0x73007469
 484:	74726f68 	jalx	1c9bda0 <BANK_SPACE+0x1c5bda0>
 488:	736e7520 	0x736e7520
 48c:	656e6769 	0x656e6769
 490:	6e692064 	0x6e692064
 494:	616c0074 	0x616c0074
 498:	755f7473 	jalx	57dd1cc <BANK_SPACE+0x579d1cc>
 49c:	74735f69 	jalx	1cd7da4 <BANK_SPACE+0x1c97da4>
 4a0:	73757461 	0x73757461
 4a4:	72756300 	0x72756300
 4a8:	7269645f 	udi15	s3,t1,t4,0x11
 4ac:	616c665f 	0x616c665f
 4b0:	756d0067 	jalx	5b4019c <BANK_SPACE+0x5b0019c>
 4b4:	5f636973 	0x5f636973
 4b8:	6e616373 	0x6e616373
 4bc:	646d635f 	0x646d635f
 4c0:	6d00745f 	0x6d00745f
 4c4:	63697375 	0x63697375
 4c8:	6163735f 	0x6163735f
 4cc:	73665f6e 	0x73665f6e
 4d0:	696e695f 	0x696e695f
 4d4:	6f6c0074 	0x6f6c0074
 4d8:	6c20676e 	0x6c20676e
 4dc:	20676e6f 	addi	a3,v1,28271
 4e0:	69736e75 	0x69736e75
 4e4:	64656e67 	0x64656e67
 4e8:	746e6920 	jalx	1b9a480 <BANK_SPACE+0x1b5a480>
 4ec:	6f6c6600 	0x6f6c6600
 4f0:	75007461 	jalx	401d184 <BANK_SPACE+0x3fdd184>
 4f4:	6769736e 	0x6769736e
 4f8:	2064656e 	addi	a0,v1,25966
 4fc:	72616863 	0x72616863
 500:	765f6700 	jalx	97d9c00 <BANK_SPACE+0x9799c00>
 504:	69665f6d 	0x69665f6d
 508:	6e5f656c 	0x6e5f656c
 50c:	73657765 	0x73657765
 510:	69745f74 	0x69745f74
 514:	7700656d 	jalx	c0195b4 <BANK_SPACE+0xbfd95b4>
 518:	73657661 	0x73657661
 51c:	6561645f 	0x6561645f
 520:	7261705f 	udi15	s3,at,t6,0x1
 524:	70755f61 	0x70755f61
 528:	65746164 	0x65746164
 52c:	616c665f 	0x616c665f
 530:	5f670067 	0x5f670067
 534:	6e616373 	0x6e616373
 538:	7275635f 	udi15	s3,s5,t4,0xd
 53c:	6d69745f 	0x6d69745f
 540:	64007265 	0x64007265
 544:	6e5f7269 	0x6e5f7269
 548:	5f656d61 	0x5f656d61
 54c:	66667562 	0x66667562
 550:	6d007265 	0x6d007265
 554:	61685f73 	0x61685f73
 558:	656c646e 	0x656c646e
 55c:	665f6700 	0x665f6700
 560:	6f6d5f73 	0x6f6d5f73
 564:	5f746e75 	0x5f746e75
 568:	67006469 	0x67006469
 56c:	6163735f 	0x6163735f
 570:	6e655f6e 	0x6e655f6e
 574:	6e690064 	0x6e690064
 578:	725f7469 	0x725f7469
 57c:	70007465 	0x70007465
 580:	646e695f 	0x646e695f
 584:	6c5f7865 	0x6c5f7865
 588:	00747369 	0x747369
 58c:	41524150 	0x41524150
 590:	52465f4d 	beql	s2,a2,182c8 <SRAM_FS_DATA_ADDR+0x2c8>
 594:	4d5f4d4f 	0x4d5f4d4f
 598:	545f4349 	bnel	v0,ra,112c0 <SRAM_BT_BACK_RCODE_ADDR+0x2c0>
 59c:	6700434f 	0x6700434f
 5a0:	5f6f6e5f 	0x5f6f6e5f
 5a4:	70707573 	0x70707573
 5a8:	5f74726f 	0x5f74726f
 5ac:	5f737474 	0x5f737474
 5b0:	67616c66 	0x67616c66
 5b4:	756f7300 	jalx	5bdcc00 <BANK_SPACE+0x5b9cc00>
 5b8:	735f646e 	0x735f646e
 5bc:	65746174 	0x65746174
 5c0:	72756300 	0x72756300
 5c4:	756c635f 	jalx	5b18d7c <BANK_SPACE+0x5ad8d7c>
 5c8:	72657473 	0x72657473
 5cc:	6f777400 	0x6f777400
 5d0:	6f68705f 	0x6f68705f
 5d4:	6d5f656e 	0x6d5f656e
 5d8:	0065646f 	0x65646f
 5dc:	6973756d 	0x6973756d
 5e0:	63735f63 	0x63735f63
 5e4:	705f6e61 	0x705f6e61
 5e8:	6d617261 	0x6d617261
 5ec:	6d00745f 	0x6d00745f
 5f0:	63697375 	0x63697375
 5f4:	7269645f 	udi15	s3,t1,t4,0x11
 5f8:	6f666e69 	0x6f666e69
 5fc:	766f745f 	jalx	9bdd17c <BANK_SPACE+0x9b9d17c>
 600:	5f67006d 	0x5f67006d
 604:	5f726964 	0x5f726964
 608:	6579616c 	0x6579616c
 60c:	554d0072 	bnel	t2,t5,7d8 <BANK_BASAL_SIZE+0xd8>
 610:	5f434953 	0x5f434953
 614:	4e414353 	c3	0x414353
 618:	45504f5f 	0x45504f5f
 61c:	5f73004e 	0x5f73004e
 620:	61656870 	0x61656870
 624:	5f670064 	0x5f670064
 628:	656c6966 	0x656c6966
 62c:	746f745f 	jalx	1bdd17c <BANK_SPACE+0x1b9d17c>
 630:	70006c61 	0x70006c61
 634:	656e655f 	0x656e655f
 638:	5f796772 	0x5f796772
 63c:	756c6176 	jalx	5b185d8 <BANK_SPACE+0x5ad85d8>
 640:	736f0065 	0x736f0065
 644:	6576655f 	0x6576655f
 648:	635f746e 	0x635f746e
 64c:	6700746e 	0x6700746e
 650:	7070615f 	udi15	v1,s0,t4,0x5
 654:	666e695f 	0x666e695f
 658:	74735f6f 	jalx	1cd7dbc <BANK_SPACE+0x1c97dbc>
 65c:	00657461 	0x657461
 660:	7473616c 	jalx	1cd85b0 <BANK_SPACE+0x1c985b0>
 664:	7379735f 	udi15	k1,t9,t6,0xd
 668:	6174735f 	0x6174735f
 66c:	00737574 	teq	v1,s3,0x1d5
 670:	6465656e 	0x6465656e
 674:	6470755f 	0x6470755f
 678:	5f657461 	0x5f657461
 67c:	79616c70 	0x79616c70
 680:	7473696c 	jalx	1cda5b0 <BANK_SPACE+0x1c9a5b0>
 684:	735f6700 	0x735f6700
 688:	5f6e6163 	0x5f6e6163
 68c:	65726874 	0x65726874
 690:	745f6461 	jalx	17d9184 <BANK_SPACE+0x1799184>
 694:	5f6b7361 	0x5f6b7361
 698:	72646461 	0x72646461
 69c:	765f6700 	jalx	97d9c00 <BANK_SPACE+0x9799c00>
 6a0:	635f7366 	0x635f7366
 6a4:	676e6168 	0x676e6168
 6a8:	63006465 	0x63006465
 6ac:	665f7275 	0x665f7275
 6b0:	5f636e75 	0x5f636e75
 6b4:	65646e69 	0x65646e69
 6b8:	69620078 	0x69620078
 6bc:	756e5f6e 	jalx	5b97db8 <BANK_SPACE+0x5b57db8>
 6c0:	7265626d 	0x7265626d
 6c4:	6e697200 	0x6e697200
 6c8:	6c615f67 	0x6c615f67
 6cc:	006d7261 	0x6d7261
 6d0:	74746162 	jalx	1d18588 <BANK_SPACE+0x1cd8588>
 6d4:	5f797265 	0x5f797265
 6d8:	6f706572 	0x6f706572
 6dc:	655f7472 	0x655f7472
 6e0:	6c62616e 	0x6c62616e
 6e4:	61630065 	0x61630065
 6e8:	735f6472 	0x735f6472
 6ec:	65746174 	0x65746174
 6f0:	72756300 	0x72756300
 6f4:	7369645f 	udi15	k1,t1,t4,0x11
 6f8:	645f006b 	0x645f006b
 6fc:	6e5f7269 	0x6e5f7269
 700:	00747865 	0x747865
 704:	655f736f 	0x655f736f
 708:	746e6576 	jalx	1b995d8 <BANK_SPACE+0x1b595d8>
 70c:	7079745f 	udi15	v1,t9,t6,0x11
 710:	5f670065 	0x5f670065
 714:	6e616373 	0x6e616373
 718:	7369645f 	udi15	k1,t1,t4,0x11
 71c:	6873006b 	0x6873006b
 720:	2074726f 	addi	s4,v1,29295
 724:	00746e69 	0x746e69
 728:	5f727563 	0x5f727563
 72c:	65726964 	0x65726964
 730:	7972746e 	0x7972746e
 734:	76726400 	jalx	9c99000 <BANK_SPACE+0x9c59000>
 738:	7079745f 	udi15	v1,t9,t6,0x11
 73c:	6f6c0065 	0x6f6c0065
 740:	655f706f 	0x655f706f
 744:	00746978 	0x746978
 748:	656d616e 	0x656d616e
 74c:	6e656c5f 	0x6e656c5f
 750:	5f746200 	0x5f746200
 754:	65776f70 	0x65776f70
 758:	6e6f5f72 	0x6e6f5f72
 75c:	75747300 	jalx	5d1cc00 <BANK_SPACE+0x5cdcc00>
 760:	63705f62 	0x63705f62
 764:	6f6f745f 	0x6f6f745f
 768:	745f736c 	jalx	17dcdb0 <BANK_SPACE+0x179cdb0>
 76c:	00657079 	0x657079
 770:	5f707061 	0x5f707061
 774:	6f666e69 	0x6f666e69
 778:	6174735f 	0x6174735f
 77c:	745f6574 	jalx	17d95d0 <BANK_SPACE+0x17995d0>
 780:	756f6100 	jalx	5bd8400 <BANK_SPACE+0x5b98400>
 784:	6f6d5f74 	0x6f6d5f74
 788:	62006564 	0x62006564
 78c:	6e696765 	0x6e696765
 790:	646e695f 	0x646e695f
 794:	6d007865 	0x6d007865
 798:	63697375 	0x63697375
 79c:	7465675f 	jalx	1959d7c <BANK_SPACE+0x1919d7c>
 7a0:	78656e5f 	0x78656e5f
 7a4:	6c696674 	0x6c696674
 7a8:	61660065 	0x61660065
 7ac:	6c635f72 	0x6c635f72
 7b0:	65747375 	0x65747375
 7b4:	65680072 	0x65680072
 7b8:	735f6461 	0x735f6461
 7bc:	00657a69 	0x657a69
 7c0:	735f7068 	0x735f7068
 7c4:	65746174 	0x65746174
 7c8:	5f727700 	0x5f727700
 7cc:	00746e63 	0x746e63
 7d0:	41524150 	0x41524150
 7d4:	554e5f4d 	bnel	t2,t6,1850c <SRAM_FS_BUF_ADDR+0x20c>
 7d8:	63004c4c 	0x63004c4c
 7dc:	6c5f7275 	0x6c5f7275
 7e0:	72657961 	0x72657961
 7e4:	62616300 	0x62616300
 7e8:	735f656c 	0x735f656c
 7ec:	65746174 	0x65746174
 7f0:	5f727700 	0x5f727700
 7f4:	00726964 	0x726964
 7f8:	6973756d 	0x6973756d
 7fc:	63735f63 	0x63735f63
 800:	665f6e61 	0x665f6e61
 804:	5f656c69 	0x5f656c69
 808:	65726874 	0x65726874
 80c:	632e6461 	0x632e6461
 810:	725f7300 	0x725f7300
 814:	665f6365 	0x665f6365
 818:	65646c6f 	0x65646c6f
 81c:	68735f72 	0x68735f72
 820:	0074726f 	0x74726f
 824:	41524150 	0x41524150
 828:	52465f4d 	beql	s2,a2,18560 <SRAM_FS_BUF_ADDR+0x260>
 82c:	4d5f4d4f 	0x4d5f4d4f
 830:	545f4349 	bnel	v0,ra,11558 <SRAM_BT_BACK_RCODE_ADDR+0x558>
 834:	7300554f 	0x7300554f
 838:	7472616d 	jalx	1c985b4 <BANK_SPACE+0x1c585b4>
 83c:	6675625f 	0x6675625f
 840:	6172745f 	0x6172745f
 844:	665f736e 	0x665f736e
 848:	0067616c 	0x67616c
 84c:	63696f76 	0x63696f76
 850:	65725f65 	0x65725f65
 854:	696e6763 	0x696e6763
 858:	735f657a 	0x735f657a
 85c:	5f706f74 	0x5f706f74
 860:	65646f6d 	0x65646f6d
 864:	5f736f00 	0x5f736f00
 868:	6e657665 	0x6e657665
 86c:	74705f74 	jalx	1c17dd0 <BANK_SPACE+0x1bd7dd0>
 870:	6d760072 	0x6d760072
 874:	66666f5f 	0x66666f5f
 878:	00746573 	tltu	v1,s4,0x195
 87c:	62757473 	0x62757473
 880:	6f6f745f 	0x6f6f745f
 884:	745f736c 	jalx	17dcdb0 <BANK_SPACE+0x179cdb0>
 888:	00657079 	0x657079
 88c:	61746572 	0x61746572
 890:	61006e69 	0x61006e69
 894:	6c5f6464 	0x6c5f6464
 898:	70006e65 	0x70006e65
 89c:	65636f72 	0x65636f72
 8a0:	735f7373 	0x735f7373
 8a4:	63757274 	0x63757274
 8a8:	6e695f74 	0x6e695f74
 8ac:	00786564 	0x786564
 8b0:	6973756d 	0x6973756d
 8b4:	63735f63 	0x63735f63
 8b8:	745f6e61 	jalx	17db984 <BANK_SPACE+0x179b984>
 8bc:	5f656d69 	0x5f656d69
 8c0:	00796c64 	0x796c64
 8c4:	656e6e69 	0x656e6e69
 8c8:	61705f72 	0x61705f72
 8cc:	696e695f 	0x696e695f
 8d0:	00646574 	teq	v1,a0,0x195
 8d4:	6574756d 	0x6574756d
 8d8:	68630078 	0x68630078
 8dc:	65677261 	0x65677261
 8e0:	6174735f 	0x6174735f
 8e4:	50006574 	beqzl	zero,19eb8 <SRAM_AP_FRONT_DATA_ADDR+0x538>
 8e8:	4d415241 	0x4d415241
 8ec:	53554d5f 	beql	k0,s5,13e6c <SRAM_BT_EXT3_BANK_ADDR+0x56c>
 8f0:	535f4349 	beql	k0,ra,11618 <SRAM_BT_BACK_RCODE_ADDR+0x618>
 8f4:	52414344 	beql	s2,at,11608 <SRAM_BT_BACK_RCODE_ADDR+0x608>
 8f8:	736f0044 	0x736f0044
 8fc:	6576655f 	0x6576655f
 900:	745f746e 	jalx	17dd1b8 <BANK_SPACE+0x179d1b8>
 904:	50006c62 	beqzl	zero,1ba90 <SRAM_OS_TASK_STACK_ADDR+0x490>
 908:	4d415241 	0x4d415241
 90c:	4345525f 	c0	0x145525f
 910:	5f44524f 	0x5f44524f
 914:	414c5055 	0x414c5055
 918:	736f0059 	udi9	k1,t7,zero,0x1
 91c:	6576655f 	0x6576655f
 920:	675f746e 	0x675f746e
 924:	67007072 	0x67007072
 928:	7269645f 	udi15	s3,t1,t4,0x11
 92c:	79616c5f 	0x79616c5f
 930:	695f7265 	0x695f7265
 934:	006f666e 	0x6f666e
 938:	6d5f6170 	0x6d5f6170
 93c:	0065646f 	0x65646f
 940:	63746170 	0x63746170
 944:	6f645f68 	0x6f645f68
 948:	6f6c6e77 	0x6f6c6e77
 94c:	665f6461 	0x665f6461
 950:	0067616c 	0x67616c
 954:	5f707061 	0x5f707061
 958:	74617473 	jalx	185d1cc <BANK_SPACE+0x181d1cc>
 95c:	756d0065 	jalx	5b40194 <BANK_SPACE+0x5b00194>
 960:	5f636973 	0x5f636973
 964:	6e616373 	0x6e616373
 968:	696e695f 	0x696e695f
 96c:	74730074 	jalx	1cc01d0 <BANK_SPACE+0x1c801d0>
 970:	6d5f6275 	0x6d5f6275
 974:	5f65646f 	0x5f65646f
 978:	67616c66 	0x67616c66
 97c:	735f6700 	0x735f6700
 980:	5f6e6163 	0x5f6e6163
 984:	6f727265 	0x6f727265
 988:	70610072 	0x70610072
 98c:	61705f70 	0x61705f70
 990:	5f6d6172 	0x5f6d6172
 994:	616c0065 	0x616c0065
 998:	645f7473 	0x645f7473
 99c:	006b7369 	0x6b7369
 9a0:	4953554d 	0x4953554d
 9a4:	43535f43 	c0	0x1535f43
 9a8:	435f4e41 	c0	0x15f4e41
 9ac:	45534f4c 	0x45534f4c
 9b0:	73696c00 	0x73696c00
 9b4:	65685f74 	0x65685f74
 9b8:	695f6461 	0x695f6461
 9bc:	5f6f666e 	0x5f6f666e
 9c0:	696c0074 	0x696c0074
 9c4:	6e69656e 	0x6e69656e
 9c8:	6174735f 	0x6174735f
 9cc:	50006574 	beqzl	zero,19fa0 <SRAM_AP_FRONT_DATA_ADDR+0x620>
 9d0:	4d415241 	0x4d415241
 9d4:	53554d5f 	beql	k0,s5,13f54 <SRAM_BT_EXT3_BANK_ADDR+0x654>
 9d8:	555f4349 	bnel	t2,ra,11700 <SRAM_BT_BACK_RCODE_ADDR+0x700>
 9dc:	54534f48 	bnel	v0,s3,14700 <SRAM_BT_EXT5_BANK_ADDR+0x100>
 9e0:	6c696600 	0x6c696600
 9e4:	79735f65 	0x79735f65
 9e8:	64695f73 	0x64695f73
 9ec:	665f6700 	0x665f6700
 9f0:	5f656c69 	0x5f656c69
 9f4:	7366666f 	0x7366666f
 9f8:	67007465 	0x67007465
 9fc:	6c69665f 	0x6c69665f
 a00:	656e5f65 	0x656e5f65
 a04:	74736577 	jalx	1cd95dc <BANK_SPACE+0x1c995dc>
 a08:	6d69745f 	0x6d69745f
 a0c:	41500065 	0x41500065
 a10:	5f4d4152 	0x5f4d4152
 a14:	4d4f5246 	0x4d4f5246
 a18:	4e494c5f 	c3	0x494c5f
 a1c:	5f4e4945 	0x5f4e4945
 a20:	00434f54 	0x434f54
 a24:	41524150 	0x41524150
 a28:	52465f4d 	beql	s2,a2,18760 <SRAM_FS_BUF_ADDR+0x460>
 a2c:	4c5f4d4f 	0x4c5f4d4f
 a30:	49454e49 	0x49454e49
 a34:	4f545f4e 	c3	0x1545f4e
 a38:	69640055 	0x69640055
 a3c:	665f6b73 	0x665f6b73
 a40:	0067616c 	0x67616c
 a44:	5f706163 	0x5f706163
 a48:	006d7562 	0x6d7562
 a4c:	5f707061 	0x5f707061
 a50:	6f666e69 	0x6f666e69
 a54:	6174735f 	0x6174735f
 a58:	615f6574 	0x615f6574
 a5c:	745f6c6c 	jalx	17db1b0 <BANK_SPACE+0x179b1b0>
 a60:	5f727700 	0x5f727700
 a64:	65747962 	0x65747962
 a68:	75610073 	jalx	58401cc <BANK_SPACE+0x58001cc>
 a6c:	65746f74 	0x65746f74
 a70:	6d5f7473 	0x6d5f7473
 a74:	0065646f 	0x65646f
 a78:	6973756d 	0x6973756d
 a7c:	63735f63 	0x63735f63
 a80:	665f6e61 	0x665f6e61
 a84:	00656c69 	0x656c69
 a88:	746e6975 	jalx	1b9a5d4 <BANK_SPACE+0x1b5a5d4>
 a8c:	67003631 	0x67003631
 a90:	6373705f 	0x6373705f
 a94:	685f6e61 	0x685f6e61
 a98:	6c646e61 	0x6c646e61
 a9c:	6e690065 	0x6e690065
 aa0:	725f7469 	0x725f7469
 aa4:	6c757365 	0x6c757365
 aa8:	64700074 	0x64700074
 aac:	6c5f7269 	0x6c5f7269
 ab0:	72657961 	0x72657961
 ab4:	6400745f 	0x6400745f
 ab8:	5f617461 	0x5f617461
 abc:	00667562 	0x667562
 ac0:	61746164 	0x61746164
 ac4:	6e656c5f 	0x6e656c5f
 ac8:	725f6700 	0x725f6700
 acc:	665f6365 	0x665f6365
 ad0:	65646c6f 	0x65646c6f
 ad4:	68735f72 	0x68735f72
 ad8:	0074726f 	0x74726f
 adc:	61746164 	0x61746164
 ae0:	0064695f 	0x64695f
 ae4:	2e2e2f2e 	sltiu	t6,s1,12078
 ae8:	2f2e2e2f 	sltiu	t6,t9,11823
 aec:	632f7061 	0x632f7061
 af0:	6f6d6d6f 	0x6f6d6d6f
 af4:	6f632f6e 	0x6f632f6e
 af8:	6e6f6d6d 	0x6e6f6d6d
 afc:	6e75665f 	0x6e75665f
 b00:	6f632f63 	0x6f632f63
 b04:	6e6f6d6d 	0x6e6f6d6d
 b08:	6168735f 	0x6168735f
 b0c:	645f6572 	0x645f6572
 b10:	2e617461 	sltiu	at,s3,29793
 b14:	5f670063 	0x5f670063
 b18:	5f636572 	0x5f636572
 b1c:	646c6f66 	0x646c6f66
 b20:	6c5f7265 	0x6c5f7265
 b24:	00676e6f 	0x676e6f
 b28:	5f6d6f63 	0x5f6d6f63
 b2c:	64616f6c 	0x64616f6c
 b30:	6168735f 	0x6168735f
 b34:	645f6572 	0x645f6572
 b38:	00617461 	0x617461
 b3c:	63735f70 	0x63735f70
 b40:	705f6e61 	0x705f6e61
 b44:	6d617261 	0x6d617261
 b48:	5f534f00 	0x5f534f00
 b4c:	004b5453 	0x4b5453
 b50:	6973756d 	0x6973756d
 b54:	63735f63 	0x63735f63
 b58:	695f6e61 	0x695f6e61
 b5c:	7265746e 	0x7265746e
 b60:	65636166 	0x65636166
 b64:	7000632e 	0x7000632e
 b68:	00736f74 	teq	v1,s3,0x1bd
 b6c:	6e616373 	0x6e616373
 b70:	7268745f 	udi15	s3,t0,t6,0x11
 b74:	5f646165 	0x5f646165
 b78:	61726170 	0x61726170
 b7c:	5f70006d 	0x5f70006d
 b80:	6973756d 	0x6973756d
 b84:	63735f63 	0x63735f63
 b88:	70006e61 	0x70006e61
 b8c:	65726874 	0x65726874
 b90:	705f6461 	0x705f6461
 b94:	6d617261 	0x6d617261
 b98:	7300745f 	udi15	t8,zero,t6,0x11
 b9c:	735f6b74 	0x735f6b74
 ba0:	00657a69 	0x657a69
 ba4:	72617473 	0x72617473
 ba8:	74725f74 	jalx	1c97dd0 <BANK_SPACE+0x1c57dd0>
 bac:	7470006e 	jalx	1c001b8 <BANK_SPACE+0x1bc01b8>
 bb0:	61657268 	0x61657268
 bb4:	78655f64 	0x78655f64
 bb8:	61705f74 	0x61705f74
 bbc:	5f6d6172 	0x5f6d6172
 bc0:	756d0074 	jalx	5b401d0 <BANK_SPACE+0x5b001d0>
 bc4:	5f636973 	0x5f636973
 bc8:	6e616373 	0x6e616373
 bcc:	65706f5f 	0x65706f5f
 bd0:	756d006e 	jalx	5b401b8 <BANK_SPACE+0x5b001b8>
 bd4:	5f636973 	0x5f636973
 bd8:	6e616373 	0x6e616373
 bdc:	6f6c635f 	0x6f6c635f
 be0:	70006573 	0x70006573
 be4:	65726874 	0x65726874
 be8:	705f6461 	0x705f6461
 bec:	6d617261 	0x6d617261
 bf0:	61657900 	0x61657900
 bf4:	6f6d0072 	0x6f6d0072
 bf8:	0068746e 	0x68746e
 bfc:	72756f68 	0x72756f68
 c00:	5f746600 	0x5f746600
 c04:	00706d74 	teq	v1,s0,0x1b5
 c08:	6973756d 	0x6973756d
 c0c:	63735f63 	0x63735f63
 c10:	665f6e61 	0x665f6e61
 c14:	32656c69 	andi	a1,s3,0x6c69
 c18:	6d00632e 	0x6d00632e
 c1c:	74756e69 	jalx	1d5b9a4 <BANK_SPACE+0x1d1b9a4>
 c20:	65730065 	0x65730065
 c24:	646e6f63 	0x646e6f63
 c28:	6c696600 	0x6c696600
 c2c:	69745f65 	0x69745f65
 c30:	745f656d 	jalx	17d95b4 <BANK_SPACE+0x17995b4>
 c34:	74656700 	jalx	1959c00 <BANK_SPACE+0x1919c00>
 c38:	77656e5f 	jalx	d95b97c <BANK_SPACE+0xd91b97c>
 c3c:	5f747365 	0x5f747365
 c40:	656c6966 	0x656c6966
 c44:	6d69745f 	0x6d69745f
 c48:	74720065 	jalx	1c80194 <BANK_SPACE+0x1c40194>
 c4c:	6f745f63 	0x6f745f63
 c50:	6e69755f 	0x6e69755f
 c54:	00323374 	teq	at,s2,0xcd
 c58:	695f7366 	0x695f7366
 c5c:	Address 0xc5c is out of bounds.

Disassembly of section .comment:

00000000 <.comment>:
   0:	43434700 	c0	0x1434700
   4:	4728203a 	c1	0x128203a
   8:	2029554e 	addi	t1,at,21838
   c:	2e342e33 	sltiu	s4,s1,11827
  10:	696d2034 	0x696d2034
  14:	64737370 	0x64737370
  18:	2e362d65 	sltiu	s6,s1,11621
  1c:	302e3630 	andi	t6,at,0x3630
  20:	30322d31 	andi	s2,at,0x2d31
  24:	34303730 	ori	s0,at,0x3730
  28:	00003032 	tlt	zero,zero,0xc0
  2c:	3a434347 	xori	v1,s2,0x4347
  30:	4e472820 	c3	0x472820
  34:	33202955 	andi	zero,t9,0x2955
  38:	342e342e 	ori	t6,at,0x342e
  3c:	70696d20 	0x70696d20
  40:	65647373 	0x65647373
  44:	302e362d 	andi	t6,at,0x362d
  48:	31302e36 	andi	s0,t1,0x2e36
  4c:	3030322d 	andi	s0,at,0x322d
  50:	32343037 	andi	s4,s1,0x3037
  54:	47000030 	c1	0x1000030
  58:	203a4343 	addi	k0,at,17219
  5c:	554e4728 	bnel	t2,t6,11d00 <SRAM_BT_BACK_RCODE_ADDR+0xd00>
  60:	2e332029 	sltiu	s3,s1,8233
  64:	20342e34 	addi	s4,at,11828
  68:	7370696d 	0x7370696d
  6c:	2d656473 	sltiu	a1,t3,25715
  70:	36302e36 	ori	s0,s1,0x2e36
  74:	2d31302e 	sltiu	s1,t1,12334
  78:	37303032 	ori	s0,t9,0x3032
  7c:	30323430 	andi	s2,at,0x3430
  80:	43470000 	c0	0x1470000
  84:	28203a43 	slti	zero,at,14915
  88:	29554e47 	slti	s5,t2,20039
  8c:	342e3320 	ori	t6,at,0x3320
  90:	6d20342e 	0x6d20342e
  94:	73737069 	0x73737069
  98:	362d6564 	ori	t5,s1,0x6564
  9c:	2e36302e 	sltiu	s6,s1,12334
  a0:	322d3130 	andi	t5,s1,0x3130
  a4:	30373030 	andi	s7,at,0x3030
  a8:	00303234 	teq	at,s0,0xc8
