
uengine.exe:     file format elf32-tradlittlemips

Disassembly of section .text:

bfc26000 <audio_device_op_entry>:
bfc26000:	6b0a      	li	v1,10
bfc26002:	e805      	break	0

bfc26004 <key_op_entry>:
bfc26004:	6b08      	li	v1,8
bfc26006:	e805      	break	0

bfc26008 <libc_op_entry>:
bfc26008:	6b10      	li	v1,16
bfc2600a:	e805      	break	0

bfc2600c <mmm_pp_cmd>:
bfc2600c:	6b42      	li	v1,66
bfc2600e:	e805      	break	0

bfc26010 <sys_op_entry>:
bfc26010:	6b0f      	li	v1,15
bfc26012:	e805      	break	0

bfc26014 <ud_op_entry>:
bfc26014:	6b05      	li	v1,5
bfc26016:	e805      	break	0

bfc26018 <check_energy_info>:
bfc26018:	64e3      	save	24,ra,s0
        g_energy_max = (uint16) * energy_max;
    }
}
void check_energy_info(void)
{
bfc2601a:	b316      	lw	v1,bfc26070 <check_energy_info+0x58>
    short *p_energy_mean;
    short *p_energy_max;

    if(g_app_info_state_all.energy_available_flag == TRUE) {
bfc2601c:	a34a      	lbu	v0,10(v1)
bfc2601e:	7201      	cmpi	v0,1
bfc26020:	610d      	btnez	bfc2603c <check_energy_info+0x24>
bfc26022:	9b83      	lw	a0,12(v1)
        p_energy_mean = g_app_info_state_all.p_energy_value;
bfc26024:	8cc0      	lh	a2,0(a0)
        p_energy_max = g_app_info_state_all.p_energy_value + 1;
#ifdef __ESD_MODE_
        g_temp_conut ++;
        if((g_temp_conut & 0xff) == 0x80) {
            esd_check_dsp_excption(p_energy_mean, p_energy_max, g_temp_conut);
        }
#endif
        if((*p_energy_mean == 0) && (*p_energy_max < 5)) {
bfc26026:	4462      	addiu	v1,a0,2
bfc26028:	2e0b      	bnez	a2,bfc26040 <check_energy_info+0x28>
bfc2602a:	8ba0      	lh	a1,0(v1)
bfc2602c:	5505      	slti	a1,5
bfc2602e:	6008      	bteqz	bfc26040 <check_energy_info+0x28>
bfc26030:	b711      	lw	a3,bfc26074 <check_energy_info+0x5c>
            energy_count++;
bfc26032:	9f40      	lw	v0,0(a3)
bfc26034:	4261      	addiu	v1,v0,1
bfc26036:	7308      	cmpi	v1,8
            if(energy_count == MAX_ENERGY_NUM) {
bfc26038:	df60      	sw	v1,0(a3)
bfc2603a:	6013      	bteqz	bfc26062 <check_energy_info+0x4a>
bfc2603c:	6463      	restore	24,ra,s0
                //设置能量低标志，告知驱动当前处理暂停状态
                ud_set_cmd(SET_PLAY_FLAG, 3);
                //g_data_flag = 1;
            }
        } else {
            if(energy_count >= MAX_ENERGY_NUM) {
                //清除能量低标志，恢复正常状态处理
                ud_set_cmd(SET_PLAY_FLAG, 4);
                //g_data_flag = 0;
            }
            energy_count = 0;
        }
        //libc_print("\n energy_mean:", *p_energy_mean,2);
        //libc_print("\n energy_max:", *p_energy_max,2);
    }
}
bfc2603e:	e8a0      	jrc	ra
bfc26040:	b00d      	lw	s0,bfc26070 <check_energy_info+0x58>
bfc26042:	98c0      	lw	a2,0(s0)
bfc26044:	5e08      	sltiu	a2,8
bfc26046:	6004      	bteqz	bfc26050 <check_energy_info+0x38>
bfc26048:	6c00      	li	a0,0
bfc2604a:	d880      	sw	a0,0(s0)
bfc2604c:	6463      	restore	24,ra,s0
bfc2604e:	e8a0      	jrc	ra
bfc26050:	6c00      	li	a0,0
bfc26052:	b20a      	lw	v0,bfc26078 <check_energy_info+0x60>
bfc26054:	67c4      	move	a2,a0
bfc26056:	6d04      	li	a1,4
bfc26058:	ea40      	jalr	v0
bfc2605a:	6f06      	li	a3,6
bfc2605c:	6c00      	li	a0,0
bfc2605e:	d880      	sw	a0,0(s0)
bfc26060:	17f5      	b	bfc2604c <check_energy_info+0x34>
bfc26062:	b206      	lw	v0,bfc26078 <check_energy_info+0x60>
bfc26064:	6786      	move	a0,a2
bfc26066:	6d03      	li	a1,3
bfc26068:	ea40      	jalr	v0
bfc2606a:	6f06      	li	a3,6
bfc2606c:	6463      	restore	24,ra,s0
bfc2606e:	e8a0      	jrc	ra
bfc26070:	a094      	lbu	a0,20(s0)
bfc26072:	9fc1      	lw	a2,4(a3)
bfc26074:	95a0      	lw	a1,640(sp)
bfc26076:	9fc1      	lw	a2,4(a3)
bfc26078:	6015      	bteqz	bfc260a4 <uengine_control_block+0x28>
bfc2607a:	bfc2      	lwu	a2,8(a3)

bfc2607c <uengine_control_block>:
bfc2607c:	64f8      	save	64,ra,s0-s1

/******************************************************************************/
/*!
 * \par  Description:
 * \void uengine_control_block(void)
 * \引擎功能处理函数
 * \param[in]    void  para1
 * \param[out]   none
 * \return       void the result
 * \retval       none
 * \ingroup      uengine_control.c
 * \note
 */
/*******************************************************************************/
app_result_e uengine_control_block(void)
{
bfc2607e:	6a00      	li	v0,0
    //mmm_pp_status_t play_status;

    private_msg_t cur_msg_val;

    uint32 hid_count = 0;
bfc26080:	d209      	sw	v0,36(sp)
bfc26082:	d208      	sw	v0,32(sp)

    app_result_e uengine_retval = RESULT_NULL;
bfc26084:	d20a      	sw	v0,40(sp)

    uint8 i = 0;
bfc26086:	b0d5      	lw	s0,bfc263d8 <uengine_control_block+0x35c>

    int8 vol_dif = 0;

    //250ms处理hid 事务
    //g_hid_timer = set_app_timer(APP_TIMER_ATTRB_CONTROL, 500, uegine_deal_hid);

    uint32 flags;
#ifdef __ESD_MODE_
    uint8 check_auto_play_time = 0;
    uint32 esd_count_time;
#endif

    while(1) {
        //libc_print("irqddd",act_readb(OSHRTPCKIR),2);
        //查询当前播放状态
        ud_get_status(&g_status_data);
bfc26088:	6d00      	li	a1,0
bfc2608a:	b3d5      	lw	v1,bfc263dc <uengine_control_block+0x360>
bfc2608c:	6790      	move	a0,s0
bfc2608e:	67c5      	move	a2,a1
bfc26090:	eb40      	jalr	v1
bfc26092:	67e5      	move	a3,a1
bfc26094:	9886      	lw	a0,24(s0)
        if(g_status_data.start_play == 0) {
bfc26096:	f0a0 2c0d 	bnez	a0,bfc261f4 <uengine_control_block+0x178>
bfc2609a:	b2d2      	lw	v0,bfc263e0 <uengine_control_block+0x364>
            g_stop_count++;
bfc2609c:	9ac0      	lw	a2,0(v0)
bfc2609e:	46a1      	addiu	a1,a2,1
bfc260a0:	5d05      	sltiu	a1,5

            if(g_stop_count >= 5) {
bfc260a2:	daa0      	sw	a1,0(v0)
bfc260a4:	6103      	btnez	bfc260ac <uengine_control_block+0x30>
bfc260a6:	b1d0      	lw	s1,bfc263e4 <uengine_control_block+0x368>
                g_cur_play_status_p->play_status = 0;
bfc260a8:	99e0      	lw	a3,0(s1)
bfc260aa:	df80      	sw	a0,0(a3)
bfc260ac:	b7cb      	lw	a3,bfc263d8 <uengine_control_block+0x35c>
            }
#ifdef __ESD_MODE_
            if(g_stop_count == 500) {
                //libc_print("no_empty_fla",g_status_data.no_empty_fla,2);
                g_stop_count = 0;
                if(g_status_data.no_empty_fla == 1) {
                    //libc_print("error!reset sys",0,0);
                    ENABLE_WATCH_DOG(4);
                    while(1) {
                        ;//nothing
                    }
                }
            }
#endif
        } else {
            g_stop_count = 0;

            g_cur_play_status_p->play_status = 1;

        }

        if(g_status_data.data_in_flag != 0) {
bfc260ae:	a7c4      	lbu	a2,4(a3)
bfc260b0:	2604      	beqz	a2,bfc260ba <uengine_control_block+0x3e>
bfc260b2:	b0ce      	lw	s0,bfc263e8 <uengine_control_block+0x36c>
            if(g_mute_cnt_flag == 0) {
bfc260b4:	a0c0      	lbu	a2,0(s0)
bfc260b6:	f0e0 2612 	beqz	a2,bfc2629e <uengine_control_block+0x222>
bfc260ba:	6c00      	li	a0,0
                mute_cnt = sys_get_ab_timer();

                g_mute_cnt_flag = 1;
            }
        }

        if(((sys_get_ab_timer() - mute_cnt) >= MUTE_DELAY) && (g_mute_flag == 1) && (g_mute_cnt_flag == 1)) {
bfc260bc:	b1cd      	lw	s1,bfc263f0 <uengine_control_block+0x374>
bfc260be:	67a4      	move	a1,a0
bfc260c0:	67c4      	move	a2,a0
bfc260c2:	e940      	jalr	s1
bfc260c4:	6f1c      	li	a3,28
bfc260c6:	b6ca      	lw	a2,bfc263ec <uengine_control_block+0x370>
bfc260c8:	9ea0      	lw	a1,0(a2)
bfc260ca:	e2a3      	subu	s0,v0,a1
bfc260cc:	f1c1 5804 	sltiu	s0,2500
bfc260d0:	6109      	btnez	bfc260e4 <uengine_control_block+0x68>
bfc260d2:	b0c9      	lw	s0,bfc263f4 <uengine_control_block+0x378>
bfc260d4:	a040      	lbu	v0,0(s0)
bfc260d6:	7201      	cmpi	v0,1
bfc260d8:	6105      	btnez	bfc260e4 <uengine_control_block+0x68>
bfc260da:	b4c4      	lw	a0,bfc263e8 <uengine_control_block+0x36c>
bfc260dc:	a4e0      	lbu	a3,0(a0)
bfc260de:	7701      	cmpi	a3,1
bfc260e0:	f100 601f 	bteqz	bfc26322 <uengine_control_block+0x2a6>
bfc260e4:	b0c0      	lw	s0,bfc263e4 <uengine_control_block+0x368>
            ud_set_cmd(SET_MUTE_FLAG, 0);

            g_mute_flag = 0;
        }

        g_cur_play_status_p->line_status = g_status_data.line_sta;
bfc260e6:	6d00      	li	a1,0

        //更新共享内存
        g_cur_play_status_p = sys_share_query_update(APP_ID_UENGINE);
bfc260e8:	9880      	lw	a0,0(s0)
bfc260ea:	b0bc      	lw	s0,bfc263d8 <uengine_control_block+0x35c>
bfc260ec:	b3c1      	lw	v1,bfc263f0 <uengine_control_block+0x374>
bfc260ee:	a823      	lhu	s1,6(s0)
bfc260f0:	67c5      	move	a2,a1
bfc260f2:	cc24      	sh	s1,8(a0)
bfc260f4:	6f46      	li	a3,70
bfc260f6:	eb40      	jalr	v1
bfc260f8:	6c13      	li	a0,19
bfc260fa:	b7bb      	lw	a3,bfc263e4 <uengine_control_block+0x368>
bfc260fc:	6e02      	li	a2,2

        if(((g_volume_syn_cfg & 0x02) != 0) && (g_status_data.volume_chg != 0)) {
bfc260fe:	df40      	sw	v0,0(a3)
bfc26100:	b2be      	lw	v0,bfc263f8 <uengine_control_block+0x37c>
bfc26102:	9aa0      	lw	a1,0(v0)
bfc26104:	edcc      	and	a1,a2
bfc26106:	2503      	beqz	a1,bfc2610e <uengine_control_block+0x92>
bfc26108:	98a8      	lw	a1,32(s0)
bfc2610a:	f0c0 2d12 	bnez	a1,bfc262b2 <uengine_control_block+0x236>
bfc2610e:	b0b3      	lw	s0,bfc263d8 <uengine_control_block+0x35c>

            ud_set_cmd(SET_VOLUME_FLAG, 0);

            //change volume
            uengine_sync_volume(g_status_data.volume_value, 0);

            //sys_os_time_dly(1);
        }

        if(g_status_data.switch_flag != 0) {
bfc26110:	a8c4      	lhu	a2,8(s0)
bfc26112:	2e78      	bnez	a2,bfc26204 <uengine_control_block+0x188>
bfc26114:	9708      	lw	a3,32(sp)
            ud_set_cmd(CLR_SWITCH_FLAG, 0);

            uengine_switch_deal();
        }

        //hid change

        hid_count++;
bfc26116:	986a      	lw	v1,40(s0)

        if((g_status_data.hid_idle_time != 0) && (g_status_data.hid_idle_time < (hid_count * 10))) {
bfc26118:	4781      	addiu	a0,a3,1
bfc2611a:	d408      	sw	a0,32(sp)
bfc2611c:	2306      	beqz	v1,bfc2612a <uengine_control_block+0xae>
bfc2611e:	3288      	sll	v0,a0,2
bfc26120:	e295      	addu	a1,v0,a0
bfc26122:	34a4      	sll	a0,a1,1
bfc26124:	eb83      	sltu	v1,a0
bfc26126:	f0e0 6114 	btnez	bfc26312 <uengine_control_block+0x296>
bfc2612a:	b1ac      	lw	s1,bfc263d8 <uengine_control_block+0x35c>
            hid_count = 0;

            ud_set_cmd(SET_HID_CHANGE, 0);
        }

        //play flag need set sample rate
        if(g_status_data.set_sample == 1) {
bfc2612c:	a160      	lbu	v1,0(s1)
bfc2612e:	7301      	cmpi	v1,1
bfc26130:	611b      	btnez	bfc26168 <uengine_control_block+0xec>
bfc26132:	b7b5      	lw	a3,bfc26404 <uengine_control_block+0x388>
            if(g_mmm_pp_handle != NULL) {
bfc26134:	9fc0      	lw	a2,0(a3)
bfc26136:	f0c0 2e07 	bnez	a2,bfc262c8 <uengine_control_block+0x24c>
bfc2613a:	b7b6      	lw	a3,bfc26410 <uengine_control_block+0x394>
                flags = sys_local_irq_save();

                ud_get_status(&g_status_data);

                //clr flag
                ud_set_cmd(SET_SAMPLE_RATE, 0);

                sys_local_irq_restore(flags);
                //set adjust
                //ud_set_cmd(SET_ADJUST_TIMER, 0);

                //mmm_pp_cmd(g_mmm_pp_handle, MMM_PP_SET_PARAM, (unsigned int) &g_status_data.sample_rate);
                if(g_status_data.set_adc_sample == 1) {
                    mmm_pp_cmd(g_mmm_pp_handle, MMM_PP_SET_ADC_RATE, (unsigned int) &g_status_data.adc_sample_rate);
                }

                if(g_status_data.set_dac_sample == 1) {
                    mmm_pp_cmd(g_mmm_pp_handle, MMM_PP_SET_DAC_RATE, (unsigned int) &g_status_data.dac_sample_rate);
                }

                g_ain_out_setting.dac_sample = (int32) g_status_data.dac_sample_rate;

                g_ain_out_setting.adc_sample = (int32) g_status_data.adc_sample_rate;


                //ud_set_cmd(SET_ADJUST_TIMER, 1);
            } else if(1 == g_uspeaker_24bit) {
bfc2613c:	a740      	lbu	v0,0(a3)
bfc2613e:	7201      	cmpi	v0,1
bfc26140:	6113      	btnez	bfc26168 <uengine_control_block+0xec>
bfc26142:	b0b3      	lw	s0,bfc2640c <uengine_control_block+0x390>
                if((g_ain_out_setting.dac_sample != (int32) g_status_data.sample_rate) && (g_pa_type == 1)) {
bfc26144:	9983      	lw	a0,12(s1)
bfc26146:	9862      	lw	v1,8(s0)
bfc26148:	eb8e      	xor	v1,a0
bfc2614a:	2305      	beqz	v1,bfc26156 <uengine_control_block+0xda>
bfc2614c:	b2b2      	lw	v0,bfc26414 <uengine_control_block+0x398>
bfc2614e:	a2a0      	lbu	a1,0(v0)
bfc26150:	7501      	cmpi	a1,1
bfc26152:	f120 6006 	bteqz	bfc263a2 <uengine_control_block+0x326>
bfc26156:	99c3      	lw	a2,12(s1)
                    ccd_i2s_pa_set_clock(g_status_data.sample_rate);
                }

                g_ain_out_setting.dac_sample = (int32) g_status_data.sample_rate;
bfc26158:	b3a1      	lw	v1,bfc263dc <uengine_control_block+0x360>

                g_ain_out_setting.adc_sample = (int32) g_status_data.sample_rate;

                //ccd_i2s_pa_set_clock(0xff);

                ud_set_cmd(SET_USPEAKER_24BIT, USPEAKER24_SAMPLE_RATE);
bfc2615a:	d8c2      	sw	a2,8(s0)
bfc2615c:	d8c5      	sw	a2,20(s0)
bfc2615e:	6c0a      	li	a0,10
bfc26160:	6d02      	li	a1,2
bfc26162:	6e00      	li	a2,0
bfc26164:	eb40      	jalr	v1
bfc26166:	6f06      	li	a3,6
bfc26168:	b2ad      	lw	v0,bfc2641c <uengine_control_block+0x3a0>
            } else {
                ;//for QAC
            }
        }

        //获取并处理详细
        if(get_app_msg(&cur_msg_val) == TRUE) {
bfc2616a:	ea40      	jalr	v0
bfc2616c:	0404      	addiu	a0,sp,16
bfc2616e:	7201      	cmpi	v0,1
bfc26170:	6052      	bteqz	bfc26216 <uengine_control_block+0x19a>
bfc26172:	9409      	lw	a0,36(sp)
            uengine_retval = uengine_message_deal(&cur_msg_val);
        }

        if(uengine_retval == RESULT_APP_QUIT) {
bfc26174:	f100 7400 	cmpi	a0,256
bfc26178:	6056      	bteqz	bfc26226 <uengine_control_block+0x1aa>
bfc2617a:	1a1f 9806 	jal	bfc26018 <check_energy_info>
            break;
        }
        check_energy_info();
bfc2617e:	6500      	nop
bfc26180:	910a      	lw	s1,40(sp)
        if(i == 10) {
bfc26182:	710a      	cmpi	s1,10
bfc26184:	f080 6002 	bteqz	bfc2628c <uengine_control_block+0x210>
bfc26188:	b0a7      	lw	s0,bfc26424 <uengine_control_block+0x3a8>
            ud_hid_deal();
            i = 0;
        }
        if((g_vol_sync_timer != 0) && ((sys_get_ab_timer() - g_vol_sync_timer) >= 50)) {
bfc2618a:	98e0      	lw	a3,0(s0)
bfc2618c:	2f4f      	bnez	a3,bfc2622c <uengine_control_block+0x1b0>
bfc2618e:	b1ad      	lw	s1,bfc26440 <uengine_control_block+0x3c4>
            vol_dif = (int8)(g_cur_play_status_p->change_vol_val - g_current_vol);

            if(g_pre_dif == vol_dif) {
                g_vol_no_chg ++;
            }

            g_pre_dif = vol_dif;

            if((g_vol_chg_cnt >= 10) || (g_vol_no_chg >= 2)) { //防止死循环，兼容winxp
                g_vol_sync_timer = 0;
                g_vol_chg_cnt = 0;
                g_vol_no_chg = 0;
                uengine_sync_volume(g_current_vol, 1);
                sys_os_time_dly(1);
                continue;
            }

            if((g_force_equ == 0) && ((vol_dif == 1) || ((0 - vol_dif) == 1) || (vol_dif == 0))) {
                g_vol_sync_timer = 0;
                g_vol_chg_cnt = 0;
                g_vol_no_chg = 0;
            } else if(vol_dif != 0) {
                uengine_vol_sync((uint8)g_current_vol);
            } else { //vol_dif == 0
                g_vol_sync_timer = 0;
                g_vol_chg_cnt = 0;
                g_vol_no_chg = 0;
            }

            g_vol_chg_cnt ++;
        }

        if(g_auto_play_count >= AUTO_PLAY_DELAY) {
bfc26190:	9960      	lw	v1,0(s1)
bfc26192:	f1c0 5b02 	sltiu	v1,450
bfc26196:	6112      	btnez	bfc261bc <uengine_control_block+0x140>
bfc26198:	b490      	lw	a0,bfc263d8 <uengine_control_block+0x35c>
            if((g_status_data.start_play == 0) && (g_auto_play_flag == 1) && (g_data_flag == 0)) {
bfc2619a:	9ce6      	lw	a3,24(a0)
bfc2619c:	2f08      	bnez	a3,bfc261ae <uengine_control_block+0x132>
bfc2619e:	b5aa      	lw	a1,bfc26444 <uengine_control_block+0x3c8>
bfc261a0:	a500      	lbu	s0,0(a1)
bfc261a2:	7001      	cmpi	s0,1
bfc261a4:	6104      	btnez	bfc261ae <uengine_control_block+0x132>
bfc261a6:	b6a9      	lw	a2,bfc26448 <uengine_control_block+0x3cc>
bfc261a8:	a600      	lbu	s0,0(a2)
bfc261aa:	f0e0 2007 	beqz	s0,bfc2637c <uengine_control_block+0x300>
bfc261ae:	6c00      	li	a0,0
                ud_set_cmd(SET_HID_OPERS, 0x08);

                ud_hid_deal();

                libc_print("auto play", 0, 0);
            }

            g_auto_play_count = 0;
bfc261b0:	d980      	sw	a0,0(s1)
bfc261b2:	b7a5      	lw	a3,bfc26444 <uengine_control_block+0x3c8>

            g_auto_play_flag = 0;
bfc261b4:	b1a6      	lw	s1,bfc2644c <uengine_control_block+0x3d0>

            g_switch_song_flag = 0x01;
bfc261b6:	6a01      	li	v0,1
bfc261b8:	c780      	sb	a0,0(a3)
bfc261ba:	c140      	sb	v0,0(s1)
bfc261bc:	6d00      	li	a1,0
        }
        //挂起10ms 多任务交互
        sys_os_time_dly(1);
bfc261be:	b38d      	lw	v1,bfc263f0 <uengine_control_block+0x374>
bfc261c0:	67c5      	move	a2,a1
bfc261c2:	6c01      	li	a0,1
bfc261c4:	eb40      	jalr	v1
bfc261c6:	6f31      	li	a3,49
bfc261c8:	b5a1      	lw	a1,bfc2644c <uengine_control_block+0x3d0>

        if((g_switch_song_flag == 0) && (g_auto_play_flag == 1)) {
bfc261ca:	a500      	lbu	s0,0(a1)
bfc261cc:	280c      	bnez	s0,bfc261e6 <uengine_control_block+0x16a>
bfc261ce:	b19e      	lw	s1,bfc26444 <uengine_control_block+0x3c8>
bfc261d0:	a1c0      	lbu	a2,0(s1)
bfc261d2:	7601      	cmpi	a2,1
bfc261d4:	6108      	btnez	bfc261e6 <uengine_control_block+0x16a>
bfc261d6:	b79b      	lw	a3,bfc26440 <uengine_control_block+0x3c4>
            g_auto_play_count++;
bfc261d8:	930a      	lw	v1,40(sp)
        } else {
            g_auto_play_count = 0;
        }

        i++;
bfc261da:	9f80      	lw	a0,0(a3)
bfc261dc:	4441      	addiu	v0,a0,1
bfc261de:	df40      	sw	v0,0(a3)
bfc261e0:	4341      	addiu	v0,v1,1
bfc261e2:	ea11      	zeb	v0
bfc261e4:	174f      	b	bfc26084 <uengine_control_block+0x8>
bfc261e6:	930a      	lw	v1,40(sp)
bfc261e8:	b096      	lw	s0,bfc26440 <uengine_control_block+0x3c4>
bfc261ea:	4341      	addiu	v0,v1,1
bfc261ec:	6d00      	li	a1,0
bfc261ee:	ea11      	zeb	v0
bfc261f0:	d8a0      	sw	a1,0(s0)
bfc261f2:	1748      	b	bfc26084 <uengine_control_block+0x8>
bfc261f4:	b37c      	lw	v1,bfc263e4 <uengine_control_block+0x368>
bfc261f6:	b57b      	lw	a1,bfc263e0 <uengine_control_block+0x364>
bfc261f8:	9b80      	lw	a0,0(v1)
bfc261fa:	6a00      	li	v0,0
bfc261fc:	6801      	li	s0,1
bfc261fe:	dd40      	sw	v0,0(a1)
bfc26200:	dc00      	sw	s0,0(a0)
bfc26202:	1754      	b	bfc260ac <uengine_control_block+0x30>
bfc26204:	6d00      	li	a1,0
bfc26206:	b376      	lw	v1,bfc263dc <uengine_control_block+0x360>
bfc26208:	6c0d      	li	a0,13
bfc2620a:	67c5      	move	a2,a1
bfc2620c:	eb40      	jalr	v1
bfc2620e:	6f06      	li	a3,6
bfc26210:	b17c      	lw	s1,bfc26400 <uengine_control_block+0x384>
bfc26212:	e9c0      	jalrc	s1
bfc26214:	177f      	b	bfc26114 <uengine_control_block+0x98>
bfc26216:	b283      	lw	v0,bfc26420 <uengine_control_block+0x3a4>
bfc26218:	ea40      	jalr	v0
bfc2621a:	0404      	addiu	a0,sp,16
bfc2621c:	d209      	sw	v0,36(sp)
bfc2621e:	9409      	lw	a0,36(sp)
bfc26220:	f100 7400 	cmpi	a0,256
bfc26224:	61aa      	btnez	bfc2617a <uengine_control_block+0xfe>
bfc26226:	9209      	lw	v0,36(sp)
        /*#ifdef __ESD_MODE_
                if(g_auto_play_flag == 0 && check_auto_play_time <=2 )
                {
                    esd_count_time++;
                    if(esd_count_time >= 500)
                    {
                        auto_play_for_esd(&check_auto_play_time);
                        esd_count_time = 0;
                    }
                }
        #endif*/
    }

    //kill_app_timer(g_hid_timer);

    return uengine_retval;
}
bfc26228:	6478      	restore	64,ra,s0-s1
bfc2622a:	e8a0      	jrc	ra
bfc2622c:	6c00      	li	a0,0
bfc2622e:	b171      	lw	s1,bfc263f0 <uengine_control_block+0x374>
bfc26230:	67a4      	move	a1,a0
bfc26232:	67c4      	move	a2,a0
bfc26234:	e940      	jalr	s1
bfc26236:	6f1c      	li	a3,28
bfc26238:	98c0      	lw	a2,0(s0)
bfc2623a:	e2d7      	subu	a1,v0,a2
bfc2623c:	5d32      	sltiu	a1,50
bfc2623e:	61a7      	btnez	bfc2618e <uengine_control_block+0x112>
bfc26240:	b669      	lw	a2,bfc263e4 <uengine_control_block+0x368>
bfc26242:	b57a      	lw	a1,bfc26428 <uengine_control_block+0x3ac>
bfc26244:	9e80      	lw	a0,0(a2)
bfc26246:	9ce1      	lw	a3,4(a0)
bfc26248:	9d80      	lw	a0,0(a1)
bfc2624a:	e78f      	subu	v1,a3,a0
bfc2624c:	67a3      	move	a1,v1
bfc2624e:	b378      	lw	v1,bfc2642c <uengine_control_block+0x3b0>
bfc26250:	ed91      	seb	a1
bfc26252:	8340      	lb	v0,0(v1)
bfc26254:	eaae      	xor	v0,a1
bfc26256:	2a6e      	bnez	v0,bfc26334 <uengine_control_block+0x2b8>
bfc26258:	b676      	lw	a2,bfc26430 <uengine_control_block+0x3b4>
bfc2625a:	a6e0      	lbu	a3,0(a2)
bfc2625c:	4741      	addiu	v0,a3,1
bfc2625e:	c640      	sb	v0,0(a2)
bfc26260:	c3a0      	sb	a1,0(v1)
bfc26262:	b375      	lw	v1,bfc26434 <uengine_control_block+0x3b8>
bfc26264:	a340      	lbu	v0,0(v1)
bfc26266:	5a0a      	sltiu	v0,10
bfc26268:	6003      	bteqz	bfc26270 <uengine_control_block+0x1f4>
bfc2626a:	a6e0      	lbu	a3,0(a2)
bfc2626c:	5f02      	sltiu	a3,2
bfc2626e:	6174      	btnez	bfc26358 <uengine_control_block+0x2dc>
bfc26270:	6d00      	li	a1,0
bfc26272:	d8a0      	sw	a1,0(s0)
bfc26274:	c3a0      	sb	a1,0(v1)
bfc26276:	b062      	lw	s0,bfc263fc <uengine_control_block+0x380>
bfc26278:	6b00      	li	v1,0
bfc2627a:	c660      	sb	v1,0(a2)
bfc2627c:	e840      	jalr	s0
bfc2627e:	6d01      	li	a1,1
bfc26280:	6d00      	li	a1,0
bfc26282:	6c01      	li	a0,1
bfc26284:	67c5      	move	a2,a1
bfc26286:	e940      	jalr	s1
bfc26288:	6f31      	li	a3,49
bfc2628a:	16fd      	b	bfc26086 <uengine_control_block+0xa>
bfc2628c:	6c00      	li	a0,0
bfc2628e:	b354      	lw	v1,bfc263dc <uengine_control_block+0x360>
bfc26290:	67a4      	move	a1,a0
bfc26292:	67c4      	move	a2,a0
bfc26294:	eb40      	jalr	v1
bfc26296:	6f07      	li	a3,7
bfc26298:	6800      	li	s0,0
bfc2629a:	d00a      	sw	s0,40(sp)
bfc2629c:	1775      	b	bfc26188 <uengine_control_block+0x10c>
bfc2629e:	b355      	lw	v1,bfc263f0 <uengine_control_block+0x374>
bfc262a0:	6786      	move	a0,a2
bfc262a2:	67a6      	move	a1,a2
bfc262a4:	eb40      	jalr	v1
bfc262a6:	6f1c      	li	a3,28
bfc262a8:	b451      	lw	a0,bfc263ec <uengine_control_block+0x370>
bfc262aa:	6901      	li	s1,1
bfc262ac:	dc40      	sw	v0,0(a0)
bfc262ae:	c020      	sb	s1,0(s0)
bfc262b0:	1704      	b	bfc260ba <uengine_control_block+0x3e>
bfc262b2:	6d00      	li	a1,0
bfc262b4:	b34a      	lw	v1,bfc263dc <uengine_control_block+0x360>
bfc262b6:	67c5      	move	a2,a1
bfc262b8:	6c05      	li	a0,5
bfc262ba:	eb40      	jalr	v1
bfc262bc:	6f06      	li	a3,6
bfc262be:	9889      	lw	a0,36(s0)
bfc262c0:	b24f      	lw	v0,bfc263fc <uengine_control_block+0x380>
bfc262c2:	ea40      	jalr	v0
bfc262c4:	6d00      	li	a1,0
bfc262c6:	1723      	b	bfc2610e <uengine_control_block+0x92>
bfc262c8:	6c00      	li	a0,0
bfc262ca:	b04a      	lw	s0,bfc263f0 <uengine_control_block+0x374>
bfc262cc:	67a4      	move	a1,a0
bfc262ce:	67c4      	move	a2,a0
bfc262d0:	e840      	jalr	s0
bfc262d2:	6f2d      	li	a3,45
bfc262d4:	6d00      	li	a1,0
bfc262d6:	b342      	lw	v1,bfc263dc <uengine_control_block+0x360>
bfc262d8:	67c5      	move	a2,a1
bfc262da:	67e5      	move	a3,a1
bfc262dc:	6791      	move	a0,s1
bfc262de:	eb40      	jalr	v1
bfc262e0:	6702      	move	s0,v0
bfc262e2:	6d00      	li	a1,0
bfc262e4:	b33e      	lw	v1,bfc263dc <uengine_control_block+0x360>
bfc262e6:	67c5      	move	a2,a1
bfc262e8:	6c02      	li	a0,2
bfc262ea:	eb40      	jalr	v1
bfc262ec:	6f06      	li	a3,6
bfc262ee:	6d00      	li	a1,0
bfc262f0:	b340      	lw	v1,bfc263f0 <uengine_control_block+0x374>
bfc262f2:	6790      	move	a0,s0
bfc262f4:	67c5      	move	a2,a1
bfc262f6:	eb40      	jalr	v1
bfc262f8:	6f2e      	li	a3,46
bfc262fa:	a181      	lbu	a0,1(s1)
bfc262fc:	7401      	cmpi	a0,1
bfc262fe:	6024      	bteqz	bfc26348 <uengine_control_block+0x2cc>
bfc26300:	a1c2      	lbu	a2,2(s1)
bfc26302:	7601      	cmpi	a2,1
bfc26304:	6019      	bteqz	bfc26338 <uengine_control_block+0x2bc>
bfc26306:	b442      	lw	a0,bfc2640c <uengine_control_block+0x390>
bfc26308:	99a5      	lw	a1,20(s1)
bfc2630a:	9964      	lw	v1,16(s1)
bfc2630c:	dca2      	sw	a1,8(a0)
bfc2630e:	dc65      	sw	v1,20(a0)
bfc26310:	172b      	b	bfc26168 <uengine_control_block+0xec>
bfc26312:	6e00      	li	a2,0
bfc26314:	6c06      	li	a0,6
bfc26316:	b132      	lw	s1,bfc263dc <uengine_control_block+0x360>
bfc26318:	d608      	sw	a2,32(sp)
bfc2631a:	67a6      	move	a1,a2
bfc2631c:	e940      	jalr	s1
bfc2631e:	67e4      	move	a3,a0
bfc26320:	1704      	b	bfc2612a <uengine_control_block+0xae>
bfc26322:	6d00      	li	a1,0
bfc26324:	b12e      	lw	s1,bfc263dc <uengine_control_block+0x360>
bfc26326:	6c0e      	li	a0,14
bfc26328:	67c5      	move	a2,a1
bfc2632a:	e940      	jalr	s1
bfc2632c:	6f06      	li	a3,6
bfc2632e:	6b00      	li	v1,0
bfc26330:	c060      	sb	v1,0(s0)
bfc26332:	16d8      	b	bfc260e4 <uengine_control_block+0x68>
bfc26334:	b63f      	lw	a2,bfc26430 <uengine_control_block+0x3b4>
bfc26336:	1794      	b	bfc26260 <uengine_control_block+0x1e4>
bfc26338:	b733      	lw	a3,bfc26404 <uengine_control_block+0x388>
bfc2633a:	67d1      	move	a2,s1
bfc2633c:	9f80      	lw	a0,0(a3)
bfc2633e:	b233      	lw	v0,bfc26408 <uengine_control_block+0x38c>
bfc26340:	6d07      	li	a1,7
bfc26342:	ea40      	jalr	v0
bfc26344:	4e14      	addiu	a2,20
bfc26346:	17df      	b	bfc26306 <uengine_control_block+0x28a>
bfc26348:	b52f      	lw	a1,bfc26404 <uengine_control_block+0x388>
bfc2634a:	67d1      	move	a2,s1
bfc2634c:	9d80      	lw	a0,0(a1)
bfc2634e:	b22f      	lw	v0,bfc26408 <uengine_control_block+0x38c>
bfc26350:	6d08      	li	a1,8
bfc26352:	ea40      	jalr	v0
bfc26354:	4e10      	addiu	a2,16
bfc26356:	17d4      	b	bfc26300 <uengine_control_block+0x284>
bfc26358:	b238      	lw	v0,bfc26438 <uengine_control_block+0x3bc>
bfc2635a:	a220      	lbu	s1,0(v0)
bfc2635c:	2927      	bnez	s1,bfc263ac <uengine_control_block+0x330>
bfc2635e:	7501      	cmpi	a1,1
bfc26360:	6003      	bteqz	bfc26368 <uengine_control_block+0x2ec>
bfc26362:	efaf      	not	a3,a1
bfc26364:	2701      	beqz	a3,bfc26368 <uengine_control_block+0x2ec>
bfc26366:	2d23      	bnez	a1,bfc263ae <uengine_control_block+0x332>
bfc26368:	6800      	li	s0,0
bfc2636a:	c300      	sb	s0,0(v1)
bfc2636c:	a340      	lbu	v0,0(v1)
bfc2636e:	b52e      	lw	a1,bfc26424 <uengine_control_block+0x3a8>
bfc26370:	6c00      	li	a0,0
bfc26372:	c680      	sb	a0,0(a2)
bfc26374:	42c1      	addiu	a2,v0,1
bfc26376:	dd00      	sw	s0,0(a1)
bfc26378:	c3c0      	sb	a2,0(v1)
bfc2637a:	1709      	b	bfc2618e <uengine_control_block+0x112>
bfc2637c:	b318      	lw	v1,bfc263dc <uengine_control_block+0x360>
bfc2637e:	67d0      	move	a2,s0
bfc26380:	6c01      	li	a0,1
bfc26382:	6d08      	li	a1,8
bfc26384:	eb40      	jalr	v1
bfc26386:	6f06      	li	a3,6
bfc26388:	b315      	lw	v1,bfc263dc <uengine_control_block+0x360>
bfc2638a:	6790      	move	a0,s0
bfc2638c:	67b0      	move	a1,s0
bfc2638e:	67d0      	move	a2,s0
bfc26390:	eb40      	jalr	v1
bfc26392:	6f07      	li	a3,7
bfc26394:	b317      	lw	v1,bfc263f0 <uengine_control_block+0x374>
bfc26396:	0c0e      	la	a0,bfc263cc <uengine_control_block+0x350>
bfc26398:	67b0      	move	a1,s0
bfc2639a:	67d0      	move	a2,s0
bfc2639c:	eb40      	jalr	v1
bfc2639e:	6f4b      	li	a3,75
bfc263a0:	1706      	b	bfc261ae <uengine_control_block+0x132>
bfc263a2:	b21e      	lw	v0,bfc26418 <uengine_control_block+0x39c>
bfc263a4:	67a6      	move	a1,a2
bfc263a6:	ea40      	jalr	v0
bfc263a8:	6f04      	li	a3,4
bfc263aa:	16d5      	b	bfc26156 <uengine_control_block+0xda>
bfc263ac:	2508      	beqz	a1,bfc263be <uengine_control_block+0x342>
bfc263ae:	b124      	lw	s1,bfc2643c <uengine_control_block+0x3c0>
bfc263b0:	e940      	jalr	s1
bfc263b2:	ec11      	zeb	a0
bfc263b4:	b320      	lw	v1,bfc26434 <uengine_control_block+0x3b8>
bfc263b6:	a340      	lbu	v0,0(v1)
bfc263b8:	42c1      	addiu	a2,v0,1
bfc263ba:	c3c0      	sb	a2,0(v1)
bfc263bc:	16e8      	b	bfc2618e <uengine_control_block+0x112>
bfc263be:	c3a0      	sb	a1,0(v1)
bfc263c0:	a340      	lbu	v0,0(v1)
bfc263c2:	c6a0      	sb	a1,0(a2)
bfc263c4:	42c1      	addiu	a2,v0,1
bfc263c6:	d8a0      	sw	a1,0(s0)
bfc263c8:	c3c0      	sb	a2,0(v1)
bfc263ca:	16e1      	b	bfc2618e <uengine_control_block+0x112>
bfc263cc:	7561      	cmpi	a1,97
bfc263ce:	6f74      	li	a3,116
bfc263d0:	7020      	cmpi	s0,32
bfc263d2:	616c      	btnez	bfc264ac <handle_timers+0x24>
bfc263d4:	0079      	addiu	s0,sp,484
bfc263d6:	0000      	addiu	s0,sp,0
bfc263d8:	962c      	lw	a2,176(sp)
bfc263da:	9fc1      	lw	a2,4(a3)
bfc263dc:	6015      	bteqz	bfc26408 <uengine_control_block+0x38c>
bfc263de:	bfc2      	lwu	a2,8(a3)
bfc263e0:	9598      	lw	a1,608(sp)
bfc263e2:	9fc1      	lw	a2,4(a3)
bfc263e4:	95c8      	lw	a1,800(sp)
bfc263e6:	9fc1      	lw	a2,4(a3)
bfc263e8:	95c2      	lw	a1,776(sp)
bfc263ea:	9fc1      	lw	a2,4(a3)
bfc263ec:	95b0      	lw	a1,704(sp)
bfc263ee:	9fc1      	lw	a2,4(a3)
bfc263f0:	6011      	bteqz	bfc26414 <uengine_control_block+0x398>
bfc263f2:	bfc2      	lwu	a2,8(a3)
bfc263f4:	9580      	lw	a1,512(sp)
bfc263f6:	9fc1      	lw	a2,4(a3)
bfc263f8:	95d4      	lw	a1,848(sp)
bfc263fa:	9fc1      	lw	a2,4(a3)
bfc263fc:	691d      	li	s1,29
bfc263fe:	600a      	bteqz	bfc26414 <uengine_control_block+0x398>
bfc26400:	69a1      	li	s1,161
bfc26402:	600a      	bteqz	bfc26418 <uengine_control_block+0x39c>
bfc26404:	95d8      	lw	a1,864(sp)
bfc26406:	9fc1      	lw	a2,4(a3)
bfc26408:	600d      	bteqz	bfc26424 <uengine_control_block+0x3a8>
bfc2640a:	bfc2      	lwu	a2,8(a3)
bfc2640c:	9608      	lw	a2,32(sp)
bfc2640e:	9fc1      	lw	a2,4(a3)
bfc26410:	95bc      	lw	a1,752(sp)
bfc26412:	9fc1      	lw	a2,4(a3)
bfc26414:	95bd      	lw	a1,756(sp)
bfc26416:	9fc1      	lw	a2,4(a3)
bfc26418:	65c5      	move	a2,a1
bfc2641a:	bfc2      	lwu	a2,8(a3)
bfc2641c:	6585      	move	a0,a1
bfc2641e:	bfc2      	lwu	a2,8(a3)
bfc26420:	6801      	li	s0,1
bfc26422:	600a      	bteqz	bfc26438 <uengine_control_block+0x3bc>
bfc26424:	95a8      	lw	a1,672(sp)
bfc26426:	9fc1      	lw	a2,4(a3)
bfc26428:	9584      	lw	a1,528(sp)
bfc2642a:	9fc1      	lw	a2,4(a3)
bfc2642c:	95ae      	lw	a1,696(sp)
bfc2642e:	9fc1      	lw	a2,4(a3)
bfc26430:	95ad      	lw	a1,692(sp)
bfc26432:	9fc1      	lw	a2,4(a3)
bfc26434:	95c1      	lw	a1,772(sp)
bfc26436:	9fc1      	lw	a2,4(a3)
bfc26438:	95ac      	lw	a1,688(sp)
bfc2643a:	9fc1      	lw	a2,4(a3)
bfc2643c:	6b55      	li	v1,85
bfc2643e:	600a      	bteqz	bfc26454 <uengine_reply_msg+0x4>
bfc26440:	95b4      	lw	a1,720(sp)
bfc26442:	9fc1      	lw	a2,4(a3)
bfc26444:	95be      	lw	a1,760(sp)
bfc26446:	9fc1      	lw	a2,4(a3)
bfc26448:	95a5      	lw	a1,660(sp)
bfc2644a:	9fc1      	lw	a2,4(a3)
bfc2644c:	95a4      	lw	a1,656(sp)
bfc2644e:	9fc1      	lw	a2,4(a3)

bfc26450 <uengine_reply_msg>:
bfc26450:	64c3      	save	24,ra
/******************************************************************************/
/*!
 * \par  Description:
 * \app_result_e uengine_reply_msg(void* msg_ptr, bool ret_vals)
 * \回复同步消息
 * \param[in]    void  msg_ptr 消息结构体
 * \param[in]    bool  ret_vals 相关事件处理结果 TRUE 成功 FALSE 失败
 * \param[out]   none
 * \return       app_result_E
 * \retval       RESULT_IGNOR 忽略
 * \ingroup      uengine_control.c
 * \note  回复消息时，根据ret_vals的结果，设置应答成功或失败
 */
/*******************************************************************************/
void uengine_reply_msg(void *msg_ptr, bool ret_vals)
{
bfc26452:	ed11      	zeb	a1
bfc26454:	7501      	cmpi	a1,1
    //消息指针
    private_msg_t *data_ptr = (private_msg_t *) msg_ptr;

    if(ret_vals == TRUE) {
bfc26456:	610b      	btnez	bfc2646e <uengine_reply_msg+0x1e>
bfc26458:	9c63      	lw	v1,12(a0)
        data_ptr->reply->type = MSG_REPLY_SUCCESS;
bfc2645a:	6a01      	li	v0,1
bfc2645c:	c340      	sb	v0,0(v1)
    } else {
        data_ptr->reply->type = MSG_REPLY_FAILED;
bfc2645e:	6d00      	li	a1,0
    }

    //回复同步消息(发送信号量)
    libc_sem_post(data_ptr->sem);
bfc26460:	9c82      	lw	a0,8(a0)
bfc26462:	b209      	lw	v0,bfc26484 <uengine_reply_msg+0x34>
bfc26464:	67c5      	move	a2,a1
bfc26466:	ea40      	jalr	v0
bfc26468:	6f16      	li	a3,22
bfc2646a:	6443      	restore	24,ra
bfc2646c:	e8a0      	jrc	ra
bfc2646e:	9c63      	lw	v1,12(a0)
bfc26470:	6a02      	li	v0,2
bfc26472:	c340      	sb	v0,0(v1)
bfc26474:	6d00      	li	a1,0
bfc26476:	9c82      	lw	a0,8(a0)
bfc26478:	b203      	lw	v0,bfc26484 <uengine_reply_msg+0x34>
bfc2647a:	67c5      	move	a2,a1
bfc2647c:	ea40      	jalr	v0
bfc2647e:	6f16      	li	a3,22
bfc26480:	6443      	restore	24,ra
bfc26482:	e8a0      	jrc	ra
bfc26484:	6009      	bteqz	bfc26498 <handle_timers+0x10>
bfc26486:	bfc2      	lwu	a2,8(a3)

bfc26488 <handle_timers>:
bfc26488:	f004 64f5 	save	a0,40,ra,s0-s1
bfc2648c:	ed11      	zeb	a1
bfc2648e:	6c00      	li	a0,0
bfc26490:	b23a      	lw	v0,bfc26578 <handle_timers+0xf0>
bfc26492:	d504      	sw	a1,16(sp)
bfc26494:	6f1c      	li	a3,28
bfc26496:	67a4      	move	a1,a0
bfc26498:	ea40      	jalr	v0
bfc2649a:	67c4      	move	a2,a0
bfc2649c:	9304      	lw	v1,16(sp)
bfc2649e:	67e2      	move	a3,v0
bfc264a0:	6a00      	li	v0,0
bfc264a2:	d205      	sw	v0,20(sp)
bfc264a4:	2366      	beqz	v1,bfc26572 <handle_timers+0xea>
bfc264a6:	9405      	lw	a0,20(sp)
bfc264a8:	930a      	lw	v1,40(sp)
bfc264aa:	3290      	sll	v0,a0,4
bfc264ac:	e351      	addu	a0,v1,v0
bfc264ae:	a4a0      	lbu	a1,0(a0)
bfc264b0:	6e03      	li	a2,3
bfc264b2:	edcc      	and	a1,a2
bfc264b4:	7501      	cmpi	a1,1
bfc264b6:	6156      	btnez	bfc26564 <handle_timers+0xdc>
bfc264b8:	b631      	lw	a2,bfc2657c <handle_timers+0xf4>
bfc264ba:	a461      	lbu	v1,1(a0)
bfc264bc:	a6a0      	lbu	a1,0(a2)
bfc264be:	ed6e      	xor	a1,v1
bfc264c0:	2502      	beqz	a1,bfc264c6 <handle_timers+0x3e>
bfc264c2:	73ff      	cmpi	v1,255
bfc264c4:	614f      	btnez	bfc26564 <handle_timers+0xdc>
bfc264c6:	677d      	move	v1,sp
bfc264c8:	a354      	lbu	v0,20(v1)
bfc264ca:	b12e      	lw	s1,bfc26580 <handle_timers+0xf8>
bfc264cc:	6860      	li	s0,96
bfc264ce:	c140      	sb	v0,0(s1)
bfc264d0:	a460      	lbu	v1,0(a0)
bfc264d2:	acc2      	lhu	a2,4(a0)
bfc264d4:	e86c      	and	s0,v1
bfc264d6:	7020      	cmpi	s0,32
bfc264d8:	653e      	move	t9,a2
bfc264da:	6101      	btnez	bfc264de <handle_timers+0x56>
bfc264dc:	acc3      	lhu	a2,6(a0)
bfc264de:	9ca2      	lw	a1,8(a0)
bfc264e0:	e7c1      	addu	s0,a3,a2
bfc264e2:	efa3      	sltu	a3,a1
bfc264e4:	6900      	li	s1,0
bfc264e6:	612e      	btnez	bfc26544 <handle_timers+0xbc>
bfc264e8:	6910      	li	s1,16
bfc264ea:	e96c      	and	s1,v1
bfc264ec:	2104      	beqz	s1,bfc264f6 <handle_timers+0x6e>
bfc264ee:	6904      	li	s1,4
bfc264f0:	ea2b      	neg	v0,s1
bfc264f2:	eb4c      	and	v1,v0
bfc264f4:	c460      	sb	v1,0(a0)
bfc264f6:	e7af      	subu	v1,a3,a1
bfc264f8:	67f9      	move	a3,t9
bfc264fa:	ebe3      	sltu	v1,a3
bfc264fc:	6901      	li	s1,1
bfc264fe:	6003      	bteqz	bfc26506 <handle_timers+0x7e>
bfc26500:	e5c9      	addu	v0,a1,a2
bfc26502:	dc42      	sw	v0,8(a0)
bfc26504:	1001      	b	bfc26508 <handle_timers+0x80>
bfc26506:	dc02      	sw	s0,8(a0)
bfc26508:	a460      	lbu	v1,0(a0)
bfc2650a:	6d20      	li	a1,32
bfc2650c:	ed6c      	and	a1,v1
bfc2650e:	251a      	beqz	a1,bfc26544 <handle_timers+0xbc>
bfc26510:	6d40      	li	a1,64
bfc26512:	67c3      	move	a2,v1
bfc26514:	eeac      	and	a2,a1
bfc26516:	2605      	beqz	a2,bfc26522 <handle_timers+0x9a>
bfc26518:	6a41      	li	v0,65
bfc2651a:	ef4b      	neg	a3,v0
bfc2651c:	ebec      	and	v1,a3
bfc2651e:	c460      	sb	v1,0(a0)
bfc26520:	1011      	b	bfc26544 <handle_timers+0xbc>
bfc26522:	ebad      	or	v1,a1
bfc26524:	c460      	sb	v1,0(a0)
bfc26526:	a462      	lbu	v1,2(a0)
bfc26528:	67a3      	move	a1,v1
bfc2652a:	ed11      	zeb	a1
bfc2652c:	75ff      	cmpi	a1,255
bfc2652e:	6002      	bteqz	bfc26534 <handle_timers+0xac>
bfc26530:	43cf      	addiu	a2,v1,-1
bfc26532:	c4c2      	sb	a2,2(a0)
bfc26534:	a4a2      	lbu	a1,2(a0)
bfc26536:	2d06      	bnez	a1,bfc26544 <handle_timers+0xbc>
bfc26538:	a420      	lbu	s1,0(a0)
bfc2653a:	6f04      	li	a3,4
bfc2653c:	ebeb      	neg	v1,a3
bfc2653e:	e96c      	and	s1,v1
bfc26540:	c420      	sb	s1,0(a0)
bfc26542:	6725      	move	s1,a1
bfc26544:	9c42      	lw	v0,8(a0)
bfc26546:	ea03      	sltu	v0,s0
bfc26548:	6101      	btnez	bfc2654c <handle_timers+0xc4>
bfc2654a:	dc02      	sw	s0,8(a0)
bfc2654c:	7101      	cmpi	s1,1
bfc2654e:	6103      	btnez	bfc26556 <handle_timers+0xce>
bfc26550:	9c43      	lw	v0,12(a0)
bfc26552:	2201      	beqz	v0,bfc26556 <handle_timers+0xce>
bfc26554:	eac0      	jalrc	v0
bfc26556:	6c00      	li	a0,0
bfc26558:	b208      	lw	v0,bfc26578 <handle_timers+0xf0>
bfc2655a:	6f1c      	li	a3,28
bfc2655c:	67a4      	move	a1,a0
bfc2655e:	ea40      	jalr	v0
bfc26560:	67c4      	move	a2,a0
bfc26562:	67e2      	move	a3,v0
bfc26564:	9605      	lw	a2,20(sp)
bfc26566:	9404      	lw	a0,16(sp)
bfc26568:	46a1      	addiu	a1,a2,1
bfc2656a:	ed11      	zeb	a1
bfc2656c:	ed83      	sltu	a1,a0
bfc2656e:	d505      	sw	a1,20(sp)
bfc26570:	619a      	btnez	bfc264a6 <handle_timers+0x1e>
bfc26572:	6475      	restore	40,ra,s0-s1
bfc26574:	e8a0      	jrc	ra
bfc26576:	0000      	addiu	s0,sp,0
bfc26578:	6011      	bteqz	bfc2659c <get_app_msg+0x18>
bfc2657a:	bfc2      	lwu	a2,8(a3)
bfc2657c:	9699      	lw	a2,612(sp)
bfc2657e:	9fc1      	lw	a2,4(a3)
bfc26580:	9698      	lw	a2,608(sp)
bfc26582:	9fc1      	lw	a2,4(a3)

bfc26584 <get_app_msg>:
bfc26584:	64e3      	save	24,ra,s0
bfc26586:	b20b      	lw	v0,bfc265b0 <get_app_msg+0x2c>
bfc26588:	6704      	move	s0,a0
bfc2658a:	a2a0      	lbu	a1,0(v0)
bfc2658c:	2504      	beqz	a1,bfc26596 <get_app_msg+0x12>
bfc2658e:	b60a      	lw	a2,bfc265b4 <get_app_msg+0x30>
bfc26590:	b30a      	lw	v1,bfc265b8 <get_app_msg+0x34>
bfc26592:	eb40      	jalr	v1
bfc26594:	9e80      	lw	a0,0(a2)
bfc26596:	b40a      	lw	a0,bfc265bc <get_app_msg+0x38>
bfc26598:	b20a      	lw	v0,bfc265c0 <get_app_msg+0x3c>
bfc2659a:	9ca0      	lw	a1,0(a0)
bfc2659c:	6e00      	li	a2,0
bfc2659e:	a583      	lbu	a0,3(a1)
bfc265a0:	6f19      	li	a3,25
bfc265a2:	ea40      	jalr	v0
bfc265a4:	67b0      	move	a1,s0
bfc265a6:	5a01      	sltiu	v0,1
bfc265a8:	6758      	move	v0,t8
bfc265aa:	6463      	restore	24,ra,s0
bfc265ac:	e8a0      	jrc	ra
bfc265ae:	0000      	addiu	s0,sp,0
bfc265b0:	96a4      	lw	a2,656(sp)
bfc265b2:	9fc1      	lw	a2,4(a3)
bfc265b4:	9694      	lw	a2,592(sp)
bfc265b6:	9fc1      	lw	a2,4(a3)
bfc265b8:	6489      	save	72
bfc265ba:	bfc2      	lwu	a2,8(a3)
bfc265bc:	969c      	lw	a2,624(sp)
bfc265be:	9fc1      	lw	a2,4(a3)
bfc265c0:	6011      	bteqz	bfc265e4 <ccd_op_entry+0x20>
bfc265c2:	bfc2      	lwu	a2,8(a3)

bfc265c4 <ccd_op_entry>:
bfc265c4:	6b09      	li	v1,9
bfc265c6:	e805      	break	0
Disassembly of section BANK_CONTROL_1_0:

60026800 <process_start>:
60026800:	64d4      	save	32,ra,s1
60026802:	0104      	addiu	s1,sp,16
60026804:	d984      	sw	a0,16(s1)
60026806:	9944      	lw	v0,16(s1)
60026808:	6782      	move	a0,v0
6002680a:	6d00      	li	a1,0
6002680c:	b207      	lw	v0,60026828 <BANK_CONTROL_1_ADDR_BASE+0x28>
6002680e:	eac0      	jalrc	v0
60026810:	c140      	sb	v0,0(s1)
60026812:	8140      	lb	v0,0(s1)
60026814:	6782      	move	a0,v0
60026816:	6d00      	li	a1,0
60026818:	6e00      	li	a2,0
6002681a:	6f0e      	li	a3,14
6002681c:	b204      	lw	v0,6002682c <BANK_CONTROL_1_ADDR_BASE+0x2c>
6002681e:	eac0      	jalrc	v0
60026820:	6a00      	li	v0,0
60026822:	65b9      	move	sp,s1
60026824:	6452      	restore	16,ra,s1
60026826:	e8a0      	jrc	ra
60026828:	6d91      	li	a1,145
6002682a:	6006      	bteqz	60026838 <__start+0x8>
6002682c:	6009      	bteqz	60026840 <__start+0x10>
6002682e:	bfc2      	lwu	a2,8(a3)

60026830 <__start>:
60026830:	64d6      	save	48,ra,s1
60026832:	0104      	addiu	s1,sp,16
60026834:	d988      	sw	a0,32(s1)
60026836:	d9a9      	sw	a1,36(s1)
60026838:	6c00      	li	a0,0
6002683a:	6d00      	li	a1,0
6002683c:	6e00      	li	a2,0
6002683e:	6f10      	li	a3,16
60026840:	b220      	lw	v0,600268c0 <__start+0x90>
60026842:	eac0      	jalrc	v0
60026844:	c150      	sb	v0,16(s1)
60026846:	8170      	lb	v1,16(s1)
60026848:	6a01      	li	v0,1
6002684a:	ea4b      	neg	v0
6002684c:	ea6e      	xor	v0,v1
6002684e:	5a01      	sltiu	v0,1
60026850:	6004      	bteqz	6002685a <__start+0x2a>
60026852:	6a01      	li	v0,1
60026854:	ea4b      	neg	v0
60026856:	d945      	sw	v0,20(s1)
60026858:	102e      	b	600268b6 <__start+0x86>
6002685a:	b21b      	lw	v0,600268c4 <__start+0x94>
6002685c:	d940      	sw	v0,0(s1)
6002685e:	9948      	lw	v0,32(s1)
60026860:	d941      	sw	v0,4(s1)
60026862:	9949      	lw	v0,36(s1)
60026864:	9a41      	lw	v0,4(v0)
60026866:	d942      	sw	v0,8(s1)
60026868:	9949      	lw	v0,36(s1)
6002686a:	aa41      	lhu	v0,2(v0)
6002686c:	c946      	sh	v0,12(s1)
6002686e:	6c00      	li	a0,0
60026870:	6d00      	li	a1,0
60026872:	6e00      	li	a2,0
60026874:	6f33      	li	a3,51
60026876:	b215      	lw	v0,600268c8 <__start+0x98>
60026878:	eac0      	jalrc	v0
6002687a:	9949      	lw	v0,36(s1)
6002687c:	aa40      	lhu	v0,0(v0)
6002687e:	8170      	lb	v1,16(s1)
60026880:	6791      	move	a0,s1
60026882:	67a2      	move	a1,v0
60026884:	67c3      	move	a2,v1
60026886:	6f4a      	li	a3,74
60026888:	b210      	lw	v0,600268c8 <__start+0x98>
6002688a:	eac0      	jalrc	v0
6002688c:	5200      	slti	v0,0
6002688e:	6011      	bteqz	600268b2 <__start+0x82>
60026890:	8150      	lb	v0,16(s1)
60026892:	6782      	move	a0,v0
60026894:	6d00      	li	a1,0
60026896:	6e00      	li	a2,0
60026898:	6f11      	li	a3,17
6002689a:	b20a      	lw	v0,600268c0 <__start+0x90>
6002689c:	eac0      	jalrc	v0
6002689e:	6c00      	li	a0,0
600268a0:	6d00      	li	a1,0
600268a2:	6e00      	li	a2,0
600268a4:	6f34      	li	a3,52
600268a6:	b209      	lw	v0,600268c8 <__start+0x98>
600268a8:	eac0      	jalrc	v0
600268aa:	6a01      	li	v0,1
600268ac:	ea4b      	neg	v0
600268ae:	d945      	sw	v0,20(s1)
600268b0:	1002      	b	600268b6 <__start+0x86>
600268b2:	6a00      	li	v0,0
600268b4:	d945      	sw	v0,20(s1)
600268b6:	9945      	lw	v0,20(s1)
600268b8:	65b9      	move	sp,s1
600268ba:	6454      	restore	32,ra,s1
600268bc:	e8a0      	jrc	ra
600268be:	0000      	addiu	s0,sp,0
600268c0:	6009      	bteqz	600268d4 <__start+0xa4>
600268c2:	bfc2      	lwu	a2,8(a3)
600268c4:	6801      	li	s0,1
600268c6:	6002      	bteqz	600268cc <__start+0x9c>
600268c8:	6011      	bteqz	600268ec <__start+0xbc>
600268ca:	bfc2      	lwu	a2,8(a3)
Disassembly of section BANK_CONTROL_1_1:

60066800 <_load_cfg>:
60066800:	64f4      	save	32,ra,s0-s1
 * \note
 */
/*******************************************************************************/
void _load_cfg(void)
{
60066802:	b01e      	lw	s0,60066878 <_load_cfg+0x78>
    g_usound_cfg = com_get_config_default(USOUND_TYPE);
60066804:	b11c      	lw	s1,60066874 <_load_cfg+0x74>
60066806:	e840      	jalr	s0
60066808:	6cfa      	li	a0,250
6006680a:	b31c      	lw	v1,60066878 <_load_cfg+0x78>

    g_pa_type = (uint8)com_get_config_default(SETTING_AUDIO_OUTPUT_CHANNAL);
6006680c:	d942      	sw	v0,8(s1)
6006680e:	eb40      	jalr	v1
60066810:	6c28      	li	a0,40
60066812:	4101      	addiu	s0,s1,1
60066814:	c040      	sb	v0,0(s0)
60066816:	9942      	lw	v0,8(s1)

    //sys_vm_read(&g_usoud_config_val, VM_AP_USOUND, sizeof(uengine_config_t));

    //if (g_usoud_config_val.magic != VRAM_MAGIC(VM_AP_USOUND))
    {
        //g_usoud_config_val.magic = VRAM_MAGIC(VM_AP_USOUND);

        if(g_usound_cfg == 2) {
60066818:	7202      	cmpi	v0,2
6006681a:	610d      	btnez	60066836 <_load_cfg+0x36>
6006681c:	6751      	move	v0,s1
            g_usoud_config_val.dac_sample = 96;
6006681e:	6b60      	li	v1,96
60066820:	4a28      	addiu	v0,40
60066822:	da61      	sw	v1,4(v0)

            g_usoud_config_val.adc_sample = 96;
        } else if(1 == g_app_info_state_all.fix_sample_rate_flag) {
            g_usoud_config_val.dac_sample = 48;

            g_usoud_config_val.adc_sample = 48;
        } else {
            g_usoud_config_val.dac_sample = 44;
60066824:	da62      	sw	v1,8(v0)

            g_usoud_config_val.adc_sample = 44;
60066826:	b215      	lw	v0,60066878 <_load_cfg+0x78>
        }
    }

    g_output_channel_config = (uint8)com_get_config_default(OUTPUT_CHANNEL_CONFIG);
60066828:	f1a0 6c07 	li	a0,423
6006682c:	eac0      	jalrc	v0
6006682e:	b612      	lw	a2,60066874 <_load_cfg+0x74>
60066830:	c643      	sb	v0,3(a2)
60066832:	6474      	restore	32,ra,s0-s1
60066834:	e8a0      	jrc	ra
60066836:	b512      	lw	a1,6006687c <_load_cfg+0x7c>
60066838:	a588      	lbu	a0,8(a1)
6006683a:	7401      	cmpi	a0,1
6006683c:	610d      	btnez	60066858 <_load_cfg+0x58>
6006683e:	6751      	move	v0,s1
60066840:	6b30      	li	v1,48
60066842:	4a28      	addiu	v0,40
60066844:	da61      	sw	v1,4(v0)
60066846:	da62      	sw	v1,8(v0)
60066848:	b20c      	lw	v0,60066878 <_load_cfg+0x78>
6006684a:	f1a0 6c07 	li	a0,423
6006684e:	eac0      	jalrc	v0
60066850:	b609      	lw	a2,60066870 <_load_cfg+0x70>
60066852:	c643      	sb	v0,3(a2)
60066854:	6474      	restore	32,ra,s0-s1
60066856:	e8a0      	jrc	ra
60066858:	6751      	move	v0,s1
6006685a:	6b2c      	li	v1,44
6006685c:	4a28      	addiu	v0,40
6006685e:	da61      	sw	v1,4(v0)
60066860:	da62      	sw	v1,8(v0)
60066862:	b206      	lw	v0,60066878 <_load_cfg+0x78>
60066864:	f1a0 6c07 	li	a0,423
60066868:	eac0      	jalrc	v0
6006686a:	b603      	lw	a2,60066874 <_load_cfg+0x74>
6006686c:	c643      	sb	v0,3(a2)
6006686e:	6474      	restore	32,ra,s0-s1
60066870:	e8a0      	jrc	ra
60066872:	0000      	addiu	s0,sp,0
60066874:	95bc      	lw	a1,752(sp)
60066876:	9fc1      	lw	a2,4(a3)
60066878:	68bd      	li	s0,189
6006687a:	60a6      	bteqz	600667c8 <__start+0x3ff98>
6006687c:	a094      	lbu	a0,20(s0)
6006687e:	9fc1      	lw	a2,4(a3)

60066880 <_save_cfg>:
60066880:	b505      	lw	a1,60066894 <_save_cfg+0x14>
}

/******************************************************************************/
/*!
 * \par  Description:
 * \void _save_cfg(void)
 * \保存配置信息
 * \param[in]    void  para1
 * \param[out]   none
 * \return       void the result
 * \retval
 * \retval
 * \ingroup      uengine_main.c
 * \note
 */
/*******************************************************************************/
void _save_cfg(void)
{
    g_usoud_config_val.dac_sample = (uint32)g_ain_out_setting.dac_sample;
60066882:	6785      	move	a0,a1
60066884:	4d4c      	addiu	a1,76
60066886:	9d62      	lw	v1,8(a1)
60066888:	9d45      	lw	v0,20(a1)

    g_usoud_config_val.adc_sample = (uint32)g_ain_out_setting.adc_sample;
6006688a:	4c28      	addiu	a0,40
6006688c:	dc61      	sw	v1,4(a0)
6006688e:	e820      	jr	ra
60066890:	dc42      	sw	v0,8(a0)
60066892:	0000      	addiu	s0,sp,0
60066894:	95bc      	lw	a1,752(sp)
60066896:	9fc1      	lw	a2,4(a3)

60066898 <_set_ainout_param>:
60066898:	b316      	lw	v1,600668f0 <_set_ainout_param+0x58>

    //sys_vm_write(&g_usoud_config_val, VM_AP_USOUND, sizeof(uengine_config_t));
}

/******************************************************************************/
/*!
 * \par  Description:
 * 配置音频输入参数
 * \param[in]    none
 * \param[out]   none
 * \return       none
 * \ingroup      uengine_main.c
 * \note
 *******************************************************************************/
void _set_ainout_param(mmm_pp_ainout_setting_t *param_ptr)
{

    if(g_usound_cfg == 0) {
6006689a:	9b42      	lw	v0,8(v1)
6006689c:	2a14      	bnez	v0,600668c6 <_set_ainout_param+0x2e>
6006689e:	4242      	addiu	v0,v0,2
        param_ptr->input_type = MMM_PP_USOUND_IN;//usb up and down
600668a0:	6e17      	li	a2,23
    } else {
        param_ptr->input_type = MMM_PP_USPEAKER_IN;//usb down only
    }

    param_ptr->asrc_index = K_OUT1_P2_IN_U1;//asrc index
600668a2:	dc40      	sw	v0,0(a0)
600668a4:	4b28      	addiu	v1,40

    param_ptr->dac_sample = (int)g_usoud_config_val.dac_sample;//48;//48k
600668a6:	dcc1      	sw	a2,4(a0)
600668a8:	9ba1      	lw	a1,4(v1)
600668aa:	6a01      	li	v0,1

    param_ptr->dac_chanel = 1;//dac 1
600668ac:	42e1      	addiu	a3,v0,1

    param_ptr->asrc_mode_sel = 2;//param table index
600668ae:	dca2      	sw	a1,8(a0)
600668b0:	dc43      	sw	v0,12(a0)
600668b2:	6d03      	li	a1,3

    param_ptr->adc_sample = (int)g_usoud_config_val.adc_sample;//48;//adc sample rate

    param_ptr->adc_insel = AI_SOURCE_ADFMIC;
600668b4:	dce4      	sw	a3,16(a0)
600668b6:	9bc2      	lw	a2,8(v1)
600668b8:	4564      	addiu	v1,a1,4

    param_ptr->ain_gain = 7;
600668ba:	4349      	addiu	v0,v1,-7

    param_ptr->adc_gain = 0;
600668bc:	dcc5      	sw	a2,20(a0)
600668be:	dca6      	sw	a1,24(a0)
600668c0:	dc68      	sw	v1,32(a0)
600668c2:	e820      	jr	ra
600668c4:	dc47      	sw	v0,28(a0)
600668c6:	6a03      	li	v0,3
600668c8:	6e17      	li	a2,23
600668ca:	dc40      	sw	v0,0(a0)
600668cc:	4b28      	addiu	v1,40
600668ce:	dcc1      	sw	a2,4(a0)
600668d0:	9ba1      	lw	a1,4(v1)
600668d2:	6a01      	li	v0,1
600668d4:	42e1      	addiu	a3,v0,1
600668d6:	dca2      	sw	a1,8(a0)
600668d8:	dc43      	sw	v0,12(a0)
600668da:	6d03      	li	a1,3
600668dc:	dce4      	sw	a3,16(a0)
600668de:	9bc2      	lw	a2,8(v1)
600668e0:	4564      	addiu	v1,a1,4
600668e2:	4349      	addiu	v0,v1,-7
600668e4:	dcc5      	sw	a2,20(a0)
600668e6:	dca6      	sw	a1,24(a0)
600668e8:	dc68      	sw	v1,32(a0)
600668ea:	e820      	jr	ra
600668ec:	dc47      	sw	v0,28(a0)
600668ee:	0000      	addiu	s0,sp,0
600668f0:	95bc      	lw	a1,752(sp)
600668f2:	9fc1      	lw	a2,4(a3)

600668f4 <_set_usb_info>:
600668f4:	64f6      	save	48,ra,s0-s1

}

/******************************************************************************/
/*!
 * \par  Description:
 * 获取USB相关的配置信息
 * \param[in]    none
 * \param[out]   none
 * \return       none
 * \ingroup      uengine_main.c
 * \note
 *******************************************************************************/
void _set_usb_info(void)
{
600668f6:	b143      	lw	s1,60066a00 <_set_usb_info+0x10c>
    uint8 info_str[16];

    bool sn_default = 0;

    //vid
    com_get_config_struct(USB_VID, info_str, 6);
600668f8:	6cfb      	li	a0,251
600668fa:	0504      	addiu	a1,sp,16
600668fc:	e940      	jalr	s1
600668fe:	6e06      	li	a2,6
60066900:	b041      	lw	s0,60066a04 <_set_usb_info+0x110>

    ud_set_config(0, info_str, 6);
60066902:	6f03      	li	a3,3
60066904:	6c00      	li	a0,0
60066906:	0504      	addiu	a1,sp,16
60066908:	e840      	jalr	s0
6006690a:	6e06      	li	a2,6
6006690c:	6cfd      	li	a0,253

    //pid
    com_get_config_struct(USB_SOUND_PID, info_str, 6);
6006690e:	0504      	addiu	a1,sp,16
60066910:	e940      	jalr	s1
60066912:	6e06      	li	a2,6
60066914:	6c01      	li	a0,1

    ud_set_config(1, info_str, 6);
60066916:	0504      	addiu	a1,sp,16
60066918:	6e06      	li	a2,6
6006691a:	e840      	jalr	s0
6006691c:	6f03      	li	a3,3
6006691e:	6fff      	li	a3,255

    //vendor
    com_get_config_struct(INF_USB_VENDOR, info_str, 8);
60066920:	4781      	addiu	a0,a3,1
60066922:	0504      	addiu	a1,sp,16
60066924:	e940      	jalr	s1
60066926:	6e08      	li	a2,8
60066928:	6f03      	li	a3,3

    ud_set_config(2, info_str, 8);
6006692a:	6c02      	li	a0,2
6006692c:	0504      	addiu	a1,sp,16
6006692e:	e840      	jalr	s0
60066930:	6e08      	li	a2,8
60066932:	6eff      	li	a2,255

    //product name
    com_get_config_struct(INF_SOUND_PRODUCT_NAME, info_str, 16);
60066934:	4683      	addiu	a0,a2,3
60066936:	0504      	addiu	a1,sp,16
60066938:	e940      	jalr	s1
6006693a:	6e10      	li	a2,16
6006693c:	6c03      	li	a0,3

    ud_set_config(3, info_str, 16);
6006693e:	67e4      	move	a3,a0
60066940:	0504      	addiu	a1,sp,16
60066942:	e840      	jalr	s0
60066944:	6e10      	li	a2,16
60066946:	6cff      	li	a0,255

    //set volume
    com_get_config_struct(INF_VOLUME_FLAG, info_str, 1);
60066948:	4c09      	addiu	a0,9
6006694a:	0504      	addiu	a1,sp,16
6006694c:	e940      	jalr	s1
6006694e:	6e01      	li	a2,1
60066950:	67bd      	move	a1,sp

    g_volume_syn_cfg = info_str[0];
60066952:	a570      	lbu	v1,16(a1)
60066954:	b42d      	lw	a0,60066a08 <_set_usb_info+0x114>
60066956:	6f03      	li	a3,3

    ud_set_config(4, info_str, 1);
60066958:	dc66      	sw	v1,24(a0)
6006695a:	0504      	addiu	a1,sp,16
6006695c:	6c04      	li	a0,4
6006695e:	e840      	jalr	s0
60066960:	6e01      	li	a2,1
60066962:	6cff      	li	a0,255

    com_get_config_struct(USB_SOUND_BCD_DEVICE, info_str, 6);
60066964:	4c0b      	addiu	a0,11
60066966:	0504      	addiu	a1,sp,16
60066968:	e940      	jalr	s1
6006696a:	6e06      	li	a2,6
6006696c:	6c05      	li	a0,5

    ud_set_config(5, info_str, 6);
6006696e:	0504      	addiu	a1,sp,16
60066970:	6e06      	li	a2,6
60066972:	e840      	jalr	s0
60066974:	6f03      	li	a3,3
60066976:	6cff      	li	a0,255

    sn_default = (bool)com_get_config_default(USB_SN_TYPE);
60066978:	b225      	lw	v0,60066a0c <_set_usb_info+0x118>
6006697a:	ea40      	jalr	v0
6006697c:	4c0c      	addiu	a0,12
6006697e:	ea11      	zeb	v0
60066980:	7201      	cmpi	v0,1
    if(sn_default == 1) {
60066982:	612a      	btnez	600669d8 <_set_usb_info+0xe4>
60066984:	6cff      	li	a0,255
        com_get_config_struct(USB_SOUND_SN, info_str, 16);
60066986:	4c0e      	addiu	a0,14
60066988:	0504      	addiu	a1,sp,16
6006698a:	e940      	jalr	s1
6006698c:	6e10      	li	a2,16
6006698e:	b01e      	lw	s0,60066a04 <_set_usb_info+0x110>
    } else {
        sn_random(&info_str);
    }

    ud_set_config(6, info_str, 16);
60066990:	6c06      	li	a0,6
60066992:	0504      	addiu	a1,sp,16
60066994:	6e10      	li	a2,16
60066996:	e840      	jalr	s0
60066998:	6f03      	li	a3,3
6006699a:	b31f      	lw	v1,60066a14 <_set_usb_info+0x120>

    if(1 == g_app_info_state_all.fix_sample_rate_flag) {
6006699c:	a388      	lbu	a0,8(v1)
6006699e:	7401      	cmpi	a0,1
600669a0:	6028      	bteqz	600669f2 <_set_usb_info+0xfe>
600669a2:	b21e      	lw	v0,60066a18 <_set_usb_info+0x124>
        ud_set_cmd(FIX_SAMPLE_RATE, NULL);
    }
    ud_set_cmd(SET_VOLUME, (g_current_vol * 226) + 0xe3a0);
600669a4:	9a61      	lw	v1,4(v0)
600669a6:	366c      	sll	a2,v1,3
600669a8:	e677      	subu	a1,a2,v1
600669aa:	34b0      	sll	a0,a1,4
600669ac:	e47d      	addu	a3,a0,v1
600669ae:	35e4      	sll	a1,a3,1
600669b0:	f3bc 6e00 	li	a2,58272
600669b4:	e5d5      	addu	a1,a2
600669b6:	6f06      	li	a3,6
600669b8:	6c0c      	li	a0,12
600669ba:	e840      	jalr	s0
600669bc:	6e00      	li	a2,0
600669be:	6cff      	li	a0,255

    //set sample type
    com_get_config_struct(USOUND_SAMPLE_TYPE, info_str, 1);
600669c0:	b210      	lw	v0,60066a00 <_set_usb_info+0x10c>
600669c2:	0504      	addiu	a1,sp,16
600669c4:	4c0f      	addiu	a0,15
600669c6:	ea40      	jalr	v0
600669c8:	6e01      	li	a2,1
600669ca:	6c07      	li	a0,7

    ud_set_config(7, info_str, 1);
600669cc:	0504      	addiu	a1,sp,16
600669ce:	6e01      	li	a2,1
600669d0:	e840      	jalr	s0
600669d2:	6f03      	li	a3,3
600669d4:	6476      	restore	48,ra,s0-s1
600669d6:	e8a0      	jrc	ra
600669d8:	b20e      	lw	v0,60066a0c <_set_usb_info+0x118>
600669da:	ea40      	jalr	v0
600669dc:	0404      	addiu	a0,sp,16
600669de:	b00a      	lw	s0,60066a04 <_set_usb_info+0x110>
600669e0:	6c06      	li	a0,6
600669e2:	0504      	addiu	a1,sp,16
600669e4:	6e10      	li	a2,16
600669e6:	e840      	jalr	s0
600669e8:	6f03      	li	a3,3
600669ea:	b30b      	lw	v1,60066a14 <_set_usb_info+0x120>
600669ec:	a388      	lbu	a0,8(v1)
600669ee:	7401      	cmpi	a0,1
600669f0:	61d8      	btnez	600669a2 <_set_usb_info+0xae>
600669f2:	6d00      	li	a1,0
600669f4:	6c0b      	li	a0,11
600669f6:	67c5      	move	a2,a1
600669f8:	e840      	jalr	s0
600669fa:	6f06      	li	a3,6
600669fc:	17d2      	b	600669a2 <_set_usb_info+0xae>
600669fe:	0000      	addiu	s0,sp,0
60066a00:	684d      	li	s0,77
60066a02:	60a6      	bteqz	60066950 <_set_usb_info+0x5c>
60066a04:	6015      	bteqz	60066a30 <_app_init+0x14>
60066a06:	bfc2      	lwu	a2,8(a3)
60066a08:	95bc      	lw	a1,752(sp)
60066a0a:	9fc1      	lw	a2,4(a3)
60066a0c:	68bd      	li	s0,189
60066a0e:	60a6      	bteqz	6006695c <_set_usb_info+0x68>
60066a10:	681d      	li	s0,29
60066a12:	6012      	bteqz	60066a38 <_app_init+0x1c>
60066a14:	a094      	lbu	a0,20(s0)
60066a16:	9fc1      	lw	a2,4(a3)
60066a18:	9580      	lw	a1,512(sp)
60066a1a:	9fc1      	lw	a2,4(a3)

60066a1c <_app_init>:
60066a1c:	64fa      	save	80,ra,s0-s1
}

#ifdef WAVES_ASET_TOOLS
void waves_init(void)
{
    if(STUB_PC_TOOL_WAVES_ASET_MODE == g_app_info_state_all.stub_pc_tools_type) {
        g_waves.tuning_status = TUNING;
    } else if(STUB_PC_TOOL_UNKOWN == g_app_info_state_all.stub_pc_tools_type) {
        g_waves.tuning_status = NO_TUNING;
    } else {
        ;//nothing
    }
    g_waves.bin_number = g_app_info_state_all.bin_number;
    g_waves.input_para_enable = (uint8) com_get_config_default(SETTING_APP_SUPPORT_WAVES_INPUT_PARAM);
}
#endif

/******************************************************************************/
/*!
 * \par  Description:
 * \int _app_init(void)
 * \初始化引擎、读取配置信息、初始化文件选择器、中间件
 * \param[in]    void  para1
 * \param[out]   none
 * \return       int the result
 * \retval           1 sucess
 * \retval          -1 failed
 * \ingroup      uengine_main.c
 * \note
 */
/*******************************************************************************/
int _app_init(void)
{
60066a1e:	6b00      	li	v1,0
    int app_init_ret = 0;
60066a20:	b565      	lw	a1,60066bb4 <_app_init+0x198>
    //bool init_fsel_ret;
    char *mmm_name =
    { "mmm_pp.al" };
    scan_isr_cbk tmp_scan_isr_cbk;

    private_msg_t cur_msg_val;

    testval_t us_state = {0};

    sys_vm_read(&us_state, VM_API_FLAG, sizeof(testval_t));
60066a22:	b166      	lw	s1,60066bb8 <_app_init+0x19c>
60066a24:	d30f      	sw	v1,60(sp)
60066a26:	d308      	sw	v1,32(sp)
60066a28:	d309      	sw	v1,36(sp)
60066a2a:	d30a      	sw	v1,40(sp)
60066a2c:	d30b      	sw	v1,44(sp)
60066a2e:	d30c      	sw	v1,48(sp)
60066a30:	d30d      	sw	v1,52(sp)
60066a32:	6e18      	li	a2,24
60066a34:	6f12      	li	a3,18
60066a36:	e940      	jalr	s1
60066a38:	0408      	addiu	a0,sp,32
60066a3a:	1820 9a00 	jal	60066800 <_load_cfg>

#ifdef WAVES_ASET_TOOLS
    waves_init();
#endif


    //读取配置信息 (包括vm信息)
    _load_cfg();
60066a3e:	6500      	nop
60066a40:	b25f      	lw	v0,60066bbc <_app_init+0x1a0>

    //初始化applib库，后台AP
    applib_init(APP_ID_UENGINE, APP_TYPE_CONSOLE);
60066a42:	6c13      	li	a0,19
60066a44:	ea40      	jalr	v0
60066a46:	6d02      	li	a1,2
60066a48:	b05e      	lw	s0,60066bc0 <_app_init+0x1a4>

    //初始化 applib 消息模块
    applib_message_init();
60066a4a:	e8c0      	jalrc	s0
60066a4c:	b05e      	lw	s0,60066bc0 <_app_init+0x1a4>

    //初始化软定时器
    init_app_timers(g_uengine_timer_vector, APP_TIMER_COUNT);
60066a4e:	b25f      	lw	v0,60066bc8 <_app_init+0x1ac>
60066a50:	f0a0 4080 	addiu	a0,s0,160
60066a54:	ea40      	jalr	v0
60066a56:	6d03      	li	a1,3
60066a58:	9842      	lw	v0,8(s0)

    if(g_usound_cfg == 0) {
60066a5a:	2265      	beqz	v0,60066b26 <_app_init+0x10a>
60066a5c:	7201      	cmpi	v0,1
        //usound drv
        sys_drv_install(DRV_GROUP_UD, 0, "usound.drv");

    } else if(g_usound_cfg == 1) {
60066a5e:	6037      	bteqz	60066ace <_app_init+0xb2>
60066a60:	7202      	cmpi	v0,2
        //speaker drv
        sys_drv_install(DRV_GROUP_UD, 0, "uspeaker.drv");
    } else if(g_usound_cfg == 2) {
60066a62:	f080 6002 	bteqz	60066b6a <_app_init+0x14e>
60066a66:	b158      	lw	s1,60066bc4 <_app_init+0x1a8>
        g_uspeaker_24bit = 1;
        sys_drv_install(DRV_GROUP_UD, 0, "usound24.drv");
    } else {
        ;//for QAC
    }
    if(g_uspeaker_24bit == 1) {
60066a68:	a1a0      	lbu	a1,0(s1)
60066a6a:	7501      	cmpi	a1,1
60066a6c:	6039      	bteqz	60066ae0 <_app_init+0xc4>
60066a6e:	b258      	lw	v0,60066bcc <_app_init+0x1b0>
        //设置系统频率
        sys_adjust_clk(104 | (104 << 8), 0);

        //锁定频率为：MIPS -> 85M, DSP -> 180
        sys_lock_adjust_freq(104 | (104 << 8));
    }

    ud_set_cmd(SET_MUTE_FLAG, 1);
60066a70:	6c0e      	li	a0,14
60066a72:	6d01      	li	a1,1
60066a74:	6e00      	li	a2,0
60066a76:	ea40      	jalr	v0
60066a78:	6f06      	li	a3,6
60066a7a:	a100      	lbu	s0,0(s1)

    if(0 == g_uspeaker_24bit) {
60066a7c:	2046      	beqz	s0,60066b0a <_app_init+0xee>
60066a7e:	a1c1      	lbu	a2,1(s1)
        //set param init
        _set_ainout_param(&g_ain_out_setting);

        //加载中间件驱动
        sys_load_mmm(mmm_name, TRUE);//待完善

        //must after usb driver install
        app_init_ret = uegine_player_open();
    } else if(g_pa_type == 1) {
60066a80:	7601      	cmpi	a2,1
60066a82:	606c      	bteqz	60066b5c <_app_init+0x140>
60066a84:	1820 9a3d 	jal	600668f4 <_set_usb_info>
        ccd_i2s_pa_set_clock(g_usoud_config_val.dac_sample);
    } else {
        ;//for qac
    }

    _set_usb_info();
60066a88:	6500      	nop
60066a8a:	b054      	lw	s0,60066bd8 <_app_init+0x1bc>

    //disable detect when init
    DISABLE_USB_DETECT();
60066a8c:	6f40      	li	a3,64
60066a8e:	98c0      	lw	a2,0(s0)
60066a90:	6d00      	li	a1,0

    ud_module_start(&tmp_scan_isr_cbk);
60066a92:	eeed      	or	a2,a3
60066a94:	b24e      	lw	v0,60066bcc <_app_init+0x1b0>
60066a96:	d8c0      	sw	a2,0(s0)
60066a98:	040e      	addiu	a0,sp,56
60066a9a:	67c5      	move	a2,a1
60066a9c:	ea40      	jalr	v0
60066a9e:	6f01      	li	a3,1
60066aa0:	6d00      	li	a1,0
    key_register_scan_isr_cbk(tmp_scan_isr_cbk);
60066aa2:	940e      	lw	a0,56(sp)
60066aa4:	b24e      	lw	v0,60066bdc <_app_init+0x1c0>
60066aa6:	67c5      	move	a2,a1
60066aa8:	ea40      	jalr	v0
60066aaa:	6f05      	li	a3,5
60066aac:	9880      	lw	a0,0(s0)

    //enable detect after init
    ENABLE_USB_DETECT();
60066aae:	6a41      	li	v0,65
60066ab0:	ed4b      	neg	a1,v0
60066ab2:	ecac      	and	a0,a1
60066ab4:	d880      	sw	a0,0(s0)
60066ab6:	677d      	move	v1,sp

    if((us_state.api_flag & 0x08) != 0) {
60066ab8:	f020 a382 	lbu	a0,34(v1)
60066abc:	6f08      	li	a3,8
60066abe:	ef8c      	and	a3,a0
60066ac0:	2f38      	bnez	a3,60066b32 <_app_init+0x116>
60066ac2:	b441      	lw	a0,60066bc4 <_app_init+0x1a8>
        g_auto_play_flag = 1;
        us_state.api_flag &= ~0x08;
        sys_vm_write(&us_state, VM_API_FLAG, sizeof(testval_t));
    }

    //第一次进入立即查询状态，以更新mengine内容
    g_check_status_flag = TRUE;
60066ac4:	920f      	lw	v0,60(sp)

    return app_init_ret;
}
60066ac6:	6b01      	li	v1,1
60066ac8:	c464      	sb	v1,4(a0)
60066aca:	647a      	restore	80,ra,s0-s1
60066acc:	e8a0      	jrc	ra
60066ace:	950f      	lw	a1,60(sp)
60066ad0:	6c05      	li	a0,5
60066ad2:	0e2b      	la	a2,60066b7c <_app_init+0x160>
60066ad4:	e940      	jalr	s1
60066ad6:	6f0a      	li	a3,10
60066ad8:	b13b      	lw	s1,60066bc4 <_app_init+0x1a8>
60066ada:	a1a0      	lbu	a1,0(s1)
60066adc:	7501      	cmpi	a1,1
60066ade:	61c7      	btnez	60066a6e <_app_init+0x52>
60066ae0:	6d00      	li	a1,0
60066ae2:	b036      	lw	s0,60066bb8 <_app_init+0x19c>
60066ae4:	67c5      	move	a2,a1
60066ae6:	f06d 6c08 	li	a0,26728
60066aea:	e840      	jalr	s0
60066aec:	6f3a      	li	a3,58
60066aee:	6c01      	li	a0,1
60066af0:	6d05      	li	a1,5
60066af2:	f06d 6e08 	li	a2,26728
60066af6:	e840      	jalr	s0
60066af8:	6f36      	li	a3,54
60066afa:	b235      	lw	v0,60066bcc <_app_init+0x1b0>
60066afc:	6c0e      	li	a0,14
60066afe:	6d01      	li	a1,1
60066b00:	6e00      	li	a2,0
60066b02:	ea40      	jalr	v0
60066b04:	6f06      	li	a3,6
60066b06:	a100      	lbu	s0,0(s1)
60066b08:	28ba      	bnez	s0,60066a7e <_app_init+0x62>
60066b0a:	6791      	move	a0,s1
60066b0c:	1820 9a26 	jal	60066898 <_set_ainout_param>
60066b10:	4c4c      	addiu	a0,76
60066b12:	b22a      	lw	v0,60066bb8 <_app_init+0x19c>
60066b14:	67d0      	move	a2,s0
60066b16:	0c1e      	la	a0,60066b8c <_app_init+0x170>
60066b18:	6d01      	li	a1,1
60066b1a:	ea40      	jalr	v0
60066b1c:	6f02      	li	a3,2
60066b1e:	b02d      	lw	s0,60066bd0 <_app_init+0x1b4>
60066b20:	e8c0      	jalrc	s0
60066b22:	d20f      	sw	v0,60(sp)
60066b24:	17af      	b	60066a84 <_app_init+0x68>
60066b26:	950f      	lw	a1,60(sp)
60066b28:	6c05      	li	a0,5
60066b2a:	0e1c      	la	a2,60066b98 <_app_init+0x17c>
60066b2c:	e940      	jalr	s1
60066b2e:	6f0a      	li	a3,10
60066b30:	17d3      	b	60066ad8 <_app_init+0xbc>
60066b32:	6e09      	li	a2,9
60066b34:	b724      	lw	a3,60066bc4 <_app_init+0x1a8>
60066b36:	edcb      	neg	a1,a2
60066b38:	677d      	move	v1,sp
60066b3a:	ed8c      	and	a1,a0
60066b3c:	6a01      	li	v0,1
60066b3e:	c742      	sb	v0,2(a3)
60066b40:	f020 c3a2 	sb	a1,34(v1)
60066b44:	b21d      	lw	v0,60066bb8 <_app_init+0x19c>
60066b46:	b51c      	lw	a1,60066bb4 <_app_init+0x198>
60066b48:	0408      	addiu	a0,sp,32
60066b4a:	6e18      	li	a2,24
60066b4c:	ea40      	jalr	v0
60066b4e:	6f13      	li	a3,19
60066b50:	b41d      	lw	a0,60066bc4 <_app_init+0x1a8>
60066b52:	920f      	lw	v0,60(sp)
60066b54:	6b01      	li	v1,1
60066b56:	c464      	sb	v1,4(a0)
60066b58:	647a      	restore	80,ra,s0-s1
60066b5a:	e8a0      	jrc	ra
60066b5c:	6d00      	li	a1,0
60066b5e:	998b      	lw	a0,44(s1)
60066b60:	b01d      	lw	s0,60066bd4 <_app_init+0x1b8>
60066b62:	67c5      	move	a2,a1
60066b64:	e840      	jalr	s0
60066b66:	6f04      	li	a3,4
60066b68:	178d      	b	60066a84 <_app_init+0x68>
60066b6a:	6c01      	li	a0,1
60066b6c:	950f      	lw	a1,60(sp)
60066b6e:	c080      	sb	a0,0(s0)
60066b70:	0e0d      	la	a2,60066ba4 <_app_init+0x188>
60066b72:	6c05      	li	a0,5
60066b74:	e940      	jalr	s1
60066b76:	6f0a      	li	a3,10
60066b78:	17af      	b	60066ad8 <_app_init+0xbc>
60066b7a:	0000      	addiu	s0,sp,0
60066b7c:	7375      	cmpi	v1,117
60066b7e:	6570      	move	s3,s0
60066b80:	6b61      	li	v1,97
60066b82:	7265      	cmpi	v0,101
60066b84:	642e      	restore	112,s0
60066b86:	7672      	cmpi	a2,114
60066b88:	0000      	addiu	s0,sp,0
60066b8a:	0000      	addiu	s0,sp,0
60066b8c:	6d6d      	li	a1,109
60066b8e:	5f6d      	sltiu	a3,109
60066b90:	7070      	cmpi	s0,112
60066b92:	612e      	btnez	60066bf0 <_app_deinit+0x10>
60066b94:	006c      	addiu	s0,sp,432
60066b96:	0000      	addiu	s0,sp,0
60066b98:	7375      	cmpi	v1,117
60066b9a:	756f      	cmpi	a1,111
60066b9c:	646e      	restore	112,ra,s0
60066b9e:	642e      	restore	112,s0
60066ba0:	7672      	cmpi	a2,114
60066ba2:	0000      	addiu	s0,sp,0
60066ba4:	7375      	cmpi	v1,117
60066ba6:	756f      	cmpi	a1,111
60066ba8:	646e      	restore	112,ra,s0
60066baa:	3432      	srl	a0,s1,4
60066bac:	642e      	restore	112,s0
60066bae:	7672      	cmpi	a2,114
60066bb0:	0000      	addiu	s0,sp,0
60066bb2:	0000      	addiu	s0,sp,0
60066bb4:	0000      	addiu	s0,sp,0
60066bb6:	0019      	addiu	s0,sp,100
60066bb8:	6011      	bteqz	60066bdc <_app_init+0x1c0>
60066bba:	bfc2      	lwu	a2,8(a3)
60066bbc:	6861      	li	s0,97
60066bbe:	60a2      	bteqz	60066b04 <_app_init+0xe8>
60066bc0:	6cc9      	li	a0,201
60066bc2:	60a2      	bteqz	60066b08 <_app_init+0xec>
60066bc4:	95bc      	lw	a1,752(sp)
60066bc6:	9fc1      	lw	a2,4(a3)
60066bc8:	6c41      	li	a0,65
60066bca:	60a2      	bteqz	60066b10 <_app_init+0xf4>
60066bcc:	6015      	bteqz	60066bf8 <_app_deinit+0x18>
60066bce:	bfc2      	lwu	a2,8(a3)
60066bd0:	6801      	li	s0,1
60066bd2:	600e      	bteqz	60066bf0 <_app_deinit+0x10>
60066bd4:	65c5      	move	a2,a1
60066bd6:	bfc2      	lwu	a2,8(a3)
60066bd8:	aa5c      	lhu	v0,56(v0)
60066bda:	9fc1      	lw	a2,4(a3)
60066bdc:	6005      	bteqz	60066be8 <_app_deinit+0x8>
60066bde:	bfc2      	lwu	a2,8(a3)

60066be0 <_app_deinit>:
60066be0:	64f7      	save	56,ra,s0-s1

/******************************************************************************/
/*!
 * \par  Description:
 * \bool _app_deinit(void)
 * \退出app的功能函数,保存配置信息
 * \param[in]    void  para1
 * \param[out]   none
 * \return       bool the result
 * \retval           1 sucess
 * \retval           0 failed
 * \ingroup      uengine_main.c
 * \note
 */
/*******************************************************************************/
bool _app_deinit(void)
{
60066be2:	6800      	li	s0,0
    uint32 temp_flag;
    testval_t us_state = {0};
60066be4:	b562      	lw	a1,60066d6c <.LBE2+0x80>

    sys_vm_read(&us_state, VM_API_FLAG, sizeof(testval_t));
60066be6:	b163      	lw	s1,60066d70 <.LBE2+0x84>
60066be8:	d004      	sw	s0,16(sp)
60066bea:	d005      	sw	s0,20(sp)
60066bec:	d006      	sw	s0,24(sp)
60066bee:	d007      	sw	s0,28(sp)
60066bf0:	d008      	sw	s0,32(sp)
60066bf2:	d009      	sw	s0,36(sp)
60066bf4:	0404      	addiu	a0,sp,16
60066bf6:	6e18      	li	a2,24
60066bf8:	e940      	jalr	s1
60066bfa:	6f12      	li	a3,18
60066bfc:	b35e      	lw	v1,60066d74 <.LBE2+0x88>

    if(0 == g_uspeaker_24bit) {
60066bfe:	a340      	lbu	v0,0(v1)
60066c00:	2a47      	bnez	v0,60066c90 <_app_deinit+0xb0>
60066c02:	b05e      	lw	s0,60066d78 <.LBE2+0x8c>
        //must before usb driver unstall
        uegine_player_close();
60066c04:	e8c0      	jalrc	s0
60066c06:	b55c      	lw	a1,60066d74 <.LBE2+0x88>
    } else {
        ud_set_cmd(SET_USPEAKER_24BIT, USPEAKER24_PAUSE);
    }

    //if is play then stop
    if(g_status_data.start_play == 1) {
60066c08:	f080 9d88 	lw	a0,136(a1)
60066c0c:	7401      	cmpi	a0,1
60066c0e:	604b      	bteqz	60066ca6 <.LBB2>
60066c10:	b159      	lw	s1,60066d74 <.LBE2+0x88>
        uint8 i = 0;
        ud_set_cmd(SET_HID_OPERS, 0x08);
        while(i < 5) {
            ud_hid_deal();
            i++;
            sys_os_time_dly(1);
        }
        us_state.api_flag |= 0x08;
        sys_vm_write(&us_state, VM_API_FLAG, sizeof(testval_t));
    } else if(g_auto_play_flag == 1) {
60066c12:	a1a2      	lbu	a1,2(s1)
60066c14:	7501      	cmpi	a1,1
60066c16:	6075      	bteqz	60066d02 <.LBE2+0x16>
60066c18:	b557      	lw	a1,60066d74 <.LBE2+0x88>
        us_state.api_flag |= 0x08;
        sys_vm_write(&us_state, VM_API_FLAG, sizeof(testval_t));
    } else {
        ;//for qac
    }

    if(g_uspeaker_24bit == 1) {
60066c1a:	a580      	lbu	a0,0(a1)
60066c1c:	7401      	cmpi	a0,1
60066c1e:	606a      	bteqz	60066cf4 <.LBE2+0x8>
60066c20:	b058      	lw	s0,60066d80 <.LBE2+0x94>
        sys_unlock_adjust_freq();
    }

    //disable detect when init
    DISABLE_USB_DETECT();
60066c22:	6d40      	li	a1,64
60066c24:	9880      	lw	a0,0(s0)
60066c26:	b258      	lw	v0,60066d84 <.LBE2+0x98>
    //必须先停止usb 再停止dsp
    key_register_scan_isr_cbk(NULL);
60066c28:	ecad      	or	a0,a1
60066c2a:	d880      	sw	a0,0(s0)
60066c2c:	6c00      	li	a0,0
60066c2e:	67a4      	move	a1,a0
60066c30:	67c4      	move	a2,a0
60066c32:	ea40      	jalr	v0
60066c34:	6f05      	li	a3,5
60066c36:	6c00      	li	a0,0

    temp_flag = sys_local_irq_save();
60066c38:	b14e      	lw	s1,60066d70 <.LBE2+0x84>
60066c3a:	67a4      	move	a1,a0
60066c3c:	67c4      	move	a2,a0
60066c3e:	e940      	jalr	s1
60066c40:	6f2d      	li	a3,45
60066c42:	6722      	move	s1,v0
60066c44:	6c00      	li	a0,0

    ud_module_stop();
60066c46:	b24e      	lw	v0,60066d7c <.LBE2+0x90>
60066c48:	67a4      	move	a1,a0
60066c4a:	67c4      	move	a2,a0
60066c4c:	ea40      	jalr	v0
60066c4e:	6f02      	li	a3,2
60066c50:	6d00      	li	a1,0

    sys_local_irq_restore(temp_flag);
60066c52:	b348      	lw	v1,60066d70 <.LBE2+0x84>
60066c54:	67c5      	move	a2,a1
60066c56:	6f2e      	li	a3,46
60066c58:	eb40      	jalr	v1
60066c5a:	6791      	move	a0,s1
60066c5c:	98c0      	lw	a2,0(s0)

    //enable detect after init
    ENABLE_USB_DETECT();
60066c5e:	6b41      	li	v1,65
60066c60:	ef6b      	neg	a3,v1
60066c62:	eeec      	and	a2,a3
60066c64:	b244      	lw	v0,60066d74 <.LBE2+0x88>

    if(0 == g_uspeaker_24bit) {
60066c66:	d8c0      	sw	a2,0(s0)
60066c68:	a2c0      	lbu	a2,0(v0)
60066c6a:	2658      	beqz	a2,60066d1c <.LBE2+0x30>
60066c6c:	b742      	lw	a3,60066d74 <.LBE2+0x88>
        //卸载解码驱动
        sys_free_mmm(TRUE);
    } else if(g_pa_type == 1) {
60066c6e:	a7c1      	lbu	a2,1(a3)
60066c70:	7601      	cmpi	a2,1
60066c72:	6067      	bteqz	60066d42 <.LBE2+0x56>
60066c74:	6d00      	li	a1,0
        ccd_i2s_pa_set_clock(48);
        //sys_unlock_adjust_freq();
    } else {
        ;//for QAC
    }

    sys_drv_uninstall(DRV_GROUP_UD);
60066c76:	b23f      	lw	v0,60066d70 <.LBE2+0x84>
60066c78:	6c05      	li	a0,5
60066c7a:	67c5      	move	a2,a1
60066c7c:	ea40      	jalr	v0
60066c7e:	6f0b      	li	a3,11
60066c80:	b243      	lw	v0,60066d8c <.LBE2+0xa0>

    //执行applib库的注销操作
    applib_quit();
60066c82:	eac0      	jalrc	v0
60066c84:	1820 9a20 	jal	60066880 <_save_cfg>

    //save config 写vram
    _save_cfg();
60066c88:	6500      	nop
60066c8a:	6a01      	li	v0,1

    return TRUE;
}
60066c8c:	6477      	restore	56,ra,s0-s1
60066c8e:	e8a0      	jrc	ra
60066c90:	b23b      	lw	v0,60066d78 <.LBE2+0x8c>
60066c92:	6c0a      	li	a0,10
60066c94:	6d01      	li	a1,1
60066c96:	67d0      	move	a2,s0
60066c98:	ea40      	jalr	v0
60066c9a:	6f06      	li	a3,6
60066c9c:	b536      	lw	a1,60066d74 <.LBE2+0x88>
60066c9e:	f080 9d88 	lw	a0,136(a1)
60066ca2:	7401      	cmpi	a0,1
60066ca4:	61b5      	btnez	60066c10 <_app_deinit+0x30>

60066ca6 <.LBB2>:
60066ca6:	b136      	lw	s1,60066d7c <.LBE2+0x90>
60066ca8:	6800      	li	s0,0
60066caa:	6c01      	li	a0,1
60066cac:	6d08      	li	a1,8
60066cae:	67d0      	move	a2,s0
60066cb0:	e940      	jalr	s1
60066cb2:	6f06      	li	a3,6
60066cb4:	b12f      	lw	s1,60066d70 <.LBE2+0x84>
60066cb6:	6c00      	li	a0,0
60066cb8:	b231      	lw	v0,60066d7c <.LBE2+0x90>
60066cba:	67a4      	move	a1,a0
60066cbc:	67c4      	move	a2,a0
60066cbe:	ea40      	jalr	v0
60066cc0:	6f07      	li	a3,7
60066cc2:	40c1      	addiu	a2,s0,1
60066cc4:	6706      	move	s0,a2
60066cc6:	6d00      	li	a1,0
60066cc8:	e811      	zeb	s0
60066cca:	6c01      	li	a0,1
60066ccc:	67c5      	move	a2,a1
60066cce:	e940      	jalr	s1
60066cd0:	6f31      	li	a3,49
60066cd2:	5805      	sltiu	s0,5
60066cd4:	61f0      	btnez	60066cb6 <.LBB2+0x10>
60066cd6:	679d      	move	a0,sp
60066cd8:	a412      	lbu	s0,18(a0)
60066cda:	6b08      	li	v1,8
60066cdc:	e86d      	or	s0,v1
60066cde:	67fd      	move	a3,sp
60066ce0:	b523      	lw	a1,60066d6c <.LBE2+0x80>
60066ce2:	c712      	sb	s0,18(a3)
60066ce4:	0404      	addiu	a0,sp,16
60066ce6:	6e18      	li	a2,24
60066ce8:	e940      	jalr	s1
60066cea:	6f13      	li	a3,19

60066cec <.LBE2>:
60066cec:	b522      	lw	a1,60066d74 <.LBE2+0x88>
60066cee:	a580      	lbu	a0,0(a1)
60066cf0:	7401      	cmpi	a0,1
60066cf2:	6196      	btnez	60066c20 <_app_deinit+0x40>
60066cf4:	6c00      	li	a0,0
60066cf6:	b11f      	lw	s1,60066d70 <.LBE2+0x84>
60066cf8:	6d05      	li	a1,5
60066cfa:	67c4      	move	a2,a0
60066cfc:	e940      	jalr	s1
60066cfe:	6f36      	li	a3,54
60066d00:	178f      	b	60066c20 <_app_deinit+0x40>
60066d02:	677d      	move	v1,sp
60066d04:	a3f2      	lbu	a3,18(v1)
60066d06:	6808      	li	s0,8
60066d08:	ef0d      	or	a3,s0
60066d0a:	67dd      	move	a2,sp
60066d0c:	b518      	lw	a1,60066d6c <.LBE2+0x80>
60066d0e:	b219      	lw	v0,60066d70 <.LBE2+0x84>
60066d10:	c6f2      	sb	a3,18(a2)
60066d12:	0404      	addiu	a0,sp,16
60066d14:	6e18      	li	a2,24
60066d16:	ea40      	jalr	v0
60066d18:	6f13      	li	a3,19
60066d1a:	177e      	b	60066c18 <_app_deinit+0x38>
60066d1c:	b315      	lw	v1,60066d70 <.LBE2+0x84>
60066d1e:	67a6      	move	a1,a2
60066d20:	6c01      	li	a0,1
60066d22:	eb40      	jalr	v1
60066d24:	6f06      	li	a3,6
60066d26:	6d00      	li	a1,0
60066d28:	b212      	lw	v0,60066d70 <.LBE2+0x84>
60066d2a:	6c05      	li	a0,5
60066d2c:	67c5      	move	a2,a1
60066d2e:	ea40      	jalr	v0
60066d30:	6f0b      	li	a3,11
60066d32:	b217      	lw	v0,60066d8c <.LBE2+0xa0>
60066d34:	eac0      	jalrc	v0
60066d36:	1820 9a20 	jal	60066880 <_save_cfg>
60066d3a:	6500      	nop
60066d3c:	6a01      	li	v0,1
60066d3e:	6477      	restore	56,ra,s0-s1
60066d40:	e8a0      	jrc	ra
60066d42:	6d00      	li	a1,0
60066d44:	b211      	lw	v0,60066d88 <.LBE2+0x9c>
60066d46:	67c5      	move	a2,a1
60066d48:	6c30      	li	a0,48
60066d4a:	ea40      	jalr	v0
60066d4c:	6f04      	li	a3,4
60066d4e:	6d00      	li	a1,0
60066d50:	b208      	lw	v0,60066d70 <.LBE2+0x84>
60066d52:	6c05      	li	a0,5
60066d54:	67c5      	move	a2,a1
60066d56:	ea40      	jalr	v0
60066d58:	6f0b      	li	a3,11
60066d5a:	b20d      	lw	v0,60066d8c <.LBE2+0xa0>
60066d5c:	eac0      	jalrc	v0
60066d5e:	1820 9a20 	jal	60066880 <_save_cfg>
60066d62:	6500      	nop
60066d64:	6a01      	li	v0,1
60066d66:	6477      	restore	56,ra,s0-s1
60066d68:	e8a0      	jrc	ra
60066d6a:	0000      	addiu	s0,sp,0
60066d6c:	0000      	addiu	s0,sp,0
60066d6e:	0019      	addiu	s0,sp,100
60066d70:	6011      	bteqz	60066d94 <main+0x4>
60066d72:	bfc2      	lwu	a2,8(a3)
60066d74:	95bc      	lw	a1,752(sp)
60066d76:	9fc1      	lw	a2,4(a3)
60066d78:	68e1      	li	s0,225
60066d7a:	600e      	bteqz	60066d98 <main+0x8>
60066d7c:	6015      	bteqz	60066da8 <main+0x18>
60066d7e:	bfc2      	lwu	a2,8(a3)
60066d80:	aa5c      	lhu	v0,56(v0)
60066d82:	9fc1      	lw	a2,4(a3)
60066d84:	6005      	bteqz	60066d90 <main>
60066d86:	bfc2      	lwu	a2,8(a3)
60066d88:	65c5      	move	a2,a1
60066d8a:	bfc2      	lwu	a2,8(a3)
60066d8c:	6951      	li	s1,81
60066d8e:	60a2      	bteqz	60066cd4 <.LBB2+0x2e>

60066d90 <main>:
60066d90:	64f4      	save	32,ra,s0-s1

/******************************************************************************/
/*!
 * \par  Description:
 * \int main(int argc, const char *argv[])
 * \app入口函数
 * \param[in]    argc  para1
 * \param[in]    argc  para2
 * \param[out]   none
 * \return       int the result
 * \retval           1 sucess
 * \retval           0 failed
 * \ingroup      mengine_main.c
 * \note
 */
/*******************************************************************************/
int main(int argc, const char *argv[])
{
60066d92:	b04e      	lw	s0,60066ec8 <main+0x138>

    app_result_e result;
    g_current_vol = (uint8) argc;

    g_cur_play_status_p = &g_cur_play_status[0];//应用加载时初始化为0，不用再初始化了
60066d94:	b24c      	lw	v0,60066ec4 <main+0x134>
60066d96:	67b0      	move	a1,s0
60066d98:	ec11      	zeb	a0
60066d9a:	4d34      	addiu	a1,52
60066d9c:	b14c      	lw	s1,60066ecc <main+0x13c>

    //创建共享查询，这时必须保证前台来获取状态时是可用的
    g_cur_play_status_p = sys_share_query_creat(APP_ID_UENGINE, g_cur_play_status_p, sizeof(uengine_status_t));
60066d9e:	da81      	sw	a0,4(v0)
60066da0:	d8a3      	sw	a1,12(s0)
60066da2:	6c13      	li	a0,19
60066da4:	6e0c      	li	a2,12
60066da6:	e940      	jalr	s1
60066da8:	6f43      	li	a3,67
60066daa:	d843      	sw	v0,12(s0)
60066dac:	2a06      	bnez	v0,60066dba <main+0x2a>

    if(g_cur_play_status_p == NULL) {
60066dae:	0c23      	la	a0,60066e38 <main+0xa8>
        PRINT_ERR("usound share query create fail!\n");
60066db0:	67a2      	move	a1,v0
60066db2:	67c2      	move	a2,v0
60066db4:	e940      	jalr	s1
60066db6:	6f4b      	li	a3,75
60066db8:	17ff      	b	60066db8 <main+0x28>
60066dba:	b444      	lw	a0,60066ec8 <main+0x138>
        while(1) {
            ;//do noting
        }

    }

    //创建共享内存
    //libc_memcpy(g_share_ptr, &(setting_comval->dae_cfg), sizeof(dae_config_t));
    g_share_ptr = &g_sync_vol_share;
60066dbc:	b044      	lw	s0,60066ecc <main+0x13c>

    if(sys_shm_creat(SHARE_MEM_ID_USOUND, g_share_ptr, sizeof(uengine_sync_volume_t)) == -1) {
60066dbe:	67a4      	move	a1,a0
60066dc0:	4d20      	addiu	a1,32
60066dc2:	dca5      	sw	a1,20(a0)
60066dc4:	6e08      	li	a2,8
60066dc6:	6c04      	li	a0,4
60066dc8:	e840      	jalr	s0
60066dca:	6f47      	li	a3,71
60066dcc:	eb4f      	not	v1,v0
60066dce:	2b06      	bnez	v1,60066ddc <main+0x4c>
60066dd0:	6d00      	li	a1,0
        PRINT_ERR("usound shm create fail!!");
60066dd2:	0c24      	la	a0,60066e60 <main+0xd0>
60066dd4:	67c5      	move	a2,a1
60066dd6:	e840      	jalr	s0
60066dd8:	6f4b      	li	a3,75
60066dda:	17ff      	b	60066dda <main+0x4a>
60066ddc:	6d00      	li	a1,0
        while(1) {
            ; //nothing for QAC
        }
    }

    //get for dae freqency
    //更新DAE配置参数到共享内存
    g_dae_cfg_shm = (dae_config_t *) sys_shm_mount(SHARE_MEM_ID_DAECFG);
60066dde:	b03c      	lw	s0,60066ecc <main+0x13c>
60066de0:	67c5      	move	a2,a1
60066de2:	6c03      	li	a0,3
60066de4:	e840      	jalr	s0
60066de6:	6f49      	li	a3,73
60066de8:	b538      	lw	a1,60066ec8 <main+0x138>
60066dea:	67c2      	move	a2,v0
60066dec:	dd44      	sw	v0,16(a1)
60066dee:	2a05      	bnez	v0,60066dfa <main+0x6a>
    if(g_dae_cfg_shm == NULL) {
60066df0:	0c24      	la	a0,60066e80 <main+0xf0>
        PRINT_ERR("dae_cfg shm not exist!!");
60066df2:	67a2      	move	a1,v0
60066df4:	e840      	jalr	s0
60066df6:	6f4b      	li	a3,75
60066df8:	17ff      	b	60066df8 <main+0x68>
60066dfa:	1820 9a87 	jal	60066a1c <_app_init>
        while(1) {
            ; //nothing for QAC
        }
    }

    //初始化
    _app_init();
60066dfe:	6500      	nop
60066e00:	b134      	lw	s1,60066ed0 <main+0x140>

    //循环
    result = uengine_control_block();//app功能处理
60066e02:	e9c0      	jalrc	s1
60066e04:	1820 9af8 	jal	60066be0 <_app_deinit>

    //退出
    _app_deinit();
60066e08:	6722      	move	s1,v0
60066e0a:	6d00      	li	a1,0

    //销毁共享内存
    sys_shm_destroy(SHARE_MEM_ID_USOUND);
60066e0c:	b030      	lw	s0,60066ecc <main+0x13c>
60066e0e:	67c5      	move	a2,a1
60066e10:	6c04      	li	a0,4
60066e12:	e840      	jalr	s0
60066e14:	6f48      	li	a3,72
60066e16:	6d00      	li	a1,0

    //销毁共享查询
    if(sys_share_query_destroy(APP_ID_UENGINE) == -1) {
60066e18:	67c5      	move	a2,a1
60066e1a:	6c13      	li	a0,19
60066e1c:	e840      	jalr	s0
60066e1e:	6f44      	li	a3,68
60066e20:	ee4f      	not	a2,v0
60066e22:	2603      	beqz	a2,60066e2a <main+0x9a>
60066e24:	6751      	move	v0,s1
        PRINT_ERR("usound share query destroy fail!\n");
        while(1) {
            ;//do noting
        }
    }

    return result;
}
60066e26:	6474      	restore	32,ra,s0-s1
60066e28:	e8a0      	jrc	ra
60066e2a:	6d00      	li	a1,0
60066e2c:	0c1c      	la	a0,60066e9c <main+0x10c>
60066e2e:	67c5      	move	a2,a1
60066e30:	e840      	jalr	s0
60066e32:	6f4b      	li	a3,75
60066e34:	17ff      	b	60066e34 <main+0xa4>
60066e36:	0000      	addiu	s0,sp,0
60066e38:	453c      	daddiu	s1,a1,-4
60066e3a:	203e      	beqz	s0,60066eb8 <main+0x128>
60066e3c:	7375      	cmpi	v1,117
60066e3e:	756f      	cmpi	a1,111
60066e40:	646e      	restore	112,ra,s0
60066e42:	7320      	cmpi	v1,32
60066e44:	6168      	btnez	60066f16 <main+0x186>
60066e46:	6572      	move	s3,v0
60066e48:	7120      	cmpi	s1,32
60066e4a:	6575      	move	s3,a1
60066e4c:	7972      	sd	v1,144(s1)
60066e4e:	6320      	addiu	sp,256
60066e50:	6572      	move	s3,v0
60066e52:	7461      	cmpi	a0,97
60066e54:	2065      	beqz	s0,60066f20 <main+0x190>
60066e56:	6166      	btnez	60066f24 <main+0x194>
60066e58:	6c69      	li	a0,105
60066e5a:	0a21      	la	v0,60066edc <main+0x14c>
60066e5c:	0000      	addiu	s0,sp,0
60066e5e:	0000      	addiu	s0,sp,0
60066e60:	453c      	daddiu	s1,a1,-4
60066e62:	203e      	beqz	s0,60066ee0 <main+0x150>
60066e64:	7375      	cmpi	v1,117
60066e66:	756f      	cmpi	a1,111
60066e68:	646e      	restore	112,ra,s0
60066e6a:	7320      	cmpi	v1,32
60066e6c:	6d68      	li	a1,104
60066e6e:	6320      	addiu	sp,256
60066e70:	6572      	move	s3,v0
60066e72:	7461      	cmpi	a0,97
60066e74:	2065      	beqz	s0,60066f40 <main+0x1b0>
60066e76:	6166      	btnez	60066f44 <main+0x1b4>
60066e78:	6c69      	li	a0,105
60066e7a:	2121      	beqz	s1,60066ebe <main+0x12e>
60066e7c:	0000      	addiu	s0,sp,0
60066e7e:	0000      	addiu	s0,sp,0
60066e80:	453c      	daddiu	s1,a1,-4
60066e82:	203e      	beqz	s0,60066f00 <main+0x170>
60066e84:	6164      	btnez	60066f4e <main+0x1be>
60066e86:	5f65      	sltiu	a3,101
60066e88:	6663      	0x6663
60066e8a:	2067      	beqz	s0,60066f5a <main+0x1ca>
60066e8c:	6873      	li	s0,115
60066e8e:	206d      	beqz	s0,60066f6a <main+0x1da>
60066e90:	6f6e      	li	a3,110
60066e92:	2074      	beqz	s0,60066f7c <main+0x1ec>
60066e94:	7865      	sd	v1,40(s0)
60066e96:	7369      	cmpi	v1,105
60066e98:	2174      	beqz	s1,60066f82 <main+0x1f2>
60066e9a:	0021      	addiu	s0,sp,132
60066e9c:	453c      	daddiu	s1,a1,-4
60066e9e:	203e      	beqz	s0,60066f1c <main+0x18c>
60066ea0:	7375      	cmpi	v1,117
60066ea2:	756f      	cmpi	a1,111
60066ea4:	646e      	restore	112,ra,s0
60066ea6:	7320      	cmpi	v1,32
60066ea8:	6168      	btnez	60066f7a <main+0x1ea>
60066eaa:	6572      	move	s3,v0
60066eac:	7120      	cmpi	s1,32
60066eae:	6575      	move	s3,a1
60066eb0:	7972      	sd	v1,144(s1)
60066eb2:	6420      	restore	128,s0
60066eb4:	7365      	cmpi	v1,101
60066eb6:	7274      	cmpi	v0,116
60066eb8:	796f      	sd	v1,120(s1)
60066eba:	6620      	0x6620
60066ebc:	6961      	li	s1,97
60066ebe:	216c      	beqz	s1,60066f98 <main+0x208>
60066ec0:	000a      	addiu	s0,sp,40
60066ec2:	0000      	addiu	s0,sp,0
60066ec4:	9580      	lw	a1,512(sp)
60066ec6:	9fc1      	lw	a2,4(a3)
60066ec8:	95bc      	lw	a1,752(sp)
60066eca:	9fc1      	lw	a2,4(a3)
60066ecc:	6011      	bteqz	60066ef0 <main+0x160>
60066ece:	bfc2      	lwu	a2,8(a3)
60066ed0:	607d      	bteqz	60066fcc <main+0x23c>
60066ed2:	bfc2      	lwu	a2,8(a3)
Disassembly of section BANK_CONTROL_1_2:

600a6800 <uengine_message_deal>:
600a6800:	64f5      	save	40,ra,s0-s1
 * \note
 */
/*******************************************************************************/
app_result_e uengine_message_deal(private_msg_t *cur_msg)
{
600a6802:	9c60      	lw	v1,0(a0)
    app_result_e ret_value = RESULT_NULL;

    //消息
    switch(cur_msg->msg.type) {
600a6804:	6a00      	li	v0,0
600a6806:	f401 7301 	cmpi	v1,3073
600a680a:	6704      	move	s0,a0
600a680c:	d204      	sw	v0,16(sp)
600a680e:	6033      	bteqz	600a6876 <uengine_message_deal+0x76>
600a6810:	f401 5b02 	sltiu	v1,3074
600a6814:	6011      	bteqz	600a6838 <uengine_message_deal+0x38>
600a6816:	73f3      	cmpi	v1,243
600a6818:	604c      	bteqz	600a68b2 <uengine_message_deal+0xb2>
600a681a:	5bf4      	sltiu	v1,244
600a681c:	602e      	bteqz	600a687a <uengine_message_deal+0x7a>
600a681e:	73f1      	cmpi	v1,241
600a6820:	604a      	bteqz	600a68b6 <uengine_message_deal+0xb6>
600a6822:	73f2      	cmpi	v1,242
600a6824:	6115      	btnez	600a6850 <uengine_message_deal+0x50>
600a6826:	b236      	lw	v0,600a68fc <uengine_message_deal+0xfc>

        case MSG_APP_QUIT: //退出app
            ret_value = RESULT_APP_QUIT;
            break;

        /* 设置eq*/
        //case MSG_UENGINE_SET_EQ_SYNC:
        case MSG_SET_DAE_CFG_SYNC:
            if(0 == g_uspeaker_24bit) {
                uengine_set_eq(cur_msg);
            }
            uengine_reply_msg(cur_msg, TRUE);
            break;

        /* 获取信息相关*/
        case MSG_UENGINE_GET_STATUS_SYNC:
            uengine_reply_msg(cur_msg, TRUE);
            break;

        /* 播放暂停*/
        case MSG_UENGINE_PLAY_PAUSE_SYNC:
            uengine_play_pause();
            uengine_reply_msg(cur_msg, TRUE);
            break;

        /* 切换下一曲*/
        case MSG_UENGINE_NEXT_SONG_SYNC:
            uengine_next_song();
            uengine_reply_msg(cur_msg, TRUE);
            break;

        /* 切换上一曲*/
        case MSG_UENGINE_PREV_SONG_SYNC:
            uengine_prev_song();
            uengine_reply_msg(cur_msg, TRUE);
            break;

        /* 音量加*/
        case MSG_UENGINE_VOL_ADD_SYNC:
            uengine_vol_add();
            uengine_reply_msg(cur_msg, TRUE);
            break;

        /* 音量减*/
        case MSG_UENGINE_VOL_SUB_SYNC:
            uengine_vol_sub();
            uengine_reply_msg(cur_msg, TRUE);
            break;

        //准备进入TTS播报
        case MSG_TTS_START_SYNC:
        //准备切换音频输出
        case MSG_SWITCH_AOUT_START_SYNC:
            uengine_tts_start();
600a6828:	eac0      	jalrc	v0
600a682a:	b32f      	lw	v1,600a68e4 <uengine_message_deal+0xe4>
            uengine_reply_msg(cur_msg, TRUE);
            break;

        //TTS播报完成
        case MSG_TTS_STOP_SYNC:
        case MSG_SWITCH_AOUT_STOP_SYNC: //完成切换音频输出
            uengine_tts_stop();
            uengine_reply_msg(cur_msg, TRUE);
            break;

        case MSG_UENGINE_VOL_SEND_SYNC:
            g_current_vol = *((uint8 *)cur_msg->msg.content.addr);
            uengine_vol_sync((uint8)g_current_vol);
            uengine_reply_msg(cur_msg, TRUE);
            break;

        default:
            if(0 != g_uspeaker_24bit) {
                break;
            }

            if(cur_msg->msg.type == MSG_PLAYEREG_RECOGNIZE_PAUSE_MUSIC) {
                smart_enter_stop();
            }
            if(cur_msg->msg.type == MSG_PLAYEREG_RECOGNIZE_RESUME_MUSIC) {
                smart_exit_play();
            }
            ret_value = smart_process_message_deal(cur_msg, g_mmm_pp_handle, mmm_pp_cmd, NULL);

            uengine_reply_msg(cur_msg, TRUE);
600a682c:	6790      	move	a0,s0
600a682e:	eb40      	jalr	v1
600a6830:	6d01      	li	a1,1
600a6832:	9204      	lw	v0,16(sp)
            break;
    }

    return ret_value;

}
600a6834:	6475      	restore	40,ra,s0-s1
600a6836:	e8a0      	jrc	ra
600a6838:	f401 7304 	cmpi	v1,3076
600a683c:	60f6      	bteqz	600a682a <uengine_message_deal+0x2a>
600a683e:	f401 5b05 	sltiu	v1,3077
600a6842:	6027      	bteqz	600a6892 <uengine_message_deal+0x92>
600a6844:	f401 7302 	cmpi	v1,3074
600a6848:	603a      	bteqz	600a68be <uengine_message_deal+0xbe>
600a684a:	f401 7303 	cmpi	v1,3075
600a684e:	603b      	bteqz	600a68c6 <uengine_message_deal+0xc6>
600a6850:	b423      	lw	a0,600a68dc <uengine_message_deal+0xdc>
600a6852:	a420      	lbu	s1,0(a0)
600a6854:	29ee      	bnez	s1,600a6832 <uengine_message_deal+0x32>
600a6856:	f201 7304 	cmpi	v1,2564
600a685a:	603c      	bteqz	600a68d4 <uengine_message_deal+0xd4>
600a685c:	f201 7305 	cmpi	v1,2565
600a6860:	6036      	bteqz	600a68ce <uengine_message_deal+0xce>
600a6862:	b62d      	lw	a2,600a6914 <uengine_message_deal+0x114>
600a6864:	6790      	move	a0,s0
600a6866:	9ea0      	lw	a1,0(a2)
600a6868:	b62c      	lw	a2,600a6918 <uengine_message_deal+0x118>
600a686a:	1941 9a2b 	jal	60aa68ac <smart_process_message_deal>
600a686e:	67f1      	move	a3,s1
600a6870:	ea31      	zeh	v0
600a6872:	d204      	sw	v0,16(sp)
600a6874:	17da      	b	600a682a <uengine_message_deal+0x2a>
600a6876:	b21d      	lw	v0,600a68e8 <uengine_message_deal+0xe8>
600a6878:	17d7      	b	600a6828 <uengine_message_deal+0x28>
600a687a:	73f5      	cmpi	v1,245
600a687c:	601a      	bteqz	600a68b2 <uengine_message_deal+0xb2>
600a687e:	5bf5      	sltiu	v1,245
600a6880:	61d2      	btnez	600a6826 <uengine_message_deal+0x26>
600a6882:	73f6      	cmpi	v1,246
600a6884:	61e5      	btnez	600a6850 <uengine_message_deal+0x50>
600a6886:	b616      	lw	a2,600a68dc <uengine_message_deal+0xdc>
600a6888:	a6a0      	lbu	a1,0(a2)
600a688a:	2dcf      	bnez	a1,600a682a <uengine_message_deal+0x2a>
600a688c:	b215      	lw	v0,600a68e0 <uengine_message_deal+0xe0>
600a688e:	eac0      	jalrc	v0
600a6890:	17cc      	b	600a682a <uengine_message_deal+0x2a>
600a6892:	f401 7306 	cmpi	v1,3078
600a6896:	6015      	bteqz	600a68c2 <uengine_message_deal+0xc2>
600a6898:	f401 5b06 	sltiu	v1,3078
600a689c:	6116      	btnez	600a68ca <uengine_message_deal+0xca>
600a689e:	f401 7307 	cmpi	v1,3079
600a68a2:	61d6      	btnez	600a6850 <uengine_message_deal+0x50>
600a68a4:	9c41      	lw	v0,4(a0)
600a68a6:	b718      	lw	a3,600a6904 <uengine_message_deal+0x104>
600a68a8:	a280      	lbu	a0,0(v0)
600a68aa:	b218      	lw	v0,600a6908 <uengine_message_deal+0x108>
600a68ac:	ea40      	jalr	v0
600a68ae:	df80      	sw	a0,0(a3)
600a68b0:	17bc      	b	600a682a <uengine_message_deal+0x2a>
600a68b2:	b214      	lw	v0,600a6900 <uengine_message_deal+0x100>
600a68b4:	17b9      	b	600a6828 <uengine_message_deal+0x28>
600a68b6:	6cff      	li	a0,255
600a68b8:	4461      	addiu	v1,a0,1
600a68ba:	d304      	sw	v1,16(sp)
600a68bc:	17ba      	b	600a6832 <uengine_message_deal+0x32>
600a68be:	b20c      	lw	v0,600a68ec <uengine_message_deal+0xec>
600a68c0:	17b3      	b	600a6828 <uengine_message_deal+0x28>
600a68c2:	b20e      	lw	v0,600a68f8 <uengine_message_deal+0xf8>
600a68c4:	17b1      	b	600a6828 <uengine_message_deal+0x28>
600a68c6:	b20b      	lw	v0,600a68f0 <uengine_message_deal+0xf0>
600a68c8:	17af      	b	600a6828 <uengine_message_deal+0x28>
600a68ca:	b20b      	lw	v0,600a68f4 <uengine_message_deal+0xf4>
600a68cc:	17ad      	b	600a6828 <uengine_message_deal+0x28>
600a68ce:	b211      	lw	v0,600a6910 <uengine_message_deal+0x110>
600a68d0:	eac0      	jalrc	v0
600a68d2:	17c7      	b	600a6862 <uengine_message_deal+0x62>
600a68d4:	b30e      	lw	v1,600a690c <uengine_message_deal+0x10c>
600a68d6:	ebc0      	jalrc	v1
600a68d8:	9860      	lw	v1,0(s0)
600a68da:	17c0      	b	600a685c <uengine_message_deal+0x5c>
600a68dc:	95bc      	lw	a1,752(sp)
600a68de:	9fc1      	lw	a2,4(a3)
600a68e0:	69c9      	li	s1,201
600a68e2:	600a      	bteqz	600a68f8 <uengine_message_deal+0xf8>
600a68e4:	6451      	restore	8,ra,s1
600a68e6:	bfc2      	lwu	a2,8(a3)
600a68e8:	6a05      	li	v0,5
600a68ea:	600a      	bteqz	600a6900 <uengine_message_deal+0x100>
600a68ec:	6a75      	li	v0,117
600a68ee:	600a      	bteqz	600a6904 <uengine_message_deal+0x104>
600a68f0:	6ab9      	li	v0,185
600a68f2:	600a      	bteqz	600a6908 <uengine_message_deal+0x108>
600a68f4:	6afd      	li	v0,253
600a68f6:	600a      	bteqz	600a690c <uengine_message_deal+0x10c>
600a68f8:	6b29      	li	v1,41
600a68fa:	600a      	bteqz	600a6910 <uengine_message_deal+0x110>
600a68fc:	6c51      	li	a0,81
600a68fe:	600a      	bteqz	600a6914 <uengine_message_deal+0x114>
600a6900:	6d25      	li	a1,37
600a6902:	600a      	bteqz	600a6918 <uengine_message_deal+0x118>
600a6904:	9584      	lw	a1,528(sp)
600a6906:	9fc1      	lw	a2,4(a3)
600a6908:	6b55      	li	v1,85
600a690a:	600a      	bteqz	600a6920 <uengine_sync_volume+0x4>
600a690c:	6989      	li	s1,137
600a690e:	600e      	bteqz	600a692c <uengine_sync_volume+0x10>
600a6910:	69f1      	li	s1,241
600a6912:	600e      	bteqz	600a6930 <uengine_sync_volume+0x14>
600a6914:	95d8      	lw	a1,864(sp)
600a6916:	9fc1      	lw	a2,4(a3)
600a6918:	600d      	bteqz	600a6934 <uengine_sync_volume+0x18>
600a691a:	bfc2      	lwu	a2,8(a3)

600a691c <uengine_sync_volume>:
600a691c:	64f4      	save	32,ra,s0-s1
 * \note         uengine_event_deal.c
 */
/*******************************************************************************/
app_result_e uengine_sync_volume(uint32 volume, uint8 mode)
{
600a691e:	ed11      	zeb	a1
600a6920:	7501      	cmpi	a1,1
    app_result_e ret_value = RESULT_NULL;

    uint32 set_vol;
    if(mode == 1) {
600a6922:	6724      	move	s1,a0
        set_vol = volume;
600a6924:	600c      	bteqz	600a693e <.L3>
600a6926:	f3bc 6a00 	li	v0,58272
        goto set_true_vol;
    }

    //PRINT_INFO_INT("volsync", volume);

    //syn volume
    if((volume >= 0xe3a0) && (volume <= 0xfff0)) {
600a692a:	ea4b      	neg	v0
600a692c:	e449      	addu	v0,a0,v0
600a692e:	f443 5a11 	sltiu	v0,7249
600a6932:	6020      	bteqz	600a6974 <.L3+0x36>
600a6934:	b417      	lw	a0,600a6990 <.L3+0x52>
        set_vol = ((volume - 0xe3a0) / 226);
600a6936:	3546      	srl	a1,v0,1
600a6938:	ed99      	multu	a1,a0
600a693a:	eb10      	mfhi	v1
600a693c:	3176      	srl	s1,v1,5

600a693e <.L3>:
600a693e:	5920      	sltiu	s1,32
    } else if(volume < 0xe3a0) {
        set_vol = 0;
    } else {
        set_vol = VOLUME_VALUE_MAX;
    }
set_true_vol:
    if(set_vol > VOLUME_VALUE_MAX) {
600a6940:	6101      	btnez	600a6944 <.L3+0x6>
600a6942:	691f      	li	s1,31
        set_vol = VOLUME_VALUE_MAX;
600a6944:	b014      	lw	s0,600a6994 <.L3+0x56>
    }

    PRINT_INFO_INT("volset", set_vol);
600a6946:	67b1      	move	a1,s1
600a6948:	0c0f      	la	a0,600a6984 <.L3+0x46>
600a694a:	6e02      	li	a2,2
600a694c:	e840      	jalr	s0
600a694e:	6f4b      	li	a3,75
600a6950:	b012      	lw	s0,600a6998 <.L3+0x5a>
    //send asyn volume
    g_cur_play_status_p->change_vol_val = set_vol;
600a6952:	6d00      	li	a1,0

    //更新共享内存
    g_cur_play_status_p = sys_share_query_update(APP_ID_UENGINE);
600a6954:	9880      	lw	a0,0(s0)
600a6956:	b310      	lw	v1,600a6994 <.L3+0x56>
600a6958:	dc21      	sw	s1,4(a0)
600a695a:	67c5      	move	a2,a1
600a695c:	6c13      	li	a0,19
600a695e:	eb40      	jalr	v1
600a6960:	6f46      	li	a3,70
600a6962:	d840      	sw	v0,0(s0)
600a6964:	b20e      	lw	v0,600a699c <.L3+0x5e>

    g_share_ptr->vol_flag = 1;
600a6966:	6f01      	li	a3,1
600a6968:	9a60      	lw	v1,0(v0)
600a696a:	474f      	addiu	v0,a3,-1

    g_share_ptr->vol_val = set_vol;

    return ret_value;

}
600a696c:	dbe0      	sw	a3,0(v1)
600a696e:	db21      	sw	s1,4(v1)
600a6970:	6474      	restore	32,ra,s0-s1
600a6972:	e8a0      	jrc	ra
600a6974:	f39c 6e1f 	li	a2,58271
600a6978:	ee83      	sltu	a2,a0
600a697a:	6900      	li	s1,0
600a697c:	60e3      	bteqz	600a6944 <.L3+0x6>
600a697e:	491f      	addiu	s1,31
600a6980:	17e1      	b	600a6944 <.L3+0x6>
600a6982:	0000      	addiu	s0,sp,0
600a6984:	493c      	addiu	s1,60
600a6986:	203e      	beqz	s0,600a6a04 <uengine_play_pause>
600a6988:	6f76      	li	a3,118
600a698a:	736c      	cmpi	v1,108
600a698c:	7465      	cmpi	a0,101
600a698e:	0000      	addiu	s0,sp,0
600a6990:	de05      	sw	s0,20(a2)
600a6992:	487e      	addiu	s0,126
600a6994:	6011      	bteqz	600a69b8 <uengine_switch_deal+0x18>
600a6996:	bfc2      	lwu	a2,8(a3)
600a6998:	95c8      	lw	a1,800(sp)
600a699a:	9fc1      	lw	a2,4(a3)
600a699c:	95d0      	lw	a1,832(sp)
600a699e:	9fc1      	lw	a2,4(a3)

600a69a0 <uengine_switch_deal>:
600a69a0:	64f4      	save	32,ra,s0-s1


/******************************************************************************/
/*!
 * \par  Description:
 * \app_result_e uengine_set_volume(private_msg_t* cur_msg,uint32 volume)
 * \处理音量调节
 * \param[in]    private_msg_t* cur_msg
 * \param[out]   none
 * \return       int the result
 * \retval       RESULT_IGNOR 忽略
 * \retval       RESULT_APP_QUIT 退出app
 * \note         uengine_event_deal.c
 */
/*******************************************************************************/
app_result_e uengine_switch_deal(void)
{
600a69a2:	b108      	lw	s1,600a69c0 <uengine_switch_deal+0x20>
    app_result_e ret_value = RESULT_NULL;


    //send asyn volume
    g_cur_play_status_p->switch_flag = 1;
600a69a4:	6800      	li	s0,0
600a69a6:	9960      	lw	v1,0(s1)
600a69a8:	6c01      	li	a0,1
600a69aa:	b207      	lw	v0,600a69c4 <uengine_switch_deal+0x24>

    //更新共享内存
    g_cur_play_status_p = sys_share_query_update(APP_ID_UENGINE);
600a69ac:	cb85      	sh	a0,10(v1)
600a69ae:	67b0      	move	a1,s0
600a69b0:	6c13      	li	a0,19
600a69b2:	67d0      	move	a2,s0
600a69b4:	ea40      	jalr	v0
600a69b6:	6f46      	li	a3,70
600a69b8:	d940      	sw	v0,0(s1)
600a69ba:	6750      	move	v0,s0

    return ret_value;

}
600a69bc:	6474      	restore	32,ra,s0-s1
600a69be:	e8a0      	jrc	ra
600a69c0:	95c8      	lw	a1,800(sp)
600a69c2:	9fc1      	lw	a2,4(a3)
600a69c4:	6011      	bteqz	600a69e8 <uengine_set_eq+0x20>
600a69c6:	bfc2      	lwu	a2,8(a3)

600a69c8 <uengine_set_eq>:
600a69c8:	64c3      	save	24,ra

/******************************************************************************/
/*!
 * \par  Description:
 * \app_result_e uengine_set_eq(private_msg_t* cur_msg)
 * \处理eq 设置
 * \param[in]    private_msg_t* cur_msg
 * \param[out]   none
 * \return       int the result
 * \retval       RESULT_IGNOR 忽略
 * \retval       RESULT_APP_QUIT 退出app
 * \note         uengine_event_deal.c
 */
/*******************************************************************************/
app_result_e uengine_set_eq(private_msg_t *cur_msg)
{
600a69ca:	b40b      	lw	a0,600a69f4 <uengine_set_eq+0x2c>
    app_result_e ret_value = RESULT_NULL;

    //private_msg_t* data_ptr = (private_msg_t*) cur_msg;

    adjust_freq_add_value(0, g_dae_cfg_shm->run_freq);
600a69cc:	b20b      	lw	v0,600a69f8 <uengine_set_eq+0x30>
600a69ce:	9c60      	lw	v1,0(a0)
600a69d0:	6e01      	li	a2,1
600a69d2:	a3b6      	lbu	a1,22(v1)
600a69d4:	6c00      	li	a0,0
600a69d6:	ea40      	jalr	v0
600a69d8:	6f03      	li	a3,3
600a69da:	b209      	lw	v0,600a69fc <uengine_set_eq+0x34>

    if(g_mmm_pp_handle != NULL) {
600a69dc:	9a80      	lw	a0,0(v0)
600a69de:	2c03      	bnez	a0,600a69e6 <uengine_set_eq+0x1e>
600a69e0:	6a00      	li	v0,0
        mmm_pp_cmd(g_mmm_pp_handle, MMM_PP_SET_EQ, (unsigned int) NULL);
    }

    return ret_value;

}
600a69e2:	6443      	restore	24,ra
600a69e4:	e8a0      	jrc	ra
600a69e6:	b207      	lw	v0,600a6a00 <uengine_set_eq+0x38>
600a69e8:	6d14      	li	a1,20
600a69ea:	ea40      	jalr	v0
600a69ec:	6e00      	li	a2,0
600a69ee:	6a00      	li	v0,0
600a69f0:	6443      	restore	24,ra
600a69f2:	e8a0      	jrc	ra
600a69f4:	95cc      	lw	a1,816(sp)
600a69f6:	9fc1      	lw	a2,4(a3)
600a69f8:	6005      	bteqz	600a6a04 <uengine_play_pause>
600a69fa:	bfc2      	lwu	a2,8(a3)
600a69fc:	95d8      	lw	a1,864(sp)
600a69fe:	9fc1      	lw	a2,4(a3)
600a6a00:	600d      	bteqz	600a6a1c <uengine_play_pause+0x18>
600a6a02:	bfc2      	lwu	a2,8(a3)

600a6a04 <uengine_play_pause>:
600a6a04:	64f4      	save	32,ra,s0-s1

/******************************************************************************/
/*!
 * \par  Description:
 * \app_result_e uengine_play_pause(void)
 * \播放暂停
 * \param[in]
 * \param[out]   none
 * \return       int the result
 * \retval       RESULT_IGNOR 忽略
 * \retval       RESULT_APP_QUIT 退出app
 * \note         uengine_event_deal.c
 */
/*******************************************************************************/
app_result_e uengine_play_pause(void)
{
600a6a06:	b316      	lw	v1,600a6a5c <uengine_play_pause+0x58>

    if((g_stop_by_tts == 0) && (g_status_data.start_play == 0)) {
600a6a08:	9b40      	lw	v0,0(v1)
600a6a0a:	2a03      	bnez	v0,600a6a12 <uengine_play_pause+0xe>
600a6a0c:	b115      	lw	s1,600a6a60 <uengine_play_pause+0x5c>
600a6a0e:	9906      	lw	s0,24(s1)
600a6a10:	200b      	beqz	s0,600a6a28 <uengine_play_pause+0x24>
600a6a12:	b217      	lw	v0,600a6a6c <uengine_play_pause+0x68>
        //libc_print("no tts enter",0,0);

        uegine_player_close();
        g_ain_out_setting.dac_sample = (int32) g_status_data.sample_rate;

        g_ain_out_setting.adc_sample = (int32) g_status_data.sample_rate;

        //need set namual stop flag
        ud_set_cmd(SET_PLAY_FLAG, 1);

        uegine_player_open();
    }

    //hid report change is ok
    ud_set_cmd(SET_HID_OPERS, 0x08);
600a6a14:	6c01      	li	a0,1
600a6a16:	6d08      	li	a1,8
600a6a18:	6e00      	li	a2,0
600a6a1a:	ea40      	jalr	v0
600a6a1c:	6f06      	li	a3,6
600a6a1e:	b610      	lw	a2,600a6a5c <uengine_play_pause+0x58>

    //cur status
    /*if (g_status_data.start_play == 0)
     {
     //need clear namual stop flag
     ud_set_cmd(SET_PLAY_FLAG, 0);
     }
     else
     {

     //need set namual stop flag
     ud_set_cmd(SET_PLAY_FLAG, 1);
     }*/

    g_stop_by_tts = 0;
600a6a20:	6a00      	li	v0,0
600a6a22:	de40      	sw	v0,0(a2)
600a6a24:	6474      	restore	32,ra,s0-s1

    return RESULT_NULL;
}
600a6a26:	e8a0      	jrc	ra
600a6a28:	b30f      	lw	v1,600a6a60 <uengine_play_pause+0x5c>
600a6a2a:	ebc0      	jalrc	v1
600a6a2c:	99a3      	lw	a1,12(s1)
600a6a2e:	b40f      	lw	a0,600a6a68 <uengine_play_pause+0x64>
600a6a30:	b20f      	lw	v0,600a6a6c <uengine_play_pause+0x68>
600a6a32:	67d0      	move	a2,s0
600a6a34:	dca2      	sw	a1,8(a0)
600a6a36:	dca5      	sw	a1,20(a0)
600a6a38:	6f06      	li	a3,6
600a6a3a:	6790      	move	a0,s0
600a6a3c:	ea40      	jalr	v0
600a6a3e:	6d01      	li	a1,1
600a6a40:	b20c      	lw	v0,600a6a70 <uengine_play_pause+0x6c>
600a6a42:	eac0      	jalrc	v0
600a6a44:	b20a      	lw	v0,600a6a68 <uengine_play_pause+0x64>
600a6a46:	6c01      	li	a0,1
600a6a48:	6d08      	li	a1,8
600a6a4a:	6e00      	li	a2,0
600a6a4c:	ea40      	jalr	v0
600a6a4e:	6f06      	li	a3,6
600a6a50:	b603      	lw	a2,600a6a5c <uengine_play_pause+0x58>
600a6a52:	6a00      	li	v0,0
600a6a54:	de40      	sw	v0,0(a2)
600a6a56:	6474      	restore	32,ra,s0-s1
600a6a58:	e8a0      	jrc	ra
600a6a5a:	0000      	addiu	s0,sp,0
600a6a5c:	959c      	lw	a1,624(sp)
600a6a5e:	9fc1      	lw	a2,4(a3)
600a6a60:	962c      	lw	a2,176(sp)
600a6a62:	9fc1      	lw	a2,4(a3)
600a6a64:	68e1      	li	s0,225
600a6a66:	600e      	bteqz	600a6a84 <uengine_next_song+0x10>
600a6a68:	9608      	lw	a2,32(sp)
600a6a6a:	9fc1      	lw	a2,4(a3)
600a6a6c:	6015      	bteqz	600a6a98 <uengine_next_song+0x24>
600a6a6e:	bfc2      	lwu	a2,8(a3)
600a6a70:	6801      	li	s0,1
600a6a72:	600e      	bteqz	600a6a90 <uengine_next_song+0x1c>

600a6a74 <uengine_next_song>:
600a6a74:	64c3      	save	24,ra

/******************************************************************************/
/*!
 * \par  Description:
 * \app_result_e uengine_next_song(void)
 * \下一曲
 * \param[in]
 * \param[out]   none
 * \return       int the result
 * \retval       RESULT_IGNOR 忽略
 * \retval       RESULT_APP_QUIT 退出app
 * \note         uengine_event_deal.c
 */
/*******************************************************************************/
app_result_e uengine_next_song(void)
{
600a6a76:	b20c      	lw	v0,600a6aa4 <uengine_next_song+0x30>
    //hid report change is ok
    ud_set_cmd(SET_HID_OPERS, 0x10);
600a6a78:	6c01      	li	a0,1
600a6a7a:	6d10      	li	a1,16
600a6a7c:	6e00      	li	a2,0
600a6a7e:	ea40      	jalr	v0
600a6a80:	6f06      	li	a3,6
600a6a82:	b30b      	lw	v1,600a6aac <uengine_next_song+0x38>

    g_stop_by_tts = 0;

    g_auto_play_count = 0;
600a6a84:	6c00      	li	a0,0
600a6a86:	db80      	sw	a0,0(v1)
600a6a88:	b30a      	lw	v1,600a6ab0 <uengine_next_song+0x3c>

    if(g_switch_song_flag != 0xff) {
600a6a8a:	b508      	lw	a1,600a6aa8 <uengine_next_song+0x34>
600a6a8c:	a340      	lbu	v0,0(v1)
600a6a8e:	dd80      	sw	a0,0(a1)
600a6a90:	72ff      	cmpi	v0,255
600a6a92:	6001      	bteqz	600a6a96 <uengine_next_song+0x22>
600a6a94:	c380      	sb	a0,0(v1)
        g_switch_song_flag = 0;
600a6a96:	b608      	lw	a2,600a6ab4 <uengine_next_song+0x40>
    }

    g_auto_play_flag = 1;
600a6a98:	6f01      	li	a3,1
600a6a9a:	6744      	move	v0,a0

    return RESULT_NULL;
}
600a6a9c:	c6e0      	sb	a3,0(a2)
600a6a9e:	6443      	restore	24,ra
600a6aa0:	e8a0      	jrc	ra
600a6aa2:	0000      	addiu	s0,sp,0
600a6aa4:	6015      	bteqz	600a6ad0 <uengine_prev_song+0x18>
600a6aa6:	bfc2      	lwu	a2,8(a3)
600a6aa8:	959c      	lw	a1,624(sp)
600a6aaa:	9fc1      	lw	a2,4(a3)
600a6aac:	95b4      	lw	a1,720(sp)
600a6aae:	9fc1      	lw	a2,4(a3)
600a6ab0:	95a4      	lw	a1,656(sp)
600a6ab2:	9fc1      	lw	a2,4(a3)
600a6ab4:	95be      	lw	a1,760(sp)
600a6ab6:	9fc1      	lw	a2,4(a3)

600a6ab8 <uengine_prev_song>:
600a6ab8:	64c3      	save	24,ra

/******************************************************************************/
/*!
 * \par  Description:
 * \app_result_e uengine_prev_song(void)
 * \上一曲
 * \param[in]
 * \param[out]   none
 * \return       int the result
 * \retval       RESULT_IGNOR 忽略
 * \retval       RESULT_APP_QUIT 退出app
 * \note         uengine_event_deal.c
 */
/*******************************************************************************/
app_result_e uengine_prev_song(void)
{
600a6aba:	b20c      	lw	v0,600a6ae8 <uengine_prev_song+0x30>
    //hid report change is ok
    ud_set_cmd(SET_HID_OPERS, 0x20);
600a6abc:	6c01      	li	a0,1
600a6abe:	6d20      	li	a1,32
600a6ac0:	6e00      	li	a2,0
600a6ac2:	ea40      	jalr	v0
600a6ac4:	6f06      	li	a3,6
600a6ac6:	b30b      	lw	v1,600a6af0 <uengine_prev_song+0x38>

    g_stop_by_tts = 0;

    g_auto_play_count = 0;
600a6ac8:	6c00      	li	a0,0
600a6aca:	db80      	sw	a0,0(v1)
600a6acc:	b30a      	lw	v1,600a6af4 <uengine_prev_song+0x3c>

    if(g_switch_song_flag != 0xff) {
600a6ace:	b508      	lw	a1,600a6aec <uengine_prev_song+0x34>
600a6ad0:	a340      	lbu	v0,0(v1)
600a6ad2:	dd80      	sw	a0,0(a1)
600a6ad4:	72ff      	cmpi	v0,255
600a6ad6:	6001      	bteqz	600a6ada <uengine_prev_song+0x22>
600a6ad8:	c380      	sb	a0,0(v1)
        g_switch_song_flag = 0;
600a6ada:	b608      	lw	a2,600a6af8 <uengine_prev_song+0x40>
    }

    g_auto_play_flag = 1;
600a6adc:	6f01      	li	a3,1
600a6ade:	6744      	move	v0,a0

    return RESULT_NULL;
}
600a6ae0:	c6e0      	sb	a3,0(a2)
600a6ae2:	6443      	restore	24,ra
600a6ae4:	e8a0      	jrc	ra
600a6ae6:	0000      	addiu	s0,sp,0
600a6ae8:	6015      	bteqz	600a6b14 <uengine_vol_add+0x18>
600a6aea:	bfc2      	lwu	a2,8(a3)
600a6aec:	959c      	lw	a1,624(sp)
600a6aee:	9fc1      	lw	a2,4(a3)
600a6af0:	95b4      	lw	a1,720(sp)
600a6af2:	9fc1      	lw	a2,4(a3)
600a6af4:	95a4      	lw	a1,656(sp)
600a6af6:	9fc1      	lw	a2,4(a3)
600a6af8:	95be      	lw	a1,760(sp)
600a6afa:	9fc1      	lw	a2,4(a3)

600a6afc <uengine_vol_add>:
600a6afc:	64e3      	save	24,ra,s0

/******************************************************************************/
/*!
 * \par  Description:
 * \app_result_e uengine_vol_add(void)
 * \调大音量
 * \param[in]
 * \param[out]   none
 * \return       int the result
 * \retval       RESULT_IGNOR 忽略
 * \retval       RESULT_APP_QUIT 退出app
 * \note         uengine_event_deal.c
 */
/*******************************************************************************/
app_result_e uengine_vol_add(void)
{
600a6afe:	6c01      	li	a0,1

    //hid report change is ok
    ud_set_cmd(SET_HID_OPERS, 0x01);
600a6b00:	b008      	lw	s0,600a6b20 <uengine_vol_add+0x24>
600a6b02:	67a4      	move	a1,a0
600a6b04:	6e00      	li	a2,0
600a6b06:	e840      	jalr	s0
600a6b08:	6f06      	li	a3,6
600a6b0a:	6c00      	li	a0,0

    ud_hid_deal();
600a6b0c:	67a4      	move	a1,a0
600a6b0e:	67c4      	move	a2,a0
600a6b10:	e840      	jalr	s0
600a6b12:	6f07      	li	a3,7
600a6b14:	b304      	lw	v1,600a6b24 <uengine_vol_add+0x28>

    g_stop_by_tts = 0;
600a6b16:	6a00      	li	v0,0
600a6b18:	db40      	sw	v0,0(v1)
600a6b1a:	6463      	restore	24,ra,s0

    return RESULT_NULL;
}
600a6b1c:	e8a0      	jrc	ra
600a6b1e:	0000      	addiu	s0,sp,0
600a6b20:	6015      	bteqz	600a6b4c <uengine_vol_sub+0x24>
600a6b22:	bfc2      	lwu	a2,8(a3)
600a6b24:	959c      	lw	a1,624(sp)
600a6b26:	9fc1      	lw	a2,4(a3)

600a6b28 <uengine_vol_sub>:
600a6b28:	64e3      	save	24,ra,s0

/******************************************************************************/
/*!
 * \par  Description:
 * \app_result_e uengine_vol_sub(void)
 * \调小音量
 * \param[in]
 * \param[out]   none
 * \return       int the result
 * \retval       RESULT_IGNOR 忽略
 * \retval       RESULT_APP_QUIT 退出app
 * \note         uengine_event_deal.c
 */
/*******************************************************************************/
app_result_e uengine_vol_sub(void)
{
600a6b2a:	b009      	lw	s0,600a6b4c <uengine_vol_sub+0x24>

    //hid report change is ok
    ud_set_cmd(SET_HID_OPERS, 0x02);
600a6b2c:	6c01      	li	a0,1
600a6b2e:	6d02      	li	a1,2
600a6b30:	6e00      	li	a2,0
600a6b32:	e840      	jalr	s0
600a6b34:	6f06      	li	a3,6
600a6b36:	6c00      	li	a0,0

    ud_hid_deal();
600a6b38:	67a4      	move	a1,a0
600a6b3a:	67c4      	move	a2,a0
600a6b3c:	e840      	jalr	s0
600a6b3e:	6f07      	li	a3,7
600a6b40:	b304      	lw	v1,600a6b50 <uengine_vol_sub+0x28>

    g_stop_by_tts = 0;
600a6b42:	6a00      	li	v0,0
600a6b44:	db40      	sw	v0,0(v1)
600a6b46:	6463      	restore	24,ra,s0

    return RESULT_NULL;
}
600a6b48:	e8a0      	jrc	ra
600a6b4a:	0000      	addiu	s0,sp,0
600a6b4c:	6015      	bteqz	600a6b78 <uengine_vol_sync+0x24>
600a6b4e:	bfc2      	lwu	a2,8(a3)
600a6b50:	959c      	lw	a1,624(sp)
600a6b52:	9fc1      	lw	a2,4(a3)

600a6b54 <uengine_vol_sync>:
600a6b54:	64f5      	save	40,ra,s0-s1
/******************************************************************************/
/*!
 * \par  Description:
 * \app_result_e uengine_vol_sub(void)
 * \音量同步
 * \param[in]
 * \param[out]   none
 * \return       int the result
 * \retval       RESULT_IGNOR 忽略
 * \retval       RESULT_APP_QUIT 退出app
 * \note         uengine_event_deal.c
 */
/*******************************************************************************/
app_result_e uengine_vol_sync(uint8 vol)
{
600a6b56:	ec11      	zeb	a0
600a6b58:	6d00      	li	a1,0
    int8 vol_sync_cnt = 0;
600a6b5a:	2402      	beqz	a0,600a6b60 <uengine_vol_sync+0xc>
    uint8 symbol = 0;
    uint8 i = 0;

    //libc_print("vol__",vol,2);

    if((vol == 0) || (vol == 31)) {
600a6b5c:	741f      	cmpi	a0,31
600a6b5e:	6103      	btnez	600a6b66 <uengine_vol_sync+0x12>
600a6b60:	b237      	lw	v0,600a6c3c <uengine_vol_sync+0xe8>
        g_force_equ = 1;
600a6b62:	6b01      	li	v1,1
600a6b64:	c260      	sb	v1,0(v0)
600a6b66:	b237      	lw	v0,600a6c40 <uengine_vol_sync+0xec>
    }
#if 0
    if(vol == 0) {
        for(i = 0; i < 25; i ++) {
            ud_set_cmd(SET_HID_OPERS, 0x02);

            ud_hid_deal();

            ud_set_cmd(SET_HID_OPERS, 0x00);

            ud_hid_deal();
        }
    } else if(vol == 31) {
        for(i = 0; i < 25; i ++) {
            ud_set_cmd(SET_HID_OPERS, 0x01);

            ud_hid_deal();

            ud_set_cmd(SET_HID_OPERS, 0x00);

            ud_hid_deal();
        }
    } else
#endif
    {
        vol_sync_cnt = ((int8)vol - (int8)g_cur_play_status_p->change_vol_val);
600a6b68:	9a20      	lw	s1,0(v0)
600a6b6a:	99e1      	lw	a3,4(s1)
600a6b6c:	e4fb      	subu	a2,a0,a3
600a6b6e:	6786      	move	a0,a2
600a6b70:	ec91      	seb	a0
600a6b72:	5400      	slti	a0,0
        if(vol_sync_cnt < 0) {
600a6b74:	615d      	btnez	600a6c30 <uengine_vol_sync+0xdc>
600a6b76:	f7c0 3782 	srl	a3,a0,31
            symbol = 1;
            vol_sync_cnt = 0 - vol_sync_cnt;
        }
        //if(vol_sync_cnt >= 15)
        {
            vol_sync_cnt = vol_sync_cnt / 2;
600a6b7a:	e4f9      	addu	a2,a0,a3
600a6b7c:	32c7      	sra	v0,a2,1
600a6b7e:	d204      	sw	v0,16(sp)
600a6b80:	2a02      	bnez	v0,600a6b86 <uengine_vol_sync+0x32>
        }
        if(vol_sync_cnt == 0) {
600a6b82:	4281      	addiu	a0,v0,1
            vol_sync_cnt = 1;
600a6b84:	d404      	sw	a0,16(sp)
600a6b86:	2d2a      	bnez	a1,600a6bdc <uengine_vol_sync+0x88>
        }
        //libc_print("adjust cnt:",vol_sync_cnt,2);
        if(symbol == 0) {
600a6b88:	6725      	move	s1,a1
            for(i = 0; i < (vol_sync_cnt); i ++) {
600a6b8a:	9504      	lw	a1,16(sp)
600a6b8c:	e9a2      	slt	s1,a1
600a6b8e:	601b      	bteqz	600a6bc6 <uengine_vol_sync+0x72>
600a6b90:	b02d      	lw	s0,600a6c44 <uengine_vol_sync+0xf0>
600a6b92:	6c01      	li	a0,1
                ud_set_cmd(SET_HID_OPERS, 0x01);
600a6b94:	67a4      	move	a1,a0
600a6b96:	6e00      	li	a2,0
600a6b98:	e840      	jalr	s0
600a6b9a:	6f06      	li	a3,6
600a6b9c:	6c00      	li	a0,0

                ud_hid_deal();
600a6b9e:	67a4      	move	a1,a0
600a6ba0:	67c4      	move	a2,a0
600a6ba2:	e840      	jalr	s0
600a6ba4:	6f07      	li	a3,7
600a6ba6:	6d00      	li	a1,0

                ud_set_cmd(SET_HID_OPERS, 0x00);
600a6ba8:	67c5      	move	a2,a1
600a6baa:	6c01      	li	a0,1
600a6bac:	e840      	jalr	s0
600a6bae:	6f06      	li	a3,6
600a6bb0:	6c00      	li	a0,0

                ud_hid_deal();
600a6bb2:	67a4      	move	a1,a0
600a6bb4:	67c4      	move	a2,a0
600a6bb6:	e840      	jalr	s0
600a6bb8:	6f07      	li	a3,7
600a6bba:	4161      	addiu	v1,s1,1
600a6bbc:	6723      	move	s1,v1
600a6bbe:	9204      	lw	v0,16(sp)
600a6bc0:	e911      	zeb	s1
600a6bc2:	e942      	slt	s1,v0
600a6bc4:	61e6      	btnez	600a6b92 <uengine_vol_sync+0x3e>
600a6bc6:	6c00      	li	a0,0
            }
        } else {
            for(i = 0; i < (vol_sync_cnt); i ++) {
                ud_set_cmd(SET_HID_OPERS, 0x02);

                ud_hid_deal();

                ud_set_cmd(SET_HID_OPERS, 0x00);

                ud_hid_deal();
            }
        }
    }

    g_vol_sync_timer = sys_get_ab_timer();
600a6bc8:	b221      	lw	v0,600a6c4c <uengine_vol_sync+0xf8>
600a6bca:	67a4      	move	a1,a0
600a6bcc:	67c4      	move	a2,a0
600a6bce:	ea40      	jalr	v0
600a6bd0:	6f1c      	li	a3,28
600a6bd2:	b51e      	lw	a1,600a6c48 <uengine_vol_sync+0xf4>
600a6bd4:	dd40      	sw	v0,0(a1)
600a6bd6:	6a00      	li	v0,0

    return RESULT_NULL;
}
600a6bd8:	6475      	restore	40,ra,s0-s1
600a6bda:	e8a0      	jrc	ra
600a6bdc:	9604      	lw	a2,16(sp)
600a6bde:	6900      	li	s1,0
600a6be0:	e9c2      	slt	s1,a2
600a6be2:	60f1      	bteqz	600a6bc6 <uengine_vol_sync+0x72>
600a6be4:	b018      	lw	s0,600a6c44 <uengine_vol_sync+0xf0>
600a6be6:	6c01      	li	a0,1
600a6be8:	6d02      	li	a1,2
600a6bea:	6e00      	li	a2,0
600a6bec:	e840      	jalr	s0
600a6bee:	6f06      	li	a3,6
600a6bf0:	6c00      	li	a0,0
600a6bf2:	67a4      	move	a1,a0
600a6bf4:	67c4      	move	a2,a0
600a6bf6:	e840      	jalr	s0
600a6bf8:	6f07      	li	a3,7
600a6bfa:	6d00      	li	a1,0
600a6bfc:	67c5      	move	a2,a1
600a6bfe:	6c01      	li	a0,1
600a6c00:	e840      	jalr	s0
600a6c02:	6f06      	li	a3,6
600a6c04:	6c00      	li	a0,0
600a6c06:	67a4      	move	a1,a0
600a6c08:	67c4      	move	a2,a0
600a6c0a:	e840      	jalr	s0
600a6c0c:	6f07      	li	a3,7
600a6c0e:	4181      	addiu	a0,s1,1
600a6c10:	6724      	move	s1,a0
600a6c12:	9704      	lw	a3,16(sp)
600a6c14:	e911      	zeb	s1
600a6c16:	e9e2      	slt	s1,a3
600a6c18:	61e6      	btnez	600a6be6 <uengine_vol_sync+0x92>
600a6c1a:	6c00      	li	a0,0
600a6c1c:	b20c      	lw	v0,600a6c4c <uengine_vol_sync+0xf8>
600a6c1e:	67a4      	move	a1,a0
600a6c20:	67c4      	move	a2,a0
600a6c22:	ea40      	jalr	v0
600a6c24:	6f1c      	li	a3,28
600a6c26:	b509      	lw	a1,600a6c48 <uengine_vol_sync+0xf4>
600a6c28:	dd40      	sw	v0,0(a1)
600a6c2a:	6a00      	li	v0,0
600a6c2c:	6475      	restore	40,ra,s0-s1
600a6c2e:	e8a0      	jrc	ra
600a6c30:	eb8b      	neg	v1,a0
600a6c32:	6783      	move	a0,v1
600a6c34:	6d01      	li	a1,1
600a6c36:	ec91      	seb	a0
600a6c38:	179e      	b	600a6b76 <uengine_vol_sync+0x22>
600a6c3a:	0000      	addiu	s0,sp,0
600a6c3c:	95ac      	lw	a1,688(sp)
600a6c3e:	9fc1      	lw	a2,4(a3)
600a6c40:	95c8      	lw	a1,800(sp)
600a6c42:	9fc1      	lw	a2,4(a3)
600a6c44:	6015      	bteqz	600a6c70 <uengine_tts_start+0x20>
600a6c46:	bfc2      	lwu	a2,8(a3)
600a6c48:	95a8      	lw	a1,672(sp)
600a6c4a:	9fc1      	lw	a2,4(a3)
600a6c4c:	6011      	bteqz	600a6c70 <uengine_tts_start+0x20>
600a6c4e:	bfc2      	lwu	a2,8(a3)

600a6c50 <uengine_tts_start>:
600a6c50:	64f4      	save	32,ra,s0-s1

/******************************************************************************/
/*!
 * \par  Description:
 * \app_result_e uengine_tts_start(void)
 * \开始tts,需要做好互斥
 * \param[in]
 * \param[out]   none
 * \return       int the result
 * \retval       RESULT_IGNOR 忽略
 * \retval       RESULT_APP_QUIT 退出app
 * \note         uengine_event_deal.c
 */
/*******************************************************************************/
app_result_e uengine_tts_start(void)
{
600a6c52:	6d00      	li	a1,0

    ud_get_status(&g_status_data);
600a6c54:	b42b      	lw	a0,600a6d00 <.LBE2+0x2e>
600a6c56:	b02c      	lw	s0,600a6d04 <.LBE2+0x32>
600a6c58:	67c5      	move	a2,a1
600a6c5a:	e840      	jalr	s0
600a6c5c:	67e5      	move	a3,a1
600a6c5e:	b32b      	lw	v1,600a6d08 <.LBE2+0x36>
    if(1 == g_uspeaker_24bit) {
600a6c60:	a340      	lbu	v0,0(v1)
600a6c62:	7201      	cmpi	v0,1
600a6c64:	6109      	btnez	600a6c78 <uengine_tts_start+0x28>
600a6c66:	b52a      	lw	a1,600a6d0c <.LBE2+0x3a>
        if(g_pa_type == 1) {
600a6c68:	a580      	lbu	a0,0(a1)
600a6c6a:	7401      	cmpi	a0,1
600a6c6c:	603c      	bteqz	600a6ce6 <.LBE2+0x14>
600a6c6e:	6c0a      	li	a0,10
            ccd_i2s_pa_set_clock(44);
        }

        ud_set_cmd(SET_USPEAKER_24BIT, USPEAKER24_TTS_START);
600a6c70:	6d03      	li	a1,3
600a6c72:	6e00      	li	a2,0
600a6c74:	e840      	jalr	s0
600a6c76:	6f06      	li	a3,6
600a6c78:	b123      	lw	s1,600a6d04 <.LBE2+0x32>
    }

    ud_set_cmd(SET_TTS_FLAG, 1);
600a6c7a:	6e00      	li	a2,0
600a6c7c:	6f06      	li	a3,6
600a6c7e:	6c09      	li	a0,9
600a6c80:	e940      	jalr	s1
600a6c82:	6d01      	li	a1,1
600a6c84:	b224      	lw	v0,600a6d14 <.LBE2+0x42>

    //stop mmm player
    uegine_player_close();
600a6c86:	eac0      	jalrc	v0
600a6c88:	b71e      	lw	a3,600a6cfc <.LBE2+0x2a>

    //if play stop usound play
    if(g_status_data.start_play == 1) {
600a6c8a:	9fc6      	lw	a2,24(a3)
600a6c8c:	7601      	cmpi	a2,1
600a6c8e:	600a      	bteqz	600a6ca4 <.LBB2>
600a6c90:	b623      	lw	a2,600a6d1c <.LBE2+0x4a>
        uint8 i = 0;
        ud_set_cmd(SET_HID_OPERS, 0x08);
        //make sure pc receive the stop cmd
        while(i < 4) {
            ud_hid_deal();
            i++;
            sys_os_time_dly(1);
        }
    }

    g_stop_by_tts = 1;
600a6c92:	b424      	lw	a0,600a6d20 <.LBE2+0x4e>

    g_switch_song_flag = 0xff;
600a6c94:	6f01      	li	a3,1
600a6c96:	6d01      	li	a1,1
600a6c98:	edab      	neg	a1
600a6c9a:	6a00      	li	v0,0

    return RESULT_NULL;
}
600a6c9c:	dee0      	sw	a3,0(a2)
600a6c9e:	c4a0      	sb	a1,0(a0)
600a6ca0:	6474      	restore	32,ra,s0-s1
600a6ca2:	e8a0      	jrc	ra

600a6ca4 <.LBB2>:
600a6ca4:	6800      	li	s0,0
600a6ca6:	6c01      	li	a0,1
600a6ca8:	6d08      	li	a1,8
600a6caa:	67d0      	move	a2,s0
600a6cac:	e940      	jalr	s1
600a6cae:	6f06      	li	a3,6
600a6cb0:	6c00      	li	a0,0
600a6cb2:	b215      	lw	v0,600a6d04 <.LBE2+0x32>
600a6cb4:	67a4      	move	a1,a0
600a6cb6:	67c4      	move	a2,a0
600a6cb8:	ea40      	jalr	v0
600a6cba:	6f07      	li	a3,7
600a6cbc:	4061      	addiu	v1,s0,1
600a6cbe:	6703      	move	s0,v1
600a6cc0:	6d00      	li	a1,0
600a6cc2:	b216      	lw	v0,600a6d18 <.LBE2+0x46>
600a6cc4:	e811      	zeb	s0
600a6cc6:	6c01      	li	a0,1
600a6cc8:	67c5      	move	a2,a1
600a6cca:	ea40      	jalr	v0
600a6ccc:	6f31      	li	a3,49
600a6cce:	5804      	sltiu	s0,4
600a6cd0:	61ef      	btnez	600a6cb0 <.LBB2+0xc>

600a6cd2 <.LBE2>:
600a6cd2:	b613      	lw	a2,600a6d1c <.LBE2+0x4a>
600a6cd4:	b413      	lw	a0,600a6d20 <.LBE2+0x4e>
600a6cd6:	6f01      	li	a3,1
600a6cd8:	6d01      	li	a1,1
600a6cda:	edab      	neg	a1
600a6cdc:	6a00      	li	v0,0
600a6cde:	dee0      	sw	a3,0(a2)
600a6ce0:	c4a0      	sb	a1,0(a0)
600a6ce2:	6474      	restore	32,ra,s0-s1
600a6ce4:	e8a0      	jrc	ra
600a6ce6:	6d00      	li	a1,0
600a6ce8:	b10a      	lw	s1,600a6d10 <.LBE2+0x3e>
600a6cea:	67c5      	move	a2,a1
600a6cec:	6c2c      	li	a0,44
600a6cee:	e940      	jalr	s1
600a6cf0:	6f04      	li	a3,4
600a6cf2:	6c0a      	li	a0,10
600a6cf4:	6d03      	li	a1,3
600a6cf6:	6e00      	li	a2,0
600a6cf8:	e840      	jalr	s0
600a6cfa:	6f06      	li	a3,6
600a6cfc:	17bd      	b	600a6c78 <uengine_tts_start+0x28>
600a6cfe:	0000      	addiu	s0,sp,0
600a6d00:	962c      	lw	a2,176(sp)
600a6d02:	9fc1      	lw	a2,4(a3)
600a6d04:	6015      	bteqz	600a6d30 <uengine_tts_stop+0xc>
600a6d06:	bfc2      	lwu	a2,8(a3)
600a6d08:	95bc      	lw	a1,752(sp)
600a6d0a:	9fc1      	lw	a2,4(a3)
600a6d0c:	95bd      	lw	a1,756(sp)
600a6d0e:	9fc1      	lw	a2,4(a3)
600a6d10:	65c5      	move	a2,a1
600a6d12:	bfc2      	lwu	a2,8(a3)
600a6d14:	68e1      	li	s0,225
600a6d16:	600e      	bteqz	600a6d34 <uengine_tts_stop+0x10>
600a6d18:	6011      	bteqz	600a6d3c <uengine_tts_stop+0x18>
600a6d1a:	bfc2      	lwu	a2,8(a3)
600a6d1c:	959c      	lw	a1,624(sp)
600a6d1e:	9fc1      	lw	a2,4(a3)
600a6d20:	95a4      	lw	a1,656(sp)
600a6d22:	9fc1      	lw	a2,4(a3)

600a6d24 <uengine_tts_stop>:
600a6d24:	64e3      	save	24,ra,s0

/******************************************************************************/
/*!
 * \par  Description:
 * \app_result_e uengine_tts_stop(void)
 * \tts结束,继续运行
 * \param[in]
 * \param[out]   none
 * \return       int the result
 * \retval       RESULT_IGNOR 忽略
 * \retval       RESULT_APP_QUIT 退出app
 * \note         uengine_event_deal.c
 */
/*******************************************************************************/
app_result_e uengine_tts_stop(void)
{
600a6d26:	b522      	lw	a1,600a6dac <uengine_tts_stop+0x88>

    g_ain_out_setting.dac_sample = (int32) g_status_data.sample_rate;

    g_ain_out_setting.adc_sample = (int32) g_status_data.sample_rate;

    if(1 == g_uspeaker_24bit) {
600a6d28:	b620      	lw	a2,600a6da8 <uengine_tts_stop+0x84>
600a6d2a:	a540      	lbu	v0,0(a1)
600a6d2c:	b31e      	lw	v1,600a6da4 <uengine_tts_stop+0x80>
600a6d2e:	7201      	cmpi	v0,1
600a6d30:	9e83      	lw	a0,12(a2)
600a6d32:	6112      	btnez	600a6d58 <uengine_tts_stop+0x34>
600a6d34:	b71f      	lw	a3,600a6db0 <uengine_tts_stop+0x8c>
        g_ain_out_setting.dac_sample = (int32) g_status_data.sample_rate;

        g_ain_out_setting.adc_sample = (int32) g_status_data.sample_rate;

        if(g_pa_type == 1) {
600a6d36:	db82      	sw	a0,8(v1)
600a6d38:	db85      	sw	a0,20(v1)
600a6d3a:	a760      	lbu	v1,0(a3)
600a6d3c:	7301      	cmpi	v1,1
600a6d3e:	6021      	bteqz	600a6d82 <uengine_tts_stop+0x5e>
600a6d40:	b01e      	lw	s0,600a6db8 <uengine_tts_stop+0x94>
            ccd_i2s_pa_set_clock(g_status_data.sample_rate);
        }

        ud_set_cmd(SET_USPEAKER_24BIT, USPEAKER24_SAMPLE_RATE);
600a6d42:	6c0a      	li	a0,10
600a6d44:	6d02      	li	a1,2
600a6d46:	6e00      	li	a2,0
600a6d48:	e840      	jalr	s0
600a6d4a:	6f06      	li	a3,6
600a6d4c:	6c0a      	li	a0,10

        ud_set_cmd(SET_USPEAKER_24BIT, USPEAKER24_TTS_STOP);
600a6d4e:	6d04      	li	a1,4
600a6d50:	6e00      	li	a2,0
600a6d52:	e840      	jalr	s0
600a6d54:	6f06      	li	a3,6
600a6d56:	1002      	b	600a6d5c <uengine_tts_stop+0x38>
600a6d58:	db85      	sw	a0,20(v1)
600a6d5a:	db82      	sw	a0,8(v1)
600a6d5c:	6d00      	li	a1,0
    }
    ud_set_cmd(SET_TTS_FLAG, 0);
600a6d5e:	b017      	lw	s0,600a6db8 <uengine_tts_stop+0x94>
600a6d60:	67c5      	move	a2,a1
600a6d62:	6c09      	li	a0,9
600a6d64:	e840      	jalr	s0
600a6d66:	6f06      	li	a3,6
600a6d68:	6c00      	li	a0,0

    //manual stop flag
    ud_set_cmd(SET_PLAY_FLAG, 1);
600a6d6a:	67c4      	move	a2,a0
600a6d6c:	6d01      	li	a1,1
600a6d6e:	e840      	jalr	s0
600a6d70:	6f06      	li	a3,6
600a6d72:	b213      	lw	v0,600a6dbc <uengine_tts_stop+0x98>
    //hid report change is ok
    uegine_player_open();
600a6d74:	eac0      	jalrc	v0
600a6d76:	b413      	lw	a0,600a6dc0 <uengine_tts_stop+0x9c>

    g_switch_song_flag = 0;
600a6d78:	6a00      	li	v0,0
600a6d7a:	c440      	sb	v0,0(a0)
600a6d7c:	6a00      	li	v0,0

    return RESULT_NULL;
}
600a6d7e:	6463      	restore	24,ra,s0
600a6d80:	e8a0      	jrc	ra
600a6d82:	6d00      	li	a1,0
600a6d84:	b00c      	lw	s0,600a6db4 <uengine_tts_stop+0x90>
600a6d86:	67c5      	move	a2,a1
600a6d88:	e840      	jalr	s0
600a6d8a:	6f04      	li	a3,4
600a6d8c:	b00b      	lw	s0,600a6db8 <uengine_tts_stop+0x94>
600a6d8e:	6c0a      	li	a0,10
600a6d90:	6d02      	li	a1,2
600a6d92:	6e00      	li	a2,0
600a6d94:	e840      	jalr	s0
600a6d96:	6f06      	li	a3,6
600a6d98:	6c0a      	li	a0,10
600a6d9a:	6d04      	li	a1,4
600a6d9c:	6e00      	li	a2,0
600a6d9e:	e840      	jalr	s0
600a6da0:	6f06      	li	a3,6
600a6da2:	17dc      	b	600a6d5c <uengine_tts_stop+0x38>
600a6da4:	9608      	lw	a2,32(sp)
600a6da6:	9fc1      	lw	a2,4(a3)
600a6da8:	962c      	lw	a2,176(sp)
600a6daa:	9fc1      	lw	a2,4(a3)
600a6dac:	95bc      	lw	a1,752(sp)
600a6dae:	9fc1      	lw	a2,4(a3)
600a6db0:	95bd      	lw	a1,756(sp)
600a6db2:	9fc1      	lw	a2,4(a3)
600a6db4:	65c5      	move	a2,a1
600a6db6:	bfc2      	lwu	a2,8(a3)
600a6db8:	6015      	bteqz	600a6de4 <uengine_tts_stop+0xc0>
600a6dba:	bfc2      	lwu	a2,8(a3)
600a6dbc:	6801      	li	s0,1
600a6dbe:	600e      	bteqz	600a6ddc <uengine_tts_stop+0xb8>
600a6dc0:	95a4      	lw	a1,656(sp)
600a6dc2:	9fc1      	lw	a2,4(a3)
Disassembly of section BANK_CONTROL_1_3:

600e6800 <uegine_player_open>:
600e6800:	64f5      	save	40,ra,s0-s1
 * \note
 */
/*******************************************************************************/
int32 uegine_player_open(void)
{
600e6802:	b32f      	lw	v1,600e68bc <uegine_player_open+0xbc>
    int open_ret = 0;
    if(0 == g_uspeaker_24bit) {
600e6804:	6900      	li	s1,0
600e6806:	a340      	lbu	v0,0(v1)
600e6808:	2a3f      	bnez	v0,600e6888 <uegine_player_open+0x88>
600e680a:	b52e      	lw	a1,600e68c0 <uegine_player_open+0xc0>
        //bool init_fsel_ret;
        //char *mmm_name =
        //{ "mmm_pp.al" };

        //加载中间件驱动
        //sys_load_mmm(mmm_name, TRUE);//待完善

        if(g_mmm_pp_handle != NULL) {
600e680c:	6519      	move	t8,s1
            return 0;
600e680e:	9d80      	lw	a0,0(a1)
600e6810:	d404      	sw	a0,16(sp)
600e6812:	2403      	beqz	a0,600e681a <uegine_player_open+0x1a>
600e6814:	6758      	move	v0,t8
        }

        adjust_freq_set_level(AP_BACK_HIGH_PRIO, FREQ_LEVEL10, FREQ_LEVEL10);

        adjust_freq_add_value(0, g_dae_cfg_shm->run_freq);

        //初始化中间件库
        open_ret = mmm_pp_cmd(&g_mmm_pp_handle, MMM_PP_OPEN, (unsigned int) NULL);

        if(1 == g_app_info_state_all.fix_sample_rate_flag) {
            mmm_pp_cmd(&g_mmm_pp_handle, MMM_PP_FIX_SAMPLE_RATE, (unsigned int) NULL);
        }

        if(open_ret != -1) {
            open_ret = mmm_pp_cmd(g_mmm_pp_handle, MMM_PP_AINOUT_OPEN, (unsigned int) &g_ain_out_setting);
        }

        //输出声道处理选择
        //#define OUTPUT_CHANNEL_NORMAL      0 //正常，中间件会初始化为正常
        //#define OUTPUT_CHANNEL_L_R_SWITCH  1 //左右声道互换 L = R0, R = L0
        //#define OUTPUT_CHANNEL_L_R_MERGE   2 //左右声道合并后输出到左声道和右声道 L = R = (L0 + R0) / 2
        //#define OUTPUT_CHANNEL_L_R_ALL_L   3 //左右声道都输出左声道 L = R = L0
        //#define OUTPUT_CHANNEL_L_R_ALL_R   4 //左右声道都输出右声道 L = R = R0
        mmm_pp_cmd(g_mmm_pp_handle, MMM_PP_SET_OUTPUT_CHANNEL, (unsigned int) g_output_channel_config);

#ifdef WAVES_ASET_TOOLS
        g_waves.bin_number = g_app_info_state_all.bin_number;
        mmm_pp_cmd(g_mmm_pp_handle, MMM_PP_PLAY, (unsigned int) &g_waves);
#else
        mmm_pp_cmd(g_mmm_pp_handle, MMM_PP_PLAY, (unsigned int) NULL);
#endif

        mmm_pp_cmd(g_mmm_pp_handle, MMM_PP_GET_ENERGY_INFO, (unsigned int) & (g_app_info_state_all.p_energy_value));

        g_app_info_state_all.energy_available_flag = TRUE;

        //start get data timer
        mmm_pp_cmd(g_mmm_pp_handle, MMM_PP_START_SEND, (unsigned int) NULL);

        //ud_set_cmd(SET_ADJUST_TIMER, 1);
    } else {
        ud_set_cmd(SET_USPEAKER_24BIT, USPEAKER24_SAMPLE_RATE);
        ud_set_cmd(SET_USPEAKER_24BIT, USPEAKER24_PLAY);
    }
    return open_ret;
}
600e6816:	6475      	restore	40,ra,s0-s1
600e6818:	e8a0      	jrc	ra
600e681a:	6c03      	li	a0,3
600e681c:	b02a      	lw	s0,600e68c4 <uegine_player_open+0xc4>
600e681e:	67d1      	move	a2,s1
600e6820:	f201 6d0a 	li	a1,2570
600e6824:	e840      	jalr	s0
600e6826:	67e4      	move	a3,a0
600e6828:	b328      	lw	v1,600e68c8 <uegine_player_open+0xc8>
600e682a:	6791      	move	a0,s1
600e682c:	9b40      	lw	v0,0(v1)
600e682e:	6f03      	li	a3,3
600e6830:	a2b6      	lbu	a1,22(v0)
600e6832:	e840      	jalr	s0
600e6834:	6e01      	li	a2,1
600e6836:	b423      	lw	a0,600e68c0 <uegine_player_open+0xc0>
600e6838:	b025      	lw	s0,600e68cc <uegine_player_open+0xcc>
600e683a:	67d1      	move	a2,s1
600e683c:	e840      	jalr	s0
600e683e:	67b1      	move	a1,s1
600e6840:	b724      	lw	a3,600e68d0 <uegine_player_open+0xd0>
600e6842:	6722      	move	s1,v0
600e6844:	a7c8      	lbu	a2,8(a3)
600e6846:	7601      	cmpi	a2,1
600e6848:	602c      	bteqz	600e68a2 <uegine_player_open+0xa2>
600e684a:	ec2f      	not	a0,s1
600e684c:	2c2f      	bnez	a0,600e68ac <uegine_player_open+0xac>
600e684e:	b723      	lw	a3,600e68d8 <uegine_player_open+0xd8>
600e6850:	b51c      	lw	a1,600e68c0 <uegine_player_open+0xc0>
600e6852:	a7c0      	lbu	a2,0(a3)
600e6854:	9d80      	lw	a0,0(a1)
600e6856:	e840      	jalr	s0
600e6858:	6d17      	li	a1,23
600e685a:	b31a      	lw	v1,600e68c0 <uegine_player_open+0xc0>
600e685c:	9604      	lw	a2,16(sp)
600e685e:	9b80      	lw	a0,0(v1)
600e6860:	e840      	jalr	s0
600e6862:	6d0b      	li	a1,11
600e6864:	b217      	lw	v0,600e68c0 <uegine_player_open+0xc0>
600e6866:	b61b      	lw	a2,600e68d0 <uegine_player_open+0xd0>
600e6868:	9a80      	lw	a0,0(v0)
600e686a:	6d16      	li	a1,22
600e686c:	e840      	jalr	s0
600e686e:	4e0c      	addiu	a2,12
600e6870:	b618      	lw	a2,600e68d0 <uegine_player_open+0xd0>
600e6872:	b514      	lw	a1,600e68c0 <uegine_player_open+0xc0>
600e6874:	6f01      	li	a3,1
600e6876:	c6ea      	sb	a3,10(a2)
600e6878:	9d80      	lw	a0,0(a1)
600e687a:	9604      	lw	a2,16(sp)
600e687c:	e840      	jalr	s0
600e687e:	6d11      	li	a1,17
600e6880:	6519      	move	t8,s1
600e6882:	6758      	move	v0,t8
600e6884:	6475      	restore	40,ra,s0-s1
600e6886:	e8a0      	jrc	ra
600e6888:	b015      	lw	s0,600e68d8 <uegine_player_open+0xd8>
600e688a:	6c0a      	li	a0,10
600e688c:	6d02      	li	a1,2
600e688e:	67d1      	move	a2,s1
600e6890:	e840      	jalr	s0
600e6892:	6f06      	li	a3,6
600e6894:	6c0a      	li	a0,10
600e6896:	67b1      	move	a1,s1
600e6898:	67d1      	move	a2,s1
600e689a:	e840      	jalr	s0
600e689c:	6f06      	li	a3,6
600e689e:	6519      	move	t8,s1
600e68a0:	17f0      	b	600e6882 <uegine_player_open+0x82>
600e68a2:	b408      	lw	a0,600e68c0 <uegine_player_open+0xc0>
600e68a4:	9604      	lw	a2,16(sp)
600e68a6:	e840      	jalr	s0
600e68a8:	6d18      	li	a1,24
600e68aa:	17cf      	b	600e684a <uegine_player_open+0x4a>
600e68ac:	b105      	lw	s1,600e68c0 <uegine_player_open+0xc0>
600e68ae:	b60a      	lw	a2,600e68d4 <uegine_player_open+0xd4>
600e68b0:	9980      	lw	a0,0(s1)
600e68b2:	e840      	jalr	s0
600e68b4:	6d02      	li	a1,2
600e68b6:	6722      	move	s1,v0
600e68b8:	17ca      	b	600e684e <uegine_player_open+0x4e>
600e68ba:	0000      	addiu	s0,sp,0
600e68bc:	95bc      	lw	a1,752(sp)
600e68be:	9fc1      	lw	a2,4(a3)
600e68c0:	95d8      	lw	a1,864(sp)
600e68c2:	9fc1      	lw	a2,4(a3)
600e68c4:	6005      	bteqz	600e68d0 <uegine_player_open+0xd0>
600e68c6:	bfc2      	lwu	a2,8(a3)
600e68c8:	95cc      	lw	a1,816(sp)
600e68ca:	9fc1      	lw	a2,4(a3)
600e68cc:	600d      	bteqz	600e68e8 <uegine_player_close+0x8>
600e68ce:	bfc2      	lwu	a2,8(a3)
600e68d0:	a094      	lbu	a0,20(s0)
600e68d2:	9fc1      	lw	a2,4(a3)
600e68d4:	9608      	lw	a2,32(sp)
600e68d6:	9fc1      	lw	a2,4(a3)
600e68d8:	95bf      	lw	a1,764(sp)
600e68da:	9fc1      	lw	a2,4(a3)
600e68dc:	6015      	bteqz	600e6908 <uegine_player_close+0x28>
600e68de:	bfc2      	lwu	a2,8(a3)

600e68e0 <uegine_player_close>:
600e68e0:	64f4      	save	32,ra,s0-s1

/******************************************************************************/
/*!
 * \par  Description:
 * \void uegine_player_close(void)
 * \关闭中间件
 * \param[in]    void
 * \param[out]   none
 * \return       none
 * \retval       none
 * \ingroup      uengine_control.c
 * \note
 */
/*******************************************************************************/

void uegine_player_close(void)
{
600e68e2:	b21f      	lw	v0,600e695c <uegine_player_close+0x7c>
    if(0 == g_uspeaker_24bit) {
600e68e4:	a220      	lbu	s1,0(v0)
600e68e6:	292a      	bnez	s1,600e693c <uegine_player_close+0x5c>
600e68e8:	b31e      	lw	v1,600e6960 <uegine_player_close+0x80>
        uint32 fade_out_use = 0;

        //ud_set_cmd(SET_ADJUST_TIMER, 0);

        if(g_mmm_pp_handle == NULL) {
600e68ea:	9b80      	lw	a0,0(v1)
600e68ec:	2425      	beqz	a0,600e6938 <uegine_player_close+0x58>
600e68ee:	b61f      	lw	a2,600e6968 <uegine_player_close+0x88>
            return;
        }

        g_app_info_state_all.energy_available_flag = FALSE;

        if(g_status_data.start_play == 0) {
600e68f0:	b71d      	lw	a3,600e6964 <uegine_player_close+0x84>
600e68f2:	9ea6      	lw	a1,24(a2)
600e68f4:	c72a      	sb	s1,10(a3)
600e68f6:	252a      	beqz	a1,600e694c <uegine_player_close+0x6c>
600e68f8:	b01d      	lw	s0,600e696c <uegine_player_close+0x8c>
            mmm_pp_cmd(g_mmm_pp_handle, MMM_PP_FADE_OUT_TIME, (unsigned int) fade_out_use);
        }
#ifdef WAVES_ASET_TOOLS
        mmm_pp_cmd(g_mmm_pp_handle, MMM_PP_STOP, (unsigned int) &g_waves);
#else
        mmm_pp_cmd(g_mmm_pp_handle, MMM_PP_STOP, (unsigned int) NULL);
600e68fa:	6d0c      	li	a1,12
600e68fc:	e840      	jalr	s0
600e68fe:	67d1      	move	a2,s1
600e6900:	b618      	lw	a2,600e6960 <uegine_player_close+0x80>
#endif
        //stop get data timer
        mmm_pp_cmd(g_mmm_pp_handle, MMM_PP_STOP_SEND, (unsigned int) NULL);
600e6902:	6d12      	li	a1,18
600e6904:	9e80      	lw	a0,0(a2)
600e6906:	e840      	jalr	s0
600e6908:	67d1      	move	a2,s1
600e690a:	b516      	lw	a1,600e6960 <uegine_player_close+0x80>

        //关闭声音设备
        mmm_pp_cmd(g_mmm_pp_handle, MMM_PP_AINOUT_CLOSE, (unsigned int) NULL);
600e690c:	67d1      	move	a2,s1
600e690e:	9d80      	lw	a0,0(a1)
600e6910:	e840      	jalr	s0
600e6912:	6d03      	li	a1,3
600e6914:	b313      	lw	v1,600e6960 <uegine_player_close+0x80>

        //关闭中间件设备
        mmm_pp_cmd(g_mmm_pp_handle, MMM_PP_CLOSE, (unsigned int) NULL);
600e6916:	6d01      	li	a1,1
600e6918:	9b80      	lw	a0,0(v1)
600e691a:	e840      	jalr	s0
600e691c:	67d1      	move	a2,s1
600e691e:	b411      	lw	a0,600e6960 <uegine_player_close+0x80>

        g_mmm_pp_handle = NULL;
600e6920:	b014      	lw	s0,600e6970 <uegine_player_close+0x90>

        adjust_freq_add_value(0, 0);
600e6922:	dc20      	sw	s1,0(a0)
600e6924:	67b1      	move	a1,s1
600e6926:	6791      	move	a0,s1
600e6928:	6e01      	li	a2,1
600e692a:	e840      	jalr	s0
600e692c:	6f03      	li	a3,3
600e692e:	6c03      	li	a0,3

        adjust_freq_set_level(AP_BACK_HIGH_PRIO, FREQ_NULL, FREQ_NULL);
600e6930:	67b1      	move	a1,s1
600e6932:	67d1      	move	a2,s1
600e6934:	e840      	jalr	s0
600e6936:	67e4      	move	a3,a0
600e6938:	6474      	restore	32,ra,s0-s1

        //卸载解码驱动
        //sys_free_mmm(TRUE);
    } else {
        ud_set_cmd(SET_USPEAKER_24BIT, USPEAKER24_PAUSE);
    }
}
600e693a:	e8a0      	jrc	ra
600e693c:	b20e      	lw	v0,600e6970 <uegine_player_close+0x90>
600e693e:	6c0a      	li	a0,10
600e6940:	6d01      	li	a1,1
600e6942:	6e00      	li	a2,0
600e6944:	ea40      	jalr	v0
600e6946:	6f06      	li	a3,6
600e6948:	6474      	restore	32,ra,s0-s1
600e694a:	e8a0      	jrc	ra
600e694c:	b208      	lw	v0,600e6968 <uegine_player_close+0x88>
600e694e:	6d05      	li	a1,5
600e6950:	ea40      	jalr	v0
600e6952:	67d1      	move	a2,s1
600e6954:	b003      	lw	s0,600e6960 <uegine_player_close+0x80>
600e6956:	9880      	lw	a0,0(s0)
600e6958:	17cf      	b	600e68f8 <uegine_player_close+0x18>
600e695a:	0000      	addiu	s0,sp,0
600e695c:	95bc      	lw	a1,752(sp)
600e695e:	9fc1      	lw	a2,4(a3)
600e6960:	95d8      	lw	a1,864(sp)
600e6962:	9fc1      	lw	a2,4(a3)
600e6964:	a094      	lbu	a0,20(s0)
600e6966:	9fc1      	lw	a2,4(a3)
600e6968:	962c      	lw	a2,176(sp)
600e696a:	9fc1      	lw	a2,4(a3)
600e696c:	600d      	bteqz	600e6988 <smart_enter_stop>
600e696e:	bfc2      	lwu	a2,8(a3)
600e6970:	6005      	bteqz	600e697c <uegine_check_status>
600e6972:	bfc2      	lwu	a2,8(a3)
600e6974:	6015      	bteqz	600e69a0 <smart_enter_stop+0x18>
600e6976:	bfc2      	lwu	a2,8(a3)

600e6978 <uengine_status_deal>:
600e6978:	e8a0      	jrc	ra
	...

600e697c <uegine_check_status>:

/******************************************************************************/
/*!
 * \par  Description:
 * \void uengine_status_deal(void)
 * \引擎状态处理,处理当前音乐播放状态
 * \param[in]    void  para1
 * \param[out]   none
 * \return       void the result
 * \retval       none
 * \ingroup      uengine_control.c
 * \note
 */
/*******************************************************************************/
void uengine_status_deal(void)
{
    ;//do nothing
}
600e697c:	b202      	lw	v0,600e6984 <uegine_check_status+0x8>
/******************************************************************************/
/*!
 * \par  Description:
 * \void uegine_check_status(void)
 * \检测引擎状态定时器函数，设置标志位
 * \param[in]    void
 * \param[out]   none
 * \return       none
 * \retval       none
 * \ingroup      uengine_control.c
 * \note
 */
/*******************************************************************************/
void uegine_check_status(void)
{
    g_check_status_flag = TRUE;
600e697e:	6b01      	li	v1,1
600e6980:	e820      	jr	ra
600e6982:	c260      	sb	v1,0(v0)
600e6984:	95c0      	lw	a1,768(sp)
600e6986:	9fc1      	lw	a2,4(a3)

600e6988 <smart_enter_stop>:
600e6988:	64f4      	save	32,ra,s0-s1
}

void smart_enter_stop(void)
{
600e698a:	b217      	lw	v0,600e69e4 <smart_enter_stop+0x5c>
    uint32 fade_out_use = 0;

    //ud_set_cmd(SET_ADJUST_TIMER, 0);

    g_app_info_state_all.energy_available_flag = FALSE;

    if(g_status_data.start_play == 0) {
600e698c:	b415      	lw	a0,600e69e0 <smart_enter_stop+0x58>
600e698e:	9ac6      	lw	a2,24(v0)
600e6990:	6b00      	li	v1,0
600e6992:	c46a      	sb	v1,10(a0)
600e6994:	2610      	beqz	a2,600e69b6 <smart_enter_stop+0x2e>
600e6996:	b115      	lw	s1,600e69e8 <smart_enter_stop+0x60>
        mmm_pp_cmd(g_mmm_pp_handle, MMM_PP_FADE_OUT_TIME, (unsigned int) fade_out_use);
    }
#ifdef WAVES_ASET_TOOLS
    mmm_pp_cmd(g_mmm_pp_handle, MMM_PP_STOP, (unsigned int) &g_waves);
#else
    mmm_pp_cmd(g_mmm_pp_handle, MMM_PP_STOP, (unsigned int) NULL);
600e6998:	b015      	lw	s0,600e69ec <smart_enter_stop+0x64>
600e699a:	9980      	lw	a0,0(s1)
600e699c:	6d0c      	li	a1,12
600e699e:	e840      	jalr	s0
600e69a0:	6e00      	li	a2,0
600e69a2:	9980      	lw	a0,0(s1)
#endif
    //stop get data timer
    mmm_pp_cmd(g_mmm_pp_handle, MMM_PP_STOP_SEND, (unsigned int) NULL);
600e69a4:	6d12      	li	a1,18
600e69a6:	e840      	jalr	s0
600e69a8:	6e00      	li	a2,0
600e69aa:	9980      	lw	a0,0(s1)

    //关闭声音设备
    mmm_pp_cmd(g_mmm_pp_handle, MMM_PP_AINOUT_CLOSE, (unsigned int) NULL);
600e69ac:	6d03      	li	a1,3
600e69ae:	e840      	jalr	s0
600e69b0:	6e00      	li	a2,0
600e69b2:	6474      	restore	32,ra,s0-s1
600e69b4:	e8a0      	jrc	ra
600e69b6:	b50d      	lw	a1,600e69e8 <smart_enter_stop+0x60>
600e69b8:	b00d      	lw	s0,600e69ec <smart_enter_stop+0x64>
600e69ba:	9d80      	lw	a0,0(a1)
600e69bc:	e840      	jalr	s0
600e69be:	6d05      	li	a1,5
600e69c0:	b10a      	lw	s1,600e69e8 <smart_enter_stop+0x60>
600e69c2:	b00b      	lw	s0,600e69ec <smart_enter_stop+0x64>
600e69c4:	9980      	lw	a0,0(s1)
600e69c6:	6d0c      	li	a1,12
600e69c8:	e840      	jalr	s0
600e69ca:	6e00      	li	a2,0
600e69cc:	9980      	lw	a0,0(s1)
600e69ce:	6d12      	li	a1,18
600e69d0:	e840      	jalr	s0
600e69d2:	6e00      	li	a2,0
600e69d4:	9980      	lw	a0,0(s1)
600e69d6:	6d03      	li	a1,3
600e69d8:	e840      	jalr	s0
600e69da:	6e00      	li	a2,0
600e69dc:	6474      	restore	32,ra,s0-s1
600e69de:	e8a0      	jrc	ra
600e69e0:	a094      	lbu	a0,20(s0)
600e69e2:	9fc1      	lw	a2,4(a3)
600e69e4:	962c      	lw	a2,176(sp)
600e69e6:	9fc1      	lw	a2,4(a3)
600e69e8:	95d8      	lw	a1,864(sp)
600e69ea:	9fc1      	lw	a2,4(a3)
600e69ec:	600d      	bteqz	600e6a08 <smart_exit_play+0x18>
600e69ee:	bfc2      	lwu	a2,8(a3)

600e69f0 <smart_exit_play>:
600e69f0:	64f4      	save	32,ra,s0-s1

}


void smart_exit_play(void)
{
600e69f2:	b111      	lw	s1,600e6a34 <smart_exit_play+0x44>
    mmm_pp_cmd(g_mmm_pp_handle, MMM_PP_AINOUT_OPEN, (unsigned int) &g_ain_out_setting);
600e69f4:	b611      	lw	a2,600e6a38 <smart_exit_play+0x48>
600e69f6:	9980      	lw	a0,0(s1)
600e69f8:	b011      	lw	s0,600e6a3c <smart_exit_play+0x4c>
600e69fa:	e840      	jalr	s0
600e69fc:	6d02      	li	a1,2
600e69fe:	b711      	lw	a3,600e6a40 <smart_exit_play+0x50>

    //输出声道处理选择
    //#define OUTPUT_CHANNEL_NORMAL      0 //正常，中间件会初始化为正常
    //#define OUTPUT_CHANNEL_L_R_SWITCH  1 //左右声道互换 L = R0, R = L0
    //#define OUTPUT_CHANNEL_L_R_MERGE   2 //左右声道合并后输出到左声道和右声道 L = R = (L0 + R0) / 2
    //#define OUTPUT_CHANNEL_L_R_ALL_L   3 //左右声道都输出左声道 L = R = L0
    //#define OUTPUT_CHANNEL_L_R_ALL_R   4 //左右声道都输出右声道 L = R = R0
    mmm_pp_cmd(g_mmm_pp_handle, MMM_PP_SET_OUTPUT_CHANNEL, (unsigned int) g_output_channel_config);
600e6a00:	9980      	lw	a0,0(s1)
600e6a02:	a7c0      	lbu	a2,0(a3)
600e6a04:	b30e      	lw	v1,600e6a3c <smart_exit_play+0x4c>
600e6a06:	eb40      	jalr	v1
600e6a08:	6d17      	li	a1,23
600e6a0a:	9980      	lw	a0,0(s1)

#ifdef WAVES_ASET_TOOLS
    g_waves.bin_number = g_app_info_state_all.bin_number;
    mmm_pp_cmd(g_mmm_pp_handle, MMM_PP_PLAY, (unsigned int) &g_waves);
#else
    mmm_pp_cmd(g_mmm_pp_handle, MMM_PP_PLAY, (unsigned int) NULL);
600e6a0c:	b00c      	lw	s0,600e6a3c <smart_exit_play+0x4c>
600e6a0e:	6d0b      	li	a1,11
600e6a10:	e840      	jalr	s0
600e6a12:	6e00      	li	a2,0
600e6a14:	b00c      	lw	s0,600e6a44 <smart_exit_play+0x54>
#endif

    mmm_pp_cmd(g_mmm_pp_handle, MMM_PP_GET_ENERGY_INFO, (unsigned int) & (g_app_info_state_all.p_energy_value));
600e6a16:	9980      	lw	a0,0(s1)
600e6a18:	67d0      	move	a2,s0
600e6a1a:	b309      	lw	v1,600e6a3c <smart_exit_play+0x4c>
600e6a1c:	6d16      	li	a1,22
600e6a1e:	eb40      	jalr	v1
600e6a20:	4e0c      	addiu	a2,12
600e6a22:	6a01      	li	v0,1

    g_app_info_state_all.energy_available_flag = TRUE;
600e6a24:	9980      	lw	a0,0(s1)

    //start get data timer
    mmm_pp_cmd(g_mmm_pp_handle, MMM_PP_START_SEND, (unsigned int) NULL);
600e6a26:	b306      	lw	v1,600e6a3c <smart_exit_play+0x4c>
600e6a28:	c04a      	sb	v0,10(s0)
600e6a2a:	6d11      	li	a1,17
600e6a2c:	eb40      	jalr	v1
600e6a2e:	6e00      	li	a2,0
600e6a30:	6474      	restore	32,ra,s0-s1
600e6a32:	e8a0      	jrc	ra
600e6a34:	95d8      	lw	a1,864(sp)
600e6a36:	9fc1      	lw	a2,4(a3)
600e6a38:	9608      	lw	a2,32(sp)
600e6a3a:	9fc1      	lw	a2,4(a3)
600e6a3c:	600d      	bteqz	600e6a58 <smart_exit_play+0x68>
600e6a3e:	bfc2      	lwu	a2,8(a3)
600e6a40:	95bf      	lw	a1,764(sp)
600e6a42:	9fc1      	lw	a2,4(a3)
600e6a44:	a094      	lbu	a0,20(s0)
600e6a46:	9fc1      	lw	a2,4(a3)
Disassembly of section BANK_CONTROL_1_4:

60126800 <rd_itoa>:
60126800:	ec11      	zeb	a0
 * \ingroup      uengine_main.c
 * \note
 *******************************************************************************/
void rd_itoa(uint8 data, uint8 pos, uint8 *str)
{
60126802:	ed11      	zeb	a1
60126804:	3292      	srl	v0,a0,4
    //uint8 data_low,data_high;
    uint8 data_cur = 0;

    if(pos != 0) {
        data_cur = (uint8)((data & 0xf0) >> 4);
60126806:	2d02      	bnez	a1,6012680c <rd_itoa+0xc>
60126808:	6a0f      	li	v0,15
    } else {
        data_cur = (data & 0x0f);
6012680a:	ea8c      	and	v0,a0
6012680c:	6762      	move	v1,v0
    }

    if(data_cur > 9) {
        data_cur += 55;
6012680e:	5a0a      	sltiu	v0,10
60126810:	4b37      	addiu	v1,55
60126812:	6001      	bteqz	60126816 <rd_itoa+0x16>
60126814:	4369      	addiu	v1,v1,-7
    } else {
        data_cur += 48;
60126816:	e820      	jr	ra
    }
    *str = data_cur;
60126818:	c660      	sb	v1,0(a2)
	...

6012681c <sn_random>:
6012681c:	f004 64f8 	save	a0,64,ra,s0-s1
}
/******************************************************************************/
/*!
 * \par  Description:
 * \生成随机的SN并写VM。如果VM里面有SN，则直接使用VM中记录的SN
 * \param[in]    none
 * \param[out]   none
 * \return       none
 * \ingroup      uengine_main.c
 * \note
 *******************************************************************************/

void sn_random(uint8 *buf)
{
60126820:	b527      	lw	a1,601268bc <sn_random+0xa0>
    uint8 i = 0;

    uint32 num1, num2 = 0;

    testval_t usb_sn = {0};

    sys_vm_read(&usb_sn, VM_API_FLAG, sizeof(testval_t));
60126822:	6c00      	li	a0,0
60126824:	b027      	lw	s0,601268c0 <sn_random+0xa4>
60126826:	d40a      	sw	a0,40(sp)
60126828:	d404      	sw	a0,16(sp)
6012682a:	d405      	sw	a0,20(sp)
6012682c:	d406      	sw	a0,24(sp)
6012682e:	d407      	sw	a0,28(sp)
60126830:	d408      	sw	a0,32(sp)
60126832:	d409      	sw	a0,36(sp)
60126834:	6e18      	li	a2,24
60126836:	0404      	addiu	a0,sp,16
60126838:	e840      	jalr	s0
6012683a:	6f12      	li	a3,18
6012683c:	677d      	move	v1,sp

    if(usb_sn.usb_sound_magic == 0x5A5A) {
6012683e:	ab4b      	lhu	v0,22(v1)
60126840:	f24b 721a 	cmpi	v0,23130
60126844:	6122      	btnez	6012688a <sn_random+0x6e>
60126846:	9509      	lw	a1,36(sp)
        num1 = usb_sn.usb_sound_low;

        num2 = usb_sn.usb_sound_high;
60126848:	9108      	lw	s1,32(sp)
6012684a:	d50a      	sw	a1,40(sp)
6012684c:	6800      	li	s0,0
    } else {
        num1 = sys_random();

        num2 = sys_random();

        usb_sn.usb_sound_low = num1;

        usb_sn.usb_sound_high = num2;

        usb_sn.usb_sound_magic = 0x5A5A;

        sys_vm_write(&usb_sn, VM_API_FLAG, sizeof(testval_t));
    }

    for(i = 0; i < 8; i++) {
6012684e:	9310      	lw	v1,64(sp)
        rd_itoa((uint8)(num1 >> i), 0, &buf[i]);
60126850:	6791      	move	a0,s1
60126852:	e886      	srlv	a0,s0
60126854:	e079      	addu	a2,s0,v1
60126856:	ec11      	zeb	a0
60126858:	1880 9a00 	jal	60126800 <rd_itoa>
6012685c:	6d00      	li	a1,0
6012685e:	4041      	addiu	v0,s0,1
60126860:	6702      	move	s0,v0
60126862:	e811      	zeb	s0
60126864:	5808      	sltiu	s0,8
60126866:	61f3      	btnez	6012684e <sn_random+0x32>
60126868:	6800      	li	s0,0
    }

    for(i = 0; i < 8; i++) {
6012686a:	9510      	lw	a1,64(sp)
        rd_itoa((uint8)(num2 >> i), 0, &buf[i + 8]);
6012686c:	940a      	lw	a0,40(sp)
6012686e:	e0b9      	addu	a2,s0,a1
60126870:	e886      	srlv	a0,s0
60126872:	ec11      	zeb	a0
60126874:	6d00      	li	a1,0
60126876:	1880 9a00 	jal	60126800 <rd_itoa>
6012687a:	4e08      	addiu	a2,8
6012687c:	4081      	addiu	a0,s0,1
6012687e:	6704      	move	s0,a0
60126880:	e811      	zeb	s0
60126882:	5808      	sltiu	s0,8
60126884:	61f2      	btnez	6012686a <sn_random+0x4e>
60126886:	6478      	restore	64,ra,s0-s1
60126888:	e8a0      	jrc	ra
6012688a:	940a      	lw	a0,40(sp)
6012688c:	6f35      	li	a3,53
6012688e:	67a4      	move	a1,a0
60126890:	e840      	jalr	s0
60126892:	67c4      	move	a2,a0
60126894:	940a      	lw	a0,40(sp)
60126896:	6f35      	li	a3,53
60126898:	67a4      	move	a1,a0
6012689a:	67c4      	move	a2,a0
6012689c:	e840      	jalr	s0
6012689e:	6722      	move	s1,v0
601268a0:	67dd      	move	a2,sp
601268a2:	f24b 6f1a 	li	a3,23130
601268a6:	b506      	lw	a1,601268bc <sn_random+0xa0>
601268a8:	ceeb      	sh	a3,22(a2)
601268aa:	d20a      	sw	v0,40(sp)
601268ac:	d108      	sw	s1,32(sp)
601268ae:	d209      	sw	v0,36(sp)
601268b0:	0404      	addiu	a0,sp,16
601268b2:	6e18      	li	a2,24
601268b4:	e840      	jalr	s0
601268b6:	6f13      	li	a3,19
601268b8:	17c9      	b	6012684c <sn_random+0x30>
601268ba:	0000      	addiu	s0,sp,0
601268bc:	0000      	addiu	s0,sp,0
601268be:	0019      	addiu	s0,sp,100
601268c0:	6011      	bteqz	601268e4 <sn_random+0xc8>
601268c2:	bfc2      	lwu	a2,8(a3)
Disassembly of section BANK_CONTROL_1_40:

60a26800 <get_engine_type_by_appid>:
60a26800:	b609      	lw	a2,60a26824 <get_engine_type_by_appid+0x24>
60a26802:	ec11      	zeb	a0
60a26804:	6d00      	li	a1,0
60a26806:	37a4      	sll	a3,a1,1
60a26808:	e7cd      	addu	v1,a3,a2
60a2680a:	a340      	lbu	v0,0(v1)
60a2680c:	ea8e      	xor	v0,a0
60a2680e:	2a02      	bnez	v0,60a26814 <get_engine_type_by_appid+0x14>
60a26810:	e820      	jr	ra
60a26812:	a341      	lbu	v0,1(v1)
60a26814:	4561      	addiu	v1,a1,1
60a26816:	67a3      	move	a1,v1
60a26818:	ed11      	zeb	a1
60a2681a:	5d06      	sltiu	a1,6
60a2681c:	61f4      	btnez	60a26806 <get_engine_type_by_appid+0x6>
60a2681e:	e820      	jr	ra
60a26820:	6a00      	li	v0,0
60a26822:	0000      	addiu	s0,sp,0
60a26824:	6854      	li	s0,84
60a26826:	60a2      	bteqz	60a2676c <sn_random+0x8fff50>

60a26828 <get_engine_appid_by_type>:
60a26828:	ec11      	zeb	a0
60a2682a:	6a1b      	li	v0,27
60a2682c:	2c03      	bnez	a0,60a26834 <get_engine_appid_by_type+0xc>
60a2682e:	100f      	b	60a2684e <get_engine_appid_by_type+0x26>
60a26830:	e820      	jr	ra
60a26832:	a340      	lbu	v0,0(v1)
60a26834:	b607      	lw	a2,60a26850 <get_engine_appid_by_type+0x28>
60a26836:	6d00      	li	a1,0
60a26838:	37a4      	sll	a3,a1,1
60a2683a:	e7cd      	addu	v1,a3,a2
60a2683c:	a341      	lbu	v0,1(v1)
60a2683e:	ea8e      	xor	v0,a0
60a26840:	22f7      	beqz	v0,60a26830 <get_engine_appid_by_type+0x8>
60a26842:	4561      	addiu	v1,a1,1
60a26844:	67a3      	move	a1,v1
60a26846:	ed11      	zeb	a1
60a26848:	5d06      	sltiu	a1,6
60a2684a:	61f6      	btnez	60a26838 <get_engine_appid_by_type+0x10>
60a2684c:	6a1b      	li	v0,27
60a2684e:	e8a0      	jrc	ra
60a26850:	6854      	li	s0,84
60a26852:	60a2      	bteqz	60a26798 <sn_random+0x8fff7c>

60a26854 <applib_app2eg_type>:
60a26854:	010e 0212 030f 0410 0511 0613               ............

60a26860 <applib_init>:
60a26860:	64f5      	save	40,ra,s0-s1
60a26862:	ec11      	zeb	a0
60a26864:	6705      	move	s0,a1
60a26866:	5c1b      	sltiu	a0,27
60a26868:	d404      	sw	a0,16(sp)
60a2686a:	e811      	zeb	s0
60a2686c:	6a00      	li	v0,0
60a2686e:	6056      	bteqz	60a2691c <applib_init+0xbc>
60a26870:	6b01      	li	v1,1
60a26872:	eb0e      	xor	v1,s0
60a26874:	5b01      	sltiu	v1,1
60a26876:	6758      	move	v0,t8
60a26878:	d205      	sw	v0,20(sp)
60a2687a:	220a      	beqz	v0,60a26890 <applib_init+0x30>
60a2687c:	b12d      	lw	s1,60a26930 <applib_init+0xd0>
60a2687e:	6c0a      	li	a0,10
60a26880:	6d07      	li	a1,7
60a26882:	6e00      	li	a2,0
60a26884:	e940      	jalr	s1
60a26886:	6f03      	li	a3,3
60a26888:	b42b      	lw	a0,60a26934 <applib_init+0xd4>
60a2688a:	6d00      	li	a1,0
60a2688c:	c4a3      	sb	a1,3(a0)
60a2688e:	1008      	b	60a268a0 <applib_init+0x40>
60a26890:	7002      	cmpi	s0,2
60a26892:	6106      	btnez	60a268a0 <applib_init+0x40>
60a26894:	b227      	lw	v0,60a26930 <applib_init+0xd0>
60a26896:	6c06      	li	a0,6
60a26898:	6d02      	li	a1,2
60a2689a:	6e00      	li	a2,0
60a2689c:	ea40      	jalr	v0
60a2689e:	6f03      	li	a3,3
60a268a0:	b426      	lw	a0,60a26938 <applib_init+0xd8>
60a268a2:	3308      	sll	v1,s0,2
60a268a4:	e385      	addu	s1,v1,a0
60a268a6:	b226      	lw	v0,60a2693c <applib_init+0xdc>
60a268a8:	6c00      	li	a0,0
60a268aa:	67a4      	move	a1,a0
60a268ac:	67c4      	move	a2,a0
60a268ae:	ea40      	jalr	v0
60a268b0:	6f33      	li	a3,51
60a268b2:	b224      	lw	v0,60a26940 <applib_init+0xe0>
60a268b4:	6e04      	li	a2,4
60a268b6:	6f01      	li	a3,1
60a268b8:	6791      	move	a0,s1
60a268ba:	ea40      	jalr	v0
60a268bc:	6d00      	li	a1,0
60a268be:	6a01      	li	v0,1
60a268c0:	c140      	sb	v0,0(s1)
60a268c2:	67fd      	move	a3,sp
60a268c4:	a7d0      	lbu	a2,16(a3)
60a268c6:	c102      	sb	s0,2(s1)
60a268c8:	c1c1      	sb	a2,1(s1)
60a268ca:	2802      	bnez	s0,60a268d0 <applib_init+0x70>
60a268cc:	c103      	sb	s0,3(s1)
60a268ce:	1012      	b	60a268f4 <applib_init+0x94>
60a268d0:	7003      	cmpi	s0,3
60a268d2:	6103      	btnez	60a268da <applib_init+0x7a>
60a268d4:	6803      	li	s0,3
60a268d6:	c103      	sb	s0,3(s1)
60a268d8:	100d      	b	60a268f4 <applib_init+0x94>
60a268da:	9505      	lw	a1,20(sp)
60a268dc:	b016      	lw	s0,60a26934 <applib_init+0xd4>
60a268de:	2504      	beqz	a1,60a268e8 <applib_init+0x88>
60a268e0:	6e00      	li	a2,0
60a268e2:	c143      	sb	v0,3(s1)
60a268e4:	c0c2      	sb	a2,2(s0)
60a268e6:	1006      	b	60a268f4 <applib_init+0x94>
60a268e8:	6f02      	li	a3,2
60a268ea:	c1e3      	sb	a3,3(s1)
60a268ec:	b216      	lw	v0,60a26944 <applib_init+0xe4>
60a268ee:	ea40      	jalr	v0
60a268f0:	9404      	lw	a0,16(sp)
60a268f2:	c040      	sb	v0,0(s0)
60a268f4:	6c00      	li	a0,0
60a268f6:	b012      	lw	s0,60a2693c <applib_init+0xdc>
60a268f8:	67a4      	move	a1,a0
60a268fa:	67c4      	move	a2,a0
60a268fc:	e840      	jalr	s0
60a268fe:	6f34      	li	a3,52
60a26900:	b412      	lw	a0,60a26948 <applib_init+0xe8>
60a26902:	b210      	lw	v0,60a26940 <applib_init+0xe0>
60a26904:	dc20      	sw	s1,0(a0)
60a26906:	b412      	lw	a0,60a2694c <applib_init+0xec>
60a26908:	6d01      	li	a1,1
60a2690a:	6e00      	li	a2,0
60a2690c:	ea40      	jalr	v0
60a2690e:	6f12      	li	a3,18
60a26910:	9504      	lw	a1,16(sp)
60a26912:	0c04      	la	a0,60a26920 <applib_init+0xc0>
60a26914:	6e02      	li	a2,2
60a26916:	e840      	jalr	s0
60a26918:	6f4b      	li	a3,75
60a2691a:	6a01      	li	v0,1
60a2691c:	6475      	restore	40,ra,s0-s1
60a2691e:	e8a0      	jrc	ra
60a26920:	493c      	addiu	s1,60
60a26922:	203e      	beqz	s0,60a269a0 <.LBE2+0x14>
60a26924:	7061      	cmpi	s0,97
60a26926:	2070      	beqz	s0,60a26a08 <.LBE2+0x7c>
60a26928:	6e69      	li	a2,105
60a2692a:	7469      	cmpi	a0,105
60a2692c:	003a      	addiu	s0,sp,232
60a2692e:	0000      	addiu	s0,sp,0
60a26930:	6005      	bteqz	60a2693c <applib_init+0xdc>
60a26932:	bfc2      	lwu	a2,8(a3)
60a26934:	a094      	lbu	a0,20(s0)
60a26936:	9fc1      	lw	a2,4(a3)
60a26938:	a080      	lbu	a0,0(s0)
60a2693a:	9fc1      	lw	a2,4(a3)
60a2693c:	6011      	bteqz	60a26960 <applib_quit+0x10>
60a2693e:	bfc2      	lwu	a2,8(a3)
60a26940:	6009      	bteqz	60a26954 <applib_quit+0x4>
60a26942:	bfc2      	lwu	a2,8(a3)
60a26944:	6801      	li	s0,1
60a26946:	60a2      	bteqz	60a2688c <applib_init+0x2c>
60a26948:	969c      	lw	a2,624(sp)
60a2694a:	9fc1      	lw	a2,4(a3)
60a2694c:	96a0      	lw	a2,640(sp)
60a2694e:	9fc1      	lw	a2,4(a3)

60a26950 <applib_quit>:
60a26950:	64f5      	save	40,ra,s0-s1
60a26952:	b02f      	lw	s0,60a26a0c <.LBE2+0x80>
60a26954:	b12f      	lw	s1,60a26a10 <.LBE2+0x84>
60a26956:	9860      	lw	v1,0(s0)
60a26958:	0c29      	la	a0,60a269fc <.LBE2+0x70>
60a2695a:	a3a1      	lbu	a1,1(v1)
60a2695c:	6e02      	li	a2,2
60a2695e:	e940      	jalr	s1
60a26960:	6f4b      	li	a3,75
60a26962:	6d00      	li	a1,0
60a26964:	b42c      	lw	a0,60a26a14 <.LBE2+0x88>
60a26966:	b12d      	lw	s1,60a26a18 <.LBE2+0x8c>
60a26968:	67c5      	move	a2,a1
60a2696a:	e940      	jalr	s1
60a2696c:	6f13      	li	a3,19
60a2696e:	98a0      	lw	a1,0(s0)
60a26970:	a542      	lbu	v0,2(a1)
60a26972:	7202      	cmpi	v0,2
60a26974:	6104      	btnez	60a2697e <applib_quit+0x2e>
60a26976:	b42a      	lw	a0,60a26a1c <.LBE2+0x90>
60a26978:	6e00      	li	a2,0
60a2697a:	c4c0      	sb	a2,0(a0)
60a2697c:	c4c1      	sb	a2,1(a0)
60a2697e:	0404      	addiu	a0,sp,16
60a26980:	6f00      	li	a3,0
60a26982:	e940      	jalr	s1
60a26984:	6e04      	li	a2,4
60a26986:	67fd      	move	a3,sp
60a26988:	6a1b      	li	v0,27

60a2698a <.LBB2>:
60a2698a:	98a0      	lw	a1,0(s0)

60a2698c <.LBE2>:
60a2698c:	c751      	sb	v0,17(a3)
60a2698e:	a581      	lbu	a0,1(a1)
60a26990:	6b00      	li	v1,0
60a26992:	5c1b      	sltiu	a0,27
60a26994:	c770      	sb	v1,16(a3)
60a26996:	6020      	bteqz	60a269d8 <.LBE2+0x4c>
60a26998:	b522      	lw	a1,60a26a20 <.LBE2+0x94>
60a2699a:	6b00      	li	v1,0
60a2699c:	3668      	sll	a2,v1,2
60a2699e:	e6a5      	addu	s1,a2,a1
60a269a0:	a100      	lbu	s0,0(s1)
60a269a2:	7001      	cmpi	s0,1
60a269a4:	6103      	btnez	60a269ac <.LBE2+0x20>
60a269a6:	a1e1      	lbu	a3,1(s1)
60a269a8:	ef8e      	xor	a3,a0
60a269aa:	2705      	beqz	a3,60a269b6 <.LBE2+0x2a>
60a269ac:	4341      	addiu	v0,v1,1
60a269ae:	6762      	move	v1,v0
60a269b0:	eb11      	zeb	v1
60a269b2:	5b04      	sltiu	v1,4
60a269b4:	61f3      	btnez	60a2699c <.LBE2+0x10>
60a269b6:	6c00      	li	a0,0
60a269b8:	b016      	lw	s0,60a26a10 <.LBE2+0x84>
60a269ba:	67a4      	move	a1,a0
60a269bc:	67c4      	move	a2,a0
60a269be:	e840      	jalr	s0
60a269c0:	6f33      	li	a3,51
60a269c2:	b216      	lw	v0,60a26a18 <.LBE2+0x8c>
60a269c4:	6791      	move	a0,s1
60a269c6:	0504      	addiu	a1,sp,16
60a269c8:	6e04      	li	a2,4
60a269ca:	ea40      	jalr	v0
60a269cc:	6f00      	li	a3,0
60a269ce:	6c00      	li	a0,0
60a269d0:	67a4      	move	a1,a0
60a269d2:	67c4      	move	a2,a0
60a269d4:	e840      	jalr	s0
60a269d6:	6f34      	li	a3,52
60a269d8:	b50d      	lw	a1,60a26a0c <.LBE2+0x80>
60a269da:	9d80      	lw	a0,0(a1)
60a269dc:	a442      	lbu	v0,2(a0)
60a269de:	6c0a      	li	a0,10
60a269e0:	7201      	cmpi	v0,1
60a269e2:	6003      	bteqz	60a269ea <.LBE2+0x5e>
60a269e4:	7202      	cmpi	v0,2
60a269e6:	6106      	btnez	60a269f4 <.LBE2+0x68>
60a269e8:	6c06      	li	a0,6
60a269ea:	6d00      	li	a1,0
60a269ec:	b20e      	lw	v0,60a26a24 <.LBE2+0x98>
60a269ee:	67c5      	move	a2,a1
60a269f0:	ea40      	jalr	v0
60a269f2:	6f03      	li	a3,3
60a269f4:	6a01      	li	v0,1
60a269f6:	6475      	restore	40,ra,s0-s1
60a269f8:	e8a0      	jrc	ra
60a269fa:	0000      	addiu	s0,sp,0
60a269fc:	493c      	addiu	s1,60
60a269fe:	203e      	beqz	s0,60a26a7c <__set_timer+0x54>
60a26a00:	7061      	cmpi	s0,97
60a26a02:	2070      	beqz	s0,60a26ae4 <__set_timer+0xbc>
60a26a04:	7571      	cmpi	a1,113
60a26a06:	7469      	cmpi	a0,105
60a26a08:	003a      	addiu	s0,sp,232
60a26a0a:	0000      	addiu	s0,sp,0
60a26a0c:	969c      	lw	a2,624(sp)
60a26a0e:	9fc1      	lw	a2,4(a3)
60a26a10:	6011      	bteqz	60a26a34 <__set_timer+0xc>
60a26a12:	bfc2      	lwu	a2,8(a3)
60a26a14:	96a0      	lw	a2,640(sp)
60a26a16:	9fc1      	lw	a2,4(a3)
60a26a18:	6009      	bteqz	60a26a2c <__set_timer+0x4>
60a26a1a:	bfc2      	lwu	a2,8(a3)
60a26a1c:	a094      	lbu	a0,20(s0)
60a26a1e:	9fc1      	lw	a2,4(a3)
60a26a20:	a080      	lbu	a0,0(s0)
60a26a22:	9fc1      	lw	a2,4(a3)
60a26a24:	6005      	bteqz	60a26a30 <__set_timer+0x8>
60a26a26:	bfc2      	lwu	a2,8(a3)

60a26a28 <__set_timer>:
60a26a28:	64f7      	save	56,ra,s0-s1
60a26a2a:	ec11      	zeb	a0
60a26a2c:	d404      	sw	a0,16(sp)
60a26a2e:	9312      	lw	v1,72(sp)
60a26a30:	6c01      	li	a0,1
60a26a32:	ea8b      	neg	v0,a0
60a26a34:	ed11      	zeb	a1
60a26a36:	d505      	sw	a1,20(sp)
60a26a38:	d606      	sw	a2,24(sp)
60a26a3a:	d707      	sw	a3,28(sp)
60a26a3c:	d208      	sw	v0,32(sp)
60a26a3e:	651a      	move	t8,v0
60a26a40:	2346      	beqz	v1,60a26ace <__set_timer+0xa6>
60a26a42:	2f28      	bnez	a3,60a26a94 <__set_timer+0x6c>
60a26a44:	1044      	b	60a26ace <__set_timer+0xa6>
60a26a46:	67fd      	move	a3,sp
60a26a48:	af8e      	lhu	a0,28(a3)
60a26a4a:	b22c      	lw	v0,60a26af8 <__set_timer+0xd0>
60a26a4c:	67a6      	move	a1,a2
60a26a4e:	d308      	sw	v1,32(sp)
60a26a50:	c882      	sh	a0,4(s0)
60a26a52:	6f1c      	li	a3,28
60a26a54:	ea40      	jalr	v0
60a26a56:	6786      	move	a0,a2
60a26a58:	9307      	lw	v1,28(sp)
60a26a5a:	9712      	lw	a3,72(sp)
60a26a5c:	e275      	addu	a1,v0,v1
60a26a5e:	d8e3      	sw	a3,12(s0)
60a26a60:	6a04      	li	v0,4
60a26a62:	a0e0      	lbu	a3,0(s0)
60a26a64:	9604      	lw	a2,16(sp)
60a26a66:	ec4b      	neg	a0,v0
60a26a68:	ef8c      	and	a3,a0
60a26a6a:	d8a2      	sw	a1,8(s0)
60a26a6c:	6c01      	li	a0,1
60a26a6e:	6d0d      	li	a1,13
60a26a70:	ebab      	neg	v1,a1
60a26a72:	ef8d      	or	a3,a0
60a26a74:	e9cc      	and	s1,a2
60a26a76:	9605      	lw	a2,20(sp)
60a26a78:	3228      	sll	v0,s1,2
60a26a7a:	ef6c      	and	a3,v1
60a26a7c:	6d11      	li	a1,17
60a26a7e:	ef4d      	or	a3,v0
60a26a80:	eccc      	and	a0,a2
60a26a82:	ebab      	neg	v1,a1
60a26a84:	3290      	sll	v0,a0,4
60a26a86:	ef6c      	and	a3,v1
60a26a88:	ef4d      	or	a3,v0
60a26a8a:	c0e0      	sb	a3,0(s0)
60a26a8c:	67dd      	move	a2,sp
60a26a8e:	a6b8      	lbu	a1,24(a2)
60a26a90:	c0a1      	sb	a1,1(s0)
60a26a92:	1012      	b	60a26ab8 <__set_timer+0x90>
60a26a94:	b617      	lw	a2,60a26af0 <__set_timer+0xc8>
60a26a96:	6b00      	li	v1,0
60a26a98:	a680      	lbu	a0,0(a2)
60a26a9a:	240e      	beqz	a0,60a26ab8 <__set_timer+0x90>
60a26a9c:	b516      	lw	a1,60a26af4 <__set_timer+0xcc>
60a26a9e:	6903      	li	s1,3
60a26aa0:	9d00      	lw	s0,0(a1)
60a26aa2:	a0c0      	lbu	a2,0(s0)
60a26aa4:	ee2c      	and	a2,s1
60a26aa6:	26cf      	beqz	a2,60a26a46 <__set_timer+0x1e>
60a26aa8:	43e1      	addiu	a3,v1,1
60a26aaa:	6767      	move	v1,a3
60a26aac:	6744      	move	v0,a0
60a26aae:	eb91      	seb	v1
60a26ab0:	ea11      	zeb	v0
60a26ab2:	eb42      	slt	v1,v0
60a26ab4:	4810      	addiu	s0,16
60a26ab6:	61f5      	btnez	60a26aa2 <__set_timer+0x7a>
60a26ab8:	9308      	lw	v1,32(sp)
60a26aba:	ec6f      	not	a0,v1
60a26abc:	651b      	move	t8,v1
60a26abe:	2c07      	bnez	a0,60a26ace <__set_timer+0xa6>
60a26ac0:	6d00      	li	a1,0
60a26ac2:	b00e      	lw	s0,60a26af8 <__set_timer+0xd0>
60a26ac4:	0c04      	la	a0,60a26ad4 <__set_timer+0xac>
60a26ac6:	67c5      	move	a2,a1
60a26ac8:	e840      	jalr	s0
60a26aca:	6f4b      	li	a3,75
60a26acc:	17ff      	b	60a26acc <__set_timer+0xa4>
60a26ace:	6758      	move	v0,t8
60a26ad0:	6477      	restore	56,ra,s0-s1
60a26ad2:	e8a0      	jrc	ra
60a26ad4:	453c      	daddiu	s1,a1,-4
60a26ad6:	203e      	beqz	s0,60a26b54 <modify_app_timer+0x20>
60a26ad8:	6573      	move	s3,v1
60a26ada:	2074      	beqz	s0,60a26bc4 <restart_app_timer+0xc>
60a26adc:	7061      	cmpi	s0,97
60a26ade:	2070      	beqz	s0,60a26bc0 <restart_app_timer+0x8>
60a26ae0:	6974      	li	s1,116
60a26ae2:	656d      	move	t3,a1
60a26ae4:	2072      	beqz	s0,60a26bca <restart_app_timer+0x12>
60a26ae6:	6166      	btnez	60a26bb4 <stop_app_timer+0x34>
60a26ae8:	6c69      	li	a0,105
60a26aea:	2121      	beqz	s1,60a26b2e <set_single_shot_app_timer+0x16>
60a26aec:	0000      	addiu	s0,sp,0
60a26aee:	0000      	addiu	s0,sp,0
60a26af0:	96a4      	lw	a2,656(sp)
60a26af2:	9fc1      	lw	a2,4(a3)
60a26af4:	9694      	lw	a2,592(sp)
60a26af6:	9fc1      	lw	a2,4(a3)
60a26af8:	6011      	bteqz	60a26b1c <set_single_shot_app_timer+0x4>
60a26afa:	bfc2      	lwu	a2,8(a3)

60a26afc <set_app_timer>:
60a26afc:	64c4      	save	32,ra
60a26afe:	3282      	srl	v0,a0,8
60a26b00:	d604      	sw	a2,16(sp)
60a26b02:	67e5      	move	a3,a1
60a26b04:	67c2      	move	a2,v0
60a26b06:	ef31      	zeh	a3
60a26b08:	ec11      	zeb	a0
60a26b0a:	6d00      	li	a1,0
60a26b0c:	1901 9a8a 	jal	60a26a28 <__set_timer>
60a26b10:	ee11      	zeb	a2
60a26b12:	6444      	restore	32,ra
60a26b14:	e8a0      	jrc	ra
	...

60a26b18 <set_single_shot_app_timer>:
60a26b18:	64c4      	save	32,ra
60a26b1a:	3282      	srl	v0,a0,8
60a26b1c:	d604      	sw	a2,16(sp)
60a26b1e:	67e5      	move	a3,a1
60a26b20:	67c2      	move	a2,v0
60a26b22:	ef31      	zeh	a3
60a26b24:	ec11      	zeb	a0
60a26b26:	6d01      	li	a1,1
60a26b28:	1901 9a8a 	jal	60a26a28 <__set_timer>
60a26b2c:	ee11      	zeb	a2
60a26b2e:	6444      	restore	32,ra
60a26b30:	e8a0      	jrc	ra
	...

60a26b34 <modify_app_timer>:
60a26b34:	64f4      	save	32,ra,s0-s1
60a26b36:	ec91      	seb	a0
60a26b38:	6705      	move	s0,a1
60a26b3a:	ea8f      	not	v0,a0
60a26b3c:	e831      	zeh	s0
60a26b3e:	2206      	beqz	v0,60a26b4c <modify_app_timer+0x18>
60a26b40:	b60d      	lw	a2,60a26b74 <modify_app_timer+0x40>
60a26b42:	67a4      	move	a1,a0
60a26b44:	a660      	lbu	v1,0(a2)
60a26b46:	ed11      	zeb	a1
60a26b48:	ed63      	sltu	a1,v1
60a26b4a:	6102      	btnez	60a26b50 <modify_app_timer+0x1c>
60a26b4c:	6a00      	li	v0,0
60a26b4e:	1010      	b	60a26b70 <modify_app_timer+0x3c>
60a26b50:	b10a      	lw	s1,60a26b78 <modify_app_timer+0x44>
60a26b52:	3790      	sll	a3,a0,4
60a26b54:	9980      	lw	a0,0(s1)
60a26b56:	6750      	move	v0,s0
60a26b58:	e4e5      	addu	s1,a0,a3
60a26b5a:	200a      	beqz	s0,60a26b70 <modify_app_timer+0x3c>
60a26b5c:	6c00      	li	a0,0
60a26b5e:	b208      	lw	v0,60a26b7c <modify_app_timer+0x48>
60a26b60:	c902      	sh	s0,4(s1)
60a26b62:	67a4      	move	a1,a0
60a26b64:	67c4      	move	a2,a0
60a26b66:	ea40      	jalr	v0
60a26b68:	6f1c      	li	a3,28
60a26b6a:	e209      	addu	v0,s0
60a26b6c:	d942      	sw	v0,8(s1)
60a26b6e:	6a01      	li	v0,1
60a26b70:	6474      	restore	32,ra,s0-s1
60a26b72:	e8a0      	jrc	ra
60a26b74:	96a4      	lw	a2,656(sp)
60a26b76:	9fc1      	lw	a2,4(a3)
60a26b78:	9694      	lw	a2,592(sp)
60a26b7a:	9fc1      	lw	a2,4(a3)
60a26b7c:	6011      	bteqz	60a26ba0 <stop_app_timer+0x20>
60a26b7e:	bfc2      	lwu	a2,8(a3)

60a26b80 <stop_app_timer>:
60a26b80:	ec91      	seb	a0
60a26b82:	ea8f      	not	v0,a0
60a26b84:	2206      	beqz	v0,60a26b92 <stop_app_timer+0x12>
60a26b86:	b60b      	lw	a2,60a26bb0 <stop_app_timer+0x30>
60a26b88:	67a4      	move	a1,a0
60a26b8a:	a660      	lbu	v1,0(a2)
60a26b8c:	ed11      	zeb	a1
60a26b8e:	ed63      	sltu	a1,v1
60a26b90:	6102      	btnez	60a26b96 <stop_app_timer+0x16>
60a26b92:	e820      	jr	ra
60a26b94:	6a00      	li	v0,0
60a26b96:	3790      	sll	a3,a0,4
60a26b98:	b407      	lw	a0,60a26bb4 <stop_app_timer+0x34>
60a26b9a:	6d04      	li	a1,4
60a26b9c:	9cc0      	lw	a2,0(a0)
60a26b9e:	ebab      	neg	v1,a1
60a26ba0:	e6f1      	addu	a0,a2,a3
60a26ba2:	a4e0      	lbu	a3,0(a0)
60a26ba4:	4346      	addiu	v0,v1,6
60a26ba6:	ef6c      	and	a3,v1
60a26ba8:	ef4d      	or	a3,v0
60a26baa:	6a01      	li	v0,1
60a26bac:	e820      	jr	ra
60a26bae:	c4e0      	sb	a3,0(a0)
60a26bb0:	96a4      	lw	a2,656(sp)
60a26bb2:	9fc1      	lw	a2,4(a3)
60a26bb4:	9694      	lw	a2,592(sp)
60a26bb6:	9fc1      	lw	a2,4(a3)

60a26bb8 <restart_app_timer>:
60a26bb8:	64f4      	save	32,ra,s0-s1
60a26bba:	ec91      	seb	a0
60a26bbc:	ea8f      	not	v0,a0
60a26bbe:	2206      	beqz	v0,60a26bcc <restart_app_timer+0x14>
60a26bc0:	b610      	lw	a2,60a26c00 <restart_app_timer+0x48>
60a26bc2:	67a4      	move	a1,a0
60a26bc4:	a660      	lbu	v1,0(a2)
60a26bc6:	ed11      	zeb	a1
60a26bc8:	ed63      	sltu	a1,v1
60a26bca:	6102      	btnez	60a26bd0 <restart_app_timer+0x18>
60a26bcc:	6a00      	li	v0,0
60a26bce:	1015      	b	60a26bfa <restart_app_timer+0x42>
60a26bd0:	3690      	sll	a2,a0,4
60a26bd2:	b40d      	lw	a0,60a26c04 <restart_app_timer+0x4c>
60a26bd4:	6b04      	li	v1,4
60a26bd6:	9c00      	lw	s0,0(a0)
60a26bd8:	e96b      	neg	s1,v1
60a26bda:	e0c1      	addu	s0,a2
60a26bdc:	a0a0      	lbu	a1,0(s0)
60a26bde:	6c00      	li	a0,0
60a26be0:	ed2c      	and	a1,s1
60a26be2:	6901      	li	s1,1
60a26be4:	ed2d      	or	a1,s1
60a26be6:	b209      	lw	v0,60a26c08 <restart_app_timer+0x50>
60a26be8:	c0a0      	sb	a1,0(s0)
60a26bea:	67c4      	move	a2,a0
60a26bec:	67a4      	move	a1,a0
60a26bee:	ea40      	jalr	v0
60a26bf0:	6f1c      	li	a3,28
60a26bf2:	a8e2      	lhu	a3,4(s0)
60a26bf4:	e2f1      	addu	a0,v0,a3
60a26bf6:	d882      	sw	a0,8(s0)
60a26bf8:	6751      	move	v0,s1
60a26bfa:	6474      	restore	32,ra,s0-s1
60a26bfc:	e8a0      	jrc	ra
60a26bfe:	0000      	addiu	s0,sp,0
60a26c00:	96a4      	lw	a2,656(sp)
60a26c02:	9fc1      	lw	a2,4(a3)
60a26c04:	9694      	lw	a2,592(sp)
60a26c06:	9fc1      	lw	a2,4(a3)
60a26c08:	6011      	bteqz	60a26c2c <kill_app_timer+0x20>
60a26c0a:	bfc2      	lwu	a2,8(a3)

60a26c0c <kill_app_timer>:
60a26c0c:	ec91      	seb	a0
60a26c0e:	ea8f      	not	v0,a0
60a26c10:	2206      	beqz	v0,60a26c1e <kill_app_timer+0x12>
60a26c12:	b60a      	lw	a2,60a26c38 <kill_app_timer+0x2c>
60a26c14:	67a4      	move	a1,a0
60a26c16:	a660      	lbu	v1,0(a2)
60a26c18:	ed11      	zeb	a1
60a26c1a:	ed63      	sltu	a1,v1
60a26c1c:	6102      	btnez	60a26c22 <kill_app_timer+0x16>
60a26c1e:	e820      	jr	ra
60a26c20:	6a00      	li	v0,0
60a26c22:	b707      	lw	a3,60a26c3c <kill_app_timer+0x30>
60a26c24:	3690      	sll	a2,a0,4
60a26c26:	9f60      	lw	v1,0(a3)
60a26c28:	6d04      	li	a1,4
60a26c2a:	e3dd      	addu	a3,v1,a2
60a26c2c:	a740      	lbu	v0,0(a3)
60a26c2e:	ecab      	neg	a0,a1
60a26c30:	ea8c      	and	v0,a0
60a26c32:	c740      	sb	v0,0(a3)
60a26c34:	e820      	jr	ra
60a26c36:	6a01      	li	v0,1
60a26c38:	96a4      	lw	a2,656(sp)
60a26c3a:	9fc1      	lw	a2,4(a3)
60a26c3c:	9694      	lw	a2,592(sp)
60a26c3e:	9fc1      	lw	a2,4(a3)

60a26c40 <init_app_timers>:
60a26c40:	ed11      	zeb	a1
60a26c42:	6745      	move	v0,a1
60a26c44:	2518      	beqz	a1,60a26c76 <init_app_timers+0x36>
60a26c46:	b70d      	lw	a3,60a26c78 <init_app_timers+0x38>
60a26c48:	b60d      	lw	a2,60a26c7c <init_app_timers+0x3c>
60a26c4a:	df80      	sw	a0,0(a3)
60a26c4c:	c6a0      	sb	a1,0(a2)
60a26c4e:	6c00      	li	a0,0
60a26c50:	250e      	beqz	a1,60a26c6e <init_app_timers+0x2e>
60a26c52:	6d04      	li	a1,4
60a26c54:	edab      	neg	a1
60a26c56:	9f60      	lw	v1,0(a3)
60a26c58:	3290      	sll	v0,a0,4
60a26c5a:	e34d      	addu	v1,v0
60a26c5c:	a340      	lbu	v0,0(v1)
60a26c5e:	eaac      	and	v0,a1
60a26c60:	c340      	sb	v0,0(v1)
60a26c62:	4461      	addiu	v1,a0,1
60a26c64:	6783      	move	a0,v1
60a26c66:	a640      	lbu	v0,0(a2)
60a26c68:	ec11      	zeb	a0
60a26c6a:	ec43      	sltu	a0,v0
60a26c6c:	61f4      	btnez	60a26c56 <init_app_timers+0x16>
60a26c6e:	b405      	lw	a0,60a26c80 <init_app_timers+0x40>
60a26c70:	6e00      	li	a2,0
60a26c72:	c4c0      	sb	a2,0(a0)
60a26c74:	6a01      	li	v0,1
60a26c76:	e8a0      	jrc	ra
60a26c78:	9694      	lw	a2,592(sp)
60a26c7a:	9fc1      	lw	a2,4(a3)
60a26c7c:	96a4      	lw	a2,656(sp)
60a26c7e:	9fc1      	lw	a2,4(a3)
60a26c80:	9699      	lw	a2,612(sp)
60a26c82:	9fc1      	lw	a2,4(a3)

60a26c84 <standby_restart_all_app_timer>:
60a26c84:	f004 64f5 	save	a0,40,ra,s0-s1
60a26c88:	ed11      	zeb	a1
60a26c8a:	d504      	sw	a1,16(sp)
60a26c8c:	6900      	li	s1,0
60a26c8e:	2517      	beqz	a1,60a26cbe <standby_restart_all_app_timer+0x3a>
60a26c90:	950a      	lw	a1,40(sp)
60a26c92:	3430      	sll	a0,s1,4
60a26c94:	e581      	addu	s0,a1,a0
60a26c96:	a040      	lbu	v0,0(s0)
60a26c98:	6b03      	li	v1,3
60a26c9a:	ea6c      	and	v0,v1
60a26c9c:	7201      	cmpi	v0,1
60a26c9e:	6109      	btnez	60a26cb2 <standby_restart_all_app_timer+0x2e>
60a26ca0:	6c00      	li	a0,0
60a26ca2:	b209      	lw	v0,60a26cc4 <standby_restart_all_app_timer+0x40>
60a26ca4:	67c4      	move	a2,a0
60a26ca6:	6f1c      	li	a3,28
60a26ca8:	ea40      	jalr	v0
60a26caa:	67a4      	move	a1,a0
60a26cac:	a8e2      	lhu	a3,4(s0)
60a26cae:	e2f9      	addu	a2,v0,a3
60a26cb0:	d8c2      	sw	a2,8(s0)
60a26cb2:	4181      	addiu	a0,s1,1
60a26cb4:	6724      	move	s1,a0
60a26cb6:	9304      	lw	v1,16(sp)
60a26cb8:	e911      	zeb	s1
60a26cba:	e963      	sltu	s1,v1
60a26cbc:	61e9      	btnez	60a26c90 <standby_restart_all_app_timer+0xc>
60a26cbe:	6475      	restore	40,ra,s0-s1
60a26cc0:	e8a0      	jrc	ra
60a26cc2:	0000      	addiu	s0,sp,0
60a26cc4:	6011      	bteqz	60a26ce8 <send_sync_msg_btmanager>
60a26cc6:	bfc2      	lwu	a2,8(a3)

60a26cc8 <applib_message_init>:
60a26cc8:	64c3      	save	24,ra
60a26cca:	b406      	lw	a0,60a26ce0 <applib_message_init+0x18>
60a26ccc:	6d00      	li	a1,0
60a26cce:	9c60      	lw	v1,0(a0)
60a26cd0:	b205      	lw	v0,60a26ce4 <applib_message_init+0x1c>
60a26cd2:	a383      	lbu	a0,3(v1)
60a26cd4:	67c5      	move	a2,a1
60a26cd6:	ea40      	jalr	v0
60a26cd8:	6f1a      	li	a3,26
60a26cda:	6a01      	li	v0,1
60a26cdc:	6443      	restore	24,ra
60a26cde:	e8a0      	jrc	ra
60a26ce0:	969c      	lw	a2,624(sp)
60a26ce2:	9fc1      	lw	a2,4(a3)
60a26ce4:	6011      	bteqz	60a26d08 <send_sync_msg_btmanager+0x20>
60a26ce6:	bfc2      	lwu	a2,8(a3)

60a26ce8 <send_sync_msg_btmanager>:
60a26ce8:	f00e 64f9 	save	a0-a3,72,ra,s0-s1
60a26cec:	b328      	lw	v1,60a26d8c <send_sync_msg_btmanager+0xa4>
60a26cee:	a34c      	lbu	v0,12(v1)
60a26cf0:	6900      	li	s1,0
60a26cf2:	6519      	move	t8,s1
60a26cf4:	2247      	beqz	v0,60a26d84 <send_sync_msg_btmanager+0x9c>
60a26cf6:	b527      	lw	a1,60a26d90 <send_sync_msg_btmanager+0xa8>
60a26cf8:	b027      	lw	s0,60a26d94 <send_sync_msg_btmanager+0xac>
60a26cfa:	9d80      	lw	a0,0(a1)
60a26cfc:	67d1      	move	a2,s1
60a26cfe:	67b1      	move	a1,s1
60a26d00:	e840      	jalr	s0
60a26d02:	6f14      	li	a3,20
60a26d04:	9513      	lw	a1,76(sp)
60a26d06:	0404      	addiu	a0,sp,16
60a26d08:	6e08      	li	a2,8
60a26d0a:	e840      	jalr	s0
60a26d0c:	67f1      	move	a3,s1
60a26d0e:	9212      	lw	v0,72(sp)
60a26d10:	f020 0402 	addiu	a0,sp,34
60a26d14:	2204      	beqz	v0,60a26d1e <send_sync_msg_btmanager+0x36>
60a26d16:	67a2      	move	a1,v0
60a26d18:	6e06      	li	a2,6
60a26d1a:	67f1      	move	a3,s1
60a26d1c:	1003      	b	60a26d24 <send_sync_msg_btmanager+0x3c>
60a26d1e:	67b1      	move	a1,s1
60a26d20:	6e06      	li	a2,6
60a26d22:	6f01      	li	a3,1
60a26d24:	e8c0      	jalrc	s0
60a26d26:	6d00      	li	a1,0
60a26d28:	b01b      	lw	s0,60a26d94 <send_sync_msg_btmanager+0xac>
60a26d2a:	040c      	addiu	a0,sp,48
60a26d2c:	67c5      	move	a2,a1
60a26d2e:	e840      	jalr	s0
60a26d30:	6f12      	li	a3,18
60a26d32:	960c      	lw	a2,48(sp)
60a26d34:	9414      	lw	a0,80(sp)
60a26d36:	d606      	sw	a2,24(sp)
60a26d38:	2c02      	bnez	a0,60a26d3e <send_sync_msg_btmanager+0x56>
60a26d3a:	020a      	addiu	v0,sp,40
60a26d3c:	1001      	b	60a26d40 <send_sync_msg_btmanager+0x58>
60a26d3e:	9214      	lw	v0,80(sp)
60a26d40:	d207      	sw	v0,28(sp)
60a26d42:	b216      	lw	v0,60a26d98 <send_sync_msg_btmanager+0xb0>
60a26d44:	6c03      	li	a0,3
60a26d46:	0504      	addiu	a1,sp,16
60a26d48:	6e00      	li	a2,0
60a26d4a:	ea40      	jalr	v0
60a26d4c:	6f18      	li	a3,24
60a26d4e:	5200      	slti	v0,0
60a26d50:	6002      	bteqz	60a26d56 <send_sync_msg_btmanager+0x6e>
60a26d52:	6902      	li	s1,2
60a26d54:	1009      	b	60a26d68 <send_sync_msg_btmanager+0x80>
60a26d56:	940c      	lw	a0,48(sp)
60a26d58:	9515      	lw	a1,84(sp)
60a26d5a:	b00f      	lw	s0,60a26d94 <send_sync_msg_btmanager+0xac>
60a26d5c:	6e00      	li	a2,0
60a26d5e:	e840      	jalr	s0
60a26d60:	6f14      	li	a3,20
60a26d62:	5200      	slti	v0,0
60a26d64:	6002      	bteqz	60a26d6a <send_sync_msg_btmanager+0x82>
60a26d66:	6904      	li	s1,4
60a26d68:	e92b      	neg	s1
60a26d6a:	6d00      	li	a1,0
60a26d6c:	b00a      	lw	s0,60a26d94 <send_sync_msg_btmanager+0xac>
60a26d6e:	67c5      	move	a2,a1
60a26d70:	040c      	addiu	a0,sp,48
60a26d72:	e840      	jalr	s0
60a26d74:	6f13      	li	a3,19
60a26d76:	b707      	lw	a3,60a26d90 <send_sync_msg_btmanager+0xa8>
60a26d78:	6d00      	li	a1,0
60a26d7a:	9f80      	lw	a0,0(a3)
60a26d7c:	67c5      	move	a2,a1
60a26d7e:	e840      	jalr	s0
60a26d80:	6f16      	li	a3,22
60a26d82:	6519      	move	t8,s1
60a26d84:	6758      	move	v0,t8
60a26d86:	6479      	restore	72,ra,s0-s1
60a26d88:	e8a0      	jrc	ra
60a26d8a:	0000      	addiu	s0,sp,0
60a26d8c:	a080      	lbu	a0,0(s0)
60a26d8e:	9fc1      	lw	a2,4(a3)
60a26d90:	96a0      	lw	a2,640(sp)
60a26d92:	9fc1      	lw	a2,4(a3)
60a26d94:	6009      	bteqz	60a26da8 <send_sync_msg_btmanager+0xc0>
60a26d96:	bfc2      	lwu	a2,8(a3)
60a26d98:	6011      	bteqz	60a26dbc <send_sync_msg_btmanager+0xd4>
60a26d9a:	bfc2      	lwu	a2,8(a3)
Disassembly of section BANK_CONTROL_1_41:

60a66800 <com_open_config_file>:
60a66800:	64e5      	save	40,ra,s0
60a66802:	6d00      	li	a1,0
60a66804:	b011      	lw	s0,60a66848 <com_open_config_file+0x48>
60a66806:	67c5      	move	a2,a1
60a66808:	e840      	jalr	s0
60a6680a:	6f0d      	li	a3,13
60a6680c:	6782      	move	a0,v0
60a6680e:	b20e      	lw	v0,60a66844 <com_open_config_file+0x44>
60a66810:	6764      	move	v1,a0
60a66812:	da80      	sw	a0,0(v0)
60a66814:	2413      	beqz	a0,60a6683c <com_open_config_file+0x3c>
60a66816:	0504      	addiu	a1,sp,16
60a66818:	6e10      	li	a2,16
60a6681a:	e840      	jalr	s0
60a6681c:	6f11      	li	a3,17
60a6681e:	ec4f      	not	a0,v0
60a66820:	6b00      	li	v1,0
60a66822:	240c      	beqz	a0,60a6683c <com_open_config_file+0x3c>
60a66824:	677d      	move	v1,sp
60a66826:	a3b0      	lbu	a1,16(v1)
60a66828:	7563      	cmpi	a1,99
60a6682a:	6107      	btnez	60a6683a <com_open_config_file+0x3a>
60a6682c:	a3d1      	lbu	a2,17(v1)
60a6682e:	7666      	cmpi	a2,102
60a66830:	6104      	btnez	60a6683a <com_open_config_file+0x3a>
60a66832:	a3f2      	lbu	a3,18(v1)
60a66834:	6b01      	li	v1,1
60a66836:	7767      	cmpi	a3,103
60a66838:	6001      	bteqz	60a6683c <com_open_config_file+0x3c>
60a6683a:	6b00      	li	v1,0
60a6683c:	6743      	move	v0,v1
60a6683e:	6465      	restore	40,ra,s0
60a66840:	e8a0      	jrc	ra
60a66842:	0000      	addiu	s0,sp,0
60a66844:	a090      	lbu	a0,16(s0)
60a66846:	9fc1      	lw	a2,4(a3)
60a66848:	6011      	bteqz	60a6686c <com_get_config_struct+0x20>
60a6684a:	bfc2      	lwu	a2,8(a3)

60a6684c <com_get_config_struct>:
60a6684c:	f008 64f6 	save	a0-a1,48,ra,s0-s1
60a66850:	67a4      	move	a1,a0
60a66852:	ed31      	zeh	a1
60a66854:	b118      	lw	s1,60a668b4 <com_get_config_struct+0x68>
60a66856:	33ac      	sll	v1,a1,3
60a66858:	ee31      	zeh	a2
60a6685a:	d606      	sw	a2,24(sp)
60a6685c:	9980      	lw	a0,0(s1)
60a6685e:	67c3      	move	a2,v1
60a66860:	b016      	lw	s0,60a668b8 <com_get_config_struct+0x6c>
60a66862:	6d00      	li	a1,0
60a66864:	4e10      	addiu	a2,16
60a66866:	e840      	jalr	s0
60a66868:	6f0f      	li	a3,15
60a6686a:	ea4f      	not	v0
60a6686c:	6b00      	li	v1,0
60a6686e:	221f      	beqz	v0,60a668ae <com_get_config_struct+0x62>
60a66870:	9980      	lw	a0,0(s1)
60a66872:	0504      	addiu	a1,sp,16
60a66874:	6e08      	li	a2,8
60a66876:	e840      	jalr	s0
60a66878:	6f11      	li	a3,17
60a6687a:	ec4f      	not	a0,v0
60a6687c:	6b00      	li	v1,0
60a6687e:	2417      	beqz	a0,60a668ae <com_get_config_struct+0x62>
60a66880:	9604      	lw	a2,16(sp)
60a66882:	9980      	lw	a0,0(s1)
60a66884:	67a3      	move	a1,v1
60a66886:	e840      	jalr	s0
60a66888:	6f0f      	li	a3,15
60a6688a:	ee4f      	not	a2,v0
60a6688c:	6b00      	li	v1,0
60a6688e:	260f      	beqz	a2,60a668ae <com_get_config_struct+0x62>
60a66890:	9605      	lw	a2,20(sp)
60a66892:	9206      	lw	v0,24(sp)
60a66894:	9980      	lw	a0,0(s1)
60a66896:	eac3      	sltu	v0,a2
60a66898:	6003      	bteqz	60a668a0 <com_get_config_struct+0x54>
60a6689a:	950d      	lw	a1,52(sp)
60a6689c:	67c2      	move	a2,v0
60a6689e:	1001      	b	60a668a2 <com_get_config_struct+0x56>
60a668a0:	950d      	lw	a1,52(sp)
60a668a2:	e840      	jalr	s0
60a668a4:	6f11      	li	a3,17
60a668a6:	ef4f      	not	a3,v0
60a668a8:	6b00      	li	v1,0
60a668aa:	2701      	beqz	a3,60a668ae <com_get_config_struct+0x62>
60a668ac:	6b01      	li	v1,1
60a668ae:	6743      	move	v0,v1
60a668b0:	6476      	restore	48,ra,s0-s1
60a668b2:	e8a0      	jrc	ra
60a668b4:	a090      	lbu	a0,16(s0)
60a668b6:	9fc1      	lw	a2,4(a3)
60a668b8:	6011      	bteqz	60a668dc <com_get_config_default+0x20>
60a668ba:	bfc2      	lwu	a2,8(a3)

60a668bc <com_get_config_default>:
60a668bc:	64f6      	save	48,ra,s0-s1
60a668be:	67c4      	move	a2,a0
60a668c0:	b115      	lw	s1,60a66914 <com_get_config_default+0x58>
60a668c2:	ee31      	zeh	a2
60a668c4:	36cc      	sll	a2,3
60a668c6:	9980      	lw	a0,0(s1)
60a668c8:	b014      	lw	s0,60a66918 <com_get_config_default+0x5c>
60a668ca:	6d00      	li	a1,0
60a668cc:	4e10      	addiu	a2,16
60a668ce:	e840      	jalr	s0
60a668d0:	6f0f      	li	a3,15
60a668d2:	ea4f      	not	v0
60a668d4:	6b00      	li	v1,0
60a668d6:	221a      	beqz	v0,60a6690c <com_get_config_default+0x50>
60a668d8:	9980      	lw	a0,0(s1)
60a668da:	0504      	addiu	a1,sp,16
60a668dc:	6e08      	li	a2,8
60a668de:	e840      	jalr	s0
60a668e0:	6f11      	li	a3,17
60a668e2:	ec4f      	not	a0,v0
60a668e4:	6b00      	li	v1,0
60a668e6:	2412      	beqz	a0,60a6690c <com_get_config_default+0x50>
60a668e8:	9980      	lw	a0,0(s1)
60a668ea:	9604      	lw	a2,16(sp)
60a668ec:	67a3      	move	a1,v1
60a668ee:	e840      	jalr	s0
60a668f0:	6f0f      	li	a3,15
60a668f2:	ed4f      	not	a1,v0
60a668f4:	6b00      	li	v1,0
60a668f6:	250a      	beqz	a1,60a6690c <com_get_config_default+0x50>
60a668f8:	9980      	lw	a0,0(s1)
60a668fa:	6f11      	li	a3,17
60a668fc:	0506      	addiu	a1,sp,24
60a668fe:	e840      	jalr	s0
60a66900:	6e02      	li	a2,2
60a66902:	ef4f      	not	a3,v0
60a66904:	6b00      	li	v1,0
60a66906:	2702      	beqz	a3,60a6690c <com_get_config_default+0x50>
60a66908:	675d      	move	v0,sp
60a6690a:	aa6c      	lhu	v1,24(v0)
60a6690c:	6743      	move	v0,v1
60a6690e:	6476      	restore	48,ra,s0-s1
60a66910:	e8a0      	jrc	ra
60a66912:	0000      	addiu	s0,sp,0
60a66914:	a090      	lbu	a0,16(s0)
60a66916:	9fc1      	lw	a2,4(a3)
60a66918:	6011      	bteqz	60a6693c <com_get_config_default+0x80>
60a6691a:	bfc2      	lwu	a2,8(a3)
Disassembly of section BANK_CONTROL_1_42:

60aa6800 <smart_tws_sync_cmd_send>:
60aa6800:	64e4      	save	32,ra,s0
60aa6802:	6d00      	li	a1,0
60aa6804:	b20c      	lw	v0,60aa6834 <.LBE2+0x6>
60aa6806:	6704      	move	s0,a0
60aa6808:	67c5      	move	a2,a1
60aa680a:	6c01      	li	a0,1
60aa680c:	ea40      	jalr	v0
60aa680e:	6f49      	li	a3,73
60aa6810:	f020 a25a 	lbu	v0,58(v0)
60aa6814:	e811      	zeb	s0
60aa6816:	220b      	beqz	v0,60aa682e <.LBE2>

60aa6818 <.LBB2>:
60aa6818:	f0a1 6c0c 	li	a0,2220
60aa681c:	d404      	sw	a0,16(sp)
60aa681e:	677d      	move	v1,sp
60aa6820:	6c00      	li	a0,0
60aa6822:	b206      	lw	v0,60aa6838 <.LBE2+0xa>
60aa6824:	c314      	sb	s0,20(v1)
60aa6826:	0504      	addiu	a1,sp,16
60aa6828:	67c4      	move	a2,a0
60aa682a:	ea40      	jalr	v0
60aa682c:	67e4      	move	a3,a0

60aa682e <.LBE2>:
60aa682e:	6464      	restore	32,ra,s0
60aa6830:	e8a0      	jrc	ra
60aa6832:	0000      	addiu	s0,sp,0
60aa6834:	6011      	bteqz	60aa6858 <smart_set_ainout_param+0x1c>
60aa6836:	bfc2      	lwu	a2,8(a3)
60aa6838:	6ce9      	li	a0,233
60aa683a:	60a2      	bteqz	60aa6780 <com_get_config_default+0x3fec4>

60aa683c <smart_set_ainout_param>:
60aa683c:	64f4      	save	32,ra,s0-s1
60aa683e:	6b00      	li	v1,0
60aa6840:	b216      	lw	v0,60aa6898 <smart_set_ainout_param+0x5c>
60aa6842:	6724      	move	s1,a0
60aa6844:	dc60      	sw	v1,0(a0)
60aa6846:	6c2a      	li	a0,42
60aa6848:	ea40      	jalr	v0
60aa684a:	6705      	move	s0,a1
60aa684c:	e811      	zeb	s0
60aa684e:	6782      	move	a0,v0
60aa6850:	ec11      	zeb	a0
60aa6852:	7003      	cmpi	s0,3
60aa6854:	d986      	sw	a0,24(s1)
60aa6856:	6107      	btnez	60aa6866 <smart_set_ainout_param+0x2a>
60aa6858:	6c00      	li	a0,0
60aa685a:	6b10      	li	v1,16
60aa685c:	4441      	addiu	v0,a0,1
60aa685e:	d961      	sw	v1,4(s1)
60aa6860:	d962      	sw	v1,8(s1)
60aa6862:	d983      	sw	a0,12(s1)
60aa6864:	100a      	b	60aa687a <smart_set_ainout_param+0x3e>
60aa6866:	6d17      	li	a1,23
60aa6868:	d9a1      	sw	a1,4(s1)
60aa686a:	6b10      	li	v1,16
60aa686c:	4dea      	addiu	a1,-22
60aa686e:	7405      	cmpi	a0,5
60aa6870:	d962      	sw	v1,8(s1)
60aa6872:	d9a3      	sw	a1,12(s1)
60aa6874:	4542      	addiu	v0,a1,2
60aa6876:	6001      	bteqz	60aa687a <smart_set_ainout_param+0x3e>
60aa6878:	6a02      	li	v0,2
60aa687a:	6f07      	li	a3,7
60aa687c:	d944      	sw	v0,16(s1)
60aa687e:	47ca      	addiu	a2,a3,-6
60aa6880:	b206      	lw	v0,60aa6898 <smart_set_ainout_param+0x5c>
60aa6882:	d965      	sw	v1,20(s1)
60aa6884:	d9e8      	sw	a3,32(s1)
60aa6886:	f1a0 6c0a 	li	a0,426
60aa688a:	ea40      	jalr	v0
60aa688c:	d9c7      	sw	a2,28(s1)
60aa688e:	ea11      	zeb	v0
60aa6890:	d949      	sw	v0,36(s1)
60aa6892:	6474      	restore	32,ra,s0-s1
60aa6894:	e8a0      	jrc	ra
60aa6896:	0000      	addiu	s0,sp,0
60aa6898:	68bd      	li	s0,189
60aa689a:	60a6      	bteqz	60aa67e8 <com_get_config_default+0x3ff2c>

60aa689c <smart_enter_speech_mode>:
60aa689c:	2402      	beqz	a0,60aa68a2 <smart_enter_speech_mode+0x6>
60aa689e:	6a01      	li	v0,1
60aa68a0:	c440      	sb	v0,0(a0)
60aa68a2:	e8a0      	jrc	ra

60aa68a4 <smart_exit_speech_mode>:
60aa68a4:	2402      	beqz	a0,60aa68aa <smart_exit_speech_mode+0x6>
60aa68a6:	6a00      	li	v0,0
60aa68a8:	c440      	sb	v0,0(a0)
60aa68aa:	e8a0      	jrc	ra

60aa68ac <smart_process_message_deal>:
60aa68ac:	f00c 64f9 	save	a0-a2,72,ra,s0-s1
60aa68b0:	9c40      	lw	v0,0(a0)
60aa68b2:	6724      	move	s1,a0
60aa68b4:	f201 7202 	cmpi	v0,2562
60aa68b8:	6707      	move	s0,a3
60aa68ba:	604c      	bteqz	60aa6954 <.LBE7+0x2>
60aa68bc:	f201 5a03 	sltiu	v0,2563
60aa68c0:	6004      	bteqz	60aa68ca <smart_process_message_deal+0x1e>
60aa68c2:	f201 7201 	cmpi	v0,2561
60aa68c6:	602f      	bteqz	60aa6926 <.LBE5+0x2>
60aa68c8:	1065      	b	60aa6994 <.LBE8>
60aa68ca:	f201 7204 	cmpi	v0,2564
60aa68ce:	6004      	bteqz	60aa68d8 <smart_process_message_deal+0x2c>
60aa68d0:	f201 7205 	cmpi	v0,2565
60aa68d4:	6019      	bteqz	60aa6908 <.LBE3+0x1e>
60aa68d6:	105e      	b	60aa6994 <.LBE8>
60aa68d8:	6d00      	li	a1,0
60aa68da:	b249      	lw	v0,60aa69fc <.LBE8+0x68>
60aa68dc:	0c30      	la	a0,60aa699c <.LBE8+0x8>
60aa68de:	67c5      	move	a2,a1
60aa68e0:	ea40      	jalr	v0
60aa68e2:	6f4b      	li	a3,75

60aa68e4 <.LBB3>:
60aa68e4:	2002      	beqz	s0,60aa68ea <.LBE3>
60aa68e6:	6b01      	li	v1,1
60aa68e8:	c060      	sb	v1,0(s0)

60aa68ea <.LBE3>:
60aa68ea:	9413      	lw	a0,76(sp)
60aa68ec:	9314      	lw	v1,80(sp)
60aa68ee:	6d84      	li	a1,132
60aa68f0:	eb40      	jalr	v1
60aa68f2:	6e00      	li	a2,0
60aa68f4:	9983      	lw	a0,12(s1)
60aa68f6:	2a02      	bnez	v0,60aa68fc <.LBE3+0x12>
60aa68f8:	6a01      	li	v0,1
60aa68fa:	1001      	b	60aa68fe <.LBE3+0x14>
60aa68fc:	6a02      	li	v0,2
60aa68fe:	c440      	sb	v0,0(a0)
60aa6900:	1941 9a00 	jal	60aa6800 <smart_tws_sync_cmd_send>
60aa6904:	6c05      	li	a0,5
60aa6906:	1046      	b	60aa6994 <.LBE8>
60aa6908:	6d00      	li	a1,0
60aa690a:	b23d      	lw	v0,60aa69fc <.LBE8+0x68>
60aa690c:	67c5      	move	a2,a1
60aa690e:	0c2b      	la	a0,60aa69b8 <.LBE8+0x24>
60aa6910:	ea40      	jalr	v0
60aa6912:	6f4b      	li	a3,75
60aa6914:	9413      	lw	a0,76(sp)
60aa6916:	9314      	lw	v1,80(sp)
60aa6918:	6d85      	li	a1,133
60aa691a:	eb40      	jalr	v1
60aa691c:	6e00      	li	a2,0

60aa691e <.LBB5>:
60aa691e:	203a      	beqz	s0,60aa6994 <.LBE8>
60aa6920:	6c00      	li	a0,0
60aa6922:	c080      	sb	a0,0(s0)

60aa6924 <.LBE5>:
60aa6924:	1037      	b	60aa6994 <.LBE8>
60aa6926:	6d00      	li	a1,0
60aa6928:	b235      	lw	v0,60aa69fc <.LBE8+0x68>
60aa692a:	67c5      	move	a2,a1
60aa692c:	0c2a      	la	a0,60aa69d4 <.LBE8+0x40>
60aa692e:	ea40      	jalr	v0
60aa6930:	6f4b      	li	a3,75

60aa6932 <.LBB7>:
60aa6932:	a1a4      	lbu	a1,4(s1)
60aa6934:	1941 9a0f 	jal	60aa683c <smart_set_ainout_param>
60aa6938:	0404      	addiu	a0,sp,16
60aa693a:	950a      	lw	a1,40(sp)
60aa693c:	a1c5      	lbu	a2,5(s1)
60aa693e:	7505      	cmpi	a1,5
60aa6940:	d60d      	sw	a2,52(sp)
60aa6942:	6102      	btnez	60aa6948 <.LBB7+0x16>
60aa6944:	b32f      	lw	v1,60aa6a00 <.LBE8+0x6c>
60aa6946:	ebc0      	jalrc	v1
60aa6948:	9413      	lw	a0,76(sp)
60aa694a:	9314      	lw	v1,80(sp)
60aa694c:	6d81      	li	a1,129
60aa694e:	eb40      	jalr	v1
60aa6950:	0604      	addiu	a2,sp,16

60aa6952 <.LBE7>:
60aa6952:	1020      	b	60aa6994 <.LBE8>
60aa6954:	6d00      	li	a1,0
60aa6956:	b02a      	lw	s0,60aa69fc <.LBE8+0x68>
60aa6958:	6f4b      	li	a3,75
60aa695a:	0c24      	la	a0,60aa69e8 <.LBE8+0x54>
60aa695c:	e840      	jalr	s0
60aa695e:	67c5      	move	a2,a1

60aa6960 <.LBB8>:
60aa6960:	a1e4      	lbu	a3,4(s1)
60aa6962:	6802      	li	s0,2
60aa6964:	7703      	cmpi	a3,3
60aa6966:	6008      	bteqz	60aa6978 <.LBB8+0x18>
60aa6968:	b227      	lw	v0,60aa6a04 <.LBE8+0x70>
60aa696a:	ea40      	jalr	v0
60aa696c:	6c2a      	li	a0,42
60aa696e:	ea11      	zeb	v0
60aa6970:	7205      	cmpi	v0,5
60aa6972:	400e      	addiu	s0,s0,-2
60aa6974:	6101      	btnez	60aa6978 <.LBB8+0x18>
60aa6976:	4001      	addiu	s0,s0,1
60aa6978:	1941 9a00 	jal	60aa6800 <smart_tws_sync_cmd_send>
60aa697c:	6c06      	li	a0,6
60aa697e:	9413      	lw	a0,76(sp)
60aa6980:	9314      	lw	v1,80(sp)
60aa6982:	6d82      	li	a1,130
60aa6984:	eb40      	jalr	v1
60aa6986:	67d0      	move	a2,s0
60aa6988:	9983      	lw	a0,12(s1)
60aa698a:	2a02      	bnez	v0,60aa6990 <.LBB8+0x30>
60aa698c:	6a01      	li	v0,1
60aa698e:	1001      	b	60aa6992 <.LBB8+0x32>
60aa6990:	6a02      	li	v0,2
60aa6992:	c440      	sb	v0,0(a0)

60aa6994 <.LBE8>:
60aa6994:	6a00      	li	v0,0
60aa6996:	6479      	restore	72,ra,s0-s1
60aa6998:	e8a0      	jrc	ra
60aa699a:	0000      	addiu	s0,sp,0
60aa699c:	493c      	addiu	s1,60
60aa699e:	203e      	beqz	s0,60aa6a1c <i2s_mfp_cfg+0x14>
60aa69a0:	6572      	move	s3,v0
60aa69a2:	6f63      	li	a3,99
60aa69a4:	6e67      	li	a2,103
60aa69a6:	7a69      	sd	v1,72(v0)
60aa69a8:	2065      	beqz	s0,60aa6a74 <i2s_mfp_cfg+0x6c>
60aa69aa:	6170      	btnez	60aa6a8c <i2s_mfp_cfg+0x84>
60aa69ac:	7375      	cmpi	v1,117
60aa69ae:	2065      	beqz	s0,60aa6a7a <i2s_mfp_cfg+0x72>
60aa69b0:	756d      	cmpi	a1,109
60aa69b2:	6973      	li	s1,115
60aa69b4:	0063      	addiu	s0,sp,396
60aa69b6:	0000      	addiu	s0,sp,0
60aa69b8:	493c      	addiu	s1,60
60aa69ba:	203e      	beqz	s0,60aa6a38 <i2s_mfp_cfg+0x30>
60aa69bc:	6572      	move	s3,v0
60aa69be:	6f63      	li	a3,99
60aa69c0:	6e67      	li	a2,103
60aa69c2:	7a69      	sd	v1,72(v0)
60aa69c4:	2065      	beqz	s0,60aa6a90 <i2s_mfp_cfg+0x88>
60aa69c6:	6572      	move	s3,v0
60aa69c8:	7573      	cmpi	a1,115
60aa69ca:	656d      	move	t3,a1
60aa69cc:	6d20      	li	a1,32
60aa69ce:	7375      	cmpi	v1,117
60aa69d0:	6369      	addiu	sp,840
60aa69d2:	0000      	addiu	s0,sp,0
60aa69d4:	493c      	addiu	s1,60
60aa69d6:	203e      	beqz	s0,60aa6a54 <i2s_mfp_cfg+0x4c>
60aa69d8:	6572      	move	s3,v0
60aa69da:	6f63      	li	a3,99
60aa69dc:	6e67      	li	a2,103
60aa69de:	7a69      	sd	v1,72(v0)
60aa69e0:	2065      	beqz	s0,60aa6aac <i2s_mfp_cfg+0xa4>
60aa69e2:	7473      	cmpi	a0,115
60aa69e4:	7261      	cmpi	v0,97
60aa69e6:	0074      	addiu	s0,sp,464
60aa69e8:	493c      	addiu	s1,60
60aa69ea:	203e      	beqz	s0,60aa6a68 <i2s_mfp_cfg+0x60>
60aa69ec:	6572      	move	s3,v0
60aa69ee:	6f63      	li	a3,99
60aa69f0:	6e67      	li	a2,103
60aa69f2:	7a69      	sd	v1,72(v0)
60aa69f4:	2065      	beqz	s0,60aa6ac0 <i2s_mfp_cfg+0xb8>
60aa69f6:	7473      	cmpi	a0,115
60aa69f8:	706f      	cmpi	s0,111
60aa69fa:	0000      	addiu	s0,sp,0
60aa69fc:	6011      	bteqz	60aa6a20 <i2s_mfp_cfg+0x18>
60aa69fe:	bfc2      	lwu	a2,8(a3)
60aa6a00:	6a09      	li	v0,9
60aa6a02:	60aa      	bteqz	60aa6958 <.LBE7+0x6>
60aa6a04:	68bd      	li	s0,189
60aa6a06:	60a6      	bteqz	60aa6954 <.LBE7+0x2>

60aa6a08 <i2s_mfp_cfg>:
60aa6a08:	b726      	lw	a3,60aa6aa0 <i2s_mfp_cfg+0x98>
60aa6a0a:	f200 6a01 	li	v0,513
60aa6a0e:	9fc0      	lw	a2,0(a3)
60aa6a10:	ec4b      	neg	a0,v0
60aa6a12:	ee8c      	and	a2,a0
60aa6a14:	dfc0      	sw	a2,0(a3)
60aa6a16:	b624      	lw	a2,60aa6aa4 <i2s_mfp_cfg+0x9c>
60aa6a18:	b325      	lw	v1,60aa6aac <i2s_mfp_cfg+0xa4>
60aa6a1a:	9ea0      	lw	a1,0(a2)
60aa6a1c:	ed8c      	and	a1,a0
60aa6a1e:	dea0      	sw	a1,0(a2)
60aa6a20:	b522      	lw	a1,60aa6aa8 <i2s_mfp_cfg+0xa0>
60aa6a22:	b424      	lw	a0,60aa6ab0 <i2s_mfp_cfg+0xa8>
60aa6a24:	9d40      	lw	v0,0(a1)
60aa6a26:	ea6c      	and	v0,v1
60aa6a28:	dd40      	sw	v0,0(a1)
60aa6a2a:	9d40      	lw	v0,0(a1)
60aa6a2c:	6bff      	li	v1,255
60aa6a2e:	ea8d      	or	v0,a0
60aa6a30:	dd40      	sw	v0,0(a1)
60aa6a32:	9f40      	lw	v0,0(a3)
60aa6a34:	4382      	addiu	a0,v1,2
60aa6a36:	eb8b      	neg	v1,a0
60aa6a38:	ea6c      	and	v0,v1
60aa6a3a:	df40      	sw	v0,0(a3)
60aa6a3c:	9e80      	lw	a0,0(a2)
60aa6a3e:	b21e      	lw	v0,60aa6ab4 <i2s_mfp_cfg+0xac>
60aa6a40:	ec6c      	and	a0,v1
60aa6a42:	de80      	sw	a0,0(a2)
60aa6a44:	9d80      	lw	a0,0(a1)
60aa6a46:	b31d      	lw	v1,60aa6ab8 <i2s_mfp_cfg+0xb0>
60aa6a48:	ec4c      	and	a0,v0
60aa6a4a:	dd80      	sw	a0,0(a1)
60aa6a4c:	9d40      	lw	v0,0(a1)
60aa6a4e:	6c41      	li	a0,65
60aa6a50:	ea6d      	or	v0,v1
60aa6a52:	b31b      	lw	v1,60aa6abc <i2s_mfp_cfg+0xb4>
60aa6a54:	dd40      	sw	v0,0(a1)
60aa6a56:	9b40      	lw	v0,0(v1)
60aa6a58:	ec8b      	neg	a0
60aa6a5a:	ea8c      	and	v0,a0
60aa6a5c:	db40      	sw	v0,0(v1)
60aa6a5e:	b319      	lw	v1,60aa6ac0 <i2s_mfp_cfg+0xb8>
60aa6a60:	9b40      	lw	v0,0(v1)
60aa6a62:	ea8c      	and	v0,a0
60aa6a64:	b418      	lw	a0,60aa6ac4 <i2s_mfp_cfg+0xbc>
60aa6a66:	db40      	sw	v0,0(v1)
60aa6a68:	9c40      	lw	v0,0(a0)
60aa6a6a:	b318      	lw	v1,60aa6ac8 <i2s_mfp_cfg+0xc0>
60aa6a6c:	ea6c      	and	v0,v1
60aa6a6e:	dc40      	sw	v0,0(a0)
60aa6a70:	9c40      	lw	v0,0(a0)
60aa6a72:	b317      	lw	v1,60aa6acc <i2s_mfp_cfg+0xc4>
60aa6a74:	ea6d      	or	v0,v1
60aa6a76:	dc40      	sw	v0,0(a0)
60aa6a78:	6b81      	li	v1,129
60aa6a7a:	9f40      	lw	v0,0(a3)
60aa6a7c:	eb6b      	neg	v1
60aa6a7e:	ea6c      	and	v0,v1
60aa6a80:	df40      	sw	v0,0(a3)
60aa6a82:	9ee0      	lw	a3,0(a2)
60aa6a84:	ef6c      	and	a3,v1
60aa6a86:	dee0      	sw	a3,0(a2)
60aa6a88:	9d80      	lw	a0,0(a1)
60aa6a8a:	f59f 4b00 	addiu	v1,-640
60aa6a8e:	ec6c      	and	a0,v1
60aa6a90:	dd80      	sw	a0,0(a1)
60aa6a92:	9d40      	lw	v0,0(a1)
60aa6a94:	f600 4b01 	addiu	v1,1537
60aa6a98:	ea6d      	or	v0,v1
60aa6a9a:	dd40      	sw	v0,0(a1)
60aa6a9c:	e8a0      	jrc	ra
60aa6a9e:	0000      	addiu	s0,sp,0
60aa6aa0:	0014      	addiu	s0,sp,80
60aa6aa2:	c009      	sb	s0,9(s0)
60aa6aa4:	0018      	addiu	s0,sp,96
60aa6aa6:	c009      	sb	s0,9(s0)
60aa6aa8:	0060      	addiu	s0,sp,384
60aa6aaa:	c009      	sb	s0,9(s0)
60aa6aac:	ffff      	daddiu	a3,sp,124
60aa6aae:	ff3f      	daddiu	s1,sp,124
60aa6ab0:	0000      	addiu	s0,sp,0
60aa6ab2:	0080      	addiu	s0,sp,512
60aa6ab4:	ffff      	daddiu	a3,sp,124
60aa6ab6:	ffcf      	daddiu	a2,sp,60
60aa6ab8:	0000      	addiu	s0,sp,0
60aa6aba:	0020      	addiu	s0,sp,128
60aa6abc:	0000      	addiu	s0,sp,0
60aa6abe:	c009      	sb	s0,9(s0)
60aa6ac0:	0004      	addiu	s0,sp,16
60aa6ac2:	c009      	sb	s0,9(s0)
60aa6ac4:	0058      	addiu	s0,sp,352
60aa6ac6:	c009      	sb	s0,9(s0)
60aa6ac8:	ffff      	daddiu	a3,sp,124
60aa6aca:	fff3      	daddiu	a3,sp,76
60aa6acc:	0000      	addiu	s0,sp,0
60aa6ace:	000c      	addiu	s0,sp,48
