
fmengine.exe:     file format elf32-tradlittlemips

Disassembly of section .text:

bfc26000 <audio_device_op_entry>:
bfc26000:	6b0a      	li	v1,10
bfc26002:	e805      	break	0

bfc26004 <mmm_pp_cmd>:
bfc26004:	6b42      	li	v1,66
bfc26006:	e805      	break	0

bfc26008 <fm_op_entry>:
bfc26008:	6b07      	li	v1,7
bfc2600a:	e805      	break	0

bfc2600c <key_op_entry>:
bfc2600c:	6b08      	li	v1,8
bfc2600e:	e805      	break	0

bfc26010 <libc_op_entry>:
bfc26010:	6b10      	li	v1,16
bfc26012:	e805      	break	0

bfc26014 <sys_op_entry>:
bfc26014:	6b0f      	li	v1,15
bfc26016:	e805      	break	0

bfc26018 <fm_eg_reply_msg>:
bfc26018:	64d3      	save	24,ra,s1
bfc2601a:	0104      	addiu	s1,sp,16
bfc2601c:	d982      	sw	a0,8(s1)
bfc2601e:	9942      	lw	v0,8(s1)
bfc26020:	9a42      	lw	v0,8(v0)
bfc26022:	6782      	move	a0,v0
bfc26024:	6d00      	li	a1,0
bfc26026:	6e00      	li	a2,0
bfc26028:	6f16      	li	a3,22
bfc2602a:	b203      	lw	v0,bfc26034 <fm_eg_reply_msg+0x1c>
bfc2602c:	eac0      	jalrc	v0
bfc2602e:	65b9      	move	sp,s1
bfc26030:	6451      	restore	8,ra,s1
bfc26032:	e8a0      	jrc	ra
bfc26034:	6011      	bteqz	bfc26058 <fmengine_message_deal+0x20>
bfc26036:	bfc2      	lwu	a2,8(a3)

bfc26038 <fmengine_message_deal>:
bfc26038:	64d4      	save	32,ra,s1
bfc2603a:	0104      	addiu	s1,sp,16
bfc2603c:	d984      	sw	a0,16(s1)
bfc2603e:	6a00      	li	v0,0
bfc26040:	c940      	sh	v0,0(s1)
bfc26042:	9944      	lw	v0,16(s1)
bfc26044:	9a40      	lw	v0,0(v0)
bfc26046:	f4ff 4a18 	addiu	v0,-776
bfc2604a:	d941      	sw	v0,4(s1)
bfc2604c:	9941      	lw	v0,4(s1)
bfc2604e:	5a0b      	sltiu	v0,11
bfc26050:	603a      	bteqz	bfc260c6 <fmengine_message_deal+0x8e>
bfc26052:	9941      	lw	v0,4(s1)
bfc26054:	3344      	sll	v1,v0,1
bfc26056:	0a05      	la	v0,bfc26068 <fmengine_message_deal+0x30>
bfc26058:	e349      	addu	v0,v1,v0
bfc2605a:	aa40      	lhu	v0,0(v0)
bfc2605c:	6762      	move	v1,v0
bfc2605e:	ebb1      	seh	v1
bfc26060:	b226      	lw	v0,bfc260f8 <fmengine_message_deal+0xc0>
bfc26062:	e349      	addu	v0,v1,v0
bfc26064:	ea80      	jrc	v0
bfc26066:	0000      	addiu	s0,sp,0
bfc26068:	0017      	addiu	s0,sp,92
bfc2606a:	005f      	addiu	s0,sp,380
bfc2606c:	005f      	addiu	s0,sp,380
bfc2606e:	005f      	addiu	s0,sp,380
bfc26070:	0023      	addiu	s0,sp,140
bfc26072:	002f      	addiu	s0,sp,188
bfc26074:	003b      	addiu	s0,sp,236
bfc26076:	0047      	addiu	s0,sp,284
bfc26078:	005f      	addiu	s0,sp,380
bfc2607a:	005f      	addiu	s0,sp,380
bfc2607c:	0053      	addiu	s0,sp,332
bfc2607e:	9944      	lw	v0,16(s1)
bfc26080:	6782      	move	a0,v0
bfc26082:	b217      	lw	v0,bfc260dc <fmengine_message_deal+0xa4>
bfc26084:	eac0      	jalrc	v0
bfc26086:	c940      	sh	v0,0(s1)
bfc26088:	1023      	b	bfc260d0 <fmengine_message_deal+0x98>
bfc2608a:	9944      	lw	v0,16(s1)
bfc2608c:	6782      	move	a0,v0
bfc2608e:	b215      	lw	v0,bfc260e0 <fmengine_message_deal+0xa8>
bfc26090:	eac0      	jalrc	v0
bfc26092:	c940      	sh	v0,0(s1)
bfc26094:	101d      	b	bfc260d0 <fmengine_message_deal+0x98>
bfc26096:	9944      	lw	v0,16(s1)
bfc26098:	6782      	move	a0,v0
bfc2609a:	b213      	lw	v0,bfc260e4 <fmengine_message_deal+0xac>
bfc2609c:	eac0      	jalrc	v0
bfc2609e:	c940      	sh	v0,0(s1)
bfc260a0:	1017      	b	bfc260d0 <fmengine_message_deal+0x98>
bfc260a2:	9944      	lw	v0,16(s1)
bfc260a4:	6782      	move	a0,v0
bfc260a6:	b211      	lw	v0,bfc260e8 <fmengine_message_deal+0xb0>
bfc260a8:	eac0      	jalrc	v0
bfc260aa:	c940      	sh	v0,0(s1)
bfc260ac:	1011      	b	bfc260d0 <fmengine_message_deal+0x98>
bfc260ae:	9944      	lw	v0,16(s1)
bfc260b0:	6782      	move	a0,v0
bfc260b2:	b20f      	lw	v0,bfc260ec <fmengine_message_deal+0xb4>
bfc260b4:	eac0      	jalrc	v0
bfc260b6:	c940      	sh	v0,0(s1)
bfc260b8:	100b      	b	bfc260d0 <fmengine_message_deal+0x98>
bfc260ba:	9944      	lw	v0,16(s1)
bfc260bc:	6782      	move	a0,v0
bfc260be:	b20d      	lw	v0,bfc260f0 <fmengine_message_deal+0xb8>
bfc260c0:	eac0      	jalrc	v0
bfc260c2:	c940      	sh	v0,0(s1)
bfc260c4:	1005      	b	bfc260d0 <fmengine_message_deal+0x98>
bfc260c6:	9944      	lw	v0,16(s1)
bfc260c8:	6782      	move	a0,v0
bfc260ca:	b20b      	lw	v0,bfc260f4 <fmengine_message_deal+0xbc>
bfc260cc:	eac0      	jalrc	v0
bfc260ce:	c940      	sh	v0,0(s1)
bfc260d0:	a940      	lhu	v0,0(s1)
bfc260d2:	651a      	move	t8,v0
bfc260d4:	6758      	move	v0,t8
bfc260d6:	65b9      	move	sp,s1
bfc260d8:	6452      	restore	16,ra,s1
bfc260da:	e8a0      	jrc	ra
bfc260dc:	6155      	btnez	bfc26188 <fmengine_set_freq_sync+0x34>
bfc260de:	bfc2      	lwu	a2,8(a3)
bfc260e0:	61ad      	btnez	bfc2603c <fmengine_message_deal+0x4>
bfc260e2:	bfc2      	lwu	a2,8(a3)
bfc260e4:	623d      	sw	ra,244(sp)
bfc260e6:	bfc2      	lwu	a2,8(a3)
bfc260e8:	62b9      	sw	ra,740(sp)
bfc260ea:	bfc2      	lwu	a2,8(a3)
bfc260ec:	6321      	addiu	sp,264
bfc260ee:	bfc2      	lwu	a2,8(a3)
bfc260f0:	63d5      	addiu	sp,-344
bfc260f2:	bfc2      	lwu	a2,8(a3)
bfc260f4:	68cd      	li	s0,205
bfc260f6:	6002      	bteqz	bfc260fc <fmengine_control_block>
bfc260f8:	6068      	bteqz	bfc261ca <fmengine_set_softseek+0x1e>
bfc260fa:	bfc2      	lwu	a2,8(a3)

bfc260fc <fmengine_control_block>:
bfc260fc:	64d6      	save	48,ra,s1
bfc260fe:	0104      	addiu	s1,sp,16
bfc26100:	6a00      	li	v0,0
bfc26102:	c940      	sh	v0,0(s1)
bfc26104:	4147      	addiu	v0,s1,7
bfc26106:	4241      	addiu	v0,v0,1
bfc26108:	6782      	move	a0,v0
bfc2610a:	b211      	lw	v0,bfc2614c <fmengine_control_block+0x50>
bfc2610c:	eac0      	jalrc	v0
bfc2610e:	7201      	cmpi	v0,1
bfc26110:	6758      	move	v0,t8
bfc26112:	5a01      	sltiu	v0,1
bfc26114:	600e      	bteqz	bfc26132 <fmengine_control_block+0x36>
bfc26116:	4147      	addiu	v0,s1,7
bfc26118:	4241      	addiu	v0,v0,1
bfc2611a:	6782      	move	a0,v0
bfc2611c:	1a1f 980e 	jal	bfc26038 <fmengine_message_deal>
bfc26120:	6500      	nop
bfc26122:	c940      	sh	v0,0(s1)
bfc26124:	a940      	lhu	v0,0(s1)
bfc26126:	f100 7200 	cmpi	v0,256
bfc2612a:	6758      	move	v0,t8
bfc2612c:	5a01      	sltiu	v0,1
bfc2612e:	6001      	bteqz	bfc26132 <fmengine_control_block+0x36>
bfc26130:	1007      	b	bfc26140 <fmengine_control_block+0x44>
bfc26132:	6c01      	li	a0,1
bfc26134:	6d00      	li	a1,0
bfc26136:	6e00      	li	a2,0
bfc26138:	6f31      	li	a3,49
bfc2613a:	b206      	lw	v0,bfc26150 <fmengine_control_block+0x54>
bfc2613c:	eac0      	jalrc	v0
bfc2613e:	17e2      	b	bfc26104 <fmengine_control_block+0x8>
bfc26140:	a940      	lhu	v0,0(s1)
bfc26142:	651a      	move	t8,v0
bfc26144:	6758      	move	v0,t8
bfc26146:	65b9      	move	sp,s1
bfc26148:	6454      	restore	32,ra,s1
bfc2614a:	e8a0      	jrc	ra
bfc2614c:	6531      	move	s1,s1
bfc2614e:	bfc2      	lwu	a2,8(a3)
bfc26150:	6015      	bteqz	bfc2617c <fmengine_set_freq_sync+0x28>
bfc26152:	bfc2      	lwu	a2,8(a3)

bfc26154 <fmengine_set_freq_sync>:
bfc26154:	64d5      	save	40,ra,s1
bfc26156:	0104      	addiu	s1,sp,16
bfc26158:	d986      	sw	a0,24(s1)
bfc2615a:	9946      	lw	v0,24(s1)
bfc2615c:	d940      	sw	v0,0(s1)
bfc2615e:	9940      	lw	v0,0(s1)
bfc26160:	9a41      	lw	v0,4(v0)
bfc26162:	9a40      	lw	v0,0(v0)
bfc26164:	d941      	sw	v0,4(s1)
bfc26166:	9941      	lw	v0,4(s1)
bfc26168:	6782      	move	a0,v0
bfc2616a:	6d00      	li	a1,0
bfc2616c:	6e00      	li	a2,0
bfc2616e:	6f02      	li	a3,2
bfc26170:	b20d      	lw	v0,bfc261a4 <fmengine_set_freq_sync+0x50>
bfc26172:	eac0      	jalrc	v0
bfc26174:	d942      	sw	v0,8(s1)
bfc26176:	9962      	lw	v1,8(s1)
bfc26178:	6a01      	li	v0,1
bfc2617a:	ea4b      	neg	v0
bfc2617c:	ea6e      	xor	v0,v1
bfc2617e:	5a01      	sltiu	v0,1
bfc26180:	6105      	btnez	bfc2618c <fmengine_set_freq_sync+0x38>
bfc26182:	9940      	lw	v0,0(s1)
bfc26184:	9a63      	lw	v1,12(v0)
bfc26186:	6a01      	li	v0,1
bfc26188:	c340      	sb	v0,0(v1)
bfc2618a:	1004      	b	bfc26194 <fmengine_set_freq_sync+0x40>
bfc2618c:	9940      	lw	v0,0(s1)
bfc2618e:	9a63      	lw	v1,12(v0)
bfc26190:	6a02      	li	v0,2
bfc26192:	c340      	sb	v0,0(v1)
bfc26194:	9946      	lw	v0,24(s1)
bfc26196:	6782      	move	a0,v0
bfc26198:	b204      	lw	v0,bfc261a8 <fmengine_set_freq_sync+0x54>
bfc2619a:	eac0      	jalrc	v0
bfc2619c:	6a01      	li	v0,1
bfc2619e:	65b9      	move	sp,s1
bfc261a0:	6453      	restore	24,ra,s1
bfc261a2:	e8a0      	jrc	ra
bfc261a4:	6009      	bteqz	bfc261b8 <fmengine_set_softseek+0xc>
bfc261a6:	bfc2      	lwu	a2,8(a3)
bfc261a8:	6019      	bteqz	bfc261dc <fmengine_set_softseek+0x30>
bfc261aa:	bfc2      	lwu	a2,8(a3)

bfc261ac <fmengine_set_softseek>:
bfc261ac:	64d6      	save	48,ra,s1
bfc261ae:	0104      	addiu	s1,sp,16
bfc261b0:	d988      	sw	a0,32(s1)
bfc261b2:	9948      	lw	v0,32(s1)
bfc261b4:	d940      	sw	v0,0(s1)
bfc261b6:	9940      	lw	v0,0(s1)
bfc261b8:	9a41      	lw	v0,4(v0)
bfc261ba:	d944      	sw	v0,16(s1)
bfc261bc:	9944      	lw	v0,16(s1)
bfc261be:	9a40      	lw	v0,0(v0)
bfc261c0:	d942      	sw	v0,8(s1)
bfc261c2:	9944      	lw	v0,16(s1)
bfc261c4:	a244      	lbu	v0,4(v0)
bfc261c6:	c14c      	sb	v0,12(s1)
bfc261c8:	6c01      	li	a0,1
bfc261ca:	1a1f 9889 	jal	bfc26224 <change_engine_state>
bfc261ce:	6500      	nop
bfc261d0:	9942      	lw	v0,8(s1)
bfc261d2:	a16c      	lbu	v1,12(s1)
bfc261d4:	6782      	move	a0,v0
bfc261d6:	67a3      	move	a1,v1
bfc261d8:	6e00      	li	a2,0
bfc261da:	6f05      	li	a3,5
bfc261dc:	b20f      	lw	v0,bfc26218 <fmengine_set_softseek+0x6c>
bfc261de:	eac0      	jalrc	v0
bfc261e0:	d941      	sw	v0,4(s1)
bfc261e2:	b30f      	lw	v1,bfc2621c <fmengine_set_softseek+0x70>
bfc261e4:	9942      	lw	v0,8(s1)
bfc261e6:	db40      	sw	v0,0(v1)
bfc261e8:	9961      	lw	v1,4(s1)
bfc261ea:	6a01      	li	v0,1
bfc261ec:	ea4b      	neg	v0
bfc261ee:	ea6e      	xor	v0,v1
bfc261f0:	5a01      	sltiu	v0,1
bfc261f2:	6105      	btnez	bfc261fe <fmengine_set_softseek+0x52>
bfc261f4:	9940      	lw	v0,0(s1)
bfc261f6:	9a63      	lw	v1,12(v0)
bfc261f8:	6a01      	li	v0,1
bfc261fa:	c340      	sb	v0,0(v1)
bfc261fc:	1004      	b	bfc26206 <fmengine_set_softseek+0x5a>
bfc261fe:	9940      	lw	v0,0(s1)
bfc26200:	9a63      	lw	v1,12(v0)
bfc26202:	6a02      	li	v0,2
bfc26204:	c340      	sb	v0,0(v1)
bfc26206:	9948      	lw	v0,32(s1)
bfc26208:	6782      	move	a0,v0
bfc2620a:	b206      	lw	v0,bfc26220 <fmengine_set_softseek+0x74>
bfc2620c:	eac0      	jalrc	v0
bfc2620e:	6a01      	li	v0,1
bfc26210:	65b9      	move	sp,s1
bfc26212:	6454      	restore	32,ra,s1
bfc26214:	e8a0      	jrc	ra
bfc26216:	0000      	addiu	s0,sp,0
bfc26218:	6009      	bteqz	bfc2622c <change_engine_state+0x8>
bfc2621a:	bfc2      	lwu	a2,8(a3)
bfc2621c:	9588      	lw	a1,544(sp)
bfc2621e:	9fc1      	lw	a2,4(a3)
bfc26220:	6019      	bteqz	bfc26254 <fmengine_set_hardseek+0x18>
bfc26222:	bfc2      	lwu	a2,8(a3)

bfc26224 <change_engine_state>:
bfc26224:	6491      	save	8,s1
bfc26226:	673d      	move	s1,sp
bfc26228:	6744      	move	v0,a0
bfc2622a:	c148      	sb	v0,8(s1)
bfc2622c:	b303      	lw	v1,bfc26238 <change_engine_state+0x14>
bfc2622e:	a148      	lbu	v0,8(s1)
bfc26230:	c341      	sb	v0,1(v1)
bfc26232:	65b9      	move	sp,s1
bfc26234:	6411      	restore	8,s1
bfc26236:	e8a0      	jrc	ra
bfc26238:	a094      	lbu	a0,20(s0)
bfc2623a:	9fc1      	lw	a2,4(a3)

bfc2623c <fmengine_set_hardseek>:
bfc2623c:	64d6      	save	48,ra,s1
bfc2623e:	0104      	addiu	s1,sp,16
bfc26240:	d988      	sw	a0,32(s1)
bfc26242:	9948      	lw	v0,32(s1)
bfc26244:	d940      	sw	v0,0(s1)
bfc26246:	9940      	lw	v0,0(s1)
bfc26248:	9a41      	lw	v0,4(v0)
bfc2624a:	d944      	sw	v0,16(s1)
bfc2624c:	9944      	lw	v0,16(s1)
bfc2624e:	9a40      	lw	v0,0(v0)
bfc26250:	d942      	sw	v0,8(s1)
bfc26252:	9944      	lw	v0,16(s1)
bfc26254:	a244      	lbu	v0,4(v0)
bfc26256:	c14c      	sb	v0,12(s1)
bfc26258:	6c01      	li	a0,1
bfc2625a:	1a1f 9889 	jal	bfc26224 <change_engine_state>
bfc2625e:	6500      	nop
bfc26260:	9942      	lw	v0,8(s1)
bfc26262:	a16c      	lbu	v1,12(s1)
bfc26264:	6782      	move	a0,v0
bfc26266:	67a3      	move	a1,v1
bfc26268:	6e00      	li	a2,0
bfc2626a:	6f06      	li	a3,6
bfc2626c:	b210      	lw	v0,bfc262ac <fmengine_set_hardseek+0x70>
bfc2626e:	eac0      	jalrc	v0
bfc26270:	d941      	sw	v0,4(s1)
bfc26272:	9961      	lw	v1,4(s1)
bfc26274:	6a01      	li	v0,1
bfc26276:	ea4b      	neg	v0
bfc26278:	ea6e      	xor	v0,v1
bfc2627a:	5a01      	sltiu	v0,1
bfc2627c:	6108      	btnez	bfc2628e <fmengine_set_hardseek+0x52>
bfc2627e:	9940      	lw	v0,0(s1)
bfc26280:	9a63      	lw	v1,12(v0)
bfc26282:	6a01      	li	v0,1
bfc26284:	c340      	sb	v0,0(v1)
bfc26286:	b30b      	lw	v1,bfc262b0 <fmengine_set_hardseek+0x74>
bfc26288:	6a01      	li	v0,1
bfc2628a:	c349      	sb	v0,9(v1)
bfc2628c:	1007      	b	bfc2629c <fmengine_set_hardseek+0x60>
bfc2628e:	9940      	lw	v0,0(s1)
bfc26290:	9a63      	lw	v1,12(v0)
bfc26292:	6a02      	li	v0,2
bfc26294:	c340      	sb	v0,0(v1)
bfc26296:	b307      	lw	v1,bfc262b0 <fmengine_set_hardseek+0x74>
bfc26298:	6a00      	li	v0,0
bfc2629a:	c349      	sb	v0,9(v1)
bfc2629c:	9948      	lw	v0,32(s1)
bfc2629e:	6782      	move	a0,v0
bfc262a0:	b205      	lw	v0,bfc262b4 <fmengine_set_hardseek+0x78>
bfc262a2:	eac0      	jalrc	v0
bfc262a4:	6a01      	li	v0,1
bfc262a6:	65b9      	move	sp,s1
bfc262a8:	6454      	restore	32,ra,s1
bfc262aa:	e8a0      	jrc	ra
bfc262ac:	6009      	bteqz	bfc262c0 <fmengine_seek_break+0x8>
bfc262ae:	bfc2      	lwu	a2,8(a3)
bfc262b0:	9588      	lw	a1,544(sp)
bfc262b2:	9fc1      	lw	a2,4(a3)
bfc262b4:	6019      	bteqz	bfc262e8 <fmengine_seek_break+0x30>
bfc262b6:	bfc2      	lwu	a2,8(a3)

bfc262b8 <fmengine_seek_break>:
bfc262b8:	64d4      	save	32,ra,s1
bfc262ba:	0104      	addiu	s1,sp,16
bfc262bc:	d984      	sw	a0,16(s1)
bfc262be:	9944      	lw	v0,16(s1)
bfc262c0:	d940      	sw	v0,0(s1)
bfc262c2:	6c00      	li	a0,0
bfc262c4:	6d00      	li	a1,0
bfc262c6:	6e00      	li	a2,0
bfc262c8:	6f09      	li	a3,9
bfc262ca:	b213      	lw	v0,bfc26314 <fmengine_seek_break+0x5c>
bfc262cc:	eac0      	jalrc	v0
bfc262ce:	d941      	sw	v0,4(s1)
bfc262d0:	9961      	lw	v1,4(s1)
bfc262d2:	6a01      	li	v0,1
bfc262d4:	ea4b      	neg	v0
bfc262d6:	ea6e      	xor	v0,v1
bfc262d8:	5a01      	sltiu	v0,1
bfc262da:	610f      	btnez	bfc262fa <fmengine_seek_break+0x42>
bfc262dc:	9940      	lw	v0,0(s1)
bfc262de:	9a63      	lw	v1,12(v0)
bfc262e0:	6a01      	li	v0,1
bfc262e2:	c340      	sb	v0,0(v1)
bfc262e4:	b20d      	lw	v0,bfc26318 <fmengine_seek_break+0x60>
bfc262e6:	6782      	move	a0,v0
bfc262e8:	6d00      	li	a1,0
bfc262ea:	6e00      	li	a2,0
bfc262ec:	6f0c      	li	a3,12
bfc262ee:	b20a      	lw	v0,bfc26314 <fmengine_seek_break+0x5c>
bfc262f0:	eac0      	jalrc	v0
bfc262f2:	b30a      	lw	v1,bfc26318 <fmengine_seek_break+0x60>
bfc262f4:	6a03      	li	v0,3
bfc262f6:	c349      	sb	v0,9(v1)
bfc262f8:	1004      	b	bfc26302 <fmengine_seek_break+0x4a>
bfc262fa:	9940      	lw	v0,0(s1)
bfc262fc:	9a63      	lw	v1,12(v0)
bfc262fe:	6a02      	li	v0,2
bfc26300:	c340      	sb	v0,0(v1)
bfc26302:	9944      	lw	v0,16(s1)
bfc26304:	6782      	move	a0,v0
bfc26306:	b206      	lw	v0,bfc2631c <fmengine_seek_break+0x64>
bfc26308:	eac0      	jalrc	v0
bfc2630a:	6a01      	li	v0,1
bfc2630c:	65b9      	move	sp,s1
bfc2630e:	6452      	restore	16,ra,s1
bfc26310:	e8a0      	jrc	ra
bfc26312:	0000      	addiu	s0,sp,0
bfc26314:	6009      	bteqz	bfc26328 <fmengine_get_seekflag+0x8>
bfc26316:	bfc2      	lwu	a2,8(a3)
bfc26318:	9588      	lw	a1,544(sp)
bfc2631a:	9fc1      	lw	a2,4(a3)
bfc2631c:	6019      	bteqz	bfc26350 <fmengine_get_seekflag+0x30>
bfc2631e:	bfc2      	lwu	a2,8(a3)

bfc26320 <fmengine_get_seekflag>:
bfc26320:	64d5      	save	40,ra,s1
bfc26322:	0104      	addiu	s1,sp,16
bfc26324:	d986      	sw	a0,24(s1)
bfc26326:	9946      	lw	v0,24(s1)
bfc26328:	d940      	sw	v0,0(s1)
bfc2632a:	4147      	addiu	v0,s1,7
bfc2632c:	4241      	addiu	v0,v0,1
bfc2632e:	6782      	move	a0,v0
bfc26330:	6d00      	li	a1,0
bfc26332:	6e00      	li	a2,0
bfc26334:	6f0a      	li	a3,10
bfc26336:	b225      	lw	v0,bfc263c8 <fmengine_get_seekflag+0xa8>
bfc26338:	eac0      	jalrc	v0
bfc2633a:	d941      	sw	v0,4(s1)
bfc2633c:	9961      	lw	v1,4(s1)
bfc2633e:	6a01      	li	v0,1
bfc26340:	ea4b      	neg	v0
bfc26342:	ea6e      	xor	v0,v1
bfc26344:	5a01      	sltiu	v0,1
bfc26346:	6134      	btnez	bfc263b0 <fmengine_get_seekflag+0x90>
bfc26348:	9940      	lw	v0,0(s1)
bfc2634a:	9a63      	lw	v1,12(v0)
bfc2634c:	6a01      	li	v0,1
bfc2634e:	c340      	sb	v0,0(v1)
bfc26350:	a168      	lbu	v1,8(s1)
bfc26352:	6a01      	li	v0,1
bfc26354:	ea6c      	and	v0,v1
bfc26356:	2216      	beqz	v0,bfc26384 <fmengine_get_seekflag+0x64>
bfc26358:	a148      	lbu	v0,8(s1)
bfc2635a:	6b02      	li	v1,2
bfc2635c:	ea6c      	and	v0,v1
bfc2635e:	2209      	beqz	v0,bfc26372 <fmengine_get_seekflag+0x52>
bfc26360:	9940      	lw	v0,0(s1)
bfc26362:	9a43      	lw	v0,12(v0)
bfc26364:	9a61      	lw	v1,4(v0)
bfc26366:	6a02      	li	v0,2
bfc26368:	c340      	sb	v0,0(v1)
bfc2636a:	b319      	lw	v1,bfc263cc <fmengine_get_seekflag+0xac>
bfc2636c:	6a02      	li	v0,2
bfc2636e:	c349      	sb	v0,9(v1)
bfc26370:	1023      	b	bfc263b8 <fmengine_get_seekflag+0x98>
bfc26372:	9940      	lw	v0,0(s1)
bfc26374:	9a43      	lw	v0,12(v0)
bfc26376:	9a61      	lw	v1,4(v0)
bfc26378:	6a03      	li	v0,3
bfc2637a:	c340      	sb	v0,0(v1)
bfc2637c:	b314      	lw	v1,bfc263cc <fmengine_get_seekflag+0xac>
bfc2637e:	6a03      	li	v0,3
bfc26380:	c349      	sb	v0,9(v1)
bfc26382:	101a      	b	bfc263b8 <fmengine_get_seekflag+0x98>
bfc26384:	a148      	lbu	v0,8(s1)
bfc26386:	6b04      	li	v1,4
bfc26388:	ea6c      	and	v0,v1
bfc2638a:	2209      	beqz	v0,bfc2639e <fmengine_get_seekflag+0x7e>
bfc2638c:	9940      	lw	v0,0(s1)
bfc2638e:	9a43      	lw	v0,12(v0)
bfc26390:	9a61      	lw	v1,4(v0)
bfc26392:	6a04      	li	v0,4
bfc26394:	c340      	sb	v0,0(v1)
bfc26396:	b30e      	lw	v1,bfc263cc <fmengine_get_seekflag+0xac>
bfc26398:	6a04      	li	v0,4
bfc2639a:	c349      	sb	v0,9(v1)
bfc2639c:	100d      	b	bfc263b8 <fmengine_get_seekflag+0x98>
bfc2639e:	9940      	lw	v0,0(s1)
bfc263a0:	9a43      	lw	v0,12(v0)
bfc263a2:	9a61      	lw	v1,4(v0)
bfc263a4:	6a01      	li	v0,1
bfc263a6:	c340      	sb	v0,0(v1)
bfc263a8:	b309      	lw	v1,bfc263cc <fmengine_get_seekflag+0xac>
bfc263aa:	6a01      	li	v0,1
bfc263ac:	c349      	sb	v0,9(v1)
bfc263ae:	1004      	b	bfc263b8 <fmengine_get_seekflag+0x98>
bfc263b0:	9940      	lw	v0,0(s1)
bfc263b2:	9a63      	lw	v1,12(v0)
bfc263b4:	6a02      	li	v0,2
bfc263b6:	c340      	sb	v0,0(v1)
bfc263b8:	9946      	lw	v0,24(s1)
bfc263ba:	6782      	move	a0,v0
bfc263bc:	b205      	lw	v0,bfc263d0 <fmengine_get_seekflag+0xb0>
bfc263be:	eac0      	jalrc	v0
bfc263c0:	6a01      	li	v0,1
bfc263c2:	65b9      	move	sp,s1
bfc263c4:	6453      	restore	24,ra,s1
bfc263c6:	e8a0      	jrc	ra
bfc263c8:	6009      	bteqz	bfc263dc <fmengine_get_freq+0x8>
bfc263ca:	bfc2      	lwu	a2,8(a3)
bfc263cc:	9588      	lw	a1,544(sp)
bfc263ce:	9fc1      	lw	a2,4(a3)
bfc263d0:	6019      	bteqz	bfc26404 <fmengine_get_freq+0x30>
bfc263d2:	bfc2      	lwu	a2,8(a3)

bfc263d4 <fmengine_get_freq>:
bfc263d4:	64d4      	save	32,ra,s1
bfc263d6:	0104      	addiu	s1,sp,16
bfc263d8:	d984      	sw	a0,16(s1)
bfc263da:	9944      	lw	v0,16(s1)
bfc263dc:	d940      	sw	v0,0(s1)
bfc263de:	b213      	lw	v0,bfc26428 <fmengine_get_freq+0x54>
bfc263e0:	6782      	move	a0,v0
bfc263e2:	6d00      	li	a1,0
bfc263e4:	6e00      	li	a2,0
bfc263e6:	6f0c      	li	a3,12
bfc263e8:	b211      	lw	v0,bfc2642c <fmengine_get_freq+0x58>
bfc263ea:	eac0      	jalrc	v0
bfc263ec:	d941      	sw	v0,4(s1)
bfc263ee:	9961      	lw	v1,4(s1)
bfc263f0:	6a01      	li	v0,1
bfc263f2:	ea4b      	neg	v0
bfc263f4:	ea6e      	xor	v0,v1
bfc263f6:	5a01      	sltiu	v0,1
bfc263f8:	610b      	btnez	bfc26410 <fmengine_get_freq+0x3c>
bfc263fa:	9940      	lw	v0,0(s1)
bfc263fc:	9a63      	lw	v1,12(v0)
bfc263fe:	6a01      	li	v0,1
bfc26400:	c340      	sb	v0,0(v1)
bfc26402:	9940      	lw	v0,0(s1)
bfc26404:	9a43      	lw	v0,12(v0)
bfc26406:	9a61      	lw	v1,4(v0)
bfc26408:	b208      	lw	v0,bfc26428 <fmengine_get_freq+0x54>
bfc2640a:	9a40      	lw	v0,0(v0)
bfc2640c:	db40      	sw	v0,0(v1)
bfc2640e:	1004      	b	bfc26418 <fmengine_get_freq+0x44>
bfc26410:	9940      	lw	v0,0(s1)
bfc26412:	9a63      	lw	v1,12(v0)
bfc26414:	6a02      	li	v0,2
bfc26416:	c340      	sb	v0,0(v1)
bfc26418:	9944      	lw	v0,16(s1)
bfc2641a:	6782      	move	a0,v0
bfc2641c:	b205      	lw	v0,bfc26430 <fmengine_get_freq+0x5c>
bfc2641e:	eac0      	jalrc	v0
bfc26420:	6a01      	li	v0,1
bfc26422:	65b9      	move	sp,s1
bfc26424:	6452      	restore	16,ra,s1
bfc26426:	e8a0      	jrc	ra
bfc26428:	9588      	lw	a1,544(sp)
bfc2642a:	9fc1      	lw	a2,4(a3)
bfc2642c:	6009      	bteqz	bfc26440 <handle_timers+0xc>
bfc2642e:	bfc2      	lwu	a2,8(a3)
bfc26430:	6019      	bteqz	bfc26464 <handle_timers+0x30>
bfc26432:	bfc2      	lwu	a2,8(a3)

bfc26434 <handle_timers>:
bfc26434:	f004 64f5 	save	a0,40,ra,s0-s1
bfc26438:	ed11      	zeb	a1
bfc2643a:	6c00      	li	a0,0
bfc2643c:	b23a      	lw	v0,bfc26524 <handle_timers+0xf0>
bfc2643e:	d504      	sw	a1,16(sp)
bfc26440:	6f1c      	li	a3,28
bfc26442:	67a4      	move	a1,a0
bfc26444:	ea40      	jalr	v0
bfc26446:	67c4      	move	a2,a0
bfc26448:	9304      	lw	v1,16(sp)
bfc2644a:	67e2      	move	a3,v0
bfc2644c:	6a00      	li	v0,0
bfc2644e:	d205      	sw	v0,20(sp)
bfc26450:	2366      	beqz	v1,bfc2651e <handle_timers+0xea>
bfc26452:	9405      	lw	a0,20(sp)
bfc26454:	930a      	lw	v1,40(sp)
bfc26456:	3290      	sll	v0,a0,4
bfc26458:	e351      	addu	a0,v1,v0
bfc2645a:	a4a0      	lbu	a1,0(a0)
bfc2645c:	6e03      	li	a2,3
bfc2645e:	edcc      	and	a1,a2
bfc26460:	7501      	cmpi	a1,1
bfc26462:	6156      	btnez	bfc26510 <handle_timers+0xdc>
bfc26464:	b631      	lw	a2,bfc26528 <handle_timers+0xf4>
bfc26466:	a461      	lbu	v1,1(a0)
bfc26468:	a6a0      	lbu	a1,0(a2)
bfc2646a:	ed6e      	xor	a1,v1
bfc2646c:	2502      	beqz	a1,bfc26472 <handle_timers+0x3e>
bfc2646e:	73ff      	cmpi	v1,255
bfc26470:	614f      	btnez	bfc26510 <handle_timers+0xdc>
bfc26472:	677d      	move	v1,sp
bfc26474:	a354      	lbu	v0,20(v1)
bfc26476:	b12e      	lw	s1,bfc2652c <handle_timers+0xf8>
bfc26478:	6860      	li	s0,96
bfc2647a:	c140      	sb	v0,0(s1)
bfc2647c:	a460      	lbu	v1,0(a0)
bfc2647e:	acc2      	lhu	a2,4(a0)
bfc26480:	e86c      	and	s0,v1
bfc26482:	7020      	cmpi	s0,32
bfc26484:	653e      	move	t9,a2
bfc26486:	6101      	btnez	bfc2648a <handle_timers+0x56>
bfc26488:	acc3      	lhu	a2,6(a0)
bfc2648a:	9ca2      	lw	a1,8(a0)
bfc2648c:	e7c1      	addu	s0,a3,a2
bfc2648e:	efa3      	sltu	a3,a1
bfc26490:	6900      	li	s1,0
bfc26492:	612e      	btnez	bfc264f0 <handle_timers+0xbc>
bfc26494:	6910      	li	s1,16
bfc26496:	e96c      	and	s1,v1
bfc26498:	2104      	beqz	s1,bfc264a2 <handle_timers+0x6e>
bfc2649a:	6904      	li	s1,4
bfc2649c:	ea2b      	neg	v0,s1
bfc2649e:	eb4c      	and	v1,v0
bfc264a0:	c460      	sb	v1,0(a0)
bfc264a2:	e7af      	subu	v1,a3,a1
bfc264a4:	67f9      	move	a3,t9
bfc264a6:	ebe3      	sltu	v1,a3
bfc264a8:	6901      	li	s1,1
bfc264aa:	6003      	bteqz	bfc264b2 <handle_timers+0x7e>
bfc264ac:	e5c9      	addu	v0,a1,a2
bfc264ae:	dc42      	sw	v0,8(a0)
bfc264b0:	1001      	b	bfc264b4 <handle_timers+0x80>
bfc264b2:	dc02      	sw	s0,8(a0)
bfc264b4:	a460      	lbu	v1,0(a0)
bfc264b6:	6d20      	li	a1,32
bfc264b8:	ed6c      	and	a1,v1
bfc264ba:	251a      	beqz	a1,bfc264f0 <handle_timers+0xbc>
bfc264bc:	6d40      	li	a1,64
bfc264be:	67c3      	move	a2,v1
bfc264c0:	eeac      	and	a2,a1
bfc264c2:	2605      	beqz	a2,bfc264ce <handle_timers+0x9a>
bfc264c4:	6a41      	li	v0,65
bfc264c6:	ef4b      	neg	a3,v0
bfc264c8:	ebec      	and	v1,a3
bfc264ca:	c460      	sb	v1,0(a0)
bfc264cc:	1011      	b	bfc264f0 <handle_timers+0xbc>
bfc264ce:	ebad      	or	v1,a1
bfc264d0:	c460      	sb	v1,0(a0)
bfc264d2:	a462      	lbu	v1,2(a0)
bfc264d4:	67a3      	move	a1,v1
bfc264d6:	ed11      	zeb	a1
bfc264d8:	75ff      	cmpi	a1,255
bfc264da:	6002      	bteqz	bfc264e0 <handle_timers+0xac>
bfc264dc:	43cf      	addiu	a2,v1,-1
bfc264de:	c4c2      	sb	a2,2(a0)
bfc264e0:	a4a2      	lbu	a1,2(a0)
bfc264e2:	2d06      	bnez	a1,bfc264f0 <handle_timers+0xbc>
bfc264e4:	a420      	lbu	s1,0(a0)
bfc264e6:	6f04      	li	a3,4
bfc264e8:	ebeb      	neg	v1,a3
bfc264ea:	e96c      	and	s1,v1
bfc264ec:	c420      	sb	s1,0(a0)
bfc264ee:	6725      	move	s1,a1
bfc264f0:	9c42      	lw	v0,8(a0)
bfc264f2:	ea03      	sltu	v0,s0
bfc264f4:	6101      	btnez	bfc264f8 <handle_timers+0xc4>
bfc264f6:	dc02      	sw	s0,8(a0)
bfc264f8:	7101      	cmpi	s1,1
bfc264fa:	6103      	btnez	bfc26502 <handle_timers+0xce>
bfc264fc:	9c43      	lw	v0,12(a0)
bfc264fe:	2201      	beqz	v0,bfc26502 <handle_timers+0xce>
bfc26500:	eac0      	jalrc	v0
bfc26502:	6c00      	li	a0,0
bfc26504:	b208      	lw	v0,bfc26524 <handle_timers+0xf0>
bfc26506:	6f1c      	li	a3,28
bfc26508:	67a4      	move	a1,a0
bfc2650a:	ea40      	jalr	v0
bfc2650c:	67c4      	move	a2,a0
bfc2650e:	67e2      	move	a3,v0
bfc26510:	9605      	lw	a2,20(sp)
bfc26512:	9404      	lw	a0,16(sp)
bfc26514:	46a1      	addiu	a1,a2,1
bfc26516:	ed11      	zeb	a1
bfc26518:	ed83      	sltu	a1,a0
bfc2651a:	d505      	sw	a1,20(sp)
bfc2651c:	619a      	btnez	bfc26452 <handle_timers+0x1e>
bfc2651e:	6475      	restore	40,ra,s0-s1
bfc26520:	e8a0      	jrc	ra
bfc26522:	0000      	addiu	s0,sp,0
bfc26524:	6015      	bteqz	bfc26550 <get_app_msg+0x20>
bfc26526:	bfc2      	lwu	a2,8(a3)
bfc26528:	95e9      	lw	a1,932(sp)
bfc2652a:	9fc1      	lw	a2,4(a3)
bfc2652c:	95e8      	lw	a1,928(sp)
bfc2652e:	9fc1      	lw	a2,4(a3)

bfc26530 <get_app_msg>:
bfc26530:	64e3      	save	24,ra,s0
bfc26532:	b20b      	lw	v0,bfc2655c <get_app_msg+0x2c>
bfc26534:	6704      	move	s0,a0
bfc26536:	a2a0      	lbu	a1,0(v0)
bfc26538:	2504      	beqz	a1,bfc26542 <get_app_msg+0x12>
bfc2653a:	b60a      	lw	a2,bfc26560 <get_app_msg+0x30>
bfc2653c:	b30a      	lw	v1,bfc26564 <get_app_msg+0x34>
bfc2653e:	eb40      	jalr	v1
bfc26540:	9e80      	lw	a0,0(a2)
bfc26542:	b40a      	lw	a0,bfc26568 <get_app_msg+0x38>
bfc26544:	b20a      	lw	v0,bfc2656c <get_app_msg+0x3c>
bfc26546:	9ca0      	lw	a1,0(a0)
bfc26548:	6e00      	li	a2,0
bfc2654a:	a583      	lbu	a0,3(a1)
bfc2654c:	6f19      	li	a3,25
bfc2654e:	ea40      	jalr	v0
bfc26550:	67b0      	move	a1,s0
bfc26552:	5a01      	sltiu	v0,1
bfc26554:	6758      	move	v0,t8
bfc26556:	6463      	restore	24,ra,s0
bfc26558:	e8a0      	jrc	ra
bfc2655a:	0000      	addiu	s0,sp,0
bfc2655c:	95f4      	lw	a1,976(sp)
bfc2655e:	9fc1      	lw	a2,4(a3)
bfc26560:	95e4      	lw	a1,912(sp)
bfc26562:	9fc1      	lw	a2,4(a3)
bfc26564:	6435      	restore	40,s0-s1
bfc26566:	bfc2      	lwu	a2,8(a3)
bfc26568:	95ec      	lw	a1,944(sp)
bfc2656a:	9fc1      	lw	a2,4(a3)
bfc2656c:	6015      	bteqz	bfc26598 <get_app_msg+0x68>
bfc2656e:	bfc2      	lwu	a2,8(a3)
Disassembly of section .bss:

9fc19580 <g_mmm_pp_handle>:
9fc19580:	00000000 	nop

9fc19584 <g_output_channel_config>:
9fc19584:	00000000 	nop

9fc19588 <g_fmengine_status>:
	...

9fc19594 <g_fmengine_cfg>:
	...

9fc195a8 <g_module_status>:
9fc195a8:	00000000 	nop

9fc195ac <g_ainout_param>:
	...

9fc195d0 <g_stop_by_tts_flag>:
	...

9fc195d1 <g_fm_chanel>:
9fc195d1:	0000      	addiu	s0,sp,0
	...

9fc195d4 <g_dae_cfg_shm>:
9fc195d4:	00000000 	nop

9fc195d8 <s_mmm_pp_played>:
9fc195d8:	00000000 	nop

9fc195dc <g_this_gui_msg_hook>:
9fc195dc:	00000000 	nop

9fc195e0 <g_this_app_msg_hook>:
9fc195e0:	00000000 	nop

9fc195e4 <g_app_timer_vector>:
9fc195e4:	00000000 	nop

9fc195e8 <g_app_timer_id>:
	...

9fc195e9 <g_this_app_timer_tag>:
9fc195e9:	0000      	addiu	s0,sp,0
	...

9fc195ec <g_this_app_info>:
9fc195ec:	00000000 	nop

9fc195f0 <thread_mutex>:
9fc195f0:	00000000 	nop

9fc195f4 <g_app_timer_count>:
9fc195f4:	00000000 	nop
Disassembly of section BANK_CONTROL_1_0:

60026800 <process_start>:
60026800:	64d4      	save	32,ra,s1
60026802:	0104      	addiu	s1,sp,16
60026804:	d984      	sw	a0,16(s1)
60026806:	9944      	lw	v0,16(s1)
60026808:	6782      	move	a0,v0
6002680a:	6d00      	li	a1,0
6002680c:	b207      	lw	v0,60026828 <BANK_CONTROL_1_ADDR_BASE+0x28>
6002680e:	eac0      	jalrc	v0
60026810:	c140      	sb	v0,0(s1)
60026812:	8140      	lb	v0,0(s1)
60026814:	6782      	move	a0,v0
60026816:	6d00      	li	a1,0
60026818:	6e00      	li	a2,0
6002681a:	6f0e      	li	a3,14
6002681c:	b204      	lw	v0,6002682c <BANK_CONTROL_1_ADDR_BASE+0x2c>
6002681e:	eac0      	jalrc	v0
60026820:	6a00      	li	v0,0
60026822:	65b9      	move	sp,s1
60026824:	6452      	restore	16,ra,s1
60026826:	e8a0      	jrc	ra
60026828:	6abd      	li	v0,189
6002682a:	600e      	bteqz	60026848 <__start+0x18>
6002682c:	6011      	bteqz	60026850 <__start+0x20>
6002682e:	bfc2      	lwu	a2,8(a3)

60026830 <__start>:
60026830:	64d6      	save	48,ra,s1
60026832:	0104      	addiu	s1,sp,16
60026834:	d988      	sw	a0,32(s1)
60026836:	d9a9      	sw	a1,36(s1)
60026838:	6c00      	li	a0,0
6002683a:	6d00      	li	a1,0
6002683c:	6e00      	li	a2,0
6002683e:	6f10      	li	a3,16
60026840:	b220      	lw	v0,600268c0 <__start+0x90>
60026842:	eac0      	jalrc	v0
60026844:	c150      	sb	v0,16(s1)
60026846:	8170      	lb	v1,16(s1)
60026848:	6a01      	li	v0,1
6002684a:	ea4b      	neg	v0
6002684c:	ea6e      	xor	v0,v1
6002684e:	5a01      	sltiu	v0,1
60026850:	6004      	bteqz	6002685a <__start+0x2a>
60026852:	6a01      	li	v0,1
60026854:	ea4b      	neg	v0
60026856:	d945      	sw	v0,20(s1)
60026858:	102e      	b	600268b6 <__start+0x86>
6002685a:	b21b      	lw	v0,600268c4 <__start+0x94>
6002685c:	d940      	sw	v0,0(s1)
6002685e:	9948      	lw	v0,32(s1)
60026860:	d941      	sw	v0,4(s1)
60026862:	9949      	lw	v0,36(s1)
60026864:	9a41      	lw	v0,4(v0)
60026866:	d942      	sw	v0,8(s1)
60026868:	9949      	lw	v0,36(s1)
6002686a:	aa41      	lhu	v0,2(v0)
6002686c:	c946      	sh	v0,12(s1)
6002686e:	6c00      	li	a0,0
60026870:	6d00      	li	a1,0
60026872:	6e00      	li	a2,0
60026874:	6f33      	li	a3,51
60026876:	b215      	lw	v0,600268c8 <__start+0x98>
60026878:	eac0      	jalrc	v0
6002687a:	9949      	lw	v0,36(s1)
6002687c:	aa40      	lhu	v0,0(v0)
6002687e:	8170      	lb	v1,16(s1)
60026880:	6791      	move	a0,s1
60026882:	67a2      	move	a1,v0
60026884:	67c3      	move	a2,v1
60026886:	6f4a      	li	a3,74
60026888:	b210      	lw	v0,600268c8 <__start+0x98>
6002688a:	eac0      	jalrc	v0
6002688c:	5200      	slti	v0,0
6002688e:	6011      	bteqz	600268b2 <__start+0x82>
60026890:	8150      	lb	v0,16(s1)
60026892:	6782      	move	a0,v0
60026894:	6d00      	li	a1,0
60026896:	6e00      	li	a2,0
60026898:	6f11      	li	a3,17
6002689a:	b20a      	lw	v0,600268c0 <__start+0x90>
6002689c:	eac0      	jalrc	v0
6002689e:	6c00      	li	a0,0
600268a0:	6d00      	li	a1,0
600268a2:	6e00      	li	a2,0
600268a4:	6f34      	li	a3,52
600268a6:	b209      	lw	v0,600268c8 <__start+0x98>
600268a8:	eac0      	jalrc	v0
600268aa:	6a01      	li	v0,1
600268ac:	ea4b      	neg	v0
600268ae:	d945      	sw	v0,20(s1)
600268b0:	1002      	b	600268b6 <__start+0x86>
600268b2:	6a00      	li	v0,0
600268b4:	d945      	sw	v0,20(s1)
600268b6:	9945      	lw	v0,20(s1)
600268b8:	65b9      	move	sp,s1
600268ba:	6454      	restore	32,ra,s1
600268bc:	e8a0      	jrc	ra
600268be:	0000      	addiu	s0,sp,0
600268c0:	6011      	bteqz	600268e4 <fmengine_message_deal_bank+0x18>
600268c2:	bfc2      	lwu	a2,8(a3)
600268c4:	6801      	li	s0,1
600268c6:	6002      	bteqz	600268cc <fmengine_message_deal_bank>
600268c8:	6015      	bteqz	600268f4 <fmengine_message_deal_bank+0x28>
600268ca:	bfc2      	lwu	a2,8(a3)

600268cc <fmengine_message_deal_bank>:
600268cc:	64d4      	save	32,ra,s1
600268ce:	0104      	addiu	s1,sp,16
600268d0:	d984      	sw	a0,16(s1)
600268d2:	6a00      	li	v0,0
600268d4:	c940      	sh	v0,0(s1)
600268d6:	9944      	lw	v0,16(s1)
600268d8:	9a40      	lw	v0,0(v0)
600268da:	d941      	sw	v0,4(s1)
600268dc:	9941      	lw	v0,4(s1)
600268de:	f300 7209 	cmpi	v0,777
600268e2:	6758      	move	v0,t8
600268e4:	5a01      	sltiu	v0,1
600268e6:	f0e0 6109 	btnez	60026abc <fmengine_message_deal_bank+0x1f0>
600268ea:	9941      	lw	v0,4(s1)
600268ec:	f300 5a0a 	sltiu	v0,778
600268f0:	6052      	bteqz	60026996 <fmengine_message_deal_bank+0xca>
600268f2:	9941      	lw	v0,4(s1)
600268f4:	72f6      	cmpi	v0,246
600268f6:	6758      	move	v0,t8
600268f8:	5a01      	sltiu	v0,1
600268fa:	f120 6107 	btnez	60026b4c <fmengine_message_deal_bank+0x280>
600268fe:	9941      	lw	v0,4(s1)
60026900:	5af7      	sltiu	v0,247
60026902:	6023      	bteqz	6002694a <fmengine_message_deal_bank+0x7e>
60026904:	9941      	lw	v0,4(s1)
60026906:	72f3      	cmpi	v0,243
60026908:	6758      	move	v0,t8
6002690a:	5a01      	sltiu	v0,1
6002690c:	f120 610a 	btnez	60026b64 <fmengine_message_deal_bank+0x298>
60026910:	9941      	lw	v0,4(s1)
60026912:	5af4      	sltiu	v0,244
60026914:	600d      	bteqz	60026930 <fmengine_message_deal_bank+0x64>
60026916:	9941      	lw	v0,4(s1)
60026918:	72f1      	cmpi	v0,241
6002691a:	6758      	move	v0,t8
6002691c:	5a01      	sltiu	v0,1
6002691e:	f0a0 6115 	btnez	60026a8c <fmengine_message_deal_bank+0x1c0>
60026922:	9941      	lw	v0,4(s1)
60026924:	72f2      	cmpi	v0,242
60026926:	6758      	move	v0,t8
60026928:	5a01      	sltiu	v0,1
6002692a:	f100 6115 	btnez	60026b58 <fmengine_message_deal_bank+0x28c>
6002692e:	1125      	b	60026b7a <fmengine_message_deal_bank+0x2ae>
60026930:	9941      	lw	v0,4(s1)
60026932:	72f4      	cmpi	v0,244
60026934:	6758      	move	v0,t8
60026936:	5a01      	sltiu	v0,1
60026938:	f100 610e 	btnez	60026b58 <fmengine_message_deal_bank+0x28c>
6002693c:	9941      	lw	v0,4(s1)
6002693e:	72f5      	cmpi	v0,245
60026940:	6758      	move	v0,t8
60026942:	5a01      	sltiu	v0,1
60026944:	f100 610e 	btnez	60026b64 <fmengine_message_deal_bank+0x298>
60026948:	1118      	b	60026b7a <fmengine_message_deal_bank+0x2ae>
6002694a:	9941      	lw	v0,4(s1)
6002694c:	f300 7203 	cmpi	v0,771
60026950:	6758      	move	v0,t8
60026952:	5a01      	sltiu	v0,1
60026954:	f080 610a 	btnez	60026a6c <fmengine_message_deal_bank+0x1a0>
60026958:	9941      	lw	v0,4(s1)
6002695a:	f300 5a04 	sltiu	v0,772
6002695e:	600d      	bteqz	6002697a <fmengine_message_deal_bank+0xae>
60026960:	9941      	lw	v0,4(s1)
60026962:	72fa      	cmpi	v0,250
60026964:	6758      	move	v0,t8
60026966:	5a01      	sltiu	v0,1
60026968:	f080 610a 	btnez	60026a80 <fmengine_message_deal_bank+0x1b4>
6002696c:	9941      	lw	v0,4(s1)
6002696e:	f300 7202 	cmpi	v0,770
60026972:	6758      	move	v0,t8
60026974:	5a01      	sltiu	v0,1
60026976:	6174      	btnez	60026a60 <fmengine_message_deal_bank+0x194>
60026978:	1100      	b	60026b7a <fmengine_message_deal_bank+0x2ae>
6002697a:	9941      	lw	v0,4(s1)
6002697c:	f300 7205 	cmpi	v0,773
60026980:	6758      	move	v0,t8
60026982:	5a01      	sltiu	v0,1
60026984:	6179      	btnez	60026a78 <fmengine_message_deal_bank+0x1ac>
60026986:	9941      	lw	v0,4(s1)
60026988:	f300 7206 	cmpi	v0,774
6002698c:	6758      	move	v0,t8
6002698e:	5a01      	sltiu	v0,1
60026990:	f080 6108 	btnez	60026aa4 <fmengine_message_deal_bank+0x1d8>
60026994:	10f2      	b	60026b7a <fmengine_message_deal_bank+0x2ae>
60026996:	9941      	lw	v0,4(s1)
60026998:	f300 7214 	cmpi	v0,788
6002699c:	6758      	move	v0,t8
6002699e:	5a01      	sltiu	v0,1
600269a0:	f0a0 611c 	btnez	60026b1c <fmengine_message_deal_bank+0x250>
600269a4:	9941      	lw	v0,4(s1)
600269a6:	f300 5a15 	sltiu	v0,789
600269aa:	6027      	bteqz	600269fa <fmengine_message_deal_bank+0x12e>
600269ac:	9941      	lw	v0,4(s1)
600269ae:	f300 7210 	cmpi	v0,784
600269b2:	6758      	move	v0,t8
600269b4:	5a01      	sltiu	v0,1
600269b6:	f080 611f 	btnez	60026af8 <fmengine_message_deal_bank+0x22c>
600269ba:	9941      	lw	v0,4(s1)
600269bc:	f300 5a11 	sltiu	v0,785
600269c0:	600d      	bteqz	600269dc <fmengine_message_deal_bank+0x110>
600269c2:	9941      	lw	v0,4(s1)
600269c4:	f300 720a 	cmpi	v0,778
600269c8:	6758      	move	v0,t8
600269ca:	5a01      	sltiu	v0,1
600269cc:	617d      	btnez	60026ac8 <fmengine_message_deal_bank+0x1fc>
600269ce:	9941      	lw	v0,4(s1)
600269d0:	f300 720b 	cmpi	v0,779
600269d4:	6758      	move	v0,t8
600269d6:	5a01      	sltiu	v0,1
600269d8:	617d      	btnez	60026ad4 <fmengine_message_deal_bank+0x208>
600269da:	10cf      	b	60026b7a <fmengine_message_deal_bank+0x2ae>
600269dc:	9941      	lw	v0,4(s1)
600269de:	f300 7211 	cmpi	v0,785
600269e2:	6758      	move	v0,t8
600269e4:	5a01      	sltiu	v0,1
600269e6:	f080 610d 	btnez	60026b04 <fmengine_message_deal_bank+0x238>
600269ea:	9941      	lw	v0,4(s1)
600269ec:	f300 7213 	cmpi	v0,787
600269f0:	6758      	move	v0,t8
600269f2:	5a01      	sltiu	v0,1
600269f4:	f080 610c 	btnez	60026b10 <fmengine_message_deal_bank+0x244>
600269f8:	10c0      	b	60026b7a <fmengine_message_deal_bank+0x2ae>
600269fa:	9941      	lw	v0,4(s1)
600269fc:	f300 7217 	cmpi	v0,791
60026a00:	6758      	move	v0,t8
60026a02:	5a01      	sltiu	v0,1
60026a04:	f080 611c 	btnez	60026b40 <fmengine_message_deal_bank+0x274>
60026a08:	9941      	lw	v0,4(s1)
60026a0a:	f300 5a18 	sltiu	v0,792
60026a0e:	600f      	bteqz	60026a2e <fmengine_message_deal_bank+0x162>
60026a10:	9941      	lw	v0,4(s1)
60026a12:	f300 7215 	cmpi	v0,789
60026a16:	6758      	move	v0,t8
60026a18:	5a01      	sltiu	v0,1
60026a1a:	f080 6105 	btnez	60026b28 <fmengine_message_deal_bank+0x25c>
60026a1e:	9941      	lw	v0,4(s1)
60026a20:	f300 7216 	cmpi	v0,790
60026a24:	6758      	move	v0,t8
60026a26:	5a01      	sltiu	v0,1
60026a28:	f080 6104 	btnez	60026b34 <fmengine_message_deal_bank+0x268>
60026a2c:	10a6      	b	60026b7a <fmengine_message_deal_bank+0x2ae>
60026a2e:	9941      	lw	v0,4(s1)
60026a30:	f300 721a 	cmpi	v0,794
60026a34:	6758      	move	v0,t8
60026a36:	5a01      	sltiu	v0,1
60026a38:	6159      	btnez	60026aec <fmengine_message_deal_bank+0x220>
60026a3a:	9941      	lw	v0,4(s1)
60026a3c:	f300 5a1b 	sltiu	v0,795
60026a40:	6007      	bteqz	60026a50 <fmengine_message_deal_bank+0x184>
60026a42:	9941      	lw	v0,4(s1)
60026a44:	f300 7219 	cmpi	v0,793
60026a48:	6758      	move	v0,t8
60026a4a:	5a01      	sltiu	v0,1
60026a4c:	6149      	btnez	60026ae0 <fmengine_message_deal_bank+0x214>
60026a4e:	1095      	b	60026b7a <fmengine_message_deal_bank+0x2ae>
60026a50:	9941      	lw	v0,4(s1)
60026a52:	f300 721b 	cmpi	v0,795
60026a56:	6758      	move	v0,t8
60026a58:	5a01      	sltiu	v0,1
60026a5a:	f080 6109 	btnez	60026b70 <fmengine_message_deal_bank+0x2a4>
60026a5e:	108d      	b	60026b7a <fmengine_message_deal_bank+0x2ae>
60026a60:	9944      	lw	v0,16(s1)
60026a62:	6782      	move	a0,v0
60026a64:	b24e      	lw	v0,60026b9c <fmengine_message_deal_bank+0x2d0>
60026a66:	eac0      	jalrc	v0
60026a68:	c940      	sh	v0,0(s1)
60026a6a:	1087      	b	60026b7a <fmengine_message_deal_bank+0x2ae>
60026a6c:	9944      	lw	v0,16(s1)
60026a6e:	6782      	move	a0,v0
60026a70:	b24c      	lw	v0,60026ba0 <fmengine_message_deal_bank+0x2d4>
60026a72:	eac0      	jalrc	v0
60026a74:	c940      	sh	v0,0(s1)
60026a76:	1081      	b	60026b7a <fmengine_message_deal_bank+0x2ae>
60026a78:	b24b      	lw	v0,60026ba4 <fmengine_message_deal_bank+0x2d8>
60026a7a:	eac0      	jalrc	v0
60026a7c:	c940      	sh	v0,0(s1)
60026a7e:	107d      	b	60026b7a <fmengine_message_deal_bank+0x2ae>
60026a80:	9944      	lw	v0,16(s1)
60026a82:	6782      	move	a0,v0
60026a84:	b249      	lw	v0,60026ba8 <fmengine_message_deal_bank+0x2dc>
60026a86:	eac0      	jalrc	v0
60026a88:	c940      	sh	v0,0(s1)
60026a8a:	1077      	b	60026b7a <fmengine_message_deal_bank+0x2ae>
60026a8c:	9944      	lw	v0,16(s1)
60026a8e:	a264      	lbu	v1,4(v0)
60026a90:	6a01      	li	v0,1
60026a92:	ea6c      	and	v0,v1
60026a94:	2207      	beqz	v0,60026aa4 <fmengine_message_deal_bank+0x1d8>
60026a96:	0a3d      	la	v0,60026b88 <fmengine_message_deal_bank+0x2bc>
60026a98:	6782      	move	a0,v0
60026a9a:	6d00      	li	a1,0
60026a9c:	6e00      	li	a2,0
60026a9e:	6f4b      	li	a3,75
60026aa0:	b243      	lw	v0,60026bac <fmengine_message_deal_bank+0x2e0>
60026aa2:	eac0      	jalrc	v0
60026aa4:	b243      	lw	v0,60026bac <fmengine_message_deal_bank+0x2e0>
60026aa6:	a240      	lbu	v0,0(v0)
60026aa8:	7202      	cmpi	v0,2
60026aaa:	6758      	move	v0,t8
60026aac:	5a01      	sltiu	v0,1
60026aae:	6102      	btnez	60026ab4 <fmengine_message_deal_bank+0x1e8>
60026ab0:	b23d      	lw	v0,60026ba4 <fmengine_message_deal_bank+0x2d8>
60026ab2:	eac0      	jalrc	v0
60026ab4:	f100 6a00 	li	v0,256
60026ab8:	c940      	sh	v0,0(s1)
60026aba:	105f      	b	60026b7a <fmengine_message_deal_bank+0x2ae>
60026abc:	9944      	lw	v0,16(s1)
60026abe:	6782      	move	a0,v0
60026ac0:	b23d      	lw	v0,60026bb4 <fmengine_message_deal_bank+0x2e8>
60026ac2:	eac0      	jalrc	v0
60026ac4:	c940      	sh	v0,0(s1)
60026ac6:	1059      	b	60026b7a <fmengine_message_deal_bank+0x2ae>
60026ac8:	9944      	lw	v0,16(s1)
60026aca:	6782      	move	a0,v0
60026acc:	b23b      	lw	v0,60026bb8 <fmengine_message_deal_bank+0x2ec>
60026ace:	eac0      	jalrc	v0
60026ad0:	c940      	sh	v0,0(s1)
60026ad2:	1053      	b	60026b7a <fmengine_message_deal_bank+0x2ae>
60026ad4:	9944      	lw	v0,16(s1)
60026ad6:	6782      	move	a0,v0
60026ad8:	b239      	lw	v0,60026bbc <fmengine_message_deal_bank+0x2f0>
60026ada:	eac0      	jalrc	v0
60026adc:	c940      	sh	v0,0(s1)
60026ade:	104d      	b	60026b7a <fmengine_message_deal_bank+0x2ae>
60026ae0:	9944      	lw	v0,16(s1)
60026ae2:	6782      	move	a0,v0
60026ae4:	b237      	lw	v0,60026bc0 <fmengine_message_deal_bank+0x2f4>
60026ae6:	eac0      	jalrc	v0
60026ae8:	c940      	sh	v0,0(s1)
60026aea:	1047      	b	60026b7a <fmengine_message_deal_bank+0x2ae>
60026aec:	9944      	lw	v0,16(s1)
60026aee:	6782      	move	a0,v0
60026af0:	b235      	lw	v0,60026bc4 <fmengine_message_deal_bank+0x2f8>
60026af2:	eac0      	jalrc	v0
60026af4:	c940      	sh	v0,0(s1)
60026af6:	1041      	b	60026b7a <fmengine_message_deal_bank+0x2ae>
60026af8:	9944      	lw	v0,16(s1)
60026afa:	6782      	move	a0,v0
60026afc:	b233      	lw	v0,60026bc8 <fmengine_message_deal_bank+0x2fc>
60026afe:	eac0      	jalrc	v0
60026b00:	c940      	sh	v0,0(s1)
60026b02:	103b      	b	60026b7a <fmengine_message_deal_bank+0x2ae>
60026b04:	9944      	lw	v0,16(s1)
60026b06:	6782      	move	a0,v0
60026b08:	b231      	lw	v0,60026bcc <fmengine_message_deal_bank+0x300>
60026b0a:	eac0      	jalrc	v0
60026b0c:	c940      	sh	v0,0(s1)
60026b0e:	1035      	b	60026b7a <fmengine_message_deal_bank+0x2ae>
60026b10:	9944      	lw	v0,16(s1)
60026b12:	6782      	move	a0,v0
60026b14:	b22f      	lw	v0,60026bd0 <fmengine_message_deal_bank+0x304>
60026b16:	eac0      	jalrc	v0
60026b18:	c940      	sh	v0,0(s1)
60026b1a:	102f      	b	60026b7a <fmengine_message_deal_bank+0x2ae>
60026b1c:	9944      	lw	v0,16(s1)
60026b1e:	6782      	move	a0,v0
60026b20:	b22d      	lw	v0,60026bd4 <fmengine_message_deal_bank+0x308>
60026b22:	eac0      	jalrc	v0
60026b24:	c940      	sh	v0,0(s1)
60026b26:	1029      	b	60026b7a <fmengine_message_deal_bank+0x2ae>
60026b28:	9944      	lw	v0,16(s1)
60026b2a:	6782      	move	a0,v0
60026b2c:	b22b      	lw	v0,60026bd8 <fmengine_message_deal_bank+0x30c>
60026b2e:	eac0      	jalrc	v0
60026b30:	c940      	sh	v0,0(s1)
60026b32:	1023      	b	60026b7a <fmengine_message_deal_bank+0x2ae>
60026b34:	9944      	lw	v0,16(s1)
60026b36:	6782      	move	a0,v0
60026b38:	b229      	lw	v0,60026bdc <fmengine_message_deal_bank+0x310>
60026b3a:	eac0      	jalrc	v0
60026b3c:	c940      	sh	v0,0(s1)
60026b3e:	101d      	b	60026b7a <fmengine_message_deal_bank+0x2ae>
60026b40:	9944      	lw	v0,16(s1)
60026b42:	6782      	move	a0,v0
60026b44:	b227      	lw	v0,60026be0 <fmengine_message_deal_bank+0x314>
60026b46:	eac0      	jalrc	v0
60026b48:	c940      	sh	v0,0(s1)
60026b4a:	1017      	b	60026b7a <fmengine_message_deal_bank+0x2ae>
60026b4c:	9944      	lw	v0,16(s1)
60026b4e:	6782      	move	a0,v0
60026b50:	b225      	lw	v0,60026be4 <fmengine_message_deal_bank+0x318>
60026b52:	eac0      	jalrc	v0
60026b54:	c940      	sh	v0,0(s1)
60026b56:	1011      	b	60026b7a <fmengine_message_deal_bank+0x2ae>
60026b58:	9944      	lw	v0,16(s1)
60026b5a:	6782      	move	a0,v0
60026b5c:	b223      	lw	v0,60026be8 <fmengine_message_deal_bank+0x31c>
60026b5e:	eac0      	jalrc	v0
60026b60:	c940      	sh	v0,0(s1)
60026b62:	100b      	b	60026b7a <fmengine_message_deal_bank+0x2ae>
60026b64:	9944      	lw	v0,16(s1)
60026b66:	6782      	move	a0,v0
60026b68:	b221      	lw	v0,60026bec <fmengine_message_deal_bank+0x320>
60026b6a:	eac0      	jalrc	v0
60026b6c:	c940      	sh	v0,0(s1)
60026b6e:	1005      	b	60026b7a <fmengine_message_deal_bank+0x2ae>
60026b70:	9944      	lw	v0,16(s1)
60026b72:	6782      	move	a0,v0
60026b74:	b21f      	lw	v0,60026bf0 <fmengine_message_deal_bank+0x324>
60026b76:	eac0      	jalrc	v0
60026b78:	c940      	sh	v0,0(s1)
60026b7a:	a940      	lhu	v0,0(s1)
60026b7c:	651a      	move	t8,v0
60026b7e:	6758      	move	v0,t8
60026b80:	65b9      	move	sp,s1
60026b82:	6452      	restore	16,ra,s1
60026b84:	e8a0      	jrc	ra
60026b86:	0000      	addiu	s0,sp,0
60026b88:	493c      	addiu	s1,60
60026b8a:	203e      	beqz	s0,60026c08 <fmengine_message_deal_bank+0x33c>
60026b8c:	6765      	move	v1,a1
60026b8e:	6520      	move	at,s0
60026b90:	746e      	cmpi	a0,110
60026b92:	7265      	cmpi	v0,101
60026b94:	7320      	cmpi	v1,32
60026b96:	6233      	sw	ra,204(sp)
60026b98:	0074      	addiu	s0,sp,464
60026b9a:	0000      	addiu	s0,sp,0
60026b9c:	6861      	li	s0,97
60026b9e:	6006      	bteqz	60026bac <fmengine_message_deal_bank+0x2e0>
60026ba0:	68e1      	li	s0,225
60026ba2:	6006      	bteqz	60026bb0 <fmengine_message_deal_bank+0x2e4>
60026ba4:	6955      	li	s1,85
60026ba6:	6006      	bteqz	60026bb4 <fmengine_message_deal_bank+0x2e8>
60026ba8:	6c3d      	li	a0,61
60026baa:	6006      	bteqz	60026bb8 <fmengine_message_deal_bank+0x2ec>
60026bac:	6015      	bteqz	60026bd8 <fmengine_message_deal_bank+0x30c>
60026bae:	bfc2      	lwu	a2,8(a3)
60026bb0:	95a8      	lw	a1,672(sp)
60026bb2:	9fc1      	lw	a2,4(a3)
60026bb4:	69cd      	li	s1,205
60026bb6:	6006      	bteqz	60026bc4 <fmengine_message_deal_bank+0x2f8>
60026bb8:	6a75      	li	v0,117
60026bba:	6006      	bteqz	60026bc8 <fmengine_message_deal_bank+0x2fc>
60026bbc:	6acd      	li	v0,205
60026bbe:	6006      	bteqz	60026bcc <fmengine_message_deal_bank+0x300>
60026bc0:	6971      	li	s1,113
60026bc2:	6012      	bteqz	60026be8 <fmengine_message_deal_bank+0x31c>
60026bc4:	6999      	li	s1,153
60026bc6:	6012      	bteqz	60026bec <fmengine_message_deal_bank+0x320>
60026bc8:	6801      	li	s0,1
60026bca:	600a      	bteqz	60026be0 <fmengine_message_deal_bank+0x314>
60026bcc:	6891      	li	s0,145
60026bce:	600a      	bteqz	60026be4 <fmengine_message_deal_bank+0x318>
60026bd0:	68f5      	li	s0,245
60026bd2:	600a      	bteqz	60026be8 <fmengine_message_deal_bank+0x31c>
60026bd4:	6959      	li	s1,89
60026bd6:	600a      	bteqz	60026bec <fmengine_message_deal_bank+0x320>
60026bd8:	69b5      	li	s1,181
60026bda:	600a      	bteqz	60026bf0 <fmengine_message_deal_bank+0x324>
60026bdc:	6a19      	li	v0,25
60026bde:	600a      	bteqz	60026bf4 <fmengine_message_deal_bank+0x328>
60026be0:	6a51      	li	v0,81
60026be2:	600a      	bteqz	60026bf8 <fmengine_message_deal_bank+0x32c>
60026be4:	69c1      	li	s1,193
60026be6:	6012      	bteqz	60026c0c <fmengine_message_deal_bank+0x340>
60026be8:	6b31      	li	v1,49
60026bea:	6006      	bteqz	60026bf8 <fmengine_message_deal_bank+0x32c>
60026bec:	6b99      	li	v1,153
60026bee:	6006      	bteqz	60026bfc <fmengine_message_deal_bank+0x330>
60026bf0:	6c01      	li	a0,1
60026bf2:	6006      	bteqz	60026c00 <fmengine_message_deal_bank+0x334>
Disassembly of section BANK_CONTROL_1_1:

60066800 <fm_analog_deal>:
60066800:	64d3      	save	24,ra,s1
60066802:	0104      	addiu	s1,sp,16
60066804:	6744      	move	v0,a0
60066806:	c148      	sb	v0,8(s1)
60066808:	a148      	lbu	v0,8(s1)
6006680a:	7201      	cmpi	v0,1
6006680c:	6758      	move	v0,t8
6006680e:	5a01      	sltiu	v0,1
60066810:	6013      	bteqz	60066838 <fm_analog_deal+0x38>
60066812:	6c00      	li	a0,0
60066814:	6d07      	li	a1,7
60066816:	6e00      	li	a2,0
60066818:	6f08      	li	a3,8
6006681a:	b210      	lw	v0,60066858 <fm_analog_deal+0x58>
6006681c:	eac0      	jalrc	v0
6006681e:	6c64      	li	a0,100
60066820:	6d00      	li	a1,0
60066822:	6e00      	li	a2,0
60066824:	6f1d      	li	a3,29
60066826:	b20e      	lw	v0,6006685c <fm_analog_deal+0x5c>
60066828:	eac0      	jalrc	v0
6006682a:	6c00      	li	a0,0
6006682c:	6d00      	li	a1,0
6006682e:	6e00      	li	a2,0
60066830:	6f0a      	li	a3,10
60066832:	b20a      	lw	v0,60066858 <fm_analog_deal+0x58>
60066834:	eac0      	jalrc	v0
60066836:	100c      	b	60066850 <fm_analog_deal+0x50>
60066838:	6c00      	li	a0,0
6006683a:	6d00      	li	a1,0
6006683c:	6e00      	li	a2,0
6006683e:	6f0b      	li	a3,11
60066840:	b206      	lw	v0,60066858 <fm_analog_deal+0x58>
60066842:	eac0      	jalrc	v0
60066844:	6c00      	li	a0,0
60066846:	6d00      	li	a1,0
60066848:	6e00      	li	a2,0
6006684a:	6f09      	li	a3,9
6006684c:	b203      	lw	v0,60066858 <fm_analog_deal+0x58>
6006684e:	eac0      	jalrc	v0
60066850:	65b9      	move	sp,s1
60066852:	6451      	restore	8,ra,s1
60066854:	e8a0      	jrc	ra
60066856:	0000      	addiu	s0,sp,0
60066858:	6001      	bteqz	6006685c <fm_analog_deal+0x5c>
6006685a:	bfc2      	lwu	a2,8(a3)
6006685c:	6015      	bteqz	60066888 <fm_module_open+0x28>
6006685e:	bfc2      	lwu	a2,8(a3)

60066860 <fm_module_open>:
60066860:	64d5      	save	40,ra,s1
60066862:	0104      	addiu	s1,sp,16
60066864:	d986      	sw	a0,24(s1)
60066866:	9946      	lw	v0,24(s1)
60066868:	d940      	sw	v0,0(s1)
6006686a:	6a00      	li	v0,0
6006686c:	d942      	sw	v0,8(s1)
6006686e:	6a00      	li	v0,0
60066870:	c946      	sh	v0,12(s1)
60066872:	9940      	lw	v0,0(s1)
60066874:	9a41      	lw	v0,4(v0)
60066876:	a240      	lbu	v0,0(v0)
60066878:	c144      	sb	v0,4(s1)
6006687a:	b216      	lw	v0,600668d0 <fm_module_open+0x70>
6006687c:	a242      	lbu	v0,2(v0)
6006687e:	c145      	sb	v0,5(s1)
60066880:	a144      	lbu	v0,4(s1)
60066882:	a165      	lbu	v1,5(s1)
60066884:	6782      	move	a0,v0
60066886:	67a3      	move	a1,v1
60066888:	6e00      	li	a2,0
6006688a:	6f00      	li	a3,0
6006688c:	b212      	lw	v0,600668d4 <fm_module_open+0x74>
6006688e:	eac0      	jalrc	v0
60066890:	d942      	sw	v0,8(s1)
60066892:	9962      	lw	v1,8(s1)
60066894:	6a01      	li	v0,1
60066896:	ea4b      	neg	v0
60066898:	ea6e      	xor	v0,v1
6006689a:	5a01      	sltiu	v0,1
6006689c:	6108      	btnez	600668ae <fm_module_open+0x4e>
6006689e:	b30f      	lw	v1,600668d8 <fm_module_open+0x78>
600668a0:	6a01      	li	v0,1
600668a2:	c340      	sb	v0,0(v1)
600668a4:	9940      	lw	v0,0(s1)
600668a6:	9a63      	lw	v1,12(v0)
600668a8:	6a01      	li	v0,1
600668aa:	c340      	sb	v0,0(v1)
600668ac:	1007      	b	600668bc <fm_module_open+0x5c>
600668ae:	9940      	lw	v0,0(s1)
600668b0:	9a63      	lw	v1,12(v0)
600668b2:	6a02      	li	v0,2
600668b4:	c340      	sb	v0,0(v1)
600668b6:	b309      	lw	v1,600668d8 <fm_module_open+0x78>
600668b8:	6a00      	li	v0,0
600668ba:	c340      	sb	v0,0(v1)
600668bc:	9946      	lw	v0,24(s1)
600668be:	6782      	move	a0,v0
600668c0:	b207      	lw	v0,600668dc <fm_module_open+0x7c>
600668c2:	eac0      	jalrc	v0
600668c4:	a946      	lhu	v0,12(s1)
600668c6:	651a      	move	t8,v0
600668c8:	6758      	move	v0,t8
600668ca:	65b9      	move	sp,s1
600668cc:	6453      	restore	24,ra,s1
600668ce:	e8a0      	jrc	ra
600668d0:	9594      	lw	a1,592(sp)
600668d2:	9fc1      	lw	a2,4(a3)
600668d4:	6009      	bteqz	600668e8 <fm_Ain_open+0x8>
600668d6:	bfc2      	lwu	a2,8(a3)
600668d8:	95a8      	lw	a1,672(sp)
600668da:	9fc1      	lw	a2,4(a3)
600668dc:	6019      	bteqz	60066910 <fm_Ain_open+0x30>
600668de:	bfc2      	lwu	a2,8(a3)

600668e0 <fm_Ain_open>:
600668e0:	64d4      	save	32,ra,s1
600668e2:	0104      	addiu	s1,sp,16
600668e4:	d984      	sw	a0,16(s1)
600668e6:	b218      	lw	v0,60066944 <fm_Ain_open+0x64>
600668e8:	a240      	lbu	v0,0(v0)
600668ea:	7201      	cmpi	v0,1
600668ec:	6758      	move	v0,t8
600668ee:	5a01      	sltiu	v0,1
600668f0:	6018      	bteqz	60066922 <fm_Ain_open+0x42>
600668f2:	9944      	lw	v0,16(s1)
600668f4:	9a63      	lw	v1,12(v0)
600668f6:	6a01      	li	v0,1
600668f8:	c340      	sb	v0,0(v1)
600668fa:	6a01      	li	v0,1
600668fc:	c940      	sh	v0,0(s1)
600668fe:	b213      	lw	v0,60066948 <fm_Ain_open+0x68>
60066900:	a240      	lbu	v0,0(v0)
60066902:	7201      	cmpi	v0,1
60066904:	6758      	move	v0,t8
60066906:	5a01      	sltiu	v0,1
60066908:	6004      	bteqz	60066912 <fm_Ain_open+0x32>
6006690a:	1880 9a00 	jal	60126800 <play>
6006690e:	6500      	nop
60066910:	1004      	b	6006691a <fm_Ain_open+0x3a>
60066912:	6c01      	li	a0,1
60066914:	1820 9a00 	jal	60066800 <fm_analog_deal>
60066918:	6500      	nop
6006691a:	6c01      	li	a0,1
6006691c:	b20c      	lw	v0,6006694c <fm_Ain_open+0x6c>
6006691e:	eac0      	jalrc	v0
60066920:	1006      	b	6006692e <fm_Ain_open+0x4e>
60066922:	9944      	lw	v0,16(s1)
60066924:	9a63      	lw	v1,12(v0)
60066926:	6a02      	li	v0,2
60066928:	c340      	sb	v0,0(v1)
6006692a:	6a00      	li	v0,0
6006692c:	c940      	sh	v0,0(s1)
6006692e:	9944      	lw	v0,16(s1)
60066930:	6782      	move	a0,v0
60066932:	b208      	lw	v0,60066950 <fm_Ain_open+0x70>
60066934:	eac0      	jalrc	v0
60066936:	a940      	lhu	v0,0(s1)
60066938:	651a      	move	t8,v0
6006693a:	6758      	move	v0,t8
6006693c:	65b9      	move	sp,s1
6006693e:	6452      	restore	16,ra,s1
60066940:	e8a0      	jrc	ra
60066942:	0000      	addiu	s0,sp,0
60066944:	95a8      	lw	a1,672(sp)
60066946:	9fc1      	lw	a2,4(a3)
60066948:	95d1      	lw	a1,836(sp)
6006694a:	9fc1      	lw	a2,4(a3)
6006694c:	691d      	li	s1,29
6006694e:	60a6      	bteqz	6006689c <fm_module_open+0x3c>
60066950:	6019      	bteqz	60066984 <fm_module_standby+0x30>
60066952:	bfc2      	lwu	a2,8(a3)

60066954 <fm_module_standby>:
60066954:	64d4      	save	32,ra,s1
60066956:	0104      	addiu	s1,sp,16
60066958:	b219      	lw	v0,600669bc <fm_module_standby+0x68>
6006695a:	a240      	lbu	v0,0(v0)
6006695c:	7202      	cmpi	v0,2
6006695e:	6758      	move	v0,t8
60066960:	5a01      	sltiu	v0,1
60066962:	6127      	btnez	600669b2 <fm_module_standby+0x5e>
60066964:	6c00      	li	a0,0
60066966:	6d00      	li	a1,0
60066968:	6e00      	li	a2,0
6006696a:	6f01      	li	a3,1
6006696c:	b215      	lw	v0,600669c0 <fm_module_standby+0x6c>
6006696e:	eac0      	jalrc	v0
60066970:	d940      	sw	v0,0(s1)
60066972:	9960      	lw	v1,0(s1)
60066974:	6a01      	li	v0,1
60066976:	ea4b      	neg	v0
60066978:	ea6e      	xor	v0,v1
6006697a:	5a01      	sltiu	v0,1
6006697c:	611a      	btnez	600669b2 <fm_module_standby+0x5e>
6006697e:	b210      	lw	v0,600669bc <fm_module_standby+0x68>
60066980:	a240      	lbu	v0,0(v0)
60066982:	7201      	cmpi	v0,1
60066984:	6758      	move	v0,t8
60066986:	5a01      	sltiu	v0,1
60066988:	6011      	bteqz	600669ac <fm_module_standby+0x58>
6006698a:	b20f      	lw	v0,600669c4 <fm_module_standby+0x70>
6006698c:	a240      	lbu	v0,0(v0)
6006698e:	7201      	cmpi	v0,1
60066990:	6758      	move	v0,t8
60066992:	5a01      	sltiu	v0,1
60066994:	6004      	bteqz	6006699e <fm_module_standby+0x4a>
60066996:	1880 9a34 	jal	601268d0 <stop>
6006699a:	6500      	nop
6006699c:	1004      	b	600669a6 <fm_module_standby+0x52>
6006699e:	6c00      	li	a0,0
600669a0:	1820 9a00 	jal	60066800 <fm_analog_deal>
600669a4:	6500      	nop
600669a6:	6c00      	li	a0,0
600669a8:	b208      	lw	v0,600669c8 <fm_module_standby+0x74>
600669aa:	eac0      	jalrc	v0
600669ac:	b304      	lw	v1,600669b8 <fm_module_standby+0x64>
600669ae:	6a02      	li	v0,2
600669b0:	c340      	sb	v0,0(v1)
600669b2:	6a01      	li	v0,1
600669b4:	65b9      	move	sp,s1
600669b6:	6452      	restore	16,ra,s1
600669b8:	e8a0      	jrc	ra
600669ba:	0000      	addiu	s0,sp,0
600669bc:	95a8      	lw	a1,672(sp)
600669be:	9fc1      	lw	a2,4(a3)
600669c0:	6009      	bteqz	600669d4 <fmengine_mute_sync+0x8>
600669c2:	bfc2      	lwu	a2,8(a3)
600669c4:	95d1      	lw	a1,836(sp)
600669c6:	9fc1      	lw	a2,4(a3)
600669c8:	691d      	li	s1,29
600669ca:	60a6      	bteqz	60066918 <fm_Ain_open+0x38>

600669cc <fmengine_mute_sync>:
600669cc:	64d5      	save	40,ra,s1
600669ce:	0104      	addiu	s1,sp,16
600669d0:	d986      	sw	a0,24(s1)
600669d2:	9946      	lw	v0,24(s1)
600669d4:	d940      	sw	v0,0(s1)
600669d6:	6a00      	li	v0,0
600669d8:	d943      	sw	v0,12(s1)
600669da:	9940      	lw	v0,0(s1)
600669dc:	9a41      	lw	v0,4(v0)
600669de:	d941      	sw	v0,4(s1)
600669e0:	9941      	lw	v0,4(s1)
600669e2:	a240      	lbu	v0,0(v0)
600669e4:	c148      	sb	v0,8(s1)
600669e6:	a148      	lbu	v0,8(s1)
600669e8:	6782      	move	a0,v0
600669ea:	6d00      	li	a1,0
600669ec:	6e00      	li	a2,0
600669ee:	6f04      	li	a3,4
600669f0:	b218      	lw	v0,60066a50 <fmengine_mute_sync+0x84>
600669f2:	eac0      	jalrc	v0
600669f4:	d943      	sw	v0,12(s1)
600669f6:	9963      	lw	v1,12(s1)
600669f8:	6a01      	li	v0,1
600669fa:	ea4b      	neg	v0
600669fc:	ea6e      	xor	v0,v1
600669fe:	5a01      	sltiu	v0,1
60066a00:	611b      	btnez	60066a38 <fmengine_mute_sync+0x6c>
60066a02:	9940      	lw	v0,0(s1)
60066a04:	9a63      	lw	v1,12(v0)
60066a06:	6a01      	li	v0,1
60066a08:	c340      	sb	v0,0(v1)
60066a0a:	a148      	lbu	v0,8(s1)
60066a0c:	2a08      	bnez	v0,60066a1e <fmengine_mute_sync+0x52>
60066a0e:	b312      	lw	v1,60066a54 <fmengine_mute_sync+0x88>
60066a10:	6a00      	li	v0,0
60066a12:	c348      	sb	v0,8(v1)
60066a14:	6c01      	li	a0,1
60066a16:	1820 9a97 	jal	60066a5c <change_engine_state>
60066a1a:	6500      	nop
60066a1c:	1011      	b	60066a40 <fmengine_mute_sync+0x74>
60066a1e:	a148      	lbu	v0,8(s1)
60066a20:	7201      	cmpi	v0,1
60066a22:	6758      	move	v0,t8
60066a24:	5a01      	sltiu	v0,1
60066a26:	600c      	bteqz	60066a40 <fmengine_mute_sync+0x74>
60066a28:	b30b      	lw	v1,60066a54 <fmengine_mute_sync+0x88>
60066a2a:	6a01      	li	v0,1
60066a2c:	c348      	sb	v0,8(v1)
60066a2e:	6c02      	li	a0,2
60066a30:	1820 9a97 	jal	60066a5c <change_engine_state>
60066a34:	6500      	nop
60066a36:	1004      	b	60066a40 <fmengine_mute_sync+0x74>
60066a38:	9940      	lw	v0,0(s1)
60066a3a:	9a63      	lw	v1,12(v0)
60066a3c:	6a02      	li	v0,2
60066a3e:	c340      	sb	v0,0(v1)
60066a40:	9946      	lw	v0,24(s1)
60066a42:	6782      	move	a0,v0
60066a44:	b205      	lw	v0,60066a58 <fmengine_mute_sync+0x8c>
60066a46:	eac0      	jalrc	v0
60066a48:	6a01      	li	v0,1
60066a4a:	65b9      	move	sp,s1
60066a4c:	6453      	restore	24,ra,s1
60066a4e:	e8a0      	jrc	ra
60066a50:	6009      	bteqz	60066a64 <change_engine_state+0x8>
60066a52:	bfc2      	lwu	a2,8(a3)
60066a54:	9588      	lw	a1,544(sp)
60066a56:	9fc1      	lw	a2,4(a3)
60066a58:	6019      	bteqz	60066a8c <fmengine_set_band_sync+0x18>
60066a5a:	bfc2      	lwu	a2,8(a3)

60066a5c <change_engine_state>:
60066a5c:	6491      	save	8,s1
60066a5e:	673d      	move	s1,sp
60066a60:	6744      	move	v0,a0
60066a62:	c148      	sb	v0,8(s1)
60066a64:	b303      	lw	v1,60066a70 <change_engine_state+0x14>
60066a66:	a148      	lbu	v0,8(s1)
60066a68:	c341      	sb	v0,1(v1)
60066a6a:	65b9      	move	sp,s1
60066a6c:	6411      	restore	8,s1
60066a6e:	e8a0      	jrc	ra
60066a70:	a094      	lbu	a0,20(s0)
60066a72:	9fc1      	lw	a2,4(a3)

60066a74 <fmengine_set_band_sync>:
60066a74:	64d5      	save	40,ra,s1
60066a76:	0104      	addiu	s1,sp,16
60066a78:	d986      	sw	a0,24(s1)
60066a7a:	9946      	lw	v0,24(s1)
60066a7c:	d940      	sw	v0,0(s1)
60066a7e:	9940      	lw	v0,0(s1)
60066a80:	9a41      	lw	v0,4(v0)
60066a82:	a240      	lbu	v0,0(v0)
60066a84:	c148      	sb	v0,8(s1)
60066a86:	a148      	lbu	v0,8(s1)
60066a88:	6782      	move	a0,v0
60066a8a:	6d00      	li	a1,0
60066a8c:	6e00      	li	a2,0
60066a8e:	6f07      	li	a3,7
60066a90:	b20d      	lw	v0,60066ac4 <fmengine_set_band_sync+0x50>
60066a92:	eac0      	jalrc	v0
60066a94:	d941      	sw	v0,4(s1)
60066a96:	9961      	lw	v1,4(s1)
60066a98:	6a01      	li	v0,1
60066a9a:	ea4b      	neg	v0
60066a9c:	ea6e      	xor	v0,v1
60066a9e:	5a01      	sltiu	v0,1
60066aa0:	6105      	btnez	60066aac <fmengine_set_band_sync+0x38>
60066aa2:	9940      	lw	v0,0(s1)
60066aa4:	9a63      	lw	v1,12(v0)
60066aa6:	6a01      	li	v0,1
60066aa8:	c340      	sb	v0,0(v1)
60066aaa:	1004      	b	60066ab4 <fmengine_set_band_sync+0x40>
60066aac:	9940      	lw	v0,0(s1)
60066aae:	9a63      	lw	v1,12(v0)
60066ab0:	6a02      	li	v0,2
60066ab2:	c340      	sb	v0,0(v1)
60066ab4:	9946      	lw	v0,24(s1)
60066ab6:	6782      	move	a0,v0
60066ab8:	b204      	lw	v0,60066ac8 <fmengine_set_band_sync+0x54>
60066aba:	eac0      	jalrc	v0
60066abc:	6a01      	li	v0,1
60066abe:	65b9      	move	sp,s1
60066ac0:	6453      	restore	24,ra,s1
60066ac2:	e8a0      	jrc	ra
60066ac4:	6009      	bteqz	60066ad8 <fmengine_set_throd+0xc>
60066ac6:	bfc2      	lwu	a2,8(a3)
60066ac8:	6019      	bteqz	60066afc <fmengine_set_throd+0x30>
60066aca:	bfc2      	lwu	a2,8(a3)

60066acc <fmengine_set_throd>:
60066acc:	64d5      	save	40,ra,s1
60066ace:	0104      	addiu	s1,sp,16
60066ad0:	d986      	sw	a0,24(s1)
60066ad2:	9946      	lw	v0,24(s1)
60066ad4:	d940      	sw	v0,0(s1)
60066ad6:	9940      	lw	v0,0(s1)
60066ad8:	9a41      	lw	v0,4(v0)
60066ada:	a240      	lbu	v0,0(v0)
60066adc:	c144      	sb	v0,4(s1)
60066ade:	a144      	lbu	v0,4(s1)
60066ae0:	6782      	move	a0,v0
60066ae2:	6d00      	li	a1,0
60066ae4:	6e00      	li	a2,0
60066ae6:	6f08      	li	a3,8
60066ae8:	b20f      	lw	v0,60066b24 <fmengine_set_throd+0x58>
60066aea:	eac0      	jalrc	v0
60066aec:	d942      	sw	v0,8(s1)
60066aee:	9962      	lw	v1,8(s1)
60066af0:	6a01      	li	v0,1
60066af2:	ea4b      	neg	v0
60066af4:	ea6e      	xor	v0,v1
60066af6:	5a01      	sltiu	v0,1
60066af8:	6108      	btnez	60066b0a <fmengine_set_throd+0x3e>
60066afa:	9940      	lw	v0,0(s1)
60066afc:	9a63      	lw	v1,12(v0)
60066afe:	6a01      	li	v0,1
60066b00:	c340      	sb	v0,0(v1)
60066b02:	b30a      	lw	v1,60066b28 <fmengine_set_throd+0x5c>
60066b04:	a144      	lbu	v0,4(s1)
60066b06:	c342      	sb	v0,2(v1)
60066b08:	1004      	b	60066b12 <fmengine_set_throd+0x46>
60066b0a:	9940      	lw	v0,0(s1)
60066b0c:	9a63      	lw	v1,12(v0)
60066b0e:	6a02      	li	v0,2
60066b10:	c340      	sb	v0,0(v1)
60066b12:	9946      	lw	v0,24(s1)
60066b14:	6782      	move	a0,v0
60066b16:	b206      	lw	v0,60066b2c <fmengine_set_throd+0x60>
60066b18:	eac0      	jalrc	v0
60066b1a:	6a01      	li	v0,1
60066b1c:	65b9      	move	sp,s1
60066b1e:	6453      	restore	24,ra,s1
60066b20:	e8a0      	jrc	ra
60066b22:	0000      	addiu	s0,sp,0
60066b24:	6009      	bteqz	60066b38 <fmengine_tts_start+0x8>
60066b26:	bfc2      	lwu	a2,8(a3)
60066b28:	9594      	lw	a1,592(sp)
60066b2a:	9fc1      	lw	a2,4(a3)
60066b2c:	6019      	bteqz	60066b60 <fmengine_tts_start+0x30>
60066b2e:	bfc2      	lwu	a2,8(a3)

60066b30 <fmengine_tts_start>:
60066b30:	64d3      	save	24,ra,s1
60066b32:	0104      	addiu	s1,sp,16
60066b34:	d982      	sw	a0,8(s1)
60066b36:	b214      	lw	v0,60066b84 <fmengine_tts_start+0x54>
60066b38:	a248      	lbu	v0,8(v0)
60066b3a:	2a09      	bnez	v0,60066b4e <fmengine_tts_start+0x1e>
60066b3c:	6c01      	li	a0,1
60066b3e:	6d00      	li	a1,0
60066b40:	6e00      	li	a2,0
60066b42:	6f04      	li	a3,4
60066b44:	b211      	lw	v0,60066b88 <fmengine_tts_start+0x58>
60066b46:	eac0      	jalrc	v0
60066b48:	b311      	lw	v1,60066b88 <fmengine_tts_start+0x58>
60066b4a:	6a01      	li	v0,1
60066b4c:	c340      	sb	v0,0(v1)
60066b4e:	b211      	lw	v0,60066b90 <fmengine_tts_start+0x60>
60066b50:	a240      	lbu	v0,0(v0)
60066b52:	7201      	cmpi	v0,1
60066b54:	6758      	move	v0,t8
60066b56:	5a01      	sltiu	v0,1
60066b58:	6004      	bteqz	60066b62 <fmengine_tts_start+0x32>
60066b5a:	1880 9a34 	jal	601268d0 <stop>
60066b5e:	6500      	nop
60066b60:	1004      	b	60066b6a <fmengine_tts_start+0x3a>
60066b62:	6c00      	li	a0,0
60066b64:	1820 9a00 	jal	60066800 <fm_analog_deal>
60066b68:	6500      	nop
60066b6a:	9942      	lw	v0,8(s1)
60066b6c:	9a63      	lw	v1,12(v0)
60066b6e:	6a01      	li	v0,1
60066b70:	c340      	sb	v0,0(v1)
60066b72:	9942      	lw	v0,8(s1)
60066b74:	6782      	move	a0,v0
60066b76:	b208      	lw	v0,60066b94 <fmengine_tts_start+0x64>
60066b78:	eac0      	jalrc	v0
60066b7a:	6a01      	li	v0,1
60066b7c:	65b9      	move	sp,s1
60066b7e:	6451      	restore	8,ra,s1
60066b80:	e8a0      	jrc	ra
60066b82:	0000      	addiu	s0,sp,0
60066b84:	9588      	lw	a1,544(sp)
60066b86:	9fc1      	lw	a2,4(a3)
60066b88:	6009      	bteqz	60066b9c <fmengine_tts_stop+0x4>
60066b8a:	bfc2      	lwu	a2,8(a3)
60066b8c:	95d0      	lw	a1,832(sp)
60066b8e:	9fc1      	lw	a2,4(a3)
60066b90:	95d1      	lw	a1,836(sp)
60066b92:	9fc1      	lw	a2,4(a3)
60066b94:	6019      	bteqz	60066bc8 <fmengine_tts_stop+0x30>
60066b96:	bfc2      	lwu	a2,8(a3)

60066b98 <fmengine_tts_stop>:
60066b98:	64d3      	save	24,ra,s1
60066b9a:	0104      	addiu	s1,sp,16
60066b9c:	d982      	sw	a0,8(s1)
60066b9e:	b215      	lw	v0,60066bf0 <fmengine_tts_stop+0x58>
60066ba0:	a240      	lbu	v0,0(v0)
60066ba2:	7201      	cmpi	v0,1
60066ba4:	6758      	move	v0,t8
60066ba6:	5a01      	sltiu	v0,1
60066ba8:	6009      	bteqz	60066bbc <fmengine_tts_stop+0x24>
60066baa:	6c00      	li	a0,0
60066bac:	6d00      	li	a1,0
60066bae:	6e00      	li	a2,0
60066bb0:	6f04      	li	a3,4
60066bb2:	b211      	lw	v0,60066bf4 <fmengine_tts_stop+0x5c>
60066bb4:	eac0      	jalrc	v0
60066bb6:	b30f      	lw	v1,60066bf0 <fmengine_tts_stop+0x58>
60066bb8:	6a00      	li	v0,0
60066bba:	c340      	sb	v0,0(v1)
60066bbc:	b20f      	lw	v0,60066bf8 <fmengine_tts_stop+0x60>
60066bbe:	a240      	lbu	v0,0(v0)
60066bc0:	7201      	cmpi	v0,1
60066bc2:	6758      	move	v0,t8
60066bc4:	5a01      	sltiu	v0,1
60066bc6:	6004      	bteqz	60066bd0 <fmengine_tts_stop+0x38>
60066bc8:	1880 9a00 	jal	60126800 <play>
60066bcc:	6500      	nop
60066bce:	1004      	b	60066bd8 <fmengine_tts_stop+0x40>
60066bd0:	6c01      	li	a0,1
60066bd2:	1820 9a00 	jal	60066800 <fm_analog_deal>
60066bd6:	6500      	nop
60066bd8:	9942      	lw	v0,8(s1)
60066bda:	9a63      	lw	v1,12(v0)
60066bdc:	6a01      	li	v0,1
60066bde:	c340      	sb	v0,0(v1)
60066be0:	9942      	lw	v0,8(s1)
60066be2:	6782      	move	a0,v0
60066be4:	b206      	lw	v0,60066bfc <fmengine_tts_stop+0x64>
60066be6:	eac0      	jalrc	v0
60066be8:	6a01      	li	v0,1
60066bea:	65b9      	move	sp,s1
60066bec:	6451      	restore	8,ra,s1
60066bee:	e8a0      	jrc	ra
60066bf0:	95d0      	lw	a1,832(sp)
60066bf2:	9fc1      	lw	a2,4(a3)
60066bf4:	6009      	bteqz	60066c08 <fmengine_debug+0x8>
60066bf6:	bfc2      	lwu	a2,8(a3)
60066bf8:	95d1      	lw	a1,836(sp)
60066bfa:	9fc1      	lw	a2,4(a3)
60066bfc:	6019      	bteqz	60066c30 <fmengine_debug+0x30>
60066bfe:	bfc2      	lwu	a2,8(a3)

60066c00 <fmengine_debug>:
60066c00:	64f4      	save	32,ra,s0-s1
60066c02:	0104      	addiu	s1,sp,16
60066c04:	d984      	sw	a0,16(s1)
60066c06:	9944      	lw	v0,16(s1)
60066c08:	9a43      	lw	v0,12(v0)
60066c0a:	9a01      	lw	s0,4(v0)
60066c0c:	6c00      	li	a0,0
60066c0e:	6d00      	li	a1,0
60066c10:	6e00      	li	a2,0
60066c12:	6f10      	li	a3,16
60066c14:	b208      	lw	v0,60066c34 <fmengine_debug+0x34>
60066c16:	eac0      	jalrc	v0
60066c18:	d840      	sw	v0,0(s0)
60066c1a:	9944      	lw	v0,16(s1)
60066c1c:	9a63      	lw	v1,12(v0)
60066c1e:	6a01      	li	v0,1
60066c20:	c340      	sb	v0,0(v1)
60066c22:	9944      	lw	v0,16(s1)
60066c24:	6782      	move	a0,v0
60066c26:	b205      	lw	v0,60066c38 <fmengine_debug+0x38>
60066c28:	eac0      	jalrc	v0
60066c2a:	6a01      	li	v0,1
60066c2c:	65b9      	move	sp,s1
60066c2e:	6472      	restore	16,ra,s0-s1
60066c30:	e8a0      	jrc	ra
60066c32:	0000      	addiu	s0,sp,0
60066c34:	6009      	bteqz	60066c48 <fmengine_standby+0xc>
60066c36:	bfc2      	lwu	a2,8(a3)
60066c38:	6019      	bteqz	60066c6c <fmengine_standby+0x30>
60066c3a:	bfc2      	lwu	a2,8(a3)

60066c3c <fmengine_standby>:
60066c3c:	64d4      	save	32,ra,s1
60066c3e:	0104      	addiu	s1,sp,16
60066c40:	d984      	sw	a0,16(s1)
60066c42:	9944      	lw	v0,16(s1)
60066c44:	9a41      	lw	v0,4(v0)
60066c46:	d940      	sw	v0,0(s1)
60066c48:	0a38      	la	v0,60066d28 <fmengine_standby+0xec>
60066c4a:	6782      	move	a0,v0
60066c4c:	6d00      	li	a1,0
60066c4e:	6e00      	li	a2,0
60066c50:	6f4b      	li	a3,75
60066c52:	b243      	lw	v0,60066d5c <fmengine_standby+0x120>
60066c54:	eac0      	jalrc	v0
60066c56:	b243      	lw	v0,60066d60 <fmengine_standby+0x124>
60066c58:	a248      	lbu	v0,8(v0)
60066c5a:	2a06      	bnez	v0,60066c68 <fmengine_standby+0x2c>
60066c5c:	6c01      	li	a0,1
60066c5e:	6d00      	li	a1,0
60066c60:	6e00      	li	a2,0
60066c62:	6f04      	li	a3,4
60066c64:	b240      	lw	v0,60066d64 <fmengine_standby+0x128>
60066c66:	eac0      	jalrc	v0
60066c68:	b240      	lw	v0,60066d64 <fmengine_standby+0x128>
60066c6a:	a240      	lbu	v0,0(v0)
60066c6c:	7201      	cmpi	v0,1
60066c6e:	6758      	move	v0,t8
60066c70:	5a01      	sltiu	v0,1
60066c72:	6004      	bteqz	60066c7c <fmengine_standby+0x40>
60066c74:	1880 9a34 	jal	601268d0 <stop>
60066c78:	6500      	nop
60066c7a:	1004      	b	60066c84 <fmengine_standby+0x48>
60066c7c:	6c00      	li	a0,0
60066c7e:	1820 9a00 	jal	60066800 <fm_analog_deal>
60066c82:	6500      	nop
60066c84:	6c00      	li	a0,0
60066c86:	6d00      	li	a1,0
60066c88:	6e00      	li	a2,0
60066c8a:	6f01      	li	a3,1
60066c8c:	b236      	lw	v0,60066d64 <fmengine_standby+0x128>
60066c8e:	eac0      	jalrc	v0
60066c90:	9944      	lw	v0,16(s1)
60066c92:	9a63      	lw	v1,12(v0)
60066c94:	6a01      	li	v0,1
60066c96:	c340      	sb	v0,0(v1)
60066c98:	9944      	lw	v0,16(s1)
60066c9a:	6782      	move	a0,v0
60066c9c:	b234      	lw	v0,60066d6c <fmengine_standby+0x130>
60066c9e:	eac0      	jalrc	v0
60066ca0:	9940      	lw	v0,0(s1)
60066ca2:	6782      	move	a0,v0
60066ca4:	6d00      	li	a1,0
60066ca6:	6e00      	li	a2,0
60066ca8:	6f14      	li	a3,20
60066caa:	b232      	lw	v0,60066d70 <fmengine_standby+0x134>
60066cac:	eac0      	jalrc	v0
60066cae:	0a26      	la	v0,60066d44 <fmengine_standby+0x108>
60066cb0:	6782      	move	a0,v0
60066cb2:	6d00      	li	a1,0
60066cb4:	6e00      	li	a2,0
60066cb6:	6f4b      	li	a3,75
60066cb8:	b229      	lw	v0,60066d5c <fmengine_standby+0x120>
60066cba:	eac0      	jalrc	v0
60066cbc:	b229      	lw	v0,60066d5c <fmengine_standby+0x120>
60066cbe:	a267      	lbu	v1,7(v0)
60066cc0:	b22d      	lw	v0,60066d74 <fmengine_standby+0x138>
60066cc2:	a242      	lbu	v0,2(v0)
60066cc4:	6783      	move	a0,v1
60066cc6:	67a2      	move	a1,v0
60066cc8:	6e00      	li	a2,0
60066cca:	6f00      	li	a3,0
60066ccc:	b226      	lw	v0,60066d64 <fmengine_standby+0x128>
60066cce:	eac0      	jalrc	v0
60066cd0:	b224      	lw	v0,60066d5c <fmengine_standby+0x120>
60066cd2:	9a40      	lw	v0,0(v0)
60066cd4:	6782      	move	a0,v0
60066cd6:	6d00      	li	a1,0
60066cd8:	6e00      	li	a2,0
60066cda:	6f02      	li	a3,2
60066cdc:	b222      	lw	v0,60066d64 <fmengine_standby+0x128>
60066cde:	eac0      	jalrc	v0
60066ce0:	b220      	lw	v0,60066d5c <fmengine_standby+0x120>
60066ce2:	a248      	lbu	v0,8(v0)
60066ce4:	2a06      	bnez	v0,60066cf2 <fmengine_standby+0xb6>
60066ce6:	6c00      	li	a0,0
60066ce8:	6d00      	li	a1,0
60066cea:	6e00      	li	a2,0
60066cec:	6f04      	li	a3,4
60066cee:	b21e      	lw	v0,60066d64 <fmengine_standby+0x128>
60066cf0:	eac0      	jalrc	v0
60066cf2:	b21e      	lw	v0,60066d68 <fmengine_standby+0x12c>
60066cf4:	a240      	lbu	v0,0(v0)
60066cf6:	7201      	cmpi	v0,1
60066cf8:	6758      	move	v0,t8
60066cfa:	5a01      	sltiu	v0,1
60066cfc:	6004      	bteqz	60066d06 <fmengine_standby+0xca>
60066cfe:	1880 9a00 	jal	60126800 <play>
60066d02:	6500      	nop
60066d04:	1004      	b	60066d0e <fmengine_standby+0xd2>
60066d06:	6c01      	li	a0,1
60066d08:	1820 9a00 	jal	60066800 <fm_analog_deal>
60066d0c:	6500      	nop
60066d0e:	b21b      	lw	v0,60066d78 <fmengine_standby+0x13c>
60066d10:	9a60      	lw	v1,0(v0)
60066d12:	b21b      	lw	v0,60066d7c <fmengine_standby+0x140>
60066d14:	a240      	lbu	v0,0(v0)
60066d16:	6783      	move	a0,v1
60066d18:	67a2      	move	a1,v0
60066d1a:	b21a      	lw	v0,60066d80 <fmengine_standby+0x144>
60066d1c:	eac0      	jalrc	v0
60066d1e:	6a01      	li	v0,1
60066d20:	65b9      	move	sp,s1
60066d22:	6452      	restore	16,ra,s1
60066d24:	e8a0      	jrc	ra
60066d26:	0000      	addiu	s0,sp,0
60066d28:	493c      	addiu	s1,60
60066d2a:	203e      	beqz	s0,60066da8 <fmengine_standby+0x16c>
60066d2c:	6e65      	li	a2,101
60066d2e:	6967      	li	s1,103
60066d30:	656e      	move	t3,a2
60066d32:	7320      	cmpi	v1,32
60066d34:	6174      	btnez	60066e1e <fmengine_standby+0x1e2>
60066d36:	646e      	restore	112,ra,s0
60066d38:	7962      	sd	v1,16(s1)
60066d3a:	6520      	move	at,s0
60066d3c:	746e      	cmpi	a0,110
60066d3e:	7265      	cmpi	v0,101
60066d40:	0000      	addiu	s0,sp,0
60066d42:	0000      	addiu	s0,sp,0
60066d44:	493c      	addiu	s1,60
60066d46:	203e      	beqz	s0,60066dc4 <fmengine_standby+0x188>
60066d48:	6e65      	li	a2,101
60066d4a:	6967      	li	s1,103
60066d4c:	656e      	move	t3,a2
60066d4e:	7320      	cmpi	v1,32
60066d50:	6174      	btnez	60066e3a <fmengine_standby+0x1fe>
60066d52:	646e      	restore	112,ra,s0
60066d54:	7962      	sd	v1,16(s1)
60066d56:	6520      	move	at,s0
60066d58:	6978      	li	s1,120
60066d5a:	0074      	addiu	s0,sp,464
60066d5c:	6015      	bteqz	60066d88 <fmengine_standby+0x14c>
60066d5e:	bfc2      	lwu	a2,8(a3)
60066d60:	9588      	lw	a1,544(sp)
60066d62:	9fc1      	lw	a2,4(a3)
60066d64:	6009      	bteqz	60066d78 <fmengine_standby+0x13c>
60066d66:	bfc2      	lwu	a2,8(a3)
60066d68:	95d1      	lw	a1,836(sp)
60066d6a:	9fc1      	lw	a2,4(a3)
60066d6c:	6019      	bteqz	60066da0 <fmengine_standby+0x164>
60066d6e:	bfc2      	lwu	a2,8(a3)
60066d70:	6011      	bteqz	60066d94 <fmengine_standby+0x158>
60066d72:	bfc2      	lwu	a2,8(a3)
60066d74:	9594      	lw	a1,592(sp)
60066d76:	9fc1      	lw	a2,4(a3)
60066d78:	95e4      	lw	a1,912(sp)
60066d7a:	9fc1      	lw	a2,4(a3)
60066d7c:	95f4      	lw	a1,976(sp)
60066d7e:	9fc1      	lw	a2,4(a3)
60066d80:	6c85      	li	a0,133
60066d82:	60a2      	bteqz	60066cc8 <fmengine_standby+0x8c>
Disassembly of section BANK_CONTROL_1_2:

600a6800 <fmengine_get_status>:
600a6800:	64d7      	save	56,ra,s1
600a6802:	0104      	addiu	s1,sp,16
600a6804:	d98a      	sw	a0,40(s1)
600a6806:	994a      	lw	v0,40(s1)
600a6808:	d940      	sw	v0,0(s1)
600a680a:	9940      	lw	v0,0(s1)
600a680c:	a244      	lbu	v0,4(v0)
600a680e:	c158      	sb	v0,24(s1)
600a6810:	4147      	addiu	v0,s1,7
600a6812:	4241      	addiu	v0,v0,1
600a6814:	a178      	lbu	v1,24(s1)
600a6816:	6782      	move	a0,v0
600a6818:	67a3      	move	a1,v1
600a681a:	6e00      	li	a2,0
600a681c:	6f03      	li	a3,3
600a681e:	b219      	lw	v0,600a6880 <fmengine_get_status+0x80>
600a6820:	eac0      	jalrc	v0
600a6822:	d941      	sw	v0,4(s1)
600a6824:	9961      	lw	v1,4(s1)
600a6826:	6a01      	li	v0,1
600a6828:	ea4b      	neg	v0
600a682a:	ea6e      	xor	v0,v1
600a682c:	5a01      	sltiu	v0,1
600a682e:	611b      	btnez	600a6866 <fmengine_get_status+0x66>
600a6830:	b215      	lw	v0,600a6884 <fmengine_get_status+0x84>
600a6832:	a248      	lbu	v0,8(v0)
600a6834:	c150      	sb	v0,16(s1)
600a6836:	b214      	lw	v0,600a6884 <fmengine_get_status+0x84>
600a6838:	4167      	addiu	v1,s1,7
600a683a:	4361      	addiu	v1,v1,1
600a683c:	6782      	move	a0,v0
600a683e:	67a3      	move	a1,v1
600a6840:	6e0c      	li	a2,12
600a6842:	6f00      	li	a3,0
600a6844:	b211      	lw	v0,600a6888 <fmengine_get_status+0x88>
600a6846:	eac0      	jalrc	v0
600a6848:	9940      	lw	v0,0(s1)
600a684a:	9a63      	lw	v1,12(v0)
600a684c:	6a01      	li	v0,1
600a684e:	c340      	sb	v0,0(v1)
600a6850:	9940      	lw	v0,0(s1)
600a6852:	9a43      	lw	v0,12(v0)
600a6854:	9a41      	lw	v0,4(v0)
600a6856:	b30c      	lw	v1,600a6884 <fmengine_get_status+0x84>
600a6858:	6782      	move	a0,v0
600a685a:	67a3      	move	a1,v1
600a685c:	6e0c      	li	a2,12
600a685e:	6f00      	li	a3,0
600a6860:	b20a      	lw	v0,600a6888 <fmengine_get_status+0x88>
600a6862:	eac0      	jalrc	v0
600a6864:	1004      	b	600a686e <fmengine_get_status+0x6e>
600a6866:	9940      	lw	v0,0(s1)
600a6868:	9a63      	lw	v1,12(v0)
600a686a:	6a02      	li	v0,2
600a686c:	c340      	sb	v0,0(v1)
600a686e:	994a      	lw	v0,40(s1)
600a6870:	6782      	move	a0,v0
600a6872:	b207      	lw	v0,600a688c <fmengine_get_status+0x8c>
600a6874:	eac0      	jalrc	v0
600a6876:	6a01      	li	v0,1
600a6878:	65b9      	move	sp,s1
600a687a:	6455      	restore	40,ra,s1
600a687c:	e8a0      	jrc	ra
600a687e:	0000      	addiu	s0,sp,0
600a6880:	6009      	bteqz	600a6894 <fmengine_get_band+0x4>
600a6882:	bfc2      	lwu	a2,8(a3)
600a6884:	9588      	lw	a1,544(sp)
600a6886:	9fc1      	lw	a2,4(a3)
600a6888:	6011      	bteqz	600a68ac <fmengine_get_band+0x1c>
600a688a:	bfc2      	lwu	a2,8(a3)
600a688c:	6019      	bteqz	600a68c0 <fmengine_get_band+0x30>
600a688e:	bfc2      	lwu	a2,8(a3)

600a6890 <fmengine_get_band>:
600a6890:	64d4      	save	32,ra,s1
600a6892:	0104      	addiu	s1,sp,16
600a6894:	d984      	sw	a0,16(s1)
600a6896:	9944      	lw	v0,16(s1)
600a6898:	d940      	sw	v0,0(s1)
600a689a:	b213      	lw	v0,600a68e4 <fmengine_get_band+0x54>
600a689c:	6782      	move	a0,v0
600a689e:	6d00      	li	a1,0
600a68a0:	6e00      	li	a2,0
600a68a2:	6f0b      	li	a3,11
600a68a4:	b211      	lw	v0,600a68e8 <fmengine_get_band+0x58>
600a68a6:	eac0      	jalrc	v0
600a68a8:	d941      	sw	v0,4(s1)
600a68aa:	9961      	lw	v1,4(s1)
600a68ac:	6a01      	li	v0,1
600a68ae:	ea4b      	neg	v0
600a68b0:	ea6e      	xor	v0,v1
600a68b2:	5a01      	sltiu	v0,1
600a68b4:	610b      	btnez	600a68cc <fmengine_get_band+0x3c>
600a68b6:	9940      	lw	v0,0(s1)
600a68b8:	9a63      	lw	v1,12(v0)
600a68ba:	6a01      	li	v0,1
600a68bc:	c340      	sb	v0,0(v1)
600a68be:	9940      	lw	v0,0(s1)
600a68c0:	9a43      	lw	v0,12(v0)
600a68c2:	9a61      	lw	v1,4(v0)
600a68c4:	b20a      	lw	v0,600a68ec <fmengine_get_band+0x5c>
600a68c6:	a247      	lbu	v0,7(v0)
600a68c8:	c340      	sb	v0,0(v1)
600a68ca:	1004      	b	600a68d4 <fmengine_get_band+0x44>
600a68cc:	9940      	lw	v0,0(s1)
600a68ce:	9a63      	lw	v1,12(v0)
600a68d0:	6a02      	li	v0,2
600a68d2:	c340      	sb	v0,0(v1)
600a68d4:	9944      	lw	v0,16(s1)
600a68d6:	6782      	move	a0,v0
600a68d8:	b206      	lw	v0,600a68f0 <fmengine_get_band+0x60>
600a68da:	eac0      	jalrc	v0
600a68dc:	6a01      	li	v0,1
600a68de:	65b9      	move	sp,s1
600a68e0:	6452      	restore	16,ra,s1
600a68e2:	e8a0      	jrc	ra
600a68e4:	958f      	lw	a1,572(sp)
600a68e6:	9fc1      	lw	a2,4(a3)
600a68e8:	6009      	bteqz	600a68fc <fmengine_get_intensity+0x8>
600a68ea:	bfc2      	lwu	a2,8(a3)
600a68ec:	9588      	lw	a1,544(sp)
600a68ee:	9fc1      	lw	a2,4(a3)
600a68f0:	6019      	bteqz	600a6924 <fmengine_get_intensity+0x30>
600a68f2:	bfc2      	lwu	a2,8(a3)

600a68f4 <fmengine_get_intensity>:
600a68f4:	64d4      	save	32,ra,s1
600a68f6:	0104      	addiu	s1,sp,16
600a68f8:	d984      	sw	a0,16(s1)
600a68fa:	9944      	lw	v0,16(s1)
600a68fc:	d940      	sw	v0,0(s1)
600a68fe:	b213      	lw	v0,600a6948 <fmengine_get_intensity+0x54>
600a6900:	6782      	move	a0,v0
600a6902:	6d00      	li	a1,0
600a6904:	6e00      	li	a2,0
600a6906:	6f0d      	li	a3,13
600a6908:	b211      	lw	v0,600a694c <fmengine_get_intensity+0x58>
600a690a:	eac0      	jalrc	v0
600a690c:	d941      	sw	v0,4(s1)
600a690e:	9961      	lw	v1,4(s1)
600a6910:	6a01      	li	v0,1
600a6912:	ea4b      	neg	v0
600a6914:	ea6e      	xor	v0,v1
600a6916:	5a01      	sltiu	v0,1
600a6918:	610b      	btnez	600a6930 <fmengine_get_intensity+0x3c>
600a691a:	9940      	lw	v0,0(s1)
600a691c:	9a63      	lw	v1,12(v0)
600a691e:	6a01      	li	v0,1
600a6920:	c340      	sb	v0,0(v1)
600a6922:	9940      	lw	v0,0(s1)
600a6924:	9a43      	lw	v0,12(v0)
600a6926:	9a61      	lw	v1,4(v0)
600a6928:	b20a      	lw	v0,600a6950 <fmengine_get_intensity+0x5c>
600a692a:	aa42      	lhu	v0,4(v0)
600a692c:	cb40      	sh	v0,0(v1)
600a692e:	1004      	b	600a6938 <fmengine_get_intensity+0x44>
600a6930:	9940      	lw	v0,0(s1)
600a6932:	9a63      	lw	v1,12(v0)
600a6934:	6a02      	li	v0,2
600a6936:	c340      	sb	v0,0(v1)
600a6938:	9944      	lw	v0,16(s1)
600a693a:	6782      	move	a0,v0
600a693c:	b206      	lw	v0,600a6954 <fmengine_get_intensity+0x60>
600a693e:	eac0      	jalrc	v0
600a6940:	6a01      	li	v0,1
600a6942:	65b9      	move	sp,s1
600a6944:	6452      	restore	16,ra,s1
600a6946:	e8a0      	jrc	ra
600a6948:	958c      	lw	a1,560(sp)
600a694a:	9fc1      	lw	a2,4(a3)
600a694c:	6009      	bteqz	600a6960 <fmengine_get_antenna+0x8>
600a694e:	bfc2      	lwu	a2,8(a3)
600a6950:	9588      	lw	a1,544(sp)
600a6952:	9fc1      	lw	a2,4(a3)
600a6954:	6019      	bteqz	600a6988 <fmengine_get_antenna+0x30>
600a6956:	bfc2      	lwu	a2,8(a3)

600a6958 <fmengine_get_antenna>:
600a6958:	64d5      	save	40,ra,s1
600a695a:	0104      	addiu	s1,sp,16
600a695c:	d986      	sw	a0,24(s1)
600a695e:	9946      	lw	v0,24(s1)
600a6960:	d940      	sw	v0,0(s1)
600a6962:	4147      	addiu	v0,s1,7
600a6964:	4241      	addiu	v0,v0,1
600a6966:	6782      	move	a0,v0
600a6968:	6d00      	li	a1,0
600a696a:	6e00      	li	a2,0
600a696c:	6f0e      	li	a3,14
600a696e:	b210      	lw	v0,600a69ac <fmengine_get_antenna+0x54>
600a6970:	eac0      	jalrc	v0
600a6972:	d941      	sw	v0,4(s1)
600a6974:	9961      	lw	v1,4(s1)
600a6976:	6a01      	li	v0,1
600a6978:	ea4b      	neg	v0
600a697a:	ea6e      	xor	v0,v1
600a697c:	5a01      	sltiu	v0,1
600a697e:	610a      	btnez	600a6994 <fmengine_get_antenna+0x3c>
600a6980:	9940      	lw	v0,0(s1)
600a6982:	9a63      	lw	v1,12(v0)
600a6984:	6a01      	li	v0,1
600a6986:	c340      	sb	v0,0(v1)
600a6988:	9940      	lw	v0,0(s1)
600a698a:	9a43      	lw	v0,12(v0)
600a698c:	9a61      	lw	v1,4(v0)
600a698e:	a148      	lbu	v0,8(s1)
600a6990:	c340      	sb	v0,0(v1)
600a6992:	1004      	b	600a699c <fmengine_get_antenna+0x44>
600a6994:	9940      	lw	v0,0(s1)
600a6996:	9a63      	lw	v1,12(v0)
600a6998:	6a02      	li	v0,2
600a699a:	c340      	sb	v0,0(v1)
600a699c:	9946      	lw	v0,24(s1)
600a699e:	6782      	move	a0,v0
600a69a0:	b204      	lw	v0,600a69b0 <fmengine_get_antenna+0x58>
600a69a2:	eac0      	jalrc	v0
600a69a4:	6a01      	li	v0,1
600a69a6:	65b9      	move	sp,s1
600a69a8:	6453      	restore	24,ra,s1
600a69aa:	e8a0      	jrc	ra
600a69ac:	6009      	bteqz	600a69c0 <fmengine_get_stereo+0xc>
600a69ae:	bfc2      	lwu	a2,8(a3)
600a69b0:	6019      	bteqz	600a69e4 <fmengine_get_stereo+0x30>
600a69b2:	bfc2      	lwu	a2,8(a3)

600a69b4 <fmengine_get_stereo>:
600a69b4:	64d4      	save	32,ra,s1
600a69b6:	0104      	addiu	s1,sp,16
600a69b8:	d984      	sw	a0,16(s1)
600a69ba:	9944      	lw	v0,16(s1)
600a69bc:	d940      	sw	v0,0(s1)
600a69be:	b213      	lw	v0,600a6a08 <fmengine_get_stereo+0x54>
600a69c0:	6782      	move	a0,v0
600a69c2:	6d00      	li	a1,0
600a69c4:	6e00      	li	a2,0
600a69c6:	6f0f      	li	a3,15
600a69c8:	b211      	lw	v0,600a6a0c <fmengine_get_stereo+0x58>
600a69ca:	eac0      	jalrc	v0
600a69cc:	d941      	sw	v0,4(s1)
600a69ce:	9961      	lw	v1,4(s1)
600a69d0:	6a01      	li	v0,1
600a69d2:	ea4b      	neg	v0
600a69d4:	ea6e      	xor	v0,v1
600a69d6:	5a01      	sltiu	v0,1
600a69d8:	610b      	btnez	600a69f0 <fmengine_get_stereo+0x3c>
600a69da:	9940      	lw	v0,0(s1)
600a69dc:	9a63      	lw	v1,12(v0)
600a69de:	6a01      	li	v0,1
600a69e0:	c340      	sb	v0,0(v1)
600a69e2:	9940      	lw	v0,0(s1)
600a69e4:	9a43      	lw	v0,12(v0)
600a69e6:	9a61      	lw	v1,4(v0)
600a69e8:	b20a      	lw	v0,600a6a10 <fmengine_get_stereo+0x5c>
600a69ea:	a246      	lbu	v0,6(v0)
600a69ec:	c340      	sb	v0,0(v1)
600a69ee:	1004      	b	600a69f8 <fmengine_get_stereo+0x44>
600a69f0:	9940      	lw	v0,0(s1)
600a69f2:	9a63      	lw	v1,12(v0)
600a69f4:	6a02      	li	v0,2
600a69f6:	c340      	sb	v0,0(v1)
600a69f8:	9944      	lw	v0,16(s1)
600a69fa:	6782      	move	a0,v0
600a69fc:	b206      	lw	v0,600a6a14 <fmengine_get_stereo+0x60>
600a69fe:	eac0      	jalrc	v0
600a6a00:	6a01      	li	v0,1
600a6a02:	65b9      	move	sp,s1
600a6a04:	6452      	restore	16,ra,s1
600a6a06:	e8a0      	jrc	ra
600a6a08:	958e      	lw	a1,568(sp)
600a6a0a:	9fc1      	lw	a2,4(a3)
600a6a0c:	6009      	bteqz	600a6a20 <fmengine_get_playflag+0x8>
600a6a0e:	bfc2      	lwu	a2,8(a3)
600a6a10:	9588      	lw	a1,544(sp)
600a6a12:	9fc1      	lw	a2,4(a3)
600a6a14:	6019      	bteqz	600a6a48 <fmengine_get_playflag+0x30>
600a6a16:	bfc2      	lwu	a2,8(a3)

600a6a18 <fmengine_get_playflag>:
600a6a18:	64d4      	save	32,ra,s1
600a6a1a:	0104      	addiu	s1,sp,16
600a6a1c:	d984      	sw	a0,16(s1)
600a6a1e:	9944      	lw	v0,16(s1)
600a6a20:	d940      	sw	v0,0(s1)
600a6a22:	9940      	lw	v0,0(s1)
600a6a24:	9a43      	lw	v0,12(v0)
600a6a26:	9a61      	lw	v1,4(v0)
600a6a28:	b208      	lw	v0,600a6a48 <fmengine_get_playflag+0x30>
600a6a2a:	a248      	lbu	v0,8(v0)
600a6a2c:	c340      	sb	v0,0(v1)
600a6a2e:	9940      	lw	v0,0(s1)
600a6a30:	9a63      	lw	v1,12(v0)
600a6a32:	6a01      	li	v0,1
600a6a34:	c340      	sb	v0,0(v1)
600a6a36:	9944      	lw	v0,16(s1)
600a6a38:	6782      	move	a0,v0
600a6a3a:	b205      	lw	v0,600a6a4c <fmengine_get_playflag+0x34>
600a6a3c:	eac0      	jalrc	v0
600a6a3e:	6a01      	li	v0,1
600a6a40:	65b9      	move	sp,s1
600a6a42:	6452      	restore	16,ra,s1
600a6a44:	e8a0      	jrc	ra
600a6a46:	0000      	addiu	s0,sp,0
600a6a48:	9588      	lw	a1,544(sp)
600a6a4a:	9fc1      	lw	a2,4(a3)
600a6a4c:	6019      	bteqz	600a6a80 <fmengine_get_modual_status+0x30>
600a6a4e:	bfc2      	lwu	a2,8(a3)

600a6a50 <fmengine_get_modual_status>:
600a6a50:	64d4      	save	32,ra,s1
600a6a52:	0104      	addiu	s1,sp,16
600a6a54:	d984      	sw	a0,16(s1)
600a6a56:	9944      	lw	v0,16(s1)
600a6a58:	d940      	sw	v0,0(s1)
600a6a5a:	9940      	lw	v0,0(s1)
600a6a5c:	9a43      	lw	v0,12(v0)
600a6a5e:	9a61      	lw	v1,4(v0)
600a6a60:	b208      	lw	v0,600a6a80 <fmengine_get_modual_status+0x30>
600a6a62:	a240      	lbu	v0,0(v0)
600a6a64:	c340      	sb	v0,0(v1)
600a6a66:	9940      	lw	v0,0(s1)
600a6a68:	9a63      	lw	v1,12(v0)
600a6a6a:	6a01      	li	v0,1
600a6a6c:	c340      	sb	v0,0(v1)
600a6a6e:	9944      	lw	v0,16(s1)
600a6a70:	6782      	move	a0,v0
600a6a72:	b205      	lw	v0,600a6a84 <fmengine_get_modual_status+0x34>
600a6a74:	eac0      	jalrc	v0
600a6a76:	6a01      	li	v0,1
600a6a78:	65b9      	move	sp,s1
600a6a7a:	6452      	restore	16,ra,s1
600a6a7c:	e8a0      	jrc	ra
600a6a7e:	0000      	addiu	s0,sp,0
600a6a80:	95a8      	lw	a1,672(sp)
600a6a82:	9fc1      	lw	a2,4(a3)
600a6a84:	6019      	bteqz	600a6ab8 <fmengine_get_modual_status+0x68>
600a6a86:	bfc2      	lwu	a2,8(a3)
Disassembly of section BANK_CONTROL_1_3:

600e6800 <fmengine_load_cfg>:
600e6800:	64f4      	save	32,ra,s0-s1
600e6802:	0104      	addiu	s1,sp,16
600e6804:	b218      	lw	v0,600e6864 <fmengine_load_cfg+0x64>
600e6806:	b319      	lw	v1,600e6868 <fmengine_load_cfg+0x68>
600e6808:	6782      	move	a0,v0
600e680a:	67a3      	move	a1,v1
600e680c:	6e14      	li	a2,20
600e680e:	6f12      	li	a3,18
600e6810:	b217      	lw	v0,600e686c <fmengine_load_cfg+0x6c>
600e6812:	eac0      	jalrc	v0
600e6814:	b214      	lw	v0,600e6860 <fmengine_load_cfg+0x60>
600e6816:	aa40      	lhu	v0,0(v0)
600e6818:	f5aa 7215 	cmpi	v0,21941
600e681c:	6758      	move	v0,t8
600e681e:	5a01      	sltiu	v0,1
600e6820:	6111      	btnez	600e6844 <fmengine_load_cfg+0x44>
600e6822:	b311      	lw	v1,600e6864 <fmengine_load_cfg+0x64>
600e6824:	f5aa 6a15 	li	v0,21941
600e6828:	cb40      	sh	v0,0(v1)
600e682a:	b00f      	lw	s0,600e6864 <fmengine_load_cfg+0x64>
600e682c:	6cdc      	li	a0,220
600e682e:	b211      	lw	v0,600e6870 <fmengine_load_cfg+0x70>
600e6830:	eac0      	jalrc	v0
600e6832:	c042      	sb	v0,2(s0)
600e6834:	b20c      	lw	v0,600e6864 <fmengine_load_cfg+0x64>
600e6836:	b30d      	lw	v1,600e6868 <fmengine_load_cfg+0x68>
600e6838:	6782      	move	a0,v0
600e683a:	67a3      	move	a1,v1
600e683c:	6e14      	li	a2,20
600e683e:	6f13      	li	a3,19
600e6840:	b20b      	lw	v0,600e686c <fmengine_load_cfg+0x6c>
600e6842:	eac0      	jalrc	v0
600e6844:	b00c      	lw	s0,600e6870 <fmengine_load_cfg+0x70>
600e6846:	6cdd      	li	a0,221
600e6848:	b20a      	lw	v0,600e6870 <fmengine_load_cfg+0x70>
600e684a:	eac0      	jalrc	v0
600e684c:	c040      	sb	v0,0(s0)
600e684e:	b00b      	lw	s0,600e6878 <fmengine_load_cfg+0x78>
600e6850:	f1a0 6a07 	li	v0,423
600e6854:	6782      	move	a0,v0
600e6856:	b207      	lw	v0,600e6870 <fmengine_load_cfg+0x70>
600e6858:	eac0      	jalrc	v0
600e685a:	c040      	sb	v0,0(s0)
600e685c:	65b9      	move	sp,s1
600e685e:	6472      	restore	16,ra,s0-s1
600e6860:	e8a0      	jrc	ra
600e6862:	0000      	addiu	s0,sp,0
600e6864:	9594      	lw	a1,592(sp)
600e6866:	9fc1      	lw	a2,4(a3)
600e6868:	0000      	addiu	s0,sp,0
600e686a:	000b      	addiu	s0,sp,44
600e686c:	6015      	bteqz	600e6898 <fmengine_save_cfg+0x1c>
600e686e:	bfc2      	lwu	a2,8(a3)
600e6870:	68bd      	li	s0,189
600e6872:	60a6      	bteqz	600e67c0 <fmengine_get_modual_status+0x3fd70>
600e6874:	95d1      	lw	a1,836(sp)
600e6876:	9fc1      	lw	a2,4(a3)
600e6878:	9584      	lw	a1,528(sp)
600e687a:	9fc1      	lw	a2,4(a3)

600e687c <fmengine_save_cfg>:
600e687c:	64d3      	save	24,ra,s1
600e687e:	0104      	addiu	s1,sp,16
600e6880:	b206      	lw	v0,600e6898 <fmengine_save_cfg+0x1c>
600e6882:	b307      	lw	v1,600e689c <fmengine_save_cfg+0x20>
600e6884:	6782      	move	a0,v0
600e6886:	67a3      	move	a1,v1
600e6888:	6e14      	li	a2,20
600e688a:	6f13      	li	a3,19
600e688c:	b205      	lw	v0,600e68a0 <fmengine_save_cfg+0x24>
600e688e:	eac0      	jalrc	v0
600e6890:	65b9      	move	sp,s1
600e6892:	6451      	restore	8,ra,s1
600e6894:	e8a0      	jrc	ra
600e6896:	0000      	addiu	s0,sp,0
600e6898:	9594      	lw	a1,592(sp)
600e689a:	9fc1      	lw	a2,4(a3)
600e689c:	0000      	addiu	s0,sp,0
600e689e:	000b      	addiu	s0,sp,44
600e68a0:	6015      	bteqz	600e68cc <_set_ainout_param+0x28>
600e68a2:	bfc2      	lwu	a2,8(a3)

600e68a4 <_set_ainout_param>:
600e68a4:	64f4      	save	32,ra,s0-s1
600e68a6:	0104      	addiu	s1,sp,16
600e68a8:	b312      	lw	v1,600e68f0 <_set_ainout_param+0x4c>
600e68aa:	6a00      	li	v0,0
600e68ac:	db40      	sw	v0,0(v1)
600e68ae:	b311      	lw	v1,600e68f0 <_set_ainout_param+0x4c>
600e68b0:	6a17      	li	v0,23
600e68b2:	db41      	sw	v0,4(v1)
600e68b4:	b30f      	lw	v1,600e68f0 <_set_ainout_param+0x4c>
600e68b6:	6a30      	li	v0,48
600e68b8:	db42      	sw	v0,8(v1)
600e68ba:	b30e      	lw	v1,600e68f0 <_set_ainout_param+0x4c>
600e68bc:	6a01      	li	v0,1
600e68be:	db43      	sw	v0,12(v1)
600e68c0:	b30c      	lw	v1,600e68f0 <_set_ainout_param+0x4c>
600e68c2:	6a03      	li	v0,3
600e68c4:	db44      	sw	v0,16(v1)
600e68c6:	b30b      	lw	v1,600e68f0 <_set_ainout_param+0x4c>
600e68c8:	6a30      	li	v0,48
600e68ca:	db45      	sw	v0,20(v1)
600e68cc:	b309      	lw	v1,600e68f0 <_set_ainout_param+0x4c>
600e68ce:	6a00      	li	v0,0
600e68d0:	db46      	sw	v0,24(v1)
600e68d2:	b008      	lw	s0,600e68f0 <_set_ainout_param+0x4c>
600e68d4:	6cde      	li	a0,222
600e68d6:	b208      	lw	v0,600e68f4 <_set_ainout_param+0x50>
600e68d8:	eac0      	jalrc	v0
600e68da:	ea11      	zeb	v0
600e68dc:	d848      	sw	v0,32(s0)
600e68de:	b005      	lw	s0,600e68f0 <_set_ainout_param+0x4c>
600e68e0:	6cdf      	li	a0,223
600e68e2:	b205      	lw	v0,600e68f4 <_set_ainout_param+0x50>
600e68e4:	eac0      	jalrc	v0
600e68e6:	ea11      	zeb	v0
600e68e8:	d847      	sw	v0,28(s0)
600e68ea:	65b9      	move	sp,s1
600e68ec:	6472      	restore	16,ra,s0-s1
600e68ee:	e8a0      	jrc	ra
600e68f0:	95ac      	lw	a1,688(sp)
600e68f2:	9fc1      	lw	a2,4(a3)
600e68f4:	68bd      	li	s0,189
600e68f6:	60a6      	bteqz	600e6844 <fmengine_load_cfg+0x44>

600e68f8 <get_fm_init_param>:
600e68f8:	64f4      	save	32,ra,s0-s1
600e68fa:	0104      	addiu	s1,sp,16
600e68fc:	d984      	sw	a0,16(s1)
600e68fe:	9904      	lw	s0,16(s1)
600e6900:	6ce0      	li	a0,224
600e6902:	b210      	lw	v0,600e6940 <get_fm_init_param+0x48>
600e6904:	eac0      	jalrc	v0
600e6906:	c040      	sb	v0,0(s0)
600e6908:	9904      	lw	s0,16(s1)
600e690a:	6ce1      	li	a0,225
600e690c:	b20d      	lw	v0,600e6940 <get_fm_init_param+0x48>
600e690e:	eac0      	jalrc	v0
600e6910:	c041      	sb	v0,1(s0)
600e6912:	0c08      	la	a0,600e6930 <get_fm_init_param+0x38>
600e6914:	9944      	lw	v0,16(s1)
600e6916:	a240      	lbu	v0,0(v0)
600e6918:	3340      	sll	v1,v0,8
600e691a:	9944      	lw	v0,16(s1)
600e691c:	a241      	lbu	v0,1(v0)
600e691e:	e349      	addu	v0,v1,v0
600e6920:	67a2      	move	a1,v0
600e6922:	6e02      	li	a2,2
600e6924:	6f4b      	li	a3,75
600e6926:	b208      	lw	v0,600e6944 <get_fm_init_param+0x4c>
600e6928:	eac0      	jalrc	v0
600e692a:	65b9      	move	sp,s1
600e692c:	6472      	restore	16,ra,s0-s1
600e692e:	e8a0      	jrc	ra
600e6930:	6d66      	li	a1,102
600e6932:	692d      	li	s1,45
600e6934:	696e      	li	s1,110
600e6936:	2d74      	bnez	a1,600e6a20 <fmengine_init+0xd8>
600e6938:	6170      	btnez	600e6a1a <fmengine_init+0xd2>
600e693a:	6d72      	li	a1,114
600e693c:	003a      	addiu	s0,sp,232
600e693e:	0000      	addiu	s0,sp,0
600e6940:	68bd      	li	s0,189
600e6942:	60a6      	bteqz	600e6890 <fmengine_save_cfg+0x14>
600e6944:	6015      	bteqz	600e6970 <fmengine_init+0x28>
600e6946:	bfc2      	lwu	a2,8(a3)

600e6948 <fmengine_init>:
600e6948:	64f7      	save	56,ra,s0-s1
600e694a:	0104      	addiu	s1,sp,16
600e694c:	6a00      	li	v0,0
600e694e:	d940      	sw	v0,0(s1)
600e6950:	0a2b      	la	v0,600e69fc <fmengine_init+0xb4>
600e6952:	d944      	sw	v0,16(s1)
600e6954:	6c12      	li	a0,18
600e6956:	6d02      	li	a1,2
600e6958:	b236      	lw	v0,600e6a30 <fmengine_init+0xe8>
600e695a:	eac0      	jalrc	v0
600e695c:	6c06      	li	a0,6
600e695e:	6d08      	li	a1,8
600e6960:	6e00      	li	a2,0
600e6962:	6f03      	li	a3,3
600e6964:	b234      	lw	v0,600e6a34 <fmengine_init+0xec>
600e6966:	eac0      	jalrc	v0
600e6968:	1860 9a00 	jal	600e6800 <fmengine_load_cfg>
600e696c:	6500      	nop
600e696e:	4147      	addiu	v0,s1,7
600e6970:	4241      	addiu	v0,v0,1
600e6972:	6782      	move	a0,v0
600e6974:	1860 9a3e 	jal	600e68f8 <get_fm_init_param>
600e6978:	6500      	nop
600e697a:	b230      	lw	v0,600e6a38 <fmengine_init+0xf0>
600e697c:	eac0      	jalrc	v0
600e697e:	4147      	addiu	v0,s1,7
600e6980:	4241      	addiu	v0,v0,1
600e6982:	0b22      	la	v1,600e6a08 <fmengine_init+0xc0>
600e6984:	6c07      	li	a0,7
600e6986:	67a2      	move	a1,v0
600e6988:	67c3      	move	a2,v1
600e698a:	6f0a      	li	a3,10
600e698c:	b22c      	lw	v0,600e6a3c <fmengine_init+0xf4>
600e698e:	eac0      	jalrc	v0
600e6990:	d940      	sw	v0,0(s1)
600e6992:	9940      	lw	v0,0(s1)
600e6994:	2a03      	bnez	v0,600e699c <fmengine_init+0x54>
600e6996:	b32b      	lw	v1,600e6a40 <fmengine_init+0xf8>
600e6998:	6a00      	li	v0,0
600e699a:	c340      	sb	v0,0(v1)
600e699c:	b22a      	lw	v0,600e6a44 <fmengine_init+0xfc>
600e699e:	a240      	lbu	v0,0(v0)
600e69a0:	7201      	cmpi	v0,1
600e69a2:	6758      	move	v0,t8
600e69a4:	5a01      	sltiu	v0,1
600e69a6:	600a      	bteqz	600e69bc <fmengine_init+0x74>
600e69a8:	9944      	lw	v0,16(s1)
600e69aa:	6782      	move	a0,v0
600e69ac:	6d01      	li	a1,1
600e69ae:	6e00      	li	a2,0
600e69b0:	6f02      	li	a3,2
600e69b2:	b223      	lw	v0,600e6a3c <fmengine_init+0xf4>
600e69b4:	eac0      	jalrc	v0
600e69b6:	1860 9a29 	jal	600e68a4 <_set_ainout_param>
600e69ba:	6500      	nop
600e69bc:	6c06      	li	a0,6
600e69be:	6d02      	li	a1,2
600e69c0:	6e00      	li	a2,0
600e69c2:	6f03      	li	a3,3
600e69c4:	b21c      	lw	v0,600e6a34 <fmengine_init+0xec>
600e69c6:	eac0      	jalrc	v0
600e69c8:	b020      	lw	s0,600e6a44 <fmengine_init+0xfc>
600e69ca:	6c03      	li	a0,3
600e69cc:	6d00      	li	a1,0
600e69ce:	6e00      	li	a2,0
600e69d0:	6f49      	li	a3,73
600e69d2:	b21b      	lw	v0,600e6a3c <fmengine_init+0xf4>
600e69d4:	eac0      	jalrc	v0
600e69d6:	d840      	sw	v0,0(s0)
600e69d8:	b21c      	lw	v0,600e6a48 <fmengine_init+0x100>
600e69da:	9a40      	lw	v0,0(v0)
600e69dc:	2a08      	bnez	v0,600e69ee <fmengine_init+0xa6>
600e69de:	0a0e      	la	v0,600e6a14 <fmengine_init+0xcc>
600e69e0:	6782      	move	a0,v0
600e69e2:	6d00      	li	a1,0
600e69e4:	6e00      	li	a2,0
600e69e6:	6f4b      	li	a3,75
600e69e8:	b215      	lw	v0,600e6a3c <fmengine_init+0xf4>
600e69ea:	eac0      	jalrc	v0
600e69ec:	17ff      	b	600e69ec <fmengine_init+0xa4>
600e69ee:	9940      	lw	v0,0(s1)
600e69f0:	651a      	move	t8,v0
600e69f2:	6758      	move	v0,t8
600e69f4:	65b9      	move	sp,s1
600e69f6:	6475      	restore	40,ra,s0-s1
600e69f8:	e8a0      	jrc	ra
600e69fa:	0000      	addiu	s0,sp,0
600e69fc:	6d6d      	li	a1,109
600e69fe:	5f6d      	sltiu	a3,109
600e6a00:	7070      	cmpi	s0,112
600e6a02:	612e      	btnez	600e6a60 <fmengine_deinit+0x14>
600e6a04:	006c      	addiu	s0,sp,432
600e6a06:	0000      	addiu	s0,sp,0
600e6a08:	7264      	cmpi	v0,100
600e6a0a:	5f76      	sltiu	a3,118
600e6a0c:	6d66      	li	a1,102
600e6a0e:	642e      	restore	112,s0
600e6a10:	7672      	cmpi	a2,114
600e6a12:	0000      	addiu	s0,sp,0
600e6a14:	453c      	daddiu	s1,a1,-4
600e6a16:	203e      	beqz	s0,600e6a94 <fmengine_deinit+0x48>
600e6a18:	6164      	btnez	600e6ae2 <main+0x26>
600e6a1a:	5f65      	sltiu	a3,101
600e6a1c:	6663      	0x6663
600e6a1e:	2067      	beqz	s0,600e6aee <main+0x32>
600e6a20:	6873      	li	s0,115
600e6a22:	206d      	beqz	s0,600e6afe <change_engine_state+0x6>
600e6a24:	6f6e      	li	a3,110
600e6a26:	2074      	beqz	s0,600e6b10 <change_engine_state+0x18>
600e6a28:	7865      	sd	v1,40(s0)
600e6a2a:	7369      	cmpi	v1,105
600e6a2c:	2174      	beqz	s1,600e6b16 <change_engine_state+0x1e>
600e6a2e:	0021      	addiu	s0,sp,132
600e6a30:	6861      	li	s0,97
600e6a32:	60a2      	bteqz	600e6978 <fmengine_init+0x30>
600e6a34:	600d      	bteqz	600e6a50 <fmengine_deinit+0x4>
600e6a36:	bfc2      	lwu	a2,8(a3)
600e6a38:	6cc9      	li	a0,201
600e6a3a:	60a2      	bteqz	600e6980 <fmengine_init+0x38>
600e6a3c:	6015      	bteqz	600e6a68 <fmengine_deinit+0x1c>
600e6a3e:	bfc2      	lwu	a2,8(a3)
600e6a40:	95a8      	lw	a1,672(sp)
600e6a42:	9fc1      	lw	a2,4(a3)
600e6a44:	95d1      	lw	a1,836(sp)
600e6a46:	9fc1      	lw	a2,4(a3)
600e6a48:	95d4      	lw	a1,848(sp)
600e6a4a:	9fc1      	lw	a2,4(a3)

600e6a4c <fmengine_deinit>:
600e6a4c:	64d3      	save	24,ra,s1
600e6a4e:	0104      	addiu	s1,sp,16
600e6a50:	6c06      	li	a0,6
600e6a52:	6d08      	li	a1,8
600e6a54:	6e00      	li	a2,0
600e6a56:	6f03      	li	a3,3
600e6a58:	b215      	lw	v0,600e6aac <fmengine_deinit+0x60>
600e6a5a:	eac0      	jalrc	v0
600e6a5c:	b215      	lw	v0,600e6aac <fmengine_deinit+0x60>
600e6a5e:	a240      	lbu	v0,0(v0)
600e6a60:	7201      	cmpi	v0,1
600e6a62:	6758      	move	v0,t8
600e6a64:	5a01      	sltiu	v0,1
600e6a66:	600c      	bteqz	600e6a80 <fmengine_deinit+0x34>
600e6a68:	6c03      	li	a0,3
600e6a6a:	6d00      	li	a1,0
600e6a6c:	6e00      	li	a2,0
600e6a6e:	6f03      	li	a3,3
600e6a70:	b20f      	lw	v0,600e6aac <fmengine_deinit+0x60>
600e6a72:	eac0      	jalrc	v0
600e6a74:	6c01      	li	a0,1
600e6a76:	6d00      	li	a1,0
600e6a78:	6e00      	li	a2,0
600e6a7a:	6f06      	li	a3,6
600e6a7c:	b20e      	lw	v0,600e6ab4 <fmengine_deinit+0x68>
600e6a7e:	eac0      	jalrc	v0
600e6a80:	1860 9a1f 	jal	600e687c <fmengine_save_cfg>
600e6a84:	6500      	nop
600e6a86:	6c07      	li	a0,7
600e6a88:	6d00      	li	a1,0
600e6a8a:	6e00      	li	a2,0
600e6a8c:	6f0b      	li	a3,11
600e6a8e:	b20a      	lw	v0,600e6ab4 <fmengine_deinit+0x68>
600e6a90:	eac0      	jalrc	v0
600e6a92:	6c06      	li	a0,6
600e6a94:	6d02      	li	a1,2
600e6a96:	6e00      	li	a2,0
600e6a98:	6f03      	li	a3,3
600e6a9a:	b205      	lw	v0,600e6aac <fmengine_deinit+0x60>
600e6a9c:	eac0      	jalrc	v0
600e6a9e:	b207      	lw	v0,600e6ab8 <fmengine_deinit+0x6c>
600e6aa0:	eac0      	jalrc	v0
600e6aa2:	6a01      	li	v0,1
600e6aa4:	65b9      	move	sp,s1
600e6aa6:	6451      	restore	8,ra,s1
600e6aa8:	e8a0      	jrc	ra
600e6aaa:	0000      	addiu	s0,sp,0
600e6aac:	600d      	bteqz	600e6ac8 <main+0xc>
600e6aae:	bfc2      	lwu	a2,8(a3)
600e6ab0:	95d1      	lw	a1,836(sp)
600e6ab2:	9fc1      	lw	a2,4(a3)
600e6ab4:	6015      	bteqz	600e6ae0 <main+0x24>
600e6ab6:	bfc2      	lwu	a2,8(a3)
600e6ab8:	6951      	li	s1,81
600e6aba:	60a2      	bteqz	600e6a00 <fmengine_init+0xb8>

600e6abc <main>:
600e6abc:	64d4      	save	32,ra,s1
600e6abe:	0104      	addiu	s1,sp,16
600e6ac0:	d984      	sw	a0,16(s1)
600e6ac2:	d9a5      	sw	a1,20(s1)
600e6ac4:	6a00      	li	v0,0
600e6ac6:	c940      	sh	v0,0(s1)
600e6ac8:	1860 9a52 	jal	600e6948 <fmengine_init>
600e6acc:	6500      	nop
600e6ace:	651a      	move	t8,v0
600e6ad0:	6107      	btnez	600e6ae0 <main+0x24>
600e6ad2:	6c01      	li	a0,1
600e6ad4:	1860 9abe 	jal	600e6af8 <change_engine_state>
600e6ad8:	6500      	nop
600e6ada:	b207      	lw	v0,600e6af4 <main+0x38>
600e6adc:	eac0      	jalrc	v0
600e6ade:	c940      	sh	v0,0(s1)
600e6ae0:	1860 9a93 	jal	600e6a4c <fmengine_deinit>
600e6ae4:	6500      	nop
600e6ae6:	a940      	lhu	v0,0(s1)
600e6ae8:	651a      	move	t8,v0
600e6aea:	6758      	move	v0,t8
600e6aec:	65b9      	move	sp,s1
600e6aee:	6452      	restore	16,ra,s1
600e6af0:	e8a0      	jrc	ra
600e6af2:	0000      	addiu	s0,sp,0
600e6af4:	60fd      	bteqz	600e6af0 <main+0x34>
600e6af6:	bfc2      	lwu	a2,8(a3)

600e6af8 <change_engine_state>:
600e6af8:	6491      	save	8,s1
600e6afa:	673d      	move	s1,sp
600e6afc:	6744      	move	v0,a0
600e6afe:	c148      	sb	v0,8(s1)
600e6b00:	b303      	lw	v1,600e6b0c <change_engine_state+0x14>
600e6b02:	a148      	lbu	v0,8(s1)
600e6b04:	c341      	sb	v0,1(v1)
600e6b06:	65b9      	move	sp,s1
600e6b08:	6411      	restore	8,s1
600e6b0a:	e8a0      	jrc	ra
600e6b0c:	a094      	lbu	a0,20(s0)
600e6b0e:	9fc1      	lw	a2,4(a3)
Disassembly of section BANK_CONTROL_1_4:

60126800 <play>:
60126800:	64d4      	save	32,ra,s1
60126802:	0104      	addiu	s1,sp,16
60126804:	b229      	lw	v0,601268a8 <play+0xa8>
60126806:	a240      	lbu	v0,0(v0)
60126808:	7201      	cmpi	v0,1
6012680a:	6758      	move	v0,t8
6012680c:	5a01      	sltiu	v0,1
6012680e:	6003      	bteqz	60126816 <play+0x16>
60126810:	6a01      	li	v0,1
60126812:	d941      	sw	v0,4(s1)
60126814:	1044      	b	6012689e <play+0x9e>
60126816:	f200 6a05 	li	v0,517
6012681a:	6c03      	li	a0,3
6012681c:	67a2      	move	a1,v0
6012681e:	6e00      	li	a2,0
60126820:	6f03      	li	a3,3
60126822:	b223      	lw	v0,601268ac <play+0xac>
60126824:	eac0      	jalrc	v0
60126826:	b223      	lw	v0,601268b0 <play+0xb0>
60126828:	9a40      	lw	v0,0(v0)
6012682a:	a256      	lbu	v0,22(v0)
6012682c:	6c00      	li	a0,0
6012682e:	67a2      	move	a1,v0
60126830:	6e01      	li	a2,1
60126832:	6f03      	li	a3,3
60126834:	b21e      	lw	v0,601268ac <play+0xac>
60126836:	eac0      	jalrc	v0
60126838:	6c03      	li	a0,3
6012683a:	b21f      	lw	v0,601268b4 <play+0xb4>
6012683c:	eac0      	jalrc	v0
6012683e:	b21f      	lw	v0,601268b8 <play+0xb8>
60126840:	6782      	move	a0,v0
60126842:	6d00      	li	a1,0
60126844:	6e00      	li	a2,0
60126846:	b21e      	lw	v0,601268bc <play+0xbc>
60126848:	eac0      	jalrc	v0
6012684a:	b21c      	lw	v0,601268b8 <play+0xb8>
6012684c:	9a40      	lw	v0,0(v0)
6012684e:	b31d      	lw	v1,601268c0 <play+0xc0>
60126850:	6782      	move	a0,v0
60126852:	6d02      	li	a1,2
60126854:	67c3      	move	a2,v1
60126856:	b21a      	lw	v0,601268bc <play+0xbc>
60126858:	eac0      	jalrc	v0
6012685a:	b218      	lw	v0,601268b8 <play+0xb8>
6012685c:	9a60      	lw	v1,0(v0)
6012685e:	b21a      	lw	v0,601268c4 <play+0xc4>
60126860:	a240      	lbu	v0,0(v0)
60126862:	6783      	move	a0,v1
60126864:	6d17      	li	a1,23
60126866:	67c2      	move	a2,v0
60126868:	b215      	lw	v0,601268bc <play+0xbc>
6012686a:	eac0      	jalrc	v0
6012686c:	b213      	lw	v0,601268b4 <play+0xb4>
6012686e:	9a40      	lw	v0,0(v0)
60126870:	6782      	move	a0,v0
60126872:	6d0b      	li	a1,11
60126874:	6e00      	li	a2,0
60126876:	b212      	lw	v0,601268bc <play+0xbc>
60126878:	eac0      	jalrc	v0
6012687a:	d940      	sw	v0,0(s1)
6012687c:	b20f      	lw	v0,601268b8 <play+0xb8>
6012687e:	9a40      	lw	v0,0(v0)
60126880:	b312      	lw	v1,601268c8 <play+0xc8>
60126882:	6782      	move	a0,v0
60126884:	6d16      	li	a1,22
60126886:	67c3      	move	a2,v1
60126888:	b20d      	lw	v0,601268bc <play+0xbc>
6012688a:	eac0      	jalrc	v0
6012688c:	b310      	lw	v1,601268c8 <play+0xc8>
6012688e:	6a01      	li	v0,1
60126890:	c34a      	sb	v0,10(v1)
60126892:	b306      	lw	v1,601268a8 <play+0xa8>
60126894:	6a01      	li	v0,1
60126896:	c340      	sb	v0,0(v1)
60126898:	9940      	lw	v0,0(s1)
6012689a:	ea11      	zeb	v0
6012689c:	d941      	sw	v0,4(s1)
6012689e:	9941      	lw	v0,4(s1)
601268a0:	65b9      	move	sp,s1
601268a2:	6452      	restore	16,ra,s1
601268a4:	e8a0      	jrc	ra
601268a6:	0000      	addiu	s0,sp,0
601268a8:	95d8      	lw	a1,864(sp)
601268aa:	9fc1      	lw	a2,4(a3)
601268ac:	600d      	bteqz	601268c8 <play+0xc8>
601268ae:	bfc2      	lwu	a2,8(a3)
601268b0:	95d4      	lw	a1,848(sp)
601268b2:	9fc1      	lw	a2,4(a3)
601268b4:	691d      	li	s1,29
601268b6:	60a6      	bteqz	60126804 <play+0x4>
601268b8:	9580      	lw	a1,512(sp)
601268ba:	9fc1      	lw	a2,4(a3)
601268bc:	6005      	bteqz	601268c8 <play+0xc8>
601268be:	bfc2      	lwu	a2,8(a3)
601268c0:	95ac      	lw	a1,688(sp)
601268c2:	9fc1      	lw	a2,4(a3)
601268c4:	9584      	lw	a1,528(sp)
601268c6:	9fc1      	lw	a2,4(a3)
601268c8:	a0a0      	lbu	a1,0(s0)
601268ca:	9fc1      	lw	a2,4(a3)
601268cc:	a094      	lbu	a0,20(s0)
601268ce:	9fc1      	lw	a2,4(a3)

601268d0 <stop>:
601268d0:	64d5      	save	40,ra,s1
601268d2:	0104      	addiu	s1,sp,16
601268d4:	6a01      	li	v0,1
601268d6:	c140      	sb	v0,0(s1)
601268d8:	6a00      	li	v0,0
601268da:	d941      	sw	v0,4(s1)
601268dc:	b21f      	lw	v0,60126958 <stop+0x88>
601268de:	a240      	lbu	v0,0(v0)
601268e0:	7201      	cmpi	v0,1
601268e2:	6758      	move	v0,t8
601268e4:	5a01      	sltiu	v0,1
601268e6:	6103      	btnez	601268ee <stop+0x1e>
601268e8:	a140      	lbu	v0,0(s1)
601268ea:	d942      	sw	v0,8(s1)
601268ec:	1031      	b	60126950 <stop+0x80>
601268ee:	b31c      	lw	v1,6012695c <stop+0x8c>
601268f0:	6a00      	li	v0,0
601268f2:	c34a      	sb	v0,10(v1)
601268f4:	b21b      	lw	v0,60126960 <stop+0x90>
601268f6:	9a40      	lw	v0,0(v0)
601268f8:	6782      	move	a0,v0
601268fa:	6d0c      	li	a1,12
601268fc:	6e00      	li	a2,0
601268fe:	b21a      	lw	v0,60126964 <stop+0x94>
60126900:	eac0      	jalrc	v0
60126902:	d941      	sw	v0,4(s1)
60126904:	9941      	lw	v0,4(s1)
60126906:	2202      	beqz	v0,6012690c <stop+0x3c>
60126908:	6a00      	li	v0,0
6012690a:	c140      	sb	v0,0(s1)
6012690c:	b215      	lw	v0,60126960 <stop+0x90>
6012690e:	9a40      	lw	v0,0(v0)
60126910:	6782      	move	a0,v0
60126912:	6d03      	li	a1,3
60126914:	6e00      	li	a2,0
60126916:	b214      	lw	v0,60126964 <stop+0x94>
60126918:	eac0      	jalrc	v0
6012691a:	b310      	lw	v1,60126958 <stop+0x88>
6012691c:	6a00      	li	v0,0
6012691e:	c340      	sb	v0,0(v1)
60126920:	b210      	lw	v0,60126960 <stop+0x90>
60126922:	9a40      	lw	v0,0(v0)
60126924:	6782      	move	a0,v0
60126926:	6d01      	li	a1,1
60126928:	6e00      	li	a2,0
6012692a:	b20f      	lw	v0,60126964 <stop+0x94>
6012692c:	eac0      	jalrc	v0
6012692e:	6c02      	li	a0,2
60126930:	b20e      	lw	v0,60126968 <stop+0x98>
60126932:	eac0      	jalrc	v0
60126934:	6c03      	li	a0,3
60126936:	6d02      	li	a1,2
60126938:	6e00      	li	a2,0
6012693a:	6f03      	li	a3,3
6012693c:	b20c      	lw	v0,6012696c <stop+0x9c>
6012693e:	eac0      	jalrc	v0
60126940:	6c00      	li	a0,0
60126942:	6d00      	li	a1,0
60126944:	6e01      	li	a2,1
60126946:	6f03      	li	a3,3
60126948:	b209      	lw	v0,6012696c <stop+0x9c>
6012694a:	eac0      	jalrc	v0
6012694c:	a140      	lbu	v0,0(s1)
6012694e:	d942      	sw	v0,8(s1)
60126950:	9942      	lw	v0,8(s1)
60126952:	65b9      	move	sp,s1
60126954:	6453      	restore	24,ra,s1
60126956:	e8a0      	jrc	ra
60126958:	95d8      	lw	a1,864(sp)
6012695a:	9fc1      	lw	a2,4(a3)
6012695c:	a094      	lbu	a0,20(s0)
6012695e:	9fc1      	lw	a2,4(a3)
60126960:	9580      	lw	a1,512(sp)
60126962:	9fc1      	lw	a2,4(a3)
60126964:	6005      	bteqz	60126970 <fmengine_play>
60126966:	bfc2      	lwu	a2,8(a3)
60126968:	691d      	li	s1,29
6012696a:	60a6      	bteqz	601268b8 <play+0xb8>
6012696c:	600d      	bteqz	60126988 <fmengine_play+0x18>
6012696e:	bfc2      	lwu	a2,8(a3)

60126970 <fmengine_play>:
60126970:	64d3      	save	24,ra,s1
60126972:	0104      	addiu	s1,sp,16
60126974:	d982      	sw	a0,8(s1)
60126976:	1880 9a00 	jal	60126800 <play>
6012697a:	6500      	nop
6012697c:	9942      	lw	v0,8(s1)
6012697e:	9a63      	lw	v1,12(v0)
60126980:	6a01      	li	v0,1
60126982:	c340      	sb	v0,0(v1)
60126984:	9942      	lw	v0,8(s1)
60126986:	6782      	move	a0,v0
60126988:	b203      	lw	v0,60126994 <fmengine_play+0x24>
6012698a:	eac0      	jalrc	v0
6012698c:	6a01      	li	v0,1
6012698e:	65b9      	move	sp,s1
60126990:	6451      	restore	8,ra,s1
60126992:	e8a0      	jrc	ra
60126994:	6019      	bteqz	601269c8 <fmengine_set_eq+0x8>
60126996:	bfc2      	lwu	a2,8(a3)

60126998 <fmengine_stop>:
60126998:	64d3      	save	24,ra,s1
6012699a:	0104      	addiu	s1,sp,16
6012699c:	d982      	sw	a0,8(s1)
6012699e:	1880 9a34 	jal	601268d0 <stop>
601269a2:	6500      	nop
601269a4:	9942      	lw	v0,8(s1)
601269a6:	9a63      	lw	v1,12(v0)
601269a8:	6a01      	li	v0,1
601269aa:	c340      	sb	v0,0(v1)
601269ac:	9942      	lw	v0,8(s1)
601269ae:	6782      	move	a0,v0
601269b0:	b203      	lw	v0,601269bc <fmengine_stop+0x24>
601269b2:	eac0      	jalrc	v0
601269b4:	6a01      	li	v0,1
601269b6:	65b9      	move	sp,s1
601269b8:	6451      	restore	8,ra,s1
601269ba:	e8a0      	jrc	ra
601269bc:	6019      	bteqz	601269f0 <fmengine_set_eq+0x30>
601269be:	bfc2      	lwu	a2,8(a3)

601269c0 <fmengine_set_eq>:
601269c0:	64d3      	save	24,ra,s1
601269c2:	0104      	addiu	s1,sp,16
601269c4:	d982      	sw	a0,8(s1)
601269c6:	b213      	lw	v0,60126a10 <fmengine_set_eq+0x50>
601269c8:	9a40      	lw	v0,0(v0)
601269ca:	a256      	lbu	v0,22(v0)
601269cc:	6c00      	li	a0,0
601269ce:	67a2      	move	a1,v0
601269d0:	6e01      	li	a2,1
601269d2:	6f03      	li	a3,3
601269d4:	b210      	lw	v0,60126a14 <fmengine_set_eq+0x54>
601269d6:	eac0      	jalrc	v0
601269d8:	b210      	lw	v0,60126a14 <fmengine_set_eq+0x54>
601269da:	a240      	lbu	v0,0(v0)
601269dc:	7201      	cmpi	v0,1
601269de:	6758      	move	v0,t8
601269e0:	5a01      	sltiu	v0,1
601269e2:	600a      	bteqz	601269f8 <fmengine_set_eq+0x38>
601269e4:	b20e      	lw	v0,60126a1c <fmengine_set_eq+0x5c>
601269e6:	9a40      	lw	v0,0(v0)
601269e8:	2207      	beqz	v0,601269f8 <fmengine_set_eq+0x38>
601269ea:	b20d      	lw	v0,60126a1c <fmengine_set_eq+0x5c>
601269ec:	9a40      	lw	v0,0(v0)
601269ee:	6782      	move	a0,v0
601269f0:	6d14      	li	a1,20
601269f2:	6e00      	li	a2,0
601269f4:	b20b      	lw	v0,60126a20 <fmengine_set_eq+0x60>
601269f6:	eac0      	jalrc	v0
601269f8:	9942      	lw	v0,8(s1)
601269fa:	9a63      	lw	v1,12(v0)
601269fc:	6a01      	li	v0,1
601269fe:	c340      	sb	v0,0(v1)
60126a00:	9942      	lw	v0,8(s1)
60126a02:	6782      	move	a0,v0
60126a04:	b208      	lw	v0,60126a24 <fmengine_set_eq+0x64>
60126a06:	eac0      	jalrc	v0
60126a08:	6a01      	li	v0,1
60126a0a:	65b9      	move	sp,s1
60126a0c:	6451      	restore	8,ra,s1
60126a0e:	e8a0      	jrc	ra
60126a10:	95d4      	lw	a1,848(sp)
60126a12:	9fc1      	lw	a2,4(a3)
60126a14:	600d      	bteqz	60126a30 <fmengine_set_eq+0x70>
60126a16:	bfc2      	lwu	a2,8(a3)
60126a18:	95d1      	lw	a1,836(sp)
60126a1a:	9fc1      	lw	a2,4(a3)
60126a1c:	9580      	lw	a1,512(sp)
60126a1e:	9fc1      	lw	a2,4(a3)
60126a20:	6005      	bteqz	60126a2c <fmengine_set_eq+0x6c>
60126a22:	bfc2      	lwu	a2,8(a3)
60126a24:	6019      	bteqz	60126a58 <fmengine_set_eq+0x98>
60126a26:	bfc2      	lwu	a2,8(a3)
Disassembly of section APPLIB_GLOBAL_DATA:

9fc1a080 <g_app_info_vector>:
	...

9fc1a090 <config_fp>:
9fc1a090:	00000000 	nop

9fc1a094 <g_app_info_state_all>:
	...

9fc1a0b0 <g_customer_state>:
9fc1a0b0:	00000000 	nop

9fc1a0b4 <g_neednot_tts_play_timeout1>:
	...
Disassembly of section BANK_CONTROL_1_40:

60a26800 <get_engine_type_by_appid>:
60a26800:	b609      	lw	a2,60a26824 <get_engine_type_by_appid+0x24>
60a26802:	ec11      	zeb	a0
60a26804:	6d00      	li	a1,0
60a26806:	37a4      	sll	a3,a1,1
60a26808:	e7cd      	addu	v1,a3,a2
60a2680a:	a340      	lbu	v0,0(v1)
60a2680c:	ea8e      	xor	v0,a0
60a2680e:	2a02      	bnez	v0,60a26814 <get_engine_type_by_appid+0x14>
60a26810:	e820      	jr	ra
60a26812:	a341      	lbu	v0,1(v1)
60a26814:	4561      	addiu	v1,a1,1
60a26816:	67a3      	move	a1,v1
60a26818:	ed11      	zeb	a1
60a2681a:	5d06      	sltiu	a1,6
60a2681c:	61f4      	btnez	60a26806 <get_engine_type_by_appid+0x6>
60a2681e:	e820      	jr	ra
60a26820:	6a00      	li	v0,0
60a26822:	0000      	addiu	s0,sp,0
60a26824:	6854      	li	s0,84
60a26826:	60a2      	bteqz	60a2676c <fmengine_set_eq+0x8ffdac>

60a26828 <get_engine_appid_by_type>:
60a26828:	ec11      	zeb	a0
60a2682a:	6a1b      	li	v0,27
60a2682c:	2c03      	bnez	a0,60a26834 <get_engine_appid_by_type+0xc>
60a2682e:	100f      	b	60a2684e <get_engine_appid_by_type+0x26>
60a26830:	e820      	jr	ra
60a26832:	a340      	lbu	v0,0(v1)
60a26834:	b607      	lw	a2,60a26850 <get_engine_appid_by_type+0x28>
60a26836:	6d00      	li	a1,0
60a26838:	37a4      	sll	a3,a1,1
60a2683a:	e7cd      	addu	v1,a3,a2
60a2683c:	a341      	lbu	v0,1(v1)
60a2683e:	ea8e      	xor	v0,a0
60a26840:	22f7      	beqz	v0,60a26830 <get_engine_appid_by_type+0x8>
60a26842:	4561      	addiu	v1,a1,1
60a26844:	67a3      	move	a1,v1
60a26846:	ed11      	zeb	a1
60a26848:	5d06      	sltiu	a1,6
60a2684a:	61f6      	btnez	60a26838 <get_engine_appid_by_type+0x10>
60a2684c:	6a1b      	li	v0,27
60a2684e:	e8a0      	jrc	ra
60a26850:	6854      	li	s0,84
60a26852:	60a2      	bteqz	60a26798 <fmengine_set_eq+0x8ffdd8>

60a26854 <applib_app2eg_type>:
60a26854:	0212010e 	0x212010e
60a26858:	0410030f 	bltzal	zero,60a27498 <applib_message_init+0x7d0>
60a2685c:	06130511 	bgezall	s0,60a27ca4 <applib_message_init+0xfdc>

60a26860 <applib_init>:
60a26860:	64f5      	save	40,ra,s0-s1
60a26862:	ec11      	zeb	a0
60a26864:	6705      	move	s0,a1
60a26866:	5c1b      	sltiu	a0,27
60a26868:	d404      	sw	a0,16(sp)
60a2686a:	e811      	zeb	s0
60a2686c:	6a00      	li	v0,0
60a2686e:	6056      	bteqz	60a2691c <applib_init+0xbc>
60a26870:	6b01      	li	v1,1
60a26872:	eb0e      	xor	v1,s0
60a26874:	5b01      	sltiu	v1,1
60a26876:	6758      	move	v0,t8
60a26878:	d205      	sw	v0,20(sp)
60a2687a:	220a      	beqz	v0,60a26890 <applib_init+0x30>
60a2687c:	b12d      	lw	s1,60a26930 <applib_init+0xd0>
60a2687e:	6c0a      	li	a0,10
60a26880:	6d07      	li	a1,7
60a26882:	6e00      	li	a2,0
60a26884:	e940      	jalr	s1
60a26886:	6f03      	li	a3,3
60a26888:	b42b      	lw	a0,60a26934 <applib_init+0xd4>
60a2688a:	6d00      	li	a1,0
60a2688c:	c4a3      	sb	a1,3(a0)
60a2688e:	1008      	b	60a268a0 <applib_init+0x40>
60a26890:	7002      	cmpi	s0,2
60a26892:	6106      	btnez	60a268a0 <applib_init+0x40>
60a26894:	b227      	lw	v0,60a26930 <applib_init+0xd0>
60a26896:	6c06      	li	a0,6
60a26898:	6d02      	li	a1,2
60a2689a:	6e00      	li	a2,0
60a2689c:	ea40      	jalr	v0
60a2689e:	6f03      	li	a3,3
60a268a0:	b426      	lw	a0,60a26938 <applib_init+0xd8>
60a268a2:	3308      	sll	v1,s0,2
60a268a4:	e385      	addu	s1,v1,a0
60a268a6:	b226      	lw	v0,60a2693c <applib_init+0xdc>
60a268a8:	6c00      	li	a0,0
60a268aa:	67a4      	move	a1,a0
60a268ac:	67c4      	move	a2,a0
60a268ae:	ea40      	jalr	v0
60a268b0:	6f33      	li	a3,51
60a268b2:	b224      	lw	v0,60a26940 <applib_init+0xe0>
60a268b4:	6e04      	li	a2,4
60a268b6:	6f01      	li	a3,1
60a268b8:	6791      	move	a0,s1
60a268ba:	ea40      	jalr	v0
60a268bc:	6d00      	li	a1,0
60a268be:	6a01      	li	v0,1
60a268c0:	c140      	sb	v0,0(s1)
60a268c2:	67fd      	move	a3,sp
60a268c4:	a7d0      	lbu	a2,16(a3)
60a268c6:	c102      	sb	s0,2(s1)
60a268c8:	c1c1      	sb	a2,1(s1)
60a268ca:	2802      	bnez	s0,60a268d0 <applib_init+0x70>
60a268cc:	c103      	sb	s0,3(s1)
60a268ce:	1012      	b	60a268f4 <applib_init+0x94>
60a268d0:	7003      	cmpi	s0,3
60a268d2:	6103      	btnez	60a268da <applib_init+0x7a>
60a268d4:	6803      	li	s0,3
60a268d6:	c103      	sb	s0,3(s1)
60a268d8:	100d      	b	60a268f4 <applib_init+0x94>
60a268da:	9505      	lw	a1,20(sp)
60a268dc:	b016      	lw	s0,60a26934 <applib_init+0xd4>
60a268de:	2504      	beqz	a1,60a268e8 <applib_init+0x88>
60a268e0:	6e00      	li	a2,0
60a268e2:	c143      	sb	v0,3(s1)
60a268e4:	c0c2      	sb	a2,2(s0)
60a268e6:	1006      	b	60a268f4 <applib_init+0x94>
60a268e8:	6f02      	li	a3,2
60a268ea:	c1e3      	sb	a3,3(s1)
60a268ec:	b216      	lw	v0,60a26944 <applib_init+0xe4>
60a268ee:	ea40      	jalr	v0
60a268f0:	9404      	lw	a0,16(sp)
60a268f2:	c040      	sb	v0,0(s0)
60a268f4:	6c00      	li	a0,0
60a268f6:	b012      	lw	s0,60a2693c <applib_init+0xdc>
60a268f8:	67a4      	move	a1,a0
60a268fa:	67c4      	move	a2,a0
60a268fc:	e840      	jalr	s0
60a268fe:	6f34      	li	a3,52
60a26900:	b412      	lw	a0,60a26948 <applib_init+0xe8>
60a26902:	b210      	lw	v0,60a26940 <applib_init+0xe0>
60a26904:	dc20      	sw	s1,0(a0)
60a26906:	b412      	lw	a0,60a2694c <applib_init+0xec>
60a26908:	6d01      	li	a1,1
60a2690a:	6e00      	li	a2,0
60a2690c:	ea40      	jalr	v0
60a2690e:	6f12      	li	a3,18
60a26910:	9504      	lw	a1,16(sp)
60a26912:	0c04      	la	a0,60a26920 <applib_init+0xc0>
60a26914:	6e02      	li	a2,2
60a26916:	e840      	jalr	s0
60a26918:	6f4b      	li	a3,75
60a2691a:	6a01      	li	v0,1
60a2691c:	6475      	restore	40,ra,s0-s1
60a2691e:	e8a0      	jrc	ra
60a26920:	493c      	addiu	s1,60
60a26922:	203e      	beqz	s0,60a269a0 <.LBE2+0x14>
60a26924:	7061      	cmpi	s0,97
60a26926:	2070      	beqz	s0,60a26a08 <.LBE2+0x7c>
60a26928:	6e69      	li	a2,105
60a2692a:	7469      	cmpi	a0,105
60a2692c:	003a      	addiu	s0,sp,232
60a2692e:	0000      	addiu	s0,sp,0
60a26930:	600d      	bteqz	60a2694c <applib_init+0xec>
60a26932:	bfc2      	lwu	a2,8(a3)
60a26934:	a094      	lbu	a0,20(s0)
60a26936:	9fc1      	lw	a2,4(a3)
60a26938:	a080      	lbu	a0,0(s0)
60a2693a:	9fc1      	lw	a2,4(a3)
60a2693c:	6015      	bteqz	60a26968 <applib_quit+0x18>
60a2693e:	bfc2      	lwu	a2,8(a3)
60a26940:	6011      	bteqz	60a26964 <applib_quit+0x14>
60a26942:	bfc2      	lwu	a2,8(a3)
60a26944:	6801      	li	s0,1
60a26946:	60a2      	bteqz	60a2688c <applib_init+0x2c>
60a26948:	95ec      	lw	a1,944(sp)
60a2694a:	9fc1      	lw	a2,4(a3)
60a2694c:	95f0      	lw	a1,960(sp)
60a2694e:	9fc1      	lw	a2,4(a3)

60a26950 <applib_quit>:
60a26950:	64f5      	save	40,ra,s0-s1
60a26952:	b02f      	lw	s0,60a26a0c <.LBE2+0x80>
60a26954:	b12f      	lw	s1,60a26a10 <.LBE2+0x84>
60a26956:	9860      	lw	v1,0(s0)
60a26958:	0c29      	la	a0,60a269fc <.LBE2+0x70>
60a2695a:	a3a1      	lbu	a1,1(v1)
60a2695c:	6e02      	li	a2,2
60a2695e:	e940      	jalr	s1
60a26960:	6f4b      	li	a3,75
60a26962:	6d00      	li	a1,0
60a26964:	b42c      	lw	a0,60a26a14 <.LBE2+0x88>
60a26966:	b12d      	lw	s1,60a26a18 <.LBE2+0x8c>
60a26968:	67c5      	move	a2,a1
60a2696a:	e940      	jalr	s1
60a2696c:	6f13      	li	a3,19
60a2696e:	98a0      	lw	a1,0(s0)
60a26970:	a542      	lbu	v0,2(a1)
60a26972:	7202      	cmpi	v0,2
60a26974:	6104      	btnez	60a2697e <applib_quit+0x2e>
60a26976:	b42a      	lw	a0,60a26a1c <.LBE2+0x90>
60a26978:	6e00      	li	a2,0
60a2697a:	c4c0      	sb	a2,0(a0)
60a2697c:	c4c1      	sb	a2,1(a0)
60a2697e:	0404      	addiu	a0,sp,16
60a26980:	6f00      	li	a3,0
60a26982:	e940      	jalr	s1
60a26984:	6e04      	li	a2,4
60a26986:	67fd      	move	a3,sp
60a26988:	6a1b      	li	v0,27

60a2698a <.LBB2>:
60a2698a:	98a0      	lw	a1,0(s0)

60a2698c <.LBE2>:
60a2698c:	c751      	sb	v0,17(a3)
60a2698e:	a581      	lbu	a0,1(a1)
60a26990:	6b00      	li	v1,0
60a26992:	5c1b      	sltiu	a0,27
60a26994:	c770      	sb	v1,16(a3)
60a26996:	6020      	bteqz	60a269d8 <.LBE2+0x4c>
60a26998:	b522      	lw	a1,60a26a20 <.LBE2+0x94>
60a2699a:	6b00      	li	v1,0
60a2699c:	3668      	sll	a2,v1,2
60a2699e:	e6a5      	addu	s1,a2,a1
60a269a0:	a100      	lbu	s0,0(s1)
60a269a2:	7001      	cmpi	s0,1
60a269a4:	6103      	btnez	60a269ac <.LBE2+0x20>
60a269a6:	a1e1      	lbu	a3,1(s1)
60a269a8:	ef8e      	xor	a3,a0
60a269aa:	2705      	beqz	a3,60a269b6 <.LBE2+0x2a>
60a269ac:	4341      	addiu	v0,v1,1
60a269ae:	6762      	move	v1,v0
60a269b0:	eb11      	zeb	v1
60a269b2:	5b04      	sltiu	v1,4
60a269b4:	61f3      	btnez	60a2699c <.LBE2+0x10>
60a269b6:	6c00      	li	a0,0
60a269b8:	b016      	lw	s0,60a26a10 <.LBE2+0x84>
60a269ba:	67a4      	move	a1,a0
60a269bc:	67c4      	move	a2,a0
60a269be:	e840      	jalr	s0
60a269c0:	6f33      	li	a3,51
60a269c2:	b216      	lw	v0,60a26a18 <.LBE2+0x8c>
60a269c4:	6791      	move	a0,s1
60a269c6:	0504      	addiu	a1,sp,16
60a269c8:	6e04      	li	a2,4
60a269ca:	ea40      	jalr	v0
60a269cc:	6f00      	li	a3,0
60a269ce:	6c00      	li	a0,0
60a269d0:	67a4      	move	a1,a0
60a269d2:	67c4      	move	a2,a0
60a269d4:	e840      	jalr	s0
60a269d6:	6f34      	li	a3,52
60a269d8:	b50d      	lw	a1,60a26a0c <.LBE2+0x80>
60a269da:	9d80      	lw	a0,0(a1)
60a269dc:	a442      	lbu	v0,2(a0)
60a269de:	6c0a      	li	a0,10
60a269e0:	7201      	cmpi	v0,1
60a269e2:	6003      	bteqz	60a269ea <.LBE2+0x5e>
60a269e4:	7202      	cmpi	v0,2
60a269e6:	6106      	btnez	60a269f4 <.LBE2+0x68>
60a269e8:	6c06      	li	a0,6
60a269ea:	6d00      	li	a1,0
60a269ec:	b20e      	lw	v0,60a26a24 <.LBE2+0x98>
60a269ee:	67c5      	move	a2,a1
60a269f0:	ea40      	jalr	v0
60a269f2:	6f03      	li	a3,3
60a269f4:	6a01      	li	v0,1
60a269f6:	6475      	restore	40,ra,s0-s1
60a269f8:	e8a0      	jrc	ra
60a269fa:	0000      	addiu	s0,sp,0
60a269fc:	493c      	addiu	s1,60
60a269fe:	203e      	beqz	s0,60a26a7c <__set_timer+0x54>
60a26a00:	7061      	cmpi	s0,97
60a26a02:	2070      	beqz	s0,60a26ae4 <__set_timer+0xbc>
60a26a04:	7571      	cmpi	a1,113
60a26a06:	7469      	cmpi	a0,105
60a26a08:	003a      	addiu	s0,sp,232
60a26a0a:	0000      	addiu	s0,sp,0
60a26a0c:	95ec      	lw	a1,944(sp)
60a26a0e:	9fc1      	lw	a2,4(a3)
60a26a10:	6015      	bteqz	60a26a3c <__set_timer+0x14>
60a26a12:	bfc2      	lwu	a2,8(a3)
60a26a14:	95f0      	lw	a1,960(sp)
60a26a16:	9fc1      	lw	a2,4(a3)
60a26a18:	6011      	bteqz	60a26a3c <__set_timer+0x14>
60a26a1a:	bfc2      	lwu	a2,8(a3)
60a26a1c:	a094      	lbu	a0,20(s0)
60a26a1e:	9fc1      	lw	a2,4(a3)
60a26a20:	a080      	lbu	a0,0(s0)
60a26a22:	9fc1      	lw	a2,4(a3)
60a26a24:	600d      	bteqz	60a26a40 <__set_timer+0x18>
60a26a26:	bfc2      	lwu	a2,8(a3)

60a26a28 <__set_timer>:
60a26a28:	64f7      	save	56,ra,s0-s1
60a26a2a:	ec11      	zeb	a0
60a26a2c:	d404      	sw	a0,16(sp)
60a26a2e:	9312      	lw	v1,72(sp)
60a26a30:	6c01      	li	a0,1
60a26a32:	ea8b      	neg	v0,a0
60a26a34:	ed11      	zeb	a1
60a26a36:	d505      	sw	a1,20(sp)
60a26a38:	d606      	sw	a2,24(sp)
60a26a3a:	d707      	sw	a3,28(sp)
60a26a3c:	d208      	sw	v0,32(sp)
60a26a3e:	651a      	move	t8,v0
60a26a40:	2346      	beqz	v1,60a26ace <__set_timer+0xa6>
60a26a42:	2f28      	bnez	a3,60a26a94 <__set_timer+0x6c>
60a26a44:	1044      	b	60a26ace <__set_timer+0xa6>
60a26a46:	67fd      	move	a3,sp
60a26a48:	af8e      	lhu	a0,28(a3)
60a26a4a:	b22c      	lw	v0,60a26af8 <__set_timer+0xd0>
60a26a4c:	67a6      	move	a1,a2
60a26a4e:	d308      	sw	v1,32(sp)
60a26a50:	c882      	sh	a0,4(s0)
60a26a52:	6f1c      	li	a3,28
60a26a54:	ea40      	jalr	v0
60a26a56:	6786      	move	a0,a2
60a26a58:	9307      	lw	v1,28(sp)
60a26a5a:	9712      	lw	a3,72(sp)
60a26a5c:	e275      	addu	a1,v0,v1
60a26a5e:	d8e3      	sw	a3,12(s0)
60a26a60:	6a04      	li	v0,4
60a26a62:	a0e0      	lbu	a3,0(s0)
60a26a64:	9604      	lw	a2,16(sp)
60a26a66:	ec4b      	neg	a0,v0
60a26a68:	ef8c      	and	a3,a0
60a26a6a:	d8a2      	sw	a1,8(s0)
60a26a6c:	6c01      	li	a0,1
60a26a6e:	6d0d      	li	a1,13
60a26a70:	ebab      	neg	v1,a1
60a26a72:	ef8d      	or	a3,a0
60a26a74:	e9cc      	and	s1,a2
60a26a76:	9605      	lw	a2,20(sp)
60a26a78:	3228      	sll	v0,s1,2
60a26a7a:	ef6c      	and	a3,v1
60a26a7c:	6d11      	li	a1,17
60a26a7e:	ef4d      	or	a3,v0
60a26a80:	eccc      	and	a0,a2
60a26a82:	ebab      	neg	v1,a1
60a26a84:	3290      	sll	v0,a0,4
60a26a86:	ef6c      	and	a3,v1
60a26a88:	ef4d      	or	a3,v0
60a26a8a:	c0e0      	sb	a3,0(s0)
60a26a8c:	67dd      	move	a2,sp
60a26a8e:	a6b8      	lbu	a1,24(a2)
60a26a90:	c0a1      	sb	a1,1(s0)
60a26a92:	1012      	b	60a26ab8 <__set_timer+0x90>
60a26a94:	b617      	lw	a2,60a26af0 <__set_timer+0xc8>
60a26a96:	6b00      	li	v1,0
60a26a98:	a680      	lbu	a0,0(a2)
60a26a9a:	240e      	beqz	a0,60a26ab8 <__set_timer+0x90>
60a26a9c:	b516      	lw	a1,60a26af4 <__set_timer+0xcc>
60a26a9e:	6903      	li	s1,3
60a26aa0:	9d00      	lw	s0,0(a1)
60a26aa2:	a0c0      	lbu	a2,0(s0)
60a26aa4:	ee2c      	and	a2,s1
60a26aa6:	26cf      	beqz	a2,60a26a46 <__set_timer+0x1e>
60a26aa8:	43e1      	addiu	a3,v1,1
60a26aaa:	6767      	move	v1,a3
60a26aac:	6744      	move	v0,a0
60a26aae:	eb91      	seb	v1
60a26ab0:	ea11      	zeb	v0
60a26ab2:	eb42      	slt	v1,v0
60a26ab4:	4810      	addiu	s0,16
60a26ab6:	61f5      	btnez	60a26aa2 <__set_timer+0x7a>
60a26ab8:	9308      	lw	v1,32(sp)
60a26aba:	ec6f      	not	a0,v1
60a26abc:	651b      	move	t8,v1
60a26abe:	2c07      	bnez	a0,60a26ace <__set_timer+0xa6>
60a26ac0:	6d00      	li	a1,0
60a26ac2:	b00e      	lw	s0,60a26af8 <__set_timer+0xd0>
60a26ac4:	0c04      	la	a0,60a26ad4 <__set_timer+0xac>
60a26ac6:	67c5      	move	a2,a1
60a26ac8:	e840      	jalr	s0
60a26aca:	6f4b      	li	a3,75
60a26acc:	17ff      	b	60a26acc <__set_timer+0xa4>
60a26ace:	6758      	move	v0,t8
60a26ad0:	6477      	restore	56,ra,s0-s1
60a26ad2:	e8a0      	jrc	ra
60a26ad4:	453c      	daddiu	s1,a1,-4
60a26ad6:	203e      	beqz	s0,60a26b54 <modify_app_timer+0x20>
60a26ad8:	6573      	move	s3,v1
60a26ada:	2074      	beqz	s0,60a26bc4 <restart_app_timer+0xc>
60a26adc:	7061      	cmpi	s0,97
60a26ade:	2070      	beqz	s0,60a26bc0 <restart_app_timer+0x8>
60a26ae0:	6974      	li	s1,116
60a26ae2:	656d      	move	t3,a1
60a26ae4:	2072      	beqz	s0,60a26bca <restart_app_timer+0x12>
60a26ae6:	6166      	btnez	60a26bb4 <stop_app_timer+0x34>
60a26ae8:	6c69      	li	a0,105
60a26aea:	2121      	beqz	s1,60a26b2e <set_single_shot_app_timer+0x16>
60a26aec:	0000      	addiu	s0,sp,0
60a26aee:	0000      	addiu	s0,sp,0
60a26af0:	95f4      	lw	a1,976(sp)
60a26af2:	9fc1      	lw	a2,4(a3)
60a26af4:	95e4      	lw	a1,912(sp)
60a26af6:	9fc1      	lw	a2,4(a3)
60a26af8:	6015      	bteqz	60a26b24 <set_single_shot_app_timer+0xc>
60a26afa:	bfc2      	lwu	a2,8(a3)

60a26afc <set_app_timer>:
60a26afc:	64c4      	save	32,ra
60a26afe:	3282      	srl	v0,a0,8
60a26b00:	d604      	sw	a2,16(sp)
60a26b02:	67e5      	move	a3,a1
60a26b04:	67c2      	move	a2,v0
60a26b06:	ef31      	zeh	a3
60a26b08:	ec11      	zeb	a0
60a26b0a:	6d00      	li	a1,0
60a26b0c:	1901 9a8a 	jal	60a26a28 <__set_timer>
60a26b10:	ee11      	zeb	a2
60a26b12:	6444      	restore	32,ra
60a26b14:	e8a0      	jrc	ra
	...

60a26b18 <set_single_shot_app_timer>:
60a26b18:	64c4      	save	32,ra
60a26b1a:	3282      	srl	v0,a0,8
60a26b1c:	d604      	sw	a2,16(sp)
60a26b1e:	67e5      	move	a3,a1
60a26b20:	67c2      	move	a2,v0
60a26b22:	ef31      	zeh	a3
60a26b24:	ec11      	zeb	a0
60a26b26:	6d01      	li	a1,1
60a26b28:	1901 9a8a 	jal	60a26a28 <__set_timer>
60a26b2c:	ee11      	zeb	a2
60a26b2e:	6444      	restore	32,ra
60a26b30:	e8a0      	jrc	ra
	...

60a26b34 <modify_app_timer>:
60a26b34:	64f4      	save	32,ra,s0-s1
60a26b36:	ec91      	seb	a0
60a26b38:	6705      	move	s0,a1
60a26b3a:	ea8f      	not	v0,a0
60a26b3c:	e831      	zeh	s0
60a26b3e:	2206      	beqz	v0,60a26b4c <modify_app_timer+0x18>
60a26b40:	b60d      	lw	a2,60a26b74 <modify_app_timer+0x40>
60a26b42:	67a4      	move	a1,a0
60a26b44:	a660      	lbu	v1,0(a2)
60a26b46:	ed11      	zeb	a1
60a26b48:	ed63      	sltu	a1,v1
60a26b4a:	6102      	btnez	60a26b50 <modify_app_timer+0x1c>
60a26b4c:	6a00      	li	v0,0
60a26b4e:	1010      	b	60a26b70 <modify_app_timer+0x3c>
60a26b50:	b10a      	lw	s1,60a26b78 <modify_app_timer+0x44>
60a26b52:	3790      	sll	a3,a0,4
60a26b54:	9980      	lw	a0,0(s1)
60a26b56:	6750      	move	v0,s0
60a26b58:	e4e5      	addu	s1,a0,a3
60a26b5a:	200a      	beqz	s0,60a26b70 <modify_app_timer+0x3c>
60a26b5c:	6c00      	li	a0,0
60a26b5e:	b208      	lw	v0,60a26b7c <modify_app_timer+0x48>
60a26b60:	c902      	sh	s0,4(s1)
60a26b62:	67a4      	move	a1,a0
60a26b64:	67c4      	move	a2,a0
60a26b66:	ea40      	jalr	v0
60a26b68:	6f1c      	li	a3,28
60a26b6a:	e209      	addu	v0,s0
60a26b6c:	d942      	sw	v0,8(s1)
60a26b6e:	6a01      	li	v0,1
60a26b70:	6474      	restore	32,ra,s0-s1
60a26b72:	e8a0      	jrc	ra
60a26b74:	95f4      	lw	a1,976(sp)
60a26b76:	9fc1      	lw	a2,4(a3)
60a26b78:	95e4      	lw	a1,912(sp)
60a26b7a:	9fc1      	lw	a2,4(a3)
60a26b7c:	6015      	bteqz	60a26ba8 <stop_app_timer+0x28>
60a26b7e:	bfc2      	lwu	a2,8(a3)

60a26b80 <stop_app_timer>:
60a26b80:	ec91      	seb	a0
60a26b82:	ea8f      	not	v0,a0
60a26b84:	2206      	beqz	v0,60a26b92 <stop_app_timer+0x12>
60a26b86:	b60b      	lw	a2,60a26bb0 <stop_app_timer+0x30>
60a26b88:	67a4      	move	a1,a0
60a26b8a:	a660      	lbu	v1,0(a2)
60a26b8c:	ed11      	zeb	a1
60a26b8e:	ed63      	sltu	a1,v1
60a26b90:	6102      	btnez	60a26b96 <stop_app_timer+0x16>
60a26b92:	e820      	jr	ra
60a26b94:	6a00      	li	v0,0
60a26b96:	3790      	sll	a3,a0,4
60a26b98:	b407      	lw	a0,60a26bb4 <stop_app_timer+0x34>
60a26b9a:	6d04      	li	a1,4
60a26b9c:	9cc0      	lw	a2,0(a0)
60a26b9e:	ebab      	neg	v1,a1
60a26ba0:	e6f1      	addu	a0,a2,a3
60a26ba2:	a4e0      	lbu	a3,0(a0)
60a26ba4:	4346      	addiu	v0,v1,6
60a26ba6:	ef6c      	and	a3,v1
60a26ba8:	ef4d      	or	a3,v0
60a26baa:	6a01      	li	v0,1
60a26bac:	e820      	jr	ra
60a26bae:	c4e0      	sb	a3,0(a0)
60a26bb0:	95f4      	lw	a1,976(sp)
60a26bb2:	9fc1      	lw	a2,4(a3)
60a26bb4:	95e4      	lw	a1,912(sp)
60a26bb6:	9fc1      	lw	a2,4(a3)

60a26bb8 <restart_app_timer>:
60a26bb8:	64f4      	save	32,ra,s0-s1
60a26bba:	ec91      	seb	a0
60a26bbc:	ea8f      	not	v0,a0
60a26bbe:	2206      	beqz	v0,60a26bcc <restart_app_timer+0x14>
60a26bc0:	b610      	lw	a2,60a26c00 <restart_app_timer+0x48>
60a26bc2:	67a4      	move	a1,a0
60a26bc4:	a660      	lbu	v1,0(a2)
60a26bc6:	ed11      	zeb	a1
60a26bc8:	ed63      	sltu	a1,v1
60a26bca:	6102      	btnez	60a26bd0 <restart_app_timer+0x18>
60a26bcc:	6a00      	li	v0,0
60a26bce:	1015      	b	60a26bfa <restart_app_timer+0x42>
60a26bd0:	3690      	sll	a2,a0,4
60a26bd2:	b40d      	lw	a0,60a26c04 <restart_app_timer+0x4c>
60a26bd4:	6b04      	li	v1,4
60a26bd6:	9c00      	lw	s0,0(a0)
60a26bd8:	e96b      	neg	s1,v1
60a26bda:	e0c1      	addu	s0,a2
60a26bdc:	a0a0      	lbu	a1,0(s0)
60a26bde:	6c00      	li	a0,0
60a26be0:	ed2c      	and	a1,s1
60a26be2:	6901      	li	s1,1
60a26be4:	ed2d      	or	a1,s1
60a26be6:	b209      	lw	v0,60a26c08 <restart_app_timer+0x50>
60a26be8:	c0a0      	sb	a1,0(s0)
60a26bea:	67c4      	move	a2,a0
60a26bec:	67a4      	move	a1,a0
60a26bee:	ea40      	jalr	v0
60a26bf0:	6f1c      	li	a3,28
60a26bf2:	a8e2      	lhu	a3,4(s0)
60a26bf4:	e2f1      	addu	a0,v0,a3
60a26bf6:	d882      	sw	a0,8(s0)
60a26bf8:	6751      	move	v0,s1
60a26bfa:	6474      	restore	32,ra,s0-s1
60a26bfc:	e8a0      	jrc	ra
60a26bfe:	0000      	addiu	s0,sp,0
60a26c00:	95f4      	lw	a1,976(sp)
60a26c02:	9fc1      	lw	a2,4(a3)
60a26c04:	95e4      	lw	a1,912(sp)
60a26c06:	9fc1      	lw	a2,4(a3)
60a26c08:	6015      	bteqz	60a26c34 <kill_app_timer+0x28>
60a26c0a:	bfc2      	lwu	a2,8(a3)

60a26c0c <kill_app_timer>:
60a26c0c:	ec91      	seb	a0
60a26c0e:	ea8f      	not	v0,a0
60a26c10:	2206      	beqz	v0,60a26c1e <kill_app_timer+0x12>
60a26c12:	b60a      	lw	a2,60a26c38 <kill_app_timer+0x2c>
60a26c14:	67a4      	move	a1,a0
60a26c16:	a660      	lbu	v1,0(a2)
60a26c18:	ed11      	zeb	a1
60a26c1a:	ed63      	sltu	a1,v1
60a26c1c:	6102      	btnez	60a26c22 <kill_app_timer+0x16>
60a26c1e:	e820      	jr	ra
60a26c20:	6a00      	li	v0,0
60a26c22:	b707      	lw	a3,60a26c3c <kill_app_timer+0x30>
60a26c24:	3690      	sll	a2,a0,4
60a26c26:	9f60      	lw	v1,0(a3)
60a26c28:	6d04      	li	a1,4
60a26c2a:	e3dd      	addu	a3,v1,a2
60a26c2c:	a740      	lbu	v0,0(a3)
60a26c2e:	ecab      	neg	a0,a1
60a26c30:	ea8c      	and	v0,a0
60a26c32:	c740      	sb	v0,0(a3)
60a26c34:	e820      	jr	ra
60a26c36:	6a01      	li	v0,1
60a26c38:	95f4      	lw	a1,976(sp)
60a26c3a:	9fc1      	lw	a2,4(a3)
60a26c3c:	95e4      	lw	a1,912(sp)
60a26c3e:	9fc1      	lw	a2,4(a3)

60a26c40 <init_app_timers>:
60a26c40:	ed11      	zeb	a1
60a26c42:	6745      	move	v0,a1
60a26c44:	2518      	beqz	a1,60a26c76 <init_app_timers+0x36>
60a26c46:	b70d      	lw	a3,60a26c78 <init_app_timers+0x38>
60a26c48:	b60d      	lw	a2,60a26c7c <init_app_timers+0x3c>
60a26c4a:	df80      	sw	a0,0(a3)
60a26c4c:	c6a0      	sb	a1,0(a2)
60a26c4e:	6c00      	li	a0,0
60a26c50:	250e      	beqz	a1,60a26c6e <init_app_timers+0x2e>
60a26c52:	6d04      	li	a1,4
60a26c54:	edab      	neg	a1
60a26c56:	9f60      	lw	v1,0(a3)
60a26c58:	3290      	sll	v0,a0,4
60a26c5a:	e34d      	addu	v1,v0
60a26c5c:	a340      	lbu	v0,0(v1)
60a26c5e:	eaac      	and	v0,a1
60a26c60:	c340      	sb	v0,0(v1)
60a26c62:	4461      	addiu	v1,a0,1
60a26c64:	6783      	move	a0,v1
60a26c66:	a640      	lbu	v0,0(a2)
60a26c68:	ec11      	zeb	a0
60a26c6a:	ec43      	sltu	a0,v0
60a26c6c:	61f4      	btnez	60a26c56 <init_app_timers+0x16>
60a26c6e:	b405      	lw	a0,60a26c80 <init_app_timers+0x40>
60a26c70:	6e00      	li	a2,0
60a26c72:	c4c0      	sb	a2,0(a0)
60a26c74:	6a01      	li	v0,1
60a26c76:	e8a0      	jrc	ra
60a26c78:	95e4      	lw	a1,912(sp)
60a26c7a:	9fc1      	lw	a2,4(a3)
60a26c7c:	95f4      	lw	a1,976(sp)
60a26c7e:	9fc1      	lw	a2,4(a3)
60a26c80:	95e9      	lw	a1,932(sp)
60a26c82:	9fc1      	lw	a2,4(a3)

60a26c84 <standby_restart_all_app_timer>:
60a26c84:	f004 64f5 	save	a0,40,ra,s0-s1
60a26c88:	ed11      	zeb	a1
60a26c8a:	d504      	sw	a1,16(sp)
60a26c8c:	6900      	li	s1,0
60a26c8e:	2517      	beqz	a1,60a26cbe <standby_restart_all_app_timer+0x3a>
60a26c90:	950a      	lw	a1,40(sp)
60a26c92:	3430      	sll	a0,s1,4
60a26c94:	e581      	addu	s0,a1,a0
60a26c96:	a040      	lbu	v0,0(s0)
60a26c98:	6b03      	li	v1,3
60a26c9a:	ea6c      	and	v0,v1
60a26c9c:	7201      	cmpi	v0,1
60a26c9e:	6109      	btnez	60a26cb2 <standby_restart_all_app_timer+0x2e>
60a26ca0:	6c00      	li	a0,0
60a26ca2:	b209      	lw	v0,60a26cc4 <standby_restart_all_app_timer+0x40>
60a26ca4:	67c4      	move	a2,a0
60a26ca6:	6f1c      	li	a3,28
60a26ca8:	ea40      	jalr	v0
60a26caa:	67a4      	move	a1,a0
60a26cac:	a8e2      	lhu	a3,4(s0)
60a26cae:	e2f9      	addu	a2,v0,a3
60a26cb0:	d8c2      	sw	a2,8(s0)
60a26cb2:	4181      	addiu	a0,s1,1
60a26cb4:	6724      	move	s1,a0
60a26cb6:	9304      	lw	v1,16(sp)
60a26cb8:	e911      	zeb	s1
60a26cba:	e963      	sltu	s1,v1
60a26cbc:	61e9      	btnez	60a26c90 <standby_restart_all_app_timer+0xc>
60a26cbe:	6475      	restore	40,ra,s0-s1
60a26cc0:	e8a0      	jrc	ra
60a26cc2:	0000      	addiu	s0,sp,0
60a26cc4:	6015      	bteqz	60a26cf0 <applib_message_init+0x28>
60a26cc6:	bfc2      	lwu	a2,8(a3)

60a26cc8 <applib_message_init>:
60a26cc8:	64c3      	save	24,ra
60a26cca:	b406      	lw	a0,60a26ce0 <applib_message_init+0x18>
60a26ccc:	6d00      	li	a1,0
60a26cce:	9c60      	lw	v1,0(a0)
60a26cd0:	b205      	lw	v0,60a26ce4 <applib_message_init+0x1c>
60a26cd2:	a383      	lbu	a0,3(v1)
60a26cd4:	67c5      	move	a2,a1
60a26cd6:	ea40      	jalr	v0
60a26cd8:	6f1a      	li	a3,26
60a26cda:	6a01      	li	v0,1
60a26cdc:	6443      	restore	24,ra
60a26cde:	e8a0      	jrc	ra
60a26ce0:	95ec      	lw	a1,944(sp)
60a26ce2:	9fc1      	lw	a2,4(a3)
60a26ce4:	6015      	bteqz	60a26d10 <applib_message_init+0x48>
60a26ce6:	bfc2      	lwu	a2,8(a3)
Disassembly of section BANK_CONTROL_1_41:

60a66800 <com_open_config_file>:
60a66800:	64e5      	save	40,ra,s0
60a66802:	6d00      	li	a1,0
60a66804:	b011      	lw	s0,60a66848 <com_open_config_file+0x48>
60a66806:	67c5      	move	a2,a1
60a66808:	e840      	jalr	s0
60a6680a:	6f0d      	li	a3,13
60a6680c:	6782      	move	a0,v0
60a6680e:	b20e      	lw	v0,60a66844 <com_open_config_file+0x44>
60a66810:	6764      	move	v1,a0
60a66812:	da80      	sw	a0,0(v0)
60a66814:	2413      	beqz	a0,60a6683c <com_open_config_file+0x3c>
60a66816:	0504      	addiu	a1,sp,16
60a66818:	6e10      	li	a2,16
60a6681a:	e840      	jalr	s0
60a6681c:	6f11      	li	a3,17
60a6681e:	ec4f      	not	a0,v0
60a66820:	6b00      	li	v1,0
60a66822:	240c      	beqz	a0,60a6683c <com_open_config_file+0x3c>
60a66824:	677d      	move	v1,sp
60a66826:	a3b0      	lbu	a1,16(v1)
60a66828:	7563      	cmpi	a1,99
60a6682a:	6107      	btnez	60a6683a <com_open_config_file+0x3a>
60a6682c:	a3d1      	lbu	a2,17(v1)
60a6682e:	7666      	cmpi	a2,102
60a66830:	6104      	btnez	60a6683a <com_open_config_file+0x3a>
60a66832:	a3f2      	lbu	a3,18(v1)
60a66834:	6b01      	li	v1,1
60a66836:	7767      	cmpi	a3,103
60a66838:	6001      	bteqz	60a6683c <com_open_config_file+0x3c>
60a6683a:	6b00      	li	v1,0
60a6683c:	6743      	move	v0,v1
60a6683e:	6465      	restore	40,ra,s0
60a66840:	e8a0      	jrc	ra
60a66842:	0000      	addiu	s0,sp,0
60a66844:	a090      	lbu	a0,16(s0)
60a66846:	9fc1      	lw	a2,4(a3)
60a66848:	6015      	bteqz	60a66874 <com_get_config_struct+0x28>
60a6684a:	bfc2      	lwu	a2,8(a3)

60a6684c <com_get_config_struct>:
60a6684c:	f008 64f6 	save	a0-a1,48,ra,s0-s1
60a66850:	67a4      	move	a1,a0
60a66852:	ed31      	zeh	a1
60a66854:	b118      	lw	s1,60a668b4 <com_get_config_struct+0x68>
60a66856:	33ac      	sll	v1,a1,3
60a66858:	ee31      	zeh	a2
60a6685a:	d606      	sw	a2,24(sp)
60a6685c:	9980      	lw	a0,0(s1)
60a6685e:	67c3      	move	a2,v1
60a66860:	b016      	lw	s0,60a668b8 <com_get_config_struct+0x6c>
60a66862:	6d00      	li	a1,0
60a66864:	4e10      	addiu	a2,16
60a66866:	e840      	jalr	s0
60a66868:	6f0f      	li	a3,15
60a6686a:	ea4f      	not	v0
60a6686c:	6b00      	li	v1,0
60a6686e:	221f      	beqz	v0,60a668ae <com_get_config_struct+0x62>
60a66870:	9980      	lw	a0,0(s1)
60a66872:	0504      	addiu	a1,sp,16
60a66874:	6e08      	li	a2,8
60a66876:	e840      	jalr	s0
60a66878:	6f11      	li	a3,17
60a6687a:	ec4f      	not	a0,v0
60a6687c:	6b00      	li	v1,0
60a6687e:	2417      	beqz	a0,60a668ae <com_get_config_struct+0x62>
60a66880:	9604      	lw	a2,16(sp)
60a66882:	9980      	lw	a0,0(s1)
60a66884:	67a3      	move	a1,v1
60a66886:	e840      	jalr	s0
60a66888:	6f0f      	li	a3,15
60a6688a:	ee4f      	not	a2,v0
60a6688c:	6b00      	li	v1,0
60a6688e:	260f      	beqz	a2,60a668ae <com_get_config_struct+0x62>
60a66890:	9605      	lw	a2,20(sp)
60a66892:	9206      	lw	v0,24(sp)
60a66894:	9980      	lw	a0,0(s1)
60a66896:	eac3      	sltu	v0,a2
60a66898:	6003      	bteqz	60a668a0 <com_get_config_struct+0x54>
60a6689a:	950d      	lw	a1,52(sp)
60a6689c:	67c2      	move	a2,v0
60a6689e:	1001      	b	60a668a2 <com_get_config_struct+0x56>
60a668a0:	950d      	lw	a1,52(sp)
60a668a2:	e840      	jalr	s0
60a668a4:	6f11      	li	a3,17
60a668a6:	ef4f      	not	a3,v0
60a668a8:	6b00      	li	v1,0
60a668aa:	2701      	beqz	a3,60a668ae <com_get_config_struct+0x62>
60a668ac:	6b01      	li	v1,1
60a668ae:	6743      	move	v0,v1
60a668b0:	6476      	restore	48,ra,s0-s1
60a668b2:	e8a0      	jrc	ra
60a668b4:	a090      	lbu	a0,16(s0)
60a668b6:	9fc1      	lw	a2,4(a3)
60a668b8:	6015      	bteqz	60a668e4 <com_get_config_default+0x28>
60a668ba:	bfc2      	lwu	a2,8(a3)

60a668bc <com_get_config_default>:
60a668bc:	64f6      	save	48,ra,s0-s1
60a668be:	67c4      	move	a2,a0
60a668c0:	b115      	lw	s1,60a66914 <com_get_config_default+0x58>
60a668c2:	ee31      	zeh	a2
60a668c4:	36cc      	sll	a2,3
60a668c6:	9980      	lw	a0,0(s1)
60a668c8:	b014      	lw	s0,60a66918 <com_get_config_default+0x5c>
60a668ca:	6d00      	li	a1,0
60a668cc:	4e10      	addiu	a2,16
60a668ce:	e840      	jalr	s0
60a668d0:	6f0f      	li	a3,15
60a668d2:	ea4f      	not	v0
60a668d4:	6b00      	li	v1,0
60a668d6:	221a      	beqz	v0,60a6690c <com_get_config_default+0x50>
60a668d8:	9980      	lw	a0,0(s1)
60a668da:	0504      	addiu	a1,sp,16
60a668dc:	6e08      	li	a2,8
60a668de:	e840      	jalr	s0
60a668e0:	6f11      	li	a3,17
60a668e2:	ec4f      	not	a0,v0
60a668e4:	6b00      	li	v1,0
60a668e6:	2412      	beqz	a0,60a6690c <com_get_config_default+0x50>
60a668e8:	9980      	lw	a0,0(s1)
60a668ea:	9604      	lw	a2,16(sp)
60a668ec:	67a3      	move	a1,v1
60a668ee:	e840      	jalr	s0
60a668f0:	6f0f      	li	a3,15
60a668f2:	ed4f      	not	a1,v0
60a668f4:	6b00      	li	v1,0
60a668f6:	250a      	beqz	a1,60a6690c <com_get_config_default+0x50>
60a668f8:	9980      	lw	a0,0(s1)
60a668fa:	6f11      	li	a3,17
60a668fc:	0506      	addiu	a1,sp,24
60a668fe:	e840      	jalr	s0
60a66900:	6e02      	li	a2,2
60a66902:	ef4f      	not	a3,v0
60a66904:	6b00      	li	v1,0
60a66906:	2702      	beqz	a3,60a6690c <com_get_config_default+0x50>
60a66908:	675d      	move	v0,sp
60a6690a:	aa6c      	lhu	v1,24(v0)
60a6690c:	6743      	move	v0,v1
60a6690e:	6476      	restore	48,ra,s0-s1
60a66910:	e8a0      	jrc	ra
60a66912:	0000      	addiu	s0,sp,0
60a66914:	a090      	lbu	a0,16(s0)
60a66916:	9fc1      	lw	a2,4(a3)
60a66918:	6015      	bteqz	60a66944 <.LBE2+0x24>
60a6691a:	bfc2      	lwu	a2,8(a3)

60a6691c <com_set_sound_out>:
60a6691c:	b202      	lw	v0,60a66924 <.LBE2+0x4>
60a6691e:	c287      	sb	a0,7(v0)

60a66920 <.LBE2>:
60a66920:	e820      	jr	ra
60a66922:	6a01      	li	v0,1
60a66924:	a094      	lbu	a0,20(s0)
60a66926:	9fc1      	lw	a2,4(a3)
Disassembly of section .reginfo:

00000000 <.reginfo>:
   0:	00000008 	jr	zero
   4:	00000000 	nop
	...
Disassembly of section .pdr:

00000000 <.pdr>:
   0:	bfc26001 	cache	0x2,24577(s8)
	...
  18:	0000001d 	0x1d
  1c:	0000001f 	0x1f
  20:	bfc26005 	cache	0x2,24581(s8)
	...
  38:	0000001d 	0x1d
  3c:	0000001f 	0x1f
  40:	bfc26009 	cache	0x2,24585(s8)
	...
  58:	0000001d 	0x1d
  5c:	0000001f 	0x1f
  60:	bfc2600d 	cache	0x2,24589(s8)
	...
  78:	0000001d 	0x1d
  7c:	0000001f 	0x1f
  80:	bfc26011 	cache	0x2,24593(s8)
	...
  98:	0000001d 	0x1d
  9c:	0000001f 	0x1f
  a0:	bfc26015 	cache	0x2,24597(s8)
	...
  b8:	0000001d 	0x1d
  bc:	0000001f 	0x1f
  c0:	bfc26019 	cache	0x2,24601(s8)
  c4:	80020000 	lb	v0,0(zero)
  c8:	fffffffc 	sdc3	$31,-4(ra)
	...
  d4:	00000008 	jr	zero
  d8:	00000011 	mthi	zero
  dc:	0000001f 	0x1f
  e0:	600268cd 	0x600268cd
  e4:	80020000 	lb	v0,0(zero)
  e8:	fffffffc 	sdc3	$31,-4(ra)
	...
  f4:	00000010 	mfhi	zero
  f8:	00000011 	mthi	zero
  fc:	0000001f 	0x1f
 100:	bfc26039 	cache	0x2,24633(s8)
 104:	80020000 	lb	v0,0(zero)
 108:	fffffffc 	sdc3	$31,-4(ra)
	...
 114:	00000010 	mfhi	zero
 118:	00000011 	mthi	zero
 11c:	0000001f 	0x1f
 120:	bfc260fd 	cache	0x2,24829(s8)
 124:	80020000 	lb	v0,0(zero)
 128:	fffffffc 	sdc3	$31,-4(ra)
	...
 134:	00000020 	add	zero,zero,zero
 138:	00000011 	mthi	zero
 13c:	0000001f 	0x1f
 140:	bfc26155 	cache	0x2,24917(s8)
 144:	80020000 	lb	v0,0(zero)
 148:	fffffffc 	sdc3	$31,-4(ra)
	...
 154:	00000018 	mult	zero,zero
 158:	00000011 	mthi	zero
 15c:	0000001f 	0x1f
 160:	bfc261ad 	cache	0x2,25005(s8)
 164:	80020000 	lb	v0,0(zero)
 168:	fffffffc 	sdc3	$31,-4(ra)
	...
 174:	00000020 	add	zero,zero,zero
 178:	00000011 	mthi	zero
 17c:	0000001f 	0x1f
 180:	bfc26225 	cache	0x2,25125(s8)
 184:	00020000 	sll	zero,v0,0x0
 188:	fffffffc 	sdc3	$31,-4(ra)
	...
 194:	00000008 	jr	zero
 198:	00000011 	mthi	zero
 19c:	0000001f 	0x1f
 1a0:	bfc2623d 	cache	0x2,25149(s8)
 1a4:	80020000 	lb	v0,0(zero)
 1a8:	fffffffc 	sdc3	$31,-4(ra)
	...
 1b4:	00000020 	add	zero,zero,zero
 1b8:	00000011 	mthi	zero
 1bc:	0000001f 	0x1f
 1c0:	bfc262b9 	cache	0x2,25273(s8)
 1c4:	80020000 	lb	v0,0(zero)
 1c8:	fffffffc 	sdc3	$31,-4(ra)
	...
 1d4:	00000010 	mfhi	zero
 1d8:	00000011 	mthi	zero
 1dc:	0000001f 	0x1f
 1e0:	bfc26321 	cache	0x2,25377(s8)
 1e4:	80020000 	lb	v0,0(zero)
 1e8:	fffffffc 	sdc3	$31,-4(ra)
	...
 1f4:	00000018 	mult	zero,zero
 1f8:	00000011 	mthi	zero
 1fc:	0000001f 	0x1f
 200:	bfc263d5 	cache	0x2,25557(s8)
 204:	80020000 	lb	v0,0(zero)
 208:	fffffffc 	sdc3	$31,-4(ra)
	...
 214:	00000010 	mfhi	zero
 218:	00000011 	mthi	zero
 21c:	0000001f 	0x1f
 220:	600e6801 	0x600e6801
 224:	80030000 	lb	v1,0(zero)
 228:	fffffffc 	sdc3	$31,-4(ra)
	...
 234:	00000010 	mfhi	zero
 238:	00000011 	mthi	zero
 23c:	0000001f 	0x1f
 240:	600e687d 	0x600e687d
 244:	80020000 	lb	v0,0(zero)
 248:	fffffffc 	sdc3	$31,-4(ra)
	...
 254:	00000008 	jr	zero
 258:	00000011 	mthi	zero
 25c:	0000001f 	0x1f
 260:	600e68a5 	0x600e68a5
 264:	80030000 	lb	v1,0(zero)
 268:	fffffffc 	sdc3	$31,-4(ra)
	...
 274:	00000010 	mfhi	zero
 278:	00000011 	mthi	zero
 27c:	0000001f 	0x1f
 280:	600e68f9 	0x600e68f9
 284:	80030000 	lb	v1,0(zero)
 288:	fffffffc 	sdc3	$31,-4(ra)
	...
 294:	00000010 	mfhi	zero
 298:	00000011 	mthi	zero
 29c:	0000001f 	0x1f
 2a0:	600e6949 	0x600e6949
 2a4:	80030000 	lb	v1,0(zero)
 2a8:	fffffffc 	sdc3	$31,-4(ra)
	...
 2b4:	00000028 	0x28
 2b8:	00000011 	mthi	zero
 2bc:	0000001f 	0x1f
 2c0:	600e6a4d 	0x600e6a4d
 2c4:	80020000 	lb	v0,0(zero)
 2c8:	fffffffc 	sdc3	$31,-4(ra)
	...
 2d4:	00000008 	jr	zero
 2d8:	00000011 	mthi	zero
 2dc:	0000001f 	0x1f
 2e0:	600e6abd 	0x600e6abd
 2e4:	80020000 	lb	v0,0(zero)
 2e8:	fffffffc 	sdc3	$31,-4(ra)
	...
 2f4:	00000010 	mfhi	zero
 2f8:	00000011 	mthi	zero
 2fc:	0000001f 	0x1f
 300:	600e6af9 	0x600e6af9
 304:	00020000 	sll	zero,v0,0x0
 308:	fffffffc 	sdc3	$31,-4(ra)
	...
 314:	00000008 	jr	zero
 318:	00000011 	mthi	zero
 31c:	0000001f 	0x1f
 320:	bfc26435 	cache	0x2,25653(s8)
 324:	80030000 	lb	v1,0(zero)
 328:	fffffffc 	sdc3	$31,-4(ra)
	...
 334:	00000028 	0x28
 338:	0000001d 	0x1d
 33c:	0000001f 	0x1f
 340:	bfc26531 	cache	0x2,25905(s8)
 344:	80010000 	lb	at,0(zero)
 348:	fffffffc 	sdc3	$31,-4(ra)
	...
 354:	00000018 	mult	zero,zero
 358:	0000001d 	0x1d
 35c:	0000001f 	0x1f
 360:	60126801 	0x60126801
 364:	80020000 	lb	v0,0(zero)
 368:	fffffffc 	sdc3	$31,-4(ra)
	...
 374:	00000010 	mfhi	zero
 378:	00000011 	mthi	zero
 37c:	0000001f 	0x1f
 380:	601268d1 	0x601268d1
 384:	80020000 	lb	v0,0(zero)
 388:	fffffffc 	sdc3	$31,-4(ra)
	...
 394:	00000018 	mult	zero,zero
 398:	00000011 	mthi	zero
 39c:	0000001f 	0x1f
 3a0:	60126971 	0x60126971
 3a4:	80020000 	lb	v0,0(zero)
 3a8:	fffffffc 	sdc3	$31,-4(ra)
	...
 3b4:	00000008 	jr	zero
 3b8:	00000011 	mthi	zero
 3bc:	0000001f 	0x1f
 3c0:	60126999 	0x60126999
 3c4:	80020000 	lb	v0,0(zero)
 3c8:	fffffffc 	sdc3	$31,-4(ra)
	...
 3d4:	00000008 	jr	zero
 3d8:	00000011 	mthi	zero
 3dc:	0000001f 	0x1f
 3e0:	60026801 	0x60026801
 3e4:	80020000 	lb	v0,0(zero)
 3e8:	fffffffc 	sdc3	$31,-4(ra)
	...
 3f4:	00000010 	mfhi	zero
 3f8:	00000011 	mthi	zero
 3fc:	0000001f 	0x1f
 400:	60026831 	0x60026831
 404:	80020000 	lb	v0,0(zero)
 408:	fffffffc 	sdc3	$31,-4(ra)
	...
 414:	00000020 	add	zero,zero,zero
 418:	00000011 	mthi	zero
 41c:	0000001f 	0x1f
 420:	60066801 	0x60066801
 424:	80020000 	lb	v0,0(zero)
 428:	fffffffc 	sdc3	$31,-4(ra)
	...
 434:	00000008 	jr	zero
 438:	00000011 	mthi	zero
 43c:	0000001f 	0x1f
 440:	60066861 	0x60066861
 444:	80020000 	lb	v0,0(zero)
 448:	fffffffc 	sdc3	$31,-4(ra)
	...
 454:	00000018 	mult	zero,zero
 458:	00000011 	mthi	zero
 45c:	0000001f 	0x1f
 460:	600668e1 	0x600668e1
 464:	80020000 	lb	v0,0(zero)
 468:	fffffffc 	sdc3	$31,-4(ra)
	...
 474:	00000010 	mfhi	zero
 478:	00000011 	mthi	zero
 47c:	0000001f 	0x1f
 480:	60066955 	0x60066955
 484:	80020000 	lb	v0,0(zero)
 488:	fffffffc 	sdc3	$31,-4(ra)
	...
 494:	00000010 	mfhi	zero
 498:	00000011 	mthi	zero
 49c:	0000001f 	0x1f
 4a0:	600669cd 	0x600669cd
 4a4:	80020000 	lb	v0,0(zero)
 4a8:	fffffffc 	sdc3	$31,-4(ra)
	...
 4b4:	00000018 	mult	zero,zero
 4b8:	00000011 	mthi	zero
 4bc:	0000001f 	0x1f
 4c0:	60066a5d 	0x60066a5d
 4c4:	00020000 	sll	zero,v0,0x0
 4c8:	fffffffc 	sdc3	$31,-4(ra)
	...
 4d4:	00000008 	jr	zero
 4d8:	00000011 	mthi	zero
 4dc:	0000001f 	0x1f
 4e0:	60066a75 	0x60066a75
 4e4:	80020000 	lb	v0,0(zero)
 4e8:	fffffffc 	sdc3	$31,-4(ra)
	...
 4f4:	00000018 	mult	zero,zero
 4f8:	00000011 	mthi	zero
 4fc:	0000001f 	0x1f
 500:	60066acd 	0x60066acd
 504:	80020000 	lb	v0,0(zero)
 508:	fffffffc 	sdc3	$31,-4(ra)
	...
 514:	00000018 	mult	zero,zero
 518:	00000011 	mthi	zero
 51c:	0000001f 	0x1f
 520:	60066b31 	0x60066b31
 524:	80020000 	lb	v0,0(zero)
 528:	fffffffc 	sdc3	$31,-4(ra)
	...
 534:	00000008 	jr	zero
 538:	00000011 	mthi	zero
 53c:	0000001f 	0x1f
 540:	60066b99 	0x60066b99
 544:	80020000 	lb	v0,0(zero)
 548:	fffffffc 	sdc3	$31,-4(ra)
	...
 554:	00000008 	jr	zero
 558:	00000011 	mthi	zero
 55c:	0000001f 	0x1f
 560:	60066c01 	0x60066c01
 564:	80030000 	lb	v1,0(zero)
 568:	fffffffc 	sdc3	$31,-4(ra)
	...
 574:	00000010 	mfhi	zero
 578:	00000011 	mthi	zero
 57c:	0000001f 	0x1f
 580:	60066c3d 	0x60066c3d
 584:	80020000 	lb	v0,0(zero)
 588:	fffffffc 	sdc3	$31,-4(ra)
	...
 594:	00000010 	mfhi	zero
 598:	00000011 	mthi	zero
 59c:	0000001f 	0x1f
 5a0:	600a6801 	0x600a6801
 5a4:	80020000 	lb	v0,0(zero)
 5a8:	fffffffc 	sdc3	$31,-4(ra)
	...
 5b4:	00000028 	0x28
 5b8:	00000011 	mthi	zero
 5bc:	0000001f 	0x1f
 5c0:	600a6891 	0x600a6891
 5c4:	80020000 	lb	v0,0(zero)
 5c8:	fffffffc 	sdc3	$31,-4(ra)
	...
 5d4:	00000010 	mfhi	zero
 5d8:	00000011 	mthi	zero
 5dc:	0000001f 	0x1f
 5e0:	600a68f5 	0x600a68f5
 5e4:	80020000 	lb	v0,0(zero)
 5e8:	fffffffc 	sdc3	$31,-4(ra)
	...
 5f4:	00000010 	mfhi	zero
 5f8:	00000011 	mthi	zero
 5fc:	0000001f 	0x1f
 600:	600a6959 	0x600a6959
 604:	80020000 	lb	v0,0(zero)
 608:	fffffffc 	sdc3	$31,-4(ra)
	...
 614:	00000018 	mult	zero,zero
 618:	00000011 	mthi	zero
 61c:	0000001f 	0x1f
 620:	600a69b5 	0x600a69b5
 624:	80020000 	lb	v0,0(zero)
 628:	fffffffc 	sdc3	$31,-4(ra)
	...
 634:	00000010 	mfhi	zero
 638:	00000011 	mthi	zero
 63c:	0000001f 	0x1f
 640:	600a6a19 	0x600a6a19
 644:	80020000 	lb	v0,0(zero)
 648:	fffffffc 	sdc3	$31,-4(ra)
	...
 654:	00000010 	mfhi	zero
 658:	00000011 	mthi	zero
 65c:	0000001f 	0x1f
 660:	600a6a51 	0x600a6a51
 664:	80020000 	lb	v0,0(zero)
 668:	fffffffc 	sdc3	$31,-4(ra)
	...
 674:	00000010 	mfhi	zero
 678:	00000011 	mthi	zero
 67c:	0000001f 	0x1f
 680:	601269c1 	0x601269c1
 684:	80020000 	lb	v0,0(zero)
 688:	fffffffc 	sdc3	$31,-4(ra)
	...
 694:	00000008 	jr	zero
 698:	00000011 	mthi	zero
 69c:	0000001f 	0x1f
 6a0:	60a26801 	0x60a26801
	...
 6b8:	0000001d 	0x1d
 6bc:	0000001f 	0x1f
 6c0:	60a26829 	0x60a26829
	...
 6d8:	0000001d 	0x1d
 6dc:	0000001f 	0x1f
 6e0:	60a26861 	0x60a26861
 6e4:	80030000 	lb	v1,0(zero)
 6e8:	fffffffc 	sdc3	$31,-4(ra)
	...
 6f4:	00000028 	0x28
 6f8:	0000001d 	0x1d
 6fc:	0000001f 	0x1f
 700:	60a26951 	0x60a26951
 704:	80030000 	lb	v1,0(zero)
 708:	fffffffc 	sdc3	$31,-4(ra)
	...
 714:	00000028 	0x28
 718:	0000001d 	0x1d
 71c:	0000001f 	0x1f
 720:	60a26a29 	0x60a26a29
 724:	80030000 	lb	v1,0(zero)
 728:	fffffffc 	sdc3	$31,-4(ra)
	...
 734:	00000038 	0x38
 738:	0000001d 	0x1d
 73c:	0000001f 	0x1f
 740:	60a26afd 	0x60a26afd
 744:	80000000 	lb	zero,0(zero)
 748:	fffffffc 	sdc3	$31,-4(ra)
	...
 754:	00000020 	add	zero,zero,zero
 758:	0000001d 	0x1d
 75c:	0000001f 	0x1f
 760:	60a26b19 	0x60a26b19
 764:	80000000 	lb	zero,0(zero)
 768:	fffffffc 	sdc3	$31,-4(ra)
	...
 774:	00000020 	add	zero,zero,zero
 778:	0000001d 	0x1d
 77c:	0000001f 	0x1f
 780:	60a26b35 	0x60a26b35
 784:	80030000 	lb	v1,0(zero)
 788:	fffffffc 	sdc3	$31,-4(ra)
	...
 794:	00000020 	add	zero,zero,zero
 798:	0000001d 	0x1d
 79c:	0000001f 	0x1f
 7a0:	60a26b81 	0x60a26b81
	...
 7b8:	0000001d 	0x1d
 7bc:	0000001f 	0x1f
 7c0:	60a26bb9 	0x60a26bb9
 7c4:	80030000 	lb	v1,0(zero)
 7c8:	fffffffc 	sdc3	$31,-4(ra)
	...
 7d4:	00000020 	add	zero,zero,zero
 7d8:	0000001d 	0x1d
 7dc:	0000001f 	0x1f
 7e0:	60a26c0d 	0x60a26c0d
	...
 7f8:	0000001d 	0x1d
 7fc:	0000001f 	0x1f
 800:	60a26c41 	0x60a26c41
	...
 818:	0000001d 	0x1d
 81c:	0000001f 	0x1f
 820:	60a26c85 	0x60a26c85
 824:	80030000 	lb	v1,0(zero)
 828:	fffffffc 	sdc3	$31,-4(ra)
	...
 834:	00000028 	0x28
 838:	0000001d 	0x1d
 83c:	0000001f 	0x1f
 840:	60a26cc9 	0x60a26cc9
 844:	80000000 	lb	zero,0(zero)
 848:	fffffffc 	sdc3	$31,-4(ra)
	...
 854:	00000018 	mult	zero,zero
 858:	0000001d 	0x1d
 85c:	0000001f 	0x1f
 860:	60a66801 	0x60a66801
 864:	80010000 	lb	at,0(zero)
 868:	fffffffc 	sdc3	$31,-4(ra)
	...
 874:	00000028 	0x28
 878:	0000001d 	0x1d
 87c:	0000001f 	0x1f
 880:	60a6684d 	0x60a6684d
 884:	80030000 	lb	v1,0(zero)
 888:	fffffffc 	sdc3	$31,-4(ra)
	...
 894:	00000030 	tge	zero,zero
 898:	0000001d 	0x1d
 89c:	0000001f 	0x1f
 8a0:	60a668bd 	0x60a668bd
 8a4:	80030000 	lb	v1,0(zero)
 8a8:	fffffffc 	sdc3	$31,-4(ra)
	...
 8b4:	00000030 	tge	zero,zero
 8b8:	0000001d 	0x1d
 8bc:	0000001f 	0x1f
 8c0:	60a6691d 	0x60a6691d
	...
 8d8:	0000001d 	0x1d
 8dc:	0000001f 	0x1f
Disassembly of section .debug_abbrev:

00000000 <.debug_abbrev>:
   0:	10011101 	beq	zero,at,4408 <SRAM_AP_BANK_BACK_AL_1_SIZE+0x408>
   4:	13082506 	beq	t8,t0,9420 <SRAM_BANK_B_ADDR+0x20>
   8:	1b08030b 	0x1b08030b
   c:	02000008 	jr	s0
  10:	08030024 	j	c0090 <AP_BANK_SPACE+0x80090>
  14:	0b3e0b0b 	j	cf82c2c <AP_BANK_SPACE+0xcf42c2c>
  18:	16030000 	bne	s0,v1,1c <SRAM_CARD_GLOBAL_DATA_SIZE+0xc>
  1c:	3a080300 	xori	t0,s0,0x300
  20:	490b3b0b 	bc2tl	$cc2,ec50 <SRAM_ASRC_BUF_0_ADDR+0xc50>
  24:	04000013 	bltz	zero,74 <AP_BANK_BTENGINE_LIB_2>
  28:	0e030024 	jal	80c0090 <AP_BANK_SPACE+0x8080090>
  2c:	0b3e0b0b 	j	cf82c2c <AP_BANK_SPACE+0xcf42c2c>
  30:	0f050000 	jal	c140000 <AP_BANK_SPACE+0xc100000>
  34:	000b0b00 	sll	at,t3,0xc
  38:	01010600 	0x1010600
  3c:	13491301 	beq	k0,t1,4c44 <SRAM_AP_BANK_BACK_AL_1_SIZE+0xc44>
  40:	21070000 	addi	a3,t0,0
  44:	2f134900 	sltiu	s3,t8,18688
  48:	0800000b 	j	2c <SRAM_CARD_GLOBAL_DATA_SIZE+0x1c>
  4c:	13010113 	beq	t8,at,49c <SRAM_AP_BACK_DATA_SIZE+0x9c>
  50:	0b3a0b0b 	j	ce82c2c <AP_BANK_SPACE+0xce42c2c>
  54:	00000b3b 	0xb3b
  58:	03000d09 	0x3000d09
  5c:	3b0b3a08 	xori	t3,t8,0x3a08
  60:	3813490b 	xori	s3,zero,0x490b
  64:	0a00000a 	j	8000028 <AP_BANK_SPACE+0x7fc0028>
  68:	0b0b000f 	j	c2c003c <AP_BANK_SPACE+0xc28003c>
  6c:	00001349 	0x1349
  70:	0101040b 	0x101040b
  74:	3a0b0b13 	xori	t3,s0,0xb13
  78:	000b3b0b 	0xb3b0b
  7c:	00280c00 	0x280c00
  80:	0d1c0803 	jal	470200c <AP_BANK_SPACE+0x46c200c>
  84:	160d0000 	bne	s0,t5,88 <SRAM_CARD_DATA_SIZE+0x8>
  88:	3a080300 	xori	t0,s0,0x300
  8c:	49053b0b 	bc2t	$cc1,ecbc <SRAM_ASRC_BUF_0_ADDR+0xcbc>
  90:	0e000013 	jal	800004c <AP_BANK_SPACE+0x7fc004c>
  94:	13010117 	beq	t8,at,4f4 <SRAM_AP_BACK_DATA_SIZE+0xf4>
  98:	0b3a0b0b 	j	ce82c2c <AP_BANK_SPACE+0xce42c2c>
  9c:	0000053b 	0x53b
  a0:	03000d0f 	0x3000d0f
  a4:	3b0b3a08 	xori	t3,t8,0x3a08
  a8:	00134905 	0x134905
  ac:	01131000 	0x1131000
  b0:	0b0b1301 	j	c2c4c04 <AP_BANK_SPACE+0xc284c04>
  b4:	053b0b3a 	0x53b0b3a
  b8:	0d110000 	jal	4440000 <AP_BANK_SPACE+0x4400000>
  bc:	3a080300 	xori	t0,s0,0x300
  c0:	49053b0b 	bc2t	$cc1,ecf0 <SRAM_ASRC_BUF_0_ADDR+0xcf0>
  c4:	000a3813 	0xa3813
  c8:	000d1200 	sll	v0,t5,0x8
  cc:	0b3a0803 	j	ce8200c <AP_BANK_SPACE+0xce4200c>
  d0:	1349053b 	beq	k0,t1,15c0 <SRAM_BTCALL_CALLRING_BUF_SIZE+0x5c0>
  d4:	0b0d0b0b 	j	c342c2c <AP_BANK_SPACE+0xc302c2c>
  d8:	0a380b0c 	j	8e02c30 <AP_BANK_SPACE+0x8dc2c30>
  dc:	0d130000 	jal	44c0000 <AP_BANK_SPACE+0x4480000>
  e0:	3a0e0300 	xori	t6,s0,0x300
  e4:	49053b0b 	bc2t	$cc1,ed14 <SRAM_ASRC_BUF_0_ADDR+0xd14>
  e8:	000a3813 	0xa3813
  ec:	000d1400 	sll	v0,t5,0x10
  f0:	0b3a0e03 	j	ce8380c <AP_BANK_SPACE+0xce4380c>
  f4:	1349053b 	beq	k0,t1,15e4 <SRAM_BTCALL_CALLRING_BUF_SIZE+0x5e4>
  f8:	0b0d0b0b 	j	c342c2c <AP_BANK_SPACE+0xc302c2c>
  fc:	0a380b0c 	j	8e02c30 <AP_BANK_SPACE+0x8dc2c30>
 100:	2e150000 	sltiu	s5,s0,0
 104:	3f130101 	0x3f130101
 108:	3a08030c 	xori	t0,s0,0x30c
 10c:	270b3b0b 	addiu	t3,t8,15115
 110:	1201110c 	beq	s0,at,4544 <SRAM_AP_BANK_BACK_AL_1_SIZE+0x544>
 114:	000a4001 	0xa4001
 118:	00051600 	sll	v0,a1,0x18
 11c:	0b3a0803 	j	ce8200c <AP_BANK_SPACE+0xce4200c>
 120:	13490b3b 	beq	k0,t1,2e10 <SRAM_BTSTACK_AVDTP_DATA_SIZE+0x490>
 124:	00000a02 	srl	at,zero,0x8
 128:	01012e17 	0x1012e17
 12c:	030c3f13 	0x30c3f13
 130:	3b0b3a08 	xori	t3,t8,0x3a08
 134:	490c270b 	bc2f	$cc3,9d64 <SRAM_UI_RCODE_ADDR+0x164>
 138:	12011113 	beq	s0,at,4588 <SRAM_AP_BANK_BACK_AL_1_SIZE+0x588>
 13c:	000a4001 	0xa4001
 140:	00341800 	0x341800
 144:	0b3a0e03 	j	ce8380c <AP_BANK_SPACE+0xce4380c>
 148:	13490b3b 	beq	k0,t1,2e38 <SRAM_BTSTACK_AVDTP_DATA_SIZE+0x4b8>
 14c:	00000a02 	srl	at,zero,0x8
 150:	03003419 	0x3003419
 154:	3b0b3a08 	xori	t3,t8,0x3a08
 158:	0213490b 	0x213490b
 15c:	1a00000a 	blez	s0,188 <SRAM_BTMANAGER_DATA_SIZE+0x48>
 160:	08030034 	j	c00d0 <AP_BANK_SPACE+0x800d0>
 164:	0b3b0b3a 	j	cec2ce8 <AP_BANK_SPACE+0xce82ce8>
 168:	0c3f1349 	jal	fc4d24 <AP_BANK_SPACE+0xf84d24>
 16c:	00000c3c 	0xc3c
 170:	0300341b 	0x300341b
 174:	3b0b3a08 	xori	t3,t8,0x3a08
 178:	3f134905 	0x3f134905
 17c:	000c3c0c 	syscall	0x30f0
 180:	11010000 	beq	t0,at,184 <SRAM_BTMANAGER_DATA_SIZE+0x44>
 184:	12061001 	beq	s0,a2,418c <SRAM_AP_BANK_BACK_AL_1_SIZE+0x18c>
 188:	25011101 	addiu	at,t0,4353
 18c:	030b1308 	0x30b1308
 190:	00081b08 	0x81b08
 194:	00240200 	0x240200
 198:	0b0b0803 	j	c2c200c <AP_BANK_SPACE+0xc28200c>
 19c:	00000b3e 	0xb3e
 1a0:	03001603 	0x3001603
 1a4:	3b0b3a08 	xori	t3,t8,0x3a08
 1a8:	0013490b 	0x13490b
 1ac:	00240400 	0x240400
 1b0:	0b0b0e03 	j	c2c380c <AP_BANK_SPACE+0xc28380c>
 1b4:	00000b3e 	0xb3e
 1b8:	0b000f05 	j	c003c14 <AP_BANK_SPACE+0xbfc3c14>
 1bc:	0600000b 	bltz	s0,1ec <SRAM_BTMANAGER_DATA_SIZE+0xac>
 1c0:	13010101 	beq	t8,at,5c8 <SRAM_BT_CONTROLLER_RCODE_SIZE+0xc8>
 1c4:	00001349 	0x1349
 1c8:	49002107 	bc2f	85e8 <SRAM_OS_RCODE_ADDR+0x5e8>
 1cc:	000b2f13 	0xb2f13
 1d0:	01130800 	0x1130800
 1d4:	0b0b1301 	j	c2c4c04 <AP_BANK_SPACE+0xc284c04>
 1d8:	0b3b0b3a 	j	cec2ce8 <AP_BANK_SPACE+0xce82ce8>
 1dc:	0d090000 	jal	4240000 <AP_BANK_SPACE+0x4200000>
 1e0:	3a080300 	xori	t0,s0,0x300
 1e4:	490b3b0b 	bc2tl	$cc2,ee14 <SRAM_ASRC_BUF_0_ADDR+0xe14>
 1e8:	000a3813 	0xa3813
 1ec:	000f0a00 	sll	at,t7,0x8
 1f0:	13490b0b 	beq	k0,t1,2e20 <SRAM_BTSTACK_AVDTP_DATA_SIZE+0x4a0>
 1f4:	040b0000 	tltiu	zero,0
 1f8:	0b130101 	j	c4c0404 <AP_BANK_SPACE+0xc480404>
 1fc:	3b0b3a0b 	xori	t3,t8,0x3a0b
 200:	0c00000b 	jal	2c <SRAM_CARD_GLOBAL_DATA_SIZE+0x1c>
 204:	08030028 	j	c00a0 <AP_BANK_SPACE+0x800a0>
 208:	00000d1c 	0xd1c
 20c:	0300160d 	break	0x300,0x58
 210:	3b0b3a08 	xori	t3,t8,0x3a08
 214:	00134905 	0x134905
 218:	01170e00 	0x1170e00
 21c:	0b0b1301 	j	c2c4c04 <AP_BANK_SPACE+0xc284c04>
 220:	053b0b3a 	0x53b0b3a
 224:	0d0f0000 	jal	43c0000 <AP_BANK_SPACE+0x4380000>
 228:	3a080300 	xori	t0,s0,0x300
 22c:	49053b0b 	bc2t	$cc1,ee5c <SRAM_ASRC_BUF_0_ADDR+0xe5c>
 230:	10000013 	b	280 <SRAM_AP_RCP_COMMAND_BUFFER_SIZE+0x60>
 234:	13010113 	beq	t8,at,684 <SRAM_OS_HEAP_SIZE+0x4>
 238:	0b3a0b0b 	j	ce82c2c <AP_BANK_SPACE+0xce42c2c>
 23c:	0000053b 	0x53b
 240:	03000d11 	0x3000d11
 244:	3b0b3a08 	xori	t3,t8,0x3a08
 248:	38134905 	xori	s3,zero,0x4905
 24c:	1200000a 	beqz	s0,278 <SRAM_AP_RCP_COMMAND_BUFFER_SIZE+0x58>
 250:	0e03000d 	jal	80c0034 <AP_BANK_SPACE+0x8080034>
 254:	053b0b3a 	0x53b0b3a
 258:	0a381349 	j	8e04d24 <AP_BANK_SPACE+0x8dc4d24>
 25c:	0d130000 	jal	44c0000 <AP_BANK_SPACE+0x4480000>
 260:	3a080300 	xori	t0,s0,0x300
 264:	49053b0b 	bc2t	$cc1,ee94 <SRAM_ASRC_BUF_0_ADDR+0xe94>
 268:	0d0b0b13 	jal	42c2c4c <AP_BANK_SPACE+0x4282c4c>
 26c:	380b0c0b 	xori	t3,zero,0xc0b
 270:	1400000a 	bnez	zero,29c <SRAM_AP_RCP_COMMAND_BUFFER_SIZE+0x7c>
 274:	0e03000d 	jal	80c0034 <AP_BANK_SPACE+0x8080034>
 278:	053b0b3a 	0x53b0b3a
 27c:	0b0b1349 	j	c2c4d24 <AP_BANK_SPACE+0xc284d24>
 280:	0b0c0b0d 	j	c302c34 <AP_BANK_SPACE+0xc2c2c34>
 284:	00000a38 	0xa38
 288:	01012e15 	0x1012e15
 28c:	030c3f13 	0x30c3f13
 290:	3b0b3a08 	xori	t3,t8,0x3a08
 294:	490c270b 	bc2f	$cc3,9ec4 <SRAM_UI_RCODE_ADDR+0x2c4>
 298:	12011113 	beq	s0,at,46e8 <SRAM_AP_BANK_BACK_AL_1_SIZE+0x6e8>
 29c:	000a4001 	0xa4001
 2a0:	00051600 	sll	v0,a1,0x18
 2a4:	0b3a0e03 	j	ce8380c <AP_BANK_SPACE+0xce4380c>
 2a8:	13490b3b 	beq	k0,t1,2f98 <SRAM_BTSTACK_AVDTP_DATA_SIZE+0x618>
 2ac:	00000a02 	srl	at,zero,0x8
 2b0:	03003417 	0x3003417
 2b4:	3b0b3a0e 	xori	t3,t8,0x3a0e
 2b8:	0213490b 	0x213490b
 2bc:	1800000a 	blez	zero,2e8 <SRAM_AP_RCP_COMMAND_BUFFER_SIZE+0xc8>
 2c0:	08030034 	j	c00d0 <AP_BANK_SPACE+0x800d0>
 2c4:	0b3b0b3a 	j	cec2ce8 <AP_BANK_SPACE+0xce82ce8>
 2c8:	0a021349 	j	8084d24 <AP_BANK_SPACE+0x8044d24>
 2cc:	2e190000 	sltiu	t9,s0,0
 2d0:	03130101 	0x3130101
 2d4:	3b0b3a08 	xori	t3,t8,0x3a08
 2d8:	110c2705 	beq	t0,t4,9ef0 <SRAM_UI_RCODE_ADDR+0x2f0>
 2dc:	40011201 	0x40011201
 2e0:	1a00000a 	blez	s0,30c <SRAM_FS_DATA_SIZE+0xc>
 2e4:	0e030005 	jal	80c0014 <AP_BANK_SPACE+0x8080014>
 2e8:	053b0b3a 	0x53b0b3a
 2ec:	0a021349 	j	8084d24 <AP_BANK_SPACE+0x8044d24>
 2f0:	341b0000 	li	k1,0x0
 2f4:	3a080300 	xori	t0,s0,0x300
 2f8:	490b3b0b 	bc2tl	$cc2,ef28 <SRAM_ASRC_BUF_0_ADDR+0xf28>
 2fc:	3c0c3f13 	lui	t4,0x3f13
 300:	1c00000c 	bgtz	zero,334 <SRAM_FS_DATA_SIZE+0x34>
 304:	08030034 	j	c00d0 <AP_BANK_SPACE+0x800d0>
 308:	053b0b3a 	0x53b0b3a
 30c:	0c3f1349 	jal	fc4d24 <AP_BANK_SPACE+0xf84d24>
 310:	00000c3c 	0xc3c
 314:	01110100 	0x1110100
 318:	01120610 	0x1120610
 31c:	08250111 	j	940444 <AP_BANK_SPACE+0x900444>
 320:	08030b13 	j	c2c4c <AP_BANK_SPACE+0x82c4c>
 324:	0000081b 	0x81b
 328:	03002402 	0x3002402
 32c:	3e0b0b08 	0x3e0b0b08
 330:	0300000b 	movn	zero,t8,zero
 334:	08030016 	j	c0058 <AP_BANK_SPACE+0x80058>
 338:	0b3b0b3a 	j	cec2ce8 <AP_BANK_SPACE+0xce82ce8>
 33c:	00001349 	0x1349
 340:	03002404 	0x3002404
 344:	3e0b0b0e 	0x3e0b0b0e
 348:	0500000b 	bltz	t0,378 <SRAM_FS_DATA_SIZE+0x78>
 34c:	0b0b000f 	j	c2c003c <AP_BANK_SPACE+0xc28003c>
 350:	01060000 	0x1060000
 354:	49130101 	bc2tl	$cc4,75c <SRAM_AP_FRONT_DATA_SIZE+0x5c>
 358:	07000013 	bltz	t8,3a8 <SRAM_FS_DATA_SIZE+0xa8>
 35c:	13490021 	beq	k0,t1,3e4 <SRAM_FS_DATA_SIZE+0xe4>
 360:	00000b2f 	0xb2f
 364:	01011308 	0x1011308
 368:	3a0b0b13 	xori	t3,s0,0xb13
 36c:	000b3b0b 	0xb3b0b
 370:	000d0900 	sll	at,t5,0x4
 374:	0b3a0803 	j	ce8200c <AP_BANK_SPACE+0xce4200c>
 378:	13490b3b 	beq	k0,t1,3068 <SRAM_BTSTACK_AVDTP_DATA_SIZE+0x6e8>
 37c:	00000a38 	0xa38
 380:	0b000f0a 	j	c003c28 <AP_BANK_SPACE+0xbfc3c28>
 384:	0013490b 	0x13490b
 388:	01040b00 	0x1040b00
 38c:	0b0b1301 	j	c2c4c04 <AP_BANK_SPACE+0xc284c04>
 390:	0b3b0b3a 	j	cec2ce8 <AP_BANK_SPACE+0xce82ce8>
 394:	280c0000 	slti	t4,zero,0
 398:	1c080300 	0x1c080300
 39c:	0d00000d 	jal	4000034 <AP_BANK_SPACE+0x3fc0034>
 3a0:	08030016 	j	c0058 <AP_BANK_SPACE+0x80058>
 3a4:	053b0b3a 	0x53b0b3a
 3a8:	00001349 	0x1349
 3ac:	0101170e 	0x101170e
 3b0:	3a0b0b13 	xori	t3,s0,0xb13
 3b4:	00053b0b 	0x53b0b
 3b8:	000d0f00 	sll	at,t5,0x1c
 3bc:	0b3a0803 	j	ce8200c <AP_BANK_SPACE+0xce4200c>
 3c0:	1349053b 	beq	k0,t1,18b0 <SRAM_BTCALL_CALLRING_BUF_SIZE+0x8b0>
 3c4:	13100000 	beq	t8,s0,3c8 <SRAM_FS_DATA_SIZE+0xc8>
 3c8:	0b130101 	j	c4c0404 <AP_BANK_SPACE+0xc480404>
 3cc:	3b0b3a0b 	xori	t3,t8,0x3a0b
 3d0:	11000005 	beqz	t0,3e8 <SRAM_FS_DATA_SIZE+0xe8>
 3d4:	0803000d 	j	c0034 <AP_BANK_SPACE+0x80034>
 3d8:	053b0b3a 	0x53b0b3a
 3dc:	0a381349 	j	8e04d24 <AP_BANK_SPACE+0x8dc4d24>
 3e0:	0d120000 	jal	4480000 <AP_BANK_SPACE+0x4440000>
 3e4:	3a080300 	xori	t0,s0,0x300
 3e8:	49053b0b 	bc2t	$cc1,f018 <SRAM_ASRC_BUF_1_ADDR+0x18>
 3ec:	0d0b0b13 	jal	42c2c4c <AP_BANK_SPACE+0x4282c4c>
 3f0:	380b0c0b 	xori	t3,zero,0xc0b
 3f4:	1300000a 	beqz	t8,420 <SRAM_AP_BACK_DATA_SIZE+0x20>
 3f8:	0e03000d 	jal	80c0034 <AP_BANK_SPACE+0x8080034>
 3fc:	053b0b3a 	0x53b0b3a
 400:	0a381349 	j	8e04d24 <AP_BANK_SPACE+0x8dc4d24>
 404:	0d140000 	jal	4500000 <AP_BANK_SPACE+0x44c0000>
 408:	3a0e0300 	xori	t6,s0,0x300
 40c:	49053b0b 	bc2t	$cc1,f03c <SRAM_ASRC_BUF_1_ADDR+0x3c>
 410:	0d0b0b13 	jal	42c2c4c <AP_BANK_SPACE+0x4282c4c>
 414:	380b0c0b 	xori	t3,zero,0xc0b
 418:	1500000a 	bnez	t0,444 <SRAM_AP_BACK_DATA_SIZE+0x44>
 41c:	1301012e 	beq	t8,at,8d8 <SRAM_OS_DATA_SIZE+0x58>
 420:	08030c3f 	j	c30fc <AP_BANK_SPACE+0x830fc>
 424:	0b3b0b3a 	j	cec2ce8 <AP_BANK_SPACE+0xce82ce8>
 428:	13490c27 	beq	k0,t1,34c8 <SRAM_BT_HEAD_SIZE+0xc8>
 42c:	01120111 	0x1120111
 430:	00000a40 	sll	at,zero,0x9
 434:	03000516 	0x3000516
 438:	3b0b3a08 	xori	t3,t8,0x3a08
 43c:	0213490b 	0x213490b
 440:	1700000a 	bnez	t8,46c <SRAM_AP_BACK_DATA_SIZE+0x6c>
 444:	0e030034 	jal	80c00d0 <AP_BANK_SPACE+0x80800d0>
 448:	0b3b0b3a 	j	cec2ce8 <AP_BANK_SPACE+0xce82ce8>
 44c:	0a021349 	j	8084d24 <AP_BANK_SPACE+0x8044d24>
 450:	34180000 	li	t8,0x0
 454:	3a080300 	xori	t0,s0,0x300
 458:	490b3b0b 	bc2tl	$cc2,f088 <SRAM_ASRC_BUF_1_ADDR+0x88>
 45c:	000a0213 	0xa0213
 460:	00341900 	0x341900
 464:	0b3a0803 	j	ce8200c <AP_BANK_SPACE+0xce4200c>
 468:	13490b3b 	beq	k0,t1,3158 <SRAM_BTSTACK_AVDTP_DATA_SIZE+0x7d8>
 46c:	0c3c0c3f 	jal	f030fc <AP_BANK_SPACE+0xec30fc>
 470:	341a0000 	li	k0,0x0
 474:	3a080300 	xori	t0,s0,0x300
 478:	49053b0b 	bc2t	$cc1,f0a8 <SRAM_ASRC_BUF_1_ADDR+0xa8>
 47c:	3c0c3f13 	lui	t4,0x3f13
 480:	0000000c 	syscall
 484:	10011101 	beq	zero,at,488c <SRAM_AP_BANK_BACK_AL_1_SIZE+0x88c>
 488:	11011206 	beq	t0,at,4ca4 <SRAM_AP_BANK_BACK_AL_1_SIZE+0xca4>
 48c:	13082501 	beq	t8,t0,9894 <SRAM_BANK_B_ADDR+0x494>
 490:	1b08030b 	0x1b08030b
 494:	02000008 	jr	s0
 498:	08030024 	j	c0090 <AP_BANK_SPACE+0x80090>
 49c:	0b3e0b0b 	j	cf82c2c <AP_BANK_SPACE+0xcf42c2c>
 4a0:	16030000 	bne	s0,v1,4a4 <SRAM_AP_BACK_DATA_SIZE+0xa4>
 4a4:	3a080300 	xori	t0,s0,0x300
 4a8:	490b3b0b 	bc2tl	$cc2,f0d8 <SRAM_ASRC_BUF_1_ADDR+0xd8>
 4ac:	04000013 	bltz	zero,4fc <SRAM_AP_BACK_DATA_SIZE+0xfc>
 4b0:	0e030024 	jal	80c0090 <AP_BANK_SPACE+0x8080090>
 4b4:	0b3e0b0b 	j	cf82c2c <AP_BANK_SPACE+0xcf42c2c>
 4b8:	0f050000 	jal	c140000 <AP_BANK_SPACE+0xc100000>
 4bc:	000b0b00 	sll	at,t3,0xc
 4c0:	000f0600 	sll	zero,t7,0x18
 4c4:	13490b0b 	beq	k0,t1,30f4 <SRAM_BTSTACK_AVDTP_DATA_SIZE+0x774>
 4c8:	01070000 	0x1070000
 4cc:	49130101 	bc2tl	$cc4,8d4 <SRAM_OS_DATA_SIZE+0x54>
 4d0:	08000013 	j	4c <AP_BANK_FRONT_UI_1+0x4>
 4d4:	13490021 	beq	k0,t1,55c <SRAM_BT_CONTROLLER_RCODE_SIZE+0x5c>
 4d8:	00000b2f 	0xb2f
 4dc:	01010409 	0x1010409
 4e0:	3a0b0b13 	xori	t3,s0,0xb13
 4e4:	000b3b0b 	0xb3b0b
 4e8:	00280a00 	0x280a00
 4ec:	0d1c0803 	jal	470200c <AP_BANK_SPACE+0x46c200c>
 4f0:	130b0000 	beq	t8,t3,4f4 <SRAM_AP_BACK_DATA_SIZE+0xf4>
 4f4:	0b130101 	j	c4c0404 <AP_BANK_SPACE+0xc480404>
 4f8:	3b0b3a0b 	xori	t3,t8,0x3a0b
 4fc:	0c00000b 	jal	2c <SRAM_CARD_GLOBAL_DATA_SIZE+0x1c>
 500:	0803000d 	j	c0034 <AP_BANK_SPACE+0x80034>
 504:	0b3b0b3a 	j	cec2ce8 <AP_BANK_SPACE+0xce82ce8>
 508:	0a381349 	j	8e04d24 <AP_BANK_SPACE+0x8dc4d24>
 50c:	160d0000 	bne	s0,t5,510 <SRAM_BT_CONTROLLER_RCODE_SIZE+0x10>
 510:	3a080300 	xori	t0,s0,0x300
 514:	49053b0b 	bc2t	$cc1,f144 <SRAM_ASRC_BUF_1_ADDR+0x144>
 518:	0e000013 	jal	800004c <AP_BANK_SPACE+0x7fc004c>
 51c:	13010113 	beq	t8,at,96c <SRAM_OS_DATA_SIZE+0xec>
 520:	0b3a0b0b 	j	ce82c2c <AP_BANK_SPACE+0xce42c2c>
 524:	0000053b 	0x53b
 528:	03000d0f 	0x3000d0f
 52c:	3b0b3a08 	xori	t3,t8,0x3a08
 530:	38134905 	xori	s3,zero,0x4905
 534:	1000000a 	b	560 <SRAM_BT_CONTROLLER_RCODE_SIZE+0x60>
 538:	0e03000d 	jal	80c0034 <AP_BANK_SPACE+0x8080034>
 53c:	053b0b3a 	0x53b0b3a
 540:	0a381349 	j	8e04d24 <AP_BANK_SPACE+0x8dc4d24>
 544:	0d110000 	jal	4440000 <AP_BANK_SPACE+0x4400000>
 548:	3a080300 	xori	t0,s0,0x300
 54c:	49053b0b 	bc2t	$cc1,f17c <SRAM_ASRC_BUF_1_ADDR+0x17c>
 550:	0d0b0b13 	jal	42c2c4c <AP_BANK_SPACE+0x4282c4c>
 554:	380b0c0b 	xori	t3,zero,0xc0b
 558:	1200000a 	beqz	s0,584 <SRAM_BT_CONTROLLER_RCODE_SIZE+0x84>
 55c:	0e03000d 	jal	80c0034 <AP_BANK_SPACE+0x8080034>
 560:	053b0b3a 	0x53b0b3a
 564:	0b0b1349 	j	c2c4d24 <AP_BANK_SPACE+0xc284d24>
 568:	0b0c0b0d 	j	c302c34 <AP_BANK_SPACE+0xc2c2c34>
 56c:	00000a38 	0xa38
 570:	03000d13 	0x3000d13
 574:	3b0b3a0e 	xori	t3,t8,0x3a0e
 578:	3813490b 	xori	s3,zero,0x490b
 57c:	1400000a 	bnez	zero,5a8 <SRAM_BT_CONTROLLER_RCODE_SIZE+0xa8>
 580:	13010113 	beq	t8,at,9d0 <SRAM_OS_DATA_SIZE+0x150>
 584:	0b3a050b 	j	ce8142c <AP_BANK_SPACE+0xce4142c>
 588:	0000053b 	0x53b
 58c:	3f002e15 	0x3f002e15
 590:	3a08030c 	xori	t0,s0,0x30c
 594:	270b3b0b 	addiu	t3,t8,15115
 598:	1201110c 	beq	s0,at,49cc <SRAM_AP_BANK_BACK_AL_1_SIZE+0x9cc>
 59c:	000a4001 	0xa4001
 5a0:	002e1600 	0x2e1600
 5a4:	0b3a0803 	j	ce8200c <AP_BANK_SPACE+0xce4200c>
 5a8:	0c270b3b 	jal	9c2cec <AP_BANK_SPACE+0x982cec>
 5ac:	01120111 	0x1120111
 5b0:	00000a40 	sll	at,zero,0x9
 5b4:	01012e17 	0x1012e17
 5b8:	030c3f13 	0x30c3f13
 5bc:	3b0b3a08 	xori	t3,t8,0x3a08
 5c0:	110c270b 	beq	t0,t4,a1f0 <SRAM_BT_LIB1_BANK_ADDR+0x1f0>
 5c4:	40011201 	0x40011201
 5c8:	1800000a 	blez	zero,5f4 <SRAM_BT_CONTROLLER_RCODE_SIZE+0xf4>
 5cc:	08030005 	j	c0014 <AP_BANK_SPACE+0x80014>
 5d0:	0b3b0b3a 	j	cec2ce8 <AP_BANK_SPACE+0xce82ce8>
 5d4:	0a021349 	j	8084d24 <AP_BANK_SPACE+0x8044d24>
 5d8:	2e190000 	sltiu	t9,s0,0
 5dc:	3f130101 	0x3f130101
 5e0:	3a08030c 	xori	t0,s0,0x30c
 5e4:	270b3b0b 	addiu	t3,t8,15115
 5e8:	1113490c 	beq	t0,s3,12a1c <SRAM_BT_BACK_RCODE_ADDR+0x1a1c>
 5ec:	40011201 	0x40011201
 5f0:	1a00000a 	blez	s0,61c <SRAM_AP_BACK_BASAL_RCODE_SIZE+0x1c>
 5f4:	08030034 	j	c00d0 <AP_BANK_SPACE+0x800d0>
 5f8:	0b3b0b3a 	j	cec2ce8 <AP_BANK_SPACE+0xce82ce8>
 5fc:	0a021349 	j	8084d24 <AP_BANK_SPACE+0x8044d24>
 600:	2e1b0000 	sltiu	k1,s0,0
 604:	030c3f00 	0x30c3f00
 608:	3b0b3a08 	xori	t3,t8,0x3a08
 60c:	490c270b 	bc2f	$cc3,a23c <SRAM_BT_LIB1_BANK_ADDR+0x23c>
 610:	12011113 	beq	s0,at,4a60 <SRAM_AP_BANK_BACK_AL_1_SIZE+0xa60>
 614:	000a4001 	0xa4001
 618:	00261c00 	0x261c00
 61c:	00001349 	0x1349
 620:	01012e1d 	0x1012e1d
 624:	3a080313 	xori	t0,s0,0x313
 628:	27053b0b 	addiu	a1,t8,15115
 62c:	1201110c 	beq	s0,at,4a60 <SRAM_AP_BANK_BACK_AL_1_SIZE+0xa60>
 630:	000a4001 	0xa4001
 634:	00051e00 	sll	v1,a1,0x18
 638:	0b3a0e03 	j	ce8380c <AP_BANK_SPACE+0xce4380c>
 63c:	1349053b 	beq	k0,t1,1b2c <SRAM_BTCALL_CALLRING_BUF_SIZE+0xb2c>
 640:	00000a02 	srl	at,zero,0x8
 644:	0300341f 	0x300341f
 648:	3b0b3a08 	xori	t3,t8,0x3a08
 64c:	3f13490b 	0x3f13490b
 650:	000c3c0c 	syscall	0x30f0
 654:	00342000 	0x342000
 658:	0b3a0803 	j	ce8200c <AP_BANK_SPACE+0xce4200c>
 65c:	1349053b 	beq	k0,t1,1b4c <SRAM_BTCALL_CALLRING_BUF_SIZE+0xb4c>
 660:	0c3c0c3f 	jal	f030fc <AP_BANK_SPACE+0xec30fc>
 664:	34210000 	ori	at,at,0x0
 668:	3a080300 	xori	t0,s0,0x300
 66c:	490b3b0b 	bc2tl	$cc2,f29c <SRAM_ASRC_BUF_1_ADDR+0x29c>
 670:	020c3f13 	0x20c3f13
 674:	0000000a 	movz	zero,zero,zero
 678:	10011101 	beq	zero,at,4a80 <SRAM_AP_BANK_BACK_AL_1_SIZE+0xa80>
 67c:	11011206 	beq	t0,at,4e98 <SRAM_AP_BANK_BACK_AL_1_SIZE+0xe98>
 680:	13082501 	beq	t8,t0,9a88 <SRAM_BANK_B_ADDR+0x688>
 684:	1b08030b 	0x1b08030b
 688:	02000008 	jr	s0
 68c:	08030024 	j	c0090 <AP_BANK_SPACE+0x80090>
 690:	0b3e0b0b 	j	cf82c2c <AP_BANK_SPACE+0xcf42c2c>
 694:	16030000 	bne	s0,v1,698 <SRAM_OS_HEAP_SIZE+0x18>
 698:	3a080300 	xori	t0,s0,0x300
 69c:	490b3b0b 	bc2tl	$cc2,f2cc <SRAM_ASRC_BUF_1_ADDR+0x2cc>
 6a0:	04000013 	bltz	zero,6f0 <SRAM_OS_HEAP_SIZE+0x70>
 6a4:	0e030024 	jal	80c0090 <AP_BANK_SPACE+0x8080090>
 6a8:	0b3e0b0b 	j	cf82c2c <AP_BANK_SPACE+0xcf42c2c>
 6ac:	0f050000 	jal	c140000 <AP_BANK_SPACE+0xc100000>
 6b0:	000b0b00 	sll	at,t3,0xc
 6b4:	01010600 	0x1010600
 6b8:	13491301 	beq	k0,t1,52c0 <SRAM_AP_BANK_BACK_AL_1_SIZE+0x12c0>
 6bc:	21070000 	addi	a3,t0,0
 6c0:	2f134900 	sltiu	s3,t8,18688
 6c4:	0800000b 	j	2c <SRAM_CARD_GLOBAL_DATA_SIZE+0x1c>
 6c8:	13010113 	beq	t8,at,b18 <SRAM_COMMON_BT_MANAGER_SIZE+0x18>
 6cc:	0b3a0b0b 	j	ce82c2c <AP_BANK_SPACE+0xce42c2c>
 6d0:	00000b3b 	0xb3b
 6d4:	03000d09 	0x3000d09
 6d8:	3b0b3a08 	xori	t3,t8,0x3a08
 6dc:	3813490b 	xori	s3,zero,0x490b
 6e0:	0a00000a 	j	8000028 <AP_BANK_SPACE+0x7fc0028>
 6e4:	0b0b000f 	j	c2c003c <AP_BANK_SPACE+0xc28003c>
 6e8:	00001349 	0x1349
 6ec:	0101040b 	0x101040b
 6f0:	3a0b0b13 	xori	t3,s0,0xb13
 6f4:	000b3b0b 	0xb3b0b
 6f8:	00280c00 	0x280c00
 6fc:	0d1c0803 	jal	470200c <AP_BANK_SPACE+0x46c200c>
 700:	160d0000 	bne	s0,t5,704 <SRAM_AP_FRONT_DATA_SIZE+0x4>
 704:	3a080300 	xori	t0,s0,0x300
 708:	49053b0b 	bc2t	$cc1,f338 <SRAM_ASRC_BUF_1_ADDR+0x338>
 70c:	0e000013 	jal	800004c <AP_BANK_SPACE+0x7fc004c>
 710:	13010117 	beq	t8,at,b70 <SRAM_COMMON_BT_MANAGER_SIZE+0x70>
 714:	0b3a0b0b 	j	ce82c2c <AP_BANK_SPACE+0xce42c2c>
 718:	0000053b 	0x53b
 71c:	03000d0f 	0x3000d0f
 720:	3b0b3a08 	xori	t3,t8,0x3a08
 724:	00134905 	0x134905
 728:	01131000 	0x1131000
 72c:	0b0b1301 	j	c2c4c04 <AP_BANK_SPACE+0xc284c04>
 730:	053b0b3a 	0x53b0b3a
 734:	0d110000 	jal	4440000 <AP_BANK_SPACE+0x4400000>
 738:	3a080300 	xori	t0,s0,0x300
 73c:	49053b0b 	bc2t	$cc1,f36c <SRAM_ASRC_BUF_1_ADDR+0x36c>
 740:	000a3813 	0xa3813
 744:	000d1200 	sll	v0,t5,0x8
 748:	0b3a0803 	j	ce8200c <AP_BANK_SPACE+0xce4200c>
 74c:	1349053b 	beq	k0,t1,1c3c <SROM_FS_SIZE+0x3c>
 750:	0b0d0b0b 	j	c342c2c <AP_BANK_SPACE+0xc302c2c>
 754:	0a380b0c 	j	8e02c30 <AP_BANK_SPACE+0x8dc2c30>
 758:	0d130000 	jal	44c0000 <AP_BANK_SPACE+0x4480000>
 75c:	3a0e0300 	xori	t6,s0,0x300
 760:	49053b0b 	bc2t	$cc1,f390 <SRAM_ASRC_BUF_1_ADDR+0x390>
 764:	000a3813 	0xa3813
 768:	000d1400 	sll	v0,t5,0x10
 76c:	0b3a0e03 	j	ce8380c <AP_BANK_SPACE+0xce4380c>
 770:	1349053b 	beq	k0,t1,1c60 <SROM_FS_SIZE+0x60>
 774:	0b0d0b0b 	j	c342c2c <AP_BANK_SPACE+0xc302c2c>
 778:	0a380b0c 	j	8e02c30 <AP_BANK_SPACE+0x8dc2c30>
 77c:	0d150000 	jal	4540000 <AP_BANK_SPACE+0x4500000>
 780:	3a0e0300 	xori	t6,s0,0x300
 784:	490b3b0b 	bc2tl	$cc2,f3b4 <SRAM_ASRC_BUF_1_ADDR+0x3b4>
 788:	000a3813 	0xa3813
 78c:	01131600 	0x1131600
 790:	050b1301 	tltiu	t0,4865
 794:	053b0b3a 	0x53b0b3a
 798:	2e170000 	sltiu	s7,s0,0
 79c:	3f130101 	0x3f130101
 7a0:	3a08030c 	xori	t0,s0,0x30c
 7a4:	270b3b0b 	addiu	t3,t8,15115
 7a8:	1113490c 	beq	t0,s3,12bdc <SRAM_BT_BACK_RCODE_ADDR+0x1bdc>
 7ac:	40011201 	0x40011201
 7b0:	1800000a 	blez	zero,7dc <SRAM_AP_FRONT_DATA_SIZE+0xdc>
 7b4:	08030034 	j	c00d0 <AP_BANK_SPACE+0x800d0>
 7b8:	0b3b0b3a 	j	cec2ce8 <AP_BANK_SPACE+0xce82ce8>
 7bc:	0a021349 	j	8084d24 <AP_BANK_SPACE+0x8044d24>
 7c0:	05190000 	0x5190000
 7c4:	3a080300 	xori	t0,s0,0x300
 7c8:	490b3b0b 	bc2tl	$cc2,f3f8 <SRAM_ASRC_BUF_1_ADDR+0x3f8>
 7cc:	000a0213 	0xa0213
 7d0:	00341a00 	0x341a00
 7d4:	0b3a0803 	j	ce8200c <AP_BANK_SPACE+0xce4200c>
 7d8:	13490b3b 	beq	k0,t1,34c8 <SRAM_BT_HEAD_SIZE+0xc8>
 7dc:	0c3c0c3f 	jal	f030fc <AP_BANK_SPACE+0xec30fc>
 7e0:	341b0000 	li	k1,0x0
 7e4:	3a080300 	xori	t0,s0,0x300
 7e8:	49053b0b 	bc2t	$cc1,f418 <SRAM_ASRC_BUF_1_ADDR+0x418>
 7ec:	3c0c3f13 	lui	t4,0x3f13
 7f0:	0000000c 	syscall
 7f4:	10011101 	beq	zero,at,4bfc <SRAM_AP_BANK_BACK_AL_1_SIZE+0xbfc>
 7f8:	11011206 	beq	t0,at,5014 <SRAM_AP_BANK_BACK_AL_1_SIZE+0x1014>
 7fc:	13082501 	beq	t8,t0,9c04 <SRAM_UI_RCODE_ADDR+0x4>
 800:	1b08030b 	0x1b08030b
 804:	02000008 	jr	s0
 808:	08030024 	j	c0090 <AP_BANK_SPACE+0x80090>
 80c:	0b3e0b0b 	j	cf82c2c <AP_BANK_SPACE+0xcf42c2c>
 810:	16030000 	bne	s0,v1,814 <BANK_CONTROL_SIZE+0x14>
 814:	3a080300 	xori	t0,s0,0x300
 818:	490b3b0b 	bc2tl	$cc2,f448 <SRAM_ASRC_BUF_1_ADDR+0x448>
 81c:	04000013 	bltz	zero,86c <BANK_CONTROL_SIZE+0x6c>
 820:	0e030024 	jal	80c0090 <AP_BANK_SPACE+0x8080090>
 824:	0b3e0b0b 	j	cf82c2c <AP_BANK_SPACE+0xcf42c2c>
 828:	0f050000 	jal	c140000 <AP_BANK_SPACE+0xc100000>
 82c:	000b0b00 	sll	at,t3,0xc
 830:	000f0600 	sll	zero,t7,0x18
 834:	13490b0b 	beq	k0,t1,3464 <SRAM_BT_HEAD_SIZE+0x64>
 838:	15070000 	bne	t0,a3,83c <BANK_CONTROL_SIZE+0x3c>
 83c:	000c2700 	sll	a0,t4,0x1c
 840:	01010800 	0x1010800
 844:	13491301 	beq	k0,t1,544c <SRAM_AP_BANK_BACK_AL_1_SIZE+0x144c>
 848:	21090000 	addi	t1,t0,0
 84c:	2f134900 	sltiu	s3,t8,18688
 850:	0a00000b 	j	800002c <AP_BANK_SPACE+0x7fc002c>
 854:	13010113 	beq	t8,at,ca4 <SRAM_ASRC_BUF_1_SIZE+0xa4>
 858:	0b3a0b0b 	j	ce82c2c <AP_BANK_SPACE+0xce42c2c>
 85c:	00000b3b 	0xb3b
 860:	03000d0b 	0x3000d0b
 864:	3b0b3a08 	xori	t3,t8,0x3a08
 868:	3813490b 	xori	s3,zero,0x490b
 86c:	0c00000a 	jal	28 <SRAM_CARD_GLOBAL_DATA_SIZE+0x18>
 870:	13010104 	beq	t8,at,c84 <SRAM_ASRC_BUF_1_SIZE+0x84>
 874:	0b3a0b0b 	j	ce82c2c <AP_BANK_SPACE+0xce42c2c>
 878:	00000b3b 	0xb3b
 87c:	0300280d 	break	0x300,0xa0
 880:	000d1c08 	0xd1c08
 884:	00160e00 	sll	at,s6,0x18
 888:	0b3a0803 	j	ce8200c <AP_BANK_SPACE+0xce4200c>
 88c:	1349053b 	beq	k0,t1,1d7c <SROM_FS_SIZE+0x17c>
 890:	170f0000 	bne	t8,t7,894 <SRAM_OS_DATA_SIZE+0x14>
 894:	0b130101 	j	c4c0404 <AP_BANK_SPACE+0xc480404>
 898:	3b0b3a0b 	xori	t3,t8,0x3a0b
 89c:	10000005 	b	8b4 <SRAM_OS_DATA_SIZE+0x34>
 8a0:	0803000d 	j	c0034 <AP_BANK_SPACE+0x80034>
 8a4:	053b0b3a 	0x53b0b3a
 8a8:	00001349 	0x1349
 8ac:	01011311 	0x1011311
 8b0:	3a0b0b13 	xori	t3,s0,0xb13
 8b4:	00053b0b 	0x53b0b
 8b8:	000d1200 	sll	v0,t5,0x8
 8bc:	0b3a0803 	j	ce8200c <AP_BANK_SPACE+0xce4200c>
 8c0:	1349053b 	beq	k0,t1,1db0 <SROM_FS_SIZE+0x1b0>
 8c4:	00000a38 	0xa38
 8c8:	03000d13 	0x3000d13
 8cc:	3b0b3a08 	xori	t3,t8,0x3a08
 8d0:	0b13490b 	j	c4d242c <AP_BANK_SPACE+0xc49242c>
 8d4:	0c0b0d0b 	jal	2c342c <AP_BANK_SPACE+0x28342c>
 8d8:	000a380b 	movn	a3,zero,t2
 8dc:	000d1400 	sll	v0,t5,0x10
 8e0:	0b3a0e03 	j	ce8380c <AP_BANK_SPACE+0xce4380c>
 8e4:	1349053b 	beq	k0,t1,1dd4 <SROM_FS_SIZE+0x1d4>
 8e8:	00000a38 	0xa38
 8ec:	03000d15 	0x3000d15
 8f0:	3b0b3a08 	xori	t3,t8,0x3a08
 8f4:	0b134905 	j	c4d2414 <AP_BANK_SPACE+0xc492414>
 8f8:	0c0b0d0b 	jal	2c342c <AP_BANK_SPACE+0x28342c>
 8fc:	000a380b 	movn	a3,zero,t2
 900:	000d1600 	sll	v0,t5,0x18
 904:	0b3a0e03 	j	ce8380c <AP_BANK_SPACE+0xce4380c>
 908:	1349053b 	beq	k0,t1,1df8 <SROM_FS_SIZE+0x1f8>
 90c:	0b0d0b0b 	j	c342c2c <AP_BANK_SPACE+0xc302c2c>
 910:	0a380b0c 	j	8e02c30 <AP_BANK_SPACE+0x8dc2c30>
 914:	2e170000 	sltiu	s7,s0,0
 918:	3f130101 	0x3f130101
 91c:	3a08030c 	xori	t0,s0,0x30c
 920:	270b3b0b 	addiu	t3,t8,15115
 924:	1201110c 	beq	s0,at,4d58 <SRAM_AP_BANK_BACK_AL_1_SIZE+0xd58>
 928:	000a4001 	0xa4001
 92c:	00051800 	sll	v1,a1,0x0
 930:	0b3a0803 	j	ce8200c <AP_BANK_SPACE+0xce4200c>
 934:	13490b3b 	beq	k0,t1,3624 <SRAM_BT_HEAD_SIZE+0x224>
 938:	00000a02 	srl	at,zero,0x8
 93c:	01012e19 	0x1012e19
 940:	030c3f13 	0x30c3f13
 944:	3b0b3a08 	xori	t3,t8,0x3a08
 948:	490c270b 	bc2f	$cc3,a578 <SRAM_BT_LIB1_BANK_ADDR+0x578>
 94c:	12011113 	beq	s0,at,4d9c <SRAM_AP_BANK_BACK_AL_1_SIZE+0xd9c>
 950:	000a4001 	0xa4001
 954:	00051a00 	sll	v1,a1,0x8
 958:	0b3a0e03 	j	ce8380c <AP_BANK_SPACE+0xce4380c>
 95c:	13490b3b 	beq	k0,t1,364c <SRAM_BT_HEAD_SIZE+0x24c>
 960:	00000a02 	srl	at,zero,0x8
 964:	0300341b 	0x300341b
 968:	3b0b3a0e 	xori	t3,t8,0x3a0e
 96c:	0213490b 	0x213490b
 970:	1c00000a 	bgtz	zero,99c <SRAM_OS_DATA_SIZE+0x11c>
 974:	08030034 	j	c00d0 <AP_BANK_SPACE+0x800d0>
 978:	0b3b0b3a 	j	cec2ce8 <AP_BANK_SPACE+0xce82ce8>
 97c:	0a021349 	j	8084d24 <AP_BANK_SPACE+0x8044d24>
 980:	2e1d0000 	sltiu	sp,s0,0
 984:	03130101 	0x3130101
 988:	3b0b3a08 	xori	t3,t8,0x3a08
 98c:	110c2705 	beq	t0,t4,a5a4 <SRAM_BT_LIB1_BANK_ADDR+0x5a4>
 990:	40011201 	0x40011201
 994:	1e00000a 	bgtz	s0,9c0 <SRAM_OS_DATA_SIZE+0x140>
 998:	0e030005 	jal	80c0014 <AP_BANK_SPACE+0x8080014>
 99c:	053b0b3a 	0x53b0b3a
 9a0:	0a021349 	j	8084d24 <AP_BANK_SPACE+0x8044d24>
 9a4:	341f0000 	li	ra,0x0
 9a8:	3a080300 	xori	t0,s0,0x300
 9ac:	490b3b0b 	bc2tl	$cc2,f5dc <SRAM_ASRC_BUF_1_ADDR+0x5dc>
 9b0:	3c0c3f13 	lui	t4,0x3f13
 9b4:	2000000c 	addi	zero,zero,12
 9b8:	08030034 	j	c00d0 <AP_BANK_SPACE+0x800d0>
 9bc:	053b0b3a 	0x53b0b3a
 9c0:	0c3f1349 	jal	fc4d24 <AP_BANK_SPACE+0xf84d24>
 9c4:	00000c3c 	0xc3c
 9c8:	01110100 	0x1110100
 9cc:	01120610 	0x1120610
 9d0:	08250111 	j	940444 <AP_BANK_SPACE+0x900444>
 9d4:	08030b13 	j	c2c4c <AP_BANK_SPACE+0x82c4c>
 9d8:	0000081b 	0x81b
 9dc:	03002402 	0x3002402
 9e0:	3e0b0b08 	0x3e0b0b08
 9e4:	0300000b 	movn	zero,t8,zero
 9e8:	08030016 	j	c0058 <AP_BANK_SPACE+0x80058>
 9ec:	0b3b0b3a 	j	cec2ce8 <AP_BANK_SPACE+0xce82ce8>
 9f0:	00001349 	0x1349
 9f4:	03002404 	0x3002404
 9f8:	3e0b0b0e 	0x3e0b0b0e
 9fc:	0500000b 	bltz	t0,a2c <SRAM_AP_BACK_CODEC_RCODE_SIZE+0x2c>
 a00:	0b0b000f 	j	c2c003c <AP_BANK_SPACE+0xc28003c>
 a04:	01060000 	0x1060000
 a08:	49130101 	bc2tl	$cc4,e10 <SRAM_ASRC_BUF_0_SIZE+0x10>
 a0c:	07000013 	bltz	t8,a5c <SRAM_AP_BACK_CODEC_RCODE_SIZE+0x5c>
 a10:	13490021 	beq	k0,t1,a98 <SRAM_AP_BACK_CODEC_RCODE_SIZE+0x98>
 a14:	00000b2f 	0xb2f
 a18:	01011308 	0x1011308
 a1c:	3a0b0b13 	xori	t3,s0,0xb13
 a20:	000b3b0b 	0xb3b0b
 a24:	000d0900 	sll	at,t5,0x4
 a28:	0b3a0803 	j	ce8200c <AP_BANK_SPACE+0xce4200c>
 a2c:	13490b3b 	beq	k0,t1,371c <SRAM_BT_HEAD_SIZE+0x31c>
 a30:	00000a38 	0xa38
 a34:	0b000f0a 	j	c003c28 <AP_BANK_SPACE+0xbfc3c28>
 a38:	0013490b 	0x13490b
 a3c:	01040b00 	0x1040b00
 a40:	0b0b1301 	j	c2c4c04 <AP_BANK_SPACE+0xc284c04>
 a44:	0b3b0b3a 	j	cec2ce8 <AP_BANK_SPACE+0xce82ce8>
 a48:	280c0000 	slti	t4,zero,0
 a4c:	1c080300 	0x1c080300
 a50:	0d00000d 	jal	4000034 <AP_BANK_SPACE+0x3fc0034>
 a54:	08030016 	j	c0058 <AP_BANK_SPACE+0x80058>
 a58:	053b0b3a 	0x53b0b3a
 a5c:	00001349 	0x1349
 a60:	0101170e 	0x101170e
 a64:	3a0b0b13 	xori	t3,s0,0xb13
 a68:	00053b0b 	0x53b0b
 a6c:	000d0f00 	sll	at,t5,0x1c
 a70:	0b3a0803 	j	ce8200c <AP_BANK_SPACE+0xce4200c>
 a74:	1349053b 	beq	k0,t1,1f64 <SRAM_OS_TASK_STACK_SIZE+0x164>
 a78:	13100000 	beq	t8,s0,a7c <SRAM_AP_BACK_CODEC_RCODE_SIZE+0x7c>
 a7c:	0b130101 	j	c4c0404 <AP_BANK_SPACE+0xc480404>
 a80:	3b0b3a0b 	xori	t3,t8,0x3a0b
 a84:	11000005 	beqz	t0,a9c <SRAM_AP_BACK_CODEC_RCODE_SIZE+0x9c>
 a88:	0803000d 	j	c0034 <AP_BANK_SPACE+0x80034>
 a8c:	053b0b3a 	0x53b0b3a
 a90:	0a381349 	j	8e04d24 <AP_BANK_SPACE+0x8dc4d24>
 a94:	0d120000 	jal	4480000 <AP_BANK_SPACE+0x4440000>
 a98:	3a080300 	xori	t0,s0,0x300
 a9c:	49053b0b 	bc2t	$cc1,f6cc <SRAM_ASRC_BUF_1_ADDR+0x6cc>
 aa0:	0d0b0b13 	jal	42c2c4c <AP_BANK_SPACE+0x4282c4c>
 aa4:	380b0c0b 	xori	t3,zero,0xc0b
 aa8:	1300000a 	beqz	t8,ad4 <SRAM_AP_BACK_CODEC_RCODE_SIZE+0xd4>
 aac:	0e03000d 	jal	80c0034 <AP_BANK_SPACE+0x8080034>
 ab0:	053b0b3a 	0x53b0b3a
 ab4:	0a381349 	j	8e04d24 <AP_BANK_SPACE+0x8dc4d24>
 ab8:	0d140000 	jal	4500000 <AP_BANK_SPACE+0x44c0000>
 abc:	3a0e0300 	xori	t6,s0,0x300
 ac0:	49053b0b 	bc2t	$cc1,f6f0 <SRAM_ASRC_BUF_1_ADDR+0x6f0>
 ac4:	0d0b0b13 	jal	42c2c4c <AP_BANK_SPACE+0x4282c4c>
 ac8:	380b0c0b 	xori	t3,zero,0xc0b
 acc:	1500000a 	bnez	t0,af8 <SRAM_AP_BACK_CODEC_RCODE_SIZE+0xf8>
 ad0:	1301012e 	beq	t8,at,f8c <SRAM_ASRC_BUF_0_SIZE+0x18c>
 ad4:	08030c3f 	j	c30fc <AP_BANK_SPACE+0x830fc>
 ad8:	0b3b0b3a 	j	cec2ce8 <AP_BANK_SPACE+0xce82ce8>
 adc:	13490c27 	beq	k0,t1,3b7c <SROM_STUB_ADDR_MDY+0x7c>
 ae0:	01120111 	0x1120111
 ae4:	00000a40 	sll	at,zero,0x9
 ae8:	03000516 	0x3000516
 aec:	3b0b3a0e 	xori	t3,t8,0x3a0e
 af0:	0213490b 	0x213490b
 af4:	1700000a 	bnez	t8,b20 <SRAM_COMMON_BT_MANAGER_SIZE+0x20>
 af8:	0e030034 	jal	80c00d0 <AP_BANK_SPACE+0x80800d0>
 afc:	0b3b0b3a 	j	cec2ce8 <AP_BANK_SPACE+0xce82ce8>
 b00:	0a021349 	j	8084d24 <AP_BANK_SPACE+0x8044d24>
 b04:	34180000 	li	t8,0x0
 b08:	3a080300 	xori	t0,s0,0x300
 b0c:	490b3b0b 	bc2tl	$cc2,f73c <SRAM_ASRC_BUF_1_ADDR+0x73c>
 b10:	000a0213 	0xa0213
 b14:	00341900 	0x341900
 b18:	0b3a0803 	j	ce8200c <AP_BANK_SPACE+0xce4200c>
 b1c:	13490b3b 	beq	k0,t1,380c <SRAM_BT_HEAD_SIZE+0x40c>
 b20:	0c3c0c3f 	jal	f030fc <AP_BANK_SPACE+0xec30fc>
 b24:	341a0000 	li	k0,0x0
 b28:	3a080300 	xori	t0,s0,0x300
 b2c:	49053b0b 	bc2t	$cc1,f75c <SRAM_ASRC_BUF_1_ADDR+0x75c>
 b30:	3c0c3f13 	lui	t4,0x3f13
 b34:	0000000c 	syscall
 b38:	10011101 	beq	zero,at,4f40 <SRAM_AP_BANK_BACK_AL_1_SIZE+0xf40>
 b3c:	11011206 	beq	t0,at,5358 <SRAM_AP_BANK_BACK_AL_1_SIZE+0x1358>
 b40:	13082501 	beq	t8,t0,9f48 <SRAM_AUDIO_GLOBAL_DATA_ADDR+0x48>
 b44:	1b08030b 	0x1b08030b
 b48:	02000008 	jr	s0
 b4c:	08030024 	j	c0090 <AP_BANK_SPACE+0x80090>
 b50:	0b3e0b0b 	j	cf82c2c <AP_BANK_SPACE+0xcf42c2c>
 b54:	16030000 	bne	s0,v1,b58 <SRAM_COMMON_BT_MANAGER_SIZE+0x58>
 b58:	3a080300 	xori	t0,s0,0x300
 b5c:	490b3b0b 	bc2tl	$cc2,f78c <SRAM_ASRC_BUF_1_ADDR+0x78c>
 b60:	04000013 	bltz	zero,bb0 <SRAM_COMMON_BT_MANAGER_SIZE+0xb0>
 b64:	0e030024 	jal	80c0090 <AP_BANK_SPACE+0x8080090>
 b68:	0b3e0b0b 	j	cf82c2c <AP_BANK_SPACE+0xcf42c2c>
 b6c:	0f050000 	jal	c140000 <AP_BANK_SPACE+0xc100000>
 b70:	000b0b00 	sll	at,t3,0xc
 b74:	01010600 	0x1010600
 b78:	13491301 	beq	k0,t1,5780 <SRAM_AP_BANK_BACK_AL_1_SIZE+0x1780>
 b7c:	21070000 	addi	a3,t0,0
 b80:	2f134900 	sltiu	s3,t8,18688
 b84:	0800000b 	j	2c <SRAM_CARD_GLOBAL_DATA_SIZE+0x1c>
 b88:	13010113 	beq	t8,at,fd8 <SRAM_ASRC_BUF_0_SIZE+0x1d8>
 b8c:	0b3a0b0b 	j	ce82c2c <AP_BANK_SPACE+0xce42c2c>
 b90:	00000b3b 	0xb3b
 b94:	03000d09 	0x3000d09
 b98:	3b0b3a08 	xori	t3,t8,0x3a08
 b9c:	3813490b 	xori	s3,zero,0x490b
 ba0:	0a00000a 	j	8000028 <AP_BANK_SPACE+0x7fc0028>
 ba4:	0b0b000f 	j	c2c003c <AP_BANK_SPACE+0xc28003c>
 ba8:	00001349 	0x1349
 bac:	0101040b 	0x101040b
 bb0:	3a0b0b13 	xori	t3,s0,0xb13
 bb4:	000b3b0b 	0xb3b0b
 bb8:	00280c00 	0x280c00
 bbc:	0d1c0803 	jal	470200c <AP_BANK_SPACE+0x46c200c>
 bc0:	160d0000 	bne	s0,t5,bc4 <SRAM_COMMON_BT_MANAGER_SIZE+0xc4>
 bc4:	3a080300 	xori	t0,s0,0x300
 bc8:	49053b0b 	bc2t	$cc1,f7f8 <SRAM_ASRC_BUF_1_ADDR+0x7f8>
 bcc:	0e000013 	jal	800004c <AP_BANK_SPACE+0x7fc004c>
 bd0:	13010117 	beq	t8,at,1030 <SRAM_BTCALL_CALLRING_BUF_SIZE+0x30>
 bd4:	0b3a0b0b 	j	ce82c2c <AP_BANK_SPACE+0xce42c2c>
 bd8:	0000053b 	0x53b
 bdc:	03000d0f 	0x3000d0f
 be0:	3b0b3a08 	xori	t3,t8,0x3a08
 be4:	00134905 	0x134905
 be8:	01131000 	0x1131000
 bec:	0b0b1301 	j	c2c4c04 <AP_BANK_SPACE+0xc284c04>
 bf0:	053b0b3a 	0x53b0b3a
 bf4:	0d110000 	jal	4440000 <AP_BANK_SPACE+0x4400000>
 bf8:	3a080300 	xori	t0,s0,0x300
 bfc:	49053b0b 	bc2t	$cc1,f82c <SRAM_ASRC_BUF_1_ADDR+0x82c>
 c00:	000a3813 	0xa3813
 c04:	000d1200 	sll	v0,t5,0x8
 c08:	0b3a0803 	j	ce8200c <AP_BANK_SPACE+0xce4200c>
 c0c:	1349053b 	beq	k0,t1,20fc <SRAM_AP_BACK_AL_RCODE_2_SIZE+0xfc>
 c10:	0b0d0b0b 	j	c342c2c <AP_BANK_SPACE+0xc302c2c>
 c14:	0a380b0c 	j	8e02c30 <AP_BANK_SPACE+0x8dc2c30>
 c18:	0d130000 	jal	44c0000 <AP_BANK_SPACE+0x4480000>
 c1c:	3a0e0300 	xori	t6,s0,0x300
 c20:	49053b0b 	bc2t	$cc1,f850 <SRAM_ASRC_BUF_1_ADDR+0x850>
 c24:	000a3813 	0xa3813
 c28:	000d1400 	sll	v0,t5,0x10
 c2c:	0b3a0e03 	j	ce8380c <AP_BANK_SPACE+0xce4380c>
 c30:	1349053b 	beq	k0,t1,2120 <SRAM_AP_BACK_AL_RCODE_2_SIZE+0x120>
 c34:	0b0d0b0b 	j	c342c2c <AP_BANK_SPACE+0xc302c2c>
 c38:	0a380b0c 	j	8e02c30 <AP_BANK_SPACE+0x8dc2c30>
 c3c:	0d150000 	jal	4540000 <AP_BANK_SPACE+0x4500000>
 c40:	3a0e0300 	xori	t6,s0,0x300
 c44:	490b3b0b 	bc2tl	$cc2,f874 <SRAM_ASRC_BUF_1_ADDR+0x874>
 c48:	000a3813 	0xa3813
 c4c:	01131600 	0x1131600
 c50:	050b1301 	tltiu	t0,4865
 c54:	053b0b3a 	0x53b0b3a
 c58:	2e170000 	sltiu	s7,s0,0
 c5c:	3f130101 	0x3f130101
 c60:	3a08030c 	xori	t0,s0,0x30c
 c64:	270b3b0b 	addiu	t3,t8,15115
 c68:	1113490c 	beq	t0,s3,1309c <SRAM_BT_BACK_RCODE_ADDR+0x209c>
 c6c:	40011201 	0x40011201
 c70:	1800000a 	blez	zero,c9c <SRAM_ASRC_BUF_1_SIZE+0x9c>
 c74:	08030005 	j	c0014 <AP_BANK_SPACE+0x80014>
 c78:	0b3b0b3a 	j	cec2ce8 <AP_BANK_SPACE+0xce82ce8>
 c7c:	0a021349 	j	8084d24 <AP_BANK_SPACE+0x8044d24>
 c80:	34190000 	li	t9,0x0
 c84:	3a080300 	xori	t0,s0,0x300
 c88:	490b3b0b 	bc2tl	$cc2,f8b8 <SRAM_ASRC_BUF_1_ADDR+0x8b8>
 c8c:	3c0c3f13 	lui	t4,0x3f13
 c90:	1a00000c 	blez	s0,cc4 <SRAM_ASRC_BUF_1_SIZE+0xc4>
 c94:	08030034 	j	c00d0 <AP_BANK_SPACE+0x800d0>
 c98:	053b0b3a 	0x53b0b3a
 c9c:	0c3f1349 	jal	fc4d24 <AP_BANK_SPACE+0xf84d24>
 ca0:	00000c3c 	0xc3c
	...
Disassembly of section .debug_info:

00000000 <.debug_info>:
       0:	00001292 	0x1292
       4:	00000002 	srl	zero,zero,0x0
       8:	01040000 	0x1040000
       c:	00000000 	nop
      10:	20554e47 	addi	s5,v0,20039
      14:	2e332043 	sltiu	s3,s1,8259
      18:	20342e34 	addi	s4,at,11828
      1c:	7370696d 	0x7370696d
      20:	2d656473 	sltiu	a1,t3,25715
      24:	36302e36 	ori	s0,s1,0x2e36
      28:	2d31302e 	sltiu	s1,t1,12334
      2c:	37303032 	ori	s0,t9,0x3032
      30:	30323430 	andi	s2,at,0x3430
      34:	6d660100 	0x6d660100
      38:	69676e65 	0x69676e65
      3c:	635f656e 	0x635f656e
      40:	72746e6f 	0x72746e6f
      44:	632e6c6f 	0x632e6c6f
      48:	79632f00 	0x79632f00
      4c:	69726467 	0x69726467
      50:	662f6576 	0x662f6576
      54:	666f532f 	0x666f532f
      58:	64735f74 	0x64735f74
      5c:	54412f6b 	bnel	v0,at,be0c <SRAM_KEY_MESSAGE_DATA_ADDR+0xc>
      60:	32383253 	andi	t8,s1,0x3253
      64:	44535f35 	0x44535f35
      68:	34565f4b 	ori	s6,v0,0x5f4b
      6c:	632f322e 	0x632f322e
      70:	2f657361 	sltiu	a1,k1,29537
      74:	662f7061 	0x662f7061
      78:	6e655f6d 	0x6e655f6d
      7c:	656e6967 	0x656e6967
      80:	6e750200 	0x6e750200
      84:	6e676973 	0x6e676973
      88:	63206465 	0x63206465
      8c:	00726168 	0x726168
      90:	49030801 	bc2tl	2098 <SRAM_AP_BACK_AL_RCODE_2_SIZE+0x98>
      94:	5538544e 	bnel	t1,t8,151d0 <SRAM_BT_EXT5_BANK_ADDR+0xbd0>
      98:	810f0800 	lb	t7,2048(t0)
      9c:	02000000 	0x2000000
      a0:	6e676973 	0x6e676973
      a4:	63206465 	0x63206465
      a8:	00726168 	0x726168
      ac:	73020601 	0x73020601
      b0:	74726f68 	jalx	1c9bda0 <AP_BANK_SPACE+0x1c5bda0>
      b4:	736e7520 	0x736e7520
      b8:	656e6769 	0x656e6769
      bc:	6e692064 	0x6e692064
      c0:	07020074 	bltzl	t8,294 <SRAM_AP_RCP_COMMAND_BUFFER_SIZE+0x74>
      c4:	6f687302 	0x6f687302
      c8:	69207472 	0x69207472
      cc:	0200746e 	0x200746e
      d0:	00000405 	0x405
      d4:	07040000 	0x7040000
      d8:	6e6f6c02 	0x6e6f6c02
      dc:	6e692067 	0x6e692067
      e0:	05040074 	0x5040074
      e4:	6f6c6602 	0x6f6c6602
      e8:	04007461 	bltz	zero,1d270 <SRAM_OS_TASK_STACK_ADDR+0x1c70>
      ec:	6f640204 	0x6f640204
      f0:	656c6275 	0x656c6275
      f4:	02040800 	0x2040800
      f8:	676e6f6c 	0x676e6f6c
      fc:	6e6f6c20 	0x6e6f6c20
     100:	6e752067 	0x6e752067
     104:	6e676973 	0x6e676973
     108:	69206465 	0x69206465
     10c:	0800746e 	j	1d1b8 <SRAM_OS_TASK_STACK_ADDR+0x1bb8>
     110:	6f6c0207 	0x6f6c0207
     114:	6c20676e 	0x6c20676e
     118:	20676e6f 	addi	a3,v1,28271
     11c:	00746e69 	0x746e69
     120:	75020508 	jalx	4081420 <AP_BANK_SPACE+0x4041420>
     124:	6769736e 	0x6769736e
     128:	2064656e 	addi	a0,v1,25966
     12c:	00746e69 	0x746e69
     130:	75030704 	jalx	40c1c10 <AP_BANK_SPACE+0x4081c10>
     134:	38746e69 	xori	s4,v1,0x6e69
     138:	81150300 	lb	s5,768(t0)
     13c:	03000000 	0x3000000
     140:	746e6975 	jalx	1b9a5d4 <AP_BANK_SPACE+0x1b5a5d4>
     144:	03003233 	tltu	t8,zero,0xc8
     148:	00012225 	0x12225
     14c:	6e690200 	0x6e690200
     150:	05040074 	0x5040074
     154:	61686302 	0x61686302
     158:	06010072 	bgez	s0,324 <SRAM_FS_DATA_SIZE+0x24>
     15c:	00000004 	sllv	zero,zero,zero
     160:	05070400 	0x5070400
     164:	01750604 	0x1750604
     168:	00810000 	0x810000
     16c:	5c070000 	0x5c070000
     170:	01000001 	movf	zero,t0,$fcc0
     174:	01f20800 	0x1f20800
     178:	040c0000 	teqi	zero,0
     17c:	736f09e3 	0x736f09e3
     180:	6576655f 	0x6576655f
     184:	745f746e 	jalx	17dd1b8 <AP_BANK_SPACE+0x179d1b8>
     188:	00657079 	0x657079
     18c:	0081db04 	0x81db04
     190:	23020000 	addi	v0,t8,0
     194:	736f0900 	0x736f0900
     198:	6576655f 	0x6576655f
     19c:	675f746e 	0x675f746e
     1a0:	04007072 	bltz	zero,1c36c <SRAM_OS_TASK_STACK_ADDR+0xd6c>
     1a4:	000081dc 	0x81dc
     1a8:	01230200 	0x1230200
     1ac:	5f736f09 	0x5f736f09
     1b0:	6e657665 	0x6e657665
     1b4:	6e635f74 	0x6e635f74
     1b8:	dd040074 	ldc3	$4,116(t0)
     1bc:	000000ae 	0xae
     1c0:	09022302 	j	4088c08 <AP_BANK_SPACE+0x4048c08>
     1c4:	655f736f 	0x655f736f
     1c8:	746e6576 	jalx	1b995d8 <AP_BANK_SPACE+0x1b595d8>
     1cc:	7274705f 	udi15	s3,s4,t6,0x1
     1d0:	63de0400 	0x63de0400
     1d4:	02000001 	movf	zero,s0,$fcc0
     1d8:	6f090423 	0x6f090423
     1dc:	76655f73 	jalx	9957dcc <AP_BANK_SPACE+0x9917dcc>
     1e0:	5f746e65 	0x5f746e65
     1e4:	006c6274 	teq	v1,t4,0x189
     1e8:	0165df04 	0x165df04
     1ec:	23020000 	addi	v0,t8,0
     1f0:	6f030008 	0x6f030008
     1f4:	76655f73 	jalx	9957dcc <AP_BANK_SPACE+0x9917dcc>
     1f8:	5f746e65 	0x5f746e65
     1fc:	e3040074 	sc	a0,116(t8)
     200:	00000175 	0x175
     204:	01f2040a 	0x1f2040a
     208:	1a060000 	0x1a060000
     20c:	32000002 	andi	zero,s0,0x2
     210:	07000001 	bltz	t8,218 <DATA_BSS_SIZE+0x18>
     214:	0000015c 	0x15c
     218:	2a060003 	slti	a2,s0,3
     21c:	32000002 	andi	zero,s0,0x2
     220:	07000001 	bltz	t8,228 <SRAM_AP_RCP_COMMAND_BUFFER_SIZE+0x8>
     224:	0000015c 	0x15c
     228:	630b0002 	0x630b0002
     22c:	01000002 	0x1000002
     230:	4d0c3c0a 	0x4d0c3c0a
     234:	4c55444f 	0x4c55444f
     238:	4f4e5f45 	c3	0x14e5f45
     23c:	494e495f 	0x494e495f
     240:	0c000054 	jal	150 <SRAM_BTMANAGER_DATA_SIZE+0x10>
     244:	55444f4d 	bnel	t2,a0,13f7c <SRAM_BT_EXT3_BANK_ADDR+0x67c>
     248:	575f454c 	bnel	k0,ra,1177c <SRAM_BT_BACK_RCODE_ADDR+0x77c>
     24c:	004b524f 	0x4b524f
     250:	4f4d0c01 	c3	0x14d0c01
     254:	454c5544 	0x454c5544
     258:	4154535f 	0x4154535f
     25c:	5942444e 	0x5942444e
     260:	03000200 	0x3000200
     264:	75646f4d 	jalx	591bd34 <AP_BANK_SPACE+0x58dbd34>
     268:	535f656c 	beql	k0,ra,1981c <SRAM_FM_DRV_RDATA_ADDR+0x9c>
     26c:	75746174 	jalx	5d185d0 <AP_BANK_SPACE+0x5cd85d0>
     270:	00655f73 	tltu	v1,a1,0x17d
     274:	022a400a 	movz	t0,s1,t2
     278:	dc0b0000 	ldc3	$11,0(zero)
     27c:	02000009 	jalr	zero,s0
     280:	520ce305 	beql	s0,t4,ffff8e98 <get_app_msg+0x403d2968>
     284:	4c555345 	0x4c555345
     288:	554e5f54 	bnel	t2,t6,17fdc <SRAM_CARD_UD_RCODE_ADDR+0xbdc>
     28c:	00004c4c 	syscall	0x131
     290:	5345520c 	beql	k0,a1,14ac4 <SRAM_BT_EXT5_BANK_ADDR+0x4c4>
     294:	5f544c55 	0x5f544c55
     298:	4f4e4749 	c3	0x14e4749
     29c:	01004552 	0x1004552
     2a0:	5345520c 	beql	k0,a1,14ad4 <SRAM_BT_EXT5_BANK_ADDR+0x4d4>
     2a4:	5f544c55 	0x5f544c55
     2a8:	454e4f4e 	0x454e4f4e
     2ac:	4556455f 	0x4556455f
     2b0:	0200544e 	0x200544e
     2b4:	5345520c 	beql	k0,a1,14ae8 <SRAM_BT_EXT5_BANK_ADDR+0x4e8>
     2b8:	5f544c55 	0x5f544c55
     2bc:	5f504352 	0x5f504352
     2c0:	575f434c 	bnel	k0,ra,10ff4 <SRAM_COMMON_BT_MANAGER_RCODE+0xaf4>
     2c4:	00544941 	0x544941
     2c8:	45520c03 	0x45520c03
     2cc:	544c5553 	bnel	v0,t4,1581c <SRAM_BT_EXT5_BANK_ADDR+0x121c>
     2d0:	4d4f435f 	0x4d4f435f
     2d4:	5f4e4f4d 	0x5f4e4f4d
     2d8:	45534552 	0x45534552
     2dc:	00455652 	0x455652
     2e0:	45520c20 	0x45520c20
     2e4:	544c5553 	bnel	v0,t4,15834 <SRAM_BT_EXT5_BANK_ADDR+0x1234>
     2e8:	5252455f 	beql	s2,s2,11868 <SRAM_BT_BACK_RCODE_ADDR+0x868>
     2ec:	8000524f 	lb	zero,21071(zero)
     2f0:	45520c01 	0x45520c01
     2f4:	544c5553 	bnel	v0,t4,15844 <SRAM_BT_EXT5_BANK_ADDR+0x1244>
     2f8:	4341425f 	c0	0x141425f
     2fc:	43535f4b 	c0	0x1535f4b
     300:	5f454e45 	0x5f454e45
     304:	50534944 	beql	v0,s3,12818 <SRAM_BT_BACK_RCODE_ADDR+0x1818>
     308:	48435441 	0x48435441
     30c:	0c018100 	jal	60400 <AP_BANK_SPACE+0x20400>
     310:	55534552 	bnel	t2,s3,1185c <SRAM_BT_BACK_RCODE_ADDR+0x85c>
     314:	535f544c 	beql	k0,ra,15448 <SRAM_BT_EXT5_BANK_ADDR+0xe48>
     318:	454e4543 	0x454e4543
     31c:	4958455f 	0x4958455f
     320:	01820054 	0x1820054
     324:	5345520c 	beql	k0,a1,14b58 <SRAM_BT_EXT5_BANK_ADDR+0x558>
     328:	5f544c55 	0x5f544c55
     32c:	5f59454b 	0x5f59454b
     330:	4e455645 	c3	0x455645
     334:	45525f54 	0x45525f54
     338:	4c414544 	0x4c414544
     33c:	5f59425f 	0x5f59425f
     340:	4d4d4f43 	0x4d4d4f43
     344:	83004e4f 	lb	zero,20047(t8)
     348:	45520c01 	0x45520c01
     34c:	544c5553 	bnel	v0,t4,1589c <SRAM_BT_EXT5_BANK_ADDR+0x129c>
     350:	5359535f 	beql	k0,t9,150d0 <SRAM_BT_EXT5_BANK_ADDR+0xad0>
     354:	47534d5f 	c1	0x1534d5f
     358:	4445525f 	0x4445525f
     35c:	5f4c4145 	0x5f4c4145
     360:	435f5942 	c0	0x15f5942
     364:	4f4d4d4f 	c3	0x14d4d4f
     368:	0184004e 	0x184004e
     36c:	5345520c 	beql	k0,a1,14ba0 <SRAM_BT_EXT5_BANK_ADDR+0x5a0>
     370:	5f544c55 	0x5f544c55
     374:	43524f46 	c0	0x1524f46
     378:	54545f45 	bnel	v0,s4,18090 <SRAM_FS_DATA_ADDR+0x90>
     37c:	54535f53 	bnel	v0,s3,180cc <SRAM_FS_DATA_ADDR+0xcc>
     380:	8500504f 	lh	zero,20559(t0)
     384:	45520c01 	0x45520c01
     388:	544c5553 	bnel	v0,t4,158d8 <SRAM_BT_EXT5_BANK_ADDR+0x12d8>
     38c:	544e455f 	bnel	v0,t6,1190c <SRAM_BT_BACK_RCODE_ADDR+0x90c>
     390:	4f5f5245 	c3	0x15f5245
     394:	555f4154 	bnel	t2,ra,108e8 <SRAM_COMMON_BT_MANAGER_RCODE+0x3e8>
     398:	41524750 	0x41524750
     39c:	a1004544 	sb	zero,17732(t0)
     3a0:	45520c01 	0x45520c01
     3a4:	544c5553 	bnel	v0,t4,158f4 <SRAM_BT_EXT5_BANK_ADDR+0x12f4>
     3a8:	5345545f 	beql	k0,a1,15528 <SRAM_BT_EXT5_BANK_ADDR+0xf28>
     3ac:	5f504154 	0x5f504154
     3b0:	54495551 	bnel	v0,t1,158f8 <SRAM_BT_EXT5_BANK_ADDR+0x12f8>
     3b4:	0c01ff00 	jal	7fc00 <AP_BANK_SPACE+0x3fc00>
     3b8:	55534552 	bnel	t2,s3,11904 <SRAM_BT_BACK_RCODE_ADDR+0x904>
     3bc:	415f544c 	0x415f544c
     3c0:	515f5050 	beql	t2,ra,14504 <SRAM_IRQ_PRINT_BUFFER_ADDR+0x434>
     3c4:	00544955 	0x544955
     3c8:	520c0280 	beql	s0,t4,dcc <SRAM_BT_EXT3_BANK_SIZE+0xcc>
     3cc:	4c555345 	0x4c555345
     3d0:	554d5f54 	bnel	t2,t5,18124 <SRAM_FS_DATA_ADDR+0x124>
     3d4:	5f434953 	0x5f434953
     3d8:	59414c50 	0x59414c50
     3dc:	0c028100 	jal	a0400 <AP_BANK_SPACE+0x60400>
     3e0:	55534552 	bnel	t2,s3,1192c <SRAM_BT_BACK_RCODE_ADDR+0x92c>
     3e4:	4d5f544c 	0x4d5f544c
     3e8:	43495355 	c0	0x1495355
     3ec:	4c50435f 	0x4c50435f
     3f0:	82005941 	lb	zero,22849(s0)
     3f4:	45520c02 	0x45520c02
     3f8:	544c5553 	bnel	v0,t4,15948 <SRAM_BT_EXT5_BANK_ADDR+0x1348>
     3fc:	53554d5f 	beql	k0,s5,1397c <SRAM_BT_EXT3_BANK_ADDR+0x7c>
     400:	555f4349 	bnel	t2,ra,11128 <SRAM_BT_BACK_RCODE_ADDR+0x128>
     404:	59414c50 	0x59414c50
     408:	0c028300 	jal	a0c00 <AP_BANK_SPACE+0x60c00>
     40c:	55534552 	bnel	t2,s3,11958 <SRAM_BT_BACK_RCODE_ADDR+0x958>
     410:	455f544c 	0x455f544c
     414:	5245544e 	beql	s2,a1,15550 <SRAM_BT_EXT5_BANK_ADDR+0xf50>
     418:	4e494c5f 	c3	0x494c5f
     41c:	004e4945 	0x4e4945
     420:	520c0284 	beql	s0,t4,e34 <SRAM_ASRC_BUF_0_SIZE+0x34>
     424:	4c555345 	0x4c555345
     428:	41525f54 	0x41525f54
     42c:	004f4944 	0x4f4944
     430:	520c0285 	beql	s0,t4,e48 <SRAM_ASRC_BUF_0_SIZE+0x48>
     434:	4c555345 	0x4c555345
     438:	4c425f54 	0x4c425f54
     43c:	45544555 	0x45544555
     440:	5f485445 	0x5f485445
     444:	4e554f53 	c3	0x554f53
     448:	02860044 	0x2860044
     44c:	5345520c 	beql	k0,a1,14c80 <SRAM_BT_EXT5_BANK_ADDR+0x680>
     450:	5f544c55 	0x5f544c55
     454:	45554c42 	0x45554c42
     458:	54454554 	bnel	v0,a1,119ac <SRAM_BT_BACK_RCODE_ADDR+0x9ac>
     45c:	41435f48 	0x41435f48
     460:	87004c4c 	lh	zero,19532(t8)
     464:	45520c02 	0x45520c02
     468:	544c5553 	bnel	v0,t4,159b8 <SRAM_BT_EXT5_BANK_ADDR+0x13b8>
     46c:	554c425f 	bnel	t2,t4,10dec <SRAM_COMMON_BT_MANAGER_RCODE+0x8ec>
     470:	45455445 	0x45455445
     474:	435f4854 	c0	0x15f4854
     478:	5f4c4c41 	0x5f4c4c41
     47c:	4b434142 	c2	0x1434142
     480:	554f5247 	bnel	t2,t7,14da0 <SRAM_BT_EXT5_BANK_ADDR+0x7a0>
     484:	8800444e 	lwl	zero,17486(zero)
     488:	45520c02 	0x45520c02
     48c:	544c5553 	bnel	v0,t4,159dc <SRAM_BT_EXT5_BANK_ADDR+0x13dc>
     490:	4253555f 	c0	0x53555f
     494:	554f535f 	bnel	t2,t7,15214 <SRAM_BT_EXT5_BANK_ADDR+0xc14>
     498:	8900444e 	lwl	zero,17486(t0)
     49c:	45520c02 	0x45520c02
     4a0:	544c5553 	bnel	v0,t4,159f0 <SRAM_BT_EXT5_BANK_ADDR+0x13f0>
     4a4:	574f505f 	bnel	k0,t7,14624 <SRAM_BT_EXT5_BANK_ADDR+0x24>
     4a8:	4f5f5245 	c3	0x15f5245
     4ac:	8a004646 	lwl	zero,17990(s0)
     4b0:	45520c02 	0x45520c02
     4b4:	544c5553 	bnel	v0,t4,15a04 <SRAM_BT_EXT5_BANK_ADDR+0x1404>
     4b8:	574f4c5f 	bnel	k0,t7,13638 <SRAM_BT_BACK_RCODE_ADDR+0x2638>
     4bc:	574f505f 	bnel	k0,t7,1463c <SRAM_BT_EXT5_BANK_ADDR+0x3c>
     4c0:	8b005245 	lwl	zero,21061(t8)
     4c4:	45520c02 	0x45520c02
     4c8:	544c5553 	bnel	v0,t4,15a18 <SRAM_BT_EXT5_BANK_ADDR+0x1418>
     4cc:	4253555f 	c0	0x53555f
     4d0:	4152545f 	0x4152545f
     4d4:	8c00534e 	lw	zero,21326(zero)
     4d8:	45520c02 	0x45520c02
     4dc:	544c5553 	bnel	v0,t4,15a2c <SRAM_BT_EXT5_BANK_ADDR+0x142c>
     4e0:	4345525f 	c0	0x145525f
     4e4:	5f44524f 	0x5f44524f
     4e8:	414c5043 	0x414c5043
     4ec:	028d0059 	0x28d0059
     4f0:	5345520c 	beql	k0,a1,14d24 <SRAM_BT_EXT5_BANK_ADDR+0x724>
     4f4:	5f544c55 	0x5f544c55
     4f8:	4f434552 	c3	0x1434552
     4fc:	555f4452 	bnel	t2,ra,11648 <SRAM_BT_BACK_RCODE_ADDR+0x648>
     500:	59414c50 	0x59414c50
     504:	0c028e00 	jal	a3800 <AP_BANK_SPACE+0x63800>
     508:	55534552 	bnel	t2,s3,11a54 <SRAM_BT_BACK_RCODE_ADDR+0xa54>
     50c:	525f544c 	beql	s2,ra,15640 <SRAM_BT_EXT5_BANK_ADDR+0x1040>
     510:	524f4345 	beql	s2,t7,11228 <SRAM_BT_BACK_RCODE_ADDR+0x228>
     514:	494c5f44 	0x494c5f44
     518:	4e49454e 	c3	0x49454e
     51c:	434f545f 	c0	0x14f545f
     520:	0c028f00 	jal	a3c00 <AP_BANK_SPACE+0x63c00>
     524:	55534552 	bnel	t2,s3,11a70 <SRAM_BT_BACK_RCODE_ADDR+0xa70>
     528:	525f544c 	beql	s2,ra,1565c <SRAM_BT_EXT5_BANK_ADDR+0x105c>
     52c:	524f4345 	beql	s2,t7,11244 <SRAM_BT_BACK_RCODE_ADDR+0x244>
     530:	4d465f44 	0x4d465f44
     534:	434f545f 	c0	0x14f545f
     538:	0c029000 	jal	a4000 <AP_BANK_SPACE+0x64000>
     53c:	55534552 	bnel	t2,s3,11a88 <SRAM_BT_BACK_RCODE_ADDR+0xa88>
     540:	525f544c 	beql	s2,ra,15674 <SRAM_BT_EXT5_BANK_ADDR+0x1074>
     544:	524f4345 	beql	s2,t7,1125c <SRAM_BT_BACK_RCODE_ADDR+0x25c>
     548:	494d5f44 	0x494d5f44
     54c:	4f545f43 	c3	0x1545f43
     550:	02910043 	0x2910043
     554:	5345520c 	beql	k0,a1,14d88 <SRAM_BT_EXT5_BANK_ADDR+0x788>
     558:	5f544c55 	0x5f544c55
     55c:	4f434552 	c3	0x1434552
     560:	4c5f4452 	0x4c5f4452
     564:	49454e49 	0x49454e49
     568:	4f545f4e 	c3	0x1545f4e
     56c:	02920055 	0x2920055
     570:	5345520c 	beql	k0,a1,14da4 <SRAM_BT_EXT5_BANK_ADDR+0x7a4>
     574:	5f544c55 	0x5f544c55
     578:	4f434552 	c3	0x1434552
     57c:	465f4452 	c1	0x5f4452
     580:	4f545f4d 	c3	0x1545f4d
     584:	02930055 	0x2930055
     588:	5345520c 	beql	k0,a1,14dbc <SRAM_BT_EXT5_BANK_ADDR+0x7bc>
     58c:	5f544c55 	0x5f544c55
     590:	4f434552 	c3	0x1434552
     594:	4d5f4452 	0x4d5f4452
     598:	545f4349 	bnel	v0,ra,112c0 <SRAM_BT_BACK_RCODE_ADDR+0x2c0>
     59c:	9400554f 	lhu	zero,21839(zero)
     5a0:	45520c02 	0x45520c02
     5a4:	544c5553 	bnel	v0,t4,15af4 <SRAM_BT_EXT5_BANK_ADDR+0x14f4>
     5a8:	53414c5f 	beql	k0,at,13728 <SRAM_BT_BACK_RCODE_ADDR+0x2728>
     5ac:	414c5054 	0x414c5054
     5b0:	02950059 	0x2950059
     5b4:	5345520c 	beql	k0,a1,14de8 <SRAM_BT_EXT5_BANK_ADDR+0x7e8>
     5b8:	5f544c55 	0x5f544c55
     5bc:	5458454e 	bnel	v0,t8,11af8 <SRAM_BT_BACK_RCODE_ADDR+0xaf8>
     5c0:	4e55465f 	c3	0x55465f
     5c4:	4f495443 	c3	0x1495443
     5c8:	0296004e 	0x296004e
     5cc:	5345520c 	beql	k0,a1,14e00 <SRAM_BT_EXT5_BANK_ADDR+0x800>
     5d0:	5f544c55 	0x5f544c55
     5d4:	45544e45 	0x45544e45
     5d8:	50555f52 	beql	v0,s5,18324 <SRAM_FS_BUF_ADDR+0x24>
     5dc:	44415247 	0x44415247
     5e0:	02970045 	0x2970045
     5e4:	5345520c 	beql	k0,a1,14e18 <SRAM_BT_EXT5_BANK_ADDR+0x818>
     5e8:	5f544c55 	0x5f544c55
     5ec:	4e49414d 	c3	0x49414d
     5f0:	5050415f 	beql	v0,s0,10b70 <SRAM_COMMON_BT_MANAGER_RCODE+0x670>
     5f4:	0c029800 	jal	a6000 <AP_BANK_SPACE+0x66000>
     5f8:	55534552 	bnel	t2,s3,11b44 <SRAM_BT_BACK_RCODE_ADDR+0xb44>
     5fc:	455f544c 	0x455f544c
     600:	5245544e 	beql	s2,a1,1573c <SRAM_BT_EXT5_BANK_ADDR+0x113c>
     604:	414c415f 	0x414c415f
     608:	99004d52 	lwr	zero,19794(t0)
     60c:	45520c02 	0x45520c02
     610:	544c5553 	bnel	v0,t4,15b60 <SRAM_BT_EXT5_BANK_ADDR+0x1560>
     614:	414c415f 	0x414c415f
     618:	535f4d52 	beql	k0,ra,13b64 <SRAM_BT_EXT3_BANK_ADDR+0x264>
     61c:	5a4f4f4e 	0x5a4f4f4e
     620:	029a0045 	0x29a0045
     624:	5345520c 	beql	k0,a1,14e58 <SRAM_BT_EXT5_BANK_ADDR+0x858>
     628:	5f544c55 	0x5f544c55
     62c:	52414c41 	beql	s2,at,13734 <SRAM_BT_BACK_RCODE_ADDR+0x2734>
     630:	4c435f4d 	0x4c435f4d
     634:	0045534f 	0x45534f
     638:	520c029b 	beql	s0,t4,10a8 <SRAM_BTCALL_CALLRING_BUF_SIZE+0xa8>
     63c:	4c555345 	0x4c555345
     640:	4c415f54 	0x4c415f54
     644:	5f4d5241 	0x5f4d5241
     648:	474e4952 	c1	0x14e4952
     64c:	4c4f465f 	0x4c4f465f
     650:	5f524544 	0x5f524544
     654:	4e414353 	c3	0x414353
     658:	0c029c00 	jal	a7000 <AP_BANK_SPACE+0x67000>
     65c:	55534552 	bnel	t2,s3,11ba8 <SRAM_BT_BACK_RCODE_ADDR+0xba8>
     660:	415f544c 	0x415f544c
     664:	5f4f5455 	0x5f4f5455
     668:	52414553 	beql	s2,at,11bb8 <SRAM_BT_BACK_RCODE_ADDR+0xbb8>
     66c:	9d004843 	0x9d004843
     670:	45520c02 	0x45520c02
     674:	544c5553 	bnel	v0,t4,15bc4 <SRAM_BT_EXT5_BANK_ADDR+0x15c4>
     678:	4e414d5f 	c3	0x414d5f
     67c:	5f4c4155 	0x5f4c4155
     680:	52414553 	beql	s2,at,11bd0 <SRAM_BT_BACK_RCODE_ADDR+0xbd0>
     684:	555f4843 	bnel	t2,ra,12794 <SRAM_BT_BACK_RCODE_ADDR+0x1794>
     688:	029e0050 	0x29e0050
     68c:	5345520c 	beql	k0,a1,14ec0 <SRAM_BT_EXT5_BANK_ADDR+0x8c0>
     690:	5f544c55 	0x5f544c55
     694:	554e414d 	bnel	t2,t6,10bcc <SRAM_COMMON_BT_MANAGER_RCODE+0x6cc>
     698:	535f4c41 	beql	k0,ra,137a0 <SRAM_BT_BACK_RCODE_ADDR+0x27a0>
     69c:	43524145 	c0	0x1524145
     6a0:	4f445f48 	c3	0x1445f48
     6a4:	9f004e57 	0x9f004e57
     6a8:	45520c02 	0x45520c02
     6ac:	544c5553 	bnel	v0,t4,15bfc <SRAM_BT_EXT5_BANK_ADDR+0x15fc>
     6b0:	4f54535f 	c3	0x154535f
     6b4:	45535f50 	0x45535f50
     6b8:	48435241 	0x48435241
     6bc:	0c02a000 	jal	a8000 <AP_BANK_SPACE+0x68000>
     6c0:	55534552 	bnel	t2,s3,11c0c <SRAM_BT_BACK_RCODE_ADDR+0xc0c>
     6c4:	435f544c 	c0	0x15f544c
     6c8:	49464e4f 	0x49464e4f
     6cc:	48435f47 	0x48435f47
     6d0:	45475241 	0x45475241
     6d4:	0c02a100 	jal	a8400 <AP_BANK_SPACE+0x68400>
     6d8:	55534552 	bnel	t2,s3,11c24 <SRAM_BT_BACK_RCODE_ADDR+0xc24>
     6dc:	435f544c 	c0	0x15f544c
     6e0:	49464e4f 	0x49464e4f
     6e4:	48435f47 	0x48435f47
     6e8:	45475241 	0x45475241
     6ec:	4955515f 	0x4955515f
     6f0:	02a20054 	0x2a20054
     6f4:	5345520c 	beql	k0,a1,14f28 <SRAM_BT_EXT5_BANK_ADDR+0x928>
     6f8:	5f544c55 	0x5f544c55
     6fc:	45544e45 	0x45544e45
     700:	53415f52 	beql	k0,at,1844c <SRAM_FS_BUF_ADDR+0x14c>
     704:	485f5451 	0x485f5451
     708:	45545f46 	0x45545f46
     70c:	a3005453 	sb	zero,21587(t8)
     710:	45520c02 	0x45520c02
     714:	544c5553 	bnel	v0,t4,15c64 <SRAM_BT_EXT5_BANK_ADDR+0x1664>
     718:	544e455f 	bnel	v0,t6,11c98 <SRAM_BT_BACK_RCODE_ADDR+0xc98>
     71c:	555f5245 	bnel	t2,ra,15034 <SRAM_BT_EXT5_BANK_ADDR+0xa34>
     720:	31524553 	andi	s2,t2,0x4553
     724:	0c02a400 	jal	a9000 <AP_BANK_SPACE+0x69000>
     728:	55534552 	bnel	t2,s3,11c74 <SRAM_BT_BACK_RCODE_ADDR+0xc74>
     72c:	535f544c 	beql	k0,ra,15860 <SRAM_BT_EXT5_BANK_ADDR+0x1260>
     730:	45545359 	0x45545359
     734:	4e455f4d 	c3	0x455f4d
     738:	5f524554 	0x5f524554
     73c:	a5003353 	sh	zero,13139(t0)
     740:	45520c02 	0x45520c02
     744:	544c5553 	bnel	v0,t4,15c94 <SRAM_BT_EXT5_BANK_ADDR+0x1694>
     748:	5359535f 	beql	k0,t9,154c8 <SRAM_BT_EXT5_BANK_ADDR+0xec8>
     74c:	5f4d4554 	0x5f4d4554
     750:	54495845 	bnel	v0,t1,16868 <SRAM_BT_UART_BUF_ADDR+0x468>
     754:	0033535f 	0x33535f
     758:	520c02a6 	beql	s0,t4,11f4 <SRAM_BTCALL_CALLRING_BUF_SIZE+0x1f4>
     75c:	4c555345 	0x4c555345
     760:	4e455f54 	c3	0x455f54
     764:	5f524554 	0x5f524554
     768:	42555453 	c0	0x555453
     76c:	4245445f 	c0	0x45445f
     770:	a7004755 	sh	zero,18261(t8)
     774:	45520c02 	0x45520c02
     778:	544c5553 	bnel	v0,t4,15cc8 <SRAM_BT_EXT5_BANK_ADDR+0x16c8>
     77c:	4453455f 	0x4453455f
     780:	5345525f 	beql	k0,a1,15100 <SRAM_BT_EXT5_BANK_ADDR+0xb00>
     784:	54524154 	bnel	v0,s2,10cd8 <SRAM_COMMON_BT_MANAGER_RCODE+0x7d8>
     788:	0c02a800 	jal	aa000 <AP_BANK_SPACE+0x6a000>
     78c:	55534552 	bnel	t2,s3,11cd8 <SRAM_BT_BACK_RCODE_ADDR+0xcd8>
     790:	495f544c 	0x495f544c
     794:	5f454c44 	0x5f454c44
     798:	45444f4d 	0x45444f4d
     79c:	0c02a900 	jal	aa400 <AP_BANK_SPACE+0x6a400>
     7a0:	55534552 	bnel	t2,s3,11cec <SRAM_BT_BACK_RCODE_ADDR+0xcec>
     7a4:	455f544c 	0x455f544c
     7a8:	5245544e 	beql	s2,a1,158e4 <SRAM_BT_EXT5_BANK_ADDR+0x12e4>
     7ac:	41544f5f 	0x41544f5f
     7b0:	4e4f535f 	c3	0x4f535f
     7b4:	45545f47 	0x45545f47
     7b8:	aa005453 	swl	zero,21587(s0)
     7bc:	45520c02 	0x45520c02
     7c0:	544c5553 	bnel	v0,t4,15d10 <SRAM_BT_EXT5_BANK_ADDR+0x1710>
     7c4:	414c505f 	0x414c505f
     7c8:	44535f59 	0x44535f59
     7cc:	49465f44 	0x49465f44
     7d0:	00363144 	0x363144
     7d4:	520c02ab 	beql	s0,t4,1284 <SRAM_BTCALL_CALLRING_BUF_SIZE+0x284>
     7d8:	4c555345 	0x4c555345
     7dc:	4c505f54 	0x4c505f54
     7e0:	535f5941 	beql	k0,ra,16ce8 <SRAM_BTCALL_ASQT_BUF_ADDR+0xe8>
     7e4:	465f4444 	c1	0x5f4444
     7e8:	37314449 	ori	s1,t9,0x4449
     7ec:	0c02ac00 	jal	ab000 <AP_BANK_SPACE+0x6b000>
     7f0:	55534552 	bnel	t2,s3,11d3c <SRAM_BT_BACK_RCODE_ADDR+0xd3c>
     7f4:	505f544c 	beql	v0,ra,15928 <SRAM_BT_EXT5_BANK_ADDR+0x1328>
     7f8:	5f59414c 	0x5f59414c
     7fc:	5f444453 	0x5f444453
     800:	31444946 	andi	a0,t2,0x4946
     804:	02ad0038 	0x2ad0038
     808:	5345520c 	beql	k0,a1,1503c <SRAM_BT_EXT5_BANK_ADDR+0xa3c>
     80c:	5f544c55 	0x5f544c55
     810:	59414c50 	0x59414c50
     814:	4444535f 	0x4444535f
     818:	4449465f 	0x4449465f
     81c:	ae003931 	sw	zero,14641(s0)
     820:	45520c02 	0x45520c02
     824:	544c5553 	bnel	v0,t4,15d74 <SRAM_BT_EXT5_BANK_ADDR+0x1774>
     828:	414c505f 	0x414c505f
     82c:	44535f59 	0x44535f59
     830:	49465f44 	0x49465f44
     834:	00303244 	0x303244
     838:	520c02af 	beql	s0,t4,12f8 <SRAM_BTCALL_CALLRING_BUF_SIZE+0x2f8>
     83c:	4c555345 	0x4c555345
     840:	4c505f54 	0x4c505f54
     844:	535f5941 	beql	k0,ra,16d4c <SRAM_BTCALL_ASQT_BUF_ADDR+0x14c>
     848:	465f4444 	c1	0x5f4444
     84c:	31324449 	andi	s2,t1,0x4449
     850:	0c02b000 	jal	ac000 <AP_BANK_SPACE+0x6c000>
     854:	55534552 	bnel	t2,s3,11da0 <SRAM_BT_BACK_RCODE_ADDR+0xda0>
     858:	505f544c 	beql	v0,ra,1598c <SRAM_BT_EXT5_BANK_ADDR+0x138c>
     85c:	5f59414c 	0x5f59414c
     860:	5f444453 	0x5f444453
     864:	32444946 	andi	a0,s2,0x4946
     868:	02b10032 	tlt	s5,s1
     86c:	5345520c 	beql	k0,a1,150a0 <SRAM_BT_EXT5_BANK_ADDR+0xaa0>
     870:	5f544c55 	0x5f544c55
     874:	59414c50 	0x59414c50
     878:	4444535f 	0x4444535f
     87c:	4449465f 	0x4449465f
     880:	b2003332 	0xb2003332
     884:	45520c02 	0x45520c02
     888:	544c5553 	bnel	v0,t4,15dd8 <SRAM_BT_EXT5_BANK_ADDR+0x17d8>
     88c:	414c505f 	0x414c505f
     890:	44535f59 	0x44535f59
     894:	49465f44 	0x49465f44
     898:	00343244 	0x343244
     89c:	520c02b3 	beql	s0,t4,136c <SRAM_BTCALL_CALLRING_BUF_SIZE+0x36c>
     8a0:	4c555345 	0x4c555345
     8a4:	4c505f54 	0x4c505f54
     8a8:	535f5941 	beql	k0,ra,16db0 <SRAM_BTCALL_ASQT_BUF_ADDR+0x1b0>
     8ac:	465f4444 	c1	0x5f4444
     8b0:	35324449 	ori	s2,t1,0x4449
     8b4:	0c02b400 	jal	ad000 <AP_BANK_SPACE+0x6d000>
     8b8:	55534552 	bnel	t2,s3,11e04 <SRAM_BT_BACK_RCODE_ADDR+0xe04>
     8bc:	455f544c 	0x455f544c
     8c0:	5245544e 	beql	s2,a1,159fc <SRAM_BT_EXT5_BANK_ADDR+0x13fc>
     8c4:	5f54425f 	0x5f54425f
     8c8:	00504244 	0x504244
     8cc:	520c02b5 	beql	s0,t4,13a4 <SRAM_BTCALL_CALLRING_BUF_SIZE+0x3a4>
     8d0:	4c555345 	0x4c555345
     8d4:	49445f54 	0x49445f54
     8d8:	474f4c41 	c1	0x14f4c41
     8dc:	004b4f5f 	0x4b4f5f
     8e0:	520c0480 	beql	s0,t4,1ae4 <SRAM_BTCALL_CALLRING_BUF_SIZE+0xae4>
     8e4:	4c555345 	0x4c555345
     8e8:	49445f54 	0x49445f54
     8ec:	474f4c41 	c1	0x14f4c41
     8f0:	4e41435f 	c3	0x41435f
     8f4:	004c4543 	0x4c4543
     8f8:	520c0481 	beql	s0,t4,1b00 <SRAM_BTCALL_CALLRING_BUF_SIZE+0xb00>
     8fc:	4c555345 	0x4c555345
     900:	49445f54 	0x49445f54
     904:	474f4c41 	c1	0x14f4c41
     908:	4f42415f 	c3	0x142415f
     90c:	82005452 	lb	zero,21586(s0)
     910:	45520c04 	0x45520c04
     914:	544c5553 	bnel	v0,t4,15e64 <SRAM_BT_EXT5_BANK_ADDR+0x1864>
     918:	4149445f 	0x4149445f
     91c:	5f474f4c 	0x5f474f4c
     920:	52544552 	beql	s2,s4,11e6c <SRAM_BT_BACK_RCODE_ADDR+0xe6c>
     924:	04830059 	bgezl	a0,a8c <SRAM_AP_BACK_CODEC_RCODE_SIZE+0x8c>
     928:	5345520c 	beql	k0,a1,1515c <SRAM_BT_EXT5_BANK_ADDR+0xb5c>
     92c:	5f544c55 	0x5f544c55
     930:	4c414944 	0x4c414944
     934:	495f474f 	0x495f474f
     938:	524f4e47 	beql	s2,t7,14258 <SRAM_IRQ_PRINT_BUFFER_ADDR+0x188>
     93c:	04840045 	0x4840045
     940:	5345520c 	beql	k0,a1,15174 <SRAM_BT_EXT5_BANK_ADDR+0xb74>
     944:	5f544c55 	0x5f544c55
     948:	4c414944 	0x4c414944
     94c:	595f474f 	0x595f474f
     950:	85005345 	lh	zero,21317(t0)
     954:	45520c04 	0x45520c04
     958:	544c5553 	bnel	v0,t4,15ea8 <SRAM_BT_EXT5_BANK_ADDR+0x18a8>
     95c:	4149445f 	0x4149445f
     960:	5f474f4c 	0x5f474f4c
     964:	86004f4e 	lh	zero,20302(s0)
     968:	45520c04 	0x45520c04
     96c:	544c5553 	bnel	v0,t4,15ebc <SRAM_BT_EXT5_BANK_ADDR+0x18bc>
     970:	4149445f 	0x4149445f
     974:	5f474f4c 	0x5f474f4c
     978:	434e4143 	c0	0x14e4143
     97c:	415f4c45 	0x415f4c45
     980:	004f5455 	0x4f5455
     984:	520c0487 	beql	s0,t4,1ba4 <SRAM_BTCALL_CALLRING_BUF_SIZE+0xba4>
     988:	4c555345 	0x4c555345
     98c:	49445f54 	0x49445f54
     990:	474f4c41 	c1	0x14f4c41
     994:	4253555f 	c0	0x53555f
     998:	554f535f 	bnel	t2,t7,15718 <SRAM_BT_EXT5_BANK_ADDR+0x1118>
     99c:	8800444e 	lwl	zero,17486(zero)
     9a0:	45520c04 	0x45520c04
     9a4:	544c5553 	bnel	v0,t4,15ef4 <SRAM_BT_EXT5_BANK_ADDR+0x18f4>
     9a8:	4149445f 	0x4149445f
     9ac:	5f474f4c 	0x5f474f4c
     9b0:	594c4e4f 	0x594c4e4f
     9b4:	4148435f 	0x4148435f
     9b8:	00454752 	0x454752
     9bc:	520c0489 	beql	s0,t4,1be4 <SRAM_BTCALL_CALLRING_BUF_SIZE+0xbe4>
     9c0:	4c555345 	0x4c555345
     9c4:	49485f54 	0x49485f54
     9c8:	45535f44 	0x45535f44
     9cc:	4b5f444e 	c2	0x15f444e
     9d0:	455f5945 	0x455f5945
     9d4:	544e4556 	bnel	v0,t6,11f30 <SRAM_BT_BACK_RCODE_ADDR+0xf30>
     9d8:	00048a00 	sll	s1,a0,0x8
     9dc:	7070610d 	0x7070610d
     9e0:	7365725f 	udi15	k1,a1,t6,0x9
     9e4:	5f746c75 	0x5f746c75
     9e8:	80050065 	lb	a1,101(zero)
     9ec:	00027a01 	0x27a01
     9f0:	0a150e00 	j	8543800 <AP_BANK_SPACE+0x8503800>
     9f4:	02040000 	0x2040000
     9f8:	640f0255 	0x640f0255
     9fc:	00617461 	0x617461
     a00:	0a025202 	j	8094808 <AP_BANK_SPACE+0x8054808>
     a04:	0f000002 	jal	c000008 <AP_BANK_SPACE+0xbfc0008>
     a08:	72646461 	0x72646461
     a0c:	02540200 	0x2540200
     a10:	00000163 	0x163
     a14:	0a421000 	j	9084000 <AP_BANK_SPACE+0x9044000>
     a18:	02080000 	0x2080000
     a1c:	74110256 	jalx	440958 <AP_BANK_SPACE+0x400958>
     a20:	00657079 	0x657079
     a24:	3f024e02 	0x3f024e02
     a28:	02000001 	movf	zero,s0,$fcc0
     a2c:	63110023 	0x63110023
     a30:	65746e6f 	0x65746e6f
     a34:	0200746e 	0x200746e
     a38:	09f10255 	j	7c40954 <AP_BANK_SPACE+0x7c00954>
     a3c:	23020000 	addi	v0,t8,0
     a40:	6d0d0004 	0x6d0d0004
     a44:	615f6773 	0x615f6773
     a48:	5f737070 	0x5f737070
     a4c:	56020074 	bnel	s0,v0,c20 <SRAM_ASRC_BUF_1_SIZE+0x20>
     a50:	000a1502 	srl	v0,t2,0x14
     a54:	0a951000 	j	a544000 <AP_BANK_SPACE+0xa504000>
     a58:	02080000 	0x2080000
     a5c:	7411026f 	jalx	4409bc <AP_BANK_SPACE+0x4009bc>
     a60:	00657079 	0x657079
     a64:	32026b02 	andi	v0,s0,0x6b02
     a68:	02000001 	movf	zero,s0,$fcc0
     a6c:	72110023 	0x72110023
     a70:	72657365 	0x72657365
     a74:	02006576 	tne	s0,zero,0x195
     a78:	021a026c 	0x21a026c
     a7c:	23020000 	addi	v0,t8,0
     a80:	6f631101 	0x6f631101
     a84:	6e65746e 	0x6e65746e
     a88:	6e020074 	0x6e020074
     a8c:	00016302 	srl	t4,at,0xc
     a90:	04230200 	bgezl	at,1294 <SRAM_BTCALL_CALLRING_BUF_SIZE+0x294>
     a94:	736d0d00 	0x736d0d00
     a98:	65725f67 	0x65725f67
     a9c:	5f796c70 	0x5f796c70
     aa0:	6f020074 	0x6f020074
     aa4:	000a5502 	srl	t2,t2,0x14
     aa8:	0ae21000 	j	b884000 <AP_BANK_SPACE+0xb844000>
     aac:	02100000 	0x2100000
     ab0:	6d11027c 	0x6d11027c
     ab4:	02006773 	tltu	s0,zero,0x19d
     ab8:	0a420277 	j	90809dc <AP_BANK_SPACE+0x90409dc>
     abc:	23020000 	addi	v0,t8,0
     ac0:	65731100 	0x65731100
     ac4:	7902006d 	0x7902006d
     ac8:	00020402 	srl	zero,v0,0x10
     acc:	08230200 	j	8c0800 <AP_BANK_SPACE+0x880800>
     ad0:	70657211 	udi1	v1,a1,t6,0x8
     ad4:	0200796c 	0x200796c
     ad8:	0ae2027b 	j	b8809ec <AP_BANK_SPACE+0xb8409ec>
     adc:	23020000 	addi	v0,t8,0
     ae0:	040a000c 	tlti	zero,12
     ae4:	00000a95 	0xa95
     ae8:	6972700d 	0x6972700d
     aec:	65746176 	0x65746176
     af0:	67736d5f 	0x67736d5f
     af4:	0200745f 	0x200745f
     af8:	0aa9027c 	j	aa409f0 <AP_BANK_SPACE+0xaa009f0>
     afc:	040a0000 	tlti	zero,0
     b00:	00000ae8 	0xae8
     b04:	000dad10 	0xdad10
     b08:	32071c00 	andi	a3,s0,0x1c00
     b0c:	6e651101 	0x6e651101
     b10:	656e6967 	0x656e6967
     b14:	7079745f 	udi15	v1,t9,t6,0x11
     b18:	07070065 	0x7070065
     b1c:	00013201 	0x13201
     b20:	00230200 	0x230200
     b24:	676e6511 	0x676e6511
     b28:	5f656e69 	0x5f656e69
     b2c:	74617473 	jalx	185d1cc <AP_BANK_SPACE+0x181d1cc>
     b30:	09070065 	j	41c0194 <AP_BANK_SPACE+0x4180194>
     b34:	00013201 	0x13201
     b38:	01230200 	0x1230200
     b3c:	70706111 	udi1	v1,s0,t4,0x4
     b40:	6174735f 	0x6174735f
     b44:	07006574 	bltz	t8,1a118 <SRAM_APPLIB_DATA_ADDR+0x58>
     b48:	0132010b 	0x132010b
     b4c:	23020000 	addi	v0,t8,0
     b50:	69751102 	0x69751102
     b54:	6174735f 	0x6174735f
     b58:	00737574 	teq	v1,s3,0x1d5
     b5c:	32010d07 	andi	at,s0,0xd07
     b60:	02000001 	movf	zero,s0,$fcc0
     b64:	67110323 	0x67110323
     b68:	5f6f6e5f 	0x5f6f6e5f
     b6c:	70707573 	0x70707573
     b70:	5f74726f 	0x5f74726f
     b74:	5f737474 	0x5f737474
     b78:	67616c66 	0x67616c66
     b7c:	01120700 	0x1120700
     b80:	00000132 	tlt	zero,zero,0x4
     b84:	11042302 	beq	t0,a0,9790 <SRAM_BANK_B_ADDR+0x390>
     b88:	65735f67 	0x65735f67
     b8c:	655f646e 	0x655f646e
     b90:	5f746978 	0x5f746978
     b94:	5f6d6d6d 	0x5f6d6d6d
     b98:	00737474 	teq	v1,s3,0x1d1
     b9c:	32011307 	andi	at,s0,0x1307
     ba0:	02000001 	movf	zero,s0,$fcc0
     ba4:	70120523 	0x70120523
     ba8:	7265776f 	0x7265776f
     bac:	5f6e6f5f 	0x5f6e6f5f
     bb0:	67616c66 	0x67616c66
     bb4:	01140700 	0x1140700
     bb8:	00000132 	tlt	zero,zero,0x4
     bbc:	02040401 	0x2040401
     bc0:	73120623 	0x73120623
     bc4:	5f627574 	0x5f627574
     bc8:	65646f6d 	0x65646f6d
     bcc:	616c665f 	0x616c665f
     bd0:	15070067 	bne	t0,a3,d70 <SRAM_BT_EXT3_BANK_SIZE+0x70>
     bd4:	00013201 	0x13201
     bd8:	00040100 	sll	zero,a0,0x4
     bdc:	11062302 	beq	t0,a2,97e8 <SRAM_BANK_B_ADDR+0x3e8>
     be0:	6e756f73 	0x6e756f73
     be4:	74735f64 	jalx	1cd7d90 <AP_BANK_SPACE+0x1c97d90>
     be8:	00657461 	0x657461
     bec:	32011807 	andi	at,s0,0x1807
     bf0:	02000001 	movf	zero,s0,$fcc0
     bf4:	66110723 	0x66110723
     bf8:	735f7869 	0x735f7869
     bfc:	6c706d61 	0x6c706d61
     c00:	61725f65 	0x61725f65
     c04:	665f6574 	0x665f6574
     c08:	0067616c 	0x67616c
     c0c:	32011a07 	andi	at,s0,0x1a07
     c10:	02000001 	movf	zero,s0,$fcc0
     c14:	62110823 	0x62110823
     c18:	65747461 	0x65747461
     c1c:	725f7972 	0x725f7972
     c20:	726f7065 	0x726f7065
     c24:	6e655f74 	0x6e655f74
     c28:	656c6261 	0x656c6261
     c2c:	011d0700 	0x11d0700
     c30:	00000132 	tlt	zero,zero,0x4
     c34:	11092302 	beq	t0,t1,9840 <SRAM_BANK_B_ADDR+0x440>
     c38:	72656e65 	0x72656e65
     c3c:	615f7967 	0x615f7967
     c40:	6c696176 	0x6c696176
     c44:	656c6261 	0x656c6261
     c48:	616c665f 	0x616c665f
     c4c:	20070067 	addi	a3,zero,103
     c50:	00009201 	0x9201
     c54:	0a230200 	j	88c0800 <AP_BANK_SPACE+0x8880800>
     c58:	655f7011 	0x655f7011
     c5c:	6772656e 	0x6772656e
     c60:	61765f79 	0x61765f79
     c64:	0065756c 	0x65756c
     c68:	ad012107 	sw	at,8455(t0)
     c6c:	0200000d 	break	0x200
     c70:	70110c23 	0x70110c23
     c74:	656e655f 	0x656e655f
     c78:	5f796772 	0x5f796772
     c7c:	756c6176 	jalx	5b185d8 <AP_BANK_SPACE+0x5ad85d8>
     c80:	61625f65 	0x61625f65
     c84:	0073646e 	0x73646e
     c88:	ad012407 	sw	at,9223(t0)
     c8c:	0200000d 	break	0x200
     c90:	70111023 	0x70111023
     c94:	656e655f 	0x656e655f
     c98:	5f796772 	0x5f796772
     c9c:	756c6176 	jalx	5b185d8 <AP_BANK_SPACE+0x5ad85d8>
     ca0:	72665f65 	0x72665f65
     ca4:	00737165 	0x737165
     ca8:	ad012507 	sw	at,9479(t0)
     cac:	0200000d 	break	0x200
     cb0:	73111423 	0x73111423
     cb4:	5f627574 	0x5f627574
     cb8:	745f6370 	jalx	17d8dc0 <AP_BANK_SPACE+0x1798dc0>
     cbc:	736c6f6f 	0x736c6f6f
     cc0:	7079745f 	udi15	v1,t9,t6,0x11
     cc4:	28070065 	slti	a3,zero,101
     cc8:	00013201 	0x13201
     ccc:	18230200 	0x18230200
     cd0:	00001213 	0x1213
     cd4:	01290700 	0x1290700
     cd8:	00000132 	tlt	zero,zero,0x4
     cdc:	12192302 	beq	s0,t9,98e8 <SRAM_BANK_B_ADDR+0x4e8>
     ce0:	5f6e6962 	0x5f6e6962
     ce4:	626d756e 	0x626d756e
     ce8:	07007265 	bltz	t8,1d680 <SRAM_BANK_C_ADDR+0x180>
     cec:	0132012b 	0x132012b
     cf0:	03010000 	0x3010000
     cf4:	1a230205 	0x1a230205
     cf8:	76617712 	jalx	985dc48 <AP_BANK_SPACE+0x981dc48>
     cfc:	645f7365 	0x645f7365
     d00:	705f6561 	0x705f6561
     d04:	5f617261 	0x5f617261
     d08:	61647075 	0x61647075
     d0c:	665f6574 	0x665f6574
     d10:	0067616c 	0x67616c
     d14:	32012c07 	andi	at,s0,0x2c07
     d18:	01000001 	movf	zero,t0,$fcc0
     d1c:	23020401 	addi	v0,t8,1025
     d20:	7774121a 	jalx	dd04868 <AP_BANK_SPACE+0xdcc4868>
     d24:	68705f6f 	0x68705f6f
     d28:	5f656e6f 	0x5f656e6f
     d2c:	65646f6d 	0x65646f6d
     d30:	012d0700 	0x12d0700
     d34:	00000132 	tlt	zero,zero,0x4
     d38:	02030101 	0x2030101
     d3c:	76121a23 	jalx	848688c <AP_BANK_SPACE+0x844688c>
     d40:	6563696f 	0x6563696f
     d44:	6365725f 	0x6365725f
     d48:	6e676e6f 	0x6e676e6f
     d4c:	5f657a69 	0x5f657a69
     d50:	65646f6d 	0x65646f6d
     d54:	012e0700 	0x12e0700
     d58:	00000132 	tlt	zero,zero,0x4
     d5c:	02020101 	0x2020101
     d60:	76121a23 	jalx	848688c <AP_BANK_SPACE+0x844688c>
     d64:	6563696f 	0x6563696f
     d68:	6365725f 	0x6365725f
     d6c:	7a696e67 	0x7a696e67
     d70:	74735f65 	jalx	1cd7d94 <AP_BANK_SPACE+0x1c97d94>
     d74:	6d5f706f 	0x6d5f706f
     d78:	0065646f 	0x65646f
     d7c:	32012f07 	andi	at,s0,0x2f07
     d80:	01000001 	movf	zero,t0,$fcc0
     d84:	23020101 	addi	v0,t8,257
     d88:	6d73121a 	0x6d73121a
     d8c:	5f747261 	0x5f747261
     d90:	5f667562 	0x5f667562
     d94:	6e617274 	0x6e617274
     d98:	6c665f73 	0x6c665f73
     d9c:	07006761 	bltz	t8,1ab24 <SRAM_OS_DATA_ADDR+0x724>
     da0:	01320131 	tgeu	t1,s2,0x4
     da4:	01010000 	0x1010000
     da8:	1a230200 	0x1a230200
     dac:	c4040a00 	lwc1	$f4,2560(zero)
     db0:	0d000000 	jal	4000000 <AP_BANK_SPACE+0x3fc0000>
     db4:	5f707061 	0x5f707061
     db8:	6f666e69 	0x6f666e69
     dbc:	6174735f 	0x6174735f
     dc0:	615f6574 	0x615f6574
     dc4:	745f6c6c 	jalx	17db1b0 <AP_BANK_SPACE+0x179b1b0>
     dc8:	01320700 	0x1320700
     dcc:	00000b04 	0xb04
     dd0:	00103610 	0x103610
     dd4:	6b071800 	0x6b071800
     dd8:	756d1101 	jalx	5b44404 <AP_BANK_SPACE+0x5b04404>
     ddc:	735f6574 	0x735f6574
     de0:	65746174 	0x65746174
     de4:	013a0700 	0x13a0700
     de8:	00000092 	0x92
     dec:	11002302 	beqz	t0,99f8 <SRAM_BANK_B_ADDR+0x5f8>
     df0:	6d5f6170 	0x6d5f6170
     df4:	0065646f 	0x65646f
     df8:	92013c07 	lbu	at,15367(s0)
     dfc:	02000000 	0x2000000
     e00:	61110123 	0x61110123
     e04:	5f74756f 	0x5f74756f
     e08:	65646f6d 	0x65646f6d
     e0c:	013e0700 	0x13e0700
     e10:	00000132 	tlt	zero,zero,0x4
     e14:	11022302 	beq	t0,v0,9a20 <SRAM_BANK_B_ADDR+0x620>
     e18:	6b636162 	0x6b636162
     e1c:	6867696c 	0x6867696c
     e20:	74735f74 	jalx	1cd7dd0 <AP_BANK_SPACE+0x1c97dd0>
     e24:	00657461 	0x657461
     e28:	32014007 	andi	at,s0,0x4007
     e2c:	02000001 	movf	zero,s0,$fcc0
     e30:	63110323 	0x63110323
     e34:	5f647261 	0x5f647261
     e38:	74617473 	jalx	185d1cc <AP_BANK_SPACE+0x181d1cc>
     e3c:	42070065 	c0	0x70065
     e40:	00013201 	0x13201
     e44:	04230200 	bgezl	at,1648 <SRAM_BTCALL_CALLRING_BUF_SIZE+0x648>
     e48:	6f687511 	0x6f687511
     e4c:	735f7473 	0x735f7473
     e50:	65746174 	0x65746174
     e54:	01440700 	0x1440700
     e58:	00000132 	tlt	zero,zero,0x4
     e5c:	11052302 	beq	t0,a1,9a68 <SRAM_BANK_B_ADDR+0x668>
     e60:	656e696c 	0x656e696c
     e64:	735f6e69 	0x735f6e69
     e68:	65746174 	0x65746174
     e6c:	01460700 	0x1460700
     e70:	00000132 	tlt	zero,zero,0x4
     e74:	11062302 	beq	t0,a2,9a80 <SRAM_BANK_B_ADDR+0x680>
     e78:	6c626163 	0x6c626163
     e7c:	74735f65 	jalx	1cd7d94 <AP_BANK_SPACE+0x1c97d94>
     e80:	00657461 	0x657461
     e84:	32014807 	andi	at,s0,0x4807
     e88:	02000001 	movf	zero,s0,$fcc0
     e8c:	68110723 	0x68110723
     e90:	74735f70 	jalx	1cd7dc0 <AP_BANK_SPACE+0x1c97dc0>
     e94:	00657461 	0x657461
     e98:	92014a07 	lbu	at,18951(s0)
     e9c:	02000000 	0x2000000
     ea0:	63110823 	0x63110823
     ea4:	67726168 	0x67726168
     ea8:	74735f65 	jalx	1cd7d94 <AP_BANK_SPACE+0x1c97d94>
     eac:	00657461 	0x657461
     eb0:	32014c07 	andi	at,s0,0x4c07
     eb4:	02000001 	movf	zero,s0,$fcc0
     eb8:	62110923 	0x62110923
     ebc:	765f7461 	jalx	97dd184 <AP_BANK_SPACE+0x979d184>
     ec0:	65756c61 	0x65756c61
     ec4:	014e0700 	0x14e0700
     ec8:	00000132 	tlt	zero,zero,0x4
     ecc:	110a2302 	beq	t0,t2,9ad8 <SRAM_BANK_B_ADDR+0x6d8>
     ed0:	676e6972 	0x676e6972
     ed4:	616c615f 	0x616c615f
     ed8:	07006d72 	bltz	t8,1c4a4 <SRAM_OS_TASK_STACK_ADDR+0xea4>
     edc:	00920150 	0x920150
     ee0:	23020000 	addi	v0,t8,0
     ee4:	7473120b 	jalx	1cc482c <AP_BANK_SPACE+0x1c8482c>
     ee8:	745f6275 	jalx	17d89d4 <AP_BANK_SPACE+0x17989d4>
     eec:	736c6f6f 	0x736c6f6f
     ef0:	7079745f 	udi15	v1,t9,t6,0x11
     ef4:	52070065 	beql	s0,a3,108c <SRAM_BTCALL_CALLRING_BUF_SIZE+0x8c>
     ef8:	00013201 	0x13201
     efc:	01070100 	0x1070100
     f00:	140c2302 	bne	zero,t4,9b0c <SRAM_BANK_B_ADDR+0x70c>
     f04:	00000012 	mflo	zero
     f08:	32015307 	andi	at,s0,0x5307
     f0c:	01000001 	movf	zero,t0,$fcc0
     f10:	23020001 	addi	v0,t8,1
     f14:	7561110c 	jalx	5844430 <AP_BANK_SPACE+0x5804430>
     f18:	65746f74 	0x65746f74
     f1c:	6d5f7473 	0x6d5f7473
     f20:	0065646f 	0x65646f
     f24:	32015507 	andi	at,s0,0x5507
     f28:	02000001 	movf	zero,s0,$fcc0
     f2c:	70110d23 	0x70110d23
     f30:	68637461 	0x68637461
     f34:	776f645f 	jalx	dbd917c <AP_BANK_SPACE+0xdb9917c>
     f38:	616f6c6e 	0x616f6c6e
     f3c:	6c665f64 	0x6c665f64
     f40:	07006761 	bltz	t8,1acc8 <SRAM_OS_HEAP_ADDR+0x48>
     f44:	00920158 	0x920158
     f48:	23020000 	addi	v0,t8,0
     f4c:	7462110e 	jalx	1884438 <AP_BANK_SPACE+0x1844438>
     f50:	776f705f 	jalx	dbdc17c <AP_BANK_SPACE+0xdb9c17c>
     f54:	6f5f7265 	0x6f5f7265
     f58:	5a07006e 	0x5a07006e
     f5c:	00009201 	0x9201
     f60:	0f230200 	jal	c8c0800 <AP_BANK_SPACE+0xc880800>
     f64:	6e6e6911 	0x6e6e6911
     f68:	705f7265 	0x705f7265
     f6c:	6e695f61 	0x6e695f61
     f70:	64657469 	0x64657469
     f74:	015c0700 	0x15c0700
     f78:	00000092 	0x92
     f7c:	11102302 	beq	t0,s0,9b88 <SRAM_BANK_B_ADDR+0x788>
     f80:	6574756f 	0x6574756f
     f84:	61705f72 	0x61705f72
     f88:	006e6f5f 	0x6e6f5f
     f8c:	92015e07 	lbu	at,24071(s0)
     f90:	02000000 	0x2000000
     f94:	63111123 	0x63111123
     f98:	665f7275 	0x665f7275
     f9c:	5f636e75 	0x5f636e75
     fa0:	65646e69 	0x65646e69
     fa4:	60070078 	0x60070078
     fa8:	00013201 	0x13201
     fac:	12230200 	beq	s1,v1,17b0 <SRAM_BTCALL_CALLRING_BUF_SIZE+0x7b0>
     fb0:	72756311 	udi1	s3,s5,t4,0xc
     fb4:	6e75665f 	0x6e75665f
     fb8:	64695f63 	0x64695f63
     fbc:	01620700 	0x1620700
     fc0:	00000132 	tlt	zero,zero,0x4
     fc4:	11132302 	beq	t0,s3,9bd0 <SRAM_BANK_B_ADDR+0x7d0>
     fc8:	5f6b7061 	0x5f6b7061
     fcc:	74617473 	jalx	185d1cc <AP_BANK_SPACE+0x181d1cc>
     fd0:	07007375 	bltz	t8,1dda8 <SRAM_BT_HCI_BUF_ADDR+0x4a8>
     fd4:	01320164 	0x1320164
     fd8:	23020000 	addi	v0,t8,0
     fdc:	65761114 	0x65761114
     fe0:	69666972 	0x69666972
     fe4:	69746163 	0x69746163
     fe8:	735f6e6f 	0x735f6e6f
     fec:	75746174 	jalx	5d185d0 <AP_BANK_SPACE+0x5cd85d0>
     ff0:	66070073 	0x66070073
     ff4:	00013201 	0x13201
     ff8:	15230200 	bne	t1,v1,17fc <SRAM_BTCALL_CALLRING_BUF_SIZE+0x7fc>
     ffc:	65656e11 	0x65656e11
    1000:	70755f64 	0x70755f64
    1004:	65746164 	0x65746164
    1008:	616c705f 	0x616c705f
    100c:	73696c79 	0x73696c79
    1010:	68070074 	0x68070074
    1014:	00013201 	0x13201
    1018:	16230200 	bne	s1,v1,181c <SRAM_BTCALL_CALLRING_BUF_SIZE+0x81c>
    101c:	74786511 	jalx	1e19444 <AP_BANK_SPACE+0x1dd9444>
    1020:	5f6e7265 	0x5f6e7265
    1024:	5f746162 	0x5f746162
    1028:	07006e69 	bltz	t8,1c9d0 <SRAM_OS_TASK_STACK_ADDR+0x13d0>
    102c:	0132016a 	0x132016a
    1030:	23020000 	addi	v0,t8,0
    1034:	610d0017 	0x610d0017
    1038:	695f7070 	0x695f7070
    103c:	5f6f666e 	0x5f6f666e
    1040:	74617473 	jalx	185d1cc <AP_BANK_SPACE+0x181d1cc>
    1044:	00745f65 	0x745f65
    1048:	d0016b07 	0xd0016b07
    104c:	1000000d 	b	1084 <SRAM_BTCALL_CALLRING_BUF_SIZE+0x84>
    1050:	000010be 	0x10be
    1054:	017a0704 	0x17a0704
    1058:	73616c11 	udi1	k1,at,t5,0x10
    105c:	69645f74 	0x69645f74
    1060:	07006b73 	bltz	t8,1be30 <SRAM_OS_TASK_STACK_ADDR+0x830>
    1064:	01320173 	tltu	t1,s2,0x5
    1068:	23020000 	addi	v0,t8,0
    106c:	616c1100 	0x616c1100
    1070:	665f7473 	0x665f7473
    1074:	5f636e75 	0x5f636e75
    1078:	65646e69 	0x65646e69
    107c:	75070078 	jalx	41c01e0 <AP_BANK_SPACE+0x41801e0>
    1080:	00013201 	0x13201
    1084:	01230200 	0x1230200
    1088:	73616c11 	udi1	k1,at,t5,0x10
    108c:	79735f74 	0x79735f74
    1090:	74735f73 	jalx	1cd7dcc <AP_BANK_SPACE+0x1c97dcc>
    1094:	73757461 	0x73757461
    1098:	01770700 	0x1770700
    109c:	00000132 	tlt	zero,zero,0x4
    10a0:	11022302 	beq	t0,v0,9cac <SRAM_UI_RCODE_ADDR+0xac>
    10a4:	7473616c 	jalx	1cd85b0 <AP_BANK_SPACE+0x1c985b0>
    10a8:	5f69755f 	0x5f69755f
    10ac:	74617473 	jalx	185d1cc <AP_BANK_SPACE+0x181d1cc>
    10b0:	07007375 	bltz	t8,1de88 <SRAM_BT_HCI_BUF_ADDR+0x588>
    10b4:	01320179 	0x1320179
    10b8:	23020000 	addi	v0,t8,0
    10bc:	610d0003 	0x610d0003
    10c0:	6c5f7070 	0x6c5f7070
    10c4:	5f747361 	0x5f747361
    10c8:	74617473 	jalx	185d1cc <AP_BANK_SPACE+0x181d1cc>
    10cc:	00745f65 	0x745f65
    10d0:	4f017a07 	c3	0x1017a07
    10d4:	15000010 	bnez	t0,1118 <SRAM_BTCALL_CALLRING_BUF_SIZE+0x118>
    10d8:	00001111 	0x1111
    10dc:	5f6d6601 	0x5f6d6601
    10e0:	725f6765 	0x725f6765
    10e4:	796c7065 	0x796c7065
    10e8:	67736d5f 	0x67736d5f
    10ec:	01060100 	0x1060100
    10f0:	bfc26019 	cache	0x2,24601(s8)
    10f4:	bfc26034 	cache	0x2,24628(s8)
    10f8:	70166101 	0x70166101
    10fc:	61766972 	0x61766972
    1100:	6d5f6574 	0x6d5f6574
    1104:	01006773 	tltu	t0,zero,0x19d
    1108:	000afe05 	0xafe05
    110c:	08910200 	j	2440800 <AP_BANK_SPACE+0x2400800>
    1110:	11641700 	beq	t3,a0,6d14 <SRAM_AP_BANK_BACK_AL_1_SIZE+0x2d14>
    1114:	66010000 	0x66010000
    1118:	676e656d 	0x676e656d
    111c:	5f656e69 	0x5f656e69
    1120:	7373656d 	0x7373656d
    1124:	5f656761 	0x5f656761
    1128:	6c616564 	0x6c616564
    112c:	6e61625f 	0x6e61625f
    1130:	0c01006b 	jal	401ac <AP_BANK_SPACE+0x1ac>
    1134:	0009dc01 	0x9dc01
    1138:	0268cd00 	0x268cd00
    113c:	026b8860 	0x26b8860
    1140:	16610160 	bne	s3,at,16c4 <SRAM_BTCALL_CALLRING_BUF_SIZE+0x6c4>
    1144:	5f727563 	0x5f727563
    1148:	0067736d 	0x67736d
    114c:	0afe0b01 	j	bf82c04 <AP_BANK_SPACE+0xbf42c04>
    1150:	91020000 	lbu	v0,0(t0)
    1154:	00201810 	0x201810
    1158:	0d010000 	jal	4040000 <AP_BANK_SPACE+0x4000000>
    115c:	000009dc 	0x9dc
    1160:	00009102 	srl	s2,zero,0x4
    1164:	0011b217 	0x11b217
    1168:	6d660100 	0x6d660100
    116c:	69676e65 	0x69676e65
    1170:	6d5f656e 	0x6d5f656e
    1174:	61737365 	0x61737365
    1178:	645f6567 	0x645f6567
    117c:	006c6165 	0x6c6165
    1180:	dc019001 	ldc3	$1,-28671(zero)
    1184:	39000009 	xori	zero,t0,0x9
    1188:	dcbfc260 	ldc3	$31,-15776(a1)
    118c:	01bfc260 	0x1bfc260
    1190:	75631661 	jalx	58c5984 <AP_BANK_SPACE+0x5885984>
    1194:	736d5f72 	0x736d5f72
    1198:	8f010067 	lw	at,103(t8)
    119c:	00000afe 	0xafe
    11a0:	18109102 	0x18109102
    11a4:	00000020 	add	zero,zero,zero
    11a8:	09dc9101 	j	7724404 <AP_BANK_SPACE+0x76e4404>
    11ac:	91020000 	lbu	v0,0(t0)
    11b0:	09170000 	j	45c0000 <AP_BANK_SPACE+0x4580000>
    11b4:	01000012 	0x1000012
    11b8:	6e656d66 	0x6e656d66
    11bc:	656e6967 	0x656e6967
    11c0:	6e6f635f 	0x6e6f635f
    11c4:	6c6f7274 	0x6c6f7274
    11c8:	6f6c625f 	0x6f6c625f
    11cc:	01006b63 	0x1006b63
    11d0:	09dc01bf 	j	77006fc <AP_BANK_SPACE+0x76c06fc>
    11d4:	60fd0000 	0x60fd0000
    11d8:	614cbfc2 	0x614cbfc2
    11dc:	6101bfc2 	0x6101bfc2
    11e0:	73657219 	udi9	k1,a1,t6,0x8
    11e4:	00746c75 	0x746c75
    11e8:	09dcc001 	j	7730004 <AP_BANK_SPACE+0x76f0004>
    11ec:	91020000 	lbu	v0,0(t0)
    11f0:	6d661900 	0x6d661900
    11f4:	69676e65 	0x69676e65
    11f8:	6d5f656e 	0x6d5f656e
    11fc:	01006773 	tltu	t0,zero,0x19d
    1200:	000ae8c1 	0xae8c1
    1204:	08910200 	j	2440800 <AP_BANK_SPACE+0x2400800>
    1208:	5f671a00 	0x5f671a00
    120c:	73696874 	0x73696874
    1210:	7070615f 	udi15	v1,s0,t4,0x5
    1214:	6d69745f 	0x6d69745f
    1218:	745f7265 	jalx	17dc994 <AP_BANK_SPACE+0x179c994>
    121c:	06006761 	bltz	s0,1afa4 <SRAM_OS_HEAP_ADDR+0x324>
    1220:	00013285 	0x13285
    1224:	1b010100 	0x1b010100
    1228:	70615f67 	0x70615f67
    122c:	6e695f70 	0x6e695f70
    1230:	735f6f66 	0x735f6f66
    1234:	65746174 	0x65746174
    1238:	6c6c615f 	0x6c6c615f
    123c:	018e0700 	0x18e0700
    1240:	00000db3 	tltu	zero,zero,0x36
    1244:	671b0101 	0x671b0101
    1248:	7070615f 	udi15	v1,s0,t4,0x5
    124c:	73616c5f 	udi15	k1,at,t5,0x11
    1250:	74735f74 	jalx	1cd7dd0 <AP_BANK_SPACE+0x1c97dd0>
    1254:	00657461 	0x657461
    1258:	be019407 	cache	0x1,-27641(s0)
    125c:	01000010 	0x1000010
    1260:	5f671b01 	0x5f671b01
    1264:	5f707061 	0x5f707061
    1268:	6f666e69 	0x6f666e69
    126c:	6174735f 	0x6174735f
    1270:	07006574 	bltz	t8,1a844 <SRAM_OS_DATA_ADDR+0x444>
    1274:	1036019a 	beq	at,s6,18e0 <SRAM_BTCALL_CALLRING_BUF_SIZE+0x8e0>
    1278:	01010000 	0x1010000
    127c:	6d5f671a 	0x6d5f671a
    1280:	6c75646f 	0x6c75646f
    1284:	74735f65 	jalx	1cd7d94 <AP_BANK_SPACE+0x1c97d94>
    1288:	73757461 	0x73757461
    128c:	63170900 	0x63170900
    1290:	01000002 	0x1000002
    1294:	15d00001 	bne	t6,s0,129c <SRAM_BTCALL_CALLRING_BUF_SIZE+0x29c>
    1298:	00020000 	sll	zero,v0,0x0
    129c:	00000182 	srl	zero,zero,0x6
    12a0:	01680104 	0x1680104
    12a4:	63200000 	0x63200000
    12a8:	6154bfc2 	0x6154bfc2
    12ac:	4e47bfc2 	c3	0x47bfc2
    12b0:	20432055 	addi	v1,v0,8277
    12b4:	2e342e33 	sltiu	s4,s1,11827
    12b8:	696d2034 	0x696d2034
    12bc:	64737370 	0x64737370
    12c0:	2e362d65 	sltiu	s6,s1,11621
    12c4:	302e3630 	andi	t6,at,0x3630
    12c8:	30322d31 	andi	s2,at,0x2d31
    12cc:	34303730 	ori	s0,at,0x3730
    12d0:	01003032 	tlt	t0,zero,0xc0
    12d4:	6e656d66 	0x6e656d66
    12d8:	656e6967 	0x656e6967
    12dc:	73656d5f 	udi15	k1,a1,t5,0x15
    12e0:	65676173 	0x65676173
    12e4:	7465735f 	jalx	195cd7c <AP_BANK_SPACE+0x191cd7c>
    12e8:	6165645f 	0x6165645f
    12ec:	63725f6c 	0x63725f6c
    12f0:	2e65646f 	sltiu	a1,s3,25711
    12f4:	632f0063 	0x632f0063
    12f8:	72646779 	0x72646779
    12fc:	2f657669 	sltiu	a1,k1,30313
    1300:	6f532f66 	0x6f532f66
    1304:	735f7466 	0x735f7466
    1308:	412f6b64 	0x412f6b64
    130c:	38325354 	xori	s2,at,0x5354
    1310:	535f3532 	beql	k0,ra,e7dc <SRAM_ASRC_BUF_0_ADDR+0x7dc>
    1314:	565f4b44 	bnel	s2,ra,14028 <SRAM_BT_EXT3_BANK_ADDR+0x728>
    1318:	2f322e34 	sltiu	s2,t9,11828
    131c:	65736163 	0x65736163
    1320:	2f70612f 	sltiu	s0,k1,24879
    1324:	655f6d66 	0x655f6d66
    1328:	6e69676e 	0x6e69676e
    132c:	75020065 	jalx	4080194 <AP_BANK_SPACE+0x4040194>
    1330:	6769736e 	0x6769736e
    1334:	2064656e 	addi	a0,v1,25966
    1338:	72616863 	0x72616863
    133c:	03080100 	0x3080100
    1340:	38544e49 	xori	s4,v0,0x4e49
    1344:	0f090055 	jal	c240154 <AP_BANK_SPACE+0xc200154>
    1348:	00000098 	0x98
    134c:	67697302 	0x67697302
    1350:	2064656e 	addi	a0,v1,25966
    1354:	72616863 	0x72616863
    1358:	02060100 	0x2060100
    135c:	726f6873 	0x726f6873
    1360:	6e752074 	0x6e752074
    1364:	6e676973 	0x6e676973
    1368:	69206465 	0x69206465
    136c:	0200746e 	0x200746e
    1370:	68730207 	0x68730207
    1374:	2074726f 	addi	s4,v1,29295
    1378:	00746e69 	0x746e69
    137c:	2a040502 	slti	a0,s0,1282
    1380:	04000000 	bltz	zero,1384 <SRAM_BTCALL_CALLRING_BUF_SIZE+0x384>
    1384:	6f6c0207 	0x6f6c0207
    1388:	6920676e 	0x6920676e
    138c:	0400746e 	bltz	zero,1e548 <SRAM_BT_HCI_BUF_ADDR+0xc48>
    1390:	6c660205 	0x6c660205
    1394:	0074616f 	0x74616f
    1398:	64020404 	0x64020404
    139c:	6c62756f 	0x6c62756f
    13a0:	04080065 	tgei	zero,101
    13a4:	6e6f6c02 	0x6e6f6c02
    13a8:	6f6c2067 	0x6f6c2067
    13ac:	7520676e 	jalx	4819db8 <AP_BANK_SPACE+0x47d9db8>
    13b0:	6769736e 	0x6769736e
    13b4:	2064656e 	addi	a0,v1,25966
    13b8:	00746e69 	0x746e69
    13bc:	6c020708 	0x6c020708
    13c0:	20676e6f 	addi	a3,v1,28271
    13c4:	676e6f6c 	0x676e6f6c
    13c8:	746e6920 	jalx	1b9a480 <AP_BANK_SPACE+0x1b5a480>
    13cc:	02050800 	0x2050800
    13d0:	69736e75 	0x69736e75
    13d4:	64656e67 	0x64656e67
    13d8:	746e6920 	jalx	1b9a480 <AP_BANK_SPACE+0x1b5a480>
    13dc:	03070400 	0x3070400
    13e0:	746e6975 	jalx	1b9a5d4 <AP_BANK_SPACE+0x1b5a5d4>
    13e4:	15050038 	bne	t0,a1,14c8 <SRAM_BTCALL_CALLRING_BUF_SIZE+0x4c8>
    13e8:	00000098 	0x98
    13ec:	6e697503 	0x6e697503
    13f0:	00323374 	teq	at,s2,0xcd
    13f4:	01392505 	0x1392505
    13f8:	69020000 	0x69020000
    13fc:	0400746e 	bltz	zero,1e5b8 <SRAM_BT_HCI_BUF_ADDR+0xcb8>
    1400:	68630205 	0x68630205
    1404:	01007261 	0x1007261
    1408:	49550306 	0x49550306
    140c:	3631544e 	ori	s1,s1,0x544e
    1410:	c5680500 	lwc1	$f8,1280(t3)
    1414:	03000000 	0x3000000
    1418:	544e4955 	bnel	v0,t6,13970 <SRAM_BT_EXT3_BANK_ADDR+0x70>
    141c:	05003233 	bltz	t0,dcec <SROM_SPINOR1_ADDR+0xec>
    1420:	00013970 	tge	zero,at,0xe5
    1424:	002a0400 	0x2a0400
    1428:	07040000 	0x7040000
    142c:	a8060405 	swl	a2,1029(zero)
    1430:	98000001 	lwr	zero,1(zero)
    1434:	07000000 	bltz	t8,1438 <SRAM_BTCALL_CALLRING_BUF_SIZE+0x438>
    1438:	0000018f 	0x18f
    143c:	25080001 	addiu	t0,t0,1
    1440:	0c000002 	jal	8 <DRV_GROUP_KEY>
    1444:	6f09e306 	0x6f09e306
    1448:	76655f73 	jalx	9957dcc <AP_BANK_SPACE+0x9917dcc>
    144c:	5f746e65 	0x5f746e65
    1450:	65707974 	0x65707974
    1454:	98db0600 	lwr	k1,1536(a2)
    1458:	02000000 	0x2000000
    145c:	6f090023 	0x6f090023
    1460:	76655f73 	jalx	9957dcc <AP_BANK_SPACE+0x9917dcc>
    1464:	5f746e65 	0x5f746e65
    1468:	00707267 	0x707267
    146c:	0098dc06 	0x98dc06
    1470:	23020000 	addi	v0,t8,0
    1474:	736f0901 	0x736f0901
    1478:	6576655f 	0x6576655f
    147c:	635f746e 	0x635f746e
    1480:	0600746e 	bltz	s0,1e63c <SRAM_BT_HCI_BUF_ADDR+0xd3c>
    1484:	0000c5dd 	0xc5dd
    1488:	02230200 	0x2230200
    148c:	5f736f09 	0x5f736f09
    1490:	6e657665 	0x6e657665
    1494:	74705f74 	jalx	1c17dd0 <AP_BANK_SPACE+0x1bd7dd0>
    1498:	de060072 	ldc3	$6,114(s0)
    149c:	00000196 	0x196
    14a0:	09042302 	j	4108c08 <AP_BANK_SPACE+0x40c8c08>
    14a4:	655f736f 	0x655f736f
    14a8:	746e6576 	jalx	1b995d8 <AP_BANK_SPACE+0x1b595d8>
    14ac:	6c62745f 	0x6c62745f
    14b0:	98df0600 	lwr	ra,1536(a2)
    14b4:	02000001 	movf	zero,s0,$fcc0
    14b8:	03000823 	subu	at,t8,zero
    14bc:	655f736f 	0x655f736f
    14c0:	746e6576 	jalx	1b995d8 <AP_BANK_SPACE+0x1b595d8>
    14c4:	0600745f 	bltz	s0,1e644 <SRAM_BT_HCI_BUF_ADDR+0xd44>
    14c8:	0001a8e3 	0x1a8e3
    14cc:	25040a00 	addiu	a0,t0,2560
    14d0:	06000002 	bltz	s0,14dc <SRAM_BTCALL_CALLRING_BUF_SIZE+0x4dc>
    14d4:	0000024d 	break	0x0,0x9
    14d8:	00000149 	0x149
    14dc:	00018f07 	0x18f07
    14e0:	06000300 	bltz	s0,20e4 <SRAM_AP_BACK_AL_RCODE_2_SIZE+0xe4>
    14e4:	0000025d 	0x25d
    14e8:	00000149 	0x149
    14ec:	00018f07 	0x18f07
    14f0:	0b000200 	j	c000800 <AP_BANK_SPACE+0xbfc0800>
    14f4:	0000029c 	0x29c
    14f8:	0c170b01 	jal	5c2c04 <AP_BANK_SPACE+0x582c04>
    14fc:	646e6142 	0x646e6142
    1500:	6968435f 	0x6968435f
    1504:	555f616e 	bnel	t2,ra,19ac0 <SRAM_AP_FRONT_DATA_ADDR+0x140>
    1508:	0c000053 	jal	14c <SRAM_BTMANAGER_DATA_SIZE+0xc>
    150c:	646e6142 	0x646e6142
    1510:	70614a5f 	udi15	v1,at,t1,0x9
    1514:	01006e61 	0x1006e61
    1518:	6e61420c 	0x6e61420c
    151c:	75455f64 	jalx	5157d90 <AP_BANK_SPACE+0x5117d90>
    1520:	65706f72 	0x65706f72
    1524:	420c0200 	c0	0xc0200
    1528:	5f646e61 	0x5f646e61
    152c:	0058414d 	break	0x58,0x105
    1530:	72030003 	0x72030003
    1534:	6f696461 	0x6f696461
    1538:	6e61625f 	0x6e61625f
    153c:	00655f64 	0x655f64
    1540:	025d1c0b 	0x25d1c0b
    1544:	ee0b0000 	swc3	$11,0(s0)
    1548:	01000002 	0x1000002
    154c:	530c1107 	beql	t8,t4,596c <SRAM_AP_BANK_BACK_AL_1_SIZE+0x196c>
    1550:	55544154 	bnel	t2,s4,11aa4 <SRAM_BT_BACK_RCODE_ADDR+0xaa4>
    1554:	4c505f53 	0x4c505f53
    1558:	00005941 	0x5941
    155c:	4154530c 	0x4154530c
    1560:	5f535554 	0x5f535554
    1564:	53554150 	beql	k0,s5,11aa8 <SRAM_BT_BACK_RCODE_ADDR+0xaa8>
    1568:	0c010045 	jal	40114 <AP_BANK_SPACE+0x114>
    156c:	54415453 	bnel	v0,at,166bc <SRAM_BT_UART_BUF_ADDR+0x2bc>
    1570:	465f5355 	c1	0x5f5355
    1574:	474e454d 	c1	0x14e454d
    1578:	5f454e49 	0x5f454e49
    157c:	4f525245 	c3	0x1525245
    1580:	00020052 	0x20052
    1584:	5f4d4603 	0x5f4d4603
    1588:	79616c50 	0x79616c50
    158c:	74617473 	jalx	185d1cc <AP_BANK_SPACE+0x181d1cc>
    1590:	655f7375 	0x655f7375
    1594:	b0150700 	0xb0150700
    1598:	0b000002 	j	c000008 <AP_BANK_SPACE+0xbfc0008>
    159c:	00000320 	0x320
    15a0:	0c170701 	jal	5c1c04 <AP_BANK_SPACE+0x581c04>
    15a4:	4d5f4d46 	0x4d5f4d46
    15a8:	004f4e4f 	0x4f4e4f
    15ac:	54530c00 	bnel	v0,s3,45b0 <SRAM_AP_BANK_BACK_AL_1_SIZE+0x5b0>
    15b0:	00455245 	0x455245
    15b4:	46030001 	sub.s	$f0,$f0,$f3
    15b8:	75415f4d 	jalx	5057d34 <AP_BANK_SPACE+0x5017d34>
    15bc:	5f6f6964 	0x5f6f6964
    15c0:	1a070065 	0x1a070065
    15c4:	00000305 	0x305
    15c8:	0003a40b 	0x3a40b
    15cc:	1d070100 	0x1d070100
    15d0:	5241480c 	beql	s2,at,13604 <SRAM_BT_BACK_RCODE_ADDR+0x2604>
    15d4:	45455344 	0x45455344
    15d8:	4f4e5f4b 	c3	0x14e5f4b
    15dc:	54535f54 	bnel	v0,s3,19330 <SRAM_CARD_UD_CACHE_ADDR+0x630>
    15e0:	00545241 	0x545241
    15e4:	41480c00 	0x41480c00
    15e8:	45534452 	0x45534452
    15ec:	445f4b45 	0x445f4b45
    15f0:	474e494f 	c1	0x14e494f
    15f4:	480c0100 	0x480c0100
    15f8:	53445241 	beql	k0,a0,15f00 <SRAM_BT_EXT5_BANK_ADDR+0x1900>
    15fc:	5f4b4545 	0x5f4b4545
    1600:	504d4f43 	beql	v0,t5,15310 <SRAM_BT_EXT5_BANK_ADDR+0xd10>
    1604:	4554454c 	0x4554454c
    1608:	480c0200 	0x480c0200
    160c:	53445241 	beql	k0,a0,15f14 <SRAM_BT_EXT5_BANK_ADDR+0x1914>
    1610:	5f4b4545 	0x5f4b4545
    1614:	504d4f43 	beql	v0,t5,15324 <SRAM_BT_EXT5_BANK_ADDR+0xd24>
    1618:	4554454c 	0x4554454c
    161c:	544f4e5f 	bnel	v0,t7,14f9c <SRAM_BT_EXT5_BANK_ADDR+0x99c>
    1620:	4c41565f 	0x4c41565f
    1624:	03004449 	0x3004449
    1628:	5241480c 	beql	s2,at,1365c <SRAM_BT_BACK_RCODE_ADDR+0x265c>
    162c:	45455344 	0x45455344
    1630:	41465f4b 	0x41465f4b
    1634:	0045534c 	syscall	0x1154d
    1638:	68030004 	0x68030004
    163c:	73647261 	0x73647261
    1640:	5f6b6565 	0x5f6b6565
    1644:	74617473 	jalx	185d1cc <AP_BANK_SPACE+0x181d1cc>
    1648:	655f7375 	0x655f7375
    164c:	32230700 	andi	v1,s1,0x700
    1650:	08000003 	j	c <DRV_GROUP_BT>
    1654:	00000450 	0x450
    1658:	092c070c 	j	4b01c30 <AP_BANK_SPACE+0x4ac1c30>
    165c:	435f4d46 	c0	0x15f4d46
    1660:	65727275 	0x65727275
    1664:	7246746e 	0x7246746e
    1668:	07007165 	bltz	t8,1dc00 <SRAM_BT_HCI_BUF_ADDR+0x300>
    166c:	00018126 	0x18126
    1670:	00230200 	0x230200
    1674:	5f4d4609 	0x5f4d4609
    1678:	6e676953 	0x6e676953
    167c:	74536c61 	jalx	14db184 <AP_BANK_SPACE+0x149b184>
    1680:	27070067 	addiu	a3,t8,103
    1684:	00000173 	tltu	zero,zero,0x5
    1688:	09042302 	j	4108c08 <AP_BANK_SPACE+0x40c8c08>
    168c:	535f4d46 	beql	k0,ra,14ba8 <SRAM_BT_EXT5_BANK_ADDR+0x5a8>
    1690:	65726574 	0x65726574
    1694:	74535f6f 	jalx	14d7dbc <AP_BANK_SPACE+0x1497dbc>
    1698:	73757461 	0x73757461
    169c:	20280700 	addi	t0,at,1792
    16a0:	02000003 	0x2000003
    16a4:	46090623 	c1	0x90623
    16a8:	75435f4d 	jalx	50d7d34 <AP_BANK_SPACE+0x5097d34>
    16ac:	6e614272 	0x6e614272
    16b0:	29070064 	slti	a3,t0,100
    16b4:	0000029c 	0x29c
    16b8:	09072302 	j	41c8c08 <AP_BANK_SPACE+0x4188c08>
    16bc:	565f4d46 	bnel	s2,ra,14bd8 <SRAM_BT_EXT5_BANK_ADDR+0x5d8>
    16c0:	74536c6f 	jalx	14db1bc <AP_BANK_SPACE+0x149b1bc>
    16c4:	73757461 	0x73757461
    16c8:	ee2a0700 	swc3	$10,1792(s1)
    16cc:	02000002 	0x2000002
    16d0:	53090823 	beql	t8,t1,3760 <SRAM_BT_HEAD_SIZE+0x360>
    16d4:	665f4354 	0x665f4354
    16d8:	0067616c 	0x67616c
    16dc:	03a42b07 	0x3a42b07
    16e0:	23020000 	addi	v0,t8,0
    16e4:	45030009 	bc1tl	170c <SRAM_BTCALL_CALLRING_BUF_SIZE+0x70c>
    16e8:	6e69676e 	0x6e69676e
    16ec:	74535f65 	jalx	14d7d94 <AP_BANK_SPACE+0x1497d94>
    16f0:	73757461 	0x73757461
    16f4:	0700745f 	bltz	t8,1e874 <SRAM_BT_HCI_BUF_ADDR+0xf74>
    16f8:	0003bd2c 	0x3bd2c
    16fc:	048d0800 	0x48d0800
    1700:	07080000 	tgei	t8,0
    1704:	72660946 	0x72660946
    1708:	07007165 	bltz	t8,1dca0 <SRAM_BT_HCI_BUF_ADDR+0x3a0>
    170c:	00015644 	0x15644
    1710:	00230200 	0x230200
    1714:	72696409 	0x72696409
    1718:	49450700 	0x49450700
    171c:	02000001 	movf	zero,s0,$fcc0
    1720:	03000423 	0x3000423
    1724:	6b656573 	0x6b656573
    1728:	7261705f 	udi15	s3,at,t6,0x1
    172c:	745f6d61 	jalx	17db584 <AP_BANK_SPACE+0x179b584>
    1730:	67460700 	0x67460700
    1734:	0b000004 	j	c000010 <AP_BANK_SPACE+0xbfc0010>
    1738:	00000c03 	sra	at,zero,0x10
    173c:	0ce30302 	jal	38c0c08 <AP_BANK_SPACE+0x3880c08>
    1740:	55534552 	bnel	t2,s3,12c8c <SRAM_BT_BACK_RCODE_ADDR+0x1c8c>
    1744:	4e5f544c 	c3	0x5f544c
    1748:	004c4c55 	0x4c4c55
    174c:	45520c00 	0x45520c00
    1750:	544c5553 	bnel	v0,t4,16ca0 <SRAM_BTCALL_ASQT_BUF_ADDR+0xa0>
    1754:	4e47495f 	c3	0x47495f
    1758:	0045524f 	0x45524f
    175c:	45520c01 	0x45520c01
    1760:	544c5553 	bnel	v0,t4,16cb0 <SRAM_BTCALL_ASQT_BUF_ADDR+0xb0>
    1764:	4e4f4e5f 	c3	0x4f4e5f
    1768:	56455f45 	bnel	s2,a1,19480 <SRAM_CARD_UD_CACHE_ADDR+0x780>
    176c:	00544e45 	0x544e45
    1770:	45520c02 	0x45520c02
    1774:	544c5553 	bnel	v0,t4,16cc4 <SRAM_BTCALL_ASQT_BUF_ADDR+0xc4>
    1778:	5043525f 	beql	v0,v1,160f8 <SRAM_BT_EXT5_BANK_ADDR+0x1af8>
    177c:	5f434c5f 	0x5f434c5f
    1780:	54494157 	bnel	v0,t1,11ce0 <SRAM_BT_BACK_RCODE_ADDR+0xce0>
    1784:	520c0300 	beql	s0,t4,2388 <SRAM_AP_BACK_AL_RCODE_2_SIZE+0x388>
    1788:	4c555345 	0x4c555345
    178c:	4f435f54 	c3	0x1435f54
    1790:	4e4f4d4d 	c3	0x4f4d4d
    1794:	5345525f 	beql	k0,a1,16114 <SRAM_BT_EXT5_BANK_ADDR+0x1b14>
    1798:	45565245 	0x45565245
    179c:	520c2000 	beql	s0,t4,97a0 <SRAM_BANK_B_ADDR+0x3a0>
    17a0:	4c555345 	0x4c555345
    17a4:	52455f54 	beql	s2,a1,194f8 <SRAM_CARD_UD_CACHE_ADDR+0x7f8>
    17a8:	00524f52 	0x524f52
    17ac:	520c0180 	beql	s0,t4,1db0 <SROM_FS_SIZE+0x1b0>
    17b0:	4c555345 	0x4c555345
    17b4:	41425f54 	0x41425f54
    17b8:	535f4b43 	beql	k0,ra,144c8 <SRAM_IRQ_PRINT_BUFFER_ADDR+0x3f8>
    17bc:	454e4543 	0x454e4543
    17c0:	5349445f 	beql	k0,t1,12940 <SRAM_BT_BACK_RCODE_ADDR+0x1940>
    17c4:	43544150 	c0	0x1544150
    17c8:	01810048 	0x1810048
    17cc:	5345520c 	beql	k0,a1,16000 <SRAM_BT_EXT5_BANK_ADDR+0x1a00>
    17d0:	5f544c55 	0x5f544c55
    17d4:	4e454353 	c3	0x454353
    17d8:	58455f45 	0x58455f45
    17dc:	82005449 	lb	zero,21577(s0)
    17e0:	45520c01 	0x45520c01
    17e4:	544c5553 	bnel	v0,t4,16d34 <SRAM_BTCALL_ASQT_BUF_ADDR+0x134>
    17e8:	59454b5f 	0x59454b5f
    17ec:	4556455f 	0x4556455f
    17f0:	525f544e 	beql	s2,ra,1692c <SRAM_BT_UART_BUF_ADDR+0x52c>
    17f4:	41454445 	0x41454445
    17f8:	59425f4c 	0x59425f4c
    17fc:	4d4f435f 	0x4d4f435f
    1800:	004e4f4d 	break	0x4e,0x13d
    1804:	520c0183 	beql	s0,t4,1e14 <SRAM_OS_TASK_STACK_SIZE+0x14>
    1808:	4c555345 	0x4c555345
    180c:	59535f54 	0x59535f54
    1810:	534d5f53 	beql	k0,t5,19560 <SRAM_CARD_DATA_ADDR+0x60>
    1814:	45525f47 	0x45525f47
    1818:	4c414544 	0x4c414544
    181c:	5f59425f 	0x5f59425f
    1820:	4d4d4f43 	0x4d4d4f43
    1824:	84004e4f 	lh	zero,20047(zero)
    1828:	45520c01 	0x45520c01
    182c:	544c5553 	bnel	v0,t4,16d7c <SRAM_BTCALL_ASQT_BUF_ADDR+0x17c>
    1830:	524f465f 	beql	s2,t7,131b0 <SRAM_BT_BACK_RCODE_ADDR+0x21b0>
    1834:	545f4543 	bnel	v0,ra,12d44 <SRAM_BT_BACK_RCODE_ADDR+0x1d44>
    1838:	535f5354 	beql	k0,ra,1658c <SRAM_BT_UART_BUF_ADDR+0x18c>
    183c:	00504f54 	0x504f54
    1840:	520c0185 	beql	s0,t4,1e58 <SRAM_OS_TASK_STACK_SIZE+0x58>
    1844:	4c555345 	0x4c555345
    1848:	4e455f54 	c3	0x455f54
    184c:	5f524554 	0x5f524554
    1850:	5f41544f 	0x5f41544f
    1854:	52475055 	beql	s2,a3,159ac <SRAM_BT_EXT5_BANK_ADDR+0x13ac>
    1858:	00454441 	0x454441
    185c:	520c01a1 	beql	s0,t4,1ee4 <SRAM_OS_TASK_STACK_SIZE+0xe4>
    1860:	4c555345 	0x4c555345
    1864:	45545f54 	0x45545f54
    1868:	50415453 	beql	v0,at,169b8 <SRAM_BT_UART_BUF_ADDR+0x5b8>
    186c:	4955515f 	0x4955515f
    1870:	01ff0054 	0x1ff0054
    1874:	5345520c 	beql	k0,a1,160a8 <SRAM_BT_EXT5_BANK_ADDR+0x1aa8>
    1878:	5f544c55 	0x5f544c55
    187c:	5f505041 	0x5f505041
    1880:	54495551 	bnel	v0,t1,16dc8 <SRAM_BTCALL_ASQT_BUF_ADDR+0x1c8>
    1884:	0c028000 	jal	a0000 <AP_BANK_SPACE+0x60000>
    1888:	55534552 	bnel	t2,s3,12dd4 <SRAM_BT_BACK_RCODE_ADDR+0x1dd4>
    188c:	4d5f544c 	0x4d5f544c
    1890:	43495355 	c0	0x1495355
    1894:	414c505f 	0x414c505f
    1898:	02810059 	0x2810059
    189c:	5345520c 	beql	k0,a1,160d0 <SRAM_BT_EXT5_BANK_ADDR+0x1ad0>
    18a0:	5f544c55 	0x5f544c55
    18a4:	4953554d 	0x4953554d
    18a8:	50435f43 	beql	v0,v1,195b8 <SRAM_AP_BACK_DATA_ADDR+0x38>
    18ac:	0059414c 	syscall	0x16505
    18b0:	520c0282 	beql	s0,t4,22bc <SRAM_AP_BACK_AL_RCODE_2_SIZE+0x2bc>
    18b4:	4c555345 	0x4c555345
    18b8:	554d5f54 	bnel	t2,t5,1960c <SRAM_AP_BACK_DATA_ADDR+0x8c>
    18bc:	5f434953 	0x5f434953
    18c0:	414c5055 	0x414c5055
    18c4:	02830059 	0x2830059
    18c8:	5345520c 	beql	k0,a1,160fc <SRAM_BT_EXT5_BANK_ADDR+0x1afc>
    18cc:	5f544c55 	0x5f544c55
    18d0:	45544e45 	0x45544e45
    18d4:	494c5f52 	0x494c5f52
    18d8:	4e49454e 	c3	0x49454e
    18dc:	0c028400 	jal	a1000 <AP_BANK_SPACE+0x61000>
    18e0:	55534552 	bnel	t2,s3,12e2c <SRAM_BT_BACK_RCODE_ADDR+0x1e2c>
    18e4:	525f544c 	beql	s2,ra,16a18 <SRAM_BT_UART_BUF_ADDR+0x618>
    18e8:	4f494441 	c3	0x1494441
    18ec:	0c028500 	jal	a1400 <AP_BANK_SPACE+0x61400>
    18f0:	55534552 	bnel	t2,s3,12e3c <SRAM_BT_BACK_RCODE_ADDR+0x1e3c>
    18f4:	425f544c 	c0	0x5f544c
    18f8:	5445554c 	bnel	v0,a1,16e2c <SRAM_BTCALL_ASQT_BUF_ADDR+0x22c>
    18fc:	48544545 	0x48544545
    1900:	554f535f 	bnel	t2,t7,16680 <SRAM_BT_UART_BUF_ADDR+0x280>
    1904:	8600444e 	lh	zero,17486(s0)
    1908:	45520c02 	0x45520c02
    190c:	544c5553 	bnel	v0,t4,16e5c <SRAM_BTCALL_ASQT_BUF_ADDR+0x25c>
    1910:	554c425f 	bnel	t2,t4,12290 <SRAM_BT_BACK_RCODE_ADDR+0x1290>
    1914:	45455445 	0x45455445
    1918:	435f4854 	c0	0x15f4854
    191c:	004c4c41 	0x4c4c41
    1920:	520c0287 	beql	s0,t4,2340 <SRAM_AP_BACK_AL_RCODE_2_SIZE+0x340>
    1924:	4c555345 	0x4c555345
    1928:	4c425f54 	0x4c425f54
    192c:	45544555 	0x45544555
    1930:	5f485445 	0x5f485445
    1934:	4c4c4143 	0x4c4c4143
    1938:	4341425f 	c0	0x141425f
    193c:	4f52474b 	c3	0x152474b
    1940:	00444e55 	0x444e55
    1944:	520c0288 	beql	s0,t4,2368 <SRAM_AP_BACK_AL_RCODE_2_SIZE+0x368>
    1948:	4c555345 	0x4c555345
    194c:	53555f54 	beql	k0,s5,196a0 <SRAM_AP_BACK_DATA_ADDR+0x120>
    1950:	4f535f42 	c3	0x1535f42
    1954:	00444e55 	0x444e55
    1958:	520c0289 	beql	s0,t4,2380 <SRAM_AP_BACK_AL_RCODE_2_SIZE+0x380>
    195c:	4c555345 	0x4c555345
    1960:	4f505f54 	c3	0x1505f54
    1964:	5f524557 	0x5f524557
    1968:	0046464f 	0x46464f
    196c:	520c028a 	beql	s0,t4,2398 <SRAM_AP_BACK_AL_RCODE_2_SIZE+0x398>
    1970:	4c555345 	0x4c555345
    1974:	4f4c5f54 	c3	0x14c5f54
    1978:	4f505f57 	c3	0x1505f57
    197c:	00524557 	0x524557
    1980:	520c028b 	beql	s0,t4,23b0 <SRAM_AP_BACK_AL_RCODE_2_SIZE+0x3b0>
    1984:	4c555345 	0x4c555345
    1988:	53555f54 	beql	k0,s5,196dc <SRAM_AP_BACK_DATA_ADDR+0x15c>
    198c:	52545f42 	beql	s2,s4,19698 <SRAM_AP_BACK_DATA_ADDR+0x118>
    1990:	00534e41 	0x534e41
    1994:	520c028c 	beql	s0,t4,23c8 <SRAM_AP_BACK_AL_RCODE_2_SIZE+0x3c8>
    1998:	4c555345 	0x4c555345
    199c:	45525f54 	0x45525f54
    19a0:	44524f43 	0x44524f43
    19a4:	4c50435f 	0x4c50435f
    19a8:	8d005941 	lw	zero,22849(t0)
    19ac:	45520c02 	0x45520c02
    19b0:	544c5553 	bnel	v0,t4,16f00 <SRAM_BTCALL_ASQT_BUF_ADDR+0x300>
    19b4:	4345525f 	c0	0x145525f
    19b8:	5f44524f 	0x5f44524f
    19bc:	414c5055 	0x414c5055
    19c0:	028e0059 	0x28e0059
    19c4:	5345520c 	beql	k0,a1,161f8 <SRAM_BT_EXT5_BANK_ADDR+0x1bf8>
    19c8:	5f544c55 	0x5f544c55
    19cc:	4f434552 	c3	0x1434552
    19d0:	4c5f4452 	0x4c5f4452
    19d4:	49454e49 	0x49454e49
    19d8:	4f545f4e 	c3	0x1545f4e
    19dc:	028f0043 	0x28f0043
    19e0:	5345520c 	beql	k0,a1,16214 <SRAM_BT_EXT5_BANK_ADDR+0x1c14>
    19e4:	5f544c55 	0x5f544c55
    19e8:	4f434552 	c3	0x1434552
    19ec:	465f4452 	c1	0x5f4452
    19f0:	4f545f4d 	c3	0x1545f4d
    19f4:	02900043 	0x2900043
    19f8:	5345520c 	beql	k0,a1,1622c <SRAM_BT_EXT5_BANK_ADDR+0x1c2c>
    19fc:	5f544c55 	0x5f544c55
    1a00:	4f434552 	c3	0x1434552
    1a04:	4d5f4452 	0x4d5f4452
    1a08:	545f4349 	bnel	v0,ra,12730 <SRAM_BT_BACK_RCODE_ADDR+0x1730>
    1a0c:	9100434f 	lbu	zero,17231(t0)
    1a10:	45520c02 	0x45520c02
    1a14:	544c5553 	bnel	v0,t4,16f64 <SRAM_BTCALL_ASQT_BUF_ADDR+0x364>
    1a18:	4345525f 	c0	0x145525f
    1a1c:	5f44524f 	0x5f44524f
    1a20:	454e494c 	0x454e494c
    1a24:	545f4e49 	bnel	v0,ra,1534c <SRAM_BT_EXT5_BANK_ADDR+0xd4c>
    1a28:	9200554f 	lbu	zero,21839(s0)
    1a2c:	45520c02 	0x45520c02
    1a30:	544c5553 	bnel	v0,t4,16f80 <SRAM_BTCALL_ASQT_BUF_ADDR+0x380>
    1a34:	4345525f 	c0	0x145525f
    1a38:	5f44524f 	0x5f44524f
    1a3c:	545f4d46 	bnel	v0,ra,14f58 <SRAM_BT_EXT5_BANK_ADDR+0x958>
    1a40:	9300554f 	lbu	zero,21839(t8)
    1a44:	45520c02 	0x45520c02
    1a48:	544c5553 	bnel	v0,t4,16f98 <SRAM_BTCALL_ASQT_BUF_ADDR+0x398>
    1a4c:	4345525f 	c0	0x145525f
    1a50:	5f44524f 	0x5f44524f
    1a54:	5f43494d 	0x5f43494d
    1a58:	00554f54 	0x554f54
    1a5c:	520c0294 	beql	s0,t4,24b0 <SRAM_AP_BACK_AL_RCODE_2_SIZE+0x4b0>
    1a60:	4c555345 	0x4c555345
    1a64:	414c5f54 	0x414c5f54
    1a68:	4c505453 	0x4c505453
    1a6c:	95005941 	lhu	zero,22849(t0)
    1a70:	45520c02 	0x45520c02
    1a74:	544c5553 	bnel	v0,t4,16fc4 <SRAM_BTCALL_ASQT_BUF_ADDR+0x3c4>
    1a78:	58454e5f 	0x58454e5f
    1a7c:	55465f54 	bnel	t2,a2,197d0 <SRAM_FM_DRV_RDATA_ADDR+0x50>
    1a80:	4954434e 	0x4954434e
    1a84:	96004e4f 	lhu	zero,20047(s0)
    1a88:	45520c02 	0x45520c02
    1a8c:	544c5553 	bnel	v0,t4,16fdc <SRAM_BTCALL_ASQT_BUF_ADDR+0x3dc>
    1a90:	544e455f 	bnel	v0,t6,13010 <SRAM_BT_BACK_RCODE_ADDR+0x2010>
    1a94:	555f5245 	bnel	t2,ra,163ac <SRAM_BT_EXT5_BANK_ADDR+0x1dac>
    1a98:	41524750 	0x41524750
    1a9c:	97004544 	lhu	zero,17732(t8)
    1aa0:	45520c02 	0x45520c02
    1aa4:	544c5553 	bnel	v0,t4,16ff4 <SRAM_BTCALL_ASQT_BUF_ADDR+0x3f4>
    1aa8:	49414d5f 	0x49414d5f
    1aac:	50415f4e 	beql	v0,at,197e8 <SRAM_FM_DRV_RDATA_ADDR+0x68>
    1ab0:	02980050 	0x2980050
    1ab4:	5345520c 	beql	k0,a1,162e8 <SRAM_BT_EXT5_BANK_ADDR+0x1ce8>
    1ab8:	5f544c55 	0x5f544c55
    1abc:	45544e45 	0x45544e45
    1ac0:	4c415f52 	0x4c415f52
    1ac4:	004d5241 	0x4d5241
    1ac8:	520c0299 	beql	s0,t4,2530 <SRAM_AP_BACK_AL_RCODE_2_SIZE+0x530>
    1acc:	4c555345 	0x4c555345
    1ad0:	4c415f54 	0x4c415f54
    1ad4:	5f4d5241 	0x5f4d5241
    1ad8:	4f4f4e53 	c3	0x14f4e53
    1adc:	9a00455a 	lwr	zero,17754(s0)
    1ae0:	45520c02 	0x45520c02
    1ae4:	544c5553 	bnel	v0,t4,17034 <SRAM_BTCALL_ASQT_BUF_ADDR+0x434>
    1ae8:	414c415f 	0x414c415f
    1aec:	435f4d52 	c0	0x15f4d52
    1af0:	45534f4c 	0x45534f4c
    1af4:	0c029b00 	jal	a6c00 <AP_BANK_SPACE+0x66c00>
    1af8:	55534552 	bnel	t2,s3,13044 <SRAM_BT_BACK_RCODE_ADDR+0x2044>
    1afc:	415f544c 	0x415f544c
    1b00:	4d52414c 	0x4d52414c
    1b04:	4e49525f 	c3	0x49525f
    1b08:	4f465f47 	c3	0x1465f47
    1b0c:	5245444c 	beql	s2,a1,12c40 <SRAM_BT_BACK_RCODE_ADDR+0x1c40>
    1b10:	4143535f 	0x4143535f
    1b14:	029c004e 	0x29c004e
    1b18:	5345520c 	beql	k0,a1,1634c <SRAM_BT_EXT5_BANK_ADDR+0x1d4c>
    1b1c:	5f544c55 	0x5f544c55
    1b20:	4f545541 	c3	0x1545541
    1b24:	4145535f 	0x4145535f
    1b28:	00484352 	0x484352
    1b2c:	520c029d 	beql	s0,t4,25a4 <SRAM_AP_BACK_AL_RCODE_2_SIZE+0x5a4>
    1b30:	4c555345 	0x4c555345
    1b34:	414d5f54 	0x414d5f54
    1b38:	4c41554e 	0x4c41554e
    1b3c:	4145535f 	0x4145535f
    1b40:	5f484352 	0x5f484352
    1b44:	9e005055 	0x9e005055
    1b48:	45520c02 	0x45520c02
    1b4c:	544c5553 	bnel	v0,t4,1709c <SRAM_BTCALL_ASQT_BUF_ADDR+0x49c>
    1b50:	4e414d5f 	c3	0x414d5f
    1b54:	5f4c4155 	0x5f4c4155
    1b58:	52414553 	beql	s2,at,130a8 <SRAM_BT_BACK_RCODE_ADDR+0x20a8>
    1b5c:	445f4843 	0x445f4843
    1b60:	004e574f 	0x4e574f
    1b64:	520c029f 	beql	s0,t4,25e4 <SRAM_AP_BACK_AL_RCODE_2_SIZE+0x5e4>
    1b68:	4c555345 	0x4c555345
    1b6c:	54535f54 	bnel	v0,s3,198c0 <SRAM_FM_DRV_RDATA_ADDR+0x140>
    1b70:	535f504f 	beql	k0,ra,15cb0 <SRAM_BT_EXT5_BANK_ADDR+0x16b0>
    1b74:	43524145 	c0	0x1524145
    1b78:	02a00048 	0x2a00048
    1b7c:	5345520c 	beql	k0,a1,163b0 <SRAM_BT_EXT5_BANK_ADDR+0x1db0>
    1b80:	5f544c55 	0x5f544c55
    1b84:	464e4f43 	c1	0x4e4f43
    1b88:	435f4749 	c0	0x15f4749
    1b8c:	47524148 	c1	0x1524148
    1b90:	02a10045 	0x2a10045
    1b94:	5345520c 	beql	k0,a1,163c8 <SRAM_BT_EXT5_BANK_ADDR+0x1dc8>
    1b98:	5f544c55 	0x5f544c55
    1b9c:	464e4f43 	c1	0x4e4f43
    1ba0:	435f4749 	c0	0x15f4749
    1ba4:	47524148 	c1	0x1524148
    1ba8:	55515f45 	bnel	t2,s1,198c0 <SRAM_FM_DRV_RDATA_ADDR+0x140>
    1bac:	a2005449 	sb	zero,21577(s0)
    1bb0:	45520c02 	0x45520c02
    1bb4:	544c5553 	bnel	v0,t4,17104 <SRAM_BTCALL_ASQT_BUF_ADDR+0x504>
    1bb8:	544e455f 	bnel	v0,t6,13138 <SRAM_BT_BACK_RCODE_ADDR+0x2138>
    1bbc:	415f5245 	0x415f5245
    1bc0:	5f545153 	0x5f545153
    1bc4:	545f4648 	bnel	v0,ra,134e8 <SRAM_BT_BACK_RCODE_ADDR+0x24e8>
    1bc8:	00545345 	0x545345
    1bcc:	520c02a3 	beql	s0,t4,265c <SROM_BROM_SIZE+0x5c>
    1bd0:	4c555345 	0x4c555345
    1bd4:	4e455f54 	c3	0x455f54
    1bd8:	5f524554 	0x5f524554
    1bdc:	52455355 	beql	s2,a1,16934 <SRAM_BT_UART_BUF_ADDR+0x534>
    1be0:	02a40031 	tgeu	s5,a0
    1be4:	5345520c 	beql	k0,a1,16418 <SRAM_BT_UART_BUF_ADDR+0x18>
    1be8:	5f544c55 	0x5f544c55
    1bec:	54535953 	bnel	v0,s3,1813c <SRAM_FS_DATA_ADDR+0x13c>
    1bf0:	455f4d45 	0x455f4d45
    1bf4:	5245544e 	beql	s2,a1,16d30 <SRAM_BTCALL_ASQT_BUF_ADDR+0x130>
    1bf8:	0033535f 	0x33535f
    1bfc:	520c02a5 	beql	s0,t4,2694 <SROM_BROM_SIZE+0x94>
    1c00:	4c555345 	0x4c555345
    1c04:	59535f54 	0x59535f54
    1c08:	4d455453 	0x4d455453
    1c0c:	4958455f 	0x4958455f
    1c10:	33535f54 	andi	s3,k0,0x5f54
    1c14:	0c02a600 	jal	a9800 <AP_BANK_SPACE+0x69800>
    1c18:	55534552 	bnel	t2,s3,13164 <SRAM_BT_BACK_RCODE_ADDR+0x2164>
    1c1c:	455f544c 	0x455f544c
    1c20:	5245544e 	beql	s2,a1,16d5c <SRAM_BTCALL_ASQT_BUF_ADDR+0x15c>
    1c24:	5554535f 	bnel	t2,s4,169a4 <SRAM_BT_UART_BUF_ADDR+0x5a4>
    1c28:	45445f42 	0x45445f42
    1c2c:	00475542 	0x475542
    1c30:	520c02a7 	beql	s0,t4,26d0 <SROM_BROM_SIZE+0xd0>
    1c34:	4c555345 	0x4c555345
    1c38:	53455f54 	beql	k0,a1,1998c <SRAM_AP_FRONT_DATA_ADDR+0xc>
    1c3c:	45525f44 	0x45525f44
    1c40:	52415453 	beql	s2,at,16d90 <SRAM_BTCALL_ASQT_BUF_ADDR+0x190>
    1c44:	02a80054 	0x2a80054
    1c48:	5345520c 	beql	k0,a1,1647c <SRAM_BT_UART_BUF_ADDR+0x7c>
    1c4c:	5f544c55 	0x5f544c55
    1c50:	454c4449 	0x454c4449
    1c54:	444f4d5f 	0x444f4d5f
    1c58:	02a90045 	0x2a90045
    1c5c:	5345520c 	beql	k0,a1,16490 <SRAM_BT_UART_BUF_ADDR+0x90>
    1c60:	5f544c55 	0x5f544c55
    1c64:	45544e45 	0x45544e45
    1c68:	544f5f52 	bnel	v0,t7,199b4 <SRAM_AP_FRONT_DATA_ADDR+0x34>
    1c6c:	4f535f41 	c3	0x1535f41
    1c70:	545f474e 	bnel	v0,ra,139ac <SRAM_BT_EXT3_BANK_ADDR+0xac>
    1c74:	00545345 	0x545345
    1c78:	520c02aa 	beql	s0,t4,2724 <SROM_BROM_SIZE+0x124>
    1c7c:	4c555345 	0x4c555345
    1c80:	4c505f54 	0x4c505f54
    1c84:	535f5941 	beql	k0,ra,1818c <SRAM_FS_DATA_ADDR+0x18c>
    1c88:	465f4444 	c1	0x5f4444
    1c8c:	36314449 	ori	s1,s1,0x4449
    1c90:	0c02ab00 	jal	aac00 <AP_BANK_SPACE+0x6ac00>
    1c94:	55534552 	bnel	t2,s3,131e0 <SRAM_BT_BACK_RCODE_ADDR+0x21e0>
    1c98:	505f544c 	beql	v0,ra,16dcc <SRAM_BTCALL_ASQT_BUF_ADDR+0x1cc>
    1c9c:	5f59414c 	0x5f59414c
    1ca0:	5f444453 	0x5f444453
    1ca4:	31444946 	andi	a0,t2,0x4946
    1ca8:	02ac0037 	0x2ac0037
    1cac:	5345520c 	beql	k0,a1,164e0 <SRAM_BT_UART_BUF_ADDR+0xe0>
    1cb0:	5f544c55 	0x5f544c55
    1cb4:	59414c50 	0x59414c50
    1cb8:	4444535f 	0x4444535f
    1cbc:	4449465f 	0x4449465f
    1cc0:	ad003831 	sw	zero,14385(t0)
    1cc4:	45520c02 	0x45520c02
    1cc8:	544c5553 	bnel	v0,t4,17218 <SRAM_BTCALL_ASQT_BUF_ADDR+0x618>
    1ccc:	414c505f 	0x414c505f
    1cd0:	44535f59 	0x44535f59
    1cd4:	49465f44 	0x49465f44
    1cd8:	00393144 	0x393144
    1cdc:	520c02ae 	beql	s0,t4,2798 <SROM_BROM_SIZE+0x198>
    1ce0:	4c555345 	0x4c555345
    1ce4:	4c505f54 	0x4c505f54
    1ce8:	535f5941 	beql	k0,ra,181f0 <SRAM_FS_DATA_ADDR+0x1f0>
    1cec:	465f4444 	c1	0x5f4444
    1cf0:	30324449 	andi	s2,at,0x4449
    1cf4:	0c02af00 	jal	abc00 <AP_BANK_SPACE+0x6bc00>
    1cf8:	55534552 	bnel	t2,s3,13244 <SRAM_BT_BACK_RCODE_ADDR+0x2244>
    1cfc:	505f544c 	beql	v0,ra,16e30 <SRAM_BTCALL_ASQT_BUF_ADDR+0x230>
    1d00:	5f59414c 	0x5f59414c
    1d04:	5f444453 	0x5f444453
    1d08:	32444946 	andi	a0,s2,0x4946
    1d0c:	02b00031 	tgeu	s5,s0
    1d10:	5345520c 	beql	k0,a1,16544 <SRAM_BT_UART_BUF_ADDR+0x144>
    1d14:	5f544c55 	0x5f544c55
    1d18:	59414c50 	0x59414c50
    1d1c:	4444535f 	0x4444535f
    1d20:	4449465f 	0x4449465f
    1d24:	b1003232 	0xb1003232
    1d28:	45520c02 	0x45520c02
    1d2c:	544c5553 	bnel	v0,t4,1727c <SRAM_BTCALL_ASQT_BUF_ADDR+0x67c>
    1d30:	414c505f 	0x414c505f
    1d34:	44535f59 	0x44535f59
    1d38:	49465f44 	0x49465f44
    1d3c:	00333244 	0x333244
    1d40:	520c02b2 	beql	s0,t4,280c <SRAM_BTCALL_ASQT_BUF_SIZE+0xc>
    1d44:	4c555345 	0x4c555345
    1d48:	4c505f54 	0x4c505f54
    1d4c:	535f5941 	beql	k0,ra,18254 <SRAM_FS_DATA_ADDR+0x254>
    1d50:	465f4444 	c1	0x5f4444
    1d54:	34324449 	ori	s2,at,0x4449
    1d58:	0c02b300 	jal	acc00 <AP_BANK_SPACE+0x6cc00>
    1d5c:	55534552 	bnel	t2,s3,132a8 <SRAM_BT_BACK_RCODE_ADDR+0x22a8>
    1d60:	505f544c 	beql	v0,ra,16e94 <SRAM_BTCALL_ASQT_BUF_ADDR+0x294>
    1d64:	5f59414c 	0x5f59414c
    1d68:	5f444453 	0x5f444453
    1d6c:	32444946 	andi	a0,s2,0x4946
    1d70:	02b40035 	0x2b40035
    1d74:	5345520c 	beql	k0,a1,165a8 <SRAM_BT_UART_BUF_ADDR+0x1a8>
    1d78:	5f544c55 	0x5f544c55
    1d7c:	45544e45 	0x45544e45
    1d80:	54425f52 	bnel	v0,v0,19acc <SRAM_AP_FRONT_DATA_ADDR+0x14c>
    1d84:	5042445f 	beql	v0,v0,12f04 <SRAM_BT_BACK_RCODE_ADDR+0x1f04>
    1d88:	0c02b500 	jal	ad400 <AP_BANK_SPACE+0x6d400>
    1d8c:	55534552 	bnel	t2,s3,132d8 <SRAM_BT_BACK_RCODE_ADDR+0x22d8>
    1d90:	445f544c 	0x445f544c
    1d94:	4f4c4149 	c3	0x14c4149
    1d98:	4b4f5f47 	c2	0x14f5f47
    1d9c:	0c048000 	jal	120000 <AP_BANK_SPACE+0xe0000>
    1da0:	55534552 	bnel	t2,s3,132ec <SRAM_BT_BACK_RCODE_ADDR+0x22ec>
    1da4:	445f544c 	0x445f544c
    1da8:	4f4c4149 	c3	0x14c4149
    1dac:	41435f47 	0x41435f47
    1db0:	4c45434e 	0x4c45434e
    1db4:	0c048100 	jal	120400 <AP_BANK_SPACE+0xe0400>
    1db8:	55534552 	bnel	t2,s3,13304 <SRAM_BT_BACK_RCODE_ADDR+0x2304>
    1dbc:	445f544c 	0x445f544c
    1dc0:	4f4c4149 	c3	0x14c4149
    1dc4:	42415f47 	c0	0x415f47
    1dc8:	0054524f 	0x54524f
    1dcc:	520c0482 	beql	s0,t4,2fd8 <SRAM_BTSTACK_AVDTP_DATA_SIZE+0x658>
    1dd0:	4c555345 	0x4c555345
    1dd4:	49445f54 	0x49445f54
    1dd8:	474f4c41 	c1	0x14f4c41
    1ddc:	5445525f 	bnel	v0,a1,1675c <SRAM_BT_UART_BUF_ADDR+0x35c>
    1de0:	83005952 	lb	zero,22866(t8)
    1de4:	45520c04 	0x45520c04
    1de8:	544c5553 	bnel	v0,t4,17338 <SRAM_BTCALL_ASQT_BUF_ADDR+0x738>
    1dec:	4149445f 	0x4149445f
    1df0:	5f474f4c 	0x5f474f4c
    1df4:	4f4e4749 	c3	0x14e4749
    1df8:	84004552 	lh	zero,17746(zero)
    1dfc:	45520c04 	0x45520c04
    1e00:	544c5553 	bnel	v0,t4,17350 <SRAM_BTCALL_ASQT_BUF_ADDR+0x750>
    1e04:	4149445f 	0x4149445f
    1e08:	5f474f4c 	0x5f474f4c
    1e0c:	00534559 	0x534559
    1e10:	520c0485 	beql	s0,t4,3028 <SRAM_BTSTACK_AVDTP_DATA_SIZE+0x6a8>
    1e14:	4c555345 	0x4c555345
    1e18:	49445f54 	0x49445f54
    1e1c:	474f4c41 	c1	0x14f4c41
    1e20:	004f4e5f 	0x4f4e5f
    1e24:	520c0486 	beql	s0,t4,3040 <SRAM_BTSTACK_AVDTP_DATA_SIZE+0x6c0>
    1e28:	4c555345 	0x4c555345
    1e2c:	49445f54 	0x49445f54
    1e30:	474f4c41 	c1	0x14f4c41
    1e34:	4e41435f 	c3	0x41435f
    1e38:	5f4c4543 	0x5f4c4543
    1e3c:	4f545541 	c3	0x1545541
    1e40:	0c048700 	jal	121c00 <AP_BANK_SPACE+0xe1c00>
    1e44:	55534552 	bnel	t2,s3,13390 <SRAM_BT_BACK_RCODE_ADDR+0x2390>
    1e48:	445f544c 	0x445f544c
    1e4c:	4f4c4149 	c3	0x14c4149
    1e50:	53555f47 	beql	k0,s5,19b70 <SRAM_AP_FRONT_DATA_ADDR+0x1f0>
    1e54:	4f535f42 	c3	0x1535f42
    1e58:	00444e55 	0x444e55
    1e5c:	520c0488 	beql	s0,t4,3080 <SRAM_BTSTACK_AVDTP_DATA_SIZE+0x700>
    1e60:	4c555345 	0x4c555345
    1e64:	49445f54 	0x49445f54
    1e68:	474f4c41 	c1	0x14f4c41
    1e6c:	4c4e4f5f 	0x4c4e4f5f
    1e70:	48435f59 	0x48435f59
    1e74:	45475241 	0x45475241
    1e78:	0c048900 	jal	122400 <AP_BANK_SPACE+0xe2400>
    1e7c:	55534552 	bnel	t2,s3,133c8 <SRAM_BT_BACK_RCODE_ADDR+0x23c8>
    1e80:	485f544c 	0x485f544c
    1e84:	535f4449 	beql	k0,ra,12fac <SRAM_BT_BACK_RCODE_ADDR+0x1fac>
    1e88:	5f444e45 	0x5f444e45
    1e8c:	5f59454b 	0x5f59454b
    1e90:	4e455645 	c3	0x455645
    1e94:	048a0054 	tlti	a0,84
    1e98:	70610d00 	0x70610d00
    1e9c:	65725f70 	0x65725f70
    1ea0:	746c7573 	jalx	1b1d5cc <AP_BANK_SPACE+0x1add5cc>
    1ea4:	0300655f 	0x300655f
    1ea8:	04a10180 	bgez	a1,24ac <SRAM_AP_BACK_AL_RCODE_2_SIZE+0x4ac>
    1eac:	3c0e0000 	lui	t6,0x0
    1eb0:	0400000c 	bltz	zero,1ee4 <SRAM_OS_TASK_STACK_SIZE+0xe4>
    1eb4:	0f025504 	jal	c095410 <AP_BANK_SPACE+0xc055410>
    1eb8:	61746164 	0x61746164
    1ebc:	02520400 	0x2520400
    1ec0:	0000023d 	0x23d
    1ec4:	6464610f 	0x6464610f
    1ec8:	54040072 	bnel	zero,a0,2094 <SRAM_AP_BACK_AL_RCODE_2_SIZE+0x94>
    1ecc:	00019602 	srl	s2,at,0x18
    1ed0:	69100000 	0x69100000
    1ed4:	0800000c 	j	30 <SRAM_CARD_GLOBAL_DATA_SIZE+0x20>
    1ed8:	11025604 	beq	t0,v0,176ec <SRAM_CARD_UD_RCODE_ADDR+0x2ec>
    1edc:	65707974 	0x65707974
    1ee0:	024e0400 	0x24e0400
    1ee4:	00000156 	0x156
    1ee8:	11002302 	beqz	t0,aaf4 <SRAM_BT_EXT1_BANK_ADDR+0x2f4>
    1eec:	746e6f63 	jalx	1b9bd8c <AP_BANK_SPACE+0x1b5bd8c>
    1ef0:	00746e65 	0x746e65
    1ef4:	18025504 	0x18025504
    1ef8:	0200000c 	syscall	0x80000
    1efc:	0d000423 	jal	400108c <AP_BANK_SPACE+0x3fc108c>
    1f00:	5f67736d 	0x5f67736d
    1f04:	73707061 	0x73707061
    1f08:	0400745f 	bltz	zero,1f088 <SRAM_AP_FRONT_RCODE_ADDR+0x788>
    1f0c:	0c3c0256 	jal	f00958 <AP_BANK_SPACE+0xec0958>
    1f10:	bc100000 	cache	0x10,0(zero)
    1f14:	0800000c 	j	30 <SRAM_CARD_GLOBAL_DATA_SIZE+0x20>
    1f18:	11026f04 	beq	t0,v0,1db2c <SRAM_BT_HCI_BUF_ADDR+0x22c>
    1f1c:	65707974 	0x65707974
    1f20:	026b0400 	0x26b0400
    1f24:	00000149 	0x149
    1f28:	11002302 	beqz	t0,ab34 <SRAM_BT_EXT1_BANK_ADDR+0x334>
    1f2c:	65736572 	0x65736572
    1f30:	00657672 	tlt	v1,a1,0x1d9
    1f34:	4d026c04 	bc3fl	1cf48 <SRAM_OS_TASK_STACK_ADDR+0x1948>
    1f38:	02000002 	0x2000002
    1f3c:	63110123 	0x63110123
    1f40:	65746e6f 	0x65746e6f
    1f44:	0400746e 	bltz	zero,1f100 <SRAM_BT_RCODE_DATA_ADDR>
    1f48:	0196026e 	0x196026e
    1f4c:	23020000 	addi	v0,t8,0
    1f50:	6d0d0004 	0x6d0d0004
    1f54:	725f6773 	0x725f6773
    1f58:	796c7065 	0x796c7065
    1f5c:	0400745f 	bltz	zero,1f0dc <SRAM_AP_FRONT_RCODE_ADDR+0x7dc>
    1f60:	0c7c026f 	jal	1f009bc <AP_BANK_SPACE+0x1ec09bc>
    1f64:	09100000 	j	4400000 <AP_BANK_SPACE+0x43c0000>
    1f68:	1000000d 	b	1fa0 <SRAM_OS_TASK_STACK_SIZE+0x1a0>
    1f6c:	11027c04 	beq	t0,v0,20f80 <SRAM_KERNEL_XSYS_ADDR+0x580>
    1f70:	0067736d 	0x67736d
    1f74:	69027704 	0x69027704
    1f78:	0200000c 	syscall	0x80000
    1f7c:	73110023 	0x73110023
    1f80:	04006d65 	bltz	zero,1d518 <SRAM_BANK_C_ADDR+0x18>
    1f84:	02370279 	0x2370279
    1f88:	23020000 	addi	v0,t8,0
    1f8c:	65721108 	0x65721108
    1f90:	00796c70 	tge	v1,t9,0x1b1
    1f94:	09027b04 	j	409ec10 <AP_BANK_SPACE+0x405ec10>
    1f98:	0200000d 	break	0x200
    1f9c:	0a000c23 	j	800308c <AP_BANK_SPACE+0x7fc308c>
    1fa0:	000cbc04 	0xcbc04
    1fa4:	72700d00 	0x72700d00
    1fa8:	74617669 	jalx	185d9a4 <AP_BANK_SPACE+0x181d9a4>
    1fac:	736d5f65 	0x736d5f65
    1fb0:	00745f67 	0x745f67
    1fb4:	d0027c04 	0xd0027c04
    1fb8:	0a00000c 	j	8000030 <AP_BANK_SPACE+0x7fc0030>
    1fbc:	000d0f04 	0xd0f04
    1fc0:	0d740b00 	jal	5d02c00 <AP_BANK_SPACE+0x5cc2c00>
    1fc4:	02010000 	0x2010000
    1fc8:	4e450c72 	c3	0x450c72
    1fcc:	454e4947 	0x454e4947
    1fd0:	4154535f 	0x4154535f
    1fd4:	4e5f4554 	c3	0x5f4554
    1fd8:	004c4c55 	0x4c4c55
    1fdc:	4e450c00 	c3	0x450c00
    1fe0:	454e4947 	0x454e4947
    1fe4:	4154535f 	0x4154535f
    1fe8:	505f4554 	beql	v0,ra,1353c <SRAM_BT_BACK_RCODE_ADDR+0x253c>
    1fec:	4959414c 	0x4959414c
    1ff0:	0100474e 	0x100474e
    1ff4:	474e450c 	c1	0x14e450c
    1ff8:	5f454e49 	0x5f454e49
    1ffc:	54415453 	bnel	v0,at,1714c <SRAM_BTCALL_ASQT_BUF_ADDR+0x54c>
    2000:	41505f45 	0x41505f45
    2004:	00455355 	0x455355
    2008:	65030002 	0x65030002
    200c:	6e69676e 	0x6e69676e
    2010:	74735f65 	jalx	1cd7d94 <AP_BANK_SPACE+0x1c97d94>
    2014:	5f657461 	0x5f657461
    2018:	79020065 	0x79020065
    201c:	00000d2b 	0xd2b
    2020:	00102a10 	0x102a10
    2024:	32021c00 	andi	v0,s0,0x1c00
    2028:	6e651101 	0x6e651101
    202c:	656e6967 	0x656e6967
    2030:	7079745f 	udi15	v1,t9,t6,0x11
    2034:	07020065 	bltzl	t8,21cc <SRAM_AP_BACK_AL_RCODE_2_SIZE+0x1cc>
    2038:	00014901 	0x14901
    203c:	00230200 	0x230200
    2040:	00004312 	0x4312
    2044:	01090200 	0x1090200
    2048:	00000149 	0x149
    204c:	11012302 	beq	t0,at,ac58 <SRAM_BT_EXT1_BANK_ADDR+0x458>
    2050:	5f707061 	0x5f707061
    2054:	74617473 	jalx	185d1cc <AP_BANK_SPACE+0x181d1cc>
    2058:	0b020065 	j	c080194 <AP_BANK_SPACE+0xc040194>
    205c:	00014901 	0x14901
    2060:	02230200 	0x2230200
    2064:	5f697511 	0x5f697511
    2068:	74617473 	jalx	185d1cc <AP_BANK_SPACE+0x181d1cc>
    206c:	02007375 	0x2007375
    2070:	0149010d 	break	0x149,0x4
    2074:	23020000 	addi	v0,t8,0
    2078:	5f671103 	0x5f671103
    207c:	735f6f6e 	0x735f6f6e
    2080:	6f707075 	0x6f707075
    2084:	745f7472 	jalx	17dd1c8 <AP_BANK_SPACE+0x179d1c8>
    2088:	665f7374 	0x665f7374
    208c:	0067616c 	0x67616c
    2090:	49011202 	bc2t	689c <SRAM_AP_BANK_BACK_AL_1_SIZE+0x289c>
    2094:	02000001 	movf	zero,s0,$fcc0
    2098:	67110423 	0x67110423
    209c:	6e65735f 	0x6e65735f
    20a0:	78655f64 	0x78655f64
    20a4:	6d5f7469 	0x6d5f7469
    20a8:	745f6d6d 	jalx	17db5b4 <AP_BANK_SPACE+0x179b5b4>
    20ac:	02007374 	teq	s0,zero,0x1cd
    20b0:	01490113 	0x1490113
    20b4:	23020000 	addi	v0,t8,0
    20b8:	6f701305 	0x6f701305
    20bc:	5f726577 	0x5f726577
    20c0:	665f6e6f 	0x665f6e6f
    20c4:	0067616c 	0x67616c
    20c8:	49011402 	bc2t	70d4 <SRAM_AP_BACK_AL_RCODE_1_SIZE+0xd4>
    20cc:	01000001 	movf	zero,t0,$fcc0
    20d0:	23020404 	addi	v0,t8,1028
    20d4:	74731306 	jalx	1cc4c18 <AP_BANK_SPACE+0x1c84c18>
    20d8:	6d5f6275 	0x6d5f6275
    20dc:	5f65646f 	0x5f65646f
    20e0:	67616c66 	0x67616c66
    20e4:	01150200 	0x1150200
    20e8:	00000149 	0x149
    20ec:	02000401 	0x2000401
    20f0:	73110623 	0x73110623
    20f4:	646e756f 	0x646e756f
    20f8:	6174735f 	0x6174735f
    20fc:	02006574 	teq	s0,zero,0x195
    2100:	01490118 	0x1490118
    2104:	23020000 	addi	v0,t8,0
    2108:	69661107 	0x69661107
    210c:	61735f78 	0x61735f78
    2110:	656c706d 	0x656c706d
    2114:	7461725f 	jalx	185c97c <AP_BANK_SPACE+0x181c97c>
    2118:	6c665f65 	0x6c665f65
    211c:	02006761 	0x2006761
    2120:	0149011a 	0x149011a
    2124:	23020000 	addi	v0,t8,0
    2128:	61621108 	0x61621108
    212c:	72657474 	0x72657474
    2130:	65725f79 	0x65725f79
    2134:	74726f70 	jalx	1c9bdc0 <AP_BANK_SPACE+0x1c5bdc0>
    2138:	616e655f 	0x616e655f
    213c:	00656c62 	0x656c62
    2140:	49011d02 	bc2t	954c <SRAM_BANK_B_ADDR+0x14c>
    2144:	02000001 	movf	zero,s0,$fcc0
    2148:	65110923 	0x65110923
    214c:	6772656e 	0x6772656e
    2150:	76615f79 	jalx	9857de4 <AP_BANK_SPACE+0x9817de4>
    2154:	616c6961 	0x616c6961
    2158:	5f656c62 	0x5f656c62
    215c:	67616c66 	0x67616c66
    2160:	01200200 	0x1200200
    2164:	000000a9 	0xa9
    2168:	110a2302 	beq	t0,t2,ad74 <SRAM_BT_EXT1_BANK_ADDR+0x574>
    216c:	6e655f70 	0x6e655f70
    2170:	79677265 	0x79677265
    2174:	6c61765f 	0x6c61765f
    2178:	02006575 	0x2006575
    217c:	102a0121 	beq	at,t2,2604 <SROM_BROM_SIZE+0x4>
    2180:	23020000 	addi	v0,t8,0
    2184:	5f70110c 	0x5f70110c
    2188:	72656e65 	0x72656e65
    218c:	765f7967 	jalx	97de59c <AP_BANK_SPACE+0x979e59c>
    2190:	65756c61 	0x65756c61
    2194:	6e61625f 	0x6e61625f
    2198:	02007364 	0x2007364
    219c:	102a0124 	beq	at,t2,2630 <SROM_BROM_SIZE+0x30>
    21a0:	23020000 	addi	v0,t8,0
    21a4:	5f701110 	0x5f701110
    21a8:	72656e65 	0x72656e65
    21ac:	765f7967 	jalx	97de59c <AP_BANK_SPACE+0x979e59c>
    21b0:	65756c61 	0x65756c61
    21b4:	6572665f 	0x6572665f
    21b8:	02007371 	tgeu	s0,zero,0x1cd
    21bc:	102a0125 	beq	at,t2,2654 <SROM_BROM_SIZE+0x54>
    21c0:	23020000 	addi	v0,t8,0
    21c4:	74731114 	jalx	1cc4450 <AP_BANK_SPACE+0x1c84450>
    21c8:	705f6275 	0x705f6275
    21cc:	6f745f63 	0x6f745f63
    21d0:	5f736c6f 	0x5f736c6f
    21d4:	65707974 	0x65707974
    21d8:	01280200 	0x1280200
    21dc:	00000149 	0x149
    21e0:	12182302 	beq	s0,t8,adec <SRAM_BT_EXT1_BANK_ADDR+0x5ec>
    21e4:	00000059 	0x59
    21e8:	49012902 	bc2t	c5f4 <SROM_FS_ADDR+0x5f4>
    21ec:	02000001 	movf	zero,s0,$fcc0
    21f0:	62131923 	0x62131923
    21f4:	6e5f6e69 	0x6e5f6e69
    21f8:	65626d75 	0x65626d75
    21fc:	2b020072 	slti	v0,t8,114
    2200:	00014901 	0x14901
    2204:	05030100 	bgezl	t0,2608 <SROM_BROM_SIZE+0x8>
    2208:	131a2302 	beq	t8,k0,ae14 <SRAM_BT_EXT1_BANK_ADDR+0x614>
    220c:	65766177 	0x65766177
    2210:	61645f73 	0x61645f73
    2214:	61705f65 	0x61705f65
    2218:	755f6172 	jalx	57d85c8 <AP_BANK_SPACE+0x57985c8>
    221c:	74616470 	jalx	18591c0 <AP_BANK_SPACE+0x18191c0>
    2220:	6c665f65 	0x6c665f65
    2224:	02006761 	0x2006761
    2228:	0149012c 	0x149012c
    222c:	01010000 	0x1010000
    2230:	1a230204 	0x1a230204
    2234:	6f777413 	0x6f777413
    2238:	6f68705f 	0x6f68705f
    223c:	6d5f656e 	0x6d5f656e
    2240:	0065646f 	0x65646f
    2244:	49012d02 	bc2t	d650 <SROM_FS_ADDR+0x1650>
    2248:	01000001 	movf	zero,t0,$fcc0
    224c:	23020301 	addi	v0,t8,769
    2250:	6f76131a 	0x6f76131a
    2254:	5f656369 	0x5f656369
    2258:	6f636572 	0x6f636572
    225c:	696e676e 	0x696e676e
    2260:	6d5f657a 	0x6d5f657a
    2264:	0065646f 	0x65646f
    2268:	49012e02 	bc2t	da74 <SROM_FS_ADDR+0x1a74>
    226c:	01000001 	movf	zero,t0,$fcc0
    2270:	23020201 	addi	v0,t8,513
    2274:	6f76131a 	0x6f76131a
    2278:	5f656369 	0x5f656369
    227c:	67636572 	0x67636572
    2280:	657a696e 	0x657a696e
    2284:	6f74735f 	0x6f74735f
    2288:	6f6d5f70 	0x6f6d5f70
    228c:	02006564 	0x2006564
    2290:	0149012f 	0x149012f
    2294:	01010000 	0x1010000
    2298:	1a230201 	0x1a230201
    229c:	616d7313 	0x616d7313
    22a0:	625f7472 	0x625f7472
    22a4:	745f6675 	jalx	17d99d4 <AP_BANK_SPACE+0x17999d4>
    22a8:	736e6172 	0x736e6172
    22ac:	616c665f 	0x616c665f
    22b0:	31020067 	andi	v0,t0,0x67
    22b4:	00014901 	0x14901
    22b8:	00010100 	sll	zero,at,0x4
    22bc:	001a2302 	srl	a0,k0,0xc
    22c0:	00db040a 	0xdb040a
    22c4:	610d0000 	0x610d0000
    22c8:	695f7070 	0x695f7070
    22cc:	5f6f666e 	0x5f6f666e
    22d0:	74617473 	jalx	185d1cc <AP_BANK_SPACE+0x181d1cc>
    22d4:	6c615f65 	0x6c615f65
    22d8:	00745f6c 	0x745f6c
    22dc:	8a013202 	lwl	at,12802(s0)
    22e0:	1000000d 	b	2318 <SRAM_AP_BACK_AL_RCODE_2_SIZE+0x318>
    22e4:	000012b3 	tltu	zero,zero,0x4a
    22e8:	016b0218 	0x16b0218
    22ec:	74756d11 	jalx	1d5b444 <AP_BANK_SPACE+0x1d1b444>
    22f0:	74735f65 	jalx	1cd7d94 <AP_BANK_SPACE+0x1c97d94>
    22f4:	00657461 	0x657461
    22f8:	a9013a02 	swl	at,14850(t0)
    22fc:	02000000 	0x2000000
    2300:	70110023 	0x70110023
    2304:	6f6d5f61 	0x6f6d5f61
    2308:	02006564 	0x2006564
    230c:	00a9013c 	0xa9013c
    2310:	23020000 	addi	v0,t8,0
    2314:	6f611101 	0x6f611101
    2318:	6d5f7475 	0x6d5f7475
    231c:	0065646f 	0x65646f
    2320:	49013e02 	bc2t	11b2c <SRAM_BT_BACK_RCODE_ADDR+0xb2c>
    2324:	02000001 	movf	zero,s0,$fcc0
    2328:	62110223 	0x62110223
    232c:	6c6b6361 	0x6c6b6361
    2330:	74686769 	jalx	1a19da4 <AP_BANK_SPACE+0x19d9da4>
    2334:	6174735f 	0x6174735f
    2338:	02006574 	teq	s0,zero,0x195
    233c:	01490140 	0x1490140
    2340:	23020000 	addi	v0,t8,0
    2344:	61631103 	0x61631103
    2348:	735f6472 	0x735f6472
    234c:	65746174 	0x65746174
    2350:	01420200 	0x1420200
    2354:	00000149 	0x149
    2358:	11042302 	beq	t0,a0,af64 <SRAM_BT_EXT1_BANK_ADDR+0x764>
    235c:	736f6875 	0x736f6875
    2360:	74735f74 	jalx	1cd7dd0 <AP_BANK_SPACE+0x1c97dd0>
    2364:	00657461 	0x657461
    2368:	49014402 	bc2t	13374 <SRAM_BT_BACK_RCODE_ADDR+0x2374>
    236c:	02000001 	movf	zero,s0,$fcc0
    2370:	6c110523 	0x6c110523
    2374:	69656e69 	0x69656e69
    2378:	74735f6e 	jalx	1cd7db8 <AP_BANK_SPACE+0x1c97db8>
    237c:	00657461 	0x657461
    2380:	49014602 	bc2t	13b8c <SRAM_BT_EXT3_BANK_ADDR+0x28c>
    2384:	02000001 	movf	zero,s0,$fcc0
    2388:	63110623 	0x63110623
    238c:	656c6261 	0x656c6261
    2390:	6174735f 	0x6174735f
    2394:	02006574 	teq	s0,zero,0x195
    2398:	01490148 	0x1490148
    239c:	23020000 	addi	v0,t8,0
    23a0:	70681107 	0x70681107
    23a4:	6174735f 	0x6174735f
    23a8:	02006574 	teq	s0,zero,0x195
    23ac:	00a9014a 	0xa9014a
    23b0:	23020000 	addi	v0,t8,0
    23b4:	68631108 	0x68631108
    23b8:	65677261 	0x65677261
    23bc:	6174735f 	0x6174735f
    23c0:	02006574 	teq	s0,zero,0x195
    23c4:	0149014c 	syscall	0x52405
    23c8:	23020000 	addi	v0,t8,0
    23cc:	61621109 	0x61621109
    23d0:	61765f74 	0x61765f74
    23d4:	0065756c 	0x65756c
    23d8:	49014e02 	bc2t	15be4 <SRAM_BT_EXT5_BANK_ADDR+0x15e4>
    23dc:	02000001 	movf	zero,s0,$fcc0
    23e0:	72110a23 	0x72110a23
    23e4:	5f676e69 	0x5f676e69
    23e8:	72616c61 	0x72616c61
    23ec:	5002006d 	beql	zero,v0,25a4 <SRAM_AP_BACK_AL_RCODE_2_SIZE+0x5a4>
    23f0:	0000a901 	0xa901
    23f4:	0b230200 	j	c8c0800 <AP_BANK_SPACE+0xc880800>
    23f8:	75747313 	jalx	5d1cc4c <AP_BANK_SPACE+0x5cdcc4c>
    23fc:	6f745f62 	0x6f745f62
    2400:	5f736c6f 	0x5f736c6f
    2404:	65707974 	0x65707974
    2408:	01520200 	0x1520200
    240c:	00000149 	0x149
    2410:	02010701 	0x2010701
    2414:	59140c23 	0x59140c23
    2418:	02000000 	0x2000000
    241c:	01490153 	0x1490153
    2420:	01010000 	0x1010000
    2424:	0c230200 	jal	8c0800 <AP_BANK_SPACE+0x880800>
    2428:	74756111 	jalx	1d58444 <AP_BANK_SPACE+0x1d18444>
    242c:	7365746f 	0x7365746f
    2430:	6f6d5f74 	0x6f6d5f74
    2434:	02006564 	0x2006564
    2438:	01490155 	0x1490155
    243c:	23020000 	addi	v0,t8,0
    2440:	6170110d 	0x6170110d
    2444:	5f686374 	0x5f686374
    2448:	6e776f64 	0x6e776f64
    244c:	64616f6c 	0x64616f6c
    2450:	616c665f 	0x616c665f
    2454:	58020067 	0x58020067
    2458:	0000a901 	0xa901
    245c:	0e230200 	jal	88c0800 <AP_BANK_SPACE+0x8880800>
    2460:	5f746211 	0x5f746211
    2464:	65776f70 	0x65776f70
    2468:	6e6f5f72 	0x6e6f5f72
    246c:	015a0200 	0x15a0200
    2470:	000000a9 	0xa9
    2474:	110f2302 	beq	t0,t7,b080 <SRAM_AP_BANK_FRONT_BASAL_ADDR+0x80>
    2478:	656e6e69 	0x656e6e69
    247c:	61705f72 	0x61705f72
    2480:	696e695f 	0x696e695f
    2484:	00646574 	teq	v1,a0,0x195
    2488:	a9015c02 	swl	at,23554(t0)
    248c:	02000000 	0x2000000
    2490:	6f111023 	0x6f111023
    2494:	72657475 	0x72657475
    2498:	5f61705f 	0x5f61705f
    249c:	02006e6f 	0x2006e6f
    24a0:	00a9015e 	0xa9015e
    24a4:	23020000 	addi	v0,t8,0
    24a8:	75631111 	jalx	58c4444 <AP_BANK_SPACE+0x5884444>
    24ac:	75665f72 	jalx	5997dc8 <AP_BANK_SPACE+0x5957dc8>
    24b0:	695f636e 	0x695f636e
    24b4:	7865646e 	0x7865646e
    24b8:	01600200 	0x1600200
    24bc:	00000149 	0x149
    24c0:	11122302 	beq	t0,s2,b0cc <SRAM_AP_BANK_FRONT_BASAL_ADDR+0xcc>
    24c4:	5f727563 	0x5f727563
    24c8:	636e7566 	0x636e7566
    24cc:	0064695f 	0x64695f
    24d0:	49016202 	bc2t	1acdc <SRAM_OS_HEAP_ADDR+0x5c>
    24d4:	02000001 	movf	zero,s0,$fcc0
    24d8:	61111323 	0x61111323
    24dc:	735f6b70 	0x735f6b70
    24e0:	75746174 	jalx	5d185d0 <AP_BANK_SPACE+0x5cd85d0>
    24e4:	64020073 	0x64020073
    24e8:	00014901 	0x14901
    24ec:	14230200 	bne	at,v1,2cf0 <SRAM_BTSTACK_AVDTP_DATA_SIZE+0x370>
    24f0:	72657611 	udi1	s3,a1,t6,0x18
    24f4:	63696669 	0x63696669
    24f8:	6f697461 	0x6f697461
    24fc:	74735f6e 	jalx	1cd7db8 <AP_BANK_SPACE+0x1c97db8>
    2500:	73757461 	0x73757461
    2504:	01660200 	0x1660200
    2508:	00000149 	0x149
    250c:	11152302 	beq	t0,s5,b118 <SRAM_AP_BANK_FRONT_BASAL_ADDR+0x118>
    2510:	6465656e 	0x6465656e
    2514:	6470755f 	0x6470755f
    2518:	5f657461 	0x5f657461
    251c:	79616c70 	0x79616c70
    2520:	7473696c 	jalx	1cda5b0 <AP_BANK_SPACE+0x1c9a5b0>
    2524:	01680200 	0x1680200
    2528:	00000149 	0x149
    252c:	11162302 	beq	t0,s6,b138 <SRAM_AP_BANK_FRONT_BASAL_ADDR+0x138>
    2530:	65747865 	0x65747865
    2534:	625f6e72 	0x625f6e72
    2538:	695f7461 	0x695f7461
    253c:	6a02006e 	0x6a02006e
    2540:	00014901 	0x14901
    2544:	17230200 	bne	t9,v1,2d48 <SRAM_BTSTACK_AVDTP_DATA_SIZE+0x3c8>
    2548:	70610d00 	0x70610d00
    254c:	6e695f70 	0x6e695f70
    2550:	735f6f66 	0x735f6f66
    2554:	65746174 	0x65746174
    2558:	0200745f 	0x200745f
    255c:	104d016b 	beq	v0,t5,2b0c <SRAM_BTSTACK_AVDTP_DATA_SIZE+0x18c>
    2560:	3b100000 	xori	s0,t8,0x0
    2564:	04000013 	bltz	zero,25b4 <SRAM_AP_BACK_AL_RCODE_2_SIZE+0x5b4>
    2568:	11017a02 	beq	t0,at,20d74 <SRAM_KERNEL_XSYS_ADDR+0x374>
    256c:	7473616c 	jalx	1cd85b0 <AP_BANK_SPACE+0x1c985b0>
    2570:	7369645f 	udi15	k1,t1,t4,0x11
    2574:	7302006b 	0x7302006b
    2578:	00014901 	0x14901
    257c:	00230200 	0x230200
    2580:	73616c11 	udi1	k1,at,t5,0x10
    2584:	75665f74 	jalx	5997dd0 <AP_BANK_SPACE+0x5957dd0>
    2588:	695f636e 	0x695f636e
    258c:	7865646e 	0x7865646e
    2590:	01750200 	0x1750200
    2594:	00000149 	0x149
    2598:	11012302 	beq	t0,at,b1a4 <SRAM_AP_BANK_FRONT_BASAL_ADDR+0x1a4>
    259c:	7473616c 	jalx	1cd85b0 <AP_BANK_SPACE+0x1c985b0>
    25a0:	7379735f 	udi15	k1,t9,t6,0xd
    25a4:	6174735f 	0x6174735f
    25a8:	00737574 	teq	v1,s3,0x1d5
    25ac:	49017702 	bc2t	201b8 <SRAM_RAM2_RESEVER_ADDR+0x98>
    25b0:	02000001 	movf	zero,s0,$fcc0
    25b4:	6c110223 	0x6c110223
    25b8:	5f747361 	0x5f747361
    25bc:	735f6975 	0x735f6975
    25c0:	75746174 	jalx	5d185d0 <AP_BANK_SPACE+0x5cd85d0>
    25c4:	79020073 	0x79020073
    25c8:	00014901 	0x14901
    25cc:	03230200 	0x3230200
    25d0:	70610d00 	0x70610d00
    25d4:	616c5f70 	0x616c5f70
    25d8:	735f7473 	0x735f7473
    25dc:	65746174 	0x65746174
    25e0:	0200745f 	0x200745f
    25e4:	12cc017a 	beq	s6,t4,2bd0 <SRAM_BTSTACK_AVDTP_DATA_SIZE+0x250>
    25e8:	bc150000 	cache	0x15,0(zero)
    25ec:	01000013 	mtlo	t0
    25f0:	6e656d66 	0x6e656d66
    25f4:	656e6967 	0x656e6967
    25f8:	7465735f 	jalx	195cd7c <AP_BANK_SPACE+0x191cd7c>
    25fc:	6572665f 	0x6572665f
    2600:	79735f71 	0x79735f71
    2604:	0100636e 	0x100636e
    2608:	0c030107 	jal	c041c <AP_BANK_SPACE+0x8041c>
    260c:	61550000 	0x61550000
    2610:	61a4bfc2 	0x61a4bfc2
    2614:	6101bfc2 	0x6101bfc2
    2618:	00006716 	0x6716
    261c:	25060100 	addiu	a2,t0,256
    2620:	0200000d 	break	0x200
    2624:	50171891 	beql	zero,s7,886c <SRAM_OS_RCODE_ADDR+0x86c>
    2628:	01000000 	0x1000000
    262c:	000d2508 	0xd2508
    2630:	00910200 	0x910200
    2634:	65726618 	0x65726618
    2638:	09010071 	j	40401c4 <AP_BANK_SPACE+0x40001c4>
    263c:	00000156 	0x156
    2640:	17049102 	bne	t8,a0,fffe6a4c <get_app_msg+0x403c051c>
    2644:	0000003c 	0x3c
    2648:	01640a01 	0x1640a01
    264c:	91020000 	lbu	v0,0(t0)
    2650:	37150008 	ori	s5,t8,0x8
    2654:	01000014 	0x1000014
    2658:	6e656d66 	0x6e656d66
    265c:	656e6967 	0x656e6967
    2660:	7465735f 	jalx	195cd7c <AP_BANK_SPACE+0x191cd7c>
    2664:	666f735f 	0x666f735f
    2668:	65657374 	0x65657374
    266c:	1d01006b 	0x1d01006b
    2670:	000c0301 	0xc0301
    2674:	c261ad00 	ll	at,-21248(s3)
    2678:	c26218bf 	ll	v0,6335(s3)
    267c:	166101bf 	bne	s3,at,2d7c <SRAM_BTSTACK_AVDTP_DATA_SIZE+0x3fc>
    2680:	00000067 	0x67
    2684:	0d251c01 	jal	4947004 <AP_BANK_SPACE+0x4907004>
    2688:	91020000 	lbu	v0,0(t0)
    268c:	00501720 	0x501720
    2690:	1e010000 	0x1e010000
    2694:	00000d25 	0xd25
    2698:	17009102 	bnez	t8,fffe6aa4 <get_app_msg+0x403c0574>
    269c:	0000003c 	0x3c
    26a0:	01642001 	movf	a0,t3,$fcc1
    26a4:	91020000 	lbu	v0,0(t0)
    26a8:	6f731804 	0x6f731804
    26ac:	705f7466 	0x705f7466
    26b0:	6d617261 	0x6d617261
    26b4:	8d220100 	lw	v0,256(t1)
    26b8:	02000004 	sllv	zero,zero,s0
    26bc:	6f170891 	0x6f170891
    26c0:	01000000 	0x1000000
    26c4:	00143724 	0x143724
    26c8:	10910200 	beq	a0,s1,2ecc <SRAM_BTSTACK_AVDTP_DATA_SIZE+0x54c>
    26cc:	8d040a00 	lw	a0,2560(t0)
    26d0:	19000004 	blez	t0,26e4 <SROM_BROM_SIZE+0xe4>
    26d4:	00001474 	teq	zero,zero,0x51
    26d8:	6e616863 	0x6e616863
    26dc:	655f6567 	0x655f6567
    26e0:	6e69676e 	0x6e69676e
    26e4:	74735f65 	jalx	1cd7d94 <AP_BANK_SPACE+0x1c97d94>
    26e8:	00657461 	0x657461
    26ec:	0101be02 	0x101be02
    26f0:	bfc26225 	cache	0x2,25125(s8)
    26f4:	bfc26238 	cache	0x2,25144(s8)
    26f8:	431a6101 	c0	0x11a6101
    26fc:	02000000 	0x2000000
    2700:	0d7401bd 	jal	5d006f4 <AP_BANK_SPACE+0x5cc06f4>
    2704:	91020000 	lbu	v0,0(t0)
    2708:	ef150008 	swc3	$21,8(t8)
    270c:	01000014 	0x1000014
    2710:	6e656d66 	0x6e656d66
    2714:	656e6967 	0x656e6967
    2718:	7465735f 	jalx	195cd7c <AP_BANK_SPACE+0x191cd7c>
    271c:	7261685f 	udi15	s3,at,t5,0x1
    2720:	65657364 	0x65657364
    2724:	4301006b 	c0	0x101006b
    2728:	000c0301 	0xc0301
    272c:	c2623d00 	ll	v0,15616(s3)
    2730:	c262acbf 	ll	v0,-21313(s3)
    2734:	166101bf 	bne	s3,at,2e34 <SRAM_BTSTACK_AVDTP_DATA_SIZE+0x4b4>
    2738:	00000067 	0x67
    273c:	0d254201 	jal	4950804 <AP_BANK_SPACE+0x4910804>
    2740:	91020000 	lbu	v0,0(t0)
    2744:	00501720 	0x501720
    2748:	44010000 	mfc1	at,$f0
    274c:	00000d25 	0xd25
    2750:	17009102 	bnez	t8,fffe6b5c <get_app_msg+0x403c062c>
    2754:	0000003c 	0x3c
    2758:	01644701 	0x1644701
    275c:	91020000 	lbu	v0,0(t0)
    2760:	61681804 	0x61681804
    2764:	705f6472 	0x705f6472
    2768:	6d617261 	0x6d617261
    276c:	8d480100 	lw	t0,256(t2)
    2770:	02000004 	sllv	zero,zero,s0
    2774:	6f170891 	0x6f170891
    2778:	01000000 	0x1000000
    277c:	0014374a 	0x14374a
    2780:	10910200 	beq	a0,s1,2f84 <SRAM_BTSTACK_AVDTP_DATA_SIZE+0x604>
    2784:	15451500 	bne	t2,a1,7b88 <SRAM_AP_BACK_AL_RCODE_1_SIZE+0xb88>
    2788:	66010000 	0x66010000
    278c:	676e656d 	0x676e656d
    2790:	5f656e69 	0x5f656e69
    2794:	6b656573 	0x6b656573
    2798:	6572625f 	0x6572625f
    279c:	01006b61 	0x1006b61
    27a0:	0c030169 	jal	c05a4 <AP_BANK_SPACE+0x805a4>
    27a4:	62b90000 	0x62b90000
    27a8:	6314bfc2 	0x6314bfc2
    27ac:	6101bfc2 	0x6101bfc2
    27b0:	00006716 	0x6716
    27b4:	25680100 	addiu	t0,t3,256
    27b8:	0200000d 	break	0x200
    27bc:	50171091 	beql	zero,s7,6a04 <SRAM_AP_BANK_BACK_AL_1_SIZE+0x2a04>
    27c0:	01000000 	0x1000000
    27c4:	000d256a 	0xd256a
    27c8:	00910200 	0x910200
    27cc:	00003c17 	0x3c17
    27d0:	646b0100 	0x646b0100
    27d4:	02000001 	movf	zero,s0,$fcc0
    27d8:	1b000491 	blez	t8,3a20 <SROM_STUB_ADDR+0x120>
    27dc:	68745f67 	0x68745f67
    27e0:	615f7369 	0x615f7369
    27e4:	745f7070 	jalx	17dc1c0 <AP_BANK_SPACE+0x179c1c0>
    27e8:	72656d69 	0x72656d69
    27ec:	6761745f 	0x6761745f
    27f0:	49850800 	0x49850800
    27f4:	01000001 	movf	zero,t0,$fcc0
    27f8:	5f671c01 	0x5f671c01
    27fc:	5f707061 	0x5f707061
    2800:	6f666e69 	0x6f666e69
    2804:	6174735f 	0x6174735f
    2808:	615f6574 	0x615f6574
    280c:	02006c6c 	0x2006c6c
    2810:	1030018e 	beq	at,s0,2e4c <SRAM_BTSTACK_AVDTP_DATA_SIZE+0x4cc>
    2814:	01010000 	0x1010000
    2818:	615f671c 	0x615f671c
    281c:	6c5f7070 	0x6c5f7070
    2820:	5f747361 	0x5f747361
    2824:	74617473 	jalx	185d1cc <AP_BANK_SPACE+0x181d1cc>
    2828:	94020065 	lhu	v0,101(zero)
    282c:	00133b01 	0x133b01
    2830:	1c010100 	0x1c010100
    2834:	70615f67 	0x70615f67
    2838:	6e695f70 	0x6e695f70
    283c:	735f6f66 	0x735f6f66
    2840:	65746174 	0x65746174
    2844:	019a0200 	0x19a0200
    2848:	000012b3 	tltu	zero,zero,0x4a
    284c:	671b0101 	0x671b0101
    2850:	656d665f 	0x656d665f
    2854:	6e69676e 	0x6e69676e
    2858:	74735f65 	jalx	1cd7d94 <AP_BANK_SPACE+0x1c97d94>
    285c:	73757461 	0x73757461
    2860:	50150a00 	beql	zero,s5,5064 <SRAM_AP_BANK_BACK_AL_1_SIZE+0x1064>
    2864:	01000004 	sllv	zero,zero,t0
    2868:	141d0001 	bne	zero,sp,2870 <SRAM_BTCALL_ASQT_BUF_SIZE+0x70>
    286c:	00020000 	sll	zero,v0,0x0
    2870:	00000315 	0x315
    2874:	02cb0104 	0x2cb0104
    2878:	64340000 	0x64340000
    287c:	6320bfc2 	0x6320bfc2
    2880:	4e47bfc2 	c3	0x47bfc2
    2884:	20432055 	addi	v1,v0,8277
    2888:	2e342e33 	sltiu	s4,s1,11827
    288c:	696d2034 	0x696d2034
    2890:	64737370 	0x64737370
    2894:	2e362d65 	sltiu	s6,s1,11621
    2898:	302e3630 	andi	t6,at,0x3630
    289c:	30322d31 	andi	s2,at,0x2d31
    28a0:	34303730 	ori	s0,at,0x3730
    28a4:	01003032 	tlt	t0,zero,0xc0
    28a8:	6e656d66 	0x6e656d66
    28ac:	656e6967 	0x656e6967
    28b0:	73656d5f 	udi15	k1,a1,t5,0x15
    28b4:	65676173 	0x65676173
    28b8:	7465675f 	jalx	1959d7c <AP_BANK_SPACE+0x1919d7c>
    28bc:	6165645f 	0x6165645f
    28c0:	63725f6c 	0x63725f6c
    28c4:	2e65646f 	sltiu	a1,s3,25711
    28c8:	632f0063 	0x632f0063
    28cc:	72646779 	0x72646779
    28d0:	2f657669 	sltiu	a1,k1,30313
    28d4:	6f532f66 	0x6f532f66
    28d8:	735f7466 	0x735f7466
    28dc:	412f6b64 	0x412f6b64
    28e0:	38325354 	xori	s2,at,0x5354
    28e4:	535f3532 	beql	k0,ra,fdb0 <SRAM_CARD_BUF_0_ADDR+0x1b0>
    28e8:	565f4b44 	bnel	s2,ra,155fc <SRAM_BT_EXT5_BANK_ADDR+0xffc>
    28ec:	2f322e34 	sltiu	s2,t9,11828
    28f0:	65736163 	0x65736163
    28f4:	2f70612f 	sltiu	s0,k1,24879
    28f8:	655f6d66 	0x655f6d66
    28fc:	6e69676e 	0x6e69676e
    2900:	75020065 	jalx	4080194 <AP_BANK_SPACE+0x4040194>
    2904:	6769736e 	0x6769736e
    2908:	2064656e 	addi	a0,v1,25966
    290c:	72616863 	0x72616863
    2910:	03080100 	0x3080100
    2914:	38544e49 	xori	s4,v0,0x4e49
    2918:	0f080055 	jal	c200154 <AP_BANK_SPACE+0xc1c0154>
    291c:	00000098 	0x98
    2920:	67697302 	0x67697302
    2924:	2064656e 	addi	a0,v1,25966
    2928:	72616863 	0x72616863
    292c:	02060100 	0x2060100
    2930:	726f6873 	0x726f6873
    2934:	6e752074 	0x6e752074
    2938:	6e676973 	0x6e676973
    293c:	69206465 	0x69206465
    2940:	0200746e 	0x200746e
    2944:	68730207 	0x68730207
    2948:	2074726f 	addi	s4,v1,29295
    294c:	00746e69 	0x746e69
    2950:	79040502 	0x79040502
    2954:	04000000 	bltz	zero,2958 <SRAM_BT_BACK_RCODE_SIZE+0x58>
    2958:	6f6c0207 	0x6f6c0207
    295c:	6920676e 	0x6920676e
    2960:	0400746e 	bltz	zero,1fb1c <SRAM_KEY_MESSAGE_RCODE_ADDR+0x31c>
    2964:	6c660205 	0x6c660205
    2968:	0074616f 	0x74616f
    296c:	64020404 	0x64020404
    2970:	6c62756f 	0x6c62756f
    2974:	04080065 	tgei	zero,101
    2978:	6e6f6c02 	0x6e6f6c02
    297c:	6f6c2067 	0x6f6c2067
    2980:	7520676e 	jalx	4819db8 <AP_BANK_SPACE+0x47d9db8>
    2984:	6769736e 	0x6769736e
    2988:	2064656e 	addi	a0,v1,25966
    298c:	00746e69 	0x746e69
    2990:	6c020708 	0x6c020708
    2994:	20676e6f 	addi	a3,v1,28271
    2998:	676e6f6c 	0x676e6f6c
    299c:	746e6920 	jalx	1b9a480 <AP_BANK_SPACE+0x1b5a480>
    29a0:	02050800 	0x2050800
    29a4:	69736e75 	0x69736e75
    29a8:	64656e67 	0x64656e67
    29ac:	746e6920 	jalx	1b9a480 <AP_BANK_SPACE+0x1b5a480>
    29b0:	03070400 	0x3070400
    29b4:	746e6975 	jalx	1b9a5d4 <AP_BANK_SPACE+0x1b5a5d4>
    29b8:	15040038 	bne	t0,a0,2a9c <SRAM_BTSTACK_AVDTP_DATA_SIZE+0x11c>
    29bc:	00000098 	0x98
    29c0:	6e697503 	0x6e697503
    29c4:	00323374 	teq	at,s2,0xcd
    29c8:	01392504 	0x1392504
    29cc:	69020000 	0x69020000
    29d0:	0400746e 	bltz	zero,1fb8c <SRAM_KEY_MESSAGE_RCODE_ADDR+0x38c>
    29d4:	68630205 	0x68630205
    29d8:	01007261 	0x1007261
    29dc:	49550306 	0x49550306
    29e0:	3631544e 	ori	s1,s1,0x544e
    29e4:	c5680400 	lwc1	$f8,1024(t3)
    29e8:	03000000 	0x3000000
    29ec:	544e4955 	bnel	v0,t6,14f44 <SRAM_BT_EXT5_BANK_ADDR+0x944>
    29f0:	04003233 	bltz	zero,f2c0 <SRAM_ASRC_BUF_1_ADDR+0x2c0>
    29f4:	00013970 	tge	zero,at,0xe5
    29f8:	00790400 	0x790400
    29fc:	07040000 	0x7040000
    2a00:	a8060405 	swl	a2,1029(zero)
    2a04:	98000001 	lwr	zero,1(zero)
    2a08:	07000000 	bltz	t8,2a0c <SRAM_BTSTACK_AVDTP_DATA_SIZE+0x8c>
    2a0c:	0000018f 	0x18f
    2a10:	25080001 	addiu	t0,t0,1
    2a14:	0c000002 	jal	8 <DRV_GROUP_KEY>
    2a18:	6f09e305 	0x6f09e305
    2a1c:	76655f73 	jalx	9957dcc <AP_BANK_SPACE+0x9917dcc>
    2a20:	5f746e65 	0x5f746e65
    2a24:	65707974 	0x65707974
    2a28:	98db0500 	lwr	k1,1280(a2)
    2a2c:	02000000 	0x2000000
    2a30:	6f090023 	0x6f090023
    2a34:	76655f73 	jalx	9957dcc <AP_BANK_SPACE+0x9917dcc>
    2a38:	5f746e65 	0x5f746e65
    2a3c:	00707267 	0x707267
    2a40:	0098dc05 	0x98dc05
    2a44:	23020000 	addi	v0,t8,0
    2a48:	736f0901 	0x736f0901
    2a4c:	6576655f 	0x6576655f
    2a50:	635f746e 	0x635f746e
    2a54:	0500746e 	bltz	t0,1fc10 <SRAM_KEY_MESSAGE_RCODE_ADDR+0x410>
    2a58:	0000c5dd 	0xc5dd
    2a5c:	02230200 	0x2230200
    2a60:	5f736f09 	0x5f736f09
    2a64:	6e657665 	0x6e657665
    2a68:	74705f74 	jalx	1c17dd0 <AP_BANK_SPACE+0x1bd7dd0>
    2a6c:	de050072 	ldc3	$5,114(s0)
    2a70:	00000196 	0x196
    2a74:	09042302 	j	4108c08 <AP_BANK_SPACE+0x40c8c08>
    2a78:	655f736f 	0x655f736f
    2a7c:	746e6576 	jalx	1b995d8 <AP_BANK_SPACE+0x1b595d8>
    2a80:	6c62745f 	0x6c62745f
    2a84:	98df0500 	lwr	ra,1280(a2)
    2a88:	02000001 	movf	zero,s0,$fcc0
    2a8c:	03000823 	subu	at,t8,zero
    2a90:	655f736f 	0x655f736f
    2a94:	746e6576 	jalx	1b995d8 <AP_BANK_SPACE+0x1b595d8>
    2a98:	0500745f 	bltz	t0,1fc18 <SRAM_KEY_MESSAGE_RCODE_ADDR+0x418>
    2a9c:	0001a8e3 	0x1a8e3
    2aa0:	25040a00 	addiu	a0,t0,2560
    2aa4:	06000002 	bltz	s0,2ab0 <SRAM_BTSTACK_AVDTP_DATA_SIZE+0x130>
    2aa8:	0000024d 	break	0x0,0x9
    2aac:	00000149 	0x149
    2ab0:	00018f07 	0x18f07
    2ab4:	06000300 	bltz	s0,36b8 <SRAM_BT_HEAD_SIZE+0x2b8>
    2ab8:	0000025d 	0x25d
    2abc:	00000149 	0x149
    2ac0:	00018f07 	0x18f07
    2ac4:	0b000200 	j	c000800 <AP_BANK_SPACE+0xbfc0800>
    2ac8:	0000029c 	0x29c
    2acc:	0c170b01 	jal	5c2c04 <AP_BANK_SPACE+0x582c04>
    2ad0:	646e6142 	0x646e6142
    2ad4:	6968435f 	0x6968435f
    2ad8:	555f616e 	bnel	t2,ra,1b094 <SRAM_OS_HEAP_ADDR+0x414>
    2adc:	0c000053 	jal	14c <SRAM_BTMANAGER_DATA_SIZE+0xc>
    2ae0:	646e6142 	0x646e6142
    2ae4:	70614a5f 	udi15	v1,at,t1,0x9
    2ae8:	01006e61 	0x1006e61
    2aec:	6e61420c 	0x6e61420c
    2af0:	75455f64 	jalx	5157d90 <AP_BANK_SPACE+0x5117d90>
    2af4:	65706f72 	0x65706f72
    2af8:	420c0200 	c0	0xc0200
    2afc:	5f646e61 	0x5f646e61
    2b00:	0058414d 	break	0x58,0x105
    2b04:	72030003 	0x72030003
    2b08:	6f696461 	0x6f696461
    2b0c:	6e61625f 	0x6e61625f
    2b10:	00655f64 	0x655f64
    2b14:	025d1c0b 	0x25d1c0b
    2b18:	ee0b0000 	swc3	$11,0(s0)
    2b1c:	01000002 	0x1000002
    2b20:	530c110a 	beql	t8,t4,6f4c <SRAM_AP_BANK_BACK_AL_1_SIZE+0x2f4c>
    2b24:	55544154 	bnel	t2,s4,13078 <SRAM_BT_BACK_RCODE_ADDR+0x2078>
    2b28:	4c505f53 	0x4c505f53
    2b2c:	00005941 	0x5941
    2b30:	4154530c 	0x4154530c
    2b34:	5f535554 	0x5f535554
    2b38:	53554150 	beql	k0,s5,1307c <SRAM_BT_BACK_RCODE_ADDR+0x207c>
    2b3c:	0c010045 	jal	40114 <AP_BANK_SPACE+0x114>
    2b40:	54415453 	bnel	v0,at,17c90 <SRAM_CARD_UD_RCODE_ADDR+0x890>
    2b44:	465f5355 	c1	0x5f5355
    2b48:	474e454d 	c1	0x14e454d
    2b4c:	5f454e49 	0x5f454e49
    2b50:	4f525245 	c3	0x1525245
    2b54:	00020052 	0x20052
    2b58:	5f4d4603 	0x5f4d4603
    2b5c:	79616c50 	0x79616c50
    2b60:	74617473 	jalx	185d1cc <AP_BANK_SPACE+0x181d1cc>
    2b64:	655f7375 	0x655f7375
    2b68:	b0150a00 	0xb0150a00
    2b6c:	0b000002 	j	c000008 <AP_BANK_SPACE+0xbfc0008>
    2b70:	00000320 	0x320
    2b74:	0c170a01 	jal	5c2804 <AP_BANK_SPACE+0x582804>
    2b78:	4d5f4d46 	0x4d5f4d46
    2b7c:	004f4e4f 	0x4f4e4f
    2b80:	54530c00 	bnel	v0,s3,5b84 <SRAM_AP_BANK_BACK_AL_1_SIZE+0x1b84>
    2b84:	00455245 	0x455245
    2b88:	46030001 	sub.s	$f0,$f0,$f3
    2b8c:	75415f4d 	jalx	5057d34 <AP_BANK_SPACE+0x5017d34>
    2b90:	5f6f6964 	0x5f6f6964
    2b94:	1a0a0065 	0x1a0a0065
    2b98:	00000305 	0x305
    2b9c:	0003a40b 	0x3a40b
    2ba0:	1d0a0100 	0x1d0a0100
    2ba4:	5241480c 	beql	s2,at,14bd8 <SRAM_BT_EXT5_BANK_ADDR+0x5d8>
    2ba8:	45455344 	0x45455344
    2bac:	4f4e5f4b 	c3	0x14e5f4b
    2bb0:	54535f54 	bnel	v0,s3,1a904 <SRAM_OS_DATA_ADDR+0x504>
    2bb4:	00545241 	0x545241
    2bb8:	41480c00 	0x41480c00
    2bbc:	45534452 	0x45534452
    2bc0:	445f4b45 	0x445f4b45
    2bc4:	474e494f 	c1	0x14e494f
    2bc8:	480c0100 	0x480c0100
    2bcc:	53445241 	beql	k0,a0,174d4 <SRAM_CARD_UD_RCODE_ADDR+0xd4>
    2bd0:	5f4b4545 	0x5f4b4545
    2bd4:	504d4f43 	beql	v0,t5,168e4 <SRAM_BT_UART_BUF_ADDR+0x4e4>
    2bd8:	4554454c 	0x4554454c
    2bdc:	480c0200 	0x480c0200
    2be0:	53445241 	beql	k0,a0,174e8 <SRAM_CARD_UD_RCODE_ADDR+0xe8>
    2be4:	5f4b4545 	0x5f4b4545
    2be8:	504d4f43 	beql	v0,t5,168f8 <SRAM_BT_UART_BUF_ADDR+0x4f8>
    2bec:	4554454c 	0x4554454c
    2bf0:	544f4e5f 	bnel	v0,t7,16570 <SRAM_BT_UART_BUF_ADDR+0x170>
    2bf4:	4c41565f 	0x4c41565f
    2bf8:	03004449 	0x3004449
    2bfc:	5241480c 	beql	s2,at,14c30 <SRAM_BT_EXT5_BANK_ADDR+0x630>
    2c00:	45455344 	0x45455344
    2c04:	41465f4b 	0x41465f4b
    2c08:	0045534c 	syscall	0x1154d
    2c0c:	68030004 	0x68030004
    2c10:	73647261 	0x73647261
    2c14:	5f6b6565 	0x5f6b6565
    2c18:	74617473 	jalx	185d1cc <AP_BANK_SPACE+0x181d1cc>
    2c1c:	655f7375 	0x655f7375
    2c20:	32230a00 	andi	v1,s1,0xa00
    2c24:	08000003 	j	c <DRV_GROUP_BT>
    2c28:	00000450 	0x450
    2c2c:	092c0a0c 	j	4b02830 <AP_BANK_SPACE+0x4ac2830>
    2c30:	435f4d46 	c0	0x15f4d46
    2c34:	65727275 	0x65727275
    2c38:	7246746e 	0x7246746e
    2c3c:	0a007165 	j	801c594 <AP_BANK_SPACE+0x7fdc594>
    2c40:	00018126 	0x18126
    2c44:	00230200 	0x230200
    2c48:	5f4d4609 	0x5f4d4609
    2c4c:	6e676953 	0x6e676953
    2c50:	74536c61 	jalx	14db184 <AP_BANK_SPACE+0x149b184>
    2c54:	270a0067 	addiu	t2,t8,103
    2c58:	00000173 	tltu	zero,zero,0x5
    2c5c:	09042302 	j	4108c08 <AP_BANK_SPACE+0x40c8c08>
    2c60:	535f4d46 	beql	k0,ra,1617c <SRAM_BT_EXT5_BANK_ADDR+0x1b7c>
    2c64:	65726574 	0x65726574
    2c68:	74535f6f 	jalx	14d7dbc <AP_BANK_SPACE+0x1497dbc>
    2c6c:	73757461 	0x73757461
    2c70:	20280a00 	addi	t0,at,2560
    2c74:	02000003 	0x2000003
    2c78:	46090623 	c1	0x90623
    2c7c:	75435f4d 	jalx	50d7d34 <AP_BANK_SPACE+0x5097d34>
    2c80:	6e614272 	0x6e614272
    2c84:	290a0064 	slti	t2,t0,100
    2c88:	0000029c 	0x29c
    2c8c:	09072302 	j	41c8c08 <AP_BANK_SPACE+0x4188c08>
    2c90:	565f4d46 	bnel	s2,ra,161ac <SRAM_BT_EXT5_BANK_ADDR+0x1bac>
    2c94:	74536c6f 	jalx	14db1bc <AP_BANK_SPACE+0x149b1bc>
    2c98:	73757461 	0x73757461
    2c9c:	ee2a0a00 	swc3	$10,2560(s1)
    2ca0:	02000002 	0x2000002
    2ca4:	53090823 	beql	t8,t1,4d34 <SRAM_AP_BANK_BACK_AL_1_SIZE+0xd34>
    2ca8:	665f4354 	0x665f4354
    2cac:	0067616c 	0x67616c
    2cb0:	03a42b0a 	0x3a42b0a
    2cb4:	23020000 	addi	v0,t8,0
    2cb8:	45030009 	bc1tl	2ce0 <SRAM_BTSTACK_AVDTP_DATA_SIZE+0x360>
    2cbc:	6e69676e 	0x6e69676e
    2cc0:	74535f65 	jalx	14d7d94 <AP_BANK_SPACE+0x1497d94>
    2cc4:	73757461 	0x73757461
    2cc8:	0a00745f 	j	801d17c <AP_BANK_SPACE+0x7fdd17c>
    2ccc:	0003bd2c 	0x3bd2c
    2cd0:	0bc90b00 	j	f242c00 <AP_BANK_SPACE+0xf202c00>
    2cd4:	02020000 	0x2020000
    2cd8:	45520ce3 	0x45520ce3
    2cdc:	544c5553 	bnel	v0,t4,1822c <SRAM_FS_DATA_ADDR+0x22c>
    2ce0:	4c554e5f 	0x4c554e5f
    2ce4:	0c00004c 	jal	130 <SRAM_IRQ_PRINT_BUFFER_SIZE>
    2ce8:	55534552 	bnel	t2,s3,14234 <SRAM_IRQ_PRINT_BUFFER_ADDR+0x164>
    2cec:	495f544c 	0x495f544c
    2cf0:	524f4e47 	beql	s2,t7,16610 <SRAM_BT_UART_BUF_ADDR+0x210>
    2cf4:	0c010045 	jal	40114 <AP_BANK_SPACE+0x114>
    2cf8:	55534552 	bnel	t2,s3,14244 <SRAM_IRQ_PRINT_BUFFER_ADDR+0x174>
    2cfc:	4e5f544c 	c3	0x5f544c
    2d00:	5f454e4f 	0x5f454e4f
    2d04:	4e455645 	c3	0x455645
    2d08:	0c020054 	jal	80150 <AP_BANK_SPACE+0x40150>
    2d0c:	55534552 	bnel	t2,s3,14258 <SRAM_IRQ_PRINT_BUFFER_ADDR+0x188>
    2d10:	525f544c 	beql	s2,ra,17e44 <SRAM_CARD_UD_RCODE_ADDR+0xa44>
    2d14:	4c5f5043 	0x4c5f5043
    2d18:	41575f43 	0x41575f43
    2d1c:	03005449 	0x3005449
    2d20:	5345520c 	beql	k0,a1,17554 <SRAM_CARD_UD_RCODE_ADDR+0x154>
    2d24:	5f544c55 	0x5f544c55
    2d28:	4d4d4f43 	0x4d4d4f43
    2d2c:	525f4e4f 	beql	s2,ra,1666c <SRAM_BT_UART_BUF_ADDR+0x26c>
    2d30:	52455345 	beql	s2,a1,17a48 <SRAM_CARD_UD_RCODE_ADDR+0x648>
    2d34:	20004556 	addi	zero,zero,17750
    2d38:	5345520c 	beql	k0,a1,1756c <SRAM_CARD_UD_RCODE_ADDR+0x16c>
    2d3c:	5f544c55 	0x5f544c55
    2d40:	4f525245 	c3	0x1525245
    2d44:	01800052 	0x1800052
    2d48:	5345520c 	beql	k0,a1,1757c <SRAM_CARD_UD_RCODE_ADDR+0x17c>
    2d4c:	5f544c55 	0x5f544c55
    2d50:	4b434142 	c2	0x1434142
    2d54:	4543535f 	0x4543535f
    2d58:	445f454e 	0x445f454e
    2d5c:	41505349 	0x41505349
    2d60:	00484354 	0x484354
    2d64:	520c0181 	beql	s0,t4,336c <SROM_TWI_ADDR+0x16c>
    2d68:	4c555345 	0x4c555345
    2d6c:	43535f54 	c0	0x1535f54
    2d70:	5f454e45 	0x5f454e45
    2d74:	54495845 	bnel	v0,t1,18e8c <SRAM_CARD_UD_CACHE_ADDR+0x18c>
    2d78:	0c018200 	jal	60800 <AP_BANK_SPACE+0x20800>
    2d7c:	55534552 	bnel	t2,s3,142c8 <SRAM_IRQ_PRINT_BUFFER_ADDR+0x1f8>
    2d80:	4b5f544c 	c2	0x15f544c
    2d84:	455f5945 	0x455f5945
    2d88:	544e4556 	bnel	v0,t6,142e4 <SRAM_IRQ_PRINT_BUFFER_ADDR+0x214>
    2d8c:	4445525f 	0x4445525f
    2d90:	5f4c4145 	0x5f4c4145
    2d94:	435f5942 	c0	0x15f5942
    2d98:	4f4d4d4f 	c3	0x14d4d4f
    2d9c:	0183004e 	0x183004e
    2da0:	5345520c 	beql	k0,a1,175d4 <SRAM_CARD_UD_RCODE_ADDR+0x1d4>
    2da4:	5f544c55 	0x5f544c55
    2da8:	5f535953 	0x5f535953
    2dac:	5f47534d 	0x5f47534d
    2db0:	45444552 	0x45444552
    2db4:	425f4c41 	c0	0x5f4c41
    2db8:	4f435f59 	c3	0x1435f59
    2dbc:	4e4f4d4d 	c3	0x4f4d4d
    2dc0:	0c018400 	jal	61000 <AP_BANK_SPACE+0x21000>
    2dc4:	55534552 	bnel	t2,s3,14310 <SRAM_IRQ_PRINT_BUFFER_ADDR+0x240>
    2dc8:	465f544c 	c1	0x5f544c
    2dcc:	4543524f 	0x4543524f
    2dd0:	5354545f 	beql	k0,s4,17f50 <SRAM_CARD_UD_RCODE_ADDR+0xb50>
    2dd4:	4f54535f 	c3	0x154535f
    2dd8:	01850050 	0x1850050
    2ddc:	5345520c 	beql	k0,a1,17610 <SRAM_CARD_UD_RCODE_ADDR+0x210>
    2de0:	5f544c55 	0x5f544c55
    2de4:	45544e45 	0x45544e45
    2de8:	544f5f52 	bnel	v0,t7,1ab34 <SRAM_OS_DATA_ADDR+0x734>
    2dec:	50555f41 	beql	v0,s5,1aaf4 <SRAM_OS_DATA_ADDR+0x6f4>
    2df0:	44415247 	0x44415247
    2df4:	01a10045 	0x1a10045
    2df8:	5345520c 	beql	k0,a1,1762c <SRAM_CARD_UD_RCODE_ADDR+0x22c>
    2dfc:	5f544c55 	0x5f544c55
    2e00:	54534554 	bnel	v0,s3,14354 <SRAM_IRQ_PRINT_BUFFER_ADDR+0x284>
    2e04:	515f5041 	beql	t2,ra,16f0c <SRAM_BTCALL_ASQT_BUF_ADDR+0x30c>
    2e08:	00544955 	0x544955
    2e0c:	520c01ff 	beql	s0,t4,360c <SRAM_BT_HEAD_SIZE+0x20c>
    2e10:	4c555345 	0x4c555345
    2e14:	50415f54 	beql	v0,at,1ab68 <SRAM_OS_DATA_ADDR+0x768>
    2e18:	55515f50 	bnel	t2,s1,1ab5c <SRAM_OS_DATA_ADDR+0x75c>
    2e1c:	80005449 	lb	zero,21577(zero)
    2e20:	45520c02 	0x45520c02
    2e24:	544c5553 	bnel	v0,t4,18374 <SRAM_FS_BUF_ADDR+0x74>
    2e28:	53554d5f 	beql	k0,s5,163a8 <SRAM_BT_EXT5_BANK_ADDR+0x1da8>
    2e2c:	505f4349 	beql	v0,ra,13b54 <SRAM_BT_EXT3_BANK_ADDR+0x254>
    2e30:	0059414c 	syscall	0x16505
    2e34:	520c0281 	beql	s0,t4,383c <SRAM_BT_HEAD_SIZE+0x43c>
    2e38:	4c555345 	0x4c555345
    2e3c:	554d5f54 	bnel	t2,t5,1ab90 <SRAM_OS_DATA_ADDR+0x790>
    2e40:	5f434953 	0x5f434953
    2e44:	414c5043 	0x414c5043
    2e48:	02820059 	0x2820059
    2e4c:	5345520c 	beql	k0,a1,17680 <SRAM_CARD_UD_RCODE_ADDR+0x280>
    2e50:	5f544c55 	0x5f544c55
    2e54:	4953554d 	0x4953554d
    2e58:	50555f43 	beql	v0,s5,1ab68 <SRAM_OS_DATA_ADDR+0x768>
    2e5c:	0059414c 	syscall	0x16505
    2e60:	520c0283 	beql	s0,t4,3870 <SRAM_BT_HEAD_SIZE+0x470>
    2e64:	4c555345 	0x4c555345
    2e68:	4e455f54 	c3	0x455f54
    2e6c:	5f524554 	0x5f524554
    2e70:	454e494c 	0x454e494c
    2e74:	84004e49 	lh	zero,20041(zero)
    2e78:	45520c02 	0x45520c02
    2e7c:	544c5553 	bnel	v0,t4,183cc <SRAM_FS_BUF_ADDR+0xcc>
    2e80:	4441525f 	0x4441525f
    2e84:	85004f49 	lh	zero,20297(t0)
    2e88:	45520c02 	0x45520c02
    2e8c:	544c5553 	bnel	v0,t4,183dc <SRAM_FS_BUF_ADDR+0xdc>
    2e90:	554c425f 	bnel	t2,t4,13810 <SRAM_BT_BACK_RCODE_ADDR+0x2810>
    2e94:	45455445 	0x45455445
    2e98:	535f4854 	beql	k0,ra,14fec <SRAM_BT_EXT5_BANK_ADDR+0x9ec>
    2e9c:	444e554f 	0x444e554f
    2ea0:	0c028600 	jal	a1800 <AP_BANK_SPACE+0x61800>
    2ea4:	55534552 	bnel	t2,s3,143f0 <SRAM_IRQ_PRINT_BUFFER_ADDR+0x320>
    2ea8:	425f544c 	c0	0x5f544c
    2eac:	5445554c 	bnel	v0,a1,183e0 <SRAM_FS_BUF_ADDR+0xe0>
    2eb0:	48544545 	0x48544545
    2eb4:	4c41435f 	0x4c41435f
    2eb8:	0287004c 	syscall	0xa1c01
    2ebc:	5345520c 	beql	k0,a1,176f0 <SRAM_CARD_UD_RCODE_ADDR+0x2f0>
    2ec0:	5f544c55 	0x5f544c55
    2ec4:	45554c42 	0x45554c42
    2ec8:	54454554 	bnel	v0,a1,1441c <SRAM_IRQ_PRINT_BUFFER_ADDR+0x34c>
    2ecc:	41435f48 	0x41435f48
    2ed0:	425f4c4c 	c0	0x5f4c4c
    2ed4:	474b4341 	c1	0x14b4341
    2ed8:	4e554f52 	c3	0x554f52
    2edc:	02880044 	0x2880044
    2ee0:	5345520c 	beql	k0,a1,17714 <SRAM_CARD_UD_RCODE_ADDR+0x314>
    2ee4:	5f544c55 	0x5f544c55
    2ee8:	5f425355 	0x5f425355
    2eec:	4e554f53 	c3	0x554f53
    2ef0:	02890044 	0x2890044
    2ef4:	5345520c 	beql	k0,a1,17728 <SRAM_CARD_UD_RCODE_ADDR+0x328>
    2ef8:	5f544c55 	0x5f544c55
    2efc:	45574f50 	0x45574f50
    2f00:	464f5f52 	c1	0x4f5f52
    2f04:	028a0046 	rorv	zero,t2,s4
    2f08:	5345520c 	beql	k0,a1,1773c <SRAM_CARD_UD_RCODE_ADDR+0x33c>
    2f0c:	5f544c55 	0x5f544c55
    2f10:	5f574f4c 	0x5f574f4c
    2f14:	45574f50 	0x45574f50
    2f18:	028b0052 	0x28b0052
    2f1c:	5345520c 	beql	k0,a1,17750 <SRAM_CARD_UD_RCODE_ADDR+0x350>
    2f20:	5f544c55 	0x5f544c55
    2f24:	5f425355 	0x5f425355
    2f28:	4e415254 	c3	0x415254
    2f2c:	028c0053 	0x28c0053
    2f30:	5345520c 	beql	k0,a1,17764 <SRAM_CARD_UD_RCODE_ADDR+0x364>
    2f34:	5f544c55 	0x5f544c55
    2f38:	4f434552 	c3	0x1434552
    2f3c:	435f4452 	c0	0x15f4452
    2f40:	59414c50 	0x59414c50
    2f44:	0c028d00 	jal	a3400 <AP_BANK_SPACE+0x63400>
    2f48:	55534552 	bnel	t2,s3,14494 <SRAM_IRQ_PRINT_BUFFER_ADDR+0x3c4>
    2f4c:	525f544c 	beql	s2,ra,18080 <SRAM_FS_DATA_ADDR+0x80>
    2f50:	524f4345 	beql	s2,t7,13c68 <SRAM_BT_EXT3_BANK_ADDR+0x368>
    2f54:	50555f44 	beql	v0,s5,1ac68 <SRAM_OS_DATA_ADDR+0x868>
    2f58:	0059414c 	syscall	0x16505
    2f5c:	520c028e 	beql	s0,t4,3998 <SROM_STUB_ADDR+0x98>
    2f60:	4c555345 	0x4c555345
    2f64:	45525f54 	0x45525f54
    2f68:	44524f43 	0x44524f43
    2f6c:	4e494c5f 	c3	0x494c5f
    2f70:	5f4e4945 	0x5f4e4945
    2f74:	00434f54 	0x434f54
    2f78:	520c028f 	beql	s0,t4,39b8 <SROM_STUB_ADDR+0xb8>
    2f7c:	4c555345 	0x4c555345
    2f80:	45525f54 	0x45525f54
    2f84:	44524f43 	0x44524f43
    2f88:	5f4d465f 	0x5f4d465f
    2f8c:	00434f54 	0x434f54
    2f90:	520c0290 	beql	s0,t4,39d4 <SROM_STUB_ADDR+0xd4>
    2f94:	4c555345 	0x4c555345
    2f98:	45525f54 	0x45525f54
    2f9c:	44524f43 	0x44524f43
    2fa0:	43494d5f 	c0	0x1494d5f
    2fa4:	434f545f 	c0	0x14f545f
    2fa8:	0c029100 	jal	a4400 <AP_BANK_SPACE+0x64400>
    2fac:	55534552 	bnel	t2,s3,144f8 <SRAM_IRQ_PRINT_BUFFER_ADDR+0x428>
    2fb0:	525f544c 	beql	s2,ra,180e4 <SRAM_FS_DATA_ADDR+0xe4>
    2fb4:	524f4345 	beql	s2,t7,13ccc <SRAM_BT_EXT3_BANK_ADDR+0x3cc>
    2fb8:	494c5f44 	0x494c5f44
    2fbc:	4e49454e 	c3	0x49454e
    2fc0:	554f545f 	bnel	t2,t7,18140 <SRAM_FS_DATA_ADDR+0x140>
    2fc4:	0c029200 	jal	a4800 <AP_BANK_SPACE+0x64800>
    2fc8:	55534552 	bnel	t2,s3,14514 <SRAM_IRQ_PRINT_BUFFER_ADDR+0x444>
    2fcc:	525f544c 	beql	s2,ra,18100 <SRAM_FS_DATA_ADDR+0x100>
    2fd0:	524f4345 	beql	s2,t7,13ce8 <SRAM_BT_EXT3_BANK_ADDR+0x3e8>
    2fd4:	4d465f44 	0x4d465f44
    2fd8:	554f545f 	bnel	t2,t7,18158 <SRAM_FS_DATA_ADDR+0x158>
    2fdc:	0c029300 	jal	a4c00 <AP_BANK_SPACE+0x64c00>
    2fe0:	55534552 	bnel	t2,s3,1452c <SRAM_IRQ_PRINT_BUFFER_ADDR+0x45c>
    2fe4:	525f544c 	beql	s2,ra,18118 <SRAM_FS_DATA_ADDR+0x118>
    2fe8:	524f4345 	beql	s2,t7,13d00 <SRAM_BT_EXT3_BANK_ADDR+0x400>
    2fec:	494d5f44 	0x494d5f44
    2ff0:	4f545f43 	c3	0x1545f43
    2ff4:	02940055 	0x2940055
    2ff8:	5345520c 	beql	k0,a1,1782c <SRAM_CARD_UD_RCODE_ADDR+0x42c>
    2ffc:	5f544c55 	0x5f544c55
    3000:	5453414c 	bnel	v0,s3,13534 <SRAM_BT_BACK_RCODE_ADDR+0x2534>
    3004:	59414c50 	0x59414c50
    3008:	0c029500 	jal	a5400 <AP_BANK_SPACE+0x65400>
    300c:	55534552 	bnel	t2,s3,14558 <SRAM_IRQ_PRINT_BUFFER_ADDR+0x488>
    3010:	4e5f544c 	c3	0x5f544c
    3014:	5f545845 	0x5f545845
    3018:	434e5546 	c0	0x14e5546
    301c:	4e4f4954 	c3	0x4f4954
    3020:	0c029600 	jal	a5800 <AP_BANK_SPACE+0x65800>
    3024:	55534552 	bnel	t2,s3,14570 <SRAM_IRQ_PRINT_BUFFER_ADDR+0x4a0>
    3028:	455f544c 	0x455f544c
    302c:	5245544e 	beql	s2,a1,18168 <SRAM_FS_DATA_ADDR+0x168>
    3030:	4750555f 	c1	0x150555f
    3034:	45444152 	0x45444152
    3038:	0c029700 	jal	a5c00 <AP_BANK_SPACE+0x65c00>
    303c:	55534552 	bnel	t2,s3,14588 <SRAM_IRQ_PRINT_BUFFER_ADDR+0x4b8>
    3040:	4d5f544c 	0x4d5f544c
    3044:	5f4e4941 	0x5f4e4941
    3048:	00505041 	0x505041
    304c:	520c0298 	beql	s0,t4,3ab0 <SROM_STUB_ADDR+0x1b0>
    3050:	4c555345 	0x4c555345
    3054:	4e455f54 	c3	0x455f54
    3058:	5f524554 	0x5f524554
    305c:	52414c41 	beql	s2,at,16164 <SRAM_BT_EXT5_BANK_ADDR+0x1b64>
    3060:	0299004d 	break	0x299,0x1
    3064:	5345520c 	beql	k0,a1,17898 <SRAM_CARD_UD_RCODE_ADDR+0x498>
    3068:	5f544c55 	0x5f544c55
    306c:	52414c41 	beql	s2,at,16174 <SRAM_BT_EXT5_BANK_ADDR+0x1b74>
    3070:	4e535f4d 	c3	0x535f4d
    3074:	455a4f4f 	0x455a4f4f
    3078:	0c029a00 	jal	a6800 <AP_BANK_SPACE+0x66800>
    307c:	55534552 	bnel	t2,s3,145c8 <SRAM_IRQ_PRINT_BUFFER_ADDR+0x4f8>
    3080:	415f544c 	0x415f544c
    3084:	4d52414c 	0x4d52414c
    3088:	4f4c435f 	c3	0x14c435f
    308c:	9b004553 	lwr	zero,17747(t8)
    3090:	45520c02 	0x45520c02
    3094:	544c5553 	bnel	v0,t4,185e4 <SRAM_FS_BUF_ADDR+0x2e4>
    3098:	414c415f 	0x414c415f
    309c:	525f4d52 	beql	s2,ra,165e8 <SRAM_BT_UART_BUF_ADDR+0x1e8>
    30a0:	5f474e49 	0x5f474e49
    30a4:	444c4f46 	0x444c4f46
    30a8:	535f5245 	beql	k0,ra,179c0 <SRAM_CARD_UD_RCODE_ADDR+0x5c0>
    30ac:	004e4143 	0x4e4143
    30b0:	520c029c 	beql	s0,t4,3b24 <SROM_STUB_ADDR_MDY+0x24>
    30b4:	4c555345 	0x4c555345
    30b8:	55415f54 	bnel	t2,at,1ae0c <SRAM_OS_HEAP_ADDR+0x18c>
    30bc:	535f4f54 	beql	k0,ra,16e10 <SRAM_BTCALL_ASQT_BUF_ADDR+0x210>
    30c0:	43524145 	c0	0x1524145
    30c4:	029d0048 	0x29d0048
    30c8:	5345520c 	beql	k0,a1,178fc <SRAM_CARD_UD_RCODE_ADDR+0x4fc>
    30cc:	5f544c55 	0x5f544c55
    30d0:	554e414d 	bnel	t2,t6,13608 <SRAM_BT_BACK_RCODE_ADDR+0x2608>
    30d4:	535f4c41 	beql	k0,ra,161dc <SRAM_BT_EXT5_BANK_ADDR+0x1bdc>
    30d8:	43524145 	c0	0x1524145
    30dc:	50555f48 	beql	v0,s5,1ae00 <SRAM_OS_HEAP_ADDR+0x180>
    30e0:	0c029e00 	jal	a7800 <AP_BANK_SPACE+0x67800>
    30e4:	55534552 	bnel	t2,s3,14630 <SRAM_BT_EXT5_BANK_ADDR+0x30>
    30e8:	4d5f544c 	0x4d5f544c
    30ec:	41554e41 	0x41554e41
    30f0:	45535f4c 	0x45535f4c
    30f4:	48435241 	0x48435241
    30f8:	574f445f 	bnel	k0,t7,14278 <SRAM_IRQ_PRINT_BUFFER_ADDR+0x1a8>
    30fc:	029f004e 	0x29f004e
    3100:	5345520c 	beql	k0,a1,17934 <SRAM_CARD_UD_RCODE_ADDR+0x534>
    3104:	5f544c55 	0x5f544c55
    3108:	504f5453 	beql	v0,t7,18258 <SRAM_FS_DATA_ADDR+0x258>
    310c:	4145535f 	0x4145535f
    3110:	00484352 	0x484352
    3114:	520c02a0 	beql	s0,t4,3b98 <SROM_STUB_ADDR_MDY+0x98>
    3118:	4c555345 	0x4c555345
    311c:	4f435f54 	c3	0x1435f54
    3120:	4749464e 	c1	0x149464e
    3124:	4148435f 	0x4148435f
    3128:	00454752 	0x454752
    312c:	520c02a1 	beql	s0,t4,3bb4 <SROM_STUB_ADDR_MDY+0xb4>
    3130:	4c555345 	0x4c555345
    3134:	4f435f54 	c3	0x1435f54
    3138:	4749464e 	c1	0x149464e
    313c:	4148435f 	0x4148435f
    3140:	5f454752 	0x5f454752
    3144:	54495551 	bnel	v0,t1,1868c <SRAM_FS_BUF_ADDR+0x38c>
    3148:	0c02a200 	jal	a8800 <AP_BANK_SPACE+0x68800>
    314c:	55534552 	bnel	t2,s3,14698 <SRAM_BT_EXT5_BANK_ADDR+0x98>
    3150:	455f544c 	0x455f544c
    3154:	5245544e 	beql	s2,a1,18290 <SRAM_FS_DATA_ADDR+0x290>
    3158:	5153415f 	beql	t2,s3,136d8 <SRAM_BT_BACK_RCODE_ADDR+0x26d8>
    315c:	46485f54 	c1	0x485f54
    3160:	5345545f 	beql	k0,a1,182e0 <SRAM_FS_DATA_ADDR+0x2e0>
    3164:	02a30054 	0x2a30054
    3168:	5345520c 	beql	k0,a1,1799c <SRAM_CARD_UD_RCODE_ADDR+0x59c>
    316c:	5f544c55 	0x5f544c55
    3170:	45544e45 	0x45544e45
    3174:	53555f52 	beql	k0,s5,1aec0 <SRAM_OS_HEAP_ADDR+0x240>
    3178:	00315245 	0x315245
    317c:	520c02a4 	beql	s0,t4,3c10 <SROM_STUB_ADDR_MDY+0x110>
    3180:	4c555345 	0x4c555345
    3184:	59535f54 	0x59535f54
    3188:	4d455453 	0x4d455453
    318c:	544e455f 	bnel	v0,t6,1470c <SRAM_BT_EXT5_BANK_ADDR+0x10c>
    3190:	535f5245 	beql	k0,ra,17aa8 <SRAM_CARD_UD_RCODE_ADDR+0x6a8>
    3194:	02a50033 	tltu	s5,a1
    3198:	5345520c 	beql	k0,a1,179cc <SRAM_CARD_UD_RCODE_ADDR+0x5cc>
    319c:	5f544c55 	0x5f544c55
    31a0:	54535953 	bnel	v0,s3,196f0 <SRAM_AP_BACK_DATA_ADDR+0x170>
    31a4:	455f4d45 	0x455f4d45
    31a8:	5f544958 	0x5f544958
    31ac:	a6003353 	sh	zero,13139(s0)
    31b0:	45520c02 	0x45520c02
    31b4:	544c5553 	bnel	v0,t4,18704 <SRAM_FS_BUF_ADDR+0x404>
    31b8:	544e455f 	bnel	v0,t6,14738 <SRAM_BT_EXT5_BANK_ADDR+0x138>
    31bc:	535f5245 	beql	k0,ra,17ad4 <SRAM_CARD_UD_RCODE_ADDR+0x6d4>
    31c0:	5f425554 	0x5f425554
    31c4:	55424544 	bnel	t2,v0,146d8 <SRAM_BT_EXT5_BANK_ADDR+0xd8>
    31c8:	02a70047 	0x2a70047
    31cc:	5345520c 	beql	k0,a1,17a00 <SRAM_CARD_UD_RCODE_ADDR+0x600>
    31d0:	5f544c55 	0x5f544c55
    31d4:	5f445345 	0x5f445345
    31d8:	54534552 	bnel	v0,s3,14724 <SRAM_BT_EXT5_BANK_ADDR+0x124>
    31dc:	00545241 	0x545241
    31e0:	520c02a8 	beql	s0,t4,3c84 <SROM_STUB_ADDR_MDY+0x184>
    31e4:	4c555345 	0x4c555345
    31e8:	44495f54 	0x44495f54
    31ec:	4d5f454c 	0x4d5f454c
    31f0:	0045444f 	0x45444f
    31f4:	520c02a9 	beql	s0,t4,3c9c <SROM_STUB_ADDR_MDY+0x19c>
    31f8:	4c555345 	0x4c555345
    31fc:	4e455f54 	c3	0x455f54
    3200:	5f524554 	0x5f524554
    3204:	5f41544f 	0x5f41544f
    3208:	474e4f53 	c1	0x14e4f53
    320c:	5345545f 	beql	k0,a1,1838c <SRAM_FS_BUF_ADDR+0x8c>
    3210:	02aa0054 	0x2aa0054
    3214:	5345520c 	beql	k0,a1,17a48 <SRAM_CARD_UD_RCODE_ADDR+0x648>
    3218:	5f544c55 	0x5f544c55
    321c:	59414c50 	0x59414c50
    3220:	4444535f 	0x4444535f
    3224:	4449465f 	0x4449465f
    3228:	ab003631 	swl	zero,13873(t8)
    322c:	45520c02 	0x45520c02
    3230:	544c5553 	bnel	v0,t4,18780 <SRAM_FS_BUF_ADDR+0x480>
    3234:	414c505f 	0x414c505f
    3238:	44535f59 	0x44535f59
    323c:	49465f44 	0x49465f44
    3240:	00373144 	0x373144
    3244:	520c02ac 	beql	s0,t4,3cf8 <SROM_STUB_ADDR_MDY+0x1f8>
    3248:	4c555345 	0x4c555345
    324c:	4c505f54 	0x4c505f54
    3250:	535f5941 	beql	k0,ra,19758 <SRAM_AP_BACK_DATA_ADDR+0x1d8>
    3254:	465f4444 	c1	0x5f4444
    3258:	38314449 	xori	s1,at,0x4449
    325c:	0c02ad00 	jal	ab400 <AP_BANK_SPACE+0x6b400>
    3260:	55534552 	bnel	t2,s3,147ac <SRAM_BT_EXT5_BANK_ADDR+0x1ac>
    3264:	505f544c 	beql	v0,ra,18398 <SRAM_FS_BUF_ADDR+0x98>
    3268:	5f59414c 	0x5f59414c
    326c:	5f444453 	0x5f444453
    3270:	31444946 	andi	a0,t2,0x4946
    3274:	02ae0039 	0x2ae0039
    3278:	5345520c 	beql	k0,a1,17aac <SRAM_CARD_UD_RCODE_ADDR+0x6ac>
    327c:	5f544c55 	0x5f544c55
    3280:	59414c50 	0x59414c50
    3284:	4444535f 	0x4444535f
    3288:	4449465f 	0x4449465f
    328c:	af003032 	sw	zero,12338(t8)
    3290:	45520c02 	0x45520c02
    3294:	544c5553 	bnel	v0,t4,187e4 <SRAM_FS_BUF_ADDR+0x4e4>
    3298:	414c505f 	0x414c505f
    329c:	44535f59 	0x44535f59
    32a0:	49465f44 	0x49465f44
    32a4:	00313244 	0x313244
    32a8:	520c02b0 	beql	s0,t4,3d6c <SROM_STUB_ADDR_MDY+0x26c>
    32ac:	4c555345 	0x4c555345
    32b0:	4c505f54 	0x4c505f54
    32b4:	535f5941 	beql	k0,ra,197bc <SRAM_FM_DRV_RDATA_ADDR+0x3c>
    32b8:	465f4444 	c1	0x5f4444
    32bc:	32324449 	andi	s2,s1,0x4449
    32c0:	0c02b100 	jal	ac400 <AP_BANK_SPACE+0x6c400>
    32c4:	55534552 	bnel	t2,s3,14810 <SRAM_BT_EXT5_BANK_ADDR+0x210>
    32c8:	505f544c 	beql	v0,ra,183fc <SRAM_FS_BUF_ADDR+0xfc>
    32cc:	5f59414c 	0x5f59414c
    32d0:	5f444453 	0x5f444453
    32d4:	32444946 	andi	a0,s2,0x4946
    32d8:	02b20033 	tltu	s5,s2
    32dc:	5345520c 	beql	k0,a1,17b10 <SRAM_CARD_UD_RCODE_ADDR+0x710>
    32e0:	5f544c55 	0x5f544c55
    32e4:	59414c50 	0x59414c50
    32e8:	4444535f 	0x4444535f
    32ec:	4449465f 	0x4449465f
    32f0:	b3003432 	0xb3003432
    32f4:	45520c02 	0x45520c02
    32f8:	544c5553 	bnel	v0,t4,18848 <SRAM_FS_BUF_ADDR+0x548>
    32fc:	414c505f 	0x414c505f
    3300:	44535f59 	0x44535f59
    3304:	49465f44 	0x49465f44
    3308:	00353244 	0x353244
    330c:	520c02b4 	beql	s0,t4,3de0 <SROM_STUB_ADDR_MDY+0x2e0>
    3310:	4c555345 	0x4c555345
    3314:	4e455f54 	c3	0x455f54
    3318:	5f524554 	0x5f524554
    331c:	445f5442 	0x445f5442
    3320:	b5005042 	0xb5005042
    3324:	45520c02 	0x45520c02
    3328:	544c5553 	bnel	v0,t4,18878 <SRAM_FS_BUF_ADDR+0x578>
    332c:	4149445f 	0x4149445f
    3330:	5f474f4c 	0x5f474f4c
    3334:	80004b4f 	lb	zero,19279(zero)
    3338:	45520c04 	0x45520c04
    333c:	544c5553 	bnel	v0,t4,1888c <SRAM_FS_BUF_ADDR+0x58c>
    3340:	4149445f 	0x4149445f
    3344:	5f474f4c 	0x5f474f4c
    3348:	434e4143 	c0	0x14e4143
    334c:	81004c45 	lb	zero,19525(t0)
    3350:	45520c04 	0x45520c04
    3354:	544c5553 	bnel	v0,t4,188a4 <SRAM_FS_BUF_ADDR+0x5a4>
    3358:	4149445f 	0x4149445f
    335c:	5f474f4c 	0x5f474f4c
    3360:	524f4241 	beql	s2,t7,13c68 <SRAM_BT_EXT3_BANK_ADDR+0x368>
    3364:	04820054 	bltzl	a0,34b8 <SRAM_BT_HEAD_SIZE+0xb8>
    3368:	5345520c 	beql	k0,a1,17b9c <SRAM_CARD_UD_RCODE_ADDR+0x79c>
    336c:	5f544c55 	0x5f544c55
    3370:	4c414944 	0x4c414944
    3374:	525f474f 	beql	s2,ra,150b4 <SRAM_BT_EXT5_BANK_ADDR+0xab4>
    3378:	59525445 	0x59525445
    337c:	0c048300 	jal	120c00 <AP_BANK_SPACE+0xe0c00>
    3380:	55534552 	bnel	t2,s3,148cc <SRAM_BT_EXT5_BANK_ADDR+0x2cc>
    3384:	445f544c 	0x445f544c
    3388:	4f4c4149 	c3	0x14c4149
    338c:	47495f47 	c1	0x1495f47
    3390:	45524f4e 	0x45524f4e
    3394:	0c048400 	jal	121000 <AP_BANK_SPACE+0xe1000>
    3398:	55534552 	bnel	t2,s3,148e4 <SRAM_BT_EXT5_BANK_ADDR+0x2e4>
    339c:	445f544c 	0x445f544c
    33a0:	4f4c4149 	c3	0x14c4149
    33a4:	45595f47 	0x45595f47
    33a8:	04850053 	0x4850053
    33ac:	5345520c 	beql	k0,a1,17be0 <SRAM_CARD_UD_RCODE_ADDR+0x7e0>
    33b0:	5f544c55 	0x5f544c55
    33b4:	4c414944 	0x4c414944
    33b8:	4e5f474f 	c3	0x5f474f
    33bc:	0486004f 	0x486004f
    33c0:	5345520c 	beql	k0,a1,17bf4 <SRAM_CARD_UD_RCODE_ADDR+0x7f4>
    33c4:	5f544c55 	0x5f544c55
    33c8:	4c414944 	0x4c414944
    33cc:	435f474f 	c0	0x15f474f
    33d0:	45434e41 	0x45434e41
    33d4:	55415f4c 	bnel	t2,at,1b108 <SRAM_OS_HEAP_ADDR+0x488>
    33d8:	87004f54 	lh	zero,20308(t8)
    33dc:	45520c04 	0x45520c04
    33e0:	544c5553 	bnel	v0,t4,18930 <SRAM_FS_BUF_ADDR+0x630>
    33e4:	4149445f 	0x4149445f
    33e8:	5f474f4c 	0x5f474f4c
    33ec:	5f425355 	0x5f425355
    33f0:	4e554f53 	c3	0x554f53
    33f4:	04880044 	tgei	a0,68
    33f8:	5345520c 	beql	k0,a1,17c2c <SRAM_CARD_UD_RCODE_ADDR+0x82c>
    33fc:	5f544c55 	0x5f544c55
    3400:	4c414944 	0x4c414944
    3404:	4f5f474f 	c3	0x15f474f
    3408:	5f594c4e 	0x5f594c4e
    340c:	52414843 	beql	s2,at,1551c <SRAM_BT_EXT5_BANK_ADDR+0xf1c>
    3410:	89004547 	lwl	zero,17735(t0)
    3414:	45520c04 	0x45520c04
    3418:	544c5553 	bnel	v0,t4,18968 <SRAM_FS_BUF_ADDR+0x668>
    341c:	4449485f 	0x4449485f
    3420:	4e45535f 	c3	0x45535f
    3424:	454b5f44 	0x454b5f44
    3428:	56455f59 	bnel	s2,a1,1b190 <SRAM_OS_HEAP_ADDR+0x510>
    342c:	00544e45 	0x544e45
    3430:	0d00048a 	jal	4001228 <AP_BANK_SPACE+0x3fc1228>
    3434:	5f707061 	0x5f707061
    3438:	75736572 	jalx	5cd95c8 <AP_BANK_SPACE+0x5c995c8>
    343c:	655f746c 	0x655f746c
    3440:	01800200 	0x1800200
    3444:	00000467 	0x467
    3448:	000c020e 	0xc020e
    344c:	55030400 	bnel	t0,v1,4450 <SRAM_AP_BANK_BACK_AL_1_SIZE+0x450>
    3450:	61640f02 	0x61640f02
    3454:	03006174 	teq	t8,zero,0x185
    3458:	023d0252 	0x23d0252
    345c:	610f0000 	0x610f0000
    3460:	00726464 	0x726464
    3464:	96025403 	lhu	v0,21507(s0)
    3468:	00000001 	movf	zero,zero,$fcc0
    346c:	000c2f10 	0xc2f10
    3470:	56030800 	bnel	s0,v1,5474 <SRAM_AP_BANK_BACK_AL_1_SIZE+0x1474>
    3474:	79741102 	0x79741102
    3478:	03006570 	tge	t8,zero,0x195
    347c:	0156024e 	0x156024e
    3480:	23020000 	addi	v0,t8,0
    3484:	6f631100 	0x6f631100
    3488:	6e65746e 	0x6e65746e
    348c:	55030074 	bnel	t0,v1,3660 <SRAM_BT_HEAD_SIZE+0x260>
    3490:	000bde02 	srl	k1,t3,0x18
    3494:	04230200 	bgezl	at,3c98 <SROM_STUB_ADDR_MDY+0x198>
    3498:	736d0d00 	0x736d0d00
    349c:	70615f67 	0x70615f67
    34a0:	745f7370 	jalx	17dcdc0 <AP_BANK_SPACE+0x179cdc0>
    34a4:	02560300 	0x2560300
    34a8:	00000c02 	srl	at,zero,0x10
    34ac:	000c8210 	0xc8210
    34b0:	6f030800 	0x6f030800
    34b4:	79741102 	0x79741102
    34b8:	03006570 	tge	t8,zero,0x195
    34bc:	0149026b 	0x149026b
    34c0:	23020000 	addi	v0,t8,0
    34c4:	65721100 	0x65721100
    34c8:	76726573 	jalx	9c995cc <AP_BANK_SPACE+0x9c595cc>
    34cc:	6c030065 	0x6c030065
    34d0:	00024d02 	srl	t1,v0,0x14
    34d4:	01230200 	0x1230200
    34d8:	6e6f6311 	0x6e6f6311
    34dc:	746e6574 	jalx	1b995d0 <AP_BANK_SPACE+0x1b595d0>
    34e0:	026e0300 	0x26e0300
    34e4:	00000196 	0x196
    34e8:	00042302 	srl	a0,a0,0xc
    34ec:	67736d0d 	0x67736d0d
    34f0:	7065725f 	udi15	v1,a1,t6,0x9
    34f4:	745f796c 	jalx	17de5b0 <AP_BANK_SPACE+0x179e5b0>
    34f8:	026f0300 	0x26f0300
    34fc:	00000c42 	srl	at,zero,0x11
    3500:	000ccf10 	0xccf10
    3504:	7c031000 	0x7c031000
    3508:	736d1102 	0x736d1102
    350c:	77030067 	jalx	c0c019c <AP_BANK_SPACE+0xc08019c>
    3510:	000c2f02 	srl	a1,t4,0x1c
    3514:	00230200 	0x230200
    3518:	6d657311 	0x6d657311
    351c:	02790300 	0x2790300
    3520:	00000237 	0x237
    3524:	11082302 	beq	t0,t0,c130 <SROM_FS_ADDR+0x130>
    3528:	6c706572 	0x6c706572
    352c:	7b030079 	0x7b030079
    3530:	000ccf02 	srl	t9,t4,0x1c
    3534:	0c230200 	jal	8c0800 <AP_BANK_SPACE+0x880800>
    3538:	82040a00 	lb	a0,2560(s0)
    353c:	0d00000c 	jal	4000030 <AP_BANK_SPACE+0x3fc0030>
    3540:	76697270 	jalx	9a5c9c0 <AP_BANK_SPACE+0x9a1c9c0>
    3544:	5f657461 	0x5f657461
    3548:	5f67736d 	0x5f67736d
    354c:	7c030074 	0x7c030074
    3550:	000c9602 	srl	s2,t4,0x18
    3554:	d5040a00 	ldc1	$f4,2560(t0)
    3558:	1000000c 	b	358c <SRAM_BT_HEAD_SIZE+0x18c>
    355c:	00000f9a 	0xf9a
    3560:	0132071c 	0x132071c
    3564:	676e6511 	0x676e6511
    3568:	5f656e69 	0x5f656e69
    356c:	65707974 	0x65707974
    3570:	01070700 	0x1070700
    3574:	00000149 	0x149
    3578:	11002302 	beqz	t0,c184 <SROM_FS_ADDR+0x184>
    357c:	69676e65 	0x69676e65
    3580:	735f656e 	0x735f656e
    3584:	65746174 	0x65746174
    3588:	01090700 	0x1090700
    358c:	00000149 	0x149
    3590:	11012302 	beq	t0,at,c19c <SROM_FS_ADDR+0x19c>
    3594:	5f707061 	0x5f707061
    3598:	74617473 	jalx	185d1cc <AP_BANK_SPACE+0x181d1cc>
    359c:	0b070065 	j	c1c0194 <AP_BANK_SPACE+0xc180194>
    35a0:	00014901 	0x14901
    35a4:	02230200 	0x2230200
    35a8:	5f697511 	0x5f697511
    35ac:	74617473 	jalx	185d1cc <AP_BANK_SPACE+0x181d1cc>
    35b0:	07007375 	bltz	t8,20388 <SRAM_AP_BANK_FRONT_CONTROL_ADDR+0x188>
    35b4:	0149010d 	break	0x149,0x4
    35b8:	23020000 	addi	v0,t8,0
    35bc:	5f671103 	0x5f671103
    35c0:	735f6f6e 	0x735f6f6e
    35c4:	6f707075 	0x6f707075
    35c8:	745f7472 	jalx	17dd1c8 <AP_BANK_SPACE+0x179d1c8>
    35cc:	665f7374 	0x665f7374
    35d0:	0067616c 	0x67616c
    35d4:	49011207 	bc2t	7df4 <SRAM_AP_BACK_AL_RCODE_1_SIZE+0xdf4>
    35d8:	02000001 	movf	zero,s0,$fcc0
    35dc:	67110423 	0x67110423
    35e0:	6e65735f 	0x6e65735f
    35e4:	78655f64 	0x78655f64
    35e8:	6d5f7469 	0x6d5f7469
    35ec:	745f6d6d 	jalx	17db5b4 <AP_BANK_SPACE+0x179b5b4>
    35f0:	07007374 	bltz	t8,203c4 <SRAM_AP_BANK_FRONT_CONTROL_ADDR+0x1c4>
    35f4:	01490113 	0x1490113
    35f8:	23020000 	addi	v0,t8,0
    35fc:	6f701205 	0x6f701205
    3600:	5f726577 	0x5f726577
    3604:	665f6e6f 	0x665f6e6f
    3608:	0067616c 	0x67616c
    360c:	49011407 	bc2t	862c <SRAM_OS_RCODE_ADDR+0x62c>
    3610:	01000001 	movf	zero,t0,$fcc0
    3614:	23020404 	addi	v0,t8,1028
    3618:	74731206 	jalx	1cc4818 <AP_BANK_SPACE+0x1c84818>
    361c:	6d5f6275 	0x6d5f6275
    3620:	5f65646f 	0x5f65646f
    3624:	67616c66 	0x67616c66
    3628:	01150700 	0x1150700
    362c:	00000149 	0x149
    3630:	02000401 	0x2000401
    3634:	73110623 	0x73110623
    3638:	646e756f 	0x646e756f
    363c:	6174735f 	0x6174735f
    3640:	07006574 	bltz	t8,1cc14 <SRAM_OS_TASK_STACK_ADDR+0x1614>
    3644:	01490118 	0x1490118
    3648:	23020000 	addi	v0,t8,0
    364c:	69661107 	0x69661107
    3650:	61735f78 	0x61735f78
    3654:	656c706d 	0x656c706d
    3658:	7461725f 	jalx	185c97c <AP_BANK_SPACE+0x181c97c>
    365c:	6c665f65 	0x6c665f65
    3660:	07006761 	bltz	t8,1d3e8 <SRAM_OS_TASK_STACK_ADDR+0x1de8>
    3664:	0149011a 	0x149011a
    3668:	23020000 	addi	v0,t8,0
    366c:	61621108 	0x61621108
    3670:	72657474 	0x72657474
    3674:	65725f79 	0x65725f79
    3678:	74726f70 	jalx	1c9bdc0 <AP_BANK_SPACE+0x1c5bdc0>
    367c:	616e655f 	0x616e655f
    3680:	00656c62 	0x656c62
    3684:	49011d07 	bc2t	aaa4 <SRAM_BT_EXT1_BANK_ADDR+0x2a4>
    3688:	02000001 	movf	zero,s0,$fcc0
    368c:	65110923 	0x65110923
    3690:	6772656e 	0x6772656e
    3694:	76615f79 	jalx	9857de4 <AP_BANK_SPACE+0x9817de4>
    3698:	616c6961 	0x616c6961
    369c:	5f656c62 	0x5f656c62
    36a0:	67616c66 	0x67616c66
    36a4:	01200700 	0x1200700
    36a8:	000000a9 	0xa9
    36ac:	110a2302 	beq	t0,t2,c2b8 <SROM_FS_ADDR+0x2b8>
    36b0:	6e655f70 	0x6e655f70
    36b4:	79677265 	0x79677265
    36b8:	6c61765f 	0x6c61765f
    36bc:	07006575 	bltz	t8,1cc94 <SRAM_OS_TASK_STACK_ADDR+0x1694>
    36c0:	0f9a0121 	jal	e680484 <AP_BANK_SPACE+0xe640484>
    36c4:	23020000 	addi	v0,t8,0
    36c8:	5f70110c 	0x5f70110c
    36cc:	72656e65 	0x72656e65
    36d0:	765f7967 	jalx	97de59c <AP_BANK_SPACE+0x979e59c>
    36d4:	65756c61 	0x65756c61
    36d8:	6e61625f 	0x6e61625f
    36dc:	07007364 	bltz	t8,20470 <SRAM_AP_BANK_FRONT_CONTROL_ADDR+0x270>
    36e0:	0f9a0124 	jal	e680490 <AP_BANK_SPACE+0xe640490>
    36e4:	23020000 	addi	v0,t8,0
    36e8:	5f701110 	0x5f701110
    36ec:	72656e65 	0x72656e65
    36f0:	765f7967 	jalx	97de59c <AP_BANK_SPACE+0x979e59c>
    36f4:	65756c61 	0x65756c61
    36f8:	6572665f 	0x6572665f
    36fc:	07007371 	bltz	t8,204c4 <SRAM_AP_BANK_FRONT_CONTROL_ADDR+0x2c4>
    3700:	0f9a0125 	jal	e680494 <AP_BANK_SPACE+0xe640494>
    3704:	23020000 	addi	v0,t8,0
    3708:	74731114 	jalx	1cc4450 <AP_BANK_SPACE+0x1c84450>
    370c:	705f6275 	0x705f6275
    3710:	6f745f63 	0x6f745f63
    3714:	5f736c6f 	0x5f736c6f
    3718:	65707974 	0x65707974
    371c:	01280700 	0x1280700
    3720:	00000149 	0x149
    3724:	13182302 	beq	t8,t8,c330 <SROM_FS_ADDR+0x330>
    3728:	00000094 	0x94
    372c:	49012907 	bc2t	db4c <SROM_FS_ADDR+0x1b4c>
    3730:	02000001 	movf	zero,s0,$fcc0
    3734:	62121923 	0x62121923
    3738:	6e5f6e69 	0x6e5f6e69
    373c:	65626d75 	0x65626d75
    3740:	2b070072 	slti	a3,t8,114
    3744:	00014901 	0x14901
    3748:	05030100 	bgezl	t0,3b4c <SROM_STUB_ADDR_MDY+0x4c>
    374c:	121a2302 	beq	s0,k0,c358 <SROM_FS_ADDR+0x358>
    3750:	65766177 	0x65766177
    3754:	61645f73 	0x61645f73
    3758:	61705f65 	0x61705f65
    375c:	755f6172 	jalx	57d85c8 <AP_BANK_SPACE+0x57985c8>
    3760:	74616470 	jalx	18591c0 <AP_BANK_SPACE+0x18191c0>
    3764:	6c665f65 	0x6c665f65
    3768:	07006761 	bltz	t8,1d4f0 <SRAM_OS_TASK_STACK_ADDR+0x1ef0>
    376c:	0149012c 	0x149012c
    3770:	01010000 	0x1010000
    3774:	1a230204 	0x1a230204
    3778:	6f777412 	0x6f777412
    377c:	6f68705f 	0x6f68705f
    3780:	6d5f656e 	0x6d5f656e
    3784:	0065646f 	0x65646f
    3788:	49012d07 	bc2t	eba8 <SRAM_ASRC_BUF_0_ADDR+0xba8>
    378c:	01000001 	movf	zero,t0,$fcc0
    3790:	23020301 	addi	v0,t8,769
    3794:	6f76121a 	0x6f76121a
    3798:	5f656369 	0x5f656369
    379c:	6f636572 	0x6f636572
    37a0:	696e676e 	0x696e676e
    37a4:	6d5f657a 	0x6d5f657a
    37a8:	0065646f 	0x65646f
    37ac:	49012e07 	bc2t	efcc <SRAM_ASRC_BUF_0_ADDR+0xfcc>
    37b0:	01000001 	movf	zero,t0,$fcc0
    37b4:	23020201 	addi	v0,t8,513
    37b8:	6f76121a 	0x6f76121a
    37bc:	5f656369 	0x5f656369
    37c0:	67636572 	0x67636572
    37c4:	657a696e 	0x657a696e
    37c8:	6f74735f 	0x6f74735f
    37cc:	6f6d5f70 	0x6f6d5f70
    37d0:	07006564 	bltz	t8,1cd64 <SRAM_OS_TASK_STACK_ADDR+0x1764>
    37d4:	0149012f 	0x149012f
    37d8:	01010000 	0x1010000
    37dc:	1a230201 	0x1a230201
    37e0:	616d7312 	0x616d7312
    37e4:	625f7472 	0x625f7472
    37e8:	745f6675 	jalx	17d99d4 <AP_BANK_SPACE+0x17999d4>
    37ec:	736e6172 	0x736e6172
    37f0:	616c665f 	0x616c665f
    37f4:	31070067 	andi	a3,t0,0x67
    37f8:	00014901 	0x14901
    37fc:	00010100 	sll	zero,at,0x4
    3800:	001a2302 	srl	a0,k0,0xc
    3804:	00db040a 	0xdb040a
    3808:	610d0000 	0x610d0000
    380c:	695f7070 	0x695f7070
    3810:	5f6f666e 	0x5f6f666e
    3814:	74617473 	jalx	185d1cc <AP_BANK_SPACE+0x181d1cc>
    3818:	6c615f65 	0x6c615f65
    381c:	00745f6c 	0x745f6c
    3820:	f1013207 	0xf1013207
    3824:	1000000c 	b	3858 <SRAM_BT_HEAD_SIZE+0x458>
    3828:	00001223 	0x1223
    382c:	016b0718 	0x16b0718
    3830:	74756d11 	jalx	1d5b444 <AP_BANK_SPACE+0x1d1b444>
    3834:	74735f65 	jalx	1cd7d94 <AP_BANK_SPACE+0x1c97d94>
    3838:	00657461 	0x657461
    383c:	a9013a07 	swl	at,14855(t0)
    3840:	02000000 	0x2000000
    3844:	70110023 	0x70110023
    3848:	6f6d5f61 	0x6f6d5f61
    384c:	07006564 	bltz	t8,1cde0 <SRAM_OS_TASK_STACK_ADDR+0x17e0>
    3850:	00a9013c 	0xa9013c
    3854:	23020000 	addi	v0,t8,0
    3858:	6f611101 	0x6f611101
    385c:	6d5f7475 	0x6d5f7475
    3860:	0065646f 	0x65646f
    3864:	49013e07 	bc2t	13084 <SRAM_BT_BACK_RCODE_ADDR+0x2084>
    3868:	02000001 	movf	zero,s0,$fcc0
    386c:	62110223 	0x62110223
    3870:	6c6b6361 	0x6c6b6361
    3874:	74686769 	jalx	1a19da4 <AP_BANK_SPACE+0x19d9da4>
    3878:	6174735f 	0x6174735f
    387c:	07006574 	bltz	t8,1ce50 <SRAM_OS_TASK_STACK_ADDR+0x1850>
    3880:	01490140 	0x1490140
    3884:	23020000 	addi	v0,t8,0
    3888:	61631103 	0x61631103
    388c:	735f6472 	0x735f6472
    3890:	65746174 	0x65746174
    3894:	01420700 	0x1420700
    3898:	00000149 	0x149
    389c:	11042302 	beq	t0,a0,c4a8 <SROM_FS_ADDR+0x4a8>
    38a0:	736f6875 	0x736f6875
    38a4:	74735f74 	jalx	1cd7dd0 <AP_BANK_SPACE+0x1c97dd0>
    38a8:	00657461 	0x657461
    38ac:	49014407 	bc2t	148cc <SRAM_BT_EXT5_BANK_ADDR+0x2cc>
    38b0:	02000001 	movf	zero,s0,$fcc0
    38b4:	6c110523 	0x6c110523
    38b8:	69656e69 	0x69656e69
    38bc:	74735f6e 	jalx	1cd7db8 <AP_BANK_SPACE+0x1c97db8>
    38c0:	00657461 	0x657461
    38c4:	49014607 	bc2t	150e4 <SRAM_BT_EXT5_BANK_ADDR+0xae4>
    38c8:	02000001 	movf	zero,s0,$fcc0
    38cc:	63110623 	0x63110623
    38d0:	656c6261 	0x656c6261
    38d4:	6174735f 	0x6174735f
    38d8:	07006574 	bltz	t8,1ceac <SRAM_OS_TASK_STACK_ADDR+0x18ac>
    38dc:	01490148 	0x1490148
    38e0:	23020000 	addi	v0,t8,0
    38e4:	70681107 	0x70681107
    38e8:	6174735f 	0x6174735f
    38ec:	07006574 	bltz	t8,1cec0 <SRAM_OS_TASK_STACK_ADDR+0x18c0>
    38f0:	00a9014a 	0xa9014a
    38f4:	23020000 	addi	v0,t8,0
    38f8:	68631108 	0x68631108
    38fc:	65677261 	0x65677261
    3900:	6174735f 	0x6174735f
    3904:	07006574 	bltz	t8,1ced8 <SRAM_OS_TASK_STACK_ADDR+0x18d8>
    3908:	0149014c 	syscall	0x52405
    390c:	23020000 	addi	v0,t8,0
    3910:	61621109 	0x61621109
    3914:	61765f74 	0x61765f74
    3918:	0065756c 	0x65756c
    391c:	49014e07 	bc2t	1713c <SRAM_BTCALL_ASQT_BUF_ADDR+0x53c>
    3920:	02000001 	movf	zero,s0,$fcc0
    3924:	72110a23 	0x72110a23
    3928:	5f676e69 	0x5f676e69
    392c:	72616c61 	0x72616c61
    3930:	5007006d 	beql	zero,a3,3ae8 <SROM_STUB_ADDR+0x1e8>
    3934:	0000a901 	0xa901
    3938:	0b230200 	j	c8c0800 <AP_BANK_SPACE+0xc880800>
    393c:	75747312 	jalx	5d1cc48 <AP_BANK_SPACE+0x5cdcc48>
    3940:	6f745f62 	0x6f745f62
    3944:	5f736c6f 	0x5f736c6f
    3948:	65707974 	0x65707974
    394c:	01520700 	0x1520700
    3950:	00000149 	0x149
    3954:	02010701 	0x2010701
    3958:	94140c23 	lhu	s4,3107(zero)
    395c:	07000000 	bltz	t8,3960 <SROM_STUB_ADDR+0x60>
    3960:	01490153 	0x1490153
    3964:	01010000 	0x1010000
    3968:	0c230200 	jal	8c0800 <AP_BANK_SPACE+0x880800>
    396c:	74756111 	jalx	1d58444 <AP_BANK_SPACE+0x1d18444>
    3970:	7365746f 	0x7365746f
    3974:	6f6d5f74 	0x6f6d5f74
    3978:	07006564 	bltz	t8,1cf0c <SRAM_OS_TASK_STACK_ADDR+0x190c>
    397c:	01490155 	0x1490155
    3980:	23020000 	addi	v0,t8,0
    3984:	6170110d 	0x6170110d
    3988:	5f686374 	0x5f686374
    398c:	6e776f64 	0x6e776f64
    3990:	64616f6c 	0x64616f6c
    3994:	616c665f 	0x616c665f
    3998:	58070067 	0x58070067
    399c:	0000a901 	0xa901
    39a0:	0e230200 	jal	88c0800 <AP_BANK_SPACE+0x8880800>
    39a4:	5f746211 	0x5f746211
    39a8:	65776f70 	0x65776f70
    39ac:	6e6f5f72 	0x6e6f5f72
    39b0:	015a0700 	0x15a0700
    39b4:	000000a9 	0xa9
    39b8:	110f2302 	beq	t0,t7,c5c4 <SROM_FS_ADDR+0x5c4>
    39bc:	656e6e69 	0x656e6e69
    39c0:	61705f72 	0x61705f72
    39c4:	696e695f 	0x696e695f
    39c8:	00646574 	teq	v1,a0,0x195
    39cc:	a9015c07 	swl	at,23559(t0)
    39d0:	02000000 	0x2000000
    39d4:	6f111023 	0x6f111023
    39d8:	72657475 	0x72657475
    39dc:	5f61705f 	0x5f61705f
    39e0:	07006e6f 	bltz	t8,1f3a0 <SRAM_BT_RCODE_DATA_ADDR+0x2a0>
    39e4:	00a9015e 	0xa9015e
    39e8:	23020000 	addi	v0,t8,0
    39ec:	75631111 	jalx	58c4444 <AP_BANK_SPACE+0x5884444>
    39f0:	75665f72 	jalx	5997dc8 <AP_BANK_SPACE+0x5957dc8>
    39f4:	695f636e 	0x695f636e
    39f8:	7865646e 	0x7865646e
    39fc:	01600700 	0x1600700
    3a00:	00000149 	0x149
    3a04:	11122302 	beq	t0,s2,c610 <SROM_FS_ADDR+0x610>
    3a08:	5f727563 	0x5f727563
    3a0c:	636e7566 	0x636e7566
    3a10:	0064695f 	0x64695f
    3a14:	49016207 	bc2t	1c234 <SRAM_OS_TASK_STACK_ADDR+0xc34>
    3a18:	02000001 	movf	zero,s0,$fcc0
    3a1c:	61111323 	0x61111323
    3a20:	735f6b70 	0x735f6b70
    3a24:	75746174 	jalx	5d185d0 <AP_BANK_SPACE+0x5cd85d0>
    3a28:	64070073 	0x64070073
    3a2c:	00014901 	0x14901
    3a30:	14230200 	bne	at,v1,4234 <SRAM_AP_BANK_BACK_AL_1_SIZE+0x234>
    3a34:	72657611 	udi1	s3,a1,t6,0x18
    3a38:	63696669 	0x63696669
    3a3c:	6f697461 	0x6f697461
    3a40:	74735f6e 	jalx	1cd7db8 <AP_BANK_SPACE+0x1c97db8>
    3a44:	73757461 	0x73757461
    3a48:	01660700 	0x1660700
    3a4c:	00000149 	0x149
    3a50:	11152302 	beq	t0,s5,c65c <SROM_FS_ADDR+0x65c>
    3a54:	6465656e 	0x6465656e
    3a58:	6470755f 	0x6470755f
    3a5c:	5f657461 	0x5f657461
    3a60:	79616c70 	0x79616c70
    3a64:	7473696c 	jalx	1cda5b0 <AP_BANK_SPACE+0x1c9a5b0>
    3a68:	01680700 	0x1680700
    3a6c:	00000149 	0x149
    3a70:	11162302 	beq	t0,s6,c67c <SROM_FS_ADDR+0x67c>
    3a74:	65747865 	0x65747865
    3a78:	625f6e72 	0x625f6e72
    3a7c:	695f7461 	0x695f7461
    3a80:	6a07006e 	0x6a07006e
    3a84:	00014901 	0x14901
    3a88:	17230200 	bne	t9,v1,428c <SRAM_AP_BANK_BACK_AL_1_SIZE+0x28c>
    3a8c:	70610d00 	0x70610d00
    3a90:	6e695f70 	0x6e695f70
    3a94:	735f6f66 	0x735f6f66
    3a98:	65746174 	0x65746174
    3a9c:	0700745f 	bltz	t8,20c1c <SRAM_KERNEL_XSYS_ADDR+0x21c>
    3aa0:	0fbd016b 	jal	ef405ac <AP_BANK_SPACE+0xef005ac>
    3aa4:	ab100000 	swl	s0,0(t8)
    3aa8:	04000012 	bltz	zero,3af4 <SROM_STUB_ADDR+0x1f4>
    3aac:	11017a07 	beq	t0,at,222cc <SRAM_AP_BANK_BACK_BASAL_ADDR+0x4cc>
    3ab0:	7473616c 	jalx	1cd85b0 <AP_BANK_SPACE+0x1c985b0>
    3ab4:	7369645f 	udi15	k1,t1,t4,0x11
    3ab8:	7307006b 	0x7307006b
    3abc:	00014901 	0x14901
    3ac0:	00230200 	0x230200
    3ac4:	73616c11 	udi1	k1,at,t5,0x10
    3ac8:	75665f74 	jalx	5997dd0 <AP_BANK_SPACE+0x5957dd0>
    3acc:	695f636e 	0x695f636e
    3ad0:	7865646e 	0x7865646e
    3ad4:	01750700 	0x1750700
    3ad8:	00000149 	0x149
    3adc:	11012302 	beq	t0,at,c6e8 <SROM_FS_ADDR+0x6e8>
    3ae0:	7473616c 	jalx	1cd85b0 <AP_BANK_SPACE+0x1c985b0>
    3ae4:	7379735f 	udi15	k1,t9,t6,0xd
    3ae8:	6174735f 	0x6174735f
    3aec:	00737574 	teq	v1,s3,0x1d5
    3af0:	49017707 	bc2t	21710 <SRAM_KERNEL_XSYS_ADDR+0xd10>
    3af4:	02000001 	movf	zero,s0,$fcc0
    3af8:	6c110223 	0x6c110223
    3afc:	5f747361 	0x5f747361
    3b00:	735f6975 	0x735f6975
    3b04:	75746174 	jalx	5d185d0 <AP_BANK_SPACE+0x5cd85d0>
    3b08:	79070073 	0x79070073
    3b0c:	00014901 	0x14901
    3b10:	03230200 	0x3230200
    3b14:	70610d00 	0x70610d00
    3b18:	616c5f70 	0x616c5f70
    3b1c:	735f7473 	0x735f7473
    3b20:	65746174 	0x65746174
    3b24:	0700745f 	bltz	t8,20ca4 <SRAM_KERNEL_XSYS_ADDR+0x2a4>
    3b28:	123c017a 	beq	s1,gp,4114 <SRAM_AP_BANK_BACK_AL_1_SIZE+0x114>
    3b2c:	37150000 	ori	s5,t8,0x0
    3b30:	01000013 	mtlo	t0
    3b34:	6e656d66 	0x6e656d66
    3b38:	656e6967 	0x656e6967
    3b3c:	7465675f 	jalx	1959d7c <AP_BANK_SPACE+0x1919d7c>
    3b40:	6565735f 	0x6565735f
    3b44:	616c666b 	0x616c666b
    3b48:	05010067 	bgez	t0,3ce8 <SROM_STUB_ADDR_MDY+0x1e8>
    3b4c:	000bc901 	0xbc901
    3b50:	c2632100 	ll	v1,8448(s3)
    3b54:	c263c8bf 	ll	v1,-14145(s3)
    3b58:	166101bf 	bne	s3,at,4258 <SRAM_AP_BANK_BACK_AL_1_SIZE+0x258>
    3b5c:	5f727563 	0x5f727563
    3b60:	0067736d 	0x67736d
    3b64:	0ceb0401 	jal	3ac1004 <AP_BANK_SPACE+0x3a81004>
    3b68:	91020000 	lbu	v0,0(t0)
    3b6c:	008b1718 	0x8b1718
    3b70:	06010000 	bgez	s0,3b74 <SROM_STUB_ADDR_MDY+0x74>
    3b74:	00000ceb 	0xceb
    3b78:	18009102 	blez	zero,fffe7f84 <get_app_msg+0x403c1a54>
    3b7c:	75736572 	jalx	5cd95c8 <AP_BANK_SPACE+0x5c995c8>
    3b80:	0100746c 	0x100746c
    3b84:	00016407 	0x16407
    3b88:	04910200 	bgezal	a0,438c <SRAM_AP_BANK_BACK_AL_1_SIZE+0x38c>
    3b8c:	65766f18 	0x65766f18
    3b90:	6c665f72 	0x6c665f72
    3b94:	01006761 	0x1006761
    3b98:	00014908 	0x14908
    3b9c:	08910200 	j	2440800 <AP_BANK_SPACE+0x2400800>
    3ba0:	13921500 	beq	gp,s2,8fa4 <SRAM_SPINOR_RCODE_ADDR+0x3a4>
    3ba4:	66010000 	0x66010000
    3ba8:	676e656d 	0x676e656d
    3bac:	5f656e69 	0x5f656e69
    3bb0:	5f746567 	0x5f746567
    3bb4:	71657266 	0x71657266
    3bb8:	012c0100 	0x12c0100
    3bbc:	00000bc9 	0xbc9
    3bc0:	bfc263d5 	cache	0x2,25557(s8)
    3bc4:	bfc26428 	cache	0x2,25640(s8)
    3bc8:	63166101 	0x63166101
    3bcc:	6d5f7275 	0x6d5f7275
    3bd0:	01006773 	tltu	t0,zero,0x19d
    3bd4:	000ceb2b 	0xceb2b
    3bd8:	10910200 	beq	a0,s1,43dc <SRAM_AP_BANK_BACK_AL_1_SIZE+0x3dc>
    3bdc:	00008b17 	0x8b17
    3be0:	eb2d0100 	swc2	$13,256(t9)
    3be4:	0200000c 	syscall	0x80000
    3be8:	72180091 	udi1	s0,t8,zero,0x2
    3bec:	6c757365 	0x6c757365
    3bf0:	2e010074 	sltiu	at,s0,116
    3bf4:	00000164 	0x164
    3bf8:	00049102 	srl	s2,a0,0x4
    3bfc:	745f6719 	jalx	17d9c64 <AP_BANK_SPACE+0x1799c64>
    3c00:	5f736968 	0x5f736968
    3c04:	5f707061 	0x5f707061
    3c08:	656d6974 	0x656d6974
    3c0c:	61745f72 	0x61745f72
    3c10:	85060067 	lh	a2,103(t0)
    3c14:	00000149 	0x149
    3c18:	671a0101 	0x671a0101
    3c1c:	7070615f 	udi15	v1,s0,t4,0x5
    3c20:	666e695f 	0x666e695f
    3c24:	74735f6f 	jalx	1cd7dbc <AP_BANK_SPACE+0x1c97dbc>
    3c28:	5f657461 	0x5f657461
    3c2c:	006c6c61 	0x6c6c61
    3c30:	a0018e07 	sb	at,-29177(zero)
    3c34:	0100000f 	0x100000f
    3c38:	5f671a01 	0x5f671a01
    3c3c:	5f707061 	0x5f707061
    3c40:	7473616c 	jalx	1cd85b0 <AP_BANK_SPACE+0x1c985b0>
    3c44:	6174735f 	0x6174735f
    3c48:	07006574 	bltz	t8,1d21c <SRAM_OS_TASK_STACK_ADDR+0x1c1c>
    3c4c:	12ab0194 	beq	s5,t3,42a0 <SRAM_AP_BANK_BACK_AL_1_SIZE+0x2a0>
    3c50:	01010000 	0x1010000
    3c54:	615f671a 	0x615f671a
    3c58:	695f7070 	0x695f7070
    3c5c:	5f6f666e 	0x5f6f666e
    3c60:	74617473 	jalx	185d1cc <AP_BANK_SPACE+0x181d1cc>
    3c64:	9a070065 	lwr	a3,101(s0)
    3c68:	00122301 	0x122301
    3c6c:	19010100 	0x19010100
    3c70:	6d665f67 	0x6d665f67
    3c74:	69676e65 	0x69676e65
    3c78:	735f656e 	0x735f656e
    3c7c:	75746174 	jalx	5d185d0 <AP_BANK_SPACE+0x5cd85d0>
    3c80:	15090073 	bne	t0,t1,3e50 <SROM_STUB_ADDR_MDY+0x350>
    3c84:	00000450 	0x450
    3c88:	76000101 	jalx	8000404 <AP_BANK_SPACE+0x7fc0404>
    3c8c:	02000023 	subu	zero,s0,zero
    3c90:	00048400 	sll	s0,a0,0x10
    3c94:	0a010400 	j	8041000 <AP_BANK_SPACE+0x8001000>
    3c98:	10000004 	b	3cac <SROM_STUB_ADDR_MDY+0x1ac>
    3c9c:	00600e6b 	0x600e6b
    3ca0:	47600e68 	c1	0x1600e68
    3ca4:	4320554e 	c0	0x120554e
    3ca8:	342e3320 	ori	t6,at,0x3320
    3cac:	6d20342e 	0x6d20342e
    3cb0:	73737069 	0x73737069
    3cb4:	362d6564 	ori	t5,s1,0x6564
    3cb8:	2e36302e 	sltiu	s6,s1,12334
    3cbc:	322d3130 	andi	t5,s1,0x3130
    3cc0:	30373030 	andi	s7,at,0x3030
    3cc4:	00303234 	teq	at,s0,0xc8
    3cc8:	656d6601 	0x656d6601
    3ccc:	6e69676e 	0x6e69676e
    3cd0:	616d5f65 	0x616d5f65
    3cd4:	632e6e69 	0x632e6e69
    3cd8:	79632f00 	0x79632f00
    3cdc:	69726467 	0x69726467
    3ce0:	662f6576 	0x662f6576
    3ce4:	666f532f 	0x666f532f
    3ce8:	64735f74 	0x64735f74
    3cec:	54412f6b 	bnel	v0,at,fa9c <SRAM_COM_DAE_RCODE_ADDR+0x9c>
    3cf0:	32383253 	andi	t8,s1,0x3253
    3cf4:	44535f35 	0x44535f35
    3cf8:	34565f4b 	ori	s6,v0,0x5f4b
    3cfc:	632f322e 	0x632f322e
    3d00:	2f657361 	sltiu	a1,k1,29537
    3d04:	662f7061 	0x662f7061
    3d08:	6e655f6d 	0x6e655f6d
    3d0c:	656e6967 	0x656e6967
    3d10:	6e750200 	0x6e750200
    3d14:	6e676973 	0x6e676973
    3d18:	63206465 	0x63206465
    3d1c:	00726168 	0x726168
    3d20:	49030801 	bc2tl	5d28 <SRAM_AP_BANK_BACK_AL_1_SIZE+0x1d28>
    3d24:	5538544e 	bnel	t1,t8,18e60 <SRAM_CARD_UD_CACHE_ADDR+0x160>
    3d28:	860f0500 	lh	t7,1280(s0)
    3d2c:	02000000 	0x2000000
    3d30:	6e676973 	0x6e676973
    3d34:	63206465 	0x63206465
    3d38:	00726168 	0x726168
    3d3c:	73020601 	0x73020601
    3d40:	74726f68 	jalx	1c9bda0 <AP_BANK_SPACE+0x1c5bda0>
    3d44:	736e7520 	0x736e7520
    3d48:	656e6769 	0x656e6769
    3d4c:	6e692064 	0x6e692064
    3d50:	07020074 	bltzl	t8,3f24 <SROM_STUB_ADDR_MDY+0x424>
    3d54:	6f687302 	0x6f687302
    3d58:	69207472 	0x69207472
    3d5c:	0200746e 	0x200746e
    3d60:	00a20405 	0xa20405
    3d64:	07040000 	0x7040000
    3d68:	6e6f6c02 	0x6e6f6c02
    3d6c:	6e692067 	0x6e692067
    3d70:	05040074 	0x5040074
    3d74:	6f6c6602 	0x6f6c6602
    3d78:	04007461 	bltz	zero,20f00 <SRAM_KERNEL_XSYS_ADDR+0x500>
    3d7c:	6f640204 	0x6f640204
    3d80:	656c6275 	0x656c6275
    3d84:	02040800 	0x2040800
    3d88:	676e6f6c 	0x676e6f6c
    3d8c:	6e6f6c20 	0x6e6f6c20
    3d90:	6e752067 	0x6e752067
    3d94:	6e676973 	0x6e676973
    3d98:	69206465 	0x69206465
    3d9c:	0800746e 	j	1d1b8 <SRAM_OS_TASK_STACK_ADDR+0x1bb8>
    3da0:	6f6c0207 	0x6f6c0207
    3da4:	6c20676e 	0x6c20676e
    3da8:	20676e6f 	addi	a3,v1,28271
    3dac:	00746e69 	0x746e69
    3db0:	75020508 	jalx	4081420 <AP_BANK_SPACE+0x4041420>
    3db4:	6769736e 	0x6769736e
    3db8:	2064656e 	addi	a0,v1,25966
    3dbc:	00746e69 	0x746e69
    3dc0:	75030704 	jalx	40c1c10 <AP_BANK_SPACE+0x4081c10>
    3dc4:	38746e69 	xori	s4,v1,0x6e69
    3dc8:	86150400 	lh	s5,1024(s0)
    3dcc:	03000000 	0x3000000
    3dd0:	38746e69 	xori	s4,v1,0x6e69
    3dd4:	a4190400 	sh	t9,1024(zero)
    3dd8:	03000000 	0x3000000
    3ddc:	746e6975 	jalx	1b9a5d4 <AP_BANK_SPACE+0x1b5a5d4>
    3de0:	04003631 	bltz	zero,116a8 <SRAM_BT_BACK_RCODE_ADDR+0x6a8>
    3de4:	0000b31d 	0xb31d
    3de8:	6e690300 	0x6e690300
    3dec:	00363174 	teq	at,s6,0xc5
    3df0:	00c92104 	0xc92104
    3df4:	69020000 	0x69020000
    3df8:	0400746e 	bltz	zero,20fb4 <SRAM_KERNEL_XSYS_ADDR+0x5b4>
    3dfc:	68630205 	0x68630205
    3e00:	01007261 	0x1007261
    3e04:	49550306 	0x49550306
    3e08:	3631544e 	ori	s1,s1,0x544e
    3e0c:	b3680400 	0xb3680400
    3e10:	03000000 	0x3000000
    3e14:	544e4955 	bnel	v0,t6,1636c <SRAM_BT_EXT5_BANK_ADDR+0x1d6c>
    3e18:	04003233 	bltz	zero,106e8 <SRAM_COMMON_BT_MANAGER_RCODE+0x1e8>
    3e1c:	00012770 	tge	zero,at,0x9d
    3e20:	00a20400 	0xa20400
    3e24:	07040000 	0x7040000
    3e28:	04060405 	0x4060405
    3e2c:	00000172 	tlt	zero,zero,0x5
    3e30:	0001b507 	0x1b507
    3e34:	0000c900 	sll	t9,zero,0x4
    3e38:	01960800 	0x1960800
    3e3c:	00090000 	sll	zero,t1,0x0
    3e40:	0001f409 	0x1f409
    3e44:	17090100 	bne	t8,t1,4248 <SRAM_AP_BANK_BACK_AL_1_SIZE+0x248>
    3e48:	6e61420a 	0x6e61420a
    3e4c:	68435f64 	0x68435f64
    3e50:	5f616e69 	0x5f616e69
    3e54:	00005355 	0x5355
    3e58:	6e61420a 	0x6e61420a
    3e5c:	614a5f64 	0x614a5f64
    3e60:	006e6170 	tge	v1,t6,0x185
    3e64:	61420a01 	0x61420a01
    3e68:	455f646e 	0x455f646e
    3e6c:	706f7275 	0x706f7275
    3e70:	0a020065 	j	8080194 <AP_BANK_SPACE+0x8040194>
    3e74:	646e6142 	0x646e6142
    3e78:	58414d5f 	0x58414d5f
    3e7c:	03000300 	0x3000300
    3e80:	69646172 	0x69646172
    3e84:	61625f6f 	0x61625f6f
    3e88:	655f646e 	0x655f646e
    3e8c:	b51c0900 	0xb51c0900
    3e90:	0b000001 	j	c000004 <AP_BANK_SPACE+0xbfc0004>
    3e94:	000002cc 	syscall	0xb
    3e98:	0ca90a24 	jal	2a42890 <AP_BANK_SPACE+0x2a02890>
    3e9c:	75706e69 	jalx	5c1b9a4 <AP_BANK_SPACE+0x5bdb9a4>
    3ea0:	79745f74 	0x79745f74
    3ea4:	0a006570 	j	80195c0 <AP_BANK_SPACE+0x7fd95c0>
    3ea8:	00016b97 	0x16b97
    3eac:	00230200 	0x230200
    3eb0:	7273610c 	0x7273610c
    3eb4:	6e695f63 	0x6e695f63
    3eb8:	00786564 	0x786564
    3ebc:	016b990a 	0x16b990a
    3ec0:	23020000 	addi	v0,t8,0
    3ec4:	61640c04 	0x61640c04
    3ec8:	61735f63 	0x61735f63
    3ecc:	656c706d 	0x656c706d
    3ed0:	6b9b0a00 	0x6b9b0a00
    3ed4:	02000001 	movf	zero,s0,$fcc0
    3ed8:	640c0823 	0x640c0823
    3edc:	635f6361 	0x635f6361
    3ee0:	656e6168 	0x656e6168
    3ee4:	9d0a006c 	0x9d0a006c
    3ee8:	0000016b 	0x16b
    3eec:	0c0c2302 	jal	308c08 <AP_BANK_SPACE+0x2c8c08>
    3ef0:	63727361 	0x63727361
    3ef4:	646f6d5f 	0x646f6d5f
    3ef8:	65735f65 	0x65735f65
    3efc:	9f0a006c 	0x9f0a006c
    3f00:	0000016b 	0x16b
    3f04:	0c102302 	jal	408c08 <AP_BANK_SPACE+0x3c8c08>
    3f08:	5f636461 	0x5f636461
    3f0c:	706d6173 	0x706d6173
    3f10:	0a00656c 	j	80195b0 <AP_BANK_SPACE+0x7fd95b0>
    3f14:	00016ba1 	0x16ba1
    3f18:	14230200 	bne	at,v1,471c <SRAM_AP_BANK_BACK_AL_1_SIZE+0x71c>
    3f1c:	6364610c 	0x6364610c
    3f20:	736e695f 	udi15	k1,t6,t5,0x5
    3f24:	0a006c65 	j	801b194 <AP_BANK_SPACE+0x7fdb194>
    3f28:	00016ba3 	0x16ba3
    3f2c:	18230200 	0x18230200
    3f30:	6364610c 	0x6364610c
    3f34:	6961675f 	0x6961675f
    3f38:	a50a006e 	sh	t2,110(t0)
    3f3c:	0000016b 	0x16b
    3f40:	0c1c2302 	jal	708c08 <AP_BANK_SPACE+0x6c8c08>
    3f44:	5f6e6961 	0x5f6e6961
    3f48:	6e696167 	0x6e696167
    3f4c:	6ba70a00 	0x6ba70a00
    3f50:	02000001 	movf	zero,s0,$fcc0
    3f54:	03002023 	subu	a0,t8,zero
    3f58:	5f6d6d6d 	0x5f6d6d6d
    3f5c:	615f7070 	0x615f7070
    3f60:	756f6e69 	jalx	5bdb9a4 <AP_BANK_SPACE+0x5b9b9a4>
    3f64:	65735f74 	0x65735f74
    3f68:	6e697474 	0x6e697474
    3f6c:	00745f67 	0x745f67
    3f70:	0208a90a 	0x208a90a
    3f74:	180b0000 	0x180b0000
    3f78:	10000003 	b	3f88 <SROM_STUB_ADDR_MDY+0x488>
    3f7c:	650cd10a 	0x650cd10a
    3f80:	79745f71 	0x79745f71
    3f84:	0a006570 	j	80195c0 <AP_BANK_SPACE+0x7fd95c0>
    3f88:	00016bce 	0x16bce
    3f8c:	00230200 	0x230200
    3f90:	5f71650c 	0x5f71650c
    3f94:	61726170 	0x61726170
    3f98:	18d00a00 	0x18d00a00
    3f9c:	02000003 	0x2000003
    3fa0:	07000423 	bltz	t8,5030 <SRAM_AP_BANK_BACK_AL_1_SIZE+0x1030>
    3fa4:	00000328 	0x328
    3fa8:	00000172 	tlt	zero,zero,0x5
    3fac:	00019608 	0x19608
    3fb0:	03000b00 	0x3000b00
    3fb4:	5f6d6d6d 	0x5f6d6d6d
    3fb8:	655f7070 	0x655f7070
    3fbc:	6e695f71 	0x6e695f71
    3fc0:	745f6f66 	jalx	17dbd98 <AP_BANK_SPACE+0x179bd98>
    3fc4:	ebd10a00 	swc2	$17,2560(s8)
    3fc8:	09000002 	j	4000008 <AP_BANK_SPACE+0x3fc0008>
    3fcc:	0000037e 	0x37e
    3fd0:	0a110801 	j	8442004 <AP_BANK_SPACE+0x8402004>
    3fd4:	54415453 	bnel	v0,at,19124 <SRAM_CARD_UD_CACHE_ADDR+0x424>
    3fd8:	505f5355 	beql	v0,ra,18d30 <SRAM_CARD_UD_CACHE_ADDR+0x30>
    3fdc:	0059414c 	syscall	0x16505
    3fe0:	54530a00 	bnel	v0,s3,67e4 <SRAM_AP_BANK_BACK_AL_1_SIZE+0x27e4>
    3fe4:	53555441 	beql	k0,s5,190ec <SRAM_CARD_UD_CACHE_ADDR+0x3ec>
    3fe8:	5541505f 	bnel	t2,at,18168 <SRAM_FS_DATA_ADDR+0x168>
    3fec:	01004553 	0x1004553
    3ff0:	4154530a 	0x4154530a
    3ff4:	5f535554 	0x5f535554
    3ff8:	4e454d46 	c3	0x454d46
    3ffc:	454e4947 	0x454e4947
    4000:	5252455f 	beql	s2,s2,15580 <SRAM_BT_EXT5_BANK_ADDR+0xf80>
    4004:	0200524f 	0x200524f
    4008:	4d460300 	0x4d460300
    400c:	616c505f 	0x616c505f
    4010:	61747379 	0x61747379
    4014:	5f737574 	0x5f737574
    4018:	15080065 	bne	t0,t0,41b0 <SRAM_AP_BANK_BACK_AL_1_SIZE+0x1b0>
    401c:	00000340 	sll	zero,zero,0xd
    4020:	0003b009 	0x3b009
    4024:	17080100 	bne	t8,t0,4428 <SRAM_AP_BANK_BACK_AL_1_SIZE+0x428>
    4028:	5f4d460a 	0x5f4d460a
    402c:	4f4e4f4d 	c3	0x14e4f4d
    4030:	530a0000 	beql	t8,t2,4034 <SRAM_AP_BANK_BACK_AL_1_SIZE+0x34>
    4034:	45524554 	0x45524554
    4038:	03000100 	0x3000100
    403c:	415f4d46 	0x415f4d46
    4040:	6f696475 	0x6f696475
    4044:	0800655f 	j	1957c <SRAM_CARD_DATA_ADDR+0x7c>
    4048:	0003951a 	0x3951a
    404c:	04340900 	0x4340900
    4050:	08010000 	j	40000 <AP_BANK_SPACE>
    4054:	41480a1d 	0x41480a1d
    4058:	45534452 	0x45534452
    405c:	4e5f4b45 	c3	0x5f4b45
    4060:	535f544f 	beql	k0,ra,191a0 <SRAM_CARD_UD_CACHE_ADDR+0x4a0>
    4064:	54524154 	bnel	v0,s2,145b8 <SRAM_IRQ_PRINT_BUFFER_ADDR+0x4e8>
    4068:	480a0000 	mfc2	t2,$0
    406c:	53445241 	beql	k0,a0,18974 <SRAM_FS_BUF_ADDR+0x674>
    4070:	5f4b4545 	0x5f4b4545
    4074:	4e494f44 	c3	0x494f44
    4078:	0a010047 	j	804011c <AP_BANK_SPACE+0x800011c>
    407c:	44524148 	0x44524148
    4080:	4b454553 	c2	0x1454553
    4084:	4d4f435f 	0x4d4f435f
    4088:	54454c50 	bnel	v0,a1,171cc <SRAM_BTCALL_ASQT_BUF_ADDR+0x5cc>
    408c:	0a020045 	j	8080114 <AP_BANK_SPACE+0x8040114>
    4090:	44524148 	0x44524148
    4094:	4b454553 	c2	0x1454553
    4098:	4d4f435f 	0x4d4f435f
    409c:	54454c50 	bnel	v0,a1,171e0 <SRAM_BTCALL_ASQT_BUF_ADDR+0x5e0>
    40a0:	4f4e5f45 	c3	0x14e5f45
    40a4:	41565f54 	0x41565f54
    40a8:	0044494c 	syscall	0x11125
    40ac:	41480a03 	0x41480a03
    40b0:	45534452 	0x45534452
    40b4:	465f4b45 	c1	0x5f4b45
    40b8:	45534c41 	0x45534c41
    40bc:	03000400 	0x3000400
    40c0:	64726168 	0x64726168
    40c4:	6b656573 	0x6b656573
    40c8:	6174735f 	0x6174735f
    40cc:	5f737574 	0x5f737574
    40d0:	23080065 	addi	t0,t8,101
    40d4:	000003c2 	srl	zero,zero,0xf
    40d8:	0004e00b 	movn	gp,zero,a0
    40dc:	2c080c00 	sltiu	t0,zero,3072
    40e0:	5f4d460c 	0x5f4d460c
    40e4:	72727543 	0x72727543
    40e8:	46746e65 	c1	0x746e65
    40ec:	00716572 	tlt	v1,s1,0x195
    40f0:	01882608 	0x1882608
    40f4:	23020000 	addi	v0,t8,0
    40f8:	4d460c00 	0x4d460c00
    40fc:	6769535f 	0x6769535f
    4100:	536c616e 	beql	k1,t4,1c6bc <SRAM_OS_TASK_STACK_ADDR+0x10bc>
    4104:	08006774 	j	19dd0 <SRAM_AP_FRONT_DATA_ADDR+0x450>
    4108:	00017a27 	0x17a27
    410c:	04230200 	bgezl	at,4910 <SRAM_AP_BANK_BACK_AL_1_SIZE+0x910>
    4110:	5f4d460c 	0x5f4d460c
    4114:	72657453 	udi3	s3,a1,t6,0x11
    4118:	535f6f65 	beql	k0,ra,1feb0 <SRAM_KEY_MESSAGE_RCODE_ADDR+0x6b0>
    411c:	75746174 	jalx	5d185d0 <AP_BANK_SPACE+0x5cd85d0>
    4120:	28080073 	slti	t0,zero,115
    4124:	000003b0 	tge	zero,zero,0xe
    4128:	0c062302 	jal	188c08 <AP_BANK_SPACE+0x148c08>
    412c:	435f4d46 	c0	0x15f4d46
    4130:	61427275 	0x61427275
    4134:	0800646e 	j	191b8 <SRAM_CARD_UD_CACHE_ADDR+0x4b8>
    4138:	0001f429 	0x1f429
    413c:	07230200 	bgezl	t9,4940 <SRAM_AP_BANK_BACK_AL_1_SIZE+0x940>
    4140:	5f4d460c 	0x5f4d460c
    4144:	536c6f56 	beql	k1,t4,1fea0 <SRAM_KEY_MESSAGE_RCODE_ADDR+0x6a0>
    4148:	75746174 	jalx	5d185d0 <AP_BANK_SPACE+0x5cd85d0>
    414c:	2a080073 	slti	t0,s0,115
    4150:	0000037e 	0x37e
    4154:	0c082302 	jal	208c08 <AP_BANK_SPACE+0x1c8c08>
    4158:	5f435453 	0x5f435453
    415c:	67616c66 	0x67616c66
    4160:	342b0800 	ori	t3,at,0x800
    4164:	02000004 	sllv	zero,zero,s0
    4168:	03000923 	0x3000923
    416c:	69676e45 	0x69676e45
    4170:	535f656e 	beql	k0,ra,1d72c <SRAM_BANK_C_ADDR+0x22c>
    4174:	75746174 	jalx	5d185d0 <AP_BANK_SPACE+0x5cd85d0>
    4178:	00745f73 	tltu	v1,s4,0x17d
    417c:	044d2c08 	0x44d2c08
    4180:	390b0000 	xori	t3,t0,0x0
    4184:	14000005 	bnez	zero,419c <SRAM_AP_BANK_BACK_AL_1_SIZE+0x19c>
    4188:	6d0c3908 	0x6d0c3908
    418c:	63696761 	0x63696761
    4190:	50350800 	beql	at,s5,6194 <SRAM_AP_BANK_BACK_AL_1_SIZE+0x2194>
    4194:	02000001 	movf	zero,s0,$fcc0
    4198:	660c0023 	0x660c0023
    419c:	68745f6d 	0x68745f6d
    41a0:	68736572 	0x68736572
    41a4:	00646c6f 	0x646c6f
    41a8:	01373608 	0x1373608
    41ac:	23020000 	addi	v0,t8,0
    41b0:	71650c02 	0x71650c02
    41b4:	666e695f 	0x666e695f
    41b8:	3808006f 	xori	t0,zero,0x6f
    41bc:	00000328 	0x328
    41c0:	00042302 	srl	a0,a0,0xc
    41c4:	454d4603 	0x454d4603
    41c8:	6e69676e 	0x6e69676e
    41cc:	66635f65 	0x66635f65
    41d0:	00745f67 	0x745f67
    41d4:	04f73908 	0x4f73908
    41d8:	88090000 	lwl	t1,0(zero)
    41dc:	01000005 	0x1000005
    41e0:	4d0a3c08 	0x4d0a3c08
    41e4:	4c55444f 	0x4c55444f
    41e8:	4f4e5f45 	c3	0x14e5f45
    41ec:	494e495f 	0x494e495f
    41f0:	0a000054 	j	8000150 <AP_BANK_SPACE+0x7fc0150>
    41f4:	55444f4d 	bnel	t2,a0,17f2c <SRAM_CARD_UD_RCODE_ADDR+0xb2c>
    41f8:	575f454c 	bnel	k0,ra,1572c <SRAM_BT_EXT5_BANK_ADDR+0x112c>
    41fc:	004b524f 	0x4b524f
    4200:	4f4d0a01 	c3	0x14d0a01
    4204:	454c5544 	0x454c5544
    4208:	4154535f 	0x4154535f
    420c:	5942444e 	0x5942444e
    4210:	03000200 	0x3000200
    4214:	75646f4d 	jalx	591bd34 <AP_BANK_SPACE+0x58dbd34>
    4218:	535f656c 	beql	k0,ra,1d7cc <SRAM_BANK_C_ADDR+0x2cc>
    421c:	75746174 	jalx	5d185d0 <AP_BANK_SPACE+0x5cd85d0>
    4220:	00655f73 	tltu	v1,a1,0x17d
    4224:	054f4008 	0x54f4008
    4228:	01090000 	0x1090000
    422c:	0200000d 	break	0x200
    4230:	520ae303 	beql	s0,t2,ffffce40 <get_app_msg+0x403d6910>
    4234:	4c555345 	0x4c555345
    4238:	554e5f54 	bnel	t2,t6,1bf8c <SRAM_OS_TASK_STACK_ADDR+0x98c>
    423c:	00004c4c 	syscall	0x131
    4240:	5345520a 	beql	k0,a1,18a6c <SRAM_FS_BUF_ADDR+0x76c>
    4244:	5f544c55 	0x5f544c55
    4248:	4f4e4749 	c3	0x14e4749
    424c:	01004552 	0x1004552
    4250:	5345520a 	beql	k0,a1,18a7c <SRAM_FS_BUF_ADDR+0x77c>
    4254:	5f544c55 	0x5f544c55
    4258:	454e4f4e 	0x454e4f4e
    425c:	4556455f 	0x4556455f
    4260:	0200544e 	0x200544e
    4264:	5345520a 	beql	k0,a1,18a90 <SRAM_FS_BUF_ADDR+0x790>
    4268:	5f544c55 	0x5f544c55
    426c:	5f504352 	0x5f504352
    4270:	575f434c 	bnel	k0,ra,14fa4 <SRAM_BT_EXT5_BANK_ADDR+0x9a4>
    4274:	00544941 	0x544941
    4278:	45520a03 	0x45520a03
    427c:	544c5553 	bnel	v0,t4,197cc <SRAM_FM_DRV_RDATA_ADDR+0x4c>
    4280:	4d4f435f 	0x4d4f435f
    4284:	5f4e4f4d 	0x5f4e4f4d
    4288:	45534552 	0x45534552
    428c:	00455652 	0x455652
    4290:	45520a20 	0x45520a20
    4294:	544c5553 	bnel	v0,t4,197e4 <SRAM_FM_DRV_RDATA_ADDR+0x64>
    4298:	5252455f 	beql	s2,s2,15818 <SRAM_BT_EXT5_BANK_ADDR+0x1218>
    429c:	8000524f 	lb	zero,21071(zero)
    42a0:	45520a01 	0x45520a01
    42a4:	544c5553 	bnel	v0,t4,197f4 <SRAM_FM_DRV_RDATA_ADDR+0x74>
    42a8:	4341425f 	c0	0x141425f
    42ac:	43535f4b 	c0	0x1535f4b
    42b0:	5f454e45 	0x5f454e45
    42b4:	50534944 	beql	v0,s3,167c8 <SRAM_BT_UART_BUF_ADDR+0x3c8>
    42b8:	48435441 	0x48435441
    42bc:	0a018100 	j	8060400 <AP_BANK_SPACE+0x8020400>
    42c0:	55534552 	bnel	t2,s3,1580c <SRAM_BT_EXT5_BANK_ADDR+0x120c>
    42c4:	535f544c 	beql	k0,ra,193f8 <SRAM_CARD_UD_CACHE_ADDR+0x6f8>
    42c8:	454e4543 	0x454e4543
    42cc:	4958455f 	0x4958455f
    42d0:	01820054 	0x1820054
    42d4:	5345520a 	beql	k0,a1,18b00 <SRAM_FS_BUF_ADDR+0x800>
    42d8:	5f544c55 	0x5f544c55
    42dc:	5f59454b 	0x5f59454b
    42e0:	4e455645 	c3	0x455645
    42e4:	45525f54 	0x45525f54
    42e8:	4c414544 	0x4c414544
    42ec:	5f59425f 	0x5f59425f
    42f0:	4d4d4f43 	0x4d4d4f43
    42f4:	83004e4f 	lb	zero,20047(t8)
    42f8:	45520a01 	0x45520a01
    42fc:	544c5553 	bnel	v0,t4,1984c <SRAM_FM_DRV_RDATA_ADDR+0xcc>
    4300:	5359535f 	beql	k0,t9,19080 <SRAM_CARD_UD_CACHE_ADDR+0x380>
    4304:	47534d5f 	c1	0x1534d5f
    4308:	4445525f 	0x4445525f
    430c:	5f4c4145 	0x5f4c4145
    4310:	435f5942 	c0	0x15f5942
    4314:	4f4d4d4f 	c3	0x14d4d4f
    4318:	0184004e 	0x184004e
    431c:	5345520a 	beql	k0,a1,18b48 <SRAM_FS_BUF_ADDR+0x848>
    4320:	5f544c55 	0x5f544c55
    4324:	43524f46 	c0	0x1524f46
    4328:	54545f45 	bnel	v0,s4,1c040 <SRAM_OS_TASK_STACK_ADDR+0xa40>
    432c:	54535f53 	bnel	v0,s3,1c07c <SRAM_OS_TASK_STACK_ADDR+0xa7c>
    4330:	8500504f 	lh	zero,20559(t0)
    4334:	45520a01 	0x45520a01
    4338:	544c5553 	bnel	v0,t4,19888 <SRAM_FM_DRV_RDATA_ADDR+0x108>
    433c:	544e455f 	bnel	v0,t6,158bc <SRAM_BT_EXT5_BANK_ADDR+0x12bc>
    4340:	4f5f5245 	c3	0x15f5245
    4344:	555f4154 	bnel	t2,ra,14898 <SRAM_BT_EXT5_BANK_ADDR+0x298>
    4348:	41524750 	0x41524750
    434c:	a1004544 	sb	zero,17732(t0)
    4350:	45520a01 	0x45520a01
    4354:	544c5553 	bnel	v0,t4,198a4 <SRAM_FM_DRV_RDATA_ADDR+0x124>
    4358:	5345545f 	beql	k0,a1,194d8 <SRAM_CARD_UD_CACHE_ADDR+0x7d8>
    435c:	5f504154 	0x5f504154
    4360:	54495551 	bnel	v0,t1,198a8 <SRAM_FM_DRV_RDATA_ADDR+0x128>
    4364:	0a01ff00 	j	807fc00 <AP_BANK_SPACE+0x803fc00>
    4368:	55534552 	bnel	t2,s3,158b4 <SRAM_BT_EXT5_BANK_ADDR+0x12b4>
    436c:	415f544c 	0x415f544c
    4370:	515f5050 	beql	t2,ra,184b4 <SRAM_FS_BUF_ADDR+0x1b4>
    4374:	00544955 	0x544955
    4378:	520a0280 	beql	s0,t2,4d7c <SRAM_AP_BANK_BACK_AL_1_SIZE+0xd7c>
    437c:	4c555345 	0x4c555345
    4380:	554d5f54 	bnel	t2,t5,1c0d4 <SRAM_OS_TASK_STACK_ADDR+0xad4>
    4384:	5f434953 	0x5f434953
    4388:	59414c50 	0x59414c50
    438c:	0a028100 	j	80a0400 <AP_BANK_SPACE+0x8060400>
    4390:	55534552 	bnel	t2,s3,158dc <SRAM_BT_EXT5_BANK_ADDR+0x12dc>
    4394:	4d5f544c 	0x4d5f544c
    4398:	43495355 	c0	0x1495355
    439c:	4c50435f 	0x4c50435f
    43a0:	82005941 	lb	zero,22849(s0)
    43a4:	45520a02 	0x45520a02
    43a8:	544c5553 	bnel	v0,t4,198f8 <SRAM_FM_DRV_RDATA_ADDR+0x178>
    43ac:	53554d5f 	beql	k0,s5,1792c <SRAM_CARD_UD_RCODE_ADDR+0x52c>
    43b0:	555f4349 	bnel	t2,ra,150d8 <SRAM_BT_EXT5_BANK_ADDR+0xad8>
    43b4:	59414c50 	0x59414c50
    43b8:	0a028300 	j	80a0c00 <AP_BANK_SPACE+0x8060c00>
    43bc:	55534552 	bnel	t2,s3,15908 <SRAM_BT_EXT5_BANK_ADDR+0x1308>
    43c0:	455f544c 	0x455f544c
    43c4:	5245544e 	beql	s2,a1,19500 <SRAM_CARD_DATA_ADDR>
    43c8:	4e494c5f 	c3	0x494c5f
    43cc:	004e4945 	0x4e4945
    43d0:	520a0284 	beql	s0,t2,4de4 <SRAM_AP_BANK_BACK_AL_1_SIZE+0xde4>
    43d4:	4c555345 	0x4c555345
    43d8:	41525f54 	0x41525f54
    43dc:	004f4944 	0x4f4944
    43e0:	520a0285 	beql	s0,t2,4df8 <SRAM_AP_BANK_BACK_AL_1_SIZE+0xdf8>
    43e4:	4c555345 	0x4c555345
    43e8:	4c425f54 	0x4c425f54
    43ec:	45544555 	0x45544555
    43f0:	5f485445 	0x5f485445
    43f4:	4e554f53 	c3	0x554f53
    43f8:	02860044 	0x2860044
    43fc:	5345520a 	beql	k0,a1,18c28 <SRAM_FS_BUF_ADDR+0x928>
    4400:	5f544c55 	0x5f544c55
    4404:	45554c42 	0x45554c42
    4408:	54454554 	bnel	v0,a1,1595c <SRAM_BT_EXT5_BANK_ADDR+0x135c>
    440c:	41435f48 	0x41435f48
    4410:	87004c4c 	lh	zero,19532(t8)
    4414:	45520a02 	0x45520a02
    4418:	544c5553 	bnel	v0,t4,19968 <SRAM_FM_DRV_RDATA_ADDR+0x1e8>
    441c:	554c425f 	bnel	t2,t4,14d9c <SRAM_BT_EXT5_BANK_ADDR+0x79c>
    4420:	45455445 	0x45455445
    4424:	435f4854 	c0	0x15f4854
    4428:	5f4c4c41 	0x5f4c4c41
    442c:	4b434142 	c2	0x1434142
    4430:	554f5247 	bnel	t2,t7,18d50 <SRAM_CARD_UD_CACHE_ADDR+0x50>
    4434:	8800444e 	lwl	zero,17486(zero)
    4438:	45520a02 	0x45520a02
    443c:	544c5553 	bnel	v0,t4,1998c <SRAM_AP_FRONT_DATA_ADDR+0xc>
    4440:	4253555f 	c0	0x53555f
    4444:	554f535f 	bnel	t2,t7,191c4 <SRAM_CARD_UD_CACHE_ADDR+0x4c4>
    4448:	8900444e 	lwl	zero,17486(t0)
    444c:	45520a02 	0x45520a02
    4450:	544c5553 	bnel	v0,t4,199a0 <SRAM_AP_FRONT_DATA_ADDR+0x20>
    4454:	574f505f 	bnel	k0,t7,185d4 <SRAM_FS_BUF_ADDR+0x2d4>
    4458:	4f5f5245 	c3	0x15f5245
    445c:	8a004646 	lwl	zero,17990(s0)
    4460:	45520a02 	0x45520a02
    4464:	544c5553 	bnel	v0,t4,199b4 <SRAM_AP_FRONT_DATA_ADDR+0x34>
    4468:	574f4c5f 	bnel	k0,t7,175e8 <SRAM_CARD_UD_RCODE_ADDR+0x1e8>
    446c:	574f505f 	bnel	k0,t7,185ec <SRAM_FS_BUF_ADDR+0x2ec>
    4470:	8b005245 	lwl	zero,21061(t8)
    4474:	45520a02 	0x45520a02
    4478:	544c5553 	bnel	v0,t4,199c8 <SRAM_AP_FRONT_DATA_ADDR+0x48>
    447c:	4253555f 	c0	0x53555f
    4480:	4152545f 	0x4152545f
    4484:	8c00534e 	lw	zero,21326(zero)
    4488:	45520a02 	0x45520a02
    448c:	544c5553 	bnel	v0,t4,199dc <SRAM_AP_FRONT_DATA_ADDR+0x5c>
    4490:	4345525f 	c0	0x145525f
    4494:	5f44524f 	0x5f44524f
    4498:	414c5043 	0x414c5043
    449c:	028d0059 	0x28d0059
    44a0:	5345520a 	beql	k0,a1,18ccc <SRAM_FS_BUF_ADDR+0x9cc>
    44a4:	5f544c55 	0x5f544c55
    44a8:	4f434552 	c3	0x1434552
    44ac:	555f4452 	bnel	t2,ra,155f8 <SRAM_BT_EXT5_BANK_ADDR+0xff8>
    44b0:	59414c50 	0x59414c50
    44b4:	0a028e00 	j	80a3800 <AP_BANK_SPACE+0x8063800>
    44b8:	55534552 	bnel	t2,s3,15a04 <SRAM_BT_EXT5_BANK_ADDR+0x1404>
    44bc:	525f544c 	beql	s2,ra,195f0 <SRAM_AP_BACK_DATA_ADDR+0x70>
    44c0:	524f4345 	beql	s2,t7,151d8 <SRAM_BT_EXT5_BANK_ADDR+0xbd8>
    44c4:	494c5f44 	0x494c5f44
    44c8:	4e49454e 	c3	0x49454e
    44cc:	434f545f 	c0	0x14f545f
    44d0:	0a028f00 	j	80a3c00 <AP_BANK_SPACE+0x8063c00>
    44d4:	55534552 	bnel	t2,s3,15a20 <SRAM_BT_EXT5_BANK_ADDR+0x1420>
    44d8:	525f544c 	beql	s2,ra,1960c <SRAM_AP_BACK_DATA_ADDR+0x8c>
    44dc:	524f4345 	beql	s2,t7,151f4 <SRAM_BT_EXT5_BANK_ADDR+0xbf4>
    44e0:	4d465f44 	0x4d465f44
    44e4:	434f545f 	c0	0x14f545f
    44e8:	0a029000 	j	80a4000 <AP_BANK_SPACE+0x8064000>
    44ec:	55534552 	bnel	t2,s3,15a38 <SRAM_BT_EXT5_BANK_ADDR+0x1438>
    44f0:	525f544c 	beql	s2,ra,19624 <SRAM_AP_BACK_DATA_ADDR+0xa4>
    44f4:	524f4345 	beql	s2,t7,1520c <SRAM_BT_EXT5_BANK_ADDR+0xc0c>
    44f8:	494d5f44 	0x494d5f44
    44fc:	4f545f43 	c3	0x1545f43
    4500:	02910043 	0x2910043
    4504:	5345520a 	beql	k0,a1,18d30 <SRAM_CARD_UD_CACHE_ADDR+0x30>
    4508:	5f544c55 	0x5f544c55
    450c:	4f434552 	c3	0x1434552
    4510:	4c5f4452 	0x4c5f4452
    4514:	49454e49 	0x49454e49
    4518:	4f545f4e 	c3	0x1545f4e
    451c:	02920055 	0x2920055
    4520:	5345520a 	beql	k0,a1,18d4c <SRAM_CARD_UD_CACHE_ADDR+0x4c>
    4524:	5f544c55 	0x5f544c55
    4528:	4f434552 	c3	0x1434552
    452c:	465f4452 	c1	0x5f4452
    4530:	4f545f4d 	c3	0x1545f4d
    4534:	02930055 	0x2930055
    4538:	5345520a 	beql	k0,a1,18d64 <SRAM_CARD_UD_CACHE_ADDR+0x64>
    453c:	5f544c55 	0x5f544c55
    4540:	4f434552 	c3	0x1434552
    4544:	4d5f4452 	0x4d5f4452
    4548:	545f4349 	bnel	v0,ra,15270 <SRAM_BT_EXT5_BANK_ADDR+0xc70>
    454c:	9400554f 	lhu	zero,21839(zero)
    4550:	45520a02 	0x45520a02
    4554:	544c5553 	bnel	v0,t4,19aa4 <SRAM_AP_FRONT_DATA_ADDR+0x124>
    4558:	53414c5f 	beql	k0,at,176d8 <SRAM_CARD_UD_RCODE_ADDR+0x2d8>
    455c:	414c5054 	0x414c5054
    4560:	02950059 	0x2950059
    4564:	5345520a 	beql	k0,a1,18d90 <SRAM_CARD_UD_CACHE_ADDR+0x90>
    4568:	5f544c55 	0x5f544c55
    456c:	5458454e 	bnel	v0,t8,15aa8 <SRAM_BT_EXT5_BANK_ADDR+0x14a8>
    4570:	4e55465f 	c3	0x55465f
    4574:	4f495443 	c3	0x1495443
    4578:	0296004e 	0x296004e
    457c:	5345520a 	beql	k0,a1,18da8 <SRAM_CARD_UD_CACHE_ADDR+0xa8>
    4580:	5f544c55 	0x5f544c55
    4584:	45544e45 	0x45544e45
    4588:	50555f52 	beql	v0,s5,1c2d4 <SRAM_OS_TASK_STACK_ADDR+0xcd4>
    458c:	44415247 	0x44415247
    4590:	02970045 	0x2970045
    4594:	5345520a 	beql	k0,a1,18dc0 <SRAM_CARD_UD_CACHE_ADDR+0xc0>
    4598:	5f544c55 	0x5f544c55
    459c:	4e49414d 	c3	0x49414d
    45a0:	5050415f 	beql	v0,s0,14b20 <SRAM_BT_EXT5_BANK_ADDR+0x520>
    45a4:	0a029800 	j	80a6000 <AP_BANK_SPACE+0x8066000>
    45a8:	55534552 	bnel	t2,s3,15af4 <SRAM_BT_EXT5_BANK_ADDR+0x14f4>
    45ac:	455f544c 	0x455f544c
    45b0:	5245544e 	beql	s2,a1,196ec <SRAM_AP_BACK_DATA_ADDR+0x16c>
    45b4:	414c415f 	0x414c415f
    45b8:	99004d52 	lwr	zero,19794(t0)
    45bc:	45520a02 	0x45520a02
    45c0:	544c5553 	bnel	v0,t4,19b10 <SRAM_AP_FRONT_DATA_ADDR+0x190>
    45c4:	414c415f 	0x414c415f
    45c8:	535f4d52 	beql	k0,ra,17b14 <SRAM_CARD_UD_RCODE_ADDR+0x714>
    45cc:	5a4f4f4e 	0x5a4f4f4e
    45d0:	029a0045 	0x29a0045
    45d4:	5345520a 	beql	k0,a1,18e00 <SRAM_CARD_UD_CACHE_ADDR+0x100>
    45d8:	5f544c55 	0x5f544c55
    45dc:	52414c41 	beql	s2,at,176e4 <SRAM_CARD_UD_RCODE_ADDR+0x2e4>
    45e0:	4c435f4d 	0x4c435f4d
    45e4:	0045534f 	0x45534f
    45e8:	520a029b 	beql	s0,t2,5058 <SRAM_AP_BANK_BACK_AL_1_SIZE+0x1058>
    45ec:	4c555345 	0x4c555345
    45f0:	4c415f54 	0x4c415f54
    45f4:	5f4d5241 	0x5f4d5241
    45f8:	474e4952 	c1	0x14e4952
    45fc:	4c4f465f 	0x4c4f465f
    4600:	5f524544 	0x5f524544
    4604:	4e414353 	c3	0x414353
    4608:	0a029c00 	j	80a7000 <AP_BANK_SPACE+0x8067000>
    460c:	55534552 	bnel	t2,s3,15b58 <SRAM_BT_EXT5_BANK_ADDR+0x1558>
    4610:	415f544c 	0x415f544c
    4614:	5f4f5455 	0x5f4f5455
    4618:	52414553 	beql	s2,at,15b68 <SRAM_BT_EXT5_BANK_ADDR+0x1568>
    461c:	9d004843 	0x9d004843
    4620:	45520a02 	0x45520a02
    4624:	544c5553 	bnel	v0,t4,19b74 <SRAM_AP_FRONT_DATA_ADDR+0x1f4>
    4628:	4e414d5f 	c3	0x414d5f
    462c:	5f4c4155 	0x5f4c4155
    4630:	52414553 	beql	s2,at,15b80 <SRAM_BT_EXT5_BANK_ADDR+0x1580>
    4634:	555f4843 	bnel	t2,ra,16744 <SRAM_BT_UART_BUF_ADDR+0x344>
    4638:	029e0050 	0x29e0050
    463c:	5345520a 	beql	k0,a1,18e68 <SRAM_CARD_UD_CACHE_ADDR+0x168>
    4640:	5f544c55 	0x5f544c55
    4644:	554e414d 	bnel	t2,t6,14b7c <SRAM_BT_EXT5_BANK_ADDR+0x57c>
    4648:	535f4c41 	beql	k0,ra,17750 <SRAM_CARD_UD_RCODE_ADDR+0x350>
    464c:	43524145 	c0	0x1524145
    4650:	4f445f48 	c3	0x1445f48
    4654:	9f004e57 	0x9f004e57
    4658:	45520a02 	0x45520a02
    465c:	544c5553 	bnel	v0,t4,19bac <SRAM_AP_FRONT_DATA_ADDR+0x22c>
    4660:	4f54535f 	c3	0x154535f
    4664:	45535f50 	0x45535f50
    4668:	48435241 	0x48435241
    466c:	0a02a000 	j	80a8000 <AP_BANK_SPACE+0x8068000>
    4670:	55534552 	bnel	t2,s3,15bbc <SRAM_BT_EXT5_BANK_ADDR+0x15bc>
    4674:	435f544c 	c0	0x15f544c
    4678:	49464e4f 	0x49464e4f
    467c:	48435f47 	0x48435f47
    4680:	45475241 	0x45475241
    4684:	0a02a100 	j	80a8400 <AP_BANK_SPACE+0x8068400>
    4688:	55534552 	bnel	t2,s3,15bd4 <SRAM_BT_EXT5_BANK_ADDR+0x15d4>
    468c:	435f544c 	c0	0x15f544c
    4690:	49464e4f 	0x49464e4f
    4694:	48435f47 	0x48435f47
    4698:	45475241 	0x45475241
    469c:	4955515f 	0x4955515f
    46a0:	02a20054 	0x2a20054
    46a4:	5345520a 	beql	k0,a1,18ed0 <SRAM_CARD_UD_CACHE_ADDR+0x1d0>
    46a8:	5f544c55 	0x5f544c55
    46ac:	45544e45 	0x45544e45
    46b0:	53415f52 	beql	k0,at,1c3fc <SRAM_OS_TASK_STACK_ADDR+0xdfc>
    46b4:	485f5451 	0x485f5451
    46b8:	45545f46 	0x45545f46
    46bc:	a3005453 	sb	zero,21587(t8)
    46c0:	45520a02 	0x45520a02
    46c4:	544c5553 	bnel	v0,t4,19c14 <SRAM_AP_FRONT_DATA_ADDR+0x294>
    46c8:	544e455f 	bnel	v0,t6,15c48 <SRAM_BT_EXT5_BANK_ADDR+0x1648>
    46cc:	555f5245 	bnel	t2,ra,18fe4 <SRAM_CARD_UD_CACHE_ADDR+0x2e4>
    46d0:	31524553 	andi	s2,t2,0x4553
    46d4:	0a02a400 	j	80a9000 <AP_BANK_SPACE+0x8069000>
    46d8:	55534552 	bnel	t2,s3,15c24 <SRAM_BT_EXT5_BANK_ADDR+0x1624>
    46dc:	535f544c 	beql	k0,ra,19810 <SRAM_FM_DRV_RDATA_ADDR+0x90>
    46e0:	45545359 	0x45545359
    46e4:	4e455f4d 	c3	0x455f4d
    46e8:	5f524554 	0x5f524554
    46ec:	a5003353 	sh	zero,13139(t0)
    46f0:	45520a02 	0x45520a02
    46f4:	544c5553 	bnel	v0,t4,19c44 <SRAM_AP_FRONT_DATA_ADDR+0x2c4>
    46f8:	5359535f 	beql	k0,t9,19478 <SRAM_CARD_UD_CACHE_ADDR+0x778>
    46fc:	5f4d4554 	0x5f4d4554
    4700:	54495845 	bnel	v0,t1,1a818 <SRAM_OS_DATA_ADDR+0x418>
    4704:	0033535f 	0x33535f
    4708:	520a02a6 	beql	s0,t2,51a4 <SRAM_AP_BANK_BACK_AL_1_SIZE+0x11a4>
    470c:	4c555345 	0x4c555345
    4710:	4e455f54 	c3	0x455f54
    4714:	5f524554 	0x5f524554
    4718:	42555453 	c0	0x555453
    471c:	4245445f 	c0	0x45445f
    4720:	a7004755 	sh	zero,18261(t8)
    4724:	45520a02 	0x45520a02
    4728:	544c5553 	bnel	v0,t4,19c78 <SRAM_AP_FRONT_DATA_ADDR+0x2f8>
    472c:	4453455f 	0x4453455f
    4730:	5345525f 	beql	k0,a1,190b0 <SRAM_CARD_UD_CACHE_ADDR+0x3b0>
    4734:	54524154 	bnel	v0,s2,14c88 <SRAM_BT_EXT5_BANK_ADDR+0x688>
    4738:	0a02a800 	j	80aa000 <AP_BANK_SPACE+0x806a000>
    473c:	55534552 	bnel	t2,s3,15c88 <SRAM_BT_EXT5_BANK_ADDR+0x1688>
    4740:	495f544c 	0x495f544c
    4744:	5f454c44 	0x5f454c44
    4748:	45444f4d 	0x45444f4d
    474c:	0a02a900 	j	80aa400 <AP_BANK_SPACE+0x806a400>
    4750:	55534552 	bnel	t2,s3,15c9c <SRAM_BT_EXT5_BANK_ADDR+0x169c>
    4754:	455f544c 	0x455f544c
    4758:	5245544e 	beql	s2,a1,19894 <SRAM_FM_DRV_RDATA_ADDR+0x114>
    475c:	41544f5f 	0x41544f5f
    4760:	4e4f535f 	c3	0x4f535f
    4764:	45545f47 	0x45545f47
    4768:	aa005453 	swl	zero,21587(s0)
    476c:	45520a02 	0x45520a02
    4770:	544c5553 	bnel	v0,t4,19cc0 <SRAM_AP_FRONT_DATA_ADDR+0x340>
    4774:	414c505f 	0x414c505f
    4778:	44535f59 	0x44535f59
    477c:	49465f44 	0x49465f44
    4780:	00363144 	0x363144
    4784:	520a02ab 	beql	s0,t2,5234 <SRAM_AP_BANK_BACK_AL_1_SIZE+0x1234>
    4788:	4c555345 	0x4c555345
    478c:	4c505f54 	0x4c505f54
    4790:	535f5941 	beql	k0,ra,1ac98 <SRAM_OS_HEAP_ADDR+0x18>
    4794:	465f4444 	c1	0x5f4444
    4798:	37314449 	ori	s1,t9,0x4449
    479c:	0a02ac00 	j	80ab000 <AP_BANK_SPACE+0x806b000>
    47a0:	55534552 	bnel	t2,s3,15cec <SRAM_BT_EXT5_BANK_ADDR+0x16ec>
    47a4:	505f544c 	beql	v0,ra,198d8 <SRAM_FM_DRV_RDATA_ADDR+0x158>
    47a8:	5f59414c 	0x5f59414c
    47ac:	5f444453 	0x5f444453
    47b0:	31444946 	andi	a0,t2,0x4946
    47b4:	02ad0038 	0x2ad0038
    47b8:	5345520a 	beql	k0,a1,18fe4 <SRAM_CARD_UD_CACHE_ADDR+0x2e4>
    47bc:	5f544c55 	0x5f544c55
    47c0:	59414c50 	0x59414c50
    47c4:	4444535f 	0x4444535f
    47c8:	4449465f 	0x4449465f
    47cc:	ae003931 	sw	zero,14641(s0)
    47d0:	45520a02 	0x45520a02
    47d4:	544c5553 	bnel	v0,t4,19d24 <SRAM_AP_FRONT_DATA_ADDR+0x3a4>
    47d8:	414c505f 	0x414c505f
    47dc:	44535f59 	0x44535f59
    47e0:	49465f44 	0x49465f44
    47e4:	00303244 	0x303244
    47e8:	520a02af 	beql	s0,t2,52a8 <SRAM_AP_BANK_BACK_AL_1_SIZE+0x12a8>
    47ec:	4c555345 	0x4c555345
    47f0:	4c505f54 	0x4c505f54
    47f4:	535f5941 	beql	k0,ra,1acfc <SRAM_OS_HEAP_ADDR+0x7c>
    47f8:	465f4444 	c1	0x5f4444
    47fc:	31324449 	andi	s2,t1,0x4449
    4800:	0a02b000 	j	80ac000 <AP_BANK_SPACE+0x806c000>
    4804:	55534552 	bnel	t2,s3,15d50 <SRAM_BT_EXT5_BANK_ADDR+0x1750>
    4808:	505f544c 	beql	v0,ra,1993c <SRAM_FM_DRV_RDATA_ADDR+0x1bc>
    480c:	5f59414c 	0x5f59414c
    4810:	5f444453 	0x5f444453
    4814:	32444946 	andi	a0,s2,0x4946
    4818:	02b10032 	tlt	s5,s1
    481c:	5345520a 	beql	k0,a1,19048 <SRAM_CARD_UD_CACHE_ADDR+0x348>
    4820:	5f544c55 	0x5f544c55
    4824:	59414c50 	0x59414c50
    4828:	4444535f 	0x4444535f
    482c:	4449465f 	0x4449465f
    4830:	b2003332 	0xb2003332
    4834:	45520a02 	0x45520a02
    4838:	544c5553 	bnel	v0,t4,19d88 <SRAM_AP_FRONT_DATA_ADDR+0x408>
    483c:	414c505f 	0x414c505f
    4840:	44535f59 	0x44535f59
    4844:	49465f44 	0x49465f44
    4848:	00343244 	0x343244
    484c:	520a02b3 	beql	s0,t2,531c <SRAM_AP_BANK_BACK_AL_1_SIZE+0x131c>
    4850:	4c555345 	0x4c555345
    4854:	4c505f54 	0x4c505f54
    4858:	535f5941 	beql	k0,ra,1ad60 <SRAM_OS_HEAP_ADDR+0xe0>
    485c:	465f4444 	c1	0x5f4444
    4860:	35324449 	ori	s2,t1,0x4449
    4864:	0a02b400 	j	80ad000 <AP_BANK_SPACE+0x806d000>
    4868:	55534552 	bnel	t2,s3,15db4 <SRAM_BT_EXT5_BANK_ADDR+0x17b4>
    486c:	455f544c 	0x455f544c
    4870:	5245544e 	beql	s2,a1,199ac <SRAM_AP_FRONT_DATA_ADDR+0x2c>
    4874:	5f54425f 	0x5f54425f
    4878:	00504244 	0x504244
    487c:	520a02b5 	beql	s0,t2,5354 <SRAM_AP_BANK_BACK_AL_1_SIZE+0x1354>
    4880:	4c555345 	0x4c555345
    4884:	49445f54 	0x49445f54
    4888:	474f4c41 	c1	0x14f4c41
    488c:	004b4f5f 	0x4b4f5f
    4890:	520a0480 	beql	s0,t2,5a94 <SRAM_AP_BANK_BACK_AL_1_SIZE+0x1a94>
    4894:	4c555345 	0x4c555345
    4898:	49445f54 	0x49445f54
    489c:	474f4c41 	c1	0x14f4c41
    48a0:	4e41435f 	c3	0x41435f
    48a4:	004c4543 	0x4c4543
    48a8:	520a0481 	beql	s0,t2,5ab0 <SRAM_AP_BANK_BACK_AL_1_SIZE+0x1ab0>
    48ac:	4c555345 	0x4c555345
    48b0:	49445f54 	0x49445f54
    48b4:	474f4c41 	c1	0x14f4c41
    48b8:	4f42415f 	c3	0x142415f
    48bc:	82005452 	lb	zero,21586(s0)
    48c0:	45520a04 	0x45520a04
    48c4:	544c5553 	bnel	v0,t4,19e14 <SRAM_AP_FRONT_DATA_ADDR+0x494>
    48c8:	4149445f 	0x4149445f
    48cc:	5f474f4c 	0x5f474f4c
    48d0:	52544552 	beql	s2,s4,15e1c <SRAM_BT_EXT5_BANK_ADDR+0x181c>
    48d4:	04830059 	bgezl	a0,4a3c <SRAM_AP_BANK_BACK_AL_1_SIZE+0xa3c>
    48d8:	5345520a 	beql	k0,a1,19104 <SRAM_CARD_UD_CACHE_ADDR+0x404>
    48dc:	5f544c55 	0x5f544c55
    48e0:	4c414944 	0x4c414944
    48e4:	495f474f 	0x495f474f
    48e8:	524f4e47 	beql	s2,t7,18208 <SRAM_FS_DATA_ADDR+0x208>
    48ec:	04840045 	0x4840045
    48f0:	5345520a 	beql	k0,a1,1911c <SRAM_CARD_UD_CACHE_ADDR+0x41c>
    48f4:	5f544c55 	0x5f544c55
    48f8:	4c414944 	0x4c414944
    48fc:	595f474f 	0x595f474f
    4900:	85005345 	lh	zero,21317(t0)
    4904:	45520a04 	0x45520a04
    4908:	544c5553 	bnel	v0,t4,19e58 <SRAM_AP_FRONT_DATA_ADDR+0x4d8>
    490c:	4149445f 	0x4149445f
    4910:	5f474f4c 	0x5f474f4c
    4914:	86004f4e 	lh	zero,20302(s0)
    4918:	45520a04 	0x45520a04
    491c:	544c5553 	bnel	v0,t4,19e6c <SRAM_AP_FRONT_DATA_ADDR+0x4ec>
    4920:	4149445f 	0x4149445f
    4924:	5f474f4c 	0x5f474f4c
    4928:	434e4143 	c0	0x14e4143
    492c:	415f4c45 	0x415f4c45
    4930:	004f5455 	0x4f5455
    4934:	520a0487 	beql	s0,t2,5b54 <SRAM_AP_BANK_BACK_AL_1_SIZE+0x1b54>
    4938:	4c555345 	0x4c555345
    493c:	49445f54 	0x49445f54
    4940:	474f4c41 	c1	0x14f4c41
    4944:	4253555f 	c0	0x53555f
    4948:	554f535f 	bnel	t2,t7,196c8 <SRAM_AP_BACK_DATA_ADDR+0x148>
    494c:	8800444e 	lwl	zero,17486(zero)
    4950:	45520a04 	0x45520a04
    4954:	544c5553 	bnel	v0,t4,19ea4 <SRAM_AP_FRONT_DATA_ADDR+0x524>
    4958:	4149445f 	0x4149445f
    495c:	5f474f4c 	0x5f474f4c
    4960:	594c4e4f 	0x594c4e4f
    4964:	4148435f 	0x4148435f
    4968:	00454752 	0x454752
    496c:	520a0489 	beql	s0,t2,5b94 <SRAM_AP_BANK_BACK_AL_1_SIZE+0x1b94>
    4970:	4c555345 	0x4c555345
    4974:	49485f54 	0x49485f54
    4978:	45535f44 	0x45535f44
    497c:	4b5f444e 	c2	0x15f444e
    4980:	455f5945 	0x455f5945
    4984:	544e4556 	bnel	v0,t6,15ee0 <SRAM_BT_EXT5_BANK_ADDR+0x18e0>
    4988:	00048a00 	sll	s1,a0,0x8
    498c:	7070610d 	0x7070610d
    4990:	7365725f 	udi15	k1,a1,t6,0x9
    4994:	5f746c75 	0x5f746c75
    4998:	80030065 	lb	v1,101(zero)
    499c:	00059f01 	0x59f01
    49a0:	0d5a0e00 	jal	5683800 <AP_BANK_SPACE+0x5643800>
    49a4:	03040000 	0x3040000
    49a8:	660f01ae 	0x660f01ae
    49ac:	5f716572 	0x5f716572
    49b0:	65646f6d 	0x65646f6d
    49b4:	01ab0300 	0x1ab0300
    49b8:	00000137 	0x137
    49bc:	0f002302 	jal	c008c08 <AP_BANK_SPACE+0xbfc8c08>
    49c0:	6f697067 	0x6f697067
    49c4:	76656c5f 	jalx	995b17c <AP_BANK_SPACE+0x991b17c>
    49c8:	03006c65 	0x3006c65
    49cc:	013701ac 	0x13701ac
    49d0:	23020000 	addi	v0,t8,0
    49d4:	65720f01 	0x65720f01
    49d8:	ad030076 	sw	v1,118(t0)
    49dc:	00015001 	movt	t2,zero,$fcc0
    49e0:	02230200 	0x2230200
    49e4:	4d460d00 	0x4d460d00
    49e8:	696e695f 	0x696e695f
    49ec:	61705f74 	0x61705f74
    49f0:	745f6d72 	jalx	17db5c8 <AP_BANK_SPACE+0x179b5c8>
    49f4:	01ae0300 	0x1ae0300
    49f8:	00000d16 	0xd16
    49fc:	000dba09 	0xdba09
    4a00:	72020100 	0x72020100
    4a04:	474e450a 	c1	0x14e450a
    4a08:	5f454e49 	0x5f454e49
    4a0c:	54415453 	bnel	v0,at,19b5c <SRAM_AP_FRONT_DATA_ADDR+0x1dc>
    4a10:	554e5f45 	bnel	t2,t6,1c728 <SRAM_OS_TASK_STACK_ADDR+0x1128>
    4a14:	00004c4c 	syscall	0x131
    4a18:	474e450a 	c1	0x14e450a
    4a1c:	5f454e49 	0x5f454e49
    4a20:	54415453 	bnel	v0,at,19b70 <SRAM_AP_FRONT_DATA_ADDR+0x1f0>
    4a24:	4c505f45 	0x4c505f45
    4a28:	4e495941 	c3	0x495941
    4a2c:	0a010047 	j	804011c <AP_BANK_SPACE+0x800011c>
    4a30:	49474e45 	0x49474e45
    4a34:	535f454e 	beql	k0,ra,15f70 <SRAM_BT_EXT5_BANK_ADDR+0x1970>
    4a38:	45544154 	0x45544154
    4a3c:	5541505f 	bnel	t2,at,18bbc <SRAM_FS_BUF_ADDR+0x8bc>
    4a40:	02004553 	0x2004553
    4a44:	6e650300 	0x6e650300
    4a48:	656e6967 	0x656e6967
    4a4c:	6174735f 	0x6174735f
    4a50:	655f6574 	0x655f6574
    4a54:	71790200 	0x71790200
    4a58:	0e00000d 	jal	8000034 <AP_BANK_SPACE+0x7fc0034>
    4a5c:	00001070 	tge	zero,zero,0x41
    4a60:	0132021c 	0x132021c
    4a64:	676e650f 	0x676e650f
    4a68:	5f656e69 	0x5f656e69
    4a6c:	65707974 	0x65707974
    4a70:	01070200 	0x1070200
    4a74:	00000137 	0x137
    4a78:	10002302 	b	d684 <SROM_FS_ADDR+0x1684>
    4a7c:	000000c0 	ehb
    4a80:	37010902 	ori	at,t8,0x902
    4a84:	02000001 	movf	zero,s0,$fcc0
    4a88:	610f0123 	0x610f0123
    4a8c:	735f7070 	0x735f7070
    4a90:	65746174 	0x65746174
    4a94:	010b0200 	0x10b0200
    4a98:	00000137 	0x137
    4a9c:	0f022302 	jal	c088c08 <AP_BANK_SPACE+0xc048c08>
    4aa0:	735f6975 	0x735f6975
    4aa4:	75746174 	jalx	5d185d0 <AP_BANK_SPACE+0x5cd85d0>
    4aa8:	0d020073 	jal	40801cc <AP_BANK_SPACE+0x40401cc>
    4aac:	00013701 	0x13701
    4ab0:	03230200 	0x3230200
    4ab4:	6e5f670f 	0x6e5f670f
    4ab8:	75735f6f 	jalx	5cd7dbc <AP_BANK_SPACE+0x5c97dbc>
    4abc:	726f7070 	0x726f7070
    4ac0:	74745f74 	jalx	1d17dd0 <AP_BANK_SPACE+0x1cd7dd0>
    4ac4:	6c665f73 	0x6c665f73
    4ac8:	02006761 	0x2006761
    4acc:	01370112 	0x1370112
    4ad0:	23020000 	addi	v0,t8,0
    4ad4:	5f670f04 	0x5f670f04
    4ad8:	646e6573 	0x646e6573
    4adc:	6978655f 	0x6978655f
    4ae0:	6d6d5f74 	0x6d6d5f74
    4ae4:	74745f6d 	jalx	1d17db4 <AP_BANK_SPACE+0x1cd7db4>
    4ae8:	13020073 	beq	t8,v0,4cb8 <SRAM_AP_BANK_BACK_AL_1_SIZE+0xcb8>
    4aec:	00013701 	0x13701
    4af0:	05230200 	bgezl	t1,52f4 <SRAM_AP_BANK_BACK_AL_1_SIZE+0x12f4>
    4af4:	776f7011 	jalx	dbdc044 <AP_BANK_SPACE+0xdb9c044>
    4af8:	6f5f7265 	0x6f5f7265
    4afc:	6c665f6e 	0x6c665f6e
    4b00:	02006761 	0x2006761
    4b04:	01370114 	0x1370114
    4b08:	04010000 	b	4b0c <SRAM_AP_BANK_BACK_AL_1_SIZE+0xb0c>
    4b0c:	06230204 	bgezl	s1,5320 <SRAM_AP_BANK_BACK_AL_1_SIZE+0x1320>
    4b10:	75747311 	jalx	5d1cc44 <AP_BANK_SPACE+0x5cdcc44>
    4b14:	6f6d5f62 	0x6f6d5f62
    4b18:	665f6564 	0x665f6564
    4b1c:	0067616c 	0x67616c
    4b20:	37011502 	ori	at,t8,0x1502
    4b24:	01000001 	movf	zero,t0,$fcc0
    4b28:	23020004 	addi	v0,t8,4
    4b2c:	6f730f06 	0x6f730f06
    4b30:	5f646e75 	0x5f646e75
    4b34:	74617473 	jalx	185d1cc <AP_BANK_SPACE+0x181d1cc>
    4b38:	18020065 	0x18020065
    4b3c:	00013701 	0x13701
    4b40:	07230200 	bgezl	t9,5344 <SRAM_AP_BANK_BACK_AL_1_SIZE+0x1344>
    4b44:	7869660f 	0x7869660f
    4b48:	6d61735f 	0x6d61735f
    4b4c:	5f656c70 	0x5f656c70
    4b50:	65746172 	0x65746172
    4b54:	616c665f 	0x616c665f
    4b58:	1a020067 	0x1a020067
    4b5c:	00013701 	0x13701
    4b60:	08230200 	j	8c0800 <AP_BANK_SPACE+0x880800>
    4b64:	7461620f 	jalx	185883c <AP_BANK_SPACE+0x181883c>
    4b68:	79726574 	0x79726574
    4b6c:	7065725f 	udi15	v1,a1,t6,0x9
    4b70:	5f74726f 	0x5f74726f
    4b74:	62616e65 	0x62616e65
    4b78:	0200656c 	0x200656c
    4b7c:	0137011d 	0x137011d
    4b80:	23020000 	addi	v0,t8,0
    4b84:	6e650f09 	0x6e650f09
    4b88:	79677265 	0x79677265
    4b8c:	6176615f 	0x6176615f
    4b90:	62616c69 	0x62616c69
    4b94:	665f656c 	0x665f656c
    4b98:	0067616c 	0x67616c
    4b9c:	97012002 	lhu	at,8194(t8)
    4ba0:	02000000 	0x2000000
    4ba4:	700f0a23 	0x700f0a23
    4ba8:	656e655f 	0x656e655f
    4bac:	5f796772 	0x5f796772
    4bb0:	756c6176 	jalx	5b185d8 <AP_BANK_SPACE+0x5ad85d8>
    4bb4:	21020065 	addi	v0,t0,101
    4bb8:	00107001 	movf	t6,zero,$fcc4
    4bbc:	0c230200 	jal	8c0800 <AP_BANK_SPACE+0x880800>
    4bc0:	655f700f 	0x655f700f
    4bc4:	6772656e 	0x6772656e
    4bc8:	61765f79 	0x61765f79
    4bcc:	5f65756c 	0x5f65756c
    4bd0:	646e6162 	0x646e6162
    4bd4:	24020073 	li	v0,115
    4bd8:	00107001 	movf	t6,zero,$fcc4
    4bdc:	10230200 	beq	at,v1,53e0 <SRAM_AP_BANK_BACK_AL_1_SIZE+0x13e0>
    4be0:	655f700f 	0x655f700f
    4be4:	6772656e 	0x6772656e
    4be8:	61765f79 	0x61765f79
    4bec:	5f65756c 	0x5f65756c
    4bf0:	71657266 	0x71657266
    4bf4:	25020073 	addiu	v0,t0,115
    4bf8:	00107001 	movf	t6,zero,$fcc4
    4bfc:	14230200 	bne	at,v1,5400 <SRAM_AP_BANK_BACK_AL_1_SIZE+0x1400>
    4c00:	7574730f 	jalx	5d1cc3c <AP_BANK_SPACE+0x5cdcc3c>
    4c04:	63705f62 	0x63705f62
    4c08:	6f6f745f 	0x6f6f745f
    4c0c:	745f736c 	jalx	17dcdb0 <AP_BANK_SPACE+0x179cdb0>
    4c10:	00657079 	0x657079
    4c14:	37012802 	ori	at,t8,0x2802
    4c18:	02000001 	movf	zero,s0,$fcc0
    4c1c:	da101823 	ldc2	$16,6179(s0)
    4c20:	02000000 	0x2000000
    4c24:	01370129 	0x1370129
    4c28:	23020000 	addi	v0,t8,0
    4c2c:	69621119 	0x69621119
    4c30:	756e5f6e 	jalx	5b97db8 <AP_BANK_SPACE+0x5b57db8>
    4c34:	7265626d 	0x7265626d
    4c38:	012b0200 	0x12b0200
    4c3c:	00000137 	0x137
    4c40:	02050301 	0x2050301
    4c44:	77111a23 	jalx	c44688c <AP_BANK_SPACE+0xc40688c>
    4c48:	73657661 	0x73657661
    4c4c:	6561645f 	0x6561645f
    4c50:	7261705f 	udi15	s3,at,t6,0x1
    4c54:	70755f61 	0x70755f61
    4c58:	65746164 	0x65746164
    4c5c:	616c665f 	0x616c665f
    4c60:	2c020067 	sltiu	v0,zero,103
    4c64:	00013701 	0x13701
    4c68:	04010100 	b	506c <SRAM_AP_BANK_BACK_AL_1_SIZE+0x106c>
    4c6c:	111a2302 	beq	t0,k0,d878 <SROM_FS_ADDR+0x1878>
    4c70:	5f6f7774 	0x5f6f7774
    4c74:	6e6f6870 	0x6e6f6870
    4c78:	6f6d5f65 	0x6f6d5f65
    4c7c:	02006564 	0x2006564
    4c80:	0137012d 	0x137012d
    4c84:	01010000 	0x1010000
    4c88:	1a230203 	0x1a230203
    4c8c:	696f7611 	0x696f7611
    4c90:	725f6563 	0x725f6563
    4c94:	6e6f6365 	0x6e6f6365
    4c98:	7a696e67 	0x7a696e67
    4c9c:	6f6d5f65 	0x6f6d5f65
    4ca0:	02006564 	0x2006564
    4ca4:	0137012e 	0x137012e
    4ca8:	01010000 	0x1010000
    4cac:	1a230202 	0x1a230202
    4cb0:	696f7611 	0x696f7611
    4cb4:	725f6563 	0x725f6563
    4cb8:	6e676365 	0x6e676365
    4cbc:	5f657a69 	0x5f657a69
    4cc0:	706f7473 	0x706f7473
    4cc4:	646f6d5f 	0x646f6d5f
    4cc8:	2f020065 	sltiu	v0,t8,101
    4ccc:	00013701 	0x13701
    4cd0:	01010100 	0x1010100
    4cd4:	111a2302 	beq	t0,k0,d8e0 <SROM_FS_ADDR+0x18e0>
    4cd8:	72616d73 	0x72616d73
    4cdc:	75625f74 	jalx	5897dd0 <AP_BANK_SPACE+0x5857dd0>
    4ce0:	72745f66 	0x72745f66
    4ce4:	5f736e61 	0x5f736e61
    4ce8:	67616c66 	0x67616c66
    4cec:	01310200 	0x1310200
    4cf0:	00000137 	0x137
    4cf4:	02000101 	0x2000101
    4cf8:	06001a23 	bltz	s0,b588 <SRAM_AP_BANK_FRONT_BASAL_ADDR+0x588>
    4cfc:	0000c904 	0xc904
    4d00:	70610d00 	0x70610d00
    4d04:	6e695f70 	0x6e695f70
    4d08:	735f6f66 	0x735f6f66
    4d0c:	65746174 	0x65746174
    4d10:	6c6c615f 	0x6c6c615f
    4d14:	0200745f 	0x200745f
    4d18:	0dd00132 	jal	74004c8 <AP_BANK_SPACE+0x73c04c8>
    4d1c:	f90e0000 	sdc2	$14,0(t0)
    4d20:	18000012 	blez	zero,4d6c <SRAM_AP_BANK_BACK_AL_1_SIZE+0xd6c>
    4d24:	0f016b02 	jal	c05ac08 <AP_BANK_SPACE+0xc01ac08>
    4d28:	6574756d 	0x6574756d
    4d2c:	6174735f 	0x6174735f
    4d30:	02006574 	teq	s0,zero,0x195
    4d34:	0097013a 	0x97013a
    4d38:	23020000 	addi	v0,t8,0
    4d3c:	61700f00 	0x61700f00
    4d40:	646f6d5f 	0x646f6d5f
    4d44:	3c020065 	lui	v0,0x65
    4d48:	00009701 	0x9701
    4d4c:	01230200 	0x1230200
    4d50:	756f610f 	jalx	5bd843c <AP_BANK_SPACE+0x5b9843c>
    4d54:	6f6d5f74 	0x6f6d5f74
    4d58:	02006564 	0x2006564
    4d5c:	0137013e 	0x137013e
    4d60:	23020000 	addi	v0,t8,0
    4d64:	61620f02 	0x61620f02
    4d68:	696c6b63 	0x696c6b63
    4d6c:	5f746867 	0x5f746867
    4d70:	74617473 	jalx	185d1cc <AP_BANK_SPACE+0x181d1cc>
    4d74:	40020065 	0x40020065
    4d78:	00013701 	0x13701
    4d7c:	03230200 	0x3230200
    4d80:	7261630f 	0x7261630f
    4d84:	74735f64 	jalx	1cd7d90 <AP_BANK_SPACE+0x1c97d90>
    4d88:	00657461 	0x657461
    4d8c:	37014202 	ori	at,t8,0x4202
    4d90:	02000001 	movf	zero,s0,$fcc0
    4d94:	750f0423 	jalx	43c108c <AP_BANK_SPACE+0x438108c>
    4d98:	74736f68 	jalx	1cdbda0 <AP_BANK_SPACE+0x1c9bda0>
    4d9c:	6174735f 	0x6174735f
    4da0:	02006574 	teq	s0,zero,0x195
    4da4:	01370144 	0x1370144
    4da8:	23020000 	addi	v0,t8,0
    4dac:	696c0f05 	0x696c0f05
    4db0:	6e69656e 	0x6e69656e
    4db4:	6174735f 	0x6174735f
    4db8:	02006574 	teq	s0,zero,0x195
    4dbc:	01370146 	0x1370146
    4dc0:	23020000 	addi	v0,t8,0
    4dc4:	61630f06 	0x61630f06
    4dc8:	5f656c62 	0x5f656c62
    4dcc:	74617473 	jalx	185d1cc <AP_BANK_SPACE+0x181d1cc>
    4dd0:	48020065 	0x48020065
    4dd4:	00013701 	0x13701
    4dd8:	07230200 	bgezl	t9,55dc <SRAM_AP_BANK_BACK_AL_1_SIZE+0x15dc>
    4ddc:	5f70680f 	0x5f70680f
    4de0:	74617473 	jalx	185d1cc <AP_BANK_SPACE+0x181d1cc>
    4de4:	4a020065 	c2	0x20065
    4de8:	00009701 	0x9701
    4dec:	08230200 	j	8c0800 <AP_BANK_SPACE+0x880800>
    4df0:	6168630f 	0x6168630f
    4df4:	5f656772 	0x5f656772
    4df8:	74617473 	jalx	185d1cc <AP_BANK_SPACE+0x181d1cc>
    4dfc:	4c020065 	0x4c020065
    4e00:	00013701 	0x13701
    4e04:	09230200 	j	48c0800 <AP_BANK_SPACE+0x4880800>
    4e08:	7461620f 	jalx	185883c <AP_BANK_SPACE+0x181883c>
    4e0c:	6c61765f 	0x6c61765f
    4e10:	02006575 	0x2006575
    4e14:	0137014e 	0x137014e
    4e18:	23020000 	addi	v0,t8,0
    4e1c:	69720f0a 	0x69720f0a
    4e20:	615f676e 	0x615f676e
    4e24:	6d72616c 	0x6d72616c
    4e28:	01500200 	0x1500200
    4e2c:	00000097 	0x97
    4e30:	110b2302 	beq	t0,t3,da3c <SROM_FS_ADDR+0x1a3c>
    4e34:	62757473 	0x62757473
    4e38:	6f6f745f 	0x6f6f745f
    4e3c:	745f736c 	jalx	17dcdb0 <AP_BANK_SPACE+0x179cdb0>
    4e40:	00657079 	0x657079
    4e44:	37015202 	ori	at,t8,0x5202
    4e48:	01000001 	movf	zero,t0,$fcc0
    4e4c:	23020107 	addi	v0,t8,263
    4e50:	00da120c 	syscall	0x36848
    4e54:	53020000 	beql	t8,v0,4e58 <SRAM_AP_BANK_BACK_AL_1_SIZE+0xe58>
    4e58:	00013701 	0x13701
    4e5c:	00010100 	sll	zero,at,0x4
    4e60:	0f0c2302 	jal	c308c08 <AP_BANK_SPACE+0xc2c8c08>
    4e64:	6f747561 	0x6f747561
    4e68:	74736574 	jalx	1cd95d0 <AP_BANK_SPACE+0x1c995d0>
    4e6c:	646f6d5f 	0x646f6d5f
    4e70:	55020065 	bnel	t0,v0,5008 <SRAM_AP_BANK_BACK_AL_1_SIZE+0x1008>
    4e74:	00013701 	0x13701
    4e78:	0d230200 	jal	48c0800 <AP_BANK_SPACE+0x4880800>
    4e7c:	7461700f 	jalx	185c03c <AP_BANK_SPACE+0x181c03c>
    4e80:	645f6863 	0x645f6863
    4e84:	6c6e776f 	0x6c6e776f
    4e88:	5f64616f 	0x5f64616f
    4e8c:	67616c66 	0x67616c66
    4e90:	01580200 	0x1580200
    4e94:	00000097 	0x97
    4e98:	0f0e2302 	jal	c388c08 <AP_BANK_SPACE+0xc348c08>
    4e9c:	705f7462 	0x705f7462
    4ea0:	7265776f 	0x7265776f
    4ea4:	006e6f5f 	0x6e6f5f
    4ea8:	97015a02 	lhu	at,23042(t8)
    4eac:	02000000 	0x2000000
    4eb0:	690f0f23 	0x690f0f23
    4eb4:	72656e6e 	0x72656e6e
    4eb8:	5f61705f 	0x5f61705f
    4ebc:	74696e69 	jalx	1a5b9a4 <AP_BANK_SPACE+0x1a1b9a4>
    4ec0:	02006465 	0x2006465
    4ec4:	0097015c 	0x97015c
    4ec8:	23020000 	addi	v0,t8,0
    4ecc:	756f0f10 	jalx	5bc3c40 <AP_BANK_SPACE+0x5b83c40>
    4ed0:	5f726574 	0x5f726574
    4ed4:	6f5f6170 	0x6f5f6170
    4ed8:	5e02006e 	0x5e02006e
    4edc:	00009701 	0x9701
    4ee0:	11230200 	beq	t1,v1,56e4 <SRAM_AP_BANK_BACK_AL_1_SIZE+0x16e4>
    4ee4:	7275630f 	0x7275630f
    4ee8:	6e75665f 	0x6e75665f
    4eec:	6e695f63 	0x6e695f63
    4ef0:	00786564 	0x786564
    4ef4:	37016002 	ori	at,t8,0x6002
    4ef8:	02000001 	movf	zero,s0,$fcc0
    4efc:	630f1223 	0x630f1223
    4f00:	665f7275 	0x665f7275
    4f04:	5f636e75 	0x5f636e75
    4f08:	02006469 	0x2006469
    4f0c:	01370162 	0x1370162
    4f10:	23020000 	addi	v0,t8,0
    4f14:	70610f13 	udi3	v1,at,at,0x1c
    4f18:	74735f6b 	jalx	1cd7dac <AP_BANK_SPACE+0x1c97dac>
    4f1c:	73757461 	0x73757461
    4f20:	01640200 	0x1640200
    4f24:	00000137 	0x137
    4f28:	0f142302 	jal	c508c08 <AP_BANK_SPACE+0xc4c8c08>
    4f2c:	69726576 	0x69726576
    4f30:	61636966 	0x61636966
    4f34:	6e6f6974 	0x6e6f6974
    4f38:	6174735f 	0x6174735f
    4f3c:	00737574 	teq	v1,s3,0x1d5
    4f40:	37016602 	ori	at,t8,0x6602
    4f44:	02000001 	movf	zero,s0,$fcc0
    4f48:	6e0f1523 	0x6e0f1523
    4f4c:	5f646565 	0x5f646565
    4f50:	61647075 	0x61647075
    4f54:	705f6574 	0x705f6574
    4f58:	6c79616c 	0x6c79616c
    4f5c:	00747369 	0x747369
    4f60:	37016802 	ori	at,t8,0x6802
    4f64:	02000001 	movf	zero,s0,$fcc0
    4f68:	650f1623 	0x650f1623
    4f6c:	72657478 	0x72657478
    4f70:	61625f6e 	0x61625f6e
    4f74:	6e695f74 	0x6e695f74
    4f78:	016a0200 	0x16a0200
    4f7c:	00000137 	0x137
    4f80:	00172302 	srl	a0,s7,0xc
    4f84:	7070610d 	0x7070610d
    4f88:	666e695f 	0x666e695f
    4f8c:	74735f6f 	jalx	1cd7dbc <AP_BANK_SPACE+0x1c97dbc>
    4f90:	5f657461 	0x5f657461
    4f94:	6b020074 	0x6b020074
    4f98:	00109301 	0x109301
    4f9c:	13810e00 	beq	gp,at,87a0 <SRAM_OS_RCODE_ADDR+0x7a0>
    4fa0:	02040000 	0x2040000
    4fa4:	6c0f017a 	0x6c0f017a
    4fa8:	5f747361 	0x5f747361
    4fac:	6b736964 	0x6b736964
    4fb0:	01730200 	0x1730200
    4fb4:	00000137 	0x137
    4fb8:	0f002302 	jal	c008c08 <AP_BANK_SPACE+0xbfc8c08>
    4fbc:	7473616c 	jalx	1cd85b0 <AP_BANK_SPACE+0x1c985b0>
    4fc0:	6e75665f 	0x6e75665f
    4fc4:	6e695f63 	0x6e695f63
    4fc8:	00786564 	0x786564
    4fcc:	37017502 	ori	at,t8,0x7502
    4fd0:	02000001 	movf	zero,s0,$fcc0
    4fd4:	6c0f0123 	0x6c0f0123
    4fd8:	5f747361 	0x5f747361
    4fdc:	5f737973 	0x5f737973
    4fe0:	74617473 	jalx	185d1cc <AP_BANK_SPACE+0x181d1cc>
    4fe4:	02007375 	0x2007375
    4fe8:	01370177 	0x1370177
    4fec:	23020000 	addi	v0,t8,0
    4ff0:	616c0f02 	0x616c0f02
    4ff4:	755f7473 	jalx	57dd1cc <AP_BANK_SPACE+0x579d1cc>
    4ff8:	74735f69 	jalx	1cd7da4 <AP_BANK_SPACE+0x1c97da4>
    4ffc:	73757461 	0x73757461
    5000:	01790200 	0x1790200
    5004:	00000137 	0x137
    5008:	00032302 	srl	a0,v1,0xc
    500c:	7070610d 	0x7070610d
    5010:	73616c5f 	udi15	k1,at,t5,0x11
    5014:	74735f74 	jalx	1cd7dd0 <AP_BANK_SPACE+0x1c97dd0>
    5018:	5f657461 	0x5f657461
    501c:	7a020074 	0x7a020074
    5020:	00131201 	0x131201
    5024:	14280900 	bne	at,t0,7428 <SRAM_AP_BACK_AL_RCODE_1_SIZE+0x428>
    5028:	07010000 	bgez	t8,502c <SRAM_AP_BANK_BACK_AL_1_SIZE+0x102c>
    502c:	554f0a38 	bnel	t2,t7,7910 <SRAM_AP_BACK_AL_RCODE_1_SIZE+0x910>
    5030:	54555054 	bnel	v0,s5,19184 <SRAM_CARD_UD_CACHE_ADDR+0x484>
    5034:	4148435f 	0x4148435f
    5038:	4c454e4e 	0x4c454e4e
    503c:	524f4e5f 	beql	s2,t7,189bc <SRAM_FS_BUF_ADDR+0x6bc>
    5040:	004c414d 	break	0x4c,0x105
    5044:	554f0a00 	bnel	t2,t7,7848 <SRAM_AP_BACK_AL_RCODE_1_SIZE+0x848>
    5048:	54555054 	bnel	v0,s5,1919c <SRAM_CARD_UD_CACHE_ADDR+0x49c>
    504c:	4148435f 	0x4148435f
    5050:	4c454e4e 	0x4c454e4e
    5054:	525f4c5f 	beql	s2,ra,181d4 <SRAM_FS_DATA_ADDR+0x1d4>
    5058:	4957535f 	0x4957535f
    505c:	00484354 	0x484354
    5060:	554f0a01 	bnel	t2,t7,7868 <SRAM_AP_BACK_AL_RCODE_1_SIZE+0x868>
    5064:	54555054 	bnel	v0,s5,191b8 <SRAM_CARD_UD_CACHE_ADDR+0x4b8>
    5068:	4148435f 	0x4148435f
    506c:	4c454e4e 	0x4c454e4e
    5070:	525f4c5f 	beql	s2,ra,181f0 <SRAM_FS_DATA_ADDR+0x1f0>
    5074:	52454d5f 	beql	s2,a1,185f4 <SRAM_FS_BUF_ADDR+0x2f4>
    5078:	02004547 	0x2004547
    507c:	54554f0a 	bnel	v0,s5,18ca8 <SRAM_FS_BUF_ADDR+0x9a8>
    5080:	5f545550 	0x5f545550
    5084:	4e414843 	c3	0x414843
    5088:	5f4c454e 	0x5f4c454e
    508c:	5f525f4c 	0x5f525f4c
    5090:	5f4c4c41 	0x5f4c4c41
    5094:	0a03004c 	j	80c0130 <AP_BANK_SPACE+0x8080130>
    5098:	5054554f 	beql	v0,s4,1a5d8 <SRAM_OS_DATA_ADDR+0x1d8>
    509c:	435f5455 	c0	0x15f5455
    50a0:	4e4e4148 	c3	0x4e4148
    50a4:	4c5f4c45 	0x4c5f4c45
    50a8:	415f525f 	0x415f525f
    50ac:	525f4c4c 	beql	s2,ra,181e0 <SRAM_FS_DATA_ADDR+0x1e0>
    50b0:	03000400 	0x3000400
    50b4:	7074756f 	0x7074756f
    50b8:	635f7475 	0x635f7475
    50bc:	6e6e6168 	0x6e6e6168
    50c0:	655f6c65 	0x655f6c65
    50c4:	9a3e0700 	lwr	s8,1792(s1)
    50c8:	0b000013 	j	c00004c <AP_BANK_SPACE+0xbfc004c>
    50cc:	00001484 	0x1484
    50d0:	0c490708 	jal	1241c20 <AP_BANK_SPACE+0x1201c20>
    50d4:	6f747563 	0x6f747563
    50d8:	07006666 	bltz	t8,1ea74 <SRAM_AP_FRONT_RCODE_ADDR+0x174>
    50dc:	00015042 	srl	t2,at,0x1
    50e0:	00230200 	0x230200
    50e4:	0700710c 	bltz	t8,21518 <SRAM_KERNEL_XSYS_ADDR+0xb18>
    50e8:	00015044 	0x15044
    50ec:	02230200 	0x2230200
    50f0:	6961670c 	0x6961670c
    50f4:	4607006e 	c1	0x7006e
    50f8:	0000015e 	0x15e
    50fc:	0c042302 	jal	108c08 <AP_BANK_SPACE+0xc8c08>
    5100:	65707974 	0x65707974
    5104:	50480700 	beql	v0,t0,6d08 <SRAM_AP_BANK_BACK_AL_1_SIZE+0x2d08>
    5108:	02000001 	movf	zero,s0,$fcc0
    510c:	03000623 	0x3000623
    5110:	5f716570 	0x5f716570
    5114:	646e6162 	0x646e6162
    5118:	0700745f 	bltz	t8,22298 <SRAM_AP_BANK_BACK_BASAL_ADDR+0x498>
    511c:	00144049 	0x144049
    5120:	14e10b00 	bne	a3,at,7d24 <SRAM_AP_BACK_AL_RCODE_1_SIZE+0xd24>
    5124:	07080000 	tgei	t8,0
    5128:	68740c50 	0x68740c50
    512c:	68736572 	0x68736572
    5130:	00646c6f 	0x646c6f
    5134:	00c94c07 	0xc94c07
    5138:	23020000 	addi	v0,t8,0
    513c:	00b41300 	0xb41300
    5140:	4d070000 	0x4d070000
    5144:	000000c9 	0xc9
    5148:	13022302 	beq	t8,v0,dd54 <SROM_SPINOR1_ADDR+0x154>
    514c:	000000cd 	break	0x0,0x3
    5150:	00c94e07 	0xc94e07
    5154:	23020000 	addi	v0,t8,0
    5158:	65720c04 	0x65720c04
    515c:	76726573 	jalx	9c995cc <AP_BANK_SPACE+0x9c595cc>
    5160:	4f070065 	c3	0x1070065
    5164:	000000c9 	0xc9
    5168:	00062302 	srl	a0,a2,0xc
    516c:	72646d03 	0x72646d03
    5170:	61625f63 	0x61625f63
    5174:	745f646e 	jalx	17d91b8 <AP_BANK_SPACE+0x17991b8>
    5178:	96500700 	lhu	s0,1792(s2)
    517c:	0b000014 	j	c000050 <AP_BANK_SPACE+0xbfc0050>
    5180:	0000151d 	0x151d
    5184:	0c570704 	jal	15c1c10 <AP_BANK_SPACE+0x1581c10>
    5188:	6f747563 	0x6f747563
    518c:	07006666 	bltz	t8,1eb28 <SRAM_AP_FRONT_RCODE_ADDR+0x228>
    5190:	00015054 	0x15054
    5194:	00230200 	0x230200
    5198:	6961670c 	0x6961670c
    519c:	5607006e 	bnel	s0,a3,5358 <SRAM_AP_BANK_BACK_AL_1_SIZE+0x1358>
    51a0:	0000015e 	0x15e
    51a4:	00022302 	srl	a0,v0,0xc
    51a8:	65616403 	0x65616403
    51ac:	686e655f 	0x686e655f
    51b0:	6165775f 	0x6165775f
    51b4:	5f6e656b 	0x5f6e656b
    51b8:	646e6162 	0x646e6162
    51bc:	0700745f 	bltz	t8,2233c <SRAM_AP_BANK_BACK_BASAL_ADDR+0x53c>
    51c0:	0014f457 	0x14f457
    51c4:	15a80b00 	bne	t5,t0,7dc8 <SRAM_AP_BACK_AL_RCODE_1_SIZE+0xdc8>
    51c8:	072c0000 	teqi	t9,0
    51cc:	756e0c61 	jalx	5b83184 <AP_BANK_SPACE+0x5b43184>
    51d0:	61625f6d 	0x61625f6d
    51d4:	0700646e 	bltz	t8,1e390 <SRAM_BT_HCI_BUF_ADDR+0xa90>
    51d8:	0001375c 	0x1375c
    51dc:	00230200 	0x230200
    51e0:	6d756e0c 	0x6d756e0c
    51e4:	6572665f 	0x6572665f
    51e8:	6f705f71 	0x6f705f71
    51ec:	00746e69 	0x746e69
    51f0:	01375d07 	0x1375d07
    51f4:	23020000 	addi	v0,t8,0
    51f8:	75640c01 	jalx	5903004 <AP_BANK_SPACE+0x58c3004>
    51fc:	69746172 	0x69746172
    5200:	6d5f6e6f 	0x6d5f6e6f
    5204:	5e070073 	0x5e070073
    5208:	000000c9 	0xc9
    520c:	0c022302 	jal	88c08 <AP_BANK_SPACE+0x48c08>
    5210:	00635f66 	0x635f66
    5214:	01a55f07 	0x1a55f07
    5218:	23020000 	addi	v0,t8,0
    521c:	72660c04 	0x72660c04
    5220:	705f7165 	0x705f7165
    5224:	746e696f 	jalx	1b9a5bc <AP_BANK_SPACE+0x1b5a5bc>
    5228:	a5600700 	sh	zero,1792(t3)
    522c:	02000001 	movf	zero,s0,$fcc0
    5230:	03001823 	subu	v1,t8,zero
    5234:	5f656164 	0x5f656164
    5238:	72747461 	0x72747461
    523c:	74756269 	jalx	1d589a4 <AP_BANK_SPACE+0x1d189a4>
    5240:	745f7365 	jalx	17dcd94 <AP_BANK_SPACE+0x179cd94>
    5244:	3a610700 	xori	at,s3,0x700
    5248:	0b000015 	j	c000054 <AP_BANK_SPACE+0xbfc0054>
    524c:	00001631 	tgeu	zero,zero,0x58
    5250:	1370070e 	beq	k1,s0,6e8c <SRAM_AP_BANK_BACK_AL_1_SIZE+0x2e8c>
    5254:	000000e8 	0xe8
    5258:	00c96907 	0xc96907
    525c:	23020000 	addi	v0,t8,0
    5260:	61720c00 	0x61720c00
    5264:	316f6974 	andi	t7,t3,0x6974
    5268:	c96a0700 	lwc2	$10,1792(t3)
    526c:	02000000 	0x2000000
    5270:	f3130223 	0xf3130223
    5274:	07000000 	bltz	t8,5278 <SRAM_AP_BANK_BACK_AL_1_SIZE+0x1278>
    5278:	0000c96b 	0xc96b
    527c:	04230200 	bgezl	at,5a80 <SRAM_AP_BANK_BACK_AL_1_SIZE+0x1a80>
    5280:	7461720c 	jalx	185c830 <AP_BANK_SPACE+0x181c830>
    5284:	00326f69 	0x326f69
    5288:	00c96c07 	0xc96c07
    528c:	23020000 	addi	v0,t8,0
    5290:	61740c06 	0x61740c06
    5294:	6d070076 	0x6d070076
    5298:	000000c9 	0xc9
    529c:	13082302 	beq	t8,t0,dea8 <SROM_SPINOR1_ADDR+0x2a8>
    52a0:	000000b4 	teq	zero,zero,0x2
    52a4:	00c96e07 	0xc96e07
    52a8:	23020000 	addi	v0,t8,0
    52ac:	00cd130a 	0xcd130a
    52b0:	6f070000 	0x6f070000
    52b4:	000000c9 	0xc9
    52b8:	000c2302 	srl	a0,t4,0xc
    52bc:	65616403 	0x65616403
    52c0:	6d6f635f 	0x6d6f635f
    52c4:	73657270 	0x73657270
    52c8:	5f726f73 	0x5f726f73
    52cc:	6e617473 	0x6e617473
    52d0:	64726164 	0x64726164
    52d4:	646f6d5f 	0x646f6d5f
    52d8:	00745f65 	0x745f65
    52dc:	15c07007 	bnez	t6,212fc <SRAM_KERNEL_XSYS_ADDR+0x8fc>
    52e0:	f00b0000 	0xf00b0000
    52e4:	10000016 	b	5340 <SRAM_AP_BANK_BACK_AL_1_SIZE+0x1340>
    52e8:	e8137b07 	swc2	$19,31495(zero)
    52ec:	07000000 	bltz	t8,52f0 <SRAM_AP_BANK_BACK_AL_1_SIZE+0x12f0>
    52f0:	0000c973 	tltu	zero,zero,0x325
    52f4:	00230200 	0x230200
    52f8:	6d6f630c 	0x6d6f630c
    52fc:	73657270 	0x73657270
    5300:	61725f73 	0x61725f73
    5304:	316f6974 	andi	t7,t3,0x6974
    5308:	c9740700 	lwc2	$20,1792(t3)
    530c:	02000000 	0x2000000
    5310:	f3130223 	0xf3130223
    5314:	07000000 	bltz	t8,5318 <SRAM_AP_BANK_BACK_AL_1_SIZE+0x1318>
    5318:	0000c975 	0xc975
    531c:	04230200 	bgezl	at,5b20 <SRAM_AP_BANK_BACK_AL_1_SIZE+0x1b20>
    5320:	6d6f630c 	0x6d6f630c
    5324:	73657270 	0x73657270
    5328:	61725f73 	0x61725f73
    532c:	326f6974 	andi	t7,s3,0x6974
    5330:	c9760700 	lwc2	$22,1792(t3)
    5334:	02000000 	0x2000000
    5338:	740c0623 	jalx	30188c <AP_BANK_SPACE+0x2c188c>
    533c:	745f7661 	jalx	17dd984 <AP_BANK_SPACE+0x179d984>
    5340:	00656d69 	0x656d69
    5344:	00c97707 	0xc97707
    5348:	23020000 	addi	v0,t8,0
    534c:	00b41308 	0xb41308
    5350:	78070000 	0x78070000
    5354:	000000c9 	0xc9
    5358:	130a2302 	beq	t8,t2,df64 <SROM_SPINOR1_ADDR+0x364>
    535c:	000000cd 	break	0x0,0x3
    5360:	00c97907 	0xc97907
    5364:	23020000 	addi	v0,t8,0
    5368:	616d0c0c 	0x616d0c0c
    536c:	7075656b 	0x7075656b
    5370:	c97a0700 	lwc2	$26,1792(t3)
    5374:	02000000 	0x2000000
    5378:	03000e23 	0x3000e23
    537c:	5f656164 	0x5f656164
    5380:	6372646d 	0x6372646d
    5384:	6e61625f 	0x6e61625f
    5388:	74735f64 	jalx	1cd7d90 <AP_BANK_SPACE+0x1c97d90>
    538c:	61646e61 	0x61646e61
    5390:	6d5f6472 	0x6d5f6472
    5394:	5f65646f 	0x5f65646f
    5398:	7b070074 	0x7b070074
    539c:	00001657 	0x1657
    53a0:	0017820b 	0x17820b
    53a4:	82070800 	lb	a3,2048(s0)
    53a8:	6769730c 	0x6769730c
    53ac:	5f6c616e 	0x5f6c616e
    53b0:	756a6461 	jalx	5a99184 <AP_BANK_SPACE+0x5a59184>
    53b4:	07007473 	bltz	t8,22584 <SRAM_BT_HEAD_ADDR+0x184>
    53b8:	00015e7e 	0x15e7e
    53bc:	00230200 	0x230200
    53c0:	72646d0c 	0x72646d0c
    53c4:	72635f63 	0x72635f63
    53c8:	6f73736f 	0x6f73736f
    53cc:	5f726576 	0x5f726576
    53d0:	71657266 	0x71657266
    53d4:	7f070030 	0x7f070030
    53d8:	000000c9 	0xc9
    53dc:	0c022302 	jal	88c08 <AP_BANK_SPACE+0x48c08>
    53e0:	6372646d 	0x6372646d
    53e4:	6f72635f 	0x6f72635f
    53e8:	766f7373 	jalx	9bdcdcc <AP_BANK_SPACE+0x9b9cdcc>
    53ec:	665f7265 	0x665f7265
    53f0:	31716572 	andi	s1,t3,0x6572
    53f4:	c9800700 	lwc2	$0,1792(t4)
    53f8:	02000000 	0x2000000
    53fc:	fe130423 	sdc3	$19,1059(s0)
    5400:	07000000 	bltz	t8,5404 <SRAM_AP_BANK_BACK_AL_1_SIZE+0x1404>
    5404:	00015e81 	0x15e81
    5408:	06230200 	bgezl	s1,5c0c <SRAM_AP_BANK_BACK_AL_1_SIZE+0x1c0c>
    540c:	646d0300 	0x646d0300
    5410:	655f6372 	0x655f6372
    5414:	6e657478 	0x6e657478
    5418:	61705f64 	0x61705f64
    541c:	735f6172 	0x735f6172
    5420:	646e6174 	0x646e6174
    5424:	5f647261 	0x5f647261
    5428:	65646f6d 	0x65646f6d
    542c:	0700745f 	bltz	t8,225ac <SRAM_BT_HEAD_ADDR+0x1ac>
    5430:	00171582 	srl	v0,s7,0x16
    5434:	18670b00 	0x18670b00
    5438:	07080000 	tgei	t8,0
    543c:	444d0c8a 	0x444d0c8a
    5440:	635f4352 	0x635f4352
    5444:	65706d6f 	0x65706d6f
    5448:	7461736e 	jalx	185cdb8 <AP_BANK_SPACE+0x181cdb8>
    544c:	5f6e6f69 	0x5f6e6f69
    5450:	65726874 	0x65726874
    5454:	6c6f6873 	0x6c6f6873
    5458:	86070064 	lh	a3,100(s0)
    545c:	000000c9 	0xc9
    5460:	0c002302 	jal	8c08 <SRAM_SPINOR_RCODE_ADDR+0x8>
    5464:	4352444d 	c0	0x152444d
    5468:	6d6f635f 	0x6d6f635f
    546c:	736e6570 	0x736e6570
    5470:	6f697461 	0x6f697461
    5474:	65705f6e 	0x65705f6e
    5478:	645f6b61 	0x645f6b61
    547c:	63657465 	0x63657465
    5480:	74615f74 	jalx	1857dd0 <AP_BANK_SPACE+0x1817dd0>
    5484:	6b636174 	0x6b636174
    5488:	6d69745f 	0x6d69745f
    548c:	87070065 	lh	a3,101(t8)
    5490:	000000c9 	0xc9
    5494:	0c022302 	jal	88c08 <AP_BANK_SPACE+0x48c08>
    5498:	4352444d 	c0	0x152444d
    549c:	6d6f635f 	0x6d6f635f
    54a0:	736e6570 	0x736e6570
    54a4:	6f697461 	0x6f697461
    54a8:	65705f6e 	0x65705f6e
    54ac:	645f6b61 	0x645f6b61
    54b0:	63657465 	0x63657465
    54b4:	65725f74 	0x65725f74
    54b8:	7361656c 	0x7361656c
    54bc:	69745f65 	0x69745f65
    54c0:	0700656d 	bltz	t8,1ea78 <SRAM_AP_FRONT_RCODE_ADDR+0x178>
    54c4:	0000c988 	0xc988
    54c8:	04230200 	bgezl	at,5ccc <SRAM_AP_BANK_BACK_AL_1_SIZE+0x1ccc>
    54cc:	52444d0c 	beql	s2,a0,18900 <SRAM_FS_BUF_ADDR+0x600>
    54d0:	6f635f43 	0x6f635f43
    54d4:	6e65706d 	0x6e65706d
    54d8:	69746173 	0x69746173
    54dc:	665f6e6f 	0x665f6e6f
    54e0:	65746c69 	0x65746c69
    54e4:	00515f72 	tlt	v0,s1,0x17d
    54e8:	00c98907 	0xc98907
    54ec:	23020000 	addi	v0,t8,0
    54f0:	6d030006 	0x6d030006
    54f4:	5f637264 	0x5f637264
    54f8:	6b616570 	0x6b616570
    54fc:	7465645f 	jalx	195917c <AP_BANK_SPACE+0x191917c>
    5500:	5f746365 	0x5f746365
    5504:	6e617473 	0x6e617473
    5508:	64726164 	0x64726164
    550c:	646f6d5f 	0x646f6d5f
    5510:	00745f65 	0x745f65
    5514:	17aa8a07 	bne	sp,t2,fffe7d34 <get_app_msg+0x403c1804>
    5518:	b7140000 	0xb7140000
    551c:	6400001f 	0x6400001f
    5520:	010f0701 	0x10f0701
    5524:	616e650c 	0x616e650c
    5528:	00656c62 	0x656c62
    552c:	0097be07 	0x97be07
    5530:	23020000 	addi	v0,t8,0
    5534:	79620c00 	0x79620c00
    5538:	73736170 	0x73736170
    553c:	97bf0700 	lhu	ra,1792(sp)
    5540:	02000000 	0x2000000
    5544:	700c0123 	0x700c0123
    5548:	75636572 	jalx	58d95c8 <AP_BANK_SPACE+0x58995c8>
    554c:	61725f74 	0x61725f74
    5550:	006f6974 	teq	v1,t7,0x1a5
    5554:	0150c007 	srav	t8,s0,t2
    5558:	23020000 	addi	v0,t8,0
    555c:	71650c02 	0x71650c02
    5560:	61766975 	0x61766975
    5564:	746e656c 	jalx	1b995b0 <AP_BANK_SPACE+0x1b595b0>
    5568:	6961675f 	0x6961675f
    556c:	c107006e 	ll	a3,110(t0)
    5570:	00000150 	0x150
    5574:	0c042302 	jal	108c08 <AP_BANK_SPACE+0xc8c08>
    5578:	6372646d 	0x6372646d
    557c:	6572705f 	0x6572705f
    5580:	5f747563 	0x5f747563
    5584:	69746172 	0x69746172
    5588:	c207006f 	ll	a3,111(s0)
    558c:	00000137 	0x137
    5590:	13062302 	beq	t8,a2,e19c <SRAM_ASRC_BUF_0_ADDR+0x19c>
    5594:	000000fe 	0xfe
    5598:	0150c307 	0x150c307
    559c:	23020000 	addi	v0,t8,0
    55a0:	6f700c08 	0x6f700c08
    55a4:	705f7473 	0x705f7473
    55a8:	75636572 	jalx	58d95c8 <AP_BANK_SPACE+0x58995c8>
    55ac:	61725f74 	0x61725f74
    55b0:	006f6974 	teq	v1,t7,0x1a5
    55b4:	0144c407 	0x144c407
    55b8:	23020000 	addi	v0,t8,0
    55bc:	65700c0a 	0x65700c0a
    55c0:	6e655f71 	0x6e655f71
    55c4:	656c6261 	0x656c6261
    55c8:	97c50700 	lhu	a1,1792(s8)
    55cc:	02000000 	0x2000000
    55d0:	730c0b23 	0x730c0b23
    55d4:	635f6b70 	0x635f6b70
    55d8:	65706d6f 	0x65706d6f
    55dc:	7461736e 	jalx	185cdb8 <AP_BANK_SPACE+0x181cdb8>
    55e0:	5f6e6f69 	0x5f6e6f69
    55e4:	62616e65 	0x62616e65
    55e8:	0700656c 	bltz	t8,1eb9c <SRAM_AP_FRONT_RCODE_ADDR+0x29c>
    55ec:	000097c6 	0x97c6
    55f0:	0c230200 	jal	8c0800 <AP_BANK_SPACE+0x880800>
    55f4:	6162760c 	0x6162760c
    55f8:	655f7373 	0x655f7373
    55fc:	6c62616e 	0x6c62616e
    5600:	c7070065 	lwc1	$f7,101(t8)
    5604:	00000097 	0x97
    5608:	0c0d2302 	jal	348c08 <AP_BANK_SPACE+0x308c08>
    560c:	72757376 	0x72757376
    5610:	6e756f72 	0x6e756f72
    5614:	6e655f64 	0x6e655f64
    5618:	656c6261 	0x656c6261
    561c:	97c80700 	lhu	t0,1792(s8)
    5620:	02000000 	0x2000000
    5624:	740c0e23 	jalx	30388c <AP_BANK_SPACE+0x2c388c>
    5628:	6c626572 	0x6c626572
    562c:	6e655f65 	0x6e655f65
    5630:	636e6168 	0x636e6168
    5634:	6e655f65 	0x6e655f65
    5638:	656c6261 	0x656c6261
    563c:	97c90700 	lhu	t1,1792(s8)
    5640:	02000000 	0x2000000
    5644:	6d0c0f23 	0x6d0c0f23
    5648:	5f637264 	0x5f637264
    564c:	62616e65 	0x62616e65
    5650:	0700656c 	bltz	t8,1ec04 <SRAM_AP_FRONT_RCODE_ADDR+0x304>
    5654:	000097ca 	0x97ca
    5658:	10230200 	beq	at,v1,5e5c <SRAM_AP_BANK_BACK_AL_1_SIZE+0x1e5c>
    565c:	6d696c0c 	0x6d696c0c
    5660:	72657469 	0x72657469
    5664:	616e655f 	0x616e655f
    5668:	00656c62 	0x656c62
    566c:	0097cb07 	0x97cb07
    5670:	23020000 	addi	v0,t8,0
    5674:	6e650c11 	0x6e650c11
    5678:	79677265 	0x79677265
    567c:	7465645f 	jalx	195917c <AP_BANK_SPACE+0x191917c>
    5680:	5f746365 	0x5f746365
    5684:	62616e65 	0x62616e65
    5688:	0700656c 	bltz	t8,1ec3c <SRAM_AP_FRONT_RCODE_ADDR+0x33c>
    568c:	000097cc 	syscall	0x25f
    5690:	12230200 	beq	s1,v1,5e94 <SRAM_AP_BANK_BACK_AL_1_SIZE+0x1e94>
    5694:	696f6e0c 	0x696f6e0c
    5698:	725f6573 	0x725f6573
    569c:	63756465 	0x63756465
    56a0:	6e6f6974 	0x6e6f6974
    56a4:	616e655f 	0x616e655f
    56a8:	00656c62 	0x656c62
    56ac:	0097cd07 	0x97cd07
    56b0:	23020000 	addi	v0,t8,0
    56b4:	6e650c13 	0x6e650c13
    56b8:	656c6261 	0x656c6261
    56bc:	3238325f 	andi	t8,s1,0x325f
    56c0:	07005433 	bltz	t8,1a790 <SRAM_OS_DATA_ADDR+0x390>
    56c4:	000097ce 	0x97ce
    56c8:	14230200 	bne	at,v1,5ecc <SRAM_AP_BANK_BACK_AL_1_SIZE+0x1ecc>
    56cc:	6561640c 	0x6561640c
    56d0:	6972705f 	0x6972705f
    56d4:	655f746e 	0x655f746e
    56d8:	6c62616e 	0x6c62616e
    56dc:	cf070065 	pref	0x7,101(t8)
    56e0:	00000097 	0x97
    56e4:	0c152302 	jal	548c08 <AP_BANK_SPACE+0x508c08>
    56e8:	5f6e7572 	0x5f6e7572
    56ec:	71657266 	0x71657266
    56f0:	37d10700 	ori	s1,s8,0x700
    56f4:	02000001 	movf	zero,s0,$fcc0
    56f8:	700c1623 	0x700c1623
    56fc:	625f7165 	0x625f7165
    5700:	73646e61 	0x73646e61
    5704:	b7d30700 	0xb7d30700
    5708:	0200001f 	0x200001f
    570c:	700c1823 	0x700c1823
    5710:	625f7165 	0x625f7165
    5714:	5f646e61 	0x5f646e61
    5718:	62616e65 	0x62616e65
    571c:	745f656c 	jalx	17d95b0 <AP_BANK_SPACE+0x17995b0>
    5720:	00657079 	0x657079
    5724:	1fc7d407 	0x1fc7d407
    5728:	23030000 	addi	v1,t8,0
    572c:	740c01b8 	jalx	3006e0 <AP_BANK_SPACE+0x2c06e0>
    5730:	6c626572 	0x6c626572
    5734:	6e655f65 	0x6e655f65
    5738:	636e6168 	0x636e6168
    573c:	75635f65 	jalx	58d7d94 <AP_BANK_SPACE+0x5897d94>
    5740:	72665f74 	0x72665f74
    5744:	07007165 	bltz	t8,21cdc <SRAM_AP_BACK_BASAL_RCODE_ADDR+0x4dc>
    5748:	000150d6 	0x150d6
    574c:	cc230300 	pref	0x3,768(at)
    5750:	72740c01 	0x72740c01
    5754:	656c6265 	0x656c6265
    5758:	686e655f 	0x686e655f
    575c:	65636e61 	0x65636e61
    5760:	7461725f 	jalx	185c97c <AP_BANK_SPACE+0x181c97c>
    5764:	07006f69 	bltz	t8,2150c <SRAM_KERNEL_XSYS_ADDR+0xb0c>
    5768:	00015ed7 	0x15ed7
    576c:	ce230300 	pref	0x3,768(s1)
    5770:	70730c01 	0x70730c01
    5774:	6f635f6b 	0x6f635f6b
    5778:	735f706d 	0x735f706d
    577c:	6372756f 	0x6372756f
    5780:	d9070065 	ldc2	$7,101(t0)
    5784:	00000137 	0x137
    5788:	01d02303 	0x1d02303
    578c:	6b70730c 	0x6b70730c
    5790:	6d6f635f 	0x6d6f635f
    5794:	69665f70 	0x69665f70
    5798:	7265746c 	0x7265746c
    579c:	64726f5f 	0x64726f5f
    57a0:	07007265 	bltz	t8,22138 <SRAM_AP_BANK_BACK_BASAL_ADDR+0x338>
    57a4:	0000c9da 	0xc9da
    57a8:	d2230300 	0xd2230300
    57ac:	70730c01 	0x70730c01
    57b0:	6f635f6b 	0x6f635f6b
    57b4:	665f706d 	0x665f706d
    57b8:	65746c69 	0x65746c69
    57bc:	76515f72 	jalx	9457dc8 <AP_BANK_SPACE+0x9417dc8>
    57c0:	654c6c61 	0x654c6c61
    57c4:	07007466 	bltz	t8,22960 <SRAM_BT_HEAD_ADDR+0x560>
    57c8:	000137db 	0x137db
    57cc:	d4230300 	ldc1	$f3,768(at)
    57d0:	70730c01 	0x70730c01
    57d4:	6f635f6b 	0x6f635f6b
    57d8:	665f706d 	0x665f706d
    57dc:	65746c69 	0x65746c69
    57e0:	76515f72 	jalx	9457dc8 <AP_BANK_SPACE+0x9417dc8>
    57e4:	69526c61 	0x69526c61
    57e8:	00746867 	0x746867
    57ec:	0137dc07 	0x137dc07
    57f0:	23030000 	addi	v1,t8,0
    57f4:	760c01d5 	jalx	8300754 <AP_BANK_SPACE+0x82c0754>
    57f8:	73736162 	0x73736162
    57fc:	7475635f 	jalx	1d58d7c <AP_BANK_SPACE+0x1d18d7c>
    5800:	6572665f 	0x6572665f
    5804:	de070071 	ldc3	$7,113(s0)
    5808:	00000150 	0x150
    580c:	01d62303 	0x1d62303
    5810:	6162760c 	0x6162760c
    5814:	725f7373 	0x725f7373
    5818:	6f697461 	0x6f697461
    581c:	5edf0700 	0x5edf0700
    5820:	03000001 	movf	zero,t8,$fcc0
    5824:	0c01d823 	jal	7608c <AP_BANK_SPACE+0x3608c>
    5828:	6769726f 	0x6769726f
    582c:	6c616e69 	0x6c616e69
    5830:	7361625f 	udi15	k1,at,t4,0x9
    5834:	61725f73 	0x61725f73
    5838:	006f6974 	teq	v1,t7,0x1a5
    583c:	0144e007 	srav	gp,a0,t2
    5840:	23030000 	addi	v1,t8,0
    5844:	760c01da 	jalx	8300768 <AP_BANK_SPACE+0x82c0768>
    5848:	72727573 	0x72727573
    584c:	646e756f 	0x646e756f
    5850:	676e615f 	0x676e615f
    5854:	0700656c 	bltz	t8,1ee08 <SRAM_AP_FRONT_RCODE_ADDR+0x508>
    5858:	000137e2 	0x137e2
    585c:	db230300 	ldc2	$3,768(t9)
    5860:	73760c01 	0x73760c01
    5864:	6f727275 	0x6f727275
    5868:	5f646e75 	0x5f646e75
    586c:	69746172 	0x69746172
    5870:	e307006f 	sc	a3,111(t8)
    5874:	00000144 	0x144
    5878:	01dc2303 	0x1dc2303
    587c:	72646d0c 	0x72646d0c
    5880:	72635f63 	0x72635f63
    5884:	6f73736f 	0x6f73736f
    5888:	5f726576 	0x5f726576
    588c:	71657266 	0x71657266
    5890:	d7e50700 	ldc1	$f5,1792(ra)
    5894:	0300001f 	0x300001f
    5898:	0c01de23 	jal	7788c <AP_BANK_SPACE+0x3788c>
    589c:	6372646d 	0x6372646d
    58a0:	6e61625f 	0x6e61625f
    58a4:	07007364 	bltz	t8,22638 <SRAM_BT_HEAD_ADDR+0x238>
    58a8:	001fe7e6 	0x1fe7e6
    58ac:	e2230300 	sc	v1,768(s1)
    58b0:	696c0c01 	0x696c0c01
    58b4:	6574696d 	0x6574696d
    58b8:	68745f72 	0x68745f72
    58bc:	68736572 	0x68736572
    58c0:	00646c6f 	0x646c6f
    58c4:	015ee807 	srav	sp,s8,t2
    58c8:	23030000 	addi	v1,t8,0
    58cc:	6c0c01fa 	0x6c0c01fa
    58d0:	74696d69 	jalx	1a5b5a4 <AP_BANK_SPACE+0x1a1b5a4>
    58d4:	615f7265 	0x615f7265
    58d8:	63617474 	0x63617474
    58dc:	69745f6b 	0x69745f6b
    58e0:	0700656d 	bltz	t8,1ee98 <SRAM_AP_FRONT_RCODE_ADDR+0x598>
    58e4:	000150e9 	0x150e9
    58e8:	fc230300 	sdc3	$3,768(at)
    58ec:	696c0c01 	0x696c0c01
    58f0:	6574696d 	0x6574696d
    58f4:	65725f72 	0x65725f72
    58f8:	7361656c 	0x7361656c
    58fc:	69745f65 	0x69745f65
    5900:	0700656d 	bltz	t8,1eeb8 <SRAM_AP_FRONT_RCODE_ADDR+0x5b8>
    5904:	000150ea 	0x150ea
    5908:	fe230300 	sdc3	$3,768(s1)
    590c:	65640c01 	0x65640c01
    5910:	61625f77 	0x61625f77
    5914:	0073646e 	0x73646e
    5918:	1ff7ec07 	0x1ff7ec07
    591c:	23030000 	addi	v1,t8,0
    5920:	700c0280 	0x700c0280
    5924:	6f697265 	0x6f697265
    5928:	6f635f64 	0x6f635f64
    592c:	00746e75 	0x746e75
    5930:	0137ee07 	0x137ee07
    5934:	23030000 	addi	v1,t8,0
    5938:	700c0298 	udi8	zero,t4,zero,0xa
    593c:	64616572 	0x64616572
    5940:	7473756a 	jalx	1cdd5a8 <AP_BANK_SPACE+0x1c9d5a8>
    5944:	756f635f 	jalx	5bd8d7c <AP_BANK_SPACE+0x5b98d7c>
    5948:	0700746e 	bltz	t8,22b04 <SRAM_BT_HEAD_ADDR+0x704>
    594c:	000137ef 	0x137ef
    5950:	99230300 	lwr	v1,768(t1)
    5954:	65700c02 	0x65700c02
    5958:	646f6972 	0x646f6972
    595c:	c9f00700 	lwc2	$16,1792(t7)
    5960:	03000000 	0x3000000
    5964:	0c029a23 	jal	a688c <AP_BANK_SPACE+0x6688c>
    5968:	61657270 	0x61657270
    596c:	73756a64 	0x73756a64
    5970:	62645f74 	0x62645f74
    5974:	c9f10700 	lwc2	$17,1792(t7)
    5978:	03000000 	0x3000000
    597c:	0c029c23 	jal	a708c <AP_BANK_SPACE+0x6708c>
    5980:	6e676973 	0x6e676973
    5984:	655f6c61 	0x655f6c61
    5988:	6772656e 	0x6772656e
    598c:	6e695f79 	0x6e695f79
    5990:	07007469 	bltz	t8,22b38 <SRAM_BT_HEAD_ADDR+0x738>
    5994:	0000c9f2 	tlt	zero,zero,0x327
    5998:	9e230300 	0x9e230300
    599c:	646d0c02 	0x646d0c02
    59a0:	745f6372 	jalx	17d8dc8 <AP_BANK_SPACE+0x1798dc8>
    59a4:	73657268 	0x73657268
    59a8:	646c6f68 	0x646c6f68
    59ac:	7361625f 	udi15	k1,at,t4,0x9
    59b0:	f4070065 	sdc1	$f7,101(zero)
    59b4:	00002007 	srav	a0,zero,zero
    59b8:	02a02303 	0x2a02303
    59bc:	72646d0c 	0x72646d0c
    59c0:	68745f63 	0x68745f63
    59c4:	68736572 	0x68736572
    59c8:	5f646c6f 	0x5f646c6f
    59cc:	65736162 	0x65736162
    59d0:	78616d5f 	0x78616d5f
    59d4:	5ef50700 	0x5ef50700
    59d8:	03000001 	movf	zero,t8,$fcc0
    59dc:	0c02a623 	jal	a988c <AP_BANK_SPACE+0x6988c>
    59e0:	696d696c 	0x696d696c
    59e4:	5f726574 	0x5f726574
    59e8:	65726874 	0x65726874
    59ec:	6c6f6873 	0x6c6f6873
    59f0:	69645f64 	0x69645f64
    59f4:	07006666 	bltz	t8,1f390 <SRAM_BT_RCODE_DATA_ADDR+0x290>
    59f8:	00015ef6 	tne	zero,at,0x17b
    59fc:	a8230300 	swl	v1,768(at)
    5a00:	754d0c02 	jalx	5343008 <AP_BANK_SPACE+0x5303008>
    5a04:	4669746c 	c1	0x69746c
    5a08:	42716572 	c0	0x716572
    5a0c:	45646e61 	0x45646e61
    5a10:	6772656e 	0x6772656e
    5a14:	6e655f79 	0x6e655f79
    5a18:	656c6261 	0x656c6261
    5a1c:	37f80700 	ori	t8,ra,0x700
    5a20:	03000001 	movf	zero,t8,$fcc0
    5a24:	0c02aa23 	jal	aa88c <AP_BANK_SPACE+0x6a88c>
    5a28:	71657246 	0x71657246
    5a2c:	74657053 	jalx	195c14c <AP_BANK_SPACE+0x191c14c>
    5a30:	446d7572 	0x446d7572
    5a34:	6c707369 	0x6c707369
    5a38:	655f7961 	0x655f7961
    5a3c:	6c62616e 	0x6c62616e
    5a40:	f9070065 	sdc2	$7,101(t0)
    5a44:	00000137 	0x137
    5a48:	02ab2303 	0x2ab2303
    5a4c:	6561640c 	0x6561640c
    5a50:	7474615f 	jalx	1d1857c <AP_BANK_SPACE+0x1cd857c>
    5a54:	75626972 	jalx	589a5c8 <AP_BANK_SPACE+0x585a5c8>
    5a58:	00736574 	teq	v1,s3,0x195
    5a5c:	2017fc07 	addi	s7,zero,-1017
    5a60:	23030000 	addi	v1,t8,0
    5a64:	630f02ac 	0x630f02ac
    5a68:	72706d6f 	0x72706d6f
    5a6c:	6f737365 	0x6f737365
    5a70:	6e655f72 	0x6e655f72
    5a74:	656c6261 	0x656c6261
    5a78:	6174735f 	0x6174735f
    5a7c:	7261646e 	0x7261646e
    5a80:	6f6d5f64 	0x6f6d5f64
    5a84:	07006564 	bltz	t8,1f018 <SRAM_AP_FRONT_RCODE_ADDR+0x718>
    5a88:	00970100 	0x970100
    5a8c:	23030000 	addi	v1,t8,0
    5a90:	6d0f02b0 	0x6d0f02b0
    5a94:	5f637264 	0x5f637264
    5a98:	62616e65 	0x62616e65
    5a9c:	735f656c 	0x735f656c
    5aa0:	646e6174 	0x646e6174
    5aa4:	5f647261 	0x5f647261
    5aa8:	65646f6d 	0x65646f6d
    5aac:	01010700 	0x1010700
    5ab0:	00000097 	0x97
    5ab4:	02b12303 	0x2b12303
    5ab8:	6475610f 	0x6475610f
    5abc:	70706f69 	0x70706f69
    5ac0:	7079745f 	udi15	v1,t9,t6,0x11
    5ac4:	70755f65 	0x70755f65
    5ac8:	65746164 	0x65746164
    5acc:	616c665f 	0x616c665f
    5ad0:	02070067 	0x2070067
    5ad4:	00009701 	0x9701
    5ad8:	b2230300 	0xb2230300
    5adc:	75610f02 	jalx	5843c08 <AP_BANK_SPACE+0x5803c08>
    5ae0:	706f6964 	0x706f6964
    5ae4:	79745f70 	0x79745f70
    5ae8:	07006570 	bltz	t8,1f0ac <SRAM_AP_FRONT_RCODE_ADDR+0x7ac>
    5aec:	01370103 	0x1370103
    5af0:	23030000 	addi	v1,t8,0
    5af4:	700f02b3 	0x700f02b3
    5af8:	75636572 	jalx	58d95c8 <AP_BANK_SPACE+0x58995c8>
    5afc:	74735f74 	jalx	1cd7dd0 <AP_BANK_SPACE+0x1c97dd0>
    5b00:	61646e61 	0x61646e61
    5b04:	6d5f6472 	0x6d5f6472
    5b08:	0065646f 	0x65646f
    5b0c:	50010407 	beql	zero,at,6b2c <SRAM_AP_BANK_BACK_AL_1_SIZE+0x2b2c>
    5b10:	03000001 	movf	zero,t8,$fcc0
    5b14:	0f02b423 	jal	c0ad08c <AP_BANK_SPACE+0xc06d08c>
    5b18:	616e7964 	0x616e7964
    5b1c:	5f63696d 	0x5f63696d
    5b20:	63657270 	0x63657270
    5b24:	735f7475 	0x735f7475
    5b28:	646e6174 	0x646e6174
    5b2c:	5f647261 	0x5f647261
    5b30:	65646f6d 	0x65646f6d
    5b34:	01050700 	0x1050700
    5b38:	00000144 	0x144
    5b3c:	02b62303 	0x2b62303
    5b40:	6d6f630f 	0x6d6f630f
    5b44:	73657270 	0x73657270
    5b48:	5f726f73 	0x5f726f73
    5b4c:	65726874 	0x65726874
    5b50:	6c6f6873 	0x6c6f6873
    5b54:	69645f64 	0x69645f64
    5b58:	07006666 	bltz	t8,1f4f4 <SRAM_BT_RCODE_DATA_ADDR+0x3f4>
    5b5c:	015e0107 	0x15e0107
    5b60:	23030000 	addi	v1,t8,0
    5b64:	6d0f02b8 	0x6d0f02b8
    5b68:	75656b61 	jalx	595ad84 <AP_BANK_SPACE+0x591ad84>
    5b6c:	61675f70 	0x61675f70
    5b70:	735f6e69 	0x735f6e69
    5b74:	646e6174 	0x646e6174
    5b78:	5f647261 	0x5f647261
    5b7c:	65646f6d 	0x65646f6d
    5b80:	01080700 	0x1080700
    5b84:	00000150 	0x150
    5b88:	02ba2303 	0x2ba2303
    5b8c:	6d6f630f 	0x6d6f630f
    5b90:	73657270 	0x73657270
    5b94:	5f726f73 	0x5f726f73
    5b98:	6e617473 	0x6e617473
    5b9c:	64726164 	0x64726164
    5ba0:	646f6d5f 	0x646f6d5f
    5ba4:	09070065 	j	41c0194 <AP_BANK_SPACE+0x4180194>
    5ba8:	00163101 	0x163101
    5bac:	bc230300 	cache	0x3,768(at)
    5bb0:	646d0f02 	0x646d0f02
    5bb4:	655f6372 	0x655f6372
    5bb8:	6e657478 	0x6e657478
    5bbc:	61705f64 	0x61705f64
    5bc0:	735f6172 	0x735f6172
    5bc4:	646e6174 	0x646e6174
    5bc8:	5f647261 	0x5f647261
    5bcc:	65646f6d 	0x65646f6d
    5bd0:	010a0700 	0x10a0700
    5bd4:	00001782 	srl	v0,zero,0x1e
    5bd8:	02ca2303 	0x2ca2303
    5bdc:	72646d0f 	0x72646d0f
    5be0:	65705f63 	0x65705f63
    5be4:	735f6b61 	0x735f6b61
    5be8:	646e6174 	0x646e6174
    5bec:	5f647261 	0x5f647261
    5bf0:	65646f6d 	0x65646f6d
    5bf4:	010b0700 	0x10b0700
    5bf8:	00001867 	0x1867
    5bfc:	02d22303 	0x2d22303
    5c00:	6d5f700f 	0x6d5f700f
    5c04:	5f637264 	0x5f637264
    5c08:	646e6162 	0x646e6162
    5c0c:	6174735f 	0x6174735f
    5c10:	7261646e 	0x7261646e
    5c14:	6f6d5f64 	0x6f6d5f64
    5c18:	07006564 	bltz	t8,1f1ac <SRAM_BT_RCODE_DATA_ADDR+0xac>
    5c1c:	201d010c 	addi	sp,zero,268
    5c20:	23030000 	addi	v1,t8,0
    5c24:	760f02dc 	jalx	83c0b70 <AP_BANK_SPACE+0x8380b70>
    5c28:	6d756c6f 	0x6d756c6f
    5c2c:	75635f65 	jalx	58d7d94 <AP_BANK_SPACE+0x5897d94>
    5c30:	6e657272 	0x6e657272
    5c34:	0e070074 	jal	81c01d0 <AP_BANK_SPACE+0x81801d0>
    5c38:	00013701 	0x13701
    5c3c:	e0230300 	sc	v1,768(at)
    5c40:	c7070002 	lwc1	$f7,2(t8)
    5c44:	8400001f 	lh	zero,31(zero)
    5c48:	08000014 	j	50 <AP_BANK_FRONT_BASAL>
    5c4c:	00000196 	0x196
    5c50:	d7070013 	ldc1	$f7,19(t8)
    5c54:	3700001f 	ori	zero,t8,0x1f
    5c58:	08000001 	j	4 <DRV_GROUP_EXFAT>
    5c5c:	00000196 	0x196
    5c60:	e7070013 	swc1	$f7,19(t8)
    5c64:	5000001f 	beqzl	zero,5ce4 <SRAM_AP_BANK_BACK_AL_1_SIZE+0x1ce4>
    5c68:	08000001 	j	4 <DRV_GROUP_EXFAT>
    5c6c:	00000196 	0x196
    5c70:	f7070001 	sdc1	$f7,1(t8)
    5c74:	e100001f 	sc	zero,31(t0)
    5c78:	08000014 	j	50 <AP_BANK_FRONT_BASAL>
    5c7c:	00000196 	0x196
    5c80:	07070002 	0x7070002
    5c84:	1d000020 	bgtz	t0,5d08 <SRAM_AP_BANK_BACK_AL_1_SIZE+0x1d08>
    5c88:	08000015 	j	54 <AP_BANK_FRONT_BASAL+0x4>
    5c8c:	00000196 	0x196
    5c90:	17070005 	bne	t8,a3,5ca8 <SRAM_AP_BANK_BACK_AL_1_SIZE+0x1ca8>
    5c94:	5e000020 	bgtzl	s0,5d18 <SRAM_AP_BANK_BACK_AL_1_SIZE+0x1d18>
    5c98:	08000001 	j	4 <DRV_GROUP_EXFAT>
    5c9c:	00000196 	0x196
    5ca0:	04060002 	0x4060002
    5ca4:	000015a8 	0x15a8
    5ca8:	16f00406 	bne	s7,s0,6cc4 <SRAM_AP_BANK_BACK_AL_1_SIZE+0x2cc4>
    5cac:	640d0000 	0x640d0000
    5cb0:	635f6561 	0x635f6561
    5cb4:	69666e6f 	0x69666e6f
    5cb8:	00745f67 	0x745f67
    5cbc:	8f010f07 	lw	at,3847(t8)
    5cc0:	15000018 	bnez	t0,5d24 <SRAM_AP_BANK_BACK_AL_1_SIZE+0x1d24>
    5cc4:	656d6601 	0x656d6601
    5cc8:	6e69676e 	0x6e69676e
    5ccc:	6f6c5f65 	0x6f6c5f65
    5cd0:	635f6461 	0x635f6461
    5cd4:	01006766 	0x1006766
    5cd8:	68010123 	0x68010123
    5cdc:	6864600e 	0x6864600e
    5ce0:	6101600e 	0x6101600e
    5ce4:	6d660115 	0x6d660115
    5ce8:	69676e65 	0x69676e65
    5cec:	735f656e 	0x735f656e
    5cf0:	5f657661 	0x5f657661
    5cf4:	00676663 	0x676663
    5cf8:	7d013201 	0x7d013201
    5cfc:	98600e68 	lwr	zero,3688(v1)
    5d00:	01600e68 	0x1600e68
    5d04:	735f1661 	0x735f1661
    5d08:	615f7465 	0x615f7465
    5d0c:	756f6e69 	jalx	5bdb9a4 <AP_BANK_SPACE+0x5b9b9a4>
    5d10:	61705f74 	0x61705f74
    5d14:	006d6172 	tlt	v1,t5,0x185
    5d18:	a5013801 	sh	at,14337(t0)
    5d1c:	f0600e68 	0xf0600e68
    5d20:	01600e68 	0x1600e68
    5d24:	20cf1761 	addi	t7,a2,5985
    5d28:	67010000 	0x67010000
    5d2c:	665f7465 	0x665f7465
    5d30:	6e695f6d 	0x6e695f6d
    5d34:	705f7469 	0x705f7469
    5d38:	6d617261 	0x6d617261
    5d3c:	01450100 	0x1450100
    5d40:	600e68f9 	0x600e68f9
    5d44:	600e6930 	0x600e6930
    5d48:	70186101 	0x70186101
    5d4c:	006d665f 	0x6d665f
    5d50:	20cf4401 	addi	t7,a2,17409
    5d54:	91020000 	lbu	v0,0(t0)
    5d58:	04060010 	0x4060010
    5d5c:	00000d5a 	0xd5a
    5d60:	00213619 	0x213619
    5d64:	6d660100 	0x6d660100
    5d68:	69676e65 	0x69676e65
    5d6c:	695f656e 	0x695f656e
    5d70:	0074696e 	0x74696e
    5d74:	6b015b01 	0x6b015b01
    5d78:	49000001 	bc2f	5d80 <SRAM_AP_BANK_BACK_AL_1_SIZE+0x1d80>
    5d7c:	fc600e69 	sdc3	$0,3689(v1)
    5d80:	01600e69 	0x1600e69
    5d84:	70611a61 	0x70611a61
    5d88:	6e695f70 	0x6e695f70
    5d8c:	725f7469 	0x725f7469
    5d90:	01007465 	0x1007465
    5d94:	00016b5c 	0x16b5c
    5d98:	00910200 	0x910200
    5d9c:	5f6d661a 	0x5f6d661a
    5da0:	00677261 	0x677261
    5da4:	0d5a5d01 	jal	5697404 <AP_BANK_SPACE+0x5657404>
    5da8:	91020000 	lbu	v0,0(t0)
    5dac:	6d6d1a08 	0x6d6d1a08
    5db0:	616e5f6d 	0x616e5f6d
    5db4:	0100656d 	0x100656d
    5db8:	00019f5e 	0x19f5e
    5dbc:	10910200 	beq	a0,s1,65c0 <SRAM_AP_BANK_BACK_AL_1_SIZE+0x25c0>
    5dc0:	66011b00 	0x66011b00
    5dc4:	676e656d 	0x676e656d
    5dc8:	5f656e69 	0x5f656e69
    5dcc:	6e696564 	0x6e696564
    5dd0:	01007469 	0x1007469
    5dd4:	00970195 	0x970195
    5dd8:	6a4d0000 	0x6a4d0000
    5ddc:	6aac600e 	0x6aac600e
    5de0:	6101600e 	0x6101600e
    5de4:	0021a519 	0x21a519
    5de8:	616d0100 	0x616d0100
    5dec:	01006e69 	0x1006e69
    5df0:	016b01b1 	tgeu	t3,t3,0x6
    5df4:	6abd0000 	0x6abd0000
    5df8:	6af4600e 	0x6af4600e
    5dfc:	6101600e 	0x6101600e
    5e00:	67726118 	0x67726118
    5e04:	b0010063 	0xb0010063
    5e08:	0000016b 	0x16b
    5e0c:	18109102 	0x18109102
    5e10:	76677261 	jalx	99dc984 <AP_BANK_SPACE+0x999c984>
    5e14:	a5b00100 	sh	s0,256(t5)
    5e18:	02000021 	move	zero,s0
    5e1c:	721a1491 	udi1	s0,k0,v0,0x12
    5e20:	6c757365 	0x6c757365
    5e24:	b2010074 	0xb2010074
    5e28:	00000d01 	0xd01
    5e2c:	00009102 	srl	s2,zero,0x4
    5e30:	21ab0406 	addi	t3,t5,1030
    5e34:	04060000 	0x4060000
    5e38:	000021b1 	tgeu	zero,zero,0x86
    5e3c:	0001721c 	0x1721c
    5e40:	21ed1d00 	addi	t5,t7,7424
    5e44:	68630000 	0x68630000
    5e48:	65676e61 	0x65676e61
    5e4c:	676e655f 	0x676e655f
    5e50:	5f656e69 	0x5f656e69
    5e54:	74617473 	jalx	185d1cc <AP_BANK_SPACE+0x181d1cc>
    5e58:	be020065 	cache	0x2,101(s0)
    5e5c:	6af90101 	0x6af90101
    5e60:	6b0c600e 	0x6b0c600e
    5e64:	6101600e 	0x6101600e
    5e68:	0000c01e 	0xc01e
    5e6c:	01bd0200 	0x1bd0200
    5e70:	00000dba 	0xdba
    5e74:	00089102 	srl	s2,t0,0x4
    5e78:	745f671f 	jalx	17d9c7c <AP_BANK_SPACE+0x1799c7c>
    5e7c:	5f736968 	0x5f736968
    5e80:	5f707061 	0x5f707061
    5e84:	656d6974 	0x656d6974
    5e88:	61745f72 	0x61745f72
    5e8c:	85060067 	lh	a2,103(t0)
    5e90:	00000137 	0x137
    5e94:	67200101 	0x67200101
    5e98:	7070615f 	udi15	v1,s0,t4,0x5
    5e9c:	666e695f 	0x666e695f
    5ea0:	74735f6f 	jalx	1cd7dbc <AP_BANK_SPACE+0x1c97dbc>
    5ea4:	5f657461 	0x5f657461
    5ea8:	006c6c61 	0x6c6c61
    5eac:	76018e02 	jalx	8063808 <AP_BANK_SPACE+0x8023808>
    5eb0:	01000010 	0x1000010
    5eb4:	5f672001 	0x5f672001
    5eb8:	5f707061 	0x5f707061
    5ebc:	7473616c 	jalx	1cd85b0 <AP_BANK_SPACE+0x1c985b0>
    5ec0:	6174735f 	0x6174735f
    5ec4:	02006574 	teq	s0,zero,0x195
    5ec8:	13810194 	beq	gp,at,651c <SRAM_AP_BANK_BACK_AL_1_SIZE+0x251c>
    5ecc:	01010000 	0x1010000
    5ed0:	615f6720 	0x615f6720
    5ed4:	695f7070 	0x695f7070
    5ed8:	5f6f666e 	0x5f6f666e
    5edc:	74617473 	jalx	185d1cc <AP_BANK_SPACE+0x181d1cc>
    5ee0:	9a020065 	lwr	v0,101(s0)
    5ee4:	0012f901 	0x12f901
    5ee8:	21010100 	addi	at,t0,256
    5eec:	756f5f67 	jalx	5bd7d9c <AP_BANK_SPACE+0x5b97d9c>
    5ef0:	74757074 	jalx	1d5c1d0 <AP_BANK_SPACE+0x1d1c1d0>
    5ef4:	6168635f 	0x6168635f
    5ef8:	6c656e6e 	0x6c656e6e
    5efc:	6e6f635f 	0x6e6f635f
    5f00:	00676966 	0x676966
    5f04:	14280701 	bne	at,t0,7b0c <SRAM_AP_BACK_AL_RCODE_1_SIZE+0xb0c>
    5f08:	05010000 	bgez	t0,5f0c <SRAM_AP_BANK_BACK_AL_1_SIZE+0x1f0c>
    5f0c:	c1958403 	ll	s5,-31741(t4)
    5f10:	5f67219f 	0x5f67219f
    5f14:	6e656d66 	0x6e656d66
    5f18:	656e6967 	0x656e6967
    5f1c:	6174735f 	0x6174735f
    5f20:	00737574 	teq	v1,s3,0x1d5
    5f24:	04e00b01 	bltz	a3,8b2c <SRAM_OS_RCODE_ADDR+0xb2c>
    5f28:	05010000 	bgez	t0,5f2c <SRAM_AP_BANK_BACK_AL_1_SIZE+0x1f2c>
    5f2c:	c1958803 	ll	s5,-30717(t4)
    5f30:	5f67219f 	0x5f67219f
    5f34:	6e656d66 	0x6e656d66
    5f38:	656e6967 	0x656e6967
    5f3c:	6766635f 	0x6766635f
    5f40:	390e0100 	xori	t6,t0,0x100
    5f44:	01000005 	0x1000005
    5f48:	95940305 	lhu	s4,773(t4)
    5f4c:	67219fc1 	0x67219fc1
    5f50:	646f6d5f 	0x646f6d5f
    5f54:	5f656c75 	0x5f656c75
    5f58:	74617473 	jalx	185d1cc <AP_BANK_SPACE+0x181d1cc>
    5f5c:	01007375 	0x1007375
    5f60:	00058811 	0x58811
    5f64:	03050100 	0x3050100
    5f68:	9fc195a8 	0x9fc195a8
    5f6c:	615f6721 	0x615f6721
    5f70:	756f6e69 	jalx	5bdb9a4 <AP_BANK_SPACE+0x5b9b9a4>
    5f74:	61705f74 	0x61705f74
    5f78:	006d6172 	tlt	v1,t5,0x185
    5f7c:	02cc1a01 	0x2cc1a01
    5f80:	05010000 	bgez	t0,5f84 <SRAM_AP_BANK_BACK_AL_1_SIZE+0x1f84>
    5f84:	c195ac03 	ll	s5,-21501(t4)
    5f88:	5f67219f 	0x5f67219f
    5f8c:	706f7473 	0x706f7473
    5f90:	5f79625f 	0x5f79625f
    5f94:	5f737474 	0x5f737474
    5f98:	67616c66 	0x67616c66
    5f9c:	971d0100 	lhu	sp,256(t8)
    5fa0:	01000000 	0x1000000
    5fa4:	95d00305 	lhu	s0,773(t6)
    5fa8:	67219fc1 	0x67219fc1
    5fac:	6d6d6d5f 	0x6d6d6d5f
    5fb0:	5f70705f 	0x5f70705f
    5fb4:	646e6168 	0x646e6168
    5fb8:	0100656c 	0x100656c
    5fbc:	00019d18 	0x19d18
    5fc0:	03050100 	0x3050100
    5fc4:	9fc19580 	0x9fc19580
    5fc8:	665f6721 	0x665f6721
    5fcc:	68635f6d 	0x68635f6d
    5fd0:	6c656e61 	0x6c656e61
    5fd4:	37140100 	ori	s4,t8,0x100
    5fd8:	01000001 	movf	zero,t0,$fcc0
    5fdc:	95d10305 	lhu	s1,773(t6)
    5fe0:	67219fc1 	0x67219fc1
    5fe4:	6561645f 	0x6561645f
    5fe8:	6766635f 	0x6766635f
    5fec:	6d68735f 	0x6d68735f
    5ff0:	73200100 	0x73200100
    5ff4:	01000023 	subu	zero,t0,zero
    5ff8:	95d40305 	lhu	s4,773(t6)
    5ffc:	04069fc1 	0x4069fc1
    6000:	00002023 	negu	a0,zero
    6004:	00202000 	0x202000
    6008:	78000200 	0x78000200
    600c:	04000006 	bltz	zero,6028 <SRAM_AP_BANK_BACK_AL_1_SIZE+0x2028>
    6010:	00056801 	movt	t5,zero,$fcc1
    6014:	1269c000 	beq	s3,t1,ffff6018 <get_app_msg+0x403cfae8>
    6018:	12680060 	beq	s3,t0,619c <SRAM_AP_BANK_BACK_AL_1_SIZE+0x219c>
    601c:	554e4760 	bnel	t2,t6,17da0 <SRAM_CARD_UD_RCODE_ADDR+0x9a0>
    6020:	33204320 	andi	zero,t9,0x4320
    6024:	342e342e 	ori	t6,at,0x342e
    6028:	70696d20 	0x70696d20
    602c:	65647373 	0x65647373
    6030:	302e362d 	andi	t6,at,0x362d
    6034:	31302e36 	andi	s0,t1,0x2e36
    6038:	3030322d 	andi	s0,at,0x322d
    603c:	32343037 	andi	s4,s1,0x3037
    6040:	66010030 	0x66010030
    6044:	676e656d 	0x676e656d
    6048:	5f656e69 	0x5f656e69
    604c:	79616c70 	0x79616c70
    6050:	6165645f 	0x6165645f
    6054:	00632e6c 	0x632e6c
    6058:	6779632f 	0x6779632f
    605c:	76697264 	jalx	9a5c990 <AP_BANK_SPACE+0x9a1c990>
    6060:	2f662f65 	sltiu	a2,k1,12133
    6064:	74666f53 	jalx	199bd4c <AP_BANK_SPACE+0x195bd4c>
    6068:	6b64735f 	0x6b64735f
    606c:	5354412f 	beql	k0,s4,1652c <SRAM_BT_UART_BUF_ADDR+0x12c>
    6070:	35323832 	ori	s2,t1,0x3832
    6074:	4b44535f 	c2	0x144535f
    6078:	2e34565f 	sltiu	s4,s1,22111
    607c:	61632f32 	0x61632f32
    6080:	612f6573 	0x612f6573
    6084:	6d662f70 	0x6d662f70
    6088:	676e655f 	0x676e655f
    608c:	00656e69 	0x656e69
    6090:	736e7502 	0x736e7502
    6094:	656e6769 	0x656e6769
    6098:	68632064 	0x68632064
    609c:	01007261 	0x1007261
    60a0:	4e490308 	c3	0x490308
    60a4:	00553854 	0x553854
    60a8:	008b0f02 	0x8b0f02
    60ac:	73020000 	madd	t8,v0
    60b0:	656e6769 	0x656e6769
    60b4:	68632064 	0x68632064
    60b8:	01007261 	0x1007261
    60bc:	68730206 	0x68730206
    60c0:	2074726f 	addi	s4,v1,29295
    60c4:	69736e75 	0x69736e75
    60c8:	64656e67 	0x64656e67
    60cc:	746e6920 	jalx	1b9a480 <AP_BANK_SPACE+0x1b5a480>
    60d0:	02070200 	0x2070200
    60d4:	726f6873 	0x726f6873
    60d8:	6e692074 	0x6e692074
    60dc:	05020074 	bltzl	t0,62b0 <SRAM_AP_BANK_BACK_AL_1_SIZE+0x22b0>
    60e0:	00010a04 	0x10a04
    60e4:	02070400 	0x2070400
    60e8:	676e6f6c 	0x676e6f6c
    60ec:	746e6920 	jalx	1b9a480 <AP_BANK_SPACE+0x1b5a480>
    60f0:	02050400 	0x2050400
    60f4:	616f6c66 	0x616f6c66
    60f8:	04040074 	0x4040074
    60fc:	756f6402 	jalx	5bd9008 <AP_BANK_SPACE+0x5b99008>
    6100:	00656c62 	0x656c62
    6104:	6c020408 	0x6c020408
    6108:	20676e6f 	addi	a3,v1,28271
    610c:	676e6f6c 	0x676e6f6c
    6110:	736e7520 	0x736e7520
    6114:	656e6769 	0x656e6769
    6118:	6e692064 	0x6e692064
    611c:	07080074 	tgei	t8,116
    6120:	6e6f6c02 	0x6e6f6c02
    6124:	6f6c2067 	0x6f6c2067
    6128:	6920676e 	0x6920676e
    612c:	0800746e 	j	1d1b8 <SRAM_OS_TASK_STACK_ADDR+0x1bb8>
    6130:	6e750205 	0x6e750205
    6134:	6e676973 	0x6e676973
    6138:	69206465 	0x69206465
    613c:	0400746e 	bltz	zero,232f8 <SRAM_BT_HEAD_ADDR+0xef8>
    6140:	69750307 	0x69750307
    6144:	0038746e 	0x38746e
    6148:	008b1505 	0x8b1505
    614c:	69030000 	0x69030000
    6150:	0038746e 	0x38746e
    6154:	00a91905 	0xa91905
    6158:	75030000 	jalx	40c0000 <AP_BANK_SPACE+0x4080000>
    615c:	31746e69 	andi	s4,t3,0x6e69
    6160:	1d050036 	0x1d050036
    6164:	000000b8 	0xb8
    6168:	746e6903 	jalx	1b9a40c <AP_BANK_SPACE+0x1b5a40c>
    616c:	05003631 	bltz	t0,13a34 <SRAM_BT_EXT3_BANK_ADDR+0x134>
    6170:	0000ce21 	0xce21
    6174:	69750300 	0x69750300
    6178:	3233746e 	andi	s3,s1,0x746e
    617c:	2c250500 	sltiu	a1,at,1280
    6180:	02000001 	movf	zero,s0,$fcc0
    6184:	00746e69 	0x746e69
    6188:	63020504 	0x63020504
    618c:	00726168 	0x726168
    6190:	0a040601 	j	8101804 <AP_BANK_SPACE+0x80c1804>
    6194:	04000001 	bltz	zero,619c <SRAM_AP_BANK_BACK_AL_1_SIZE+0x219c>
    6198:	06040507 	0x6040507
    619c:	000001a6 	0x1a6
    61a0:	0000008b 	0x8b
    61a4:	00018d07 	0x18d07
    61a8:	08000100 	j	400 <SRAM_AP_BACK_DATA_SIZE>
    61ac:	00000223 	0x223
    61b0:	09e3060c 	j	78c1830 <AP_BANK_SPACE+0x7881830>
    61b4:	655f736f 	0x655f736f
    61b8:	746e6576 	jalx	1b995d8 <AP_BANK_SPACE+0x1b595d8>
    61bc:	7079745f 	udi15	v1,t9,t6,0x11
    61c0:	db060065 	ldc2	$6,101(t8)
    61c4:	0000008b 	0x8b
    61c8:	09002302 	j	4008c08 <AP_BANK_SPACE+0x3fc8c08>
    61cc:	655f736f 	0x655f736f
    61d0:	746e6576 	jalx	1b995d8 <AP_BANK_SPACE+0x1b595d8>
    61d4:	7072675f 	udi15	v1,s2,t4,0x1d
    61d8:	8bdc0600 	lwl	gp,1536(s8)
    61dc:	02000000 	0x2000000
    61e0:	6f090123 	0x6f090123
    61e4:	76655f73 	jalx	9957dcc <AP_BANK_SPACE+0x9917dcc>
    61e8:	5f746e65 	0x5f746e65
    61ec:	00746e63 	0x746e63
    61f0:	00b8dd06 	0xb8dd06
    61f4:	23020000 	addi	v0,t8,0
    61f8:	736f0902 	0x736f0902
    61fc:	6576655f 	0x6576655f
    6200:	705f746e 	0x705f746e
    6204:	06007274 	bltz	s0,22bd8 <SRAM_BT_HEAD_ADDR+0x7d8>
    6208:	000194de 	0x194de
    620c:	04230200 	bgezl	at,6a10 <SRAM_AP_BANK_BACK_AL_1_SIZE+0x2a10>
    6210:	5f736f09 	0x5f736f09
    6214:	6e657665 	0x6e657665
    6218:	62745f74 	0x62745f74
    621c:	df06006c 	ldc3	$6,108(t8)
    6220:	00000196 	0x196
    6224:	00082302 	srl	a0,t0,0xc
    6228:	5f736f03 	0x5f736f03
    622c:	6e657665 	0x6e657665
    6230:	00745f74 	teq	v1,s4,0x17d
    6234:	01a6e306 	0x1a6e306
    6238:	040a0000 	tlti	zero,0
    623c:	00000223 	0x223
    6240:	00024b06 	0x24b06
    6244:	0000ce00 	sll	t9,zero,0x18
    6248:	018d0700 	0x18d0700
    624c:	00090000 	sll	zero,t1,0x0
    6250:	00025b06 	0x25b06
    6254:	00013c00 	sll	a3,at,0x10
    6258:	018d0700 	0x18d0700
    625c:	00030000 	sll	zero,v1,0x0
    6260:	00026b06 	0x26b06
    6264:	00013c00 	sll	a3,at,0x10
    6268:	018d0700 	0x18d0700
    626c:	00020000 	sll	zero,v0,0x0
    6270:	00032f08 	0x32f08
    6274:	a90b2400 	swl	t3,9216(t0)
    6278:	706e6909 	0x706e6909
    627c:	745f7475 	jalx	17dd1d4 <AP_BANK_SPACE+0x179d1d4>
    6280:	00657079 	0x657079
    6284:	017e970b 	0x17e970b
    6288:	23020000 	addi	v0,t8,0
    628c:	73610900 	0x73610900
    6290:	695f6372 	0x695f6372
    6294:	7865646e 	0x7865646e
    6298:	7e990b00 	0x7e990b00
    629c:	02000001 	movf	zero,s0,$fcc0
    62a0:	64090423 	0x64090423
    62a4:	735f6361 	0x735f6361
    62a8:	6c706d61 	0x6c706d61
    62ac:	9b0b0065 	lwr	t3,101(t8)
    62b0:	0000017e 	0x17e
    62b4:	09082302 	j	4208c08 <AP_BANK_SPACE+0x41c8c08>
    62b8:	5f636164 	0x5f636164
    62bc:	6e616863 	0x6e616863
    62c0:	0b006c65 	j	c01b194 <AP_BANK_SPACE+0xbfdb194>
    62c4:	00017e9d 	0x17e9d
    62c8:	0c230200 	jal	8c0800 <AP_BANK_SPACE+0x880800>
    62cc:	72736109 	0x72736109
    62d0:	6f6d5f63 	0x6f6d5f63
    62d4:	735f6564 	0x735f6564
    62d8:	0b006c65 	j	c01b194 <AP_BANK_SPACE+0xbfdb194>
    62dc:	00017e9f 	0x17e9f
    62e0:	10230200 	beq	at,v1,6ae4 <SRAM_AP_BANK_BACK_AL_1_SIZE+0x2ae4>
    62e4:	63646109 	0x63646109
    62e8:	6d61735f 	0x6d61735f
    62ec:	00656c70 	tge	v1,a1,0x1b1
    62f0:	017ea10b 	0x17ea10b
    62f4:	23020000 	addi	v0,t8,0
    62f8:	64610914 	0x64610914
    62fc:	6e695f63 	0x6e695f63
    6300:	006c6573 	tltu	v1,t4,0x195
    6304:	017ea30b 	0x17ea30b
    6308:	23020000 	addi	v0,t8,0
    630c:	64610918 	0x64610918
    6310:	61675f63 	0x61675f63
    6314:	0b006e69 	j	c01b9a4 <AP_BANK_SPACE+0xbfdb9a4>
    6318:	00017ea5 	0x17ea5
    631c:	1c230200 	0x1c230200
    6320:	6e696109 	0x6e696109
    6324:	6961675f 	0x6961675f
    6328:	a70b006e 	sh	t3,110(t8)
    632c:	0000017e 	0x17e
    6330:	00202302 	ror	a0,zero,0xc
    6334:	6d6d6d03 	0x6d6d6d03
    6338:	5f70705f 	0x5f70705f
    633c:	6f6e6961 	0x6f6e6961
    6340:	735f7475 	0x735f7475
    6344:	69747465 	0x69747465
    6348:	745f676e 	jalx	17d9db8 <AP_BANK_SPACE+0x1799db8>
    634c:	6ba90b00 	0x6ba90b00
    6350:	0b000002 	j	c000008 <AP_BANK_SPACE+0xbfc0008>
    6354:	00000ab0 	tge	zero,zero,0x2a
    6358:	0ce30302 	jal	38c0c08 <AP_BANK_SPACE+0x3880c08>
    635c:	55534552 	bnel	t2,s3,178a8 <SRAM_CARD_UD_RCODE_ADDR+0x4a8>
    6360:	4e5f544c 	c3	0x5f544c
    6364:	004c4c55 	0x4c4c55
    6368:	45520c00 	0x45520c00
    636c:	544c5553 	bnel	v0,t4,1b8bc <SRAM_OS_TASK_STACK_ADDR+0x2bc>
    6370:	4e47495f 	c3	0x47495f
    6374:	0045524f 	0x45524f
    6378:	45520c01 	0x45520c01
    637c:	544c5553 	bnel	v0,t4,1b8cc <SRAM_OS_TASK_STACK_ADDR+0x2cc>
    6380:	4e4f4e5f 	c3	0x4f4e5f
    6384:	56455f45 	bnel	s2,a1,1e09c <SRAM_BT_HCI_BUF_ADDR+0x79c>
    6388:	00544e45 	0x544e45
    638c:	45520c02 	0x45520c02
    6390:	544c5553 	bnel	v0,t4,1b8e0 <SRAM_OS_TASK_STACK_ADDR+0x2e0>
    6394:	5043525f 	beql	v0,v1,1ad14 <SRAM_OS_HEAP_ADDR+0x94>
    6398:	5f434c5f 	0x5f434c5f
    639c:	54494157 	bnel	v0,t1,168fc <SRAM_BT_UART_BUF_ADDR+0x4fc>
    63a0:	520c0300 	beql	s0,t4,6fa4 <SRAM_AP_BANK_BACK_AL_1_SIZE+0x2fa4>
    63a4:	4c555345 	0x4c555345
    63a8:	4f435f54 	c3	0x1435f54
    63ac:	4e4f4d4d 	c3	0x4f4d4d
    63b0:	5345525f 	beql	k0,a1,1ad30 <SRAM_OS_HEAP_ADDR+0xb0>
    63b4:	45565245 	0x45565245
    63b8:	520c2000 	beql	s0,t4,e3bc <SRAM_ASRC_BUF_0_ADDR+0x3bc>
    63bc:	4c555345 	0x4c555345
    63c0:	52455f54 	beql	s2,a1,1e114 <SRAM_BT_HCI_BUF_ADDR+0x814>
    63c4:	00524f52 	0x524f52
    63c8:	520c0180 	beql	s0,t4,69cc <SRAM_AP_BANK_BACK_AL_1_SIZE+0x29cc>
    63cc:	4c555345 	0x4c555345
    63d0:	41425f54 	0x41425f54
    63d4:	535f4b43 	beql	k0,ra,190e4 <SRAM_CARD_UD_CACHE_ADDR+0x3e4>
    63d8:	454e4543 	0x454e4543
    63dc:	5349445f 	beql	k0,t1,1755c <SRAM_CARD_UD_RCODE_ADDR+0x15c>
    63e0:	43544150 	c0	0x1544150
    63e4:	01810048 	0x1810048
    63e8:	5345520c 	beql	k0,a1,1ac1c <SRAM_OS_DATA_ADDR+0x81c>
    63ec:	5f544c55 	0x5f544c55
    63f0:	4e454353 	c3	0x454353
    63f4:	58455f45 	0x58455f45
    63f8:	82005449 	lb	zero,21577(s0)
    63fc:	45520c01 	0x45520c01
    6400:	544c5553 	bnel	v0,t4,1b950 <SRAM_OS_TASK_STACK_ADDR+0x350>
    6404:	59454b5f 	0x59454b5f
    6408:	4556455f 	0x4556455f
    640c:	525f544e 	beql	s2,ra,1b548 <SRAM_OS_SD_SWAP_BUF_ADDR+0x148>
    6410:	41454445 	0x41454445
    6414:	59425f4c 	0x59425f4c
    6418:	4d4f435f 	0x4d4f435f
    641c:	004e4f4d 	break	0x4e,0x13d
    6420:	520c0183 	beql	s0,t4,6a30 <SRAM_AP_BANK_BACK_AL_1_SIZE+0x2a30>
    6424:	4c555345 	0x4c555345
    6428:	59535f54 	0x59535f54
    642c:	534d5f53 	beql	k0,t5,1e17c <SRAM_BT_HCI_BUF_ADDR+0x87c>
    6430:	45525f47 	0x45525f47
    6434:	4c414544 	0x4c414544
    6438:	5f59425f 	0x5f59425f
    643c:	4d4d4f43 	0x4d4d4f43
    6440:	84004e4f 	lh	zero,20047(zero)
    6444:	45520c01 	0x45520c01
    6448:	544c5553 	bnel	v0,t4,1b998 <SRAM_OS_TASK_STACK_ADDR+0x398>
    644c:	524f465f 	beql	s2,t7,17dcc <SRAM_CARD_UD_RCODE_ADDR+0x9cc>
    6450:	545f4543 	bnel	v0,ra,17960 <SRAM_CARD_UD_RCODE_ADDR+0x560>
    6454:	535f5354 	beql	k0,ra,1b1a8 <SRAM_OS_HEAP_ADDR+0x528>
    6458:	00504f54 	0x504f54
    645c:	520c0185 	beql	s0,t4,6a74 <SRAM_AP_BANK_BACK_AL_1_SIZE+0x2a74>
    6460:	4c555345 	0x4c555345
    6464:	4e455f54 	c3	0x455f54
    6468:	5f524554 	0x5f524554
    646c:	5f41544f 	0x5f41544f
    6470:	52475055 	beql	s2,a3,1a5c8 <SRAM_OS_DATA_ADDR+0x1c8>
    6474:	00454441 	0x454441
    6478:	520c01a1 	beql	s0,t4,6b00 <SRAM_AP_BANK_BACK_AL_1_SIZE+0x2b00>
    647c:	4c555345 	0x4c555345
    6480:	45545f54 	0x45545f54
    6484:	50415453 	beql	v0,at,1b5d4 <SRAM_OS_SD_SWAP_BUF_ADDR+0x1d4>
    6488:	4955515f 	0x4955515f
    648c:	01ff0054 	0x1ff0054
    6490:	5345520c 	beql	k0,a1,1acc4 <SRAM_OS_HEAP_ADDR+0x44>
    6494:	5f544c55 	0x5f544c55
    6498:	5f505041 	0x5f505041
    649c:	54495551 	bnel	v0,t1,1b9e4 <SRAM_OS_TASK_STACK_ADDR+0x3e4>
    64a0:	0c028000 	jal	a0000 <AP_BANK_SPACE+0x60000>
    64a4:	55534552 	bnel	t2,s3,179f0 <SRAM_CARD_UD_RCODE_ADDR+0x5f0>
    64a8:	4d5f544c 	0x4d5f544c
    64ac:	43495355 	c0	0x1495355
    64b0:	414c505f 	0x414c505f
    64b4:	02810059 	0x2810059
    64b8:	5345520c 	beql	k0,a1,1acec <SRAM_OS_HEAP_ADDR+0x6c>
    64bc:	5f544c55 	0x5f544c55
    64c0:	4953554d 	0x4953554d
    64c4:	50435f43 	beql	v0,v1,1e1d4 <SRAM_BT_HCI_BUF_ADDR+0x8d4>
    64c8:	0059414c 	syscall	0x16505
    64cc:	520c0282 	beql	s0,t4,6ed8 <SRAM_AP_BANK_BACK_AL_1_SIZE+0x2ed8>
    64d0:	4c555345 	0x4c555345
    64d4:	554d5f54 	bnel	t2,t5,1e228 <SRAM_BT_HCI_BUF_ADDR+0x928>
    64d8:	5f434953 	0x5f434953
    64dc:	414c5055 	0x414c5055
    64e0:	02830059 	0x2830059
    64e4:	5345520c 	beql	k0,a1,1ad18 <SRAM_OS_HEAP_ADDR+0x98>
    64e8:	5f544c55 	0x5f544c55
    64ec:	45544e45 	0x45544e45
    64f0:	494c5f52 	0x494c5f52
    64f4:	4e49454e 	c3	0x49454e
    64f8:	0c028400 	jal	a1000 <AP_BANK_SPACE+0x61000>
    64fc:	55534552 	bnel	t2,s3,17a48 <SRAM_CARD_UD_RCODE_ADDR+0x648>
    6500:	525f544c 	beql	s2,ra,1b634 <SRAM_OS_TASK_STACK_ADDR+0x34>
    6504:	4f494441 	c3	0x1494441
    6508:	0c028500 	jal	a1400 <AP_BANK_SPACE+0x61400>
    650c:	55534552 	bnel	t2,s3,17a58 <SRAM_CARD_UD_RCODE_ADDR+0x658>
    6510:	425f544c 	c0	0x5f544c
    6514:	5445554c 	bnel	v0,a1,1ba48 <SRAM_OS_TASK_STACK_ADDR+0x448>
    6518:	48544545 	0x48544545
    651c:	554f535f 	bnel	t2,t7,1b29c <SRAM_OS_HEAP_ADDR+0x61c>
    6520:	8600444e 	lh	zero,17486(s0)
    6524:	45520c02 	0x45520c02
    6528:	544c5553 	bnel	v0,t4,1ba78 <SRAM_OS_TASK_STACK_ADDR+0x478>
    652c:	554c425f 	bnel	t2,t4,16eac <SRAM_BTCALL_ASQT_BUF_ADDR+0x2ac>
    6530:	45455445 	0x45455445
    6534:	435f4854 	c0	0x15f4854
    6538:	004c4c41 	0x4c4c41
    653c:	520c0287 	beql	s0,t4,6f5c <SRAM_AP_BANK_BACK_AL_1_SIZE+0x2f5c>
    6540:	4c555345 	0x4c555345
    6544:	4c425f54 	0x4c425f54
    6548:	45544555 	0x45544555
    654c:	5f485445 	0x5f485445
    6550:	4c4c4143 	0x4c4c4143
    6554:	4341425f 	c0	0x141425f
    6558:	4f52474b 	c3	0x152474b
    655c:	00444e55 	0x444e55
    6560:	520c0288 	beql	s0,t4,6f84 <SRAM_AP_BANK_BACK_AL_1_SIZE+0x2f84>
    6564:	4c555345 	0x4c555345
    6568:	53555f54 	beql	k0,s5,1e2bc <SRAM_BT_HCI_BUF_ADDR+0x9bc>
    656c:	4f535f42 	c3	0x1535f42
    6570:	00444e55 	0x444e55
    6574:	520c0289 	beql	s0,t4,6f9c <SRAM_AP_BANK_BACK_AL_1_SIZE+0x2f9c>
    6578:	4c555345 	0x4c555345
    657c:	4f505f54 	c3	0x1505f54
    6580:	5f524557 	0x5f524557
    6584:	0046464f 	0x46464f
    6588:	520c028a 	beql	s0,t4,6fb4 <SRAM_AP_BANK_BACK_AL_1_SIZE+0x2fb4>
    658c:	4c555345 	0x4c555345
    6590:	4f4c5f54 	c3	0x14c5f54
    6594:	4f505f57 	c3	0x1505f57
    6598:	00524557 	0x524557
    659c:	520c028b 	beql	s0,t4,6fcc <SRAM_AP_BANK_BACK_AL_1_SIZE+0x2fcc>
    65a0:	4c555345 	0x4c555345
    65a4:	53555f54 	beql	k0,s5,1e2f8 <SRAM_BT_HCI_BUF_ADDR+0x9f8>
    65a8:	52545f42 	beql	s2,s4,1e2b4 <SRAM_BT_HCI_BUF_ADDR+0x9b4>
    65ac:	00534e41 	0x534e41
    65b0:	520c028c 	beql	s0,t4,6fe4 <SRAM_AP_BANK_BACK_AL_1_SIZE+0x2fe4>
    65b4:	4c555345 	0x4c555345
    65b8:	45525f54 	0x45525f54
    65bc:	44524f43 	0x44524f43
    65c0:	4c50435f 	0x4c50435f
    65c4:	8d005941 	lw	zero,22849(t0)
    65c8:	45520c02 	0x45520c02
    65cc:	544c5553 	bnel	v0,t4,1bb1c <SRAM_OS_TASK_STACK_ADDR+0x51c>
    65d0:	4345525f 	c0	0x145525f
    65d4:	5f44524f 	0x5f44524f
    65d8:	414c5055 	0x414c5055
    65dc:	028e0059 	0x28e0059
    65e0:	5345520c 	beql	k0,a1,1ae14 <SRAM_OS_HEAP_ADDR+0x194>
    65e4:	5f544c55 	0x5f544c55
    65e8:	4f434552 	c3	0x1434552
    65ec:	4c5f4452 	0x4c5f4452
    65f0:	49454e49 	0x49454e49
    65f4:	4f545f4e 	c3	0x1545f4e
    65f8:	028f0043 	0x28f0043
    65fc:	5345520c 	beql	k0,a1,1ae30 <SRAM_OS_HEAP_ADDR+0x1b0>
    6600:	5f544c55 	0x5f544c55
    6604:	4f434552 	c3	0x1434552
    6608:	465f4452 	c1	0x5f4452
    660c:	4f545f4d 	c3	0x1545f4d
    6610:	02900043 	0x2900043
    6614:	5345520c 	beql	k0,a1,1ae48 <SRAM_OS_HEAP_ADDR+0x1c8>
    6618:	5f544c55 	0x5f544c55
    661c:	4f434552 	c3	0x1434552
    6620:	4d5f4452 	0x4d5f4452
    6624:	545f4349 	bnel	v0,ra,1734c <SRAM_BTCALL_ASQT_BUF_ADDR+0x74c>
    6628:	9100434f 	lbu	zero,17231(t0)
    662c:	45520c02 	0x45520c02
    6630:	544c5553 	bnel	v0,t4,1bb80 <SRAM_OS_TASK_STACK_ADDR+0x580>
    6634:	4345525f 	c0	0x145525f
    6638:	5f44524f 	0x5f44524f
    663c:	454e494c 	0x454e494c
    6640:	545f4e49 	bnel	v0,ra,19f68 <SRAM_AP_FRONT_DATA_ADDR+0x5e8>
    6644:	9200554f 	lbu	zero,21839(s0)
    6648:	45520c02 	0x45520c02
    664c:	544c5553 	bnel	v0,t4,1bb9c <SRAM_OS_TASK_STACK_ADDR+0x59c>
    6650:	4345525f 	c0	0x145525f
    6654:	5f44524f 	0x5f44524f
    6658:	545f4d46 	bnel	v0,ra,19b74 <SRAM_AP_FRONT_DATA_ADDR+0x1f4>
    665c:	9300554f 	lbu	zero,21839(t8)
    6660:	45520c02 	0x45520c02
    6664:	544c5553 	bnel	v0,t4,1bbb4 <SRAM_OS_TASK_STACK_ADDR+0x5b4>
    6668:	4345525f 	c0	0x145525f
    666c:	5f44524f 	0x5f44524f
    6670:	5f43494d 	0x5f43494d
    6674:	00554f54 	0x554f54
    6678:	520c0294 	beql	s0,t4,70cc <SRAM_AP_BACK_AL_RCODE_1_SIZE+0xcc>
    667c:	4c555345 	0x4c555345
    6680:	414c5f54 	0x414c5f54
    6684:	4c505453 	0x4c505453
    6688:	95005941 	lhu	zero,22849(t0)
    668c:	45520c02 	0x45520c02
    6690:	544c5553 	bnel	v0,t4,1bbe0 <SRAM_OS_TASK_STACK_ADDR+0x5e0>
    6694:	58454e5f 	0x58454e5f
    6698:	55465f54 	bnel	t2,a2,1e3ec <SRAM_BT_HCI_BUF_ADDR+0xaec>
    669c:	4954434e 	0x4954434e
    66a0:	96004e4f 	lhu	zero,20047(s0)
    66a4:	45520c02 	0x45520c02
    66a8:	544c5553 	bnel	v0,t4,1bbf8 <SRAM_OS_TASK_STACK_ADDR+0x5f8>
    66ac:	544e455f 	bnel	v0,t6,17c2c <SRAM_CARD_UD_RCODE_ADDR+0x82c>
    66b0:	555f5245 	bnel	t2,ra,1afc8 <SRAM_OS_HEAP_ADDR+0x348>
    66b4:	41524750 	0x41524750
    66b8:	97004544 	lhu	zero,17732(t8)
    66bc:	45520c02 	0x45520c02
    66c0:	544c5553 	bnel	v0,t4,1bc10 <SRAM_OS_TASK_STACK_ADDR+0x610>
    66c4:	49414d5f 	0x49414d5f
    66c8:	50415f4e 	beql	v0,at,1e404 <SRAM_BT_HCI_BUF_ADDR+0xb04>
    66cc:	02980050 	0x2980050
    66d0:	5345520c 	beql	k0,a1,1af04 <SRAM_OS_HEAP_ADDR+0x284>
    66d4:	5f544c55 	0x5f544c55
    66d8:	45544e45 	0x45544e45
    66dc:	4c415f52 	0x4c415f52
    66e0:	004d5241 	0x4d5241
    66e4:	520c0299 	beql	s0,t4,714c <SRAM_AP_BACK_AL_RCODE_1_SIZE+0x14c>
    66e8:	4c555345 	0x4c555345
    66ec:	4c415f54 	0x4c415f54
    66f0:	5f4d5241 	0x5f4d5241
    66f4:	4f4f4e53 	c3	0x14f4e53
    66f8:	9a00455a 	lwr	zero,17754(s0)
    66fc:	45520c02 	0x45520c02
    6700:	544c5553 	bnel	v0,t4,1bc50 <SRAM_OS_TASK_STACK_ADDR+0x650>
    6704:	414c415f 	0x414c415f
    6708:	435f4d52 	c0	0x15f4d52
    670c:	45534f4c 	0x45534f4c
    6710:	0c029b00 	jal	a6c00 <AP_BANK_SPACE+0x66c00>
    6714:	55534552 	bnel	t2,s3,17c60 <SRAM_CARD_UD_RCODE_ADDR+0x860>
    6718:	415f544c 	0x415f544c
    671c:	4d52414c 	0x4d52414c
    6720:	4e49525f 	c3	0x49525f
    6724:	4f465f47 	c3	0x1465f47
    6728:	5245444c 	beql	s2,a1,1785c <SRAM_CARD_UD_RCODE_ADDR+0x45c>
    672c:	4143535f 	0x4143535f
    6730:	029c004e 	0x29c004e
    6734:	5345520c 	beql	k0,a1,1af68 <SRAM_OS_HEAP_ADDR+0x2e8>
    6738:	5f544c55 	0x5f544c55
    673c:	4f545541 	c3	0x1545541
    6740:	4145535f 	0x4145535f
    6744:	00484352 	0x484352
    6748:	520c029d 	beql	s0,t4,71c0 <SRAM_AP_BACK_AL_RCODE_1_SIZE+0x1c0>
    674c:	4c555345 	0x4c555345
    6750:	414d5f54 	0x414d5f54
    6754:	4c41554e 	0x4c41554e
    6758:	4145535f 	0x4145535f
    675c:	5f484352 	0x5f484352
    6760:	9e005055 	0x9e005055
    6764:	45520c02 	0x45520c02
    6768:	544c5553 	bnel	v0,t4,1bcb8 <SRAM_OS_TASK_STACK_ADDR+0x6b8>
    676c:	4e414d5f 	c3	0x414d5f
    6770:	5f4c4155 	0x5f4c4155
    6774:	52414553 	beql	s2,at,17cc4 <SRAM_CARD_UD_RCODE_ADDR+0x8c4>
    6778:	445f4843 	0x445f4843
    677c:	004e574f 	0x4e574f
    6780:	520c029f 	beql	s0,t4,7200 <SRAM_AP_BACK_AL_RCODE_1_SIZE+0x200>
    6784:	4c555345 	0x4c555345
    6788:	54535f54 	bnel	v0,s3,1e4dc <SRAM_BT_HCI_BUF_ADDR+0xbdc>
    678c:	535f504f 	beql	k0,ra,1a8cc <SRAM_OS_DATA_ADDR+0x4cc>
    6790:	43524145 	c0	0x1524145
    6794:	02a00048 	0x2a00048
    6798:	5345520c 	beql	k0,a1,1afcc <SRAM_OS_HEAP_ADDR+0x34c>
    679c:	5f544c55 	0x5f544c55
    67a0:	464e4f43 	c1	0x4e4f43
    67a4:	435f4749 	c0	0x15f4749
    67a8:	47524148 	c1	0x1524148
    67ac:	02a10045 	0x2a10045
    67b0:	5345520c 	beql	k0,a1,1afe4 <SRAM_OS_HEAP_ADDR+0x364>
    67b4:	5f544c55 	0x5f544c55
    67b8:	464e4f43 	c1	0x4e4f43
    67bc:	435f4749 	c0	0x15f4749
    67c0:	47524148 	c1	0x1524148
    67c4:	55515f45 	bnel	t2,s1,1e4dc <SRAM_BT_HCI_BUF_ADDR+0xbdc>
    67c8:	a2005449 	sb	zero,21577(s0)
    67cc:	45520c02 	0x45520c02
    67d0:	544c5553 	bnel	v0,t4,1bd20 <SRAM_OS_TASK_STACK_ADDR+0x720>
    67d4:	544e455f 	bnel	v0,t6,17d54 <SRAM_CARD_UD_RCODE_ADDR+0x954>
    67d8:	415f5245 	0x415f5245
    67dc:	5f545153 	0x5f545153
    67e0:	545f4648 	bnel	v0,ra,18104 <SRAM_FS_DATA_ADDR+0x104>
    67e4:	00545345 	0x545345
    67e8:	520c02a3 	beql	s0,t4,7278 <SRAM_AP_BACK_AL_RCODE_1_SIZE+0x278>
    67ec:	4c555345 	0x4c555345
    67f0:	4e455f54 	c3	0x455f54
    67f4:	5f524554 	0x5f524554
    67f8:	52455355 	beql	s2,a1,1b550 <SRAM_OS_SD_SWAP_BUF_ADDR+0x150>
    67fc:	02a40031 	tgeu	s5,a0
    6800:	5345520c 	beql	k0,a1,1b034 <SRAM_OS_HEAP_ADDR+0x3b4>
    6804:	5f544c55 	0x5f544c55
    6808:	54535953 	bnel	v0,s3,1cd58 <SRAM_OS_TASK_STACK_ADDR+0x1758>
    680c:	455f4d45 	0x455f4d45
    6810:	5245544e 	beql	s2,a1,1b94c <SRAM_OS_TASK_STACK_ADDR+0x34c>
    6814:	0033535f 	0x33535f
    6818:	520c02a5 	beql	s0,t4,72b0 <SRAM_AP_BACK_AL_RCODE_1_SIZE+0x2b0>
    681c:	4c555345 	0x4c555345
    6820:	59535f54 	0x59535f54
    6824:	4d455453 	0x4d455453
    6828:	4958455f 	0x4958455f
    682c:	33535f54 	andi	s3,k0,0x5f54
    6830:	0c02a600 	jal	a9800 <AP_BANK_SPACE+0x69800>
    6834:	55534552 	bnel	t2,s3,17d80 <SRAM_CARD_UD_RCODE_ADDR+0x980>
    6838:	455f544c 	0x455f544c
    683c:	5245544e 	beql	s2,a1,1b978 <SRAM_OS_TASK_STACK_ADDR+0x378>
    6840:	5554535f 	bnel	t2,s4,1b5c0 <SRAM_OS_SD_SWAP_BUF_ADDR+0x1c0>
    6844:	45445f42 	0x45445f42
    6848:	00475542 	0x475542
    684c:	520c02a7 	beql	s0,t4,72ec <SRAM_AP_BACK_AL_RCODE_1_SIZE+0x2ec>
    6850:	4c555345 	0x4c555345
    6854:	53455f54 	beql	k0,a1,1e5a8 <SRAM_BT_HCI_BUF_ADDR+0xca8>
    6858:	45525f44 	0x45525f44
    685c:	52415453 	beql	s2,at,1b9ac <SRAM_OS_TASK_STACK_ADDR+0x3ac>
    6860:	02a80054 	0x2a80054
    6864:	5345520c 	beql	k0,a1,1b098 <SRAM_OS_HEAP_ADDR+0x418>
    6868:	5f544c55 	0x5f544c55
    686c:	454c4449 	0x454c4449
    6870:	444f4d5f 	0x444f4d5f
    6874:	02a90045 	0x2a90045
    6878:	5345520c 	beql	k0,a1,1b0ac <SRAM_OS_HEAP_ADDR+0x42c>
    687c:	5f544c55 	0x5f544c55
    6880:	45544e45 	0x45544e45
    6884:	544f5f52 	bnel	v0,t7,1e5d0 <SRAM_BT_HCI_BUF_ADDR+0xcd0>
    6888:	4f535f41 	c3	0x1535f41
    688c:	545f474e 	bnel	v0,ra,185c8 <SRAM_FS_BUF_ADDR+0x2c8>
    6890:	00545345 	0x545345
    6894:	520c02aa 	beql	s0,t4,7340 <SRAM_AP_BACK_AL_RCODE_1_SIZE+0x340>
    6898:	4c555345 	0x4c555345
    689c:	4c505f54 	0x4c505f54
    68a0:	535f5941 	beql	k0,ra,1cda8 <SRAM_OS_TASK_STACK_ADDR+0x17a8>
    68a4:	465f4444 	c1	0x5f4444
    68a8:	36314449 	ori	s1,s1,0x4449
    68ac:	0c02ab00 	jal	aac00 <AP_BANK_SPACE+0x6ac00>
    68b0:	55534552 	bnel	t2,s3,17dfc <SRAM_CARD_UD_RCODE_ADDR+0x9fc>
    68b4:	505f544c 	beql	v0,ra,1b9e8 <SRAM_OS_TASK_STACK_ADDR+0x3e8>
    68b8:	5f59414c 	0x5f59414c
    68bc:	5f444453 	0x5f444453
    68c0:	31444946 	andi	a0,t2,0x4946
    68c4:	02ac0037 	0x2ac0037
    68c8:	5345520c 	beql	k0,a1,1b0fc <SRAM_OS_HEAP_ADDR+0x47c>
    68cc:	5f544c55 	0x5f544c55
    68d0:	59414c50 	0x59414c50
    68d4:	4444535f 	0x4444535f
    68d8:	4449465f 	0x4449465f
    68dc:	ad003831 	sw	zero,14385(t0)
    68e0:	45520c02 	0x45520c02
    68e4:	544c5553 	bnel	v0,t4,1be34 <SRAM_OS_TASK_STACK_ADDR+0x834>
    68e8:	414c505f 	0x414c505f
    68ec:	44535f59 	0x44535f59
    68f0:	49465f44 	0x49465f44
    68f4:	00393144 	0x393144
    68f8:	520c02ae 	beql	s0,t4,73b4 <SRAM_AP_BACK_AL_RCODE_1_SIZE+0x3b4>
    68fc:	4c555345 	0x4c555345
    6900:	4c505f54 	0x4c505f54
    6904:	535f5941 	beql	k0,ra,1ce0c <SRAM_OS_TASK_STACK_ADDR+0x180c>
    6908:	465f4444 	c1	0x5f4444
    690c:	30324449 	andi	s2,at,0x4449
    6910:	0c02af00 	jal	abc00 <AP_BANK_SPACE+0x6bc00>
    6914:	55534552 	bnel	t2,s3,17e60 <SRAM_CARD_UD_RCODE_ADDR+0xa60>
    6918:	505f544c 	beql	v0,ra,1ba4c <SRAM_OS_TASK_STACK_ADDR+0x44c>
    691c:	5f59414c 	0x5f59414c
    6920:	5f444453 	0x5f444453
    6924:	32444946 	andi	a0,s2,0x4946
    6928:	02b00031 	tgeu	s5,s0
    692c:	5345520c 	beql	k0,a1,1b160 <SRAM_OS_HEAP_ADDR+0x4e0>
    6930:	5f544c55 	0x5f544c55
    6934:	59414c50 	0x59414c50
    6938:	4444535f 	0x4444535f
    693c:	4449465f 	0x4449465f
    6940:	b1003232 	0xb1003232
    6944:	45520c02 	0x45520c02
    6948:	544c5553 	bnel	v0,t4,1be98 <SRAM_OS_TASK_STACK_ADDR+0x898>
    694c:	414c505f 	0x414c505f
    6950:	44535f59 	0x44535f59
    6954:	49465f44 	0x49465f44
    6958:	00333244 	0x333244
    695c:	520c02b2 	beql	s0,t4,7428 <SRAM_AP_BACK_AL_RCODE_1_SIZE+0x428>
    6960:	4c555345 	0x4c555345
    6964:	4c505f54 	0x4c505f54
    6968:	535f5941 	beql	k0,ra,1ce70 <SRAM_OS_TASK_STACK_ADDR+0x1870>
    696c:	465f4444 	c1	0x5f4444
    6970:	34324449 	ori	s2,at,0x4449
    6974:	0c02b300 	jal	acc00 <AP_BANK_SPACE+0x6cc00>
    6978:	55534552 	bnel	t2,s3,17ec4 <SRAM_CARD_UD_RCODE_ADDR+0xac4>
    697c:	505f544c 	beql	v0,ra,1bab0 <SRAM_OS_TASK_STACK_ADDR+0x4b0>
    6980:	5f59414c 	0x5f59414c
    6984:	5f444453 	0x5f444453
    6988:	32444946 	andi	a0,s2,0x4946
    698c:	02b40035 	0x2b40035
    6990:	5345520c 	beql	k0,a1,1b1c4 <SRAM_OS_HEAP_ADDR+0x544>
    6994:	5f544c55 	0x5f544c55
    6998:	45544e45 	0x45544e45
    699c:	54425f52 	bnel	v0,v0,1e6e8 <SRAM_BT_HCI_BUF_ADDR+0xde8>
    69a0:	5042445f 	beql	v0,v0,17b20 <SRAM_CARD_UD_RCODE_ADDR+0x720>
    69a4:	0c02b500 	jal	ad400 <AP_BANK_SPACE+0x6d400>
    69a8:	55534552 	bnel	t2,s3,17ef4 <SRAM_CARD_UD_RCODE_ADDR+0xaf4>
    69ac:	445f544c 	0x445f544c
    69b0:	4f4c4149 	c3	0x14c4149
    69b4:	4b4f5f47 	c2	0x14f5f47
    69b8:	0c048000 	jal	120000 <AP_BANK_SPACE+0xe0000>
    69bc:	55534552 	bnel	t2,s3,17f08 <SRAM_CARD_UD_RCODE_ADDR+0xb08>
    69c0:	445f544c 	0x445f544c
    69c4:	4f4c4149 	c3	0x14c4149
    69c8:	41435f47 	0x41435f47
    69cc:	4c45434e 	0x4c45434e
    69d0:	0c048100 	jal	120400 <AP_BANK_SPACE+0xe0400>
    69d4:	55534552 	bnel	t2,s3,17f20 <SRAM_CARD_UD_RCODE_ADDR+0xb20>
    69d8:	445f544c 	0x445f544c
    69dc:	4f4c4149 	c3	0x14c4149
    69e0:	42415f47 	c0	0x415f47
    69e4:	0054524f 	0x54524f
    69e8:	520c0482 	beql	s0,t4,7bf4 <SRAM_AP_BACK_AL_RCODE_1_SIZE+0xbf4>
    69ec:	4c555345 	0x4c555345
    69f0:	49445f54 	0x49445f54
    69f4:	474f4c41 	c1	0x14f4c41
    69f8:	5445525f 	bnel	v0,a1,1b378 <SRAM_AP_MANAGER_RCODE_ADDR+0x78>
    69fc:	83005952 	lb	zero,22866(t8)
    6a00:	45520c04 	0x45520c04
    6a04:	544c5553 	bnel	v0,t4,1bf54 <SRAM_OS_TASK_STACK_ADDR+0x954>
    6a08:	4149445f 	0x4149445f
    6a0c:	5f474f4c 	0x5f474f4c
    6a10:	4f4e4749 	c3	0x14e4749
    6a14:	84004552 	lh	zero,17746(zero)
    6a18:	45520c04 	0x45520c04
    6a1c:	544c5553 	bnel	v0,t4,1bf6c <SRAM_OS_TASK_STACK_ADDR+0x96c>
    6a20:	4149445f 	0x4149445f
    6a24:	5f474f4c 	0x5f474f4c
    6a28:	00534559 	0x534559
    6a2c:	520c0485 	beql	s0,t4,7c44 <SRAM_AP_BACK_AL_RCODE_1_SIZE+0xc44>
    6a30:	4c555345 	0x4c555345
    6a34:	49445f54 	0x49445f54
    6a38:	474f4c41 	c1	0x14f4c41
    6a3c:	004f4e5f 	0x4f4e5f
    6a40:	520c0486 	beql	s0,t4,7c5c <SRAM_AP_BACK_AL_RCODE_1_SIZE+0xc5c>
    6a44:	4c555345 	0x4c555345
    6a48:	49445f54 	0x49445f54
    6a4c:	474f4c41 	c1	0x14f4c41
    6a50:	4e41435f 	c3	0x41435f
    6a54:	5f4c4543 	0x5f4c4543
    6a58:	4f545541 	c3	0x1545541
    6a5c:	0c048700 	jal	121c00 <AP_BANK_SPACE+0xe1c00>
    6a60:	55534552 	bnel	t2,s3,17fac <SRAM_CARD_UD_RCODE_ADDR+0xbac>
    6a64:	445f544c 	0x445f544c
    6a68:	4f4c4149 	c3	0x14c4149
    6a6c:	53555f47 	beql	k0,s5,1e78c <SRAM_BT_HCI_BUF_ADDR+0xe8c>
    6a70:	4f535f42 	c3	0x1535f42
    6a74:	00444e55 	0x444e55
    6a78:	520c0488 	beql	s0,t4,7c9c <SRAM_AP_BACK_AL_RCODE_1_SIZE+0xc9c>
    6a7c:	4c555345 	0x4c555345
    6a80:	49445f54 	0x49445f54
    6a84:	474f4c41 	c1	0x14f4c41
    6a88:	4c4e4f5f 	0x4c4e4f5f
    6a8c:	48435f59 	0x48435f59
    6a90:	45475241 	0x45475241
    6a94:	0c048900 	jal	122400 <AP_BANK_SPACE+0xe2400>
    6a98:	55534552 	bnel	t2,s3,17fe4 <SRAM_CARD_UD_RCODE_ADDR+0xbe4>
    6a9c:	485f544c 	0x485f544c
    6aa0:	535f4449 	beql	k0,ra,17bc8 <SRAM_CARD_UD_RCODE_ADDR+0x7c8>
    6aa4:	5f444e45 	0x5f444e45
    6aa8:	5f59454b 	0x5f59454b
    6aac:	4e455645 	c3	0x455645
    6ab0:	048a0054 	tlti	a0,84
    6ab4:	70610d00 	0x70610d00
    6ab8:	65725f70 	0x65725f70
    6abc:	746c7573 	jalx	1b1d5cc <AP_BANK_SPACE+0x1add5cc>
    6ac0:	0300655f 	0x300655f
    6ac4:	034e0180 	0x34e0180
    6ac8:	e90e0000 	swc2	$14,0(t0)
    6acc:	0400000a 	bltz	zero,6af8 <SRAM_AP_BANK_BACK_AL_1_SIZE+0x2af8>
    6ad0:	0f025504 	jal	c095410 <AP_BANK_SPACE+0xc055410>
    6ad4:	61746164 	0x61746164
    6ad8:	02520400 	0x2520400
    6adc:	0000024b 	0x24b
    6ae0:	6464610f 	0x6464610f
    6ae4:	54040072 	bnel	zero,a0,6cb0 <SRAM_AP_BANK_BACK_AL_1_SIZE+0x2cb0>
    6ae8:	00019402 	srl	s2,at,0x10
    6aec:	16100000 	bne	s0,s0,6af0 <SRAM_AP_BANK_BACK_AL_1_SIZE+0x2af0>
    6af0:	0800000b 	j	2c <SRAM_CARD_GLOBAL_DATA_SIZE+0x1c>
    6af4:	11025604 	beq	t0,v0,1c308 <SRAM_OS_TASK_STACK_ADDR+0xd08>
    6af8:	65707974 	0x65707974
    6afc:	024e0400 	0x24e0400
    6b00:	00000170 	tge	zero,zero,0x5
    6b04:	11002302 	beqz	t0,f710 <SRAM_ASRC_BUF_1_ADDR+0x710>
    6b08:	746e6f63 	jalx	1b9bd8c <AP_BANK_SPACE+0x1b5bd8c>
    6b0c:	00746e65 	0x746e65
    6b10:	c5025504 	lwc1	$f2,21764(t0)
    6b14:	0200000a 	movz	zero,s0,zero
    6b18:	0d000423 	jal	400108c <AP_BANK_SPACE+0x3fc108c>
    6b1c:	5f67736d 	0x5f67736d
    6b20:	73707061 	0x73707061
    6b24:	0400745f 	bltz	zero,23ca4 <SRAM_BT_HEAD_ADDR+0x18a4>
    6b28:	0ae90256 	j	ba40958 <AP_BANK_SPACE+0xba00958>
    6b2c:	69100000 	0x69100000
    6b30:	0800000b 	j	2c <SRAM_CARD_GLOBAL_DATA_SIZE+0x1c>
    6b34:	11026f04 	beq	t0,v0,22748 <SRAM_BT_HEAD_ADDR+0x348>
    6b38:	65707974 	0x65707974
    6b3c:	026b0400 	0x26b0400
    6b40:	0000013c 	0x13c
    6b44:	11002302 	beqz	t0,f750 <SRAM_ASRC_BUF_1_ADDR+0x750>
    6b48:	65736572 	0x65736572
    6b4c:	00657672 	tlt	v1,a1,0x1d9
    6b50:	5b026c04 	0x5b026c04
    6b54:	02000002 	0x2000002
    6b58:	63110123 	0x63110123
    6b5c:	65746e6f 	0x65746e6f
    6b60:	0400746e 	bltz	zero,23d1c <SRAM_BT_HEAD_ADDR+0x191c>
    6b64:	0194026e 	0x194026e
    6b68:	23020000 	addi	v0,t8,0
    6b6c:	6d0d0004 	0x6d0d0004
    6b70:	725f6773 	0x725f6773
    6b74:	796c7065 	0x796c7065
    6b78:	0400745f 	bltz	zero,23cf8 <SRAM_BT_HEAD_ADDR+0x18f8>
    6b7c:	0b29026f 	j	ca409bc <AP_BANK_SPACE+0xca009bc>
    6b80:	b6100000 	0xb6100000
    6b84:	1000000b 	b	6bb4 <SRAM_AP_BANK_BACK_AL_1_SIZE+0x2bb4>
    6b88:	11027c04 	beq	t0,v0,25b9c <SRAM_AP_BANK_FRONT_UI_ADDR+0x39c>
    6b8c:	0067736d 	0x67736d
    6b90:	16027704 	bne	s0,v0,247a4 <SRAM_BT_HEAD_ADDR+0x23a4>
    6b94:	0200000b 	movn	zero,s0,zero
    6b98:	73110023 	0x73110023
    6b9c:	04006d65 	bltz	zero,22134 <SRAM_AP_BANK_BACK_BASAL_ADDR+0x334>
    6ba0:	02350279 	0x2350279
    6ba4:	23020000 	addi	v0,t8,0
    6ba8:	65721108 	0x65721108
    6bac:	00796c70 	tge	v1,t9,0x1b1
    6bb0:	b6027b04 	0xb6027b04
    6bb4:	0200000b 	movn	zero,s0,zero
    6bb8:	0a000c23 	j	800308c <AP_BANK_SPACE+0x7fc308c>
    6bbc:	000b6904 	0xb6904
    6bc0:	72700d00 	0x72700d00
    6bc4:	74617669 	jalx	185d9a4 <AP_BANK_SPACE+0x181d9a4>
    6bc8:	736d5f65 	0x736d5f65
    6bcc:	00745f67 	0x745f67
    6bd0:	7d027c04 	0x7d027c04
    6bd4:	0a00000b 	j	800002c <AP_BANK_SPACE+0x7fc002c>
    6bd8:	000bbc04 	0xbbc04
    6bdc:	0e811000 	jal	a044000 <AP_BANK_SPACE+0xa004000>
    6be0:	081c0000 	j	700000 <AP_BANK_SPACE+0x6c0000>
    6be4:	65110132 	0x65110132
    6be8:	6e69676e 	0x6e69676e
    6bec:	79745f65 	0x79745f65
    6bf0:	08006570 	j	195c0 <SRAM_AP_BACK_DATA_ADDR+0x40>
    6bf4:	013c0107 	0x13c0107
    6bf8:	23020000 	addi	v0,t8,0
    6bfc:	6e651100 	0x6e651100
    6c00:	656e6967 	0x656e6967
    6c04:	6174735f 	0x6174735f
    6c08:	08006574 	j	195d0 <SRAM_AP_BACK_DATA_ADDR+0x50>
    6c0c:	013c0109 	0x13c0109
    6c10:	23020000 	addi	v0,t8,0
    6c14:	70611101 	0x70611101
    6c18:	74735f70 	jalx	1cd7dc0 <AP_BANK_SPACE+0x1c97dc0>
    6c1c:	00657461 	0x657461
    6c20:	3c010b08 	lui	at,0xb08
    6c24:	02000001 	movf	zero,s0,$fcc0
    6c28:	75110223 	jalx	444088c <AP_BANK_SPACE+0x440088c>
    6c2c:	74735f69 	jalx	1cd7da4 <AP_BANK_SPACE+0x1c97da4>
    6c30:	73757461 	0x73757461
    6c34:	010d0800 	0x10d0800
    6c38:	0000013c 	0x13c
    6c3c:	11032302 	beq	t0,v1,f848 <SRAM_ASRC_BUF_1_ADDR+0x848>
    6c40:	6f6e5f67 	0x6f6e5f67
    6c44:	7075735f 	udi15	v1,s5,t6,0xd
    6c48:	74726f70 	jalx	1c9bdc0 <AP_BANK_SPACE+0x1c5bdc0>
    6c4c:	7374745f 	udi15	k1,s4,t6,0x11
    6c50:	616c665f 	0x616c665f
    6c54:	12080067 	beq	s0,t0,6df4 <SRAM_AP_BANK_BACK_AL_1_SIZE+0x2df4>
    6c58:	00013c01 	0x13c01
    6c5c:	04230200 	bgezl	at,7460 <SRAM_AP_BACK_AL_RCODE_1_SIZE+0x460>
    6c60:	735f6711 	udi1	k0,ra,t4,0x1c
    6c64:	5f646e65 	0x5f646e65
    6c68:	74697865 	jalx	1a5e194 <AP_BANK_SPACE+0x1a1e194>
    6c6c:	6d6d6d5f 	0x6d6d6d5f
    6c70:	7374745f 	udi15	k1,s4,t6,0x11
    6c74:	01130800 	0x1130800
    6c78:	0000013c 	0x13c
    6c7c:	12052302 	beq	s0,a1,f888 <SRAM_ASRC_BUF_1_ADDR+0x888>
    6c80:	65776f70 	0x65776f70
    6c84:	6e6f5f72 	0x6e6f5f72
    6c88:	616c665f 	0x616c665f
    6c8c:	14080067 	bne	zero,t0,6e2c <SRAM_AP_BANK_BACK_AL_1_SIZE+0x2e2c>
    6c90:	00013c01 	0x13c01
    6c94:	04040100 	0x4040100
    6c98:	12062302 	beq	s0,a2,f8a4 <SRAM_ASRC_BUF_1_ADDR+0x8a4>
    6c9c:	62757473 	0x62757473
    6ca0:	646f6d5f 	0x646f6d5f
    6ca4:	6c665f65 	0x6c665f65
    6ca8:	08006761 	j	19d84 <SRAM_AP_FRONT_DATA_ADDR+0x404>
    6cac:	013c0115 	0x13c0115
    6cb0:	04010000 	b	6cb4 <SRAM_AP_BANK_BACK_AL_1_SIZE+0x2cb4>
    6cb4:	06230200 	bgezl	s1,74b8 <SRAM_AP_BACK_AL_RCODE_1_SIZE+0x4b8>
    6cb8:	756f7311 	jalx	5bdcc44 <AP_BANK_SPACE+0x5b9cc44>
    6cbc:	735f646e 	0x735f646e
    6cc0:	65746174 	0x65746174
    6cc4:	01180800 	0x1180800
    6cc8:	0000013c 	0x13c
    6ccc:	11072302 	beq	t0,a3,f8d8 <SRAM_ASRC_BUF_1_ADDR+0x8d8>
    6cd0:	5f786966 	0x5f786966
    6cd4:	706d6173 	0x706d6173
    6cd8:	725f656c 	0x725f656c
    6cdc:	5f657461 	0x5f657461
    6ce0:	67616c66 	0x67616c66
    6ce4:	011a0800 	0x11a0800
    6ce8:	0000013c 	0x13c
    6cec:	11082302 	beq	t0,t0,f8f8 <SRAM_ASRC_BUF_1_ADDR+0x8f8>
    6cf0:	74746162 	jalx	1d18588 <AP_BANK_SPACE+0x1cd8588>
    6cf4:	5f797265 	0x5f797265
    6cf8:	6f706572 	0x6f706572
    6cfc:	655f7472 	0x655f7472
    6d00:	6c62616e 	0x6c62616e
    6d04:	1d080065 	0x1d080065
    6d08:	00013c01 	0x13c01
    6d0c:	09230200 	j	48c0800 <AP_BANK_SPACE+0x4880800>
    6d10:	656e6511 	0x656e6511
    6d14:	5f796772 	0x5f796772
    6d18:	69617661 	0x69617661
    6d1c:	6c62616c 	0x6c62616c
    6d20:	6c665f65 	0x6c665f65
    6d24:	08006761 	j	19d84 <SRAM_AP_FRONT_DATA_ADDR+0x404>
    6d28:	009c0120 	0x9c0120
    6d2c:	23020000 	addi	v0,t8,0
    6d30:	5f70110a 	0x5f70110a
    6d34:	72656e65 	0x72656e65
    6d38:	765f7967 	jalx	97de59c <AP_BANK_SPACE+0x979e59c>
    6d3c:	65756c61 	0x65756c61
    6d40:	01210800 	0x1210800
    6d44:	00000e81 	0xe81
    6d48:	110c2302 	beq	t0,t4,f954 <SRAM_ASRC_BUF_1_ADDR+0x954>
    6d4c:	6e655f70 	0x6e655f70
    6d50:	79677265 	0x79677265
    6d54:	6c61765f 	0x6c61765f
    6d58:	625f6575 	0x625f6575
    6d5c:	73646e61 	0x73646e61
    6d60:	01240800 	0x1240800
    6d64:	00000e81 	0xe81
    6d68:	11102302 	beq	t0,s0,f974 <SRAM_ASRC_BUF_1_ADDR+0x974>
    6d6c:	6e655f70 	0x6e655f70
    6d70:	79677265 	0x79677265
    6d74:	6c61765f 	0x6c61765f
    6d78:	665f6575 	0x665f6575
    6d7c:	73716572 	0x73716572
    6d80:	01250800 	0x1250800
    6d84:	00000e81 	0xe81
    6d88:	11142302 	beq	t0,s4,f994 <SRAM_ASRC_BUF_1_ADDR+0x994>
    6d8c:	62757473 	0x62757473
    6d90:	5f63705f 	0x5f63705f
    6d94:	6c6f6f74 	0x6c6f6f74
    6d98:	79745f73 	0x79745f73
    6d9c:	08006570 	j	195c0 <SRAM_AP_BACK_DATA_ADDR+0x40>
    6da0:	013c0128 	0x13c0128
    6da4:	23020000 	addi	v0,t8,0
    6da8:	01351318 	0x1351318
    6dac:	29080000 	slti	t0,t0,0
    6db0:	00013c01 	0x13c01
    6db4:	19230200 	0x19230200
    6db8:	6e696212 	0x6e696212
    6dbc:	6d756e5f 	0x6d756e5f
    6dc0:	00726562 	0x726562
    6dc4:	3c012b08 	lui	at,0x2b08
    6dc8:	01000001 	movf	zero,t0,$fcc0
    6dcc:	23020503 	addi	v0,t8,1283
    6dd0:	6177121a 	0x6177121a
    6dd4:	5f736576 	0x5f736576
    6dd8:	5f656164 	0x5f656164
    6ddc:	61726170 	0x61726170
    6de0:	6470755f 	0x6470755f
    6de4:	5f657461 	0x5f657461
    6de8:	67616c66 	0x67616c66
    6dec:	012c0800 	0x12c0800
    6df0:	0000013c 	0x13c
    6df4:	02040101 	0x2040101
    6df8:	74121a23 	jalx	48688c <AP_BANK_SPACE+0x44688c>
    6dfc:	705f6f77 	0x705f6f77
    6e00:	656e6f68 	0x656e6f68
    6e04:	646f6d5f 	0x646f6d5f
    6e08:	2d080065 	sltiu	t0,t0,101
    6e0c:	00013c01 	0x13c01
    6e10:	03010100 	0x3010100
    6e14:	121a2302 	beq	s0,k0,fa20 <SRAM_COM_DAE_RCODE_ADDR+0x20>
    6e18:	63696f76 	0x63696f76
    6e1c:	65725f65 	0x65725f65
    6e20:	676e6f63 	0x676e6f63
    6e24:	657a696e 	0x657a696e
    6e28:	646f6d5f 	0x646f6d5f
    6e2c:	2e080065 	sltiu	t0,s0,101
    6e30:	00013c01 	0x13c01
    6e34:	02010100 	0x2010100
    6e38:	121a2302 	beq	s0,k0,fa44 <SRAM_COM_DAE_RCODE_ADDR+0x44>
    6e3c:	63696f76 	0x63696f76
    6e40:	65725f65 	0x65725f65
    6e44:	696e6763 	0x696e6763
    6e48:	735f657a 	0x735f657a
    6e4c:	5f706f74 	0x5f706f74
    6e50:	65646f6d 	0x65646f6d
    6e54:	012f0800 	0x12f0800
    6e58:	0000013c 	0x13c
    6e5c:	02010101 	0x2010101
    6e60:	73121a23 	0x73121a23
    6e64:	7472616d 	jalx	1c985b4 <AP_BANK_SPACE+0x1c585b4>
    6e68:	6675625f 	0x6675625f
    6e6c:	6172745f 	0x6172745f
    6e70:	665f736e 	0x665f736e
    6e74:	0067616c 	0x67616c
    6e78:	3c013108 	lui	at,0x3108
    6e7c:	01000001 	movf	zero,t0,$fcc0
    6e80:	23020001 	addi	v0,t8,1
    6e84:	040a001a 	tlti	zero,26
    6e88:	000000ce 	0xce
    6e8c:	7070610d 	0x7070610d
    6e90:	666e695f 	0x666e695f
    6e94:	74735f6f 	jalx	1cd7dbc <AP_BANK_SPACE+0x1c97dbc>
    6e98:	5f657461 	0x5f657461
    6e9c:	5f6c6c61 	0x5f6c6c61
    6ea0:	32080074 	andi	t0,s0,0x74
    6ea4:	000bd801 	0xbd801
    6ea8:	110a1000 	beq	t0,t2,aeac <SRAM_BT_EXT1_BANK_ADDR+0x6ac>
    6eac:	08180000 	j	600000 <AP_BANK_SPACE+0x5c0000>
    6eb0:	6d11016b 	0x6d11016b
    6eb4:	5f657475 	0x5f657475
    6eb8:	74617473 	jalx	185d1cc <AP_BANK_SPACE+0x181d1cc>
    6ebc:	3a080065 	xori	t0,s0,0x65
    6ec0:	00009c01 	0x9c01
    6ec4:	00230200 	0x230200
    6ec8:	5f617011 	0x5f617011
    6ecc:	65646f6d 	0x65646f6d
    6ed0:	013c0800 	0x13c0800
    6ed4:	0000009c 	0x9c
    6ed8:	11012302 	beq	t0,at,fae4 <SRAM_COM_DAE_RCODE_ADDR+0xe4>
    6edc:	74756f61 	jalx	1d5bd84 <AP_BANK_SPACE+0x1d1bd84>
    6ee0:	646f6d5f 	0x646f6d5f
    6ee4:	3e080065 	0x3e080065
    6ee8:	00013c01 	0x13c01
    6eec:	02230200 	0x2230200
    6ef0:	63616211 	0x63616211
    6ef4:	67696c6b 	0x67696c6b
    6ef8:	735f7468 	0x735f7468
    6efc:	65746174 	0x65746174
    6f00:	01400800 	0x1400800
    6f04:	0000013c 	0x13c
    6f08:	11032302 	beq	t0,v1,fb14 <SRAM_BTCALL_EXT_RCODE_ADDR+0x14>
    6f0c:	64726163 	0x64726163
    6f10:	6174735f 	0x6174735f
    6f14:	08006574 	j	195d0 <SRAM_AP_BACK_DATA_ADDR+0x50>
    6f18:	013c0142 	0x13c0142
    6f1c:	23020000 	addi	v0,t8,0
    6f20:	68751104 	0x68751104
    6f24:	5f74736f 	0x5f74736f
    6f28:	74617473 	jalx	185d1cc <AP_BANK_SPACE+0x181d1cc>
    6f2c:	44080065 	0x44080065
    6f30:	00013c01 	0x13c01
    6f34:	05230200 	bgezl	t1,7738 <SRAM_AP_BACK_AL_RCODE_1_SIZE+0x738>
    6f38:	6e696c11 	0x6e696c11
    6f3c:	5f6e6965 	0x5f6e6965
    6f40:	74617473 	jalx	185d1cc <AP_BANK_SPACE+0x181d1cc>
    6f44:	46080065 	c1	0x80065
    6f48:	00013c01 	0x13c01
    6f4c:	06230200 	bgezl	s1,7750 <SRAM_AP_BACK_AL_RCODE_1_SIZE+0x750>
    6f50:	62616311 	0x62616311
    6f54:	735f656c 	0x735f656c
    6f58:	65746174 	0x65746174
    6f5c:	01480800 	0x1480800
    6f60:	0000013c 	0x13c
    6f64:	11072302 	beq	t0,a3,fb70 <SRAM_BTCALL_EXT_RCODE_ADDR+0x70>
    6f68:	735f7068 	0x735f7068
    6f6c:	65746174 	0x65746174
    6f70:	014a0800 	0x14a0800
    6f74:	0000009c 	0x9c
    6f78:	11082302 	beq	t0,t0,fb84 <SRAM_BTCALL_EXT_RCODE_ADDR+0x84>
    6f7c:	72616863 	0x72616863
    6f80:	735f6567 	0x735f6567
    6f84:	65746174 	0x65746174
    6f88:	014c0800 	0x14c0800
    6f8c:	0000013c 	0x13c
    6f90:	11092302 	beq	t0,t1,fb9c <SRAM_BTCALL_EXT_RCODE_ADDR+0x9c>
    6f94:	5f746162 	0x5f746162
    6f98:	756c6176 	jalx	5b185d8 <AP_BANK_SPACE+0x5ad85d8>
    6f9c:	4e080065 	c3	0x80065
    6fa0:	00013c01 	0x13c01
    6fa4:	0a230200 	j	88c0800 <AP_BANK_SPACE+0x8880800>
    6fa8:	6e697211 	0x6e697211
    6fac:	6c615f67 	0x6c615f67
    6fb0:	006d7261 	0x6d7261
    6fb4:	9c015008 	0x9c015008
    6fb8:	02000000 	0x2000000
    6fbc:	73120b23 	0x73120b23
    6fc0:	5f627574 	0x5f627574
    6fc4:	6c6f6f74 	0x6c6f6f74
    6fc8:	79745f73 	0x79745f73
    6fcc:	08006570 	j	195c0 <SRAM_AP_BACK_DATA_ADDR+0x40>
    6fd0:	013c0152 	0x13c0152
    6fd4:	07010000 	bgez	t8,6fd8 <SRAM_AP_BANK_BACK_AL_1_SIZE+0x2fd8>
    6fd8:	0c230201 	jal	8c0804 <AP_BANK_SPACE+0x880804>
    6fdc:	00013514 	0x13514
    6fe0:	01530800 	0x1530800
    6fe4:	0000013c 	0x13c
    6fe8:	02000101 	0x2000101
    6fec:	61110c23 	0x61110c23
    6ff0:	746f7475 	jalx	1bdd1d4 <AP_BANK_SPACE+0x1b9d1d4>
    6ff4:	5f747365 	0x5f747365
    6ff8:	65646f6d 	0x65646f6d
    6ffc:	01550800 	0x1550800
    7000:	0000013c 	0x13c
    7004:	110d2302 	beq	t0,t5,fc10 <SRAM_CARD_BUF_0_ADDR+0x10>
    7008:	63746170 	0x63746170
    700c:	6f645f68 	0x6f645f68
    7010:	6f6c6e77 	0x6f6c6e77
    7014:	665f6461 	0x665f6461
    7018:	0067616c 	0x67616c
    701c:	9c015808 	0x9c015808
    7020:	02000000 	0x2000000
    7024:	62110e23 	0x62110e23
    7028:	6f705f74 	0x6f705f74
    702c:	5f726577 	0x5f726577
    7030:	08006e6f 	j	1b9bc <SRAM_OS_TASK_STACK_ADDR+0x3bc>
    7034:	009c015a 	0x9c015a
    7038:	23020000 	addi	v0,t8,0
    703c:	6e69110f 	0x6e69110f
    7040:	5f72656e 	0x5f72656e
    7044:	695f6170 	0x695f6170
    7048:	6574696e 	0x6574696e
    704c:	5c080064 	0x5c080064
    7050:	00009c01 	0x9c01
    7054:	10230200 	beq	at,v1,7858 <SRAM_AP_BACK_AL_RCODE_1_SIZE+0x858>
    7058:	74756f11 	jalx	1d5bc44 <AP_BANK_SPACE+0x1d1bc44>
    705c:	705f7265 	0x705f7265
    7060:	6e6f5f61 	0x6e6f5f61
    7064:	015e0800 	0x15e0800
    7068:	0000009c 	0x9c
    706c:	11112302 	beq	t0,s1,fc78 <SRAM_CARD_BUF_0_ADDR+0x78>
    7070:	5f727563 	0x5f727563
    7074:	636e7566 	0x636e7566
    7078:	646e695f 	0x646e695f
    707c:	08007865 	j	1e194 <SRAM_BT_HCI_BUF_ADDR+0x894>
    7080:	013c0160 	0x13c0160
    7084:	23020000 	addi	v0,t8,0
    7088:	75631112 	jalx	58c4448 <AP_BANK_SPACE+0x5884448>
    708c:	75665f72 	jalx	5997dc8 <AP_BANK_SPACE+0x5957dc8>
    7090:	695f636e 	0x695f636e
    7094:	62080064 	0x62080064
    7098:	00013c01 	0x13c01
    709c:	13230200 	beq	t9,v1,78a0 <SRAM_AP_BACK_AL_RCODE_1_SIZE+0x8a0>
    70a0:	6b706111 	0x6b706111
    70a4:	6174735f 	0x6174735f
    70a8:	00737574 	teq	v1,s3,0x1d5
    70ac:	3c016408 	lui	at,0x6408
    70b0:	02000001 	movf	zero,s0,$fcc0
    70b4:	76111423 	jalx	844508c <AP_BANK_SPACE+0x840508c>
    70b8:	66697265 	0x66697265
    70bc:	74616369 	jalx	1858da4 <AP_BANK_SPACE+0x1818da4>
    70c0:	5f6e6f69 	0x5f6e6f69
    70c4:	74617473 	jalx	185d1cc <AP_BANK_SPACE+0x181d1cc>
    70c8:	08007375 	j	1cdd4 <SRAM_OS_TASK_STACK_ADDR+0x17d4>
    70cc:	013c0166 	0x13c0166
    70d0:	23020000 	addi	v0,t8,0
    70d4:	656e1115 	0x656e1115
    70d8:	755f6465 	jalx	57d9194 <AP_BANK_SPACE+0x5799194>
    70dc:	74616470 	jalx	18591c0 <AP_BANK_SPACE+0x18191c0>
    70e0:	6c705f65 	0x6c705f65
    70e4:	696c7961 	0x696c7961
    70e8:	08007473 	j	1d1cc <SRAM_OS_TASK_STACK_ADDR+0x1bcc>
    70ec:	013c0168 	0x13c0168
    70f0:	23020000 	addi	v0,t8,0
    70f4:	78651116 	0x78651116
    70f8:	6e726574 	0x6e726574
    70fc:	7461625f 	jalx	185897c <AP_BANK_SPACE+0x181897c>
    7100:	006e695f 	0x6e695f
    7104:	3c016a08 	lui	at,0x6a08
    7108:	02000001 	movf	zero,s0,$fcc0
    710c:	0d001723 	jal	4005c8c <AP_BANK_SPACE+0x3fc5c8c>
    7110:	5f707061 	0x5f707061
    7114:	6f666e69 	0x6f666e69
    7118:	6174735f 	0x6174735f
    711c:	745f6574 	jalx	17d95d0 <AP_BANK_SPACE+0x17995d0>
    7120:	016b0800 	0x16b0800
    7124:	00000ea4 	0xea4
    7128:	00119210 	0x119210
    712c:	7a080400 	0x7a080400
    7130:	616c1101 	0x616c1101
    7134:	645f7473 	0x645f7473
    7138:	006b7369 	0x6b7369
    713c:	3c017308 	lui	at,0x7308
    7140:	02000001 	movf	zero,s0,$fcc0
    7144:	6c110023 	0x6c110023
    7148:	5f747361 	0x5f747361
    714c:	636e7566 	0x636e7566
    7150:	646e695f 	0x646e695f
    7154:	08007865 	j	1e194 <SRAM_BT_HCI_BUF_ADDR+0x894>
    7158:	013c0175 	0x13c0175
    715c:	23020000 	addi	v0,t8,0
    7160:	616c1101 	0x616c1101
    7164:	735f7473 	0x735f7473
    7168:	735f7379 	0x735f7379
    716c:	75746174 	jalx	5d185d0 <AP_BANK_SPACE+0x5cd85d0>
    7170:	77080073 	jalx	c2001cc <AP_BANK_SPACE+0xc1c01cc>
    7174:	00013c01 	0x13c01
    7178:	02230200 	0x2230200
    717c:	73616c11 	udi1	k1,at,t5,0x10
    7180:	69755f74 	0x69755f74
    7184:	6174735f 	0x6174735f
    7188:	00737574 	teq	v1,s3,0x1d5
    718c:	3c017908 	lui	at,0x7908
    7190:	02000001 	movf	zero,s0,$fcc0
    7194:	0d000323 	jal	4000c8c <AP_BANK_SPACE+0x3fc0c8c>
    7198:	5f707061 	0x5f707061
    719c:	7473616c 	jalx	1cd85b0 <AP_BANK_SPACE+0x1c985b0>
    71a0:	6174735f 	0x6174735f
    71a4:	745f6574 	jalx	17d95d0 <AP_BANK_SPACE+0x17995d0>
    71a8:	017a0800 	0x17a0800
    71ac:	00001123 	0x1123
    71b0:	0012390b 	0x12390b
    71b4:	380a0100 	xori	t2,zero,0x100
    71b8:	54554f0c 	bnel	v0,s5,1adec <SRAM_OS_HEAP_ADDR+0x16c>
    71bc:	5f545550 	0x5f545550
    71c0:	4e414843 	c3	0x414843
    71c4:	5f4c454e 	0x5f4c454e
    71c8:	4d524f4e 	0x4d524f4e
    71cc:	00004c41 	0x4c41
    71d0:	54554f0c 	bnel	v0,s5,1ae04 <SRAM_OS_HEAP_ADDR+0x184>
    71d4:	5f545550 	0x5f545550
    71d8:	4e414843 	c3	0x414843
    71dc:	5f4c454e 	0x5f4c454e
    71e0:	5f525f4c 	0x5f525f4c
    71e4:	54495753 	bnel	v0,t1,1cf34 <SRAM_OS_TASK_STACK_ADDR+0x1934>
    71e8:	01004843 	0x1004843
    71ec:	54554f0c 	bnel	v0,s5,1ae20 <SRAM_OS_HEAP_ADDR+0x1a0>
    71f0:	5f545550 	0x5f545550
    71f4:	4e414843 	c3	0x414843
    71f8:	5f4c454e 	0x5f4c454e
    71fc:	5f525f4c 	0x5f525f4c
    7200:	4752454d 	c1	0x152454d
    7204:	0c020045 	jal	80114 <AP_BANK_SPACE+0x40114>
    7208:	5054554f 	beql	v0,s4,1c748 <SRAM_OS_TASK_STACK_ADDR+0x1148>
    720c:	435f5455 	c0	0x15f5455
    7210:	4e4e4148 	c3	0x4e4148
    7214:	4c5f4c45 	0x4c5f4c45
    7218:	415f525f 	0x415f525f
    721c:	4c5f4c4c 	0x4c5f4c4c
    7220:	4f0c0300 	c3	0x10c0300
    7224:	55505455 	bnel	t2,s0,1c37c <SRAM_OS_TASK_STACK_ADDR+0xd7c>
    7228:	48435f54 	0x48435f54
    722c:	454e4e41 	0x454e4e41
    7230:	5f4c5f4c 	0x5f4c5f4c
    7234:	4c415f52 	0x4c415f52
    7238:	00525f4c 	syscall	0x1497d
    723c:	6f030004 	0x6f030004
    7240:	75707475 	jalx	5c1d1d4 <AP_BANK_SPACE+0x5bdd1d4>
    7244:	68635f74 	0x68635f74
    7248:	656e6e61 	0x656e6e61
    724c:	00655f6c 	0x655f6c
    7250:	11ab3e0a 	beq	t5,t3,16a7c <SRAM_BT_UART_BUF_ADDR+0x67c>
    7254:	95080000 	lhu	t0,0(t0)
    7258:	08000012 	j	48 <AP_BANK_FRONT_UI_1>
    725c:	6309490a 	0x6309490a
    7260:	666f7475 	0x666f7475
    7264:	420a0066 	c0	0xa0066
    7268:	00000155 	0x155
    726c:	09002302 	j	4008c08 <AP_BANK_SPACE+0x3fc8c08>
    7270:	440a0071 	0x440a0071
    7274:	00000155 	0x155
    7278:	09022302 	j	4088c08 <AP_BANK_SPACE+0x4048c08>
    727c:	6e696167 	0x6e696167
    7280:	63460a00 	0x63460a00
    7284:	02000001 	movf	zero,s0,$fcc0
    7288:	74090423 	jalx	24108c <AP_BANK_SPACE+0x20108c>
    728c:	00657079 	0x657079
    7290:	0155480a 	movz	t1,t2,s5
    7294:	23020000 	addi	v0,t8,0
    7298:	70030006 	0x70030006
    729c:	625f7165 	0x625f7165
    72a0:	5f646e61 	0x5f646e61
    72a4:	490a0074 	bc2fl	$cc2,7478 <SRAM_AP_BACK_AL_RCODE_1_SIZE+0x478>
    72a8:	00001251 	0x1251
    72ac:	0012f208 	0x12f208
    72b0:	500a0800 	beql	zero,t2,92b4 <SRAM_BANK_A_ADDR+0x2b4>
    72b4:	72687409 	0x72687409
    72b8:	6f687365 	0x6f687365
    72bc:	0a00646c 	j	80191b0 <AP_BANK_SPACE+0x7fd91b0>
    72c0:	0000ce4c 	syscall	0x339
    72c4:	00230200 	0x230200
    72c8:	00011c15 	0x11c15
    72cc:	ce4d0a00 	pref	0xd,2560(s2)
    72d0:	02000000 	0x2000000
    72d4:	28150223 	slti	s5,zero,547
    72d8:	0a000001 	j	8000004 <AP_BANK_SPACE+0x7fc0004>
    72dc:	0000ce4e 	0xce4e
    72e0:	04230200 	bgezl	at,7ae4 <SRAM_AP_BACK_AL_RCODE_1_SIZE+0xae4>
    72e4:	73657209 	0x73657209
    72e8:	65767265 	0x65767265
    72ec:	ce4f0a00 	pref	0xf,2560(s2)
    72f0:	02000000 	0x2000000
    72f4:	03000623 	0x3000623
    72f8:	6372646d 	0x6372646d
    72fc:	6e61625f 	0x6e61625f
    7300:	00745f64 	0x745f64
    7304:	12a7500a 	beq	s5,a3,1b330 <SRAM_AP_MANAGER_RCODE_ADDR+0x30>
    7308:	2e080000 	sltiu	t0,s0,0
    730c:	04000013 	bltz	zero,735c <SRAM_AP_BACK_AL_RCODE_1_SIZE+0x35c>
    7310:	6309570a 	0x6309570a
    7314:	666f7475 	0x666f7475
    7318:	540a0066 	bnel	zero,t2,74b4 <SRAM_AP_BACK_AL_RCODE_1_SIZE+0x4b4>
    731c:	00000155 	0x155
    7320:	09002302 	j	4008c08 <AP_BANK_SPACE+0x3fc8c08>
    7324:	6e696167 	0x6e696167
    7328:	63560a00 	0x63560a00
    732c:	02000001 	movf	zero,s0,$fcc0
    7330:	03000223 	0x3000223
    7334:	5f656164 	0x5f656164
    7338:	5f686e65 	0x5f686e65
    733c:	6b616577 	0x6b616577
    7340:	625f6e65 	0x625f6e65
    7344:	5f646e61 	0x5f646e61
    7348:	570a0074 	bnel	t8,t2,751c <SRAM_AP_BACK_AL_RCODE_1_SIZE+0x51c>
    734c:	00001305 	0x1305
    7350:	0013b908 	0x13b908
    7354:	610a2c00 	0x610a2c00
    7358:	6d756e09 	0x6d756e09
    735c:	6e61625f 	0x6e61625f
    7360:	5c0a0064 	0x5c0a0064
    7364:	0000013c 	0x13c
    7368:	09002302 	j	4008c08 <AP_BANK_SPACE+0x3fc8c08>
    736c:	5f6d756e 	0x5f6d756e
    7370:	71657266 	0x71657266
    7374:	696f705f 	0x696f705f
    7378:	0a00746e 	j	801d1b8 <AP_BANK_SPACE+0x7fdd1b8>
    737c:	00013c5d 	0x13c5d
    7380:	01230200 	0x1230200
    7384:	72756409 	0x72756409
    7388:	6f697461 	0x6f697461
    738c:	736d5f6e 	0x736d5f6e
    7390:	ce5e0a00 	pref	0x1e,2560(s2)
    7394:	02000000 	0x2000000
    7398:	66090223 	0x66090223
    739c:	0a00635f 	j	8018d7c <AP_BANK_SPACE+0x7fd8d7c>
    73a0:	00023b5f 	0x23b5f
    73a4:	04230200 	bgezl	at,7ba8 <SRAM_AP_BACK_AL_RCODE_1_SIZE+0xba8>
    73a8:	65726609 	0x65726609
    73ac:	6f705f71 	0x6f705f71
    73b0:	00746e69 	0x746e69
    73b4:	023b600a 	movz	t4,s1,k1
    73b8:	23020000 	addi	v0,t8,0
    73bc:	64030018 	0x64030018
    73c0:	615f6561 	0x615f6561
    73c4:	69727474 	0x69727474
    73c8:	65747562 	0x65747562
    73cc:	00745f73 	tltu	v1,s4,0x17d
    73d0:	134b610a 	beq	k0,t3,1f7fc <SRAM_BT_RCODE_DATA_ADDR+0x6fc>
    73d4:	42080000 	c0	0x80000
    73d8:	0e000014 	jal	8000050 <AP_BANK_SPACE+0x7fc0050>
    73dc:	4315700a 	c0	0x115700a
    73e0:	0a000001 	j	8000004 <AP_BANK_SPACE+0x7fc0004>
    73e4:	0000ce69 	0xce69
    73e8:	00230200 	0x230200
    73ec:	74617209 	jalx	185c824 <AP_BANK_SPACE+0x181c824>
    73f0:	00316f69 	0x316f69
    73f4:	00ce6a0a 	0xce6a0a
    73f8:	23020000 	addi	v0,t8,0
    73fc:	014e1502 	0x14e1502
    7400:	6b0a0000 	0x6b0a0000
    7404:	000000ce 	0xce
    7408:	09042302 	j	4108c08 <AP_BANK_SPACE+0x40c8c08>
    740c:	69746172 	0x69746172
    7410:	0a00326f 	j	800c9bc <AP_BANK_SPACE+0x7fcc9bc>
    7414:	0000ce6c 	0xce6c
    7418:	06230200 	bgezl	s1,7c1c <SRAM_AP_BACK_AL_RCODE_1_SIZE+0xc1c>
    741c:	76617409 	jalx	985d024 <AP_BANK_SPACE+0x981d024>
    7420:	ce6d0a00 	pref	0xd,2560(s3)
    7424:	02000000 	0x2000000
    7428:	1c150823 	0x1c150823
    742c:	0a000001 	j	8000004 <AP_BANK_SPACE+0x7fc0004>
    7430:	0000ce6e 	0xce6e
    7434:	0a230200 	j	88c0800 <AP_BANK_SPACE+0x8880800>
    7438:	00012815 	0x12815
    743c:	ce6f0a00 	pref	0xf,2560(s3)
    7440:	02000000 	0x2000000
    7444:	03000c23 	0x3000c23
    7448:	5f656164 	0x5f656164
    744c:	706d6f63 	0x706d6f63
    7450:	73736572 	0x73736572
    7454:	735f726f 	0x735f726f
    7458:	646e6174 	0x646e6174
    745c:	5f647261 	0x5f647261
    7460:	65646f6d 	0x65646f6d
    7464:	0a00745f 	j	801d17c <AP_BANK_SPACE+0x7fdd17c>
    7468:	0013d170 	tge	zero,s3,0x345
    746c:	15010800 	bne	t0,at,9470 <SRAM_BANK_B_ADDR+0x70>
    7470:	0a100000 	j	8400000 <AP_BANK_SPACE+0x83c0000>
    7474:	0143157b 	0x143157b
    7478:	730a0000 	madd	t8,t2
    747c:	000000ce 	0xce
    7480:	09002302 	j	4008c08 <AP_BANK_SPACE+0x3fc8c08>
    7484:	706d6f63 	0x706d6f63
    7488:	73736572 	0x73736572
    748c:	7461725f 	jalx	185c97c <AP_BANK_SPACE+0x181c97c>
    7490:	00316f69 	0x316f69
    7494:	00ce740a 	0xce740a
    7498:	23020000 	addi	v0,t8,0
    749c:	014e1502 	0x14e1502
    74a0:	750a0000 	jalx	4280000 <AP_BANK_SPACE+0x4240000>
    74a4:	000000ce 	0xce
    74a8:	09042302 	j	4108c08 <AP_BANK_SPACE+0x40c8c08>
    74ac:	706d6f63 	0x706d6f63
    74b0:	73736572 	0x73736572
    74b4:	7461725f 	jalx	185c97c <AP_BANK_SPACE+0x181c97c>
    74b8:	00326f69 	0x326f69
    74bc:	00ce760a 	0xce760a
    74c0:	23020000 	addi	v0,t8,0
    74c4:	61740906 	0x61740906
    74c8:	69745f76 	0x69745f76
    74cc:	0a00656d 	j	80195b4 <AP_BANK_SPACE+0x7fd95b4>
    74d0:	0000ce77 	0xce77
    74d4:	08230200 	j	8c0800 <AP_BANK_SPACE+0x880800>
    74d8:	00011c15 	0x11c15
    74dc:	ce780a00 	pref	0x18,2560(s3)
    74e0:	02000000 	0x2000000
    74e4:	28150a23 	slti	s5,zero,2595
    74e8:	0a000001 	j	8000004 <AP_BANK_SPACE+0x7fc0004>
    74ec:	0000ce79 	0xce79
    74f0:	0c230200 	jal	8c0800 <AP_BANK_SPACE+0x880800>
    74f4:	6b616d09 	0x6b616d09
    74f8:	00707565 	0x707565
    74fc:	00ce7a0a 	0xce7a0a
    7500:	23020000 	addi	v0,t8,0
    7504:	6403000e 	0x6403000e
    7508:	6d5f6561 	0x6d5f6561
    750c:	5f637264 	0x5f637264
    7510:	646e6162 	0x646e6162
    7514:	6174735f 	0x6174735f
    7518:	7261646e 	0x7261646e
    751c:	6f6d5f64 	0x6f6d5f64
    7520:	745f6564 	jalx	17d9590 <AP_BANK_SPACE+0x1799590>
    7524:	687b0a00 	0x687b0a00
    7528:	08000014 	j	50 <AP_BANK_FRONT_BASAL>
    752c:	00001593 	0x1593
    7530:	09820a08 	j	6082820 <AP_BANK_SPACE+0x6042820>
    7534:	6e676973 	0x6e676973
    7538:	615f6c61 	0x615f6c61
    753c:	73756a64 	0x73756a64
    7540:	7e0a0074 	0x7e0a0074
    7544:	00000163 	0x163
    7548:	09002302 	j	4008c08 <AP_BANK_SPACE+0x3fc8c08>
    754c:	6372646d 	0x6372646d
    7550:	6f72635f 	0x6f72635f
    7554:	766f7373 	jalx	9bdcdcc <AP_BANK_SPACE+0x9b9cdcc>
    7558:	665f7265 	0x665f7265
    755c:	30716572 	andi	s1,v1,0x6572
    7560:	ce7f0a00 	pref	0x1f,2560(s3)
    7564:	02000000 	0x2000000
    7568:	6d090223 	0x6d090223
    756c:	5f637264 	0x5f637264
    7570:	736f7263 	0x736f7263
    7574:	65766f73 	0x65766f73
    7578:	72665f72 	0x72665f72
    757c:	00317165 	0x317165
    7580:	00ce800a 	movz	s0,a2,t6
    7584:	23020000 	addi	v0,t8,0
    7588:	01591504 	0x1591504
    758c:	810a0000 	lb	t2,0(t0)
    7590:	00000163 	0x163
    7594:	00062302 	srl	a0,a2,0xc
    7598:	72646d03 	0x72646d03
    759c:	78655f63 	0x78655f63
    75a0:	646e6574 	0x646e6574
    75a4:	7261705f 	udi15	s3,at,t6,0x1
    75a8:	74735f61 	jalx	1cd7d84 <AP_BANK_SPACE+0x1c97d84>
    75ac:	61646e61 	0x61646e61
    75b0:	6d5f6472 	0x6d5f6472
    75b4:	5f65646f 	0x5f65646f
    75b8:	820a0074 	lb	t2,116(s0)
    75bc:	00001526 	0x1526
    75c0:	00167808 	0x167808
    75c4:	8a0a0800 	lwl	t2,2048(s0)
    75c8:	52444d09 	beql	s2,a0,1a9f0 <SRAM_OS_DATA_ADDR+0x5f0>
    75cc:	6f635f43 	0x6f635f43
    75d0:	6e65706d 	0x6e65706d
    75d4:	69746173 	0x69746173
    75d8:	745f6e6f 	jalx	17db9bc <AP_BANK_SPACE+0x179b9bc>
    75dc:	73657268 	0x73657268
    75e0:	646c6f68 	0x646c6f68
    75e4:	ce860a00 	pref	0x6,2560(s4)
    75e8:	02000000 	0x2000000
    75ec:	4d090023 	0x4d090023
    75f0:	5f435244 	0x5f435244
    75f4:	706d6f63 	0x706d6f63
    75f8:	61736e65 	0x61736e65
    75fc:	6e6f6974 	0x6e6f6974
    7600:	6165705f 	0x6165705f
    7604:	65645f6b 	0x65645f6b
    7608:	74636574 	jalx	18d95d0 <AP_BANK_SPACE+0x18995d0>
    760c:	7474615f 	jalx	1d1857c <AP_BANK_SPACE+0x1cd857c>
    7610:	5f6b6361 	0x5f6b6361
    7614:	656d6974 	0x656d6974
    7618:	ce870a00 	pref	0x7,2560(s4)
    761c:	02000000 	0x2000000
    7620:	4d090223 	0x4d090223
    7624:	5f435244 	0x5f435244
    7628:	706d6f63 	0x706d6f63
    762c:	61736e65 	0x61736e65
    7630:	6e6f6974 	0x6e6f6974
    7634:	6165705f 	0x6165705f
    7638:	65645f6b 	0x65645f6b
    763c:	74636574 	jalx	18d95d0 <AP_BANK_SPACE+0x18995d0>
    7640:	6c65725f 	0x6c65725f
    7644:	65736165 	0x65736165
    7648:	6d69745f 	0x6d69745f
    764c:	880a0065 	lwl	t2,101(zero)
    7650:	000000ce 	0xce
    7654:	09042302 	j	4108c08 <AP_BANK_SPACE+0x40c8c08>
    7658:	4352444d 	c0	0x152444d
    765c:	6d6f635f 	0x6d6f635f
    7660:	736e6570 	0x736e6570
    7664:	6f697461 	0x6f697461
    7668:	69665f6e 	0x69665f6e
    766c:	7265746c 	0x7265746c
    7670:	0a00515f 	j	801457c <AP_BANK_SPACE+0x7fd457c>
    7674:	0000ce89 	0xce89
    7678:	06230200 	bgezl	s1,7e7c <SRAM_AP_BACK_AL_RCODE_1_SIZE+0xe7c>
    767c:	646d0300 	0x646d0300
    7680:	705f6372 	0x705f6372
    7684:	5f6b6165 	0x5f6b6165
    7688:	65746564 	0x65746564
    768c:	735f7463 	0x735f7463
    7690:	646e6174 	0x646e6174
    7694:	5f647261 	0x5f647261
    7698:	65646f6d 	0x65646f6d
    769c:	0a00745f 	j	801d17c <AP_BANK_SPACE+0x7fdd17c>
    76a0:	0015bb8a 	0x15bb8a
    76a4:	1dc81600 	0x1dc81600
    76a8:	01640000 	0x1640000
    76ac:	09010f0a 	j	4043c28 <AP_BANK_SPACE+0x4003c28>
    76b0:	62616e65 	0x62616e65
    76b4:	0a00656c 	j	80195b0 <AP_BANK_SPACE+0x7fd95b0>
    76b8:	00009cbe 	0x9cbe
    76bc:	00230200 	0x230200
    76c0:	70796209 	0x70796209
    76c4:	00737361 	0x737361
    76c8:	009cbf0a 	0x9cbf0a
    76cc:	23020000 	addi	v0,t8,0
    76d0:	72700901 	0x72700901
    76d4:	74756365 	jalx	1d58d94 <AP_BANK_SPACE+0x1d18d94>
    76d8:	7461725f 	jalx	185c97c <AP_BANK_SPACE+0x181c97c>
    76dc:	0a006f69 	j	801bda4 <AP_BANK_SPACE+0x7fdbda4>
    76e0:	000155c0 	sll	t2,at,0x17
    76e4:	02230200 	0x2230200
    76e8:	75716509 	jalx	5c59424 <AP_BANK_SPACE+0x5c19424>
    76ec:	6c617669 	0x6c617669
    76f0:	5f746e65 	0x5f746e65
    76f4:	6e696167 	0x6e696167
    76f8:	55c10a00 	bnel	t6,at,9efc <SRAM_UI_RCODE_ADDR+0x2fc>
    76fc:	02000001 	movf	zero,s0,$fcc0
    7700:	6d090423 	0x6d090423
    7704:	5f637264 	0x5f637264
    7708:	63657270 	0x63657270
    770c:	725f7475 	0x725f7475
    7710:	6f697461 	0x6f697461
    7714:	3cc20a00 	0x3cc20a00
    7718:	02000001 	movf	zero,s0,$fcc0
    771c:	59150623 	0x59150623
    7720:	0a000001 	j	8000004 <AP_BANK_SPACE+0x7fc0004>
    7724:	000155c3 	sra	t2,at,0x17
    7728:	08230200 	j	8c0800 <AP_BANK_SPACE+0x880800>
    772c:	736f7009 	0x736f7009
    7730:	72705f74 	0x72705f74
    7734:	74756365 	jalx	1d58d94 <AP_BANK_SPACE+0x1d18d94>
    7738:	7461725f 	jalx	185c97c <AP_BANK_SPACE+0x181c97c>
    773c:	0a006f69 	j	801bda4 <AP_BANK_SPACE+0x7fdbda4>
    7740:	000149c4 	0x149c4
    7744:	0a230200 	j	88c0800 <AP_BANK_SPACE+0x8880800>
    7748:	71657009 	0x71657009
    774c:	616e655f 	0x616e655f
    7750:	00656c62 	0x656c62
    7754:	009cc50a 	0x9cc50a
    7758:	23020000 	addi	v0,t8,0
    775c:	7073090b 	0x7073090b
    7760:	6f635f6b 	0x6f635f6b
    7764:	6e65706d 	0x6e65706d
    7768:	69746173 	0x69746173
    776c:	655f6e6f 	0x655f6e6f
    7770:	6c62616e 	0x6c62616e
    7774:	c60a0065 	lwc1	$f10,101(s0)
    7778:	0000009c 	0x9c
    777c:	090c2302 	j	4308c08 <AP_BANK_SPACE+0x42c8c08>
    7780:	73616276 	0x73616276
    7784:	6e655f73 	0x6e655f73
    7788:	656c6261 	0x656c6261
    778c:	9cc70a00 	0x9cc70a00
    7790:	02000000 	0x2000000
    7794:	76090d23 	jalx	824348c <AP_BANK_SPACE+0x820348c>
    7798:	72727573 	0x72727573
    779c:	646e756f 	0x646e756f
    77a0:	616e655f 	0x616e655f
    77a4:	00656c62 	0x656c62
    77a8:	009cc80a 	movz	t9,a0,gp
    77ac:	23020000 	addi	v0,t8,0
    77b0:	7274090e 	0x7274090e
    77b4:	656c6265 	0x656c6265
    77b8:	686e655f 	0x686e655f
    77bc:	65636e61 	0x65636e61
    77c0:	616e655f 	0x616e655f
    77c4:	00656c62 	0x656c62
    77c8:	009cc90a 	0x9cc90a
    77cc:	23020000 	addi	v0,t8,0
    77d0:	646d090f 	0x646d090f
    77d4:	655f6372 	0x655f6372
    77d8:	6c62616e 	0x6c62616e
    77dc:	ca0a0065 	lwc2	$10,101(s0)
    77e0:	0000009c 	0x9c
    77e4:	09102302 	j	4408c08 <AP_BANK_SPACE+0x43c8c08>
    77e8:	696d696c 	0x696d696c
    77ec:	5f726574 	0x5f726574
    77f0:	62616e65 	0x62616e65
    77f4:	0a00656c 	j	80195b0 <AP_BANK_SPACE+0x7fd95b0>
    77f8:	00009ccb 	0x9ccb
    77fc:	11230200 	beq	t1,v1,8000 <SRAM_OS_RCODE_ADDR>
    7800:	656e6509 	0x656e6509
    7804:	5f796772 	0x5f796772
    7808:	65746564 	0x65746564
    780c:	655f7463 	0x655f7463
    7810:	6c62616e 	0x6c62616e
    7814:	cc0a0065 	pref	0xa,101(zero)
    7818:	0000009c 	0x9c
    781c:	09122302 	j	4488c08 <AP_BANK_SPACE+0x4448c08>
    7820:	73696f6e 	0x73696f6e
    7824:	65725f65 	0x65725f65
    7828:	74637564 	jalx	18dd590 <AP_BANK_SPACE+0x189d590>
    782c:	5f6e6f69 	0x5f6e6f69
    7830:	62616e65 	0x62616e65
    7834:	0a00656c 	j	80195b0 <AP_BANK_SPACE+0x7fd95b0>
    7838:	00009ccd 	break	0x0,0x273
    783c:	13230200 	beq	t9,v1,8040 <SRAM_OS_RCODE_ADDR+0x40>
    7840:	616e6509 	0x616e6509
    7844:	5f656c62 	0x5f656c62
    7848:	33323832 	andi	s2,t9,0x3832
    784c:	ce0a0054 	pref	0xa,84(s0)
    7850:	0000009c 	0x9c
    7854:	09142302 	j	4508c08 <AP_BANK_SPACE+0x44c8c08>
    7858:	5f656164 	0x5f656164
    785c:	6e697270 	0x6e697270
    7860:	6e655f74 	0x6e655f74
    7864:	656c6261 	0x656c6261
    7868:	9ccf0a00 	0x9ccf0a00
    786c:	02000000 	0x2000000
    7870:	72091523 	0x72091523
    7874:	665f6e75 	0x665f6e75
    7878:	00716572 	tlt	v1,s1,0x195
    787c:	013cd10a 	0x13cd10a
    7880:	23020000 	addi	v0,t8,0
    7884:	65700916 	0x65700916
    7888:	61625f71 	0x61625f71
    788c:	0073646e 	0x73646e
    7890:	1dc8d30a 	0x1dc8d30a
    7894:	23020000 	addi	v0,t8,0
    7898:	65700918 	0x65700918
    789c:	61625f71 	0x61625f71
    78a0:	655f646e 	0x655f646e
    78a4:	6c62616e 	0x6c62616e
    78a8:	79745f65 	0x79745f65
    78ac:	0a006570 	j	80195c0 <AP_BANK_SPACE+0x7fd95c0>
    78b0:	001dd8d4 	0x1dd8d4
    78b4:	b8230300 	swr	v1,768(at)
    78b8:	72740901 	0x72740901
    78bc:	656c6265 	0x656c6265
    78c0:	686e655f 	0x686e655f
    78c4:	65636e61 	0x65636e61
    78c8:	7475635f 	jalx	1d58d7c <AP_BANK_SPACE+0x1d18d7c>
    78cc:	6572665f 	0x6572665f
    78d0:	d60a0071 	ldc1	$f10,113(s0)
    78d4:	00000155 	0x155
    78d8:	01cc2303 	0x1cc2303
    78dc:	65727409 	0x65727409
    78e0:	5f656c62 	0x5f656c62
    78e4:	61686e65 	0x61686e65
    78e8:	5f65636e 	0x5f65636e
    78ec:	69746172 	0x69746172
    78f0:	d70a006f 	ldc1	$f10,111(t8)
    78f4:	00000163 	0x163
    78f8:	01ce2303 	0x1ce2303
    78fc:	6b707309 	0x6b707309
    7900:	6d6f635f 	0x6d6f635f
    7904:	6f735f70 	0x6f735f70
    7908:	65637275 	0x65637275
    790c:	3cd90a00 	0x3cd90a00
    7910:	03000001 	movf	zero,t8,$fcc0
    7914:	0901d023 	j	407408c <AP_BANK_SPACE+0x403408c>
    7918:	5f6b7073 	0x5f6b7073
    791c:	706d6f63 	0x706d6f63
    7920:	6c69665f 	0x6c69665f
    7924:	5f726574 	0x5f726574
    7928:	6564726f 	0x6564726f
    792c:	da0a0072 	ldc2	$10,114(s0)
    7930:	000000ce 	0xce
    7934:	01d22303 	0x1d22303
    7938:	6b707309 	0x6b707309
    793c:	6d6f635f 	0x6d6f635f
    7940:	69665f70 	0x69665f70
    7944:	7265746c 	0x7265746c
    7948:	6176515f 	0x6176515f
    794c:	66654c6c 	0x66654c6c
    7950:	db0a0074 	ldc2	$10,116(t8)
    7954:	0000013c 	0x13c
    7958:	01d42303 	0x1d42303
    795c:	6b707309 	0x6b707309
    7960:	6d6f635f 	0x6d6f635f
    7964:	69665f70 	0x69665f70
    7968:	7265746c 	0x7265746c
    796c:	6176515f 	0x6176515f
    7970:	6769526c 	0x6769526c
    7974:	0a007468 	j	801d1a0 <AP_BANK_SPACE+0x7fdd1a0>
    7978:	00013cdc 	0x13cdc
    797c:	d5230300 	ldc1	$f3,768(t1)
    7980:	62760901 	0x62760901
    7984:	5f737361 	0x5f737361
    7988:	5f747563 	0x5f747563
    798c:	71657266 	0x71657266
    7990:	55de0a00 	bnel	t6,s8,a194 <SRAM_BT_LIB1_BANK_ADDR+0x194>
    7994:	03000001 	movf	zero,t8,$fcc0
    7998:	0901d623 	j	407588c <AP_BANK_SPACE+0x403588c>
    799c:	73616276 	0x73616276
    79a0:	61725f73 	0x61725f73
    79a4:	006f6974 	teq	v1,t7,0x1a5
    79a8:	0163df0a 	0x163df0a
    79ac:	23030000 	addi	v1,t8,0
    79b0:	6f0901d8 	0x6f0901d8
    79b4:	69676972 	0x69676972
    79b8:	5f6c616e 	0x5f6c616e
    79bc:	73736162 	0x73736162
    79c0:	7461725f 	jalx	185c97c <AP_BANK_SPACE+0x181c97c>
    79c4:	0a006f69 	j	801bda4 <AP_BANK_SPACE+0x7fdbda4>
    79c8:	000149e0 	0x149e0
    79cc:	da230300 	ldc2	$3,768(s1)
    79d0:	73760901 	0x73760901
    79d4:	6f727275 	0x6f727275
    79d8:	5f646e75 	0x5f646e75
    79dc:	6c676e61 	0x6c676e61
    79e0:	e20a0065 	sc	t2,101(s0)
    79e4:	0000013c 	0x13c
    79e8:	01db2303 	0x1db2303
    79ec:	75737609 	jalx	5cdd824 <AP_BANK_SPACE+0x5c9d824>
    79f0:	756f7272 	jalx	5bdc9c8 <AP_BANK_SPACE+0x5b9c9c8>
    79f4:	725f646e 	0x725f646e
    79f8:	6f697461 	0x6f697461
    79fc:	49e30a00 	0x49e30a00
    7a00:	03000001 	movf	zero,t8,$fcc0
    7a04:	0901dc23 	j	407708c <AP_BANK_SPACE+0x403708c>
    7a08:	6372646d 	0x6372646d
    7a0c:	6f72635f 	0x6f72635f
    7a10:	766f7373 	jalx	9bdcdcc <AP_BANK_SPACE+0x9b9cdcc>
    7a14:	665f7265 	0x665f7265
    7a18:	00716572 	tlt	v1,s1,0x195
    7a1c:	1de8e50a 	0x1de8e50a
    7a20:	23030000 	addi	v1,t8,0
    7a24:	6d0901de 	0x6d0901de
    7a28:	5f637264 	0x5f637264
    7a2c:	646e6162 	0x646e6162
    7a30:	e60a0073 	swc1	$f10,115(s0)
    7a34:	00001df8 	0x1df8
    7a38:	01e22303 	0x1e22303
    7a3c:	6d696c09 	0x6d696c09
    7a40:	72657469 	0x72657469
    7a44:	7268745f 	udi15	s3,t0,t6,0x11
    7a48:	6f687365 	0x6f687365
    7a4c:	0a00646c 	j	80191b0 <AP_BANK_SPACE+0x7fd91b0>
    7a50:	000163e8 	0x163e8
    7a54:	fa230300 	sdc2	$3,768(s1)
    7a58:	696c0901 	0x696c0901
    7a5c:	6574696d 	0x6574696d
    7a60:	74615f72 	jalx	1857dc8 <AP_BANK_SPACE+0x1817dc8>
    7a64:	6b636174 	0x6b636174
    7a68:	6d69745f 	0x6d69745f
    7a6c:	e90a0065 	swc2	$10,101(t0)
    7a70:	00000155 	0x155
    7a74:	01fc2303 	0x1fc2303
    7a78:	6d696c09 	0x6d696c09
    7a7c:	72657469 	0x72657469
    7a80:	6c65725f 	0x6c65725f
    7a84:	65736165 	0x65736165
    7a88:	6d69745f 	0x6d69745f
    7a8c:	ea0a0065 	swc2	$10,101(s0)
    7a90:	00000155 	0x155
    7a94:	01fe2303 	0x1fe2303
    7a98:	77656409 	jalx	d959024 <AP_BANK_SPACE+0xd919024>
    7a9c:	6e61625f 	0x6e61625f
    7aa0:	0a007364 	j	801cd90 <AP_BANK_SPACE+0x7fdcd90>
    7aa4:	001e08ec 	0x1e08ec
    7aa8:	80230300 	lb	v1,768(at)
    7aac:	65700902 	0x65700902
    7ab0:	646f6972 	0x646f6972
    7ab4:	756f635f 	jalx	5bd8d7c <AP_BANK_SPACE+0x5b98d7c>
    7ab8:	0a00746e 	j	801d1b8 <AP_BANK_SPACE+0x7fdd1b8>
    7abc:	00013cee 	0x13cee
    7ac0:	98230300 	lwr	v1,768(at)
    7ac4:	72700902 	0x72700902
    7ac8:	6a646165 	0x6a646165
    7acc:	5f747375 	0x5f747375
    7ad0:	6e756f63 	0x6e756f63
    7ad4:	ef0a0074 	swc3	$10,116(t8)
    7ad8:	0000013c 	0x13c
    7adc:	02992303 	0x2992303
    7ae0:	72657009 	0x72657009
    7ae4:	00646f69 	0x646f69
    7ae8:	00cef00a 	movz	s8,a2,t6
    7aec:	23030000 	addi	v1,t8,0
    7af0:	7009029a 	udi10	zero,t1,zero,0xa
    7af4:	64616572 	0x64616572
    7af8:	7473756a 	jalx	1cdd5a8 <AP_BANK_SPACE+0x1c9d5a8>
    7afc:	0062645f 	0x62645f
    7b00:	00cef10a 	0xcef10a
    7b04:	23030000 	addi	v1,t8,0
    7b08:	7309029c 	udi12	t8,t1,zero,0xa
    7b0c:	616e6769 	0x616e6769
    7b10:	6e655f6c 	0x6e655f6c
    7b14:	79677265 	0x79677265
    7b18:	696e695f 	0x696e695f
    7b1c:	f20a0074 	0xf20a0074
    7b20:	000000ce 	0xce
    7b24:	029e2303 	0x29e2303
    7b28:	72646d09 	0x72646d09
    7b2c:	68745f63 	0x68745f63
    7b30:	68736572 	0x68736572
    7b34:	5f646c6f 	0x5f646c6f
    7b38:	65736162 	0x65736162
    7b3c:	18f40a00 	0x18f40a00
    7b40:	0300001e 	0x300001e
    7b44:	0902a023 	j	40a808c <AP_BANK_SPACE+0x406808c>
    7b48:	6372646d 	0x6372646d
    7b4c:	7268745f 	udi15	s3,t0,t6,0x11
    7b50:	6f687365 	0x6f687365
    7b54:	625f646c 	0x625f646c
    7b58:	5f657361 	0x5f657361
    7b5c:	0078616d 	0x78616d
    7b60:	0163f50a 	0x163f50a
    7b64:	23030000 	addi	v1,t8,0
    7b68:	6c0902a6 	0x6c0902a6
    7b6c:	74696d69 	jalx	1a5b5a4 <AP_BANK_SPACE+0x1a1b5a4>
    7b70:	745f7265 	jalx	17dc994 <AP_BANK_SPACE+0x179c994>
    7b74:	73657268 	0x73657268
    7b78:	646c6f68 	0x646c6f68
    7b7c:	6669645f 	0x6669645f
    7b80:	f60a0066 	sdc1	$f10,102(s0)
    7b84:	00000163 	0x163
    7b88:	02a82303 	0x2a82303
    7b8c:	6c754d09 	0x6c754d09
    7b90:	72466974 	0x72466974
    7b94:	61427165 	0x61427165
    7b98:	6e45646e 	0x6e45646e
    7b9c:	79677265 	0x79677265
    7ba0:	616e655f 	0x616e655f
    7ba4:	00656c62 	0x656c62
    7ba8:	013cf80a 	movz	ra,t1,gp
    7bac:	23030000 	addi	v1,t8,0
    7bb0:	460902aa 	c1	0x902aa
    7bb4:	53716572 	beql	k1,s1,21180 <SRAM_KERNEL_XSYS_ADDR+0x780>
    7bb8:	72746570 	0x72746570
    7bbc:	69446d75 	0x69446d75
    7bc0:	616c7073 	0x616c7073
    7bc4:	6e655f79 	0x6e655f79
    7bc8:	656c6261 	0x656c6261
    7bcc:	3cf90a00 	0x3cf90a00
    7bd0:	03000001 	movf	zero,t8,$fcc0
    7bd4:	0902ab23 	j	40aac8c <AP_BANK_SPACE+0x406ac8c>
    7bd8:	5f656164 	0x5f656164
    7bdc:	72747461 	0x72747461
    7be0:	74756269 	jalx	1d589a4 <AP_BANK_SPACE+0x1d189a4>
    7be4:	0a007365 	j	801cd94 <AP_BANK_SPACE+0x7fdcd94>
    7be8:	001e28fc 	0x1e28fc
    7bec:	ac230300 	sw	v1,768(at)
    7bf0:	6f631102 	0x6f631102
    7bf4:	6572706d 	0x6572706d
    7bf8:	726f7373 	0x726f7373
    7bfc:	616e655f 	0x616e655f
    7c00:	5f656c62 	0x5f656c62
    7c04:	6e617473 	0x6e617473
    7c08:	64726164 	0x64726164
    7c0c:	646f6d5f 	0x646f6d5f
    7c10:	000a0065 	0xa0065
    7c14:	00009c01 	0x9c01
    7c18:	b0230300 	0xb0230300
    7c1c:	646d1102 	0x646d1102
    7c20:	655f6372 	0x655f6372
    7c24:	6c62616e 	0x6c62616e
    7c28:	74735f65 	jalx	1cd7d94 <AP_BANK_SPACE+0x1c97d94>
    7c2c:	61646e61 	0x61646e61
    7c30:	6d5f6472 	0x6d5f6472
    7c34:	0065646f 	0x65646f
    7c38:	9c01010a 	0x9c01010a
    7c3c:	03000000 	0x3000000
    7c40:	1102b123 	beq	t0,v0,ffff40d0 <get_app_msg+0x403cdba0>
    7c44:	69647561 	0x69647561
    7c48:	5f70706f 	0x5f70706f
    7c4c:	65707974 	0x65707974
    7c50:	6470755f 	0x6470755f
    7c54:	5f657461 	0x5f657461
    7c58:	67616c66 	0x67616c66
    7c5c:	01020a00 	0x1020a00
    7c60:	0000009c 	0x9c
    7c64:	02b22303 	0x2b22303
    7c68:	64756111 	0x64756111
    7c6c:	70706f69 	0x70706f69
    7c70:	7079745f 	udi15	v1,t9,t6,0x11
    7c74:	030a0065 	0x30a0065
    7c78:	00013c01 	0x13c01
    7c7c:	b3230300 	0xb3230300
    7c80:	72701102 	0x72701102
    7c84:	74756365 	jalx	1d58d94 <AP_BANK_SPACE+0x1d18d94>
    7c88:	6174735f 	0x6174735f
    7c8c:	7261646e 	0x7261646e
    7c90:	6f6d5f64 	0x6f6d5f64
    7c94:	0a006564 	j	8019590 <AP_BANK_SPACE+0x7fd9590>
    7c98:	01550104 	0x1550104
    7c9c:	23030000 	addi	v1,t8,0
    7ca0:	641102b4 	0x641102b4
    7ca4:	6d616e79 	0x6d616e79
    7ca8:	705f6369 	0x705f6369
    7cac:	75636572 	jalx	58d95c8 <AP_BANK_SPACE+0x58995c8>
    7cb0:	74735f74 	jalx	1cd7dd0 <AP_BANK_SPACE+0x1c97dd0>
    7cb4:	61646e61 	0x61646e61
    7cb8:	6d5f6472 	0x6d5f6472
    7cbc:	0065646f 	0x65646f
    7cc0:	4901050a 	bc2t	90ec <SRAM_BANK_A_ADDR+0xec>
    7cc4:	03000001 	movf	zero,t8,$fcc0
    7cc8:	1102b623 	beq	t0,v0,ffff5558 <get_app_msg+0x403cf028>
    7ccc:	706d6f63 	0x706d6f63
    7cd0:	73736572 	0x73736572
    7cd4:	745f726f 	jalx	17dc9bc <AP_BANK_SPACE+0x179c9bc>
    7cd8:	73657268 	0x73657268
    7cdc:	646c6f68 	0x646c6f68
    7ce0:	6669645f 	0x6669645f
    7ce4:	070a0066 	tlti	t8,102
    7ce8:	00016301 	0x16301
    7cec:	b8230300 	swr	v1,768(at)
    7cf0:	616d1102 	0x616d1102
    7cf4:	7075656b 	0x7075656b
    7cf8:	6961675f 	0x6961675f
    7cfc:	74735f6e 	jalx	1cd7db8 <AP_BANK_SPACE+0x1c97db8>
    7d00:	61646e61 	0x61646e61
    7d04:	6d5f6472 	0x6d5f6472
    7d08:	0065646f 	0x65646f
    7d0c:	5501080a 	bnel	t0,at,9d38 <SRAM_UI_RCODE_ADDR+0x138>
    7d10:	03000001 	movf	zero,t8,$fcc0
    7d14:	1102ba23 	beq	t0,v0,ffff65a4 <get_app_msg+0x403d0074>
    7d18:	706d6f63 	0x706d6f63
    7d1c:	73736572 	0x73736572
    7d20:	735f726f 	0x735f726f
    7d24:	646e6174 	0x646e6174
    7d28:	5f647261 	0x5f647261
    7d2c:	65646f6d 	0x65646f6d
    7d30:	01090a00 	0x1090a00
    7d34:	00001442 	srl	v0,zero,0x11
    7d38:	02bc2303 	0x2bc2303
    7d3c:	72646d11 	udi1	s3,a0,t5,0x14
    7d40:	78655f63 	0x78655f63
    7d44:	646e6574 	0x646e6574
    7d48:	7261705f 	udi15	s3,at,t6,0x1
    7d4c:	74735f61 	jalx	1cd7d84 <AP_BANK_SPACE+0x1c97d84>
    7d50:	61646e61 	0x61646e61
    7d54:	6d5f6472 	0x6d5f6472
    7d58:	0065646f 	0x65646f
    7d5c:	93010a0a 	lbu	at,2570(t8)
    7d60:	03000015 	0x3000015
    7d64:	1102ca23 	beq	t0,v0,ffffa5f4 <get_app_msg+0x403d40c4>
    7d68:	6372646d 	0x6372646d
    7d6c:	6165705f 	0x6165705f
    7d70:	74735f6b 	jalx	1cd7dac <AP_BANK_SPACE+0x1c97dac>
    7d74:	61646e61 	0x61646e61
    7d78:	6d5f6472 	0x6d5f6472
    7d7c:	0065646f 	0x65646f
    7d80:	78010b0a 	0x78010b0a
    7d84:	03000016 	0x3000016
    7d88:	1102d223 	beq	t0,v0,ffffc618 <get_app_msg+0x403d60e8>
    7d8c:	646d5f70 	0x646d5f70
    7d90:	625f6372 	0x625f6372
    7d94:	5f646e61 	0x5f646e61
    7d98:	6e617473 	0x6e617473
    7d9c:	64726164 	0x64726164
    7da0:	646f6d5f 	0x646f6d5f
    7da4:	0c0a0065 	jal	280194 <AP_BANK_SPACE+0x240194>
    7da8:	001e2e01 	0x1e2e01
    7dac:	dc230300 	ldc3	$3,768(at)
    7db0:	6f761102 	0x6f761102
    7db4:	656d756c 	0x656d756c
    7db8:	7275635f 	udi15	s3,s5,t4,0xd
    7dbc:	746e6572 	jalx	1b995c8 <AP_BANK_SPACE+0x1b595c8>
    7dc0:	010e0a00 	0x10e0a00
    7dc4:	0000013c 	0x13c
    7dc8:	02e02303 	0x2e02303
    7dcc:	1dd80600 	0x1dd80600
    7dd0:	12950000 	beq	s4,s5,7dd4 <SRAM_AP_BACK_AL_RCODE_1_SIZE+0xdd4>
    7dd4:	8d070000 	lw	a3,0(t0)
    7dd8:	13000001 	beqz	t8,7de0 <SRAM_AP_BACK_AL_RCODE_1_SIZE+0xde0>
    7ddc:	1de80600 	0x1de80600
    7de0:	013c0000 	0x13c0000
    7de4:	8d070000 	lw	a3,0(t0)
    7de8:	13000001 	beqz	t8,7df0 <SRAM_AP_BACK_AL_RCODE_1_SIZE+0xdf0>
    7dec:	1df80600 	0x1df80600
    7df0:	01550000 	0x1550000
    7df4:	8d070000 	lw	a3,0(t0)
    7df8:	01000001 	movf	zero,t0,$fcc0
    7dfc:	1e080600 	0x1e080600
    7e00:	12f20000 	beq	s7,s2,7e04 <SRAM_AP_BACK_AL_RCODE_1_SIZE+0xe04>
    7e04:	8d070000 	lw	a3,0(t0)
    7e08:	02000001 	movf	zero,s0,$fcc0
    7e0c:	1e180600 	0x1e180600
    7e10:	132e0000 	beq	t9,t6,7e14 <SRAM_AP_BACK_AL_RCODE_1_SIZE+0xe14>
    7e14:	8d070000 	lw	a3,0(t0)
    7e18:	05000001 	bltz	t0,7e20 <SRAM_AP_BACK_AL_RCODE_1_SIZE+0xe20>
    7e1c:	1e280600 	0x1e280600
    7e20:	01630000 	0x1630000
    7e24:	8d070000 	lw	a3,0(t0)
    7e28:	02000001 	movf	zero,s0,$fcc0
    7e2c:	b9040a00 	swr	a0,2560(t0)
    7e30:	0a000013 	j	800004c <AP_BANK_SPACE+0x7fc004c>
    7e34:	00150104 	0x150104
    7e38:	61640d00 	0x61640d00
    7e3c:	6f635f65 	0x6f635f65
    7e40:	6769666e 	0x6769666e
    7e44:	0a00745f 	j	801d17c <AP_BANK_SPACE+0x7fdd17c>
    7e48:	16a0010f 	bnez	s5,8288 <SRAM_OS_RCODE_ADDR+0x288>
    7e4c:	77170000 	jalx	c5c0000 <AP_BANK_SPACE+0xc580000>
    7e50:	0100001e 	0x100001e
    7e54:	79616c70 	0x79616c70
    7e58:	01090100 	0x1090100
    7e5c:	0000009c 	0x9c
    7e60:	60126801 	0x60126801
    7e64:	601268a8 	0x601268a8
    7e68:	72186101 	0x72186101
    7e6c:	6c757365 	0x6c757365
    7e70:	0a010074 	j	80401d0 <AP_BANK_SPACE+0x80001d0>
    7e74:	0000017e 	0x17e
    7e78:	00009102 	srl	s2,zero,0x4
    7e7c:	001eb417 	0x1eb417
    7e80:	74730100 	jalx	1cc0400 <AP_BANK_SPACE+0x1c80400>
    7e84:	0100706f 	0x100706f
    7e88:	009c013a 	0x9c013a
    7e8c:	68d10000 	0x68d10000
    7e90:	69586012 	0x69586012
    7e94:	61016012 	0x61016012
    7e98:	65726218 	0x65726218
    7e9c:	3b010074 	xori	at,t8,0x74
    7ea0:	0000009c 	0x9c
    7ea4:	18009102 	blez	zero,fffec2b0 <get_app_msg+0x403c5d80>
    7ea8:	75736572 	jalx	5cd95c8 <AP_BANK_SPACE+0x5c995c8>
    7eac:	0100746c 	0x100746c
    7eb0:	00017e3c 	0x17e3c
    7eb4:	04910200 	bgezal	a0,86b8 <SRAM_OS_RCODE_ADDR+0x6b8>
    7eb8:	1eec1700 	0x1eec1700
    7ebc:	66010000 	0x66010000
    7ec0:	676e656d 	0x676e656d
    7ec4:	5f656e69 	0x5f656e69
    7ec8:	79616c70 	0x79616c70
    7ecc:	015e0100 	0x15e0100
    7ed0:	00000ab0 	tge	zero,zero,0x2a
    7ed4:	60126971 	0x60126971
    7ed8:	60126994 	0x60126994
    7edc:	63196101 	0x63196101
    7ee0:	6d5f7275 	0x6d5f7275
    7ee4:	01006773 	tltu	t0,zero,0x19d
    7ee8:	000bd25d 	0xbd25d
    7eec:	08910200 	j	2440800 <AP_BANK_SPACE+0x2400800>
    7ef0:	1f241700 	0x1f241700
    7ef4:	66010000 	0x66010000
    7ef8:	676e656d 	0x676e656d
    7efc:	5f656e69 	0x5f656e69
    7f00:	706f7473 	0x706f7473
    7f04:	01670100 	0x1670100
    7f08:	00000ab0 	tge	zero,zero,0x2a
    7f0c:	60126999 	0x60126999
    7f10:	601269bc 	0x601269bc
    7f14:	63196101 	0x63196101
    7f18:	6d5f7275 	0x6d5f7275
    7f1c:	01006773 	tltu	t0,zero,0x19d
    7f20:	000bd266 	0xbd266
    7f24:	08910200 	j	2440800 <AP_BANK_SPACE+0x2400800>
    7f28:	5f671a00 	0x5f671a00
    7f2c:	73696874 	0x73696874
    7f30:	7070615f 	udi15	v1,s0,t4,0x5
    7f34:	6d69745f 	0x6d69745f
    7f38:	745f7265 	jalx	17dc994 <AP_BANK_SPACE+0x179c994>
    7f3c:	07006761 	bltz	t8,21cc4 <SRAM_AP_BACK_BASAL_RCODE_ADDR+0x4c4>
    7f40:	00013c85 	0x13c85
    7f44:	1b010100 	0x1b010100
    7f48:	70615f67 	0x70615f67
    7f4c:	6e695f70 	0x6e695f70
    7f50:	735f6f66 	0x735f6f66
    7f54:	65746174 	0x65746174
    7f58:	6c6c615f 	0x6c6c615f
    7f5c:	018e0800 	0x18e0800
    7f60:	00000e87 	0xe87
    7f64:	671b0101 	0x671b0101
    7f68:	7070615f 	udi15	v1,s0,t4,0x5
    7f6c:	73616c5f 	udi15	k1,at,t5,0x11
    7f70:	74735f74 	jalx	1cd7dd0 <AP_BANK_SPACE+0x1c97dd0>
    7f74:	00657461 	0x657461
    7f78:	92019408 	lbu	at,-27640(s0)
    7f7c:	01000011 	mthi	t0
    7f80:	5f671b01 	0x5f671b01
    7f84:	5f707061 	0x5f707061
    7f88:	6f666e69 	0x6f666e69
    7f8c:	6174735f 	0x6174735f
    7f90:	08006574 	j	195d0 <SRAM_AP_BACK_DATA_ADDR+0x50>
    7f94:	110a019a 	beq	t0,t2,8600 <SRAM_OS_RCODE_ADDR+0x600>
    7f98:	01010000 	0x1010000
    7f9c:	6f5f671a 	0x6f5f671a
    7fa0:	75707475 	jalx	5c1d1d4 <AP_BANK_SPACE+0x5bdd1d4>
    7fa4:	68635f74 	0x68635f74
    7fa8:	656e6e61 	0x656e6e61
    7fac:	6f635f6c 	0x6f635f6c
    7fb0:	6769666e 	0x6769666e
    7fb4:	39130900 	xori	s3,t0,0x900
    7fb8:	01000012 	0x1000012
    7fbc:	5f671a01 	0x5f671a01
    7fc0:	6f6e6961 	0x6f6e6961
    7fc4:	705f7475 	0x705f7475
    7fc8:	6d617261 	0x6d617261
    7fcc:	2f180900 	sltiu	t8,t8,2304
    7fd0:	01000003 	0x1000003
    7fd4:	5f671a01 	0x5f671a01
    7fd8:	5f6d6d6d 	0x5f6d6d6d
    7fdc:	685f7070 	0x685f7070
    7fe0:	6c646e61 	0x6c646e61
    7fe4:	1c090065 	0x1c090065
    7fe8:	00000194 	0x194
    7fec:	671a0101 	0x671a0101
    7ff0:	6561645f 	0x6561645f
    7ff4:	6766635f 	0x6766635f
    7ff8:	6d68735f 	0x6d68735f
    7ffc:	00220900 	0x220900
    8000:	01000020 	add	zero,t0,zero
    8004:	34040a01 	li	a0,0xa01
    8008:	1800001e 	blez	zero,8084 <SRAM_OS_RCODE_ADDR+0x84>
    800c:	6d6d5f73 	0x6d6d5f73
    8010:	70705f6d 	0x70705f6d
    8014:	616c705f 	0x616c705f
    8018:	00646579 	0x646579
    801c:	009c0501 	0x9c0501
    8020:	03050000 	0x3050000
    8024:	9fc195d8 	0x9fc195d8
    8028:	001a3600 	sll	a2,k0,0x18
    802c:	f4000200 	sdc1	$f0,512(zero)
    8030:	04000007 	bltz	zero,8050 <SRAM_OS_RCODE_ADDR+0x50>
    8034:	0006a901 	0x6a901
    8038:	066d8400 	0x66d8400
    803c:	06680060 	tgei	s3,96
    8040:	554e4760 	bnel	t2,t6,19dc4 <SRAM_AP_FRONT_DATA_ADDR+0x444>
    8044:	33204320 	andi	zero,t9,0x4320
    8048:	342e342e 	ori	t6,at,0x342e
    804c:	70696d20 	0x70696d20
    8050:	65647373 	0x65647373
    8054:	302e362d 	andi	t6,at,0x362d
    8058:	31302e36 	andi	s0,t1,0x2e36
    805c:	3030322d 	andi	s0,at,0x322d
    8060:	32343037 	andi	s4,s1,0x3037
    8064:	66010030 	0x66010030
    8068:	676e656d 	0x676e656d
    806c:	5f656e69 	0x5f656e69
    8070:	7373656d 	0x7373656d
    8074:	5f656761 	0x5f656761
    8078:	5f746573 	0x5f746573
    807c:	6c616564 	0x6c616564
    8080:	2f00632e 	sltiu	zero,t8,25390
    8084:	64677963 	0x64677963
    8088:	65766972 	0x65766972
    808c:	532f662f 	beql	t9,t7,2194c <SRAM_AP_BACK_BASAL_RCODE_ADDR+0x14c>
    8090:	5f74666f 	0x5f74666f
    8094:	2f6b6473 	sltiu	t3,k1,25715
    8098:	32535441 	andi	s3,s2,0x5441
    809c:	5f353238 	0x5f353238
    80a0:	5f4b4453 	0x5f4b4453
    80a4:	322e3456 	andi	t6,s1,0x3456
    80a8:	7361632f 	0x7361632f
    80ac:	70612f65 	0x70612f65
    80b0:	5f6d662f 	0x5f6d662f
    80b4:	69676e65 	0x69676e65
    80b8:	0200656e 	0x200656e
    80bc:	69736e75 	0x69736e75
    80c0:	64656e67 	0x64656e67
    80c4:	61686320 	0x61686320
    80c8:	08010072 	j	401c8 <AP_BANK_SPACE+0x1c8>
    80cc:	544e4903 	bnel	v0,t6,1a4dc <SRAM_OS_DATA_ADDR+0xdc>
    80d0:	03005538 	0x3005538
    80d4:	0000920f 	0x920f
    80d8:	69730200 	0x69730200
    80dc:	64656e67 	0x64656e67
    80e0:	61686320 	0x61686320
    80e4:	06010072 	bgez	s0,82b0 <SRAM_OS_RCODE_ADDR+0x2b0>
    80e8:	6f687302 	0x6f687302
    80ec:	75207472 	jalx	481d1c8 <AP_BANK_SPACE+0x47dd1c8>
    80f0:	6769736e 	0x6769736e
    80f4:	2064656e 	addi	a0,v1,25966
    80f8:	00746e69 	0x746e69
    80fc:	73020702 	0x73020702
    8100:	74726f68 	jalx	1c9bda0 <AP_BANK_SPACE+0x1c5bda0>
    8104:	746e6920 	jalx	1b9a480 <AP_BANK_SPACE+0x1b5a480>
    8108:	04050200 	0x4050200
    810c:	00000165 	0x165
    8110:	6c020704 	0x6c020704
    8114:	20676e6f 	addi	a3,v1,28271
    8118:	00746e69 	0x746e69
    811c:	66020504 	0x66020504
    8120:	74616f6c 	jalx	185bdb0 <AP_BANK_SPACE+0x181bdb0>
    8124:	02040400 	0x2040400
    8128:	62756f64 	0x62756f64
    812c:	0800656c 	j	195b0 <SRAM_AP_BACK_DATA_ADDR+0x30>
    8130:	6f6c0204 	0x6f6c0204
    8134:	6c20676e 	0x6c20676e
    8138:	20676e6f 	addi	a3,v1,28271
    813c:	69736e75 	0x69736e75
    8140:	64656e67 	0x64656e67
    8144:	746e6920 	jalx	1b9a480 <AP_BANK_SPACE+0x1b5a480>
    8148:	02070800 	0x2070800
    814c:	676e6f6c 	0x676e6f6c
    8150:	6e6f6c20 	0x6e6f6c20
    8154:	6e692067 	0x6e692067
    8158:	05080074 	tgei	t0,116
    815c:	736e7502 	0x736e7502
    8160:	656e6769 	0x656e6769
    8164:	6e692064 	0x6e692064
    8168:	07040074 	0x7040074
    816c:	6e697503 	0x6e697503
    8170:	06003874 	bltz	s0,16344 <SRAM_BT_EXT5_BANK_ADDR+0x1d44>
    8174:	00009215 	0x9215
    8178:	69750300 	0x69750300
    817c:	3631746e 	ori	s1,s1,0x746e
    8180:	bf1d0600 	cache	0x1d,1536(t8)
    8184:	03000000 	0x3000000
    8188:	746e6975 	jalx	1b9a5d4 <AP_BANK_SPACE+0x1b5a5d4>
    818c:	06003233 	bltz	s0,14a5c <SRAM_BT_EXT5_BANK_ADDR+0x45c>
    8190:	00013325 	0x13325
    8194:	6e690200 	0x6e690200
    8198:	05040074 	0x5040074
    819c:	61686302 	0x61686302
    81a0:	06010072 	bgez	s0,836c <SRAM_OS_RCODE_ADDR+0x36c>
    81a4:	4e495503 	c3	0x495503
    81a8:	00363154 	0x363154
    81ac:	00bf6806 	srlv	t5,ra,a1
    81b0:	55030000 	bnel	t0,v1,81b4 <SRAM_OS_RCODE_ADDR+0x1b4>
    81b4:	33544e49 	andi	s4,k0,0x4e49
    81b8:	70060032 	0x70060032
    81bc:	00000133 	tltu	zero,zero,0x4
    81c0:	00016504 	0x16504
    81c4:	05070400 	0x5070400
    81c8:	a6040604 	sh	a0,1540(s0)
    81cc:	07000001 	bltz	t8,81d4 <SRAM_OS_RCODE_ADDR+0x1d4>
    81d0:	01b80801 	movf	at,t5,$fcc6
    81d4:	00920000 	0x920000
    81d8:	97090000 	lhu	t1,0(t8)
    81dc:	01000001 	movf	zero,t0,$fcc0
    81e0:	02350a00 	0x2350a00
    81e4:	070c0000 	teqi	t8,0
    81e8:	736f0be3 	0x736f0be3
    81ec:	6576655f 	0x6576655f
    81f0:	745f746e 	jalx	17dd1b8 <AP_BANK_SPACE+0x179d1b8>
    81f4:	00657079 	0x657079
    81f8:	0092db07 	0x92db07
    81fc:	23020000 	addi	v0,t8,0
    8200:	736f0b00 	0x736f0b00
    8204:	6576655f 	0x6576655f
    8208:	675f746e 	0x675f746e
    820c:	07007072 	bltz	t8,243d8 <SRAM_BT_HEAD_ADDR+0x1fd8>
    8210:	000092dc 	0x92dc
    8214:	01230200 	0x1230200
    8218:	5f736f0b 	0x5f736f0b
    821c:	6e657665 	0x6e657665
    8220:	6e635f74 	0x6e635f74
    8224:	dd070074 	ldc3	$7,116(t0)
    8228:	000000bf 	0xbf
    822c:	0b022302 	j	c088c08 <AP_BANK_SPACE+0xc048c08>
    8230:	655f736f 	0x655f736f
    8234:	746e6576 	jalx	1b995d8 <AP_BANK_SPACE+0x1b595d8>
    8238:	7274705f 	udi15	s3,s4,t6,0x1
    823c:	9ede0700 	0x9ede0700
    8240:	02000001 	movf	zero,s0,$fcc0
    8244:	6f0b0423 	0x6f0b0423
    8248:	76655f73 	jalx	9957dcc <AP_BANK_SPACE+0x9917dcc>
    824c:	5f746e65 	0x5f746e65
    8250:	006c6274 	teq	v1,t4,0x189
    8254:	01a8df07 	0x1a8df07
    8258:	23020000 	addi	v0,t8,0
    825c:	6f030008 	0x6f030008
    8260:	76655f73 	jalx	9957dcc <AP_BANK_SPACE+0x9917dcc>
    8264:	5f746e65 	0x5f746e65
    8268:	e3070074 	sc	a3,116(t8)
    826c:	000001b8 	0x1b8
    8270:	02350406 	0x2350406
    8274:	04060000 	0x4060000
    8278:	00000143 	sra	zero,zero,0x5
    827c:	00026308 	0x26308
    8280:	00014300 	sll	t0,at,0xc
    8284:	01970900 	0x1970900
    8288:	00030000 	sll	zero,v1,0x0
    828c:	00027308 	0x27308
    8290:	00014300 	sll	t0,at,0xc
    8294:	01970900 	0x1970900
    8298:	00020000 	sll	zero,v0,0x0
    829c:	0002b20c 	syscall	0xac8
    82a0:	17080100 	bne	t8,t0,86a4 <SRAM_OS_RCODE_ADDR+0x6a4>
    82a4:	6e61420d 	0x6e61420d
    82a8:	68435f64 	0x68435f64
    82ac:	5f616e69 	0x5f616e69
    82b0:	00005355 	0x5355
    82b4:	6e61420d 	0x6e61420d
    82b8:	614a5f64 	0x614a5f64
    82bc:	006e6170 	tge	v1,t6,0x185
    82c0:	61420d01 	0x61420d01
    82c4:	455f646e 	0x455f646e
    82c8:	706f7275 	0x706f7275
    82cc:	0d020065 	jal	4080194 <AP_BANK_SPACE+0x4040194>
    82d0:	646e6142 	0x646e6142
    82d4:	58414d5f 	0x58414d5f
    82d8:	03000300 	0x3000300
    82dc:	69646172 	0x69646172
    82e0:	61625f6f 	0x61625f6f
    82e4:	655f646e 	0x655f646e
    82e8:	731c0800 	0x731c0800
    82ec:	0c000002 	jal	8 <DRV_GROUP_KEY>
    82f0:	000002e7 	0x2e7
    82f4:	0d1e0801 	jal	4782004 <AP_BANK_SPACE+0x4742004>
    82f8:	656c6572 	0x656c6572
    82fc:	4d657361 	0x4d657361
    8300:	00455455 	0x455455
    8304:	65530d00 	0x65530d00
    8308:	54554d74 	bnel	v0,s5,1b8dc <SRAM_OS_TASK_STACK_ADDR+0x2dc>
    830c:	00010045 	0x10045
    8310:	5f4d4603 	0x5f4d4603
    8314:	4554554d 	0x4554554d
    8318:	0800655f 	j	1957c <SRAM_CARD_DATA_ADDR+0x7c>
    831c:	0002c621 	0x2c621
    8320:	03250a00 	0x3250a00
    8324:	0c100000 	jal	400000 <AP_BANK_SPACE+0x3c0000>
    8328:	71650bd1 	udi1	t3,a1,at,0xf
    832c:	7079745f 	udi15	v1,t9,t6,0x11
    8330:	ce0c0065 	pref	0xc,101(s0)
    8334:	0000016c 	0x16c
    8338:	0b002302 	j	c008c08 <AP_BANK_SPACE+0xbfc8c08>
    833c:	705f7165 	0x705f7165
    8340:	00617261 	0x617261
    8344:	0325d00c 	syscall	0xc9740
    8348:	23020000 	addi	v0,t8,0
    834c:	35080004 	ori	t0,t0,0x4
    8350:	73000003 	0x73000003
    8354:	09000001 	j	4000004 <AP_BANK_SPACE+0x3fc0004>
    8358:	00000197 	0x197
    835c:	6d03000b 	0x6d03000b
    8360:	705f6d6d 	0x705f6d6d
    8364:	71655f70 	0x71655f70
    8368:	666e695f 	0x666e695f
    836c:	00745f6f 	0x745f6f
    8370:	02f8d10c 	syscall	0xbe344
    8374:	8b0c0000 	lwl	t4,0(t8)
    8378:	01000003 	0x1000003
    837c:	530d110b 	beql	t8,t5,c7ac <SROM_FS_ADDR+0x7ac>
    8380:	55544154 	bnel	t2,s4,188d4 <SRAM_FS_BUF_ADDR+0x5d4>
    8384:	4c505f53 	0x4c505f53
    8388:	00005941 	0x5941
    838c:	4154530d 	0x4154530d
    8390:	5f535554 	0x5f535554
    8394:	53554150 	beql	k0,s5,188d8 <SRAM_FS_BUF_ADDR+0x5d8>
    8398:	0d010045 	jal	4040114 <AP_BANK_SPACE+0x4000114>
    839c:	54415453 	bnel	v0,at,1d4ec <SRAM_OS_TASK_STACK_ADDR+0x1eec>
    83a0:	465f5355 	c1	0x5f5355
    83a4:	474e454d 	c1	0x14e454d
    83a8:	5f454e49 	0x5f454e49
    83ac:	4f525245 	c3	0x1525245
    83b0:	00020052 	0x20052
    83b4:	5f4d4603 	0x5f4d4603
    83b8:	79616c50 	0x79616c50
    83bc:	74617473 	jalx	185d1cc <AP_BANK_SPACE+0x181d1cc>
    83c0:	655f7375 	0x655f7375
    83c4:	4d150b00 	0x4d150b00
    83c8:	0c000003 	jal	c <DRV_GROUP_BT>
    83cc:	000003bd 	0x3bd
    83d0:	0d170b01 	jal	45c2c04 <AP_BANK_SPACE+0x4582c04>
    83d4:	4d5f4d46 	0x4d5f4d46
    83d8:	004f4e4f 	0x4f4e4f
    83dc:	54530d00 	bnel	v0,s3,b7e0 <SRAM_AP_BANK_FRONT_BASAL_ADDR+0x7e0>
    83e0:	00455245 	0x455245
    83e4:	46030001 	sub.s	$f0,$f0,$f3
    83e8:	75415f4d 	jalx	5057d34 <AP_BANK_SPACE+0x5017d34>
    83ec:	5f6f6964 	0x5f6f6964
    83f0:	1a0b0065 	0x1a0b0065
    83f4:	000003a2 	0x3a2
    83f8:	0004410c 	syscall	0x1104
    83fc:	1d0b0100 	0x1d0b0100
    8400:	5241480d 	beql	s2,at,1a438 <SRAM_OS_DATA_ADDR+0x38>
    8404:	45455344 	0x45455344
    8408:	4f4e5f4b 	c3	0x14e5f4b
    840c:	54535f54 	bnel	v0,s3,20160 <SRAM_RAM2_RESEVER_ADDR+0x40>
    8410:	00545241 	0x545241
    8414:	41480d00 	0x41480d00
    8418:	45534452 	0x45534452
    841c:	445f4b45 	0x445f4b45
    8420:	474e494f 	c1	0x14e494f
    8424:	480d0100 	0x480d0100
    8428:	53445241 	beql	k0,a0,1cd30 <SRAM_OS_TASK_STACK_ADDR+0x1730>
    842c:	5f4b4545 	0x5f4b4545
    8430:	504d4f43 	beql	v0,t5,1c140 <SRAM_OS_TASK_STACK_ADDR+0xb40>
    8434:	4554454c 	0x4554454c
    8438:	480d0200 	0x480d0200
    843c:	53445241 	beql	k0,a0,1cd44 <SRAM_OS_TASK_STACK_ADDR+0x1744>
    8440:	5f4b4545 	0x5f4b4545
    8444:	504d4f43 	beql	v0,t5,1c154 <SRAM_OS_TASK_STACK_ADDR+0xb54>
    8448:	4554454c 	0x4554454c
    844c:	544f4e5f 	bnel	v0,t7,1bdcc <SRAM_OS_TASK_STACK_ADDR+0x7cc>
    8450:	4c41565f 	0x4c41565f
    8454:	03004449 	0x3004449
    8458:	5241480d 	beql	s2,at,1a490 <SRAM_OS_DATA_ADDR+0x90>
    845c:	45455344 	0x45455344
    8460:	41465f4b 	0x41465f4b
    8464:	0045534c 	syscall	0x1154d
    8468:	68030004 	0x68030004
    846c:	73647261 	0x73647261
    8470:	5f6b6565 	0x5f6b6565
    8474:	74617473 	jalx	185d1cc <AP_BANK_SPACE+0x181d1cc>
    8478:	655f7375 	0x655f7375
    847c:	cf230b00 	pref	0x3,2816(t9)
    8480:	0a000003 	j	800000c <AP_BANK_SPACE+0x7fc000c>
    8484:	000004ed 	0x4ed
    8488:	0b2c0b0c 	j	cb02c30 <AP_BANK_SPACE+0xcac2c30>
    848c:	435f4d46 	c0	0x15f4d46
    8490:	65727275 	0x65727275
    8494:	7246746e 	0x7246746e
    8498:	0b007165 	j	c01c594 <AP_BANK_SPACE+0xbfdc594>
    849c:	00018926 	0x18926
    84a0:	00230200 	0x230200
    84a4:	5f4d460b 	0x5f4d460b
    84a8:	6e676953 	0x6e676953
    84ac:	74536c61 	jalx	14db184 <AP_BANK_SPACE+0x149b184>
    84b0:	270b0067 	addiu	t3,t8,103
    84b4:	0000017b 	0x17b
    84b8:	0b042302 	j	c108c08 <AP_BANK_SPACE+0xc0c8c08>
    84bc:	535f4d46 	beql	k0,ra,1b9d8 <SRAM_OS_TASK_STACK_ADDR+0x3d8>
    84c0:	65726574 	0x65726574
    84c4:	74535f6f 	jalx	14d7dbc <AP_BANK_SPACE+0x1497dbc>
    84c8:	73757461 	0x73757461
    84cc:	bd280b00 	cache	0x8,2816(t1)
    84d0:	02000003 	0x2000003
    84d4:	460b0623 	c1	0xb0623
    84d8:	75435f4d 	jalx	50d7d34 <AP_BANK_SPACE+0x5097d34>
    84dc:	6e614272 	0x6e614272
    84e0:	290b0064 	slti	t3,t0,100
    84e4:	000002b2 	tlt	zero,zero,0xa
    84e8:	0b072302 	j	c1c8c08 <AP_BANK_SPACE+0xc188c08>
    84ec:	565f4d46 	bnel	s2,ra,1ba08 <SRAM_OS_TASK_STACK_ADDR+0x408>
    84f0:	74536c6f 	jalx	14db1bc <AP_BANK_SPACE+0x149b1bc>
    84f4:	73757461 	0x73757461
    84f8:	8b2a0b00 	lwl	t2,2816(t9)
    84fc:	02000003 	0x2000003
    8500:	530b0823 	beql	t8,t3,a590 <SRAM_BT_LIB1_BANK_ADDR+0x590>
    8504:	665f4354 	0x665f4354
    8508:	0067616c 	0x67616c
    850c:	04412b0b 	bgez	v0,1313c <SRAM_BT_BACK_RCODE_ADDR+0x213c>
    8510:	23020000 	addi	v0,t8,0
    8514:	45030009 	bc1tl	853c <SRAM_OS_RCODE_ADDR+0x53c>
    8518:	6e69676e 	0x6e69676e
    851c:	74535f65 	jalx	14d7d94 <AP_BANK_SPACE+0x1497d94>
    8520:	73757461 	0x73757461
    8524:	0b00745f 	j	c01d17c <AP_BANK_SPACE+0xbfdd17c>
    8528:	00045a2c 	0x45a2c
    852c:	05460a00 	0x5460a00
    8530:	0b140000 	j	c500000 <AP_BANK_SPACE+0xc4c0000>
    8534:	616d0b39 	0x616d0b39
    8538:	00636967 	0x636967
    853c:	0150350b 	0x150350b
    8540:	23020000 	addi	v0,t8,0
    8544:	6d660b00 	0x6d660b00
    8548:	7268745f 	udi15	s3,t0,t6,0x11
    854c:	6f687365 	0x6f687365
    8550:	0b00646c 	j	c0191b0 <AP_BANK_SPACE+0xbfd91b0>
    8554:	00014336 	tne	zero,at,0x10c
    8558:	02230200 	0x2230200
    855c:	5f71650b 	0x5f71650b
    8560:	6f666e69 	0x6f666e69
    8564:	35380b00 	ori	t8,t1,0xb00
    8568:	02000003 	0x2000003
    856c:	03000423 	0x3000423
    8570:	6e454d46 	0x6e454d46
    8574:	656e6967 	0x656e6967
    8578:	6766635f 	0x6766635f
    857c:	0b00745f 	j	c01d17c <AP_BANK_SPACE+0xbfdd17c>
    8580:	00050439 	0x50439
    8584:	05950c00 	0x5950c00
    8588:	0b010000 	j	c040000 <AP_BANK_SPACE+0xc000000>
    858c:	4f4d0d3c 	c3	0x14d0d3c
    8590:	454c5544 	0x454c5544
    8594:	5f4f4e5f 	0x5f4f4e5f
    8598:	54494e49 	bnel	v0,t1,1bec0 <SRAM_OS_TASK_STACK_ADDR+0x8c0>
    859c:	4d0d0000 	0x4d0d0000
    85a0:	4c55444f 	0x4c55444f
    85a4:	4f575f45 	c3	0x1575f45
    85a8:	01004b52 	0x1004b52
    85ac:	444f4d0d 	0x444f4d0d
    85b0:	5f454c55 	0x5f454c55
    85b4:	4e415453 	c3	0x415453
    85b8:	00594244 	0x594244
    85bc:	4d030002 	bc3tl	85c8 <SRAM_OS_RCODE_ADDR+0x5c8>
    85c0:	6c75646f 	0x6c75646f
    85c4:	74535f65 	jalx	14d7d94 <AP_BANK_SPACE+0x1497d94>
    85c8:	73757461 	0x73757461
    85cc:	0b00655f 	j	c01957c <AP_BANK_SPACE+0xbfd957c>
    85d0:	00055c40 	sll	t3,a1,0x11
    85d4:	0d0e0c00 	jal	4383000 <AP_BANK_SPACE+0x4343000>
    85d8:	04020000 	bltzl	zero,85dc <SRAM_OS_RCODE_ADDR+0x5dc>
    85dc:	45520de3 	0x45520de3
    85e0:	544c5553 	bnel	v0,t4,1db30 <SRAM_BT_HCI_BUF_ADDR+0x230>
    85e4:	4c554e5f 	0x4c554e5f
    85e8:	0d00004c 	jal	4000130 <AP_BANK_SPACE+0x3fc0130>
    85ec:	55534552 	bnel	t2,s3,19b38 <SRAM_AP_FRONT_DATA_ADDR+0x1b8>
    85f0:	495f544c 	0x495f544c
    85f4:	524f4e47 	beql	s2,t7,1bf14 <SRAM_OS_TASK_STACK_ADDR+0x914>
    85f8:	0d010045 	jal	4040114 <AP_BANK_SPACE+0x4000114>
    85fc:	55534552 	bnel	t2,s3,19b48 <SRAM_AP_FRONT_DATA_ADDR+0x1c8>
    8600:	4e5f544c 	c3	0x5f544c
    8604:	5f454e4f 	0x5f454e4f
    8608:	4e455645 	c3	0x455645
    860c:	0d020054 	jal	4080150 <AP_BANK_SPACE+0x4040150>
    8610:	55534552 	bnel	t2,s3,19b5c <SRAM_AP_FRONT_DATA_ADDR+0x1dc>
    8614:	525f544c 	beql	s2,ra,1d748 <SRAM_BANK_C_ADDR+0x248>
    8618:	4c5f5043 	0x4c5f5043
    861c:	41575f43 	0x41575f43
    8620:	03005449 	0x3005449
    8624:	5345520d 	beql	k0,a1,1ce5c <SRAM_OS_TASK_STACK_ADDR+0x185c>
    8628:	5f544c55 	0x5f544c55
    862c:	4d4d4f43 	0x4d4d4f43
    8630:	525f4e4f 	beql	s2,ra,1bf70 <SRAM_OS_TASK_STACK_ADDR+0x970>
    8634:	52455345 	beql	s2,a1,1d34c <SRAM_OS_TASK_STACK_ADDR+0x1d4c>
    8638:	20004556 	addi	zero,zero,17750
    863c:	5345520d 	beql	k0,a1,1ce74 <SRAM_OS_TASK_STACK_ADDR+0x1874>
    8640:	5f544c55 	0x5f544c55
    8644:	4f525245 	c3	0x1525245
    8648:	01800052 	0x1800052
    864c:	5345520d 	beql	k0,a1,1ce84 <SRAM_OS_TASK_STACK_ADDR+0x1884>
    8650:	5f544c55 	0x5f544c55
    8654:	4b434142 	c2	0x1434142
    8658:	4543535f 	0x4543535f
    865c:	445f454e 	0x445f454e
    8660:	41505349 	0x41505349
    8664:	00484354 	0x484354
    8668:	520d0181 	beql	s0,t5,8c70 <SRAM_SPINOR_RCODE_ADDR+0x70>
    866c:	4c555345 	0x4c555345
    8670:	43535f54 	c0	0x1535f54
    8674:	5f454e45 	0x5f454e45
    8678:	54495845 	bnel	v0,t1,1e790 <SRAM_BT_HCI_BUF_ADDR+0xe90>
    867c:	0d018200 	jal	4060800 <AP_BANK_SPACE+0x4020800>
    8680:	55534552 	bnel	t2,s3,19bcc <SRAM_AP_FRONT_DATA_ADDR+0x24c>
    8684:	4b5f544c 	c2	0x15f544c
    8688:	455f5945 	0x455f5945
    868c:	544e4556 	bnel	v0,t6,19be8 <SRAM_AP_FRONT_DATA_ADDR+0x268>
    8690:	4445525f 	0x4445525f
    8694:	5f4c4145 	0x5f4c4145
    8698:	435f5942 	c0	0x15f5942
    869c:	4f4d4d4f 	c3	0x14d4d4f
    86a0:	0183004e 	0x183004e
    86a4:	5345520d 	beql	k0,a1,1cedc <SRAM_OS_TASK_STACK_ADDR+0x18dc>
    86a8:	5f544c55 	0x5f544c55
    86ac:	5f535953 	0x5f535953
    86b0:	5f47534d 	0x5f47534d
    86b4:	45444552 	0x45444552
    86b8:	425f4c41 	c0	0x5f4c41
    86bc:	4f435f59 	c3	0x1435f59
    86c0:	4e4f4d4d 	c3	0x4f4d4d
    86c4:	0d018400 	jal	4061000 <AP_BANK_SPACE+0x4021000>
    86c8:	55534552 	bnel	t2,s3,19c14 <SRAM_AP_FRONT_DATA_ADDR+0x294>
    86cc:	465f544c 	c1	0x5f544c
    86d0:	4543524f 	0x4543524f
    86d4:	5354545f 	beql	k0,s4,1d854 <SRAM_BANK_C_ADDR+0x354>
    86d8:	4f54535f 	c3	0x154535f
    86dc:	01850050 	0x1850050
    86e0:	5345520d 	beql	k0,a1,1cf18 <SRAM_OS_TASK_STACK_ADDR+0x1918>
    86e4:	5f544c55 	0x5f544c55
    86e8:	45544e45 	0x45544e45
    86ec:	544f5f52 	bnel	v0,t7,20438 <SRAM_AP_BANK_FRONT_CONTROL_ADDR+0x238>
    86f0:	50555f41 	beql	v0,s5,203f8 <SRAM_AP_BANK_FRONT_CONTROL_ADDR+0x1f8>
    86f4:	44415247 	0x44415247
    86f8:	01a10045 	0x1a10045
    86fc:	5345520d 	beql	k0,a1,1cf34 <SRAM_OS_TASK_STACK_ADDR+0x1934>
    8700:	5f544c55 	0x5f544c55
    8704:	54534554 	bnel	v0,s3,19c58 <SRAM_AP_FRONT_DATA_ADDR+0x2d8>
    8708:	515f5041 	beql	t2,ra,1c810 <SRAM_OS_TASK_STACK_ADDR+0x1210>
    870c:	00544955 	0x544955
    8710:	520d01ff 	beql	s0,t5,8f10 <SRAM_SPINOR_RCODE_ADDR+0x310>
    8714:	4c555345 	0x4c555345
    8718:	50415f54 	beql	v0,at,2046c <SRAM_AP_BANK_FRONT_CONTROL_ADDR+0x26c>
    871c:	55515f50 	bnel	t2,s1,20460 <SRAM_AP_BANK_FRONT_CONTROL_ADDR+0x260>
    8720:	80005449 	lb	zero,21577(zero)
    8724:	45520d02 	0x45520d02
    8728:	544c5553 	bnel	v0,t4,1dc78 <SRAM_BT_HCI_BUF_ADDR+0x378>
    872c:	53554d5f 	beql	k0,s5,1bcac <SRAM_OS_TASK_STACK_ADDR+0x6ac>
    8730:	505f4349 	beql	v0,ra,19458 <SRAM_CARD_UD_CACHE_ADDR+0x758>
    8734:	0059414c 	syscall	0x16505
    8738:	520d0281 	beql	s0,t5,9140 <SRAM_BANK_A_ADDR+0x140>
    873c:	4c555345 	0x4c555345
    8740:	554d5f54 	bnel	t2,t5,20494 <SRAM_AP_BANK_FRONT_CONTROL_ADDR+0x294>
    8744:	5f434953 	0x5f434953
    8748:	414c5043 	0x414c5043
    874c:	02820059 	0x2820059
    8750:	5345520d 	beql	k0,a1,1cf88 <SRAM_OS_TASK_STACK_ADDR+0x1988>
    8754:	5f544c55 	0x5f544c55
    8758:	4953554d 	0x4953554d
    875c:	50555f43 	beql	v0,s5,2046c <SRAM_AP_BANK_FRONT_CONTROL_ADDR+0x26c>
    8760:	0059414c 	syscall	0x16505
    8764:	520d0283 	beql	s0,t5,9174 <SRAM_BANK_A_ADDR+0x174>
    8768:	4c555345 	0x4c555345
    876c:	4e455f54 	c3	0x455f54
    8770:	5f524554 	0x5f524554
    8774:	454e494c 	0x454e494c
    8778:	84004e49 	lh	zero,20041(zero)
    877c:	45520d02 	0x45520d02
    8780:	544c5553 	bnel	v0,t4,1dcd0 <SRAM_BT_HCI_BUF_ADDR+0x3d0>
    8784:	4441525f 	0x4441525f
    8788:	85004f49 	lh	zero,20297(t0)
    878c:	45520d02 	0x45520d02
    8790:	544c5553 	bnel	v0,t4,1dce0 <SRAM_BT_HCI_BUF_ADDR+0x3e0>
    8794:	554c425f 	bnel	t2,t4,19114 <SRAM_CARD_UD_CACHE_ADDR+0x414>
    8798:	45455445 	0x45455445
    879c:	535f4854 	beql	k0,ra,1a8f0 <SRAM_OS_DATA_ADDR+0x4f0>
    87a0:	444e554f 	0x444e554f
    87a4:	0d028600 	jal	40a1800 <AP_BANK_SPACE+0x4061800>
    87a8:	55534552 	bnel	t2,s3,19cf4 <SRAM_AP_FRONT_DATA_ADDR+0x374>
    87ac:	425f544c 	c0	0x5f544c
    87b0:	5445554c 	bnel	v0,a1,1dce4 <SRAM_BT_HCI_BUF_ADDR+0x3e4>
    87b4:	48544545 	0x48544545
    87b8:	4c41435f 	0x4c41435f
    87bc:	0287004c 	syscall	0xa1c01
    87c0:	5345520d 	beql	k0,a1,1cff8 <SRAM_OS_TASK_STACK_ADDR+0x19f8>
    87c4:	5f544c55 	0x5f544c55
    87c8:	45554c42 	0x45554c42
    87cc:	54454554 	bnel	v0,a1,19d20 <SRAM_AP_FRONT_DATA_ADDR+0x3a0>
    87d0:	41435f48 	0x41435f48
    87d4:	425f4c4c 	c0	0x5f4c4c
    87d8:	474b4341 	c1	0x14b4341
    87dc:	4e554f52 	c3	0x554f52
    87e0:	02880044 	0x2880044
    87e4:	5345520d 	beql	k0,a1,1d01c <SRAM_OS_TASK_STACK_ADDR+0x1a1c>
    87e8:	5f544c55 	0x5f544c55
    87ec:	5f425355 	0x5f425355
    87f0:	4e554f53 	c3	0x554f53
    87f4:	02890044 	0x2890044
    87f8:	5345520d 	beql	k0,a1,1d030 <SRAM_OS_TASK_STACK_ADDR+0x1a30>
    87fc:	5f544c55 	0x5f544c55
    8800:	45574f50 	0x45574f50
    8804:	464f5f52 	c1	0x4f5f52
    8808:	028a0046 	rorv	zero,t2,s4
    880c:	5345520d 	beql	k0,a1,1d044 <SRAM_OS_TASK_STACK_ADDR+0x1a44>
    8810:	5f544c55 	0x5f544c55
    8814:	5f574f4c 	0x5f574f4c
    8818:	45574f50 	0x45574f50
    881c:	028b0052 	0x28b0052
    8820:	5345520d 	beql	k0,a1,1d058 <SRAM_OS_TASK_STACK_ADDR+0x1a58>
    8824:	5f544c55 	0x5f544c55
    8828:	5f425355 	0x5f425355
    882c:	4e415254 	c3	0x415254
    8830:	028c0053 	0x28c0053
    8834:	5345520d 	beql	k0,a1,1d06c <SRAM_OS_TASK_STACK_ADDR+0x1a6c>
    8838:	5f544c55 	0x5f544c55
    883c:	4f434552 	c3	0x1434552
    8840:	435f4452 	c0	0x15f4452
    8844:	59414c50 	0x59414c50
    8848:	0d028d00 	jal	40a3400 <AP_BANK_SPACE+0x4063400>
    884c:	55534552 	bnel	t2,s3,19d98 <SRAM_AP_FRONT_DATA_ADDR+0x418>
    8850:	525f544c 	beql	s2,ra,1d984 <SRAM_BT_HCI_BUF_ADDR+0x84>
    8854:	524f4345 	beql	s2,t7,1956c <SRAM_CARD_DATA_ADDR+0x6c>
    8858:	50555f44 	beql	v0,s5,2056c <SRAM_AP_BANK_FRONT_CONTROL_ADDR+0x36c>
    885c:	0059414c 	syscall	0x16505
    8860:	520d028e 	beql	s0,t5,929c <SRAM_BANK_A_ADDR+0x29c>
    8864:	4c555345 	0x4c555345
    8868:	45525f54 	0x45525f54
    886c:	44524f43 	0x44524f43
    8870:	4e494c5f 	c3	0x494c5f
    8874:	5f4e4945 	0x5f4e4945
    8878:	00434f54 	0x434f54
    887c:	520d028f 	beql	s0,t5,92bc <SRAM_BANK_A_ADDR+0x2bc>
    8880:	4c555345 	0x4c555345
    8884:	45525f54 	0x45525f54
    8888:	44524f43 	0x44524f43
    888c:	5f4d465f 	0x5f4d465f
    8890:	00434f54 	0x434f54
    8894:	520d0290 	beql	s0,t5,92d8 <SRAM_BANK_A_ADDR+0x2d8>
    8898:	4c555345 	0x4c555345
    889c:	45525f54 	0x45525f54
    88a0:	44524f43 	0x44524f43
    88a4:	43494d5f 	c0	0x1494d5f
    88a8:	434f545f 	c0	0x14f545f
    88ac:	0d029100 	jal	40a4400 <AP_BANK_SPACE+0x4064400>
    88b0:	55534552 	bnel	t2,s3,19dfc <SRAM_AP_FRONT_DATA_ADDR+0x47c>
    88b4:	525f544c 	beql	s2,ra,1d9e8 <SRAM_BT_HCI_BUF_ADDR+0xe8>
    88b8:	524f4345 	beql	s2,t7,195d0 <SRAM_AP_BACK_DATA_ADDR+0x50>
    88bc:	494c5f44 	0x494c5f44
    88c0:	4e49454e 	c3	0x49454e
    88c4:	554f545f 	bnel	t2,t7,1da44 <SRAM_BT_HCI_BUF_ADDR+0x144>
    88c8:	0d029200 	jal	40a4800 <AP_BANK_SPACE+0x4064800>
    88cc:	55534552 	bnel	t2,s3,19e18 <SRAM_AP_FRONT_DATA_ADDR+0x498>
    88d0:	525f544c 	beql	s2,ra,1da04 <SRAM_BT_HCI_BUF_ADDR+0x104>
    88d4:	524f4345 	beql	s2,t7,195ec <SRAM_AP_BACK_DATA_ADDR+0x6c>
    88d8:	4d465f44 	0x4d465f44
    88dc:	554f545f 	bnel	t2,t7,1da5c <SRAM_BT_HCI_BUF_ADDR+0x15c>
    88e0:	0d029300 	jal	40a4c00 <AP_BANK_SPACE+0x4064c00>
    88e4:	55534552 	bnel	t2,s3,19e30 <SRAM_AP_FRONT_DATA_ADDR+0x4b0>
    88e8:	525f544c 	beql	s2,ra,1da1c <SRAM_BT_HCI_BUF_ADDR+0x11c>
    88ec:	524f4345 	beql	s2,t7,19604 <SRAM_AP_BACK_DATA_ADDR+0x84>
    88f0:	494d5f44 	0x494d5f44
    88f4:	4f545f43 	c3	0x1545f43
    88f8:	02940055 	0x2940055
    88fc:	5345520d 	beql	k0,a1,1d134 <SRAM_OS_TASK_STACK_ADDR+0x1b34>
    8900:	5f544c55 	0x5f544c55
    8904:	5453414c 	bnel	v0,s3,18e38 <SRAM_CARD_UD_CACHE_ADDR+0x138>
    8908:	59414c50 	0x59414c50
    890c:	0d029500 	jal	40a5400 <AP_BANK_SPACE+0x4065400>
    8910:	55534552 	bnel	t2,s3,19e5c <SRAM_AP_FRONT_DATA_ADDR+0x4dc>
    8914:	4e5f544c 	c3	0x5f544c
    8918:	5f545845 	0x5f545845
    891c:	434e5546 	c0	0x14e5546
    8920:	4e4f4954 	c3	0x4f4954
    8924:	0d029600 	jal	40a5800 <AP_BANK_SPACE+0x4065800>
    8928:	55534552 	bnel	t2,s3,19e74 <SRAM_AP_FRONT_DATA_ADDR+0x4f4>
    892c:	455f544c 	0x455f544c
    8930:	5245544e 	beql	s2,a1,1da6c <SRAM_BT_HCI_BUF_ADDR+0x16c>
    8934:	4750555f 	c1	0x150555f
    8938:	45444152 	0x45444152
    893c:	0d029700 	jal	40a5c00 <AP_BANK_SPACE+0x4065c00>
    8940:	55534552 	bnel	t2,s3,19e8c <SRAM_AP_FRONT_DATA_ADDR+0x50c>
    8944:	4d5f544c 	0x4d5f544c
    8948:	5f4e4941 	0x5f4e4941
    894c:	00505041 	0x505041
    8950:	520d0298 	beql	s0,t5,93b4 <SRAM_BANK_A_ADDR+0x3b4>
    8954:	4c555345 	0x4c555345
    8958:	4e455f54 	c3	0x455f54
    895c:	5f524554 	0x5f524554
    8960:	52414c41 	beql	s2,at,1ba68 <SRAM_OS_TASK_STACK_ADDR+0x468>
    8964:	0299004d 	break	0x299,0x1
    8968:	5345520d 	beql	k0,a1,1d1a0 <SRAM_OS_TASK_STACK_ADDR+0x1ba0>
    896c:	5f544c55 	0x5f544c55
    8970:	52414c41 	beql	s2,at,1ba78 <SRAM_OS_TASK_STACK_ADDR+0x478>
    8974:	4e535f4d 	c3	0x535f4d
    8978:	455a4f4f 	0x455a4f4f
    897c:	0d029a00 	jal	40a6800 <AP_BANK_SPACE+0x4066800>
    8980:	55534552 	bnel	t2,s3,19ecc <SRAM_AP_FRONT_DATA_ADDR+0x54c>
    8984:	415f544c 	0x415f544c
    8988:	4d52414c 	0x4d52414c
    898c:	4f4c435f 	c3	0x14c435f
    8990:	9b004553 	lwr	zero,17747(t8)
    8994:	45520d02 	0x45520d02
    8998:	544c5553 	bnel	v0,t4,1dee8 <SRAM_BT_HCI_BUF_ADDR+0x5e8>
    899c:	414c415f 	0x414c415f
    89a0:	525f4d52 	beql	s2,ra,1beec <SRAM_OS_TASK_STACK_ADDR+0x8ec>
    89a4:	5f474e49 	0x5f474e49
    89a8:	444c4f46 	0x444c4f46
    89ac:	535f5245 	beql	k0,ra,1d2c4 <SRAM_OS_TASK_STACK_ADDR+0x1cc4>
    89b0:	004e4143 	0x4e4143
    89b4:	520d029c 	beql	s0,t5,9428 <SRAM_BANK_B_ADDR+0x28>
    89b8:	4c555345 	0x4c555345
    89bc:	55415f54 	bnel	t2,at,20710 <SRAM_AP_BANK_FRONT_CONTROL_ADDR+0x510>
    89c0:	535f4f54 	beql	k0,ra,1c714 <SRAM_OS_TASK_STACK_ADDR+0x1114>
    89c4:	43524145 	c0	0x1524145
    89c8:	029d0048 	0x29d0048
    89cc:	5345520d 	beql	k0,a1,1d204 <SRAM_OS_TASK_STACK_ADDR+0x1c04>
    89d0:	5f544c55 	0x5f544c55
    89d4:	554e414d 	bnel	t2,t6,18f0c <SRAM_CARD_UD_CACHE_ADDR+0x20c>
    89d8:	535f4c41 	beql	k0,ra,1bae0 <SRAM_OS_TASK_STACK_ADDR+0x4e0>
    89dc:	43524145 	c0	0x1524145
    89e0:	50555f48 	beql	v0,s5,20704 <SRAM_AP_BANK_FRONT_CONTROL_ADDR+0x504>
    89e4:	0d029e00 	jal	40a7800 <AP_BANK_SPACE+0x4067800>
    89e8:	55534552 	bnel	t2,s3,19f34 <SRAM_AP_FRONT_DATA_ADDR+0x5b4>
    89ec:	4d5f544c 	0x4d5f544c
    89f0:	41554e41 	0x41554e41
    89f4:	45535f4c 	0x45535f4c
    89f8:	48435241 	0x48435241
    89fc:	574f445f 	bnel	k0,t7,19b7c <SRAM_AP_FRONT_DATA_ADDR+0x1fc>
    8a00:	029f004e 	0x29f004e
    8a04:	5345520d 	beql	k0,a1,1d23c <SRAM_OS_TASK_STACK_ADDR+0x1c3c>
    8a08:	5f544c55 	0x5f544c55
    8a0c:	504f5453 	beql	v0,t7,1db5c <SRAM_BT_HCI_BUF_ADDR+0x25c>
    8a10:	4145535f 	0x4145535f
    8a14:	00484352 	0x484352
    8a18:	520d02a0 	beql	s0,t5,949c <SRAM_BANK_B_ADDR+0x9c>
    8a1c:	4c555345 	0x4c555345
    8a20:	4f435f54 	c3	0x1435f54
    8a24:	4749464e 	c1	0x149464e
    8a28:	4148435f 	0x4148435f
    8a2c:	00454752 	0x454752
    8a30:	520d02a1 	beql	s0,t5,94b8 <SRAM_BANK_B_ADDR+0xb8>
    8a34:	4c555345 	0x4c555345
    8a38:	4f435f54 	c3	0x1435f54
    8a3c:	4749464e 	c1	0x149464e
    8a40:	4148435f 	0x4148435f
    8a44:	5f454752 	0x5f454752
    8a48:	54495551 	bnel	v0,t1,1df90 <SRAM_BT_HCI_BUF_ADDR+0x690>
    8a4c:	0d02a200 	jal	40a8800 <AP_BANK_SPACE+0x4068800>
    8a50:	55534552 	bnel	t2,s3,19f9c <SRAM_AP_FRONT_DATA_ADDR+0x61c>
    8a54:	455f544c 	0x455f544c
    8a58:	5245544e 	beql	s2,a1,1db94 <SRAM_BT_HCI_BUF_ADDR+0x294>
    8a5c:	5153415f 	beql	t2,s3,18fdc <SRAM_CARD_UD_CACHE_ADDR+0x2dc>
    8a60:	46485f54 	c1	0x485f54
    8a64:	5345545f 	beql	k0,a1,1dbe4 <SRAM_BT_HCI_BUF_ADDR+0x2e4>
    8a68:	02a30054 	0x2a30054
    8a6c:	5345520d 	beql	k0,a1,1d2a4 <SRAM_OS_TASK_STACK_ADDR+0x1ca4>
    8a70:	5f544c55 	0x5f544c55
    8a74:	45544e45 	0x45544e45
    8a78:	53555f52 	beql	k0,s5,207c4 <SRAM_AP_BANK_FRONT_CONTROL_ADDR+0x5c4>
    8a7c:	00315245 	0x315245
    8a80:	520d02a4 	beql	s0,t5,9514 <SRAM_BANK_B_ADDR+0x114>
    8a84:	4c555345 	0x4c555345
    8a88:	59535f54 	0x59535f54
    8a8c:	4d455453 	0x4d455453
    8a90:	544e455f 	bnel	v0,t6,1a010 <SRAM_AP_FRONT_DATA_ADDR+0x690>
    8a94:	535f5245 	beql	k0,ra,1d3ac <SRAM_OS_TASK_STACK_ADDR+0x1dac>
    8a98:	02a50033 	tltu	s5,a1
    8a9c:	5345520d 	beql	k0,a1,1d2d4 <SRAM_OS_TASK_STACK_ADDR+0x1cd4>
    8aa0:	5f544c55 	0x5f544c55
    8aa4:	54535953 	bnel	v0,s3,1eff4 <SRAM_AP_FRONT_RCODE_ADDR+0x6f4>
    8aa8:	455f4d45 	0x455f4d45
    8aac:	5f544958 	0x5f544958
    8ab0:	a6003353 	sh	zero,13139(s0)
    8ab4:	45520d02 	0x45520d02
    8ab8:	544c5553 	bnel	v0,t4,1e008 <SRAM_BT_HCI_BUF_ADDR+0x708>
    8abc:	544e455f 	bnel	v0,t6,1a03c <SRAM_AP_FRONT_DATA_ADDR+0x6bc>
    8ac0:	535f5245 	beql	k0,ra,1d3d8 <SRAM_OS_TASK_STACK_ADDR+0x1dd8>
    8ac4:	5f425554 	0x5f425554
    8ac8:	55424544 	bnel	t2,v0,19fdc <SRAM_AP_FRONT_DATA_ADDR+0x65c>
    8acc:	02a70047 	0x2a70047
    8ad0:	5345520d 	beql	k0,a1,1d308 <SRAM_OS_TASK_STACK_ADDR+0x1d08>
    8ad4:	5f544c55 	0x5f544c55
    8ad8:	5f445345 	0x5f445345
    8adc:	54534552 	bnel	v0,s3,1a028 <SRAM_AP_FRONT_DATA_ADDR+0x6a8>
    8ae0:	00545241 	0x545241
    8ae4:	520d02a8 	beql	s0,t5,9588 <SRAM_BANK_B_ADDR+0x188>
    8ae8:	4c555345 	0x4c555345
    8aec:	44495f54 	0x44495f54
    8af0:	4d5f454c 	0x4d5f454c
    8af4:	0045444f 	0x45444f
    8af8:	520d02a9 	beql	s0,t5,95a0 <SRAM_BANK_B_ADDR+0x1a0>
    8afc:	4c555345 	0x4c555345
    8b00:	4e455f54 	c3	0x455f54
    8b04:	5f524554 	0x5f524554
    8b08:	5f41544f 	0x5f41544f
    8b0c:	474e4f53 	c1	0x14e4f53
    8b10:	5345545f 	beql	k0,a1,1dc90 <SRAM_BT_HCI_BUF_ADDR+0x390>
    8b14:	02aa0054 	0x2aa0054
    8b18:	5345520d 	beql	k0,a1,1d350 <SRAM_OS_TASK_STACK_ADDR+0x1d50>
    8b1c:	5f544c55 	0x5f544c55
    8b20:	59414c50 	0x59414c50
    8b24:	4444535f 	0x4444535f
    8b28:	4449465f 	0x4449465f
    8b2c:	ab003631 	swl	zero,13873(t8)
    8b30:	45520d02 	0x45520d02
    8b34:	544c5553 	bnel	v0,t4,1e084 <SRAM_BT_HCI_BUF_ADDR+0x784>
    8b38:	414c505f 	0x414c505f
    8b3c:	44535f59 	0x44535f59
    8b40:	49465f44 	0x49465f44
    8b44:	00373144 	0x373144
    8b48:	520d02ac 	beql	s0,t5,95fc <SRAM_BANK_B_ADDR+0x1fc>
    8b4c:	4c555345 	0x4c555345
    8b50:	4c505f54 	0x4c505f54
    8b54:	535f5941 	beql	k0,ra,1f05c <SRAM_AP_FRONT_RCODE_ADDR+0x75c>
    8b58:	465f4444 	c1	0x5f4444
    8b5c:	38314449 	xori	s1,at,0x4449
    8b60:	0d02ad00 	jal	40ab400 <AP_BANK_SPACE+0x406b400>
    8b64:	55534552 	bnel	t2,s3,1a0b0 <SRAM_APPLIB_GLOBAL_DATA_ADDR+0x30>
    8b68:	505f544c 	beql	v0,ra,1dc9c <SRAM_BT_HCI_BUF_ADDR+0x39c>
    8b6c:	5f59414c 	0x5f59414c
    8b70:	5f444453 	0x5f444453
    8b74:	31444946 	andi	a0,t2,0x4946
    8b78:	02ae0039 	0x2ae0039
    8b7c:	5345520d 	beql	k0,a1,1d3b4 <SRAM_OS_TASK_STACK_ADDR+0x1db4>
    8b80:	5f544c55 	0x5f544c55
    8b84:	59414c50 	0x59414c50
    8b88:	4444535f 	0x4444535f
    8b8c:	4449465f 	0x4449465f
    8b90:	af003032 	sw	zero,12338(t8)
    8b94:	45520d02 	0x45520d02
    8b98:	544c5553 	bnel	v0,t4,1e0e8 <SRAM_BT_HCI_BUF_ADDR+0x7e8>
    8b9c:	414c505f 	0x414c505f
    8ba0:	44535f59 	0x44535f59
    8ba4:	49465f44 	0x49465f44
    8ba8:	00313244 	0x313244
    8bac:	520d02b0 	beql	s0,t5,9670 <SRAM_BANK_B_ADDR+0x270>
    8bb0:	4c555345 	0x4c555345
    8bb4:	4c505f54 	0x4c505f54
    8bb8:	535f5941 	beql	k0,ra,1f0c0 <SRAM_AP_FRONT_RCODE_ADDR+0x7c0>
    8bbc:	465f4444 	c1	0x5f4444
    8bc0:	32324449 	andi	s2,s1,0x4449
    8bc4:	0d02b100 	jal	40ac400 <AP_BANK_SPACE+0x406c400>
    8bc8:	55534552 	bnel	t2,s3,1a114 <SRAM_APPLIB_DATA_ADDR+0x54>
    8bcc:	505f544c 	beql	v0,ra,1dd00 <SRAM_BT_HCI_BUF_ADDR+0x400>
    8bd0:	5f59414c 	0x5f59414c
    8bd4:	5f444453 	0x5f444453
    8bd8:	32444946 	andi	a0,s2,0x4946
    8bdc:	02b20033 	tltu	s5,s2
    8be0:	5345520d 	beql	k0,a1,1d418 <SRAM_OS_TASK_STACK_ADDR+0x1e18>
    8be4:	5f544c55 	0x5f544c55
    8be8:	59414c50 	0x59414c50
    8bec:	4444535f 	0x4444535f
    8bf0:	4449465f 	0x4449465f
    8bf4:	b3003432 	0xb3003432
    8bf8:	45520d02 	0x45520d02
    8bfc:	544c5553 	bnel	v0,t4,1e14c <SRAM_BT_HCI_BUF_ADDR+0x84c>
    8c00:	414c505f 	0x414c505f
    8c04:	44535f59 	0x44535f59
    8c08:	49465f44 	0x49465f44
    8c0c:	00353244 	0x353244
    8c10:	520d02b4 	beql	s0,t5,96e4 <SRAM_BANK_B_ADDR+0x2e4>
    8c14:	4c555345 	0x4c555345
    8c18:	4e455f54 	c3	0x455f54
    8c1c:	5f524554 	0x5f524554
    8c20:	445f5442 	0x445f5442
    8c24:	b5005042 	0xb5005042
    8c28:	45520d02 	0x45520d02
    8c2c:	544c5553 	bnel	v0,t4,1e17c <SRAM_BT_HCI_BUF_ADDR+0x87c>
    8c30:	4149445f 	0x4149445f
    8c34:	5f474f4c 	0x5f474f4c
    8c38:	80004b4f 	lb	zero,19279(zero)
    8c3c:	45520d04 	0x45520d04
    8c40:	544c5553 	bnel	v0,t4,1e190 <SRAM_BT_HCI_BUF_ADDR+0x890>
    8c44:	4149445f 	0x4149445f
    8c48:	5f474f4c 	0x5f474f4c
    8c4c:	434e4143 	c0	0x14e4143
    8c50:	81004c45 	lb	zero,19525(t0)
    8c54:	45520d04 	0x45520d04
    8c58:	544c5553 	bnel	v0,t4,1e1a8 <SRAM_BT_HCI_BUF_ADDR+0x8a8>
    8c5c:	4149445f 	0x4149445f
    8c60:	5f474f4c 	0x5f474f4c
    8c64:	524f4241 	beql	s2,t7,1956c <SRAM_CARD_DATA_ADDR+0x6c>
    8c68:	04820054 	bltzl	a0,8dbc <SRAM_SPINOR_RCODE_ADDR+0x1bc>
    8c6c:	5345520d 	beql	k0,a1,1d4a4 <SRAM_OS_TASK_STACK_ADDR+0x1ea4>
    8c70:	5f544c55 	0x5f544c55
    8c74:	4c414944 	0x4c414944
    8c78:	525f474f 	beql	s2,ra,1a9b8 <SRAM_OS_DATA_ADDR+0x5b8>
    8c7c:	59525445 	0x59525445
    8c80:	0d048300 	jal	4120c00 <AP_BANK_SPACE+0x40e0c00>
    8c84:	55534552 	bnel	t2,s3,1a1d0 <SRAM_APPLIB_DATA_ADDR+0x110>
    8c88:	445f544c 	0x445f544c
    8c8c:	4f4c4149 	c3	0x14c4149
    8c90:	47495f47 	c1	0x1495f47
    8c94:	45524f4e 	0x45524f4e
    8c98:	0d048400 	jal	4121000 <AP_BANK_SPACE+0x40e1000>
    8c9c:	55534552 	bnel	t2,s3,1a1e8 <SRAM_APPLIB_DATA_ADDR+0x128>
    8ca0:	445f544c 	0x445f544c
    8ca4:	4f4c4149 	c3	0x14c4149
    8ca8:	45595f47 	0x45595f47
    8cac:	04850053 	0x4850053
    8cb0:	5345520d 	beql	k0,a1,1d4e8 <SRAM_OS_TASK_STACK_ADDR+0x1ee8>
    8cb4:	5f544c55 	0x5f544c55
    8cb8:	4c414944 	0x4c414944
    8cbc:	4e5f474f 	c3	0x5f474f
    8cc0:	0486004f 	0x486004f
    8cc4:	5345520d 	beql	k0,a1,1d4fc <SRAM_OS_TASK_STACK_ADDR+0x1efc>
    8cc8:	5f544c55 	0x5f544c55
    8ccc:	4c414944 	0x4c414944
    8cd0:	435f474f 	c0	0x15f474f
    8cd4:	45434e41 	0x45434e41
    8cd8:	55415f4c 	bnel	t2,at,20a0c <SRAM_KERNEL_XSYS_ADDR+0xc>
    8cdc:	87004f54 	lh	zero,20308(t8)
    8ce0:	45520d04 	0x45520d04
    8ce4:	544c5553 	bnel	v0,t4,1e234 <SRAM_BT_HCI_BUF_ADDR+0x934>
    8ce8:	4149445f 	0x4149445f
    8cec:	5f474f4c 	0x5f474f4c
    8cf0:	5f425355 	0x5f425355
    8cf4:	4e554f53 	c3	0x554f53
    8cf8:	04880044 	tgei	a0,68
    8cfc:	5345520d 	beql	k0,a1,1d534 <SRAM_BANK_C_ADDR+0x34>
    8d00:	5f544c55 	0x5f544c55
    8d04:	4c414944 	0x4c414944
    8d08:	4f5f474f 	c3	0x15f474f
    8d0c:	5f594c4e 	0x5f594c4e
    8d10:	52414843 	beql	s2,at,1ae20 <SRAM_OS_HEAP_ADDR+0x1a0>
    8d14:	89004547 	lwl	zero,17735(t0)
    8d18:	45520d04 	0x45520d04
    8d1c:	544c5553 	bnel	v0,t4,1e26c <SRAM_BT_HCI_BUF_ADDR+0x96c>
    8d20:	4449485f 	0x4449485f
    8d24:	4e45535f 	c3	0x45535f
    8d28:	454b5f44 	0x454b5f44
    8d2c:	56455f59 	bnel	s2,a1,20a94 <SRAM_KERNEL_XSYS_ADDR+0x94>
    8d30:	00544e45 	0x544e45
    8d34:	0e00048a 	jal	8001228 <AP_BANK_SPACE+0x7fc1228>
    8d38:	5f707061 	0x5f707061
    8d3c:	75736572 	jalx	5cd95c8 <AP_BANK_SPACE+0x5c995c8>
    8d40:	655f746c 	0x655f746c
    8d44:	01800400 	0x1800400
    8d48:	000005ac 	0x5ac
    8d4c:	000d470f 	0xd470f
    8d50:	55050400 	bnel	t0,a1,9d54 <SRAM_UI_RCODE_ADDR+0x154>
    8d54:	61641002 	0x61641002
    8d58:	05006174 	bltz	t0,2132c <SRAM_KERNEL_XSYS_ADDR+0x92c>
    8d5c:	02530252 	0x2530252
    8d60:	61100000 	0x61100000
    8d64:	00726464 	0x726464
    8d68:	9e025405 	0x9e025405
    8d6c:	00000001 	movf	zero,zero,$fcc0
    8d70:	000d7411 	0xd7411
    8d74:	56050800 	bnel	s0,a1,ad78 <SRAM_BT_EXT1_BANK_ADDR+0x578>
    8d78:	79741202 	0x79741202
    8d7c:	05006570 	bltz	t0,22340 <SRAM_AP_BANK_BACK_BASAL_ADDR+0x540>
    8d80:	015e024e 	0x15e024e
    8d84:	23020000 	addi	v0,t8,0
    8d88:	6f631200 	0x6f631200
    8d8c:	6e65746e 	0x6e65746e
    8d90:	55050074 	bnel	t0,a1,8f64 <SRAM_SPINOR_RCODE_ADDR+0x364>
    8d94:	000d2302 	srl	a0,t5,0xc
    8d98:	04230200 	bgezl	at,959c <SRAM_BANK_B_ADDR+0x19c>
    8d9c:	736d0e00 	0x736d0e00
    8da0:	70615f67 	0x70615f67
    8da4:	745f7370 	jalx	17dcdc0 <AP_BANK_SPACE+0x179cdc0>
    8da8:	02560500 	0x2560500
    8dac:	00000d47 	0xd47
    8db0:	000dc711 	0xdc711
    8db4:	6f050800 	0x6f050800
    8db8:	79741202 	0x79741202
    8dbc:	05006570 	bltz	t0,22380 <SRAM_AP_BANK_BACK_BASAL_ADDR+0x580>
    8dc0:	0143026b 	0x143026b
    8dc4:	23020000 	addi	v0,t8,0
    8dc8:	65721200 	0x65721200
    8dcc:	76726573 	jalx	9c995cc <AP_BANK_SPACE+0x9c595cc>
    8dd0:	6c050065 	0x6c050065
    8dd4:	00026302 	srl	t4,v0,0xc
    8dd8:	01230200 	0x1230200
    8ddc:	6e6f6312 	0x6e6f6312
    8de0:	746e6574 	jalx	1b995d0 <AP_BANK_SPACE+0x1b595d0>
    8de4:	026e0500 	0x26e0500
    8de8:	0000019e 	0x19e
    8dec:	00042302 	srl	a0,a0,0xc
    8df0:	67736d0e 	0x67736d0e
    8df4:	7065725f 	udi15	v1,a1,t6,0x9
    8df8:	745f796c 	jalx	17de5b0 <AP_BANK_SPACE+0x179e5b0>
    8dfc:	026f0500 	0x26f0500
    8e00:	00000d87 	0xd87
    8e04:	000e1411 	0xe1411
    8e08:	7c051000 	0x7c051000
    8e0c:	736d1202 	0x736d1202
    8e10:	77050067 	jalx	c14019c <AP_BANK_SPACE+0xc10019c>
    8e14:	000d7402 	srl	t6,t5,0x10
    8e18:	00230200 	0x230200
    8e1c:	6d657312 	0x6d657312
    8e20:	02790500 	0x2790500
    8e24:	00000247 	0x247
    8e28:	12082302 	beq	s0,t0,11a34 <SRAM_BT_BACK_RCODE_ADDR+0xa34>
    8e2c:	6c706572 	0x6c706572
    8e30:	7b050079 	0x7b050079
    8e34:	000e1402 	srl	v0,t6,0x10
    8e38:	0c230200 	jal	8c0800 <AP_BANK_SPACE+0x880800>
    8e3c:	c7040600 	lwc1	$f4,1536(t8)
    8e40:	0e00000d 	jal	8000034 <AP_BANK_SPACE+0x7fc0034>
    8e44:	76697270 	jalx	9a5c9c0 <AP_BANK_SPACE+0x9a1c9c0>
    8e48:	5f657461 	0x5f657461
    8e4c:	5f67736d 	0x5f67736d
    8e50:	7c050074 	0x7c050074
    8e54:	000ddb02 	srl	k1,t5,0xc
    8e58:	1a040600 	0x1a040600
    8e5c:	0300000e 	0x300000e
    8e60:	656d6974 	0x656d6974
    8e64:	72705f72 	0x72705f72
    8e68:	0900636f 	j	4018dbc <AP_BANK_SPACE+0x3fd8dbc>
    8e6c:	0001a046 	rorv	s4,at,zero
    8e70:	0f380a00 	jal	ce02800 <AP_BANK_SPACE+0xcdc2800>
    8e74:	09100000 	j	4400000 <AP_BANK_SPACE+0x43c0000>
    8e78:	74731365 	jalx	1cc4d94 <AP_BANK_SPACE+0x1c84d94>
    8e7c:	00657461 	0x657461
    8e80:	01434e09 	0x1434e09
    8e84:	02010000 	0x2010000
    8e88:	00230206 	0x230206
    8e8c:	74746113 	jalx	1d1844c <AP_BANK_SPACE+0x1cd844c>
    8e90:	09006272 	j	40189c8 <AP_BANK_SPACE+0x3fd89c8>
    8e94:	00014350 	0x14350
    8e98:	04020100 	bltzl	zero,929c <SRAM_BANK_A_ADDR+0x29c>
    8e9c:	13002302 	beqz	t8,11aa8 <SRAM_BT_BACK_RCODE_ADDR+0xaa8>
    8ea0:	65707974 	0x65707974
    8ea4:	43520900 	c0	0x1520900
    8ea8:	01000001 	movf	zero,t0,$fcc0
    8eac:	23020301 	addi	v0,t8,769
    8eb0:	77741300 	jalx	dd04c00 <AP_BANK_SPACE+0xdcc4c00>
    8eb4:	6c6b6e69 	0x6c6b6e69
    8eb8:	54090065 	bnel	zero,t1,9050 <SRAM_BANK_A_ADDR+0x50>
    8ebc:	00000143 	sra	zero,zero,0x5
    8ec0:	02020101 	0x2020101
    8ec4:	6f130023 	0x6f130023
    8ec8:	666f5f6e 	0x666f5f6e
    8ecc:	57090066 	bnel	t8,t1,9068 <SRAM_BANK_A_ADDR+0x68>
    8ed0:	00000143 	sra	zero,zero,0x5
    8ed4:	02010101 	0x2010101
    8ed8:	740b0023 	jalx	2c008c <AP_BANK_SPACE+0x28008c>
    8edc:	09006761 	j	4019d84 <AP_BANK_SPACE+0x3fd9d84>
    8ee0:	00014358 	0x14358
    8ee4:	01230200 	0x1230200
    8ee8:	756f630b 	jalx	5bd8c2c <AP_BANK_SPACE+0x5b98c2c>
    8eec:	0900746e 	j	401d1b8 <AP_BANK_SPACE+0x3fdd1b8>
    8ef0:	0001435a 	0x1435a
    8ef4:	02230200 	0x2230200
    8ef8:	7365720b 	0x7365720b
    8efc:	65767265 	0x65767265
    8f00:	435b0900 	c0	0x15b0900
    8f04:	02000001 	movf	zero,s0,$fcc0
    8f08:	740b0323 	jalx	2c0c8c <AP_BANK_SPACE+0x280c8c>
    8f0c:	6f656d69 	0x6f656d69
    8f10:	09007475 	j	401d1d4 <AP_BANK_SPACE+0x3fdd1d4>
    8f14:	0001505e 	0x1505e
    8f18:	04230200 	bgezl	at,971c <SRAM_BANK_B_ADDR+0x31c>
    8f1c:	6d69740b 	0x6d69740b
    8f20:	74756f65 	jalx	1d5bd94 <AP_BANK_SPACE+0x1d1bd94>
    8f24:	66666f5f 	0x66666f5f
    8f28:	50600900 	beqzl	v1,b32c <SRAM_AP_BANK_FRONT_BASAL_ADDR+0x32c>
    8f2c:	02000001 	movf	zero,s0,$fcc0
    8f30:	740b0623 	jalx	2c188c <AP_BANK_SPACE+0x28188c>
    8f34:	6f656d69 	0x6f656d69
    8f38:	655f7475 	0x655f7475
    8f3c:	72697078 	0x72697078
    8f40:	09007365 	j	401cd94 <AP_BANK_SPACE+0x3fdcd94>
    8f44:	00015e62 	0x15e62
    8f48:	08230200 	j	8c0800 <AP_BANK_SPACE+0x880800>
    8f4c:	6e75660b 	0x6e75660b
    8f50:	72705f63 	0x72705f63
    8f54:	0900636f 	j	4018dbc <AP_BANK_SPACE+0x3fd8dbc>
    8f58:	000e3664 	0xe3664
    8f5c:	0c230200 	jal	8c0800 <AP_BANK_SPACE+0x880800>
    8f60:	70610300 	0x70610300
    8f64:	69745f70 	0x69745f70
    8f68:	5f72656d 	0x5f72656d
    8f6c:	65090074 	0x65090074
    8f70:	00000e48 	0xe48
    8f74:	000f940c 	syscall	0x3e50
    8f78:	72020100 	0x72020100
    8f7c:	474e450d 	c1	0x14e450d
    8f80:	5f454e49 	0x5f454e49
    8f84:	54415453 	bnel	v0,at,1e0d4 <SRAM_BT_HCI_BUF_ADDR+0x7d4>
    8f88:	554e5f45 	bnel	t2,t6,20ca0 <SRAM_KERNEL_XSYS_ADDR+0x2a0>
    8f8c:	00004c4c 	syscall	0x131
    8f90:	474e450d 	c1	0x14e450d
    8f94:	5f454e49 	0x5f454e49
    8f98:	54415453 	bnel	v0,at,1e0e8 <SRAM_BT_HCI_BUF_ADDR+0x7e8>
    8f9c:	4c505f45 	0x4c505f45
    8fa0:	4e495941 	c3	0x495941
    8fa4:	0d010047 	jal	404011c <AP_BANK_SPACE+0x400011c>
    8fa8:	49474e45 	0x49474e45
    8fac:	535f454e 	beql	k0,ra,1a4e8 <SRAM_OS_DATA_ADDR+0xe8>
    8fb0:	45544154 	0x45544154
    8fb4:	5541505f 	bnel	t2,at,1d134 <SRAM_OS_TASK_STACK_ADDR+0x1b34>
    8fb8:	02004553 	0x2004553
    8fbc:	6e650300 	0x6e650300
    8fc0:	656e6967 	0x656e6967
    8fc4:	6174735f 	0x6174735f
    8fc8:	655f6574 	0x655f6574
    8fcc:	4b790200 	c2	0x1790200
    8fd0:	1100000f 	beqz	t0,9010 <SRAM_BANK_A_ADDR+0x10>
    8fd4:	0000124a 	0x124a
    8fd8:	0132021c 	0x132021c
    8fdc:	676e6512 	0x676e6512
    8fe0:	5f656e69 	0x5f656e69
    8fe4:	65707974 	0x65707974
    8fe8:	01070200 	0x1070200
    8fec:	00000143 	sra	zero,zero,0x5
    8ff0:	14002302 	bnez	zero,11bfc <SRAM_BT_BACK_RCODE_ADDR+0xbfc>
    8ff4:	0000017e 	0x17e
    8ff8:	43010902 	c0	0x1010902
    8ffc:	02000001 	movf	zero,s0,$fcc0
    9000:	61120123 	0x61120123
    9004:	735f7070 	0x735f7070
    9008:	65746174 	0x65746174
    900c:	010b0200 	0x10b0200
    9010:	00000143 	sra	zero,zero,0x5
    9014:	12022302 	beq	s0,v0,11c20 <SRAM_BT_BACK_RCODE_ADDR+0xc20>
    9018:	735f6975 	0x735f6975
    901c:	75746174 	jalx	5d185d0 <AP_BANK_SPACE+0x5cd85d0>
    9020:	0d020073 	jal	40801cc <AP_BANK_SPACE+0x40401cc>
    9024:	00014301 	0x14301
    9028:	03230200 	0x3230200
    902c:	6e5f6712 	0x6e5f6712
    9030:	75735f6f 	jalx	5cd7dbc <AP_BANK_SPACE+0x5c97dbc>
    9034:	726f7070 	0x726f7070
    9038:	74745f74 	jalx	1d17dd0 <AP_BANK_SPACE+0x1cd7dd0>
    903c:	6c665f73 	0x6c665f73
    9040:	02006761 	0x2006761
    9044:	01430112 	0x1430112
    9048:	23020000 	addi	v0,t8,0
    904c:	5f671204 	0x5f671204
    9050:	646e6573 	0x646e6573
    9054:	6978655f 	0x6978655f
    9058:	6d6d5f74 	0x6d6d5f74
    905c:	74745f6d 	jalx	1d17db4 <AP_BANK_SPACE+0x1cd7db4>
    9060:	13020073 	beq	t8,v0,9230 <SRAM_BANK_A_ADDR+0x230>
    9064:	00014301 	0x14301
    9068:	05230200 	bgezl	t1,986c <SRAM_BANK_B_ADDR+0x46c>
    906c:	776f7015 	jalx	dbdc054 <AP_BANK_SPACE+0xdb9c054>
    9070:	6f5f7265 	0x6f5f7265
    9074:	6c665f6e 	0x6c665f6e
    9078:	02006761 	0x2006761
    907c:	01430114 	0x1430114
    9080:	04010000 	b	9084 <SRAM_BANK_A_ADDR+0x84>
    9084:	06230204 	bgezl	s1,9898 <SRAM_BANK_B_ADDR+0x498>
    9088:	75747315 	jalx	5d1cc54 <AP_BANK_SPACE+0x5cdcc54>
    908c:	6f6d5f62 	0x6f6d5f62
    9090:	665f6564 	0x665f6564
    9094:	0067616c 	0x67616c
    9098:	43011502 	c0	0x1011502
    909c:	01000001 	movf	zero,t0,$fcc0
    90a0:	23020004 	addi	v0,t8,4
    90a4:	6f731206 	0x6f731206
    90a8:	5f646e75 	0x5f646e75
    90ac:	74617473 	jalx	185d1cc <AP_BANK_SPACE+0x181d1cc>
    90b0:	18020065 	0x18020065
    90b4:	00014301 	0x14301
    90b8:	07230200 	bgezl	t9,98bc <SRAM_BANK_B_ADDR+0x4bc>
    90bc:	78696612 	0x78696612
    90c0:	6d61735f 	0x6d61735f
    90c4:	5f656c70 	0x5f656c70
    90c8:	65746172 	0x65746172
    90cc:	616c665f 	0x616c665f
    90d0:	1a020067 	0x1a020067
    90d4:	00014301 	0x14301
    90d8:	08230200 	j	8c0800 <AP_BANK_SPACE+0x880800>
    90dc:	74616212 	jalx	1858848 <AP_BANK_SPACE+0x1818848>
    90e0:	79726574 	0x79726574
    90e4:	7065725f 	udi15	v1,a1,t6,0x9
    90e8:	5f74726f 	0x5f74726f
    90ec:	62616e65 	0x62616e65
    90f0:	0200656c 	0x200656c
    90f4:	0143011d 	0x143011d
    90f8:	23020000 	addi	v0,t8,0
    90fc:	6e651209 	0x6e651209
    9100:	79677265 	0x79677265
    9104:	6176615f 	0x6176615f
    9108:	62616c69 	0x62616c69
    910c:	665f656c 	0x665f656c
    9110:	0067616c 	0x67616c
    9114:	a3012002 	sb	at,8194(t8)
    9118:	02000000 	0x2000000
    911c:	70120a23 	0x70120a23
    9120:	656e655f 	0x656e655f
    9124:	5f796772 	0x5f796772
    9128:	756c6176 	jalx	5b185d8 <AP_BANK_SPACE+0x5ad85d8>
    912c:	21020065 	addi	v0,t0,101
    9130:	00124a01 	0x124a01
    9134:	0c230200 	jal	8c0800 <AP_BANK_SPACE+0x880800>
    9138:	655f7012 	0x655f7012
    913c:	6772656e 	0x6772656e
    9140:	61765f79 	0x61765f79
    9144:	5f65756c 	0x5f65756c
    9148:	646e6162 	0x646e6162
    914c:	24020073 	li	v0,115
    9150:	00124a01 	0x124a01
    9154:	10230200 	beq	at,v1,9958 <SRAM_BANK_B_ADDR+0x558>
    9158:	655f7012 	0x655f7012
    915c:	6772656e 	0x6772656e
    9160:	61765f79 	0x61765f79
    9164:	5f65756c 	0x5f65756c
    9168:	71657266 	0x71657266
    916c:	25020073 	addiu	v0,t0,115
    9170:	00124a01 	0x124a01
    9174:	14230200 	bne	at,v1,9978 <SRAM_BANK_B_ADDR+0x578>
    9178:	75747312 	jalx	5d1cc48 <AP_BANK_SPACE+0x5cdcc48>
    917c:	63705f62 	0x63705f62
    9180:	6f6f745f 	0x6f6f745f
    9184:	745f736c 	jalx	17dcdb0 <AP_BANK_SPACE+0x179cdb0>
    9188:	00657079 	0x657079
    918c:	43012802 	c0	0x1012802
    9190:	02000001 	movf	zero,s0,$fcc0
    9194:	9e141823 	0x9e141823
    9198:	02000001 	movf	zero,s0,$fcc0
    919c:	01430129 	0x1430129
    91a0:	23020000 	addi	v0,t8,0
    91a4:	69621519 	0x69621519
    91a8:	756e5f6e 	jalx	5b97db8 <AP_BANK_SPACE+0x5b57db8>
    91ac:	7265626d 	0x7265626d
    91b0:	012b0200 	0x12b0200
    91b4:	00000143 	sra	zero,zero,0x5
    91b8:	02050301 	0x2050301
    91bc:	77151a23 	jalx	c54688c <AP_BANK_SPACE+0xc50688c>
    91c0:	73657661 	0x73657661
    91c4:	6561645f 	0x6561645f
    91c8:	7261705f 	udi15	s3,at,t6,0x1
    91cc:	70755f61 	0x70755f61
    91d0:	65746164 	0x65746164
    91d4:	616c665f 	0x616c665f
    91d8:	2c020067 	sltiu	v0,zero,103
    91dc:	00014301 	0x14301
    91e0:	04010100 	b	95e4 <SRAM_BANK_B_ADDR+0x1e4>
    91e4:	151a2302 	bne	t0,k0,11df0 <SRAM_BT_BACK_RCODE_ADDR+0xdf0>
    91e8:	5f6f7774 	0x5f6f7774
    91ec:	6e6f6870 	0x6e6f6870
    91f0:	6f6d5f65 	0x6f6d5f65
    91f4:	02006564 	0x2006564
    91f8:	0143012d 	0x143012d
    91fc:	01010000 	0x1010000
    9200:	1a230203 	0x1a230203
    9204:	696f7615 	0x696f7615
    9208:	725f6563 	0x725f6563
    920c:	6e6f6365 	0x6e6f6365
    9210:	7a696e67 	0x7a696e67
    9214:	6f6d5f65 	0x6f6d5f65
    9218:	02006564 	0x2006564
    921c:	0143012e 	0x143012e
    9220:	01010000 	0x1010000
    9224:	1a230202 	0x1a230202
    9228:	696f7615 	0x696f7615
    922c:	725f6563 	0x725f6563
    9230:	6e676365 	0x6e676365
    9234:	5f657a69 	0x5f657a69
    9238:	706f7473 	0x706f7473
    923c:	646f6d5f 	0x646f6d5f
    9240:	2f020065 	sltiu	v0,t8,101
    9244:	00014301 	0x14301
    9248:	01010100 	0x1010100
    924c:	151a2302 	bne	t0,k0,11e58 <SRAM_BT_BACK_RCODE_ADDR+0xe58>
    9250:	72616d73 	0x72616d73
    9254:	75625f74 	jalx	5897dd0 <AP_BANK_SPACE+0x5857dd0>
    9258:	72745f66 	0x72745f66
    925c:	5f736e61 	0x5f736e61
    9260:	67616c66 	0x67616c66
    9264:	01310200 	0x1310200
    9268:	00000143 	sra	zero,zero,0x5
    926c:	02000101 	0x2000101
    9270:	06001a23 	bltz	s0,fb00 <SRAM_BTCALL_EXT_RCODE_ADDR>
    9274:	0000d504 	0xd504
    9278:	70610e00 	0x70610e00
    927c:	6e695f70 	0x6e695f70
    9280:	735f6f66 	0x735f6f66
    9284:	65746174 	0x65746174
    9288:	6c6c615f 	0x6c6c615f
    928c:	0200745f 	0x200745f
    9290:	0faa0132 	jal	ea804c8 <AP_BANK_SPACE+0xea404c8>
    9294:	d3110000 	0xd3110000
    9298:	18000014 	blez	zero,92ec <SRAM_BANK_A_ADDR+0x2ec>
    929c:	12016b02 	beq	s0,at,23ea8 <SRAM_BT_HEAD_ADDR+0x1aa8>
    92a0:	6574756d 	0x6574756d
    92a4:	6174735f 	0x6174735f
    92a8:	02006574 	teq	s0,zero,0x195
    92ac:	00a3013a 	0xa3013a
    92b0:	23020000 	addi	v0,t8,0
    92b4:	61701200 	0x61701200
    92b8:	646f6d5f 	0x646f6d5f
    92bc:	3c020065 	lui	v0,0x65
    92c0:	0000a301 	0xa301
    92c4:	01230200 	0x1230200
    92c8:	756f6112 	jalx	5bd8448 <AP_BANK_SPACE+0x5b98448>
    92cc:	6f6d5f74 	0x6f6d5f74
    92d0:	02006564 	0x2006564
    92d4:	0143013e 	0x143013e
    92d8:	23020000 	addi	v0,t8,0
    92dc:	61621202 	0x61621202
    92e0:	696c6b63 	0x696c6b63
    92e4:	5f746867 	0x5f746867
    92e8:	74617473 	jalx	185d1cc <AP_BANK_SPACE+0x181d1cc>
    92ec:	40020065 	0x40020065
    92f0:	00014301 	0x14301
    92f4:	03230200 	0x3230200
    92f8:	72616312 	udi2	s3,at,t4,0xc
    92fc:	74735f64 	jalx	1cd7d90 <AP_BANK_SPACE+0x1c97d90>
    9300:	00657461 	0x657461
    9304:	43014202 	c0	0x1014202
    9308:	02000001 	movf	zero,s0,$fcc0
    930c:	75120423 	jalx	448108c <AP_BANK_SPACE+0x444108c>
    9310:	74736f68 	jalx	1cdbda0 <AP_BANK_SPACE+0x1c9bda0>
    9314:	6174735f 	0x6174735f
    9318:	02006574 	teq	s0,zero,0x195
    931c:	01430144 	0x1430144
    9320:	23020000 	addi	v0,t8,0
    9324:	696c1205 	0x696c1205
    9328:	6e69656e 	0x6e69656e
    932c:	6174735f 	0x6174735f
    9330:	02006574 	teq	s0,zero,0x195
    9334:	01430146 	0x1430146
    9338:	23020000 	addi	v0,t8,0
    933c:	61631206 	0x61631206
    9340:	5f656c62 	0x5f656c62
    9344:	74617473 	jalx	185d1cc <AP_BANK_SPACE+0x181d1cc>
    9348:	48020065 	0x48020065
    934c:	00014301 	0x14301
    9350:	07230200 	bgezl	t9,9b54 <SRAM_BANK_B_ADDR+0x754>
    9354:	5f706812 	0x5f706812
    9358:	74617473 	jalx	185d1cc <AP_BANK_SPACE+0x181d1cc>
    935c:	4a020065 	c2	0x20065
    9360:	0000a301 	0xa301
    9364:	08230200 	j	8c0800 <AP_BANK_SPACE+0x880800>
    9368:	61686312 	0x61686312
    936c:	5f656772 	0x5f656772
    9370:	74617473 	jalx	185d1cc <AP_BANK_SPACE+0x181d1cc>
    9374:	4c020065 	0x4c020065
    9378:	00014301 	0x14301
    937c:	09230200 	j	48c0800 <AP_BANK_SPACE+0x4880800>
    9380:	74616212 	jalx	1858848 <AP_BANK_SPACE+0x1818848>
    9384:	6c61765f 	0x6c61765f
    9388:	02006575 	0x2006575
    938c:	0143014e 	0x143014e
    9390:	23020000 	addi	v0,t8,0
    9394:	6972120a 	0x6972120a
    9398:	615f676e 	0x615f676e
    939c:	6d72616c 	0x6d72616c
    93a0:	01500200 	0x1500200
    93a4:	000000a3 	0xa3
    93a8:	150b2302 	bne	t0,t3,11fb4 <SRAM_BT_BACK_RCODE_ADDR+0xfb4>
    93ac:	62757473 	0x62757473
    93b0:	6f6f745f 	0x6f6f745f
    93b4:	745f736c 	jalx	17dcdb0 <AP_BANK_SPACE+0x179cdb0>
    93b8:	00657079 	0x657079
    93bc:	43015202 	c0	0x1015202
    93c0:	01000001 	movf	zero,t0,$fcc0
    93c4:	23020107 	addi	v0,t8,263
    93c8:	019e160c 	syscall	0x67858
    93cc:	53020000 	beql	t8,v0,93d0 <SRAM_BANK_A_ADDR+0x3d0>
    93d0:	00014301 	0x14301
    93d4:	00010100 	sll	zero,at,0x4
    93d8:	120c2302 	beq	s0,t4,11fe4 <SRAM_BT_BACK_RCODE_ADDR+0xfe4>
    93dc:	6f747561 	0x6f747561
    93e0:	74736574 	jalx	1cd95d0 <AP_BANK_SPACE+0x1c995d0>
    93e4:	646f6d5f 	0x646f6d5f
    93e8:	55020065 	bnel	t0,v0,9580 <SRAM_BANK_B_ADDR+0x180>
    93ec:	00014301 	0x14301
    93f0:	0d230200 	jal	48c0800 <AP_BANK_SPACE+0x4880800>
    93f4:	74617012 	jalx	185c048 <AP_BANK_SPACE+0x181c048>
    93f8:	645f6863 	0x645f6863
    93fc:	6c6e776f 	0x6c6e776f
    9400:	5f64616f 	0x5f64616f
    9404:	67616c66 	0x67616c66
    9408:	01580200 	0x1580200
    940c:	000000a3 	0xa3
    9410:	120e2302 	beq	s0,t6,1201c <SRAM_BT_BACK_RCODE_ADDR+0x101c>
    9414:	705f7462 	0x705f7462
    9418:	7265776f 	0x7265776f
    941c:	006e6f5f 	0x6e6f5f
    9420:	a3015a02 	sb	at,23042(t8)
    9424:	02000000 	0x2000000
    9428:	69120f23 	0x69120f23
    942c:	72656e6e 	0x72656e6e
    9430:	5f61705f 	0x5f61705f
    9434:	74696e69 	jalx	1a5b9a4 <AP_BANK_SPACE+0x1a1b9a4>
    9438:	02006465 	0x2006465
    943c:	00a3015c 	0xa3015c
    9440:	23020000 	addi	v0,t8,0
    9444:	756f1210 	jalx	5bc4840 <AP_BANK_SPACE+0x5b84840>
    9448:	5f726574 	0x5f726574
    944c:	6f5f6170 	0x6f5f6170
    9450:	5e02006e 	0x5e02006e
    9454:	0000a301 	0xa301
    9458:	11230200 	beq	t1,v1,9c5c <SRAM_UI_RCODE_ADDR+0x5c>
    945c:	72756312 	udi2	s3,s5,t4,0xc
    9460:	6e75665f 	0x6e75665f
    9464:	6e695f63 	0x6e695f63
    9468:	00786564 	0x786564
    946c:	43016002 	c0	0x1016002
    9470:	02000001 	movf	zero,s0,$fcc0
    9474:	63121223 	0x63121223
    9478:	665f7275 	0x665f7275
    947c:	5f636e75 	0x5f636e75
    9480:	02006469 	0x2006469
    9484:	01430162 	0x1430162
    9488:	23020000 	addi	v0,t8,0
    948c:	70611213 	udi3	v1,at,v0,0x8
    9490:	74735f6b 	jalx	1cd7dac <AP_BANK_SPACE+0x1c97dac>
    9494:	73757461 	0x73757461
    9498:	01640200 	0x1640200
    949c:	00000143 	sra	zero,zero,0x5
    94a0:	12142302 	beq	s0,s4,120ac <SRAM_BT_BACK_RCODE_ADDR+0x10ac>
    94a4:	69726576 	0x69726576
    94a8:	61636966 	0x61636966
    94ac:	6e6f6974 	0x6e6f6974
    94b0:	6174735f 	0x6174735f
    94b4:	00737574 	teq	v1,s3,0x1d5
    94b8:	43016602 	c0	0x1016602
    94bc:	02000001 	movf	zero,s0,$fcc0
    94c0:	6e121523 	0x6e121523
    94c4:	5f646565 	0x5f646565
    94c8:	61647075 	0x61647075
    94cc:	705f6574 	0x705f6574
    94d0:	6c79616c 	0x6c79616c
    94d4:	00747369 	0x747369
    94d8:	43016802 	c0	0x1016802
    94dc:	02000001 	movf	zero,s0,$fcc0
    94e0:	65121623 	0x65121623
    94e4:	72657478 	0x72657478
    94e8:	61625f6e 	0x61625f6e
    94ec:	6e695f74 	0x6e695f74
    94f0:	016a0200 	0x16a0200
    94f4:	00000143 	sra	zero,zero,0x5
    94f8:	00172302 	srl	a0,s7,0xc
    94fc:	7070610e 	0x7070610e
    9500:	666e695f 	0x666e695f
    9504:	74735f6f 	jalx	1cd7dbc <AP_BANK_SPACE+0x1c97dbc>
    9508:	5f657461 	0x5f657461
    950c:	6b020074 	0x6b020074
    9510:	00126d01 	0x126d01
    9514:	155b1100 	bne	t2,k1,d918 <SROM_FS_ADDR+0x1918>
    9518:	02040000 	0x2040000
    951c:	6c12017a 	0x6c12017a
    9520:	5f747361 	0x5f747361
    9524:	6b736964 	0x6b736964
    9528:	01730200 	0x1730200
    952c:	00000143 	sra	zero,zero,0x5
    9530:	12002302 	beqz	s0,1213c <SRAM_BT_BACK_RCODE_ADDR+0x113c>
    9534:	7473616c 	jalx	1cd85b0 <AP_BANK_SPACE+0x1c985b0>
    9538:	6e75665f 	0x6e75665f
    953c:	6e695f63 	0x6e695f63
    9540:	00786564 	0x786564
    9544:	43017502 	c0	0x1017502
    9548:	02000001 	movf	zero,s0,$fcc0
    954c:	6c120123 	0x6c120123
    9550:	5f747361 	0x5f747361
    9554:	5f737973 	0x5f737973
    9558:	74617473 	jalx	185d1cc <AP_BANK_SPACE+0x181d1cc>
    955c:	02007375 	0x2007375
    9560:	01430177 	0x1430177
    9564:	23020000 	addi	v0,t8,0
    9568:	616c1202 	0x616c1202
    956c:	755f7473 	jalx	57dd1cc <AP_BANK_SPACE+0x579d1cc>
    9570:	74735f69 	jalx	1cd7da4 <AP_BANK_SPACE+0x1c97da4>
    9574:	73757461 	0x73757461
    9578:	01790200 	0x1790200
    957c:	00000143 	sra	zero,zero,0x5
    9580:	00032302 	srl	a0,v1,0xc
    9584:	7070610e 	0x7070610e
    9588:	73616c5f 	udi15	k1,at,t5,0x11
    958c:	74735f74 	jalx	1cd7dd0 <AP_BANK_SPACE+0x1c97dd0>
    9590:	5f657461 	0x5f657461
    9594:	7a020074 	0x7a020074
    9598:	0014ec01 	0x14ec01
    959c:	15aa1700 	bne	t5,t2,f1a0 <SRAM_ASRC_BUF_1_ADDR+0x1a0>
    95a0:	66010000 	0x66010000
    95a4:	6e615f6d 	0x6e615f6d
    95a8:	676f6c61 	0x676f6c61
    95ac:	6165645f 	0x6165645f
    95b0:	0701006c 	bgez	t8,9764 <SRAM_BANK_B_ADDR+0x364>
    95b4:	06680101 	tgei	s3,257
    95b8:	06685860 	tgei	s3,22624
    95bc:	18610160 	0x18610160
    95c0:	61657053 	0x61657053
    95c4:	74754f6b 	jalx	1d53dac <AP_BANK_SPACE+0x1d13dac>
    95c8:	a3060100 	sb	a2,256(t8)
    95cc:	02000000 	0x2000000
    95d0:	19000891 	blez	t0,b818 <SRAM_AP_BANK_FRONT_BASAL_ADDR+0x818>
    95d4:	00001627 	0x1627
    95d8:	5f6d6601 	0x5f6d6601
    95dc:	75646f6d 	jalx	591bdb4 <AP_BANK_SPACE+0x58dbdb4>
    95e0:	6f5f656c 	0x6f5f656c
    95e4:	006e6570 	tge	v1,t6,0x195
    95e8:	0e011801 	jal	8046004 <AP_BANK_SPACE+0x8006004>
    95ec:	6100000d 	0x6100000d
    95f0:	d0600668 	0xd0600668
    95f4:	01600668 	0x1600668
    95f8:	01ac1a61 	0x1ac1a61
    95fc:	17010000 	bne	t8,at,9600 <SRAM_BANK_B_ADDR+0x200>
    9600:	00000e30 	tge	zero,zero,0x38
    9604:	1b189102 	0x1b189102
    9608:	0000018b 	0x18b
    960c:	0e301901 	jal	8c06404 <AP_BANK_SPACE+0x8bc6404>
    9610:	91020000 	lbu	v0,0(t0)
    9614:	01941b00 	0x1941b00
    9618:	1b010000 	0x1b010000
    961c:	00000143 	sra	zero,zero,0x5
    9620:	1c049102 	0x1c049102
    9624:	6576656c 	0x6576656c
    9628:	1b01006c 	0x1b01006c
    962c:	00000143 	sra	zero,zero,0x5
    9630:	1b059102 	0x1b059102
    9634:	00000177 	0x177
    9638:	016c1c01 	0x16c1c01
    963c:	91020000 	lbu	v0,0(t0)
    9640:	65721c08 	0x65721c08
    9644:	1d010074 	0x1d010074
    9648:	00000d0e 	0xd0e
    964c:	000c9102 	srl	s2,t4,0x4
    9650:	00166719 	0x166719
    9654:	6d660100 	0x6d660100
    9658:	6e69415f 	0x6e69415f
    965c:	65706f5f 	0x65706f5f
    9660:	3301006e 	andi	at,t8,0x6e
    9664:	000d0e01 	0xd0e01
    9668:	0668e100 	tgei	s3,-7936
    966c:	06694460 	tgeiu	s3,17504
    9670:	1a610160 	0x1a610160
    9674:	000001ac 	0x1ac
    9678:	0e303201 	jal	8c0c804 <AP_BANK_SPACE+0x8bcc804>
    967c:	91020000 	lbu	v0,0(t0)
    9680:	65721c10 	0x65721c10
    9684:	34010074 	li	at,0x74
    9688:	00000d0e 	0xd0e
    968c:	00009102 	srl	s2,zero,0x4
    9690:	00169f19 	0x169f19
    9694:	6d660100 	0x6d660100
    9698:	646f6d5f 	0x646f6d5f
    969c:	5f656c75 	0x5f656c75
    96a0:	6e617473 	0x6e617473
    96a4:	00796264 	0x796264
    96a8:	0e014a01 	jal	8052804 <AP_BANK_SPACE+0x8012804>
    96ac:	5500000d 	bnezl	t0,96e4 <SRAM_BANK_B_ADDR+0x2e4>
    96b0:	bc600669 	cache	0x0,1641(v1)
    96b4:	01600669 	0x1600669
    96b8:	01771b61 	0x1771b61
    96bc:	4b010000 	c2	0x1010000
    96c0:	0000016c 	0x16c
    96c4:	00009102 	srl	s2,zero,0x4
    96c8:	00171619 	0x171619
    96cc:	6d660100 	0x6d660100
    96d0:	69676e65 	0x69676e65
    96d4:	6d5f656e 	0x6d5f656e
    96d8:	5f657475 	0x5f657475
    96dc:	636e7973 	0x636e7973
    96e0:	01660100 	0x1660100
    96e4:	00000d0e 	0xd0e
    96e8:	600669cd 	0x600669cd
    96ec:	60066a50 	0x60066a50
    96f0:	ac1a6101 	sw	k0,24833(zero)
    96f4:	01000001 	movf	zero,t0,$fcc0
    96f8:	000e3065 	0xe3065
    96fc:	18910200 	0x18910200
    9700:	00018b1b 	0x18b1b
    9704:	30670100 	andi	a3,v1,0x100
    9708:	0200000e 	0x200000e
    970c:	701c0091 	udi1	zero,gp,zero,0x2
    9710:	5f6d7261 	0x5f6d7261
    9714:	00727470 	tge	v1,s2,0x1d1
    9718:	024d6801 	movt	t5,s2,$fcc3
    971c:	91020000 	lbu	v0,0(t0)
    9720:	6f6d1c04 	0x6f6d1c04
    9724:	01006564 	0x1006564
    9728:	0002e76a 	0x2e76a
    972c:	08910200 	j	2440800 <AP_BANK_SPACE+0x2400800>
    9730:	0001771b 	0x1771b
    9734:	6c6b0100 	0x6c6b0100
    9738:	02000001 	movf	zero,s0,$fcc0
    973c:	1d000c91 	bgtz	t0,c984 <SROM_FS_ADDR+0x984>
    9740:	0000174d 	break	0x0,0x5d
    9744:	6e616863 	0x6e616863
    9748:	655f6567 	0x655f6567
    974c:	6e69676e 	0x6e69676e
    9750:	74735f65 	jalx	1cd7d94 <AP_BANK_SPACE+0x1c97d94>
    9754:	00657461 	0x657461
    9758:	0101be02 	0x101be02
    975c:	60066a5d 	0x60066a5d
    9760:	60066a70 	0x60066a70
    9764:	7e1e6101 	0x7e1e6101
    9768:	02000001 	movf	zero,s0,$fcc0
    976c:	0f9401bd 	jal	e5006f4 <AP_BANK_SPACE+0xe4c06f4>
    9770:	91020000 	lbu	v0,0(t0)
    9774:	b4190008 	0xb4190008
    9778:	01000017 	0x1000017
    977c:	6e656d66 	0x6e656d66
    9780:	656e6967 	0x656e6967
    9784:	7465735f 	jalx	195cd7c <AP_BANK_SPACE+0x191cd7c>
    9788:	6e61625f 	0x6e61625f
    978c:	79735f64 	0x79735f64
    9790:	0100636e 	0x100636e
    9794:	0d0e018b 	jal	438062c <AP_BANK_SPACE+0x434062c>
    9798:	6a750000 	0x6a750000
    979c:	6ac46006 	0x6ac46006
    97a0:	61016006 	0x61016006
    97a4:	0001ac1a 	0x1ac1a
    97a8:	308a0100 	andi	t2,a0,0x100
    97ac:	0200000e 	0x200000e
    97b0:	8b1b1891 	lwl	k1,6289(t8)
    97b4:	01000001 	movf	zero,t0,$fcc0
    97b8:	000e308c 	syscall	0x38c2
    97bc:	00910200 	0x910200
    97c0:	0001771b 	0x1771b
    97c4:	6c8d0100 	0x6c8d0100
    97c8:	02000001 	movf	zero,s0,$fcc0
    97cc:	941b0491 	lhu	k1,1169(zero)
    97d0:	01000001 	movf	zero,t0,$fcc0
    97d4:	0002b28e 	0x2b28e
    97d8:	08910200 	j	2440800 <AP_BANK_SPACE+0x2400800>
    97dc:	18191900 	0x18191900
    97e0:	66010000 	0x66010000
    97e4:	676e656d 	0x676e656d
    97e8:	5f656e69 	0x5f656e69
    97ec:	5f746573 	0x5f746573
    97f0:	6f726874 	0x6f726874
    97f4:	a1010064 	sb	at,100(t0)
    97f8:	000d0e01 	0xd0e01
    97fc:	066acd00 	tlti	s3,-13056
    9800:	066b2460 	tltiu	s3,9312
    9804:	1a610160 	0x1a610160
    9808:	000001ac 	0x1ac
    980c:	0e30a001 	jal	8c28004 <AP_BANK_SPACE+0x8be8004>
    9810:	91020000 	lbu	v0,0(t0)
    9814:	018b1b18 	0x18b1b18
    9818:	a2010000 	sb	at,0(s0)
    981c:	00000e30 	tge	zero,zero,0x38
    9820:	1c009102 	bgtz	zero,fffedc2c <get_app_msg+0x403c76fc>
    9824:	6576656c 	0x6576656c
    9828:	a301006c 	sb	at,108(t8)
    982c:	00000143 	sra	zero,zero,0x5
    9830:	1b049102 	0x1b049102
    9834:	00000177 	0x177
    9838:	016ca401 	0x16ca401
    983c:	91020000 	lbu	v0,0(t0)
    9840:	52190008 	beql	s0,t9,9864 <SRAM_BANK_B_ADDR+0x464>
    9844:	01000018 	mult	t0,zero
    9848:	6e656d66 	0x6e656d66
    984c:	656e6967 	0x656e6967
    9850:	7374745f 	udi15	k1,s4,t6,0x11
    9854:	6174735f 	0x6174735f
    9858:	01007472 	tlt	t0,zero,0x1d1
    985c:	0d0e01b8 	jal	43806e0 <AP_BANK_SPACE+0x43406e0>
    9860:	6b310000 	0x6b310000
    9864:	6b846006 	0x6b846006
    9868:	61016006 	0x61016006
    986c:	0001ac1a 	0x1ac1a
    9870:	30b70100 	andi	s7,a1,0x100
    9874:	0200000e 	0x200000e
    9878:	19000891 	blez	t0,bac0 <SRAM_AP_BANK_FRONT_BASAL_ADDR+0xac0>
    987c:	0000188a 	0x188a
    9880:	656d6601 	0x656d6601
    9884:	6e69676e 	0x6e69676e
    9888:	74745f65 	jalx	1d17d94 <AP_BANK_SPACE+0x1cd7d94>
    988c:	74735f73 	jalx	1cd7dcc <AP_BANK_SPACE+0x1c97dcc>
    9890:	0100706f 	0x100706f
    9894:	0d0e01cb 	jal	438072c <AP_BANK_SPACE+0x434072c>
    9898:	6b990000 	0x6b990000
    989c:	6bf06006 	0x6bf06006
    98a0:	61016006 	0x61016006
    98a4:	0001ac1a 	0x1ac1a
    98a8:	30ca0100 	andi	t2,a2,0x100
    98ac:	0200000e 	0x200000e
    98b0:	19000891 	blez	t0,baf8 <SRAM_AP_BANK_FRONT_BASAL_ADDR+0xaf8>
    98b4:	000018bf 	0x18bf
    98b8:	656d6601 	0x656d6601
    98bc:	6e69676e 	0x6e69676e
    98c0:	65645f65 	0x65645f65
    98c4:	00677562 	0x677562
    98c8:	0e01dd01 	jal	8077404 <AP_BANK_SPACE+0x8037404>
    98cc:	0100000d 	break	0x100
    98d0:	3460066c 	ori	zero,v1,0x66c
    98d4:	0160066c 	0x160066c
    98d8:	01ac1a61 	0x1ac1a61
    98dc:	dc010000 	ldc3	$1,0(zero)
    98e0:	00000e30 	tge	zero,zero,0x38
    98e4:	00109102 	srl	s2,s0,0x4
    98e8:	00190c19 	0x190c19
    98ec:	6d660100 	0x6d660100
    98f0:	69676e65 	0x69676e65
    98f4:	735f656e 	0x735f656e
    98f8:	646e6174 	0x646e6174
    98fc:	01007962 	0x1007962
    9900:	0d0e01e6 	jal	4380798 <AP_BANK_SPACE+0x4340798>
    9904:	6c3d0000 	0x6c3d0000
    9908:	6d286006 	0x6d286006
    990c:	61016006 	0x61016006
    9910:	0001ac1a 	0x1ac1a
    9914:	30e50100 	andi	a1,a3,0x100
    9918:	0200000e 	0x200000e
    991c:	731c1091 	udi1	t8,gp,v0,0x2
    9920:	646e6174 	0x646e6174
    9924:	735f7962 	0x735f7962
    9928:	01006d65 	0x1006d65
    992c:	000247e7 	0x247e7
    9930:	00910200 	0x910200
    9934:	5f671f00 	0x5f671f00
    9938:	5f707061 	0x5f707061
    993c:	656d6974 	0x656d6974
    9940:	65765f72 	0x65765f72
    9944:	726f7463 	0x726f7463
    9948:	28780900 	slti	t8,v1,2304
    994c:	01000019 	multu	t0,zero
    9950:	38040601 	xori	a0,zero,0x601
    9954:	1f00000f 	bgtz	t8,9994 <SRAM_BANK_B_ADDR+0x594>
    9958:	70615f67 	0x70615f67
    995c:	69745f70 	0x69745f70
    9960:	5f72656d 	0x5f72656d
    9964:	6e756f63 	0x6e756f63
    9968:	7e090074 	0x7e090074
    996c:	00000143 	sra	zero,zero,0x5
    9970:	671f0101 	0x671f0101
    9974:	6968745f 	0x6968745f
    9978:	70615f73 	0x70615f73
    997c:	69745f70 	0x69745f70
    9980:	5f72656d 	0x5f72656d
    9984:	00676174 	teq	v1,a3,0x185
    9988:	01438509 	0x1438509
    998c:	01010000 	0x1010000
    9990:	615f6720 	0x615f6720
    9994:	695f7070 	0x695f7070
    9998:	5f6f666e 	0x5f6f666e
    999c:	74617473 	jalx	185d1cc <AP_BANK_SPACE+0x181d1cc>
    99a0:	6c615f65 	0x6c615f65
    99a4:	8e02006c 	lw	v0,108(s0)
    99a8:	00125001 	0x125001
    99ac:	20010100 	addi	at,zero,256
    99b0:	70615f67 	0x70615f67
    99b4:	616c5f70 	0x616c5f70
    99b8:	735f7473 	0x735f7473
    99bc:	65746174 	0x65746174
    99c0:	01940200 	0x1940200
    99c4:	0000155b 	0x155b
    99c8:	67200101 	0x67200101
    99cc:	7070615f 	udi15	v1,s0,t4,0x5
    99d0:	666e695f 	0x666e695f
    99d4:	74735f6f 	jalx	1cd7dbc <AP_BANK_SPACE+0x1c97dbc>
    99d8:	00657461 	0x657461
    99dc:	d3019a02 	0xd3019a02
    99e0:	01000014 	0x1000014
    99e4:	5f671f01 	0x5f671f01
    99e8:	6e656d66 	0x6e656d66
    99ec:	656e6967 	0x656e6967
    99f0:	6174735f 	0x6174735f
    99f4:	00737574 	teq	v1,s3,0x1d5
    99f8:	04ed150a 	0x4ed150a
    99fc:	01010000 	0x1010000
    9a00:	665f671f 	0x665f671f
    9a04:	676e656d 	0x676e656d
    9a08:	5f656e69 	0x5f656e69
    9a0c:	00676663 	0x676663
    9a10:	0546160a 	0x546160a
    9a14:	01010000 	0x1010000
    9a18:	6d5f671f 	0x6d5f671f
    9a1c:	6c75646f 	0x6c75646f
    9a20:	74735f65 	jalx	1cd7d94 <AP_BANK_SPACE+0x1c97d94>
    9a24:	73757461 	0x73757461
    9a28:	95170a00 	lhu	s7,2560(t0)
    9a2c:	01000005 	0x1000005
    9a30:	5f671f01 	0x5f671f01
    9a34:	706f7473 	0x706f7473
    9a38:	5f79625f 	0x5f79625f
    9a3c:	5f737474 	0x5f737474
    9a40:	67616c66 	0x67616c66
    9a44:	a3190a00 	sb	t9,2560(t8)
    9a48:	01000000 	0x1000000
    9a4c:	5f671f01 	0x5f671f01
    9a50:	635f6d66 	0x635f6d66
    9a54:	656e6168 	0x656e6168
    9a58:	1f0a006c 	0x1f0a006c
    9a5c:	00000143 	sra	zero,zero,0x5
    9a60:	3e000101 	0x3e000101
    9a64:	02000016 	0x2000016
    9a68:	0009c900 	sll	t9,t1,0x4
    9a6c:	70010400 	0x70010400
    9a70:	88000008 	lwl	zero,8(zero)
    9a74:	00600a6a 	0x600a6a
    9a78:	47600a68 	c1	0x1600a68
    9a7c:	4320554e 	c0	0x120554e
    9a80:	342e3320 	ori	t6,at,0x3320
    9a84:	6d20342e 	0x6d20342e
    9a88:	73737069 	0x73737069
    9a8c:	362d6564 	ori	t5,s1,0x6564
    9a90:	2e36302e 	sltiu	s6,s1,12334
    9a94:	322d3130 	andi	t5,s1,0x3130
    9a98:	30373030 	andi	s7,at,0x3030
    9a9c:	00303234 	teq	at,s0,0xc8
    9aa0:	656d6601 	0x656d6601
    9aa4:	6e69676e 	0x6e69676e
    9aa8:	656d5f65 	0x656d5f65
    9aac:	67617373 	0x67617373
    9ab0:	65675f65 	0x65675f65
    9ab4:	65645f74 	0x65645f74
    9ab8:	632e6c61 	0x632e6c61
    9abc:	79632f00 	0x79632f00
    9ac0:	69726467 	0x69726467
    9ac4:	662f6576 	0x662f6576
    9ac8:	666f532f 	0x666f532f
    9acc:	64735f74 	0x64735f74
    9ad0:	54412f6b 	bnel	v0,at,15880 <SRAM_BT_EXT5_BANK_ADDR+0x1280>
    9ad4:	32383253 	andi	t8,s1,0x3253
    9ad8:	44535f35 	0x44535f35
    9adc:	34565f4b 	ori	s6,v0,0x5f4b
    9ae0:	632f322e 	0x632f322e
    9ae4:	2f657361 	sltiu	a1,k1,29537
    9ae8:	662f7061 	0x662f7061
    9aec:	6e655f6d 	0x6e655f6d
    9af0:	656e6967 	0x656e6967
    9af4:	6e750200 	0x6e750200
    9af8:	6e676973 	0x6e676973
    9afc:	63206465 	0x63206465
    9b00:	00726168 	0x726168
    9b04:	49030801 	bc2tl	bb0c <SRAM_AP_BANK_FRONT_BASAL_ADDR+0xb0c>
    9b08:	5538544e 	bnel	t1,t8,1ec44 <SRAM_AP_FRONT_RCODE_ADDR+0x344>
    9b0c:	920f0a00 	lbu	t7,2560(s0)
    9b10:	02000000 	0x2000000
    9b14:	6e676973 	0x6e676973
    9b18:	63206465 	0x63206465
    9b1c:	00726168 	0x726168
    9b20:	73020601 	0x73020601
    9b24:	74726f68 	jalx	1c9bda0 <AP_BANK_SPACE+0x1c5bda0>
    9b28:	736e7520 	0x736e7520
    9b2c:	656e6769 	0x656e6769
    9b30:	6e692064 	0x6e692064
    9b34:	07020074 	bltzl	t8,9d08 <SRAM_UI_RCODE_ADDR+0x108>
    9b38:	6f687302 	0x6f687302
    9b3c:	69207472 	0x69207472
    9b40:	0200746e 	0x200746e
    9b44:	01b40405 	0x1b40405
    9b48:	07040000 	0x7040000
    9b4c:	6e6f6c02 	0x6e6f6c02
    9b50:	6e692067 	0x6e692067
    9b54:	05040074 	0x5040074
    9b58:	6f6c6602 	0x6f6c6602
    9b5c:	04007461 	bltz	zero,26ce4 <OFFSET+0x4e4>
    9b60:	6f640204 	0x6f640204
    9b64:	656c6275 	0x656c6275
    9b68:	02040800 	0x2040800
    9b6c:	676e6f6c 	0x676e6f6c
    9b70:	6e6f6c20 	0x6e6f6c20
    9b74:	6e752067 	0x6e752067
    9b78:	6e676973 	0x6e676973
    9b7c:	69206465 	0x69206465
    9b80:	0800746e 	j	1d1b8 <SRAM_OS_TASK_STACK_ADDR+0x1bb8>
    9b84:	6f6c0207 	0x6f6c0207
    9b88:	6c20676e 	0x6c20676e
    9b8c:	20676e6f 	addi	a3,v1,28271
    9b90:	00746e69 	0x746e69
    9b94:	75020508 	jalx	4081420 <AP_BANK_SPACE+0x4041420>
    9b98:	6769736e 	0x6769736e
    9b9c:	2064656e 	addi	a0,v1,25966
    9ba0:	00746e69 	0x746e69
    9ba4:	75030704 	jalx	40c1c10 <AP_BANK_SPACE+0x4081c10>
    9ba8:	38746e69 	xori	s4,v1,0x6e69
    9bac:	92150400 	lbu	s5,1024(s0)
    9bb0:	03000000 	0x3000000
    9bb4:	746e6975 	jalx	1b9a5d4 <AP_BANK_SPACE+0x1b5a5d4>
    9bb8:	04003233 	bltz	zero,16488 <SRAM_BT_UART_BUF_ADDR+0x88>
    9bbc:	00013325 	0x13325
    9bc0:	6e690200 	0x6e690200
    9bc4:	05040074 	0x5040074
    9bc8:	61686302 	0x61686302
    9bcc:	06010072 	bgez	s0,9d98 <SRAM_UI_RCODE_ADDR+0x198>
    9bd0:	4e495503 	c3	0x495503
    9bd4:	00363154 	0x363154
    9bd8:	00bf6804 	sllv	t5,ra,a1
    9bdc:	55030000 	bnel	t0,v1,9be0 <SRAM_BANK_B_ADDR+0x7e0>
    9be0:	33544e49 	andi	s4,k0,0x4e49
    9be4:	70040032 	0x70040032
    9be8:	00000133 	tltu	zero,zero,0x4
    9bec:	0001b404 	0x1b404
    9bf0:	05070400 	0x5070400
    9bf4:	01a20604 	0x1a20604
    9bf8:	00920000 	0x920000
    9bfc:	89070000 	lwl	a3,0(t0)
    9c00:	01000001 	movf	zero,t0,$fcc0
    9c04:	021f0800 	0x21f0800
    9c08:	050c0000 	teqi	t0,0
    9c0c:	736f09e3 	0x736f09e3
    9c10:	6576655f 	0x6576655f
    9c14:	745f746e 	jalx	17dd1b8 <AP_BANK_SPACE+0x179d1b8>
    9c18:	00657079 	0x657079
    9c1c:	0092db05 	0x92db05
    9c20:	23020000 	addi	v0,t8,0
    9c24:	736f0900 	0x736f0900
    9c28:	6576655f 	0x6576655f
    9c2c:	675f746e 	0x675f746e
    9c30:	05007072 	bltz	t0,25dfc <SRAM_AP_BANK_FRONT_UI_ADDR+0x5fc>
    9c34:	000092dc 	0x92dc
    9c38:	01230200 	0x1230200
    9c3c:	5f736f09 	0x5f736f09
    9c40:	6e657665 	0x6e657665
    9c44:	6e635f74 	0x6e635f74
    9c48:	dd050074 	ldc3	$5,116(t0)
    9c4c:	000000bf 	0xbf
    9c50:	09022302 	j	4088c08 <AP_BANK_SPACE+0x4048c08>
    9c54:	655f736f 	0x655f736f
    9c58:	746e6576 	jalx	1b995d8 <AP_BANK_SPACE+0x1b595d8>
    9c5c:	7274705f 	udi15	s3,s4,t6,0x1
    9c60:	90de0500 	lbu	s8,1280(a2)
    9c64:	02000001 	movf	zero,s0,$fcc0
    9c68:	6f090423 	0x6f090423
    9c6c:	76655f73 	jalx	9957dcc <AP_BANK_SPACE+0x9917dcc>
    9c70:	5f746e65 	0x5f746e65
    9c74:	006c6274 	teq	v1,t4,0x189
    9c78:	0192df05 	0x192df05
    9c7c:	23020000 	addi	v0,t8,0
    9c80:	6f030008 	0x6f030008
    9c84:	76655f73 	jalx	9957dcc <AP_BANK_SPACE+0x9917dcc>
    9c88:	5f746e65 	0x5f746e65
    9c8c:	e3050074 	sc	a1,116(t8)
    9c90:	000001a2 	0x1a2
    9c94:	021f040a 	0x21f040a
    9c98:	47060000 	c1	0x1060000
    9c9c:	43000002 	c0	0x1000002
    9ca0:	07000001 	bltz	t8,9ca8 <SRAM_UI_RCODE_ADDR+0xa8>
    9ca4:	00000189 	0x189
    9ca8:	57060003 	bnel	t8,a2,9cb8 <SRAM_UI_RCODE_ADDR+0xb8>
    9cac:	43000002 	c0	0x1000002
    9cb0:	07000001 	bltz	t8,9cb8 <SRAM_UI_RCODE_ADDR+0xb8>
    9cb4:	00000189 	0x189
    9cb8:	960b0002 	lhu	t3,2(s0)
    9cbc:	01000002 	0x1000002
    9cc0:	420c1707 	c0	0xc1707
    9cc4:	5f646e61 	0x5f646e61
    9cc8:	6e696843 	0x6e696843
    9ccc:	53555f61 	beql	k0,s5,21a54 <SRAM_AP_BACK_BASAL_RCODE_ADDR+0x254>
    9cd0:	420c0000 	c0	0xc0000
    9cd4:	5f646e61 	0x5f646e61
    9cd8:	6170614a 	0x6170614a
    9cdc:	0c01006e 	jal	401b8 <AP_BANK_SPACE+0x1b8>
    9ce0:	646e6142 	0x646e6142
    9ce4:	7275455f 	udi15	s3,s5,t0,0x15
    9ce8:	0065706f 	0x65706f
    9cec:	61420c02 	0x61420c02
    9cf0:	4d5f646e 	0x4d5f646e
    9cf4:	03005841 	0x3005841
    9cf8:	61720300 	0x61720300
    9cfc:	5f6f6964 	0x5f6f6964
    9d00:	646e6162 	0x646e6162
    9d04:	0700655f 	bltz	t8,23284 <SRAM_BT_HEAD_ADDR+0xe84>
    9d08:	0002571c 	0x2571c
    9d0c:	02e80b00 	0x2e80b00
    9d10:	06010000 	bgez	s0,9d14 <SRAM_UI_RCODE_ADDR+0x114>
    9d14:	54530c11 	bnel	v0,s3,cd5c <SROM_FS_ADDR+0xd5c>
    9d18:	53555441 	beql	k0,s5,1ee20 <SRAM_AP_FRONT_RCODE_ADDR+0x520>
    9d1c:	414c505f 	0x414c505f
    9d20:	0c000059 	jal	164 <SRAM_BTMANAGER_DATA_SIZE+0x24>
    9d24:	54415453 	bnel	v0,at,1ee74 <SRAM_AP_FRONT_RCODE_ADDR+0x574>
    9d28:	505f5355 	beql	v0,ra,1ea80 <SRAM_AP_FRONT_RCODE_ADDR+0x180>
    9d2c:	45535541 	0x45535541
    9d30:	530c0100 	beql	t8,t4,a134 <SRAM_BT_LIB1_BANK_ADDR+0x134>
    9d34:	55544154 	bnel	t2,s4,1a288 <SRAM_APPLIB_DATA_ADDR+0x1c8>
    9d38:	4d465f53 	0x4d465f53
    9d3c:	49474e45 	0x49474e45
    9d40:	455f454e 	0x455f454e
    9d44:	524f5252 	beql	s2,t7,1e690 <SRAM_BT_HCI_BUF_ADDR+0xd90>
    9d48:	03000200 	0x3000200
    9d4c:	505f4d46 	beql	v0,ra,1d268 <SRAM_OS_TASK_STACK_ADDR+0x1c68>
    9d50:	7379616c 	0x7379616c
    9d54:	75746174 	jalx	5d185d0 <AP_BANK_SPACE+0x5cd85d0>
    9d58:	00655f73 	tltu	v1,a1,0x17d
    9d5c:	02aa1506 	0x2aa1506
    9d60:	1a0b0000 	0x1a0b0000
    9d64:	01000003 	0x1000003
    9d68:	460c1706 	c1	0xc1706
    9d6c:	4f4d5f4d 	c3	0x14d5f4d
    9d70:	00004f4e 	0x4f4e
    9d74:	4554530c 	0x4554530c
    9d78:	01004552 	0x1004552
    9d7c:	4d460300 	0x4d460300
    9d80:	6475415f 	0x6475415f
    9d84:	655f6f69 	0x655f6f69
    9d88:	ff1a0600 	sdc3	$26,1536(t8)
    9d8c:	0b000002 	j	c000008 <AP_BANK_SPACE+0xbfc0008>
    9d90:	0000039e 	0x39e
    9d94:	0c1d0601 	jal	741804 <AP_BANK_SPACE+0x701804>
    9d98:	44524148 	0x44524148
    9d9c:	4b454553 	c2	0x1454553
    9da0:	544f4e5f 	bnel	v0,t7,1d720 <SRAM_BANK_C_ADDR+0x220>
    9da4:	4154535f 	0x4154535f
    9da8:	00005452 	0x5452
    9dac:	5241480c 	beql	s2,at,1bde0 <SRAM_OS_TASK_STACK_ADDR+0x7e0>
    9db0:	45455344 	0x45455344
    9db4:	4f445f4b 	c3	0x1445f4b
    9db8:	00474e49 	0x474e49
    9dbc:	41480c01 	0x41480c01
    9dc0:	45534452 	0x45534452
    9dc4:	435f4b45 	c0	0x15f4b45
    9dc8:	4c504d4f 	0x4c504d4f
    9dcc:	00455445 	0x455445
    9dd0:	41480c02 	0x41480c02
    9dd4:	45534452 	0x45534452
    9dd8:	435f4b45 	c0	0x15f4b45
    9ddc:	4c504d4f 	0x4c504d4f
    9de0:	5f455445 	0x5f455445
    9de4:	5f544f4e 	0x5f544f4e
    9de8:	494c4156 	0x494c4156
    9dec:	0c030044 	jal	c0110 <AP_BANK_SPACE+0x80110>
    9df0:	44524148 	0x44524148
    9df4:	4b454553 	c2	0x1454553
    9df8:	4c41465f 	0x4c41465f
    9dfc:	04004553 	bltz	zero,1b34c <SRAM_AP_MANAGER_RCODE_ADDR+0x4c>
    9e00:	61680300 	0x61680300
    9e04:	65736472 	0x65736472
    9e08:	735f6b65 	0x735f6b65
    9e0c:	75746174 	jalx	5d185d0 <AP_BANK_SPACE+0x5cd85d0>
    9e10:	00655f73 	tltu	v1,a1,0x17d
    9e14:	032c2306 	0x32c2306
    9e18:	4a080000 	c2	0x80000
    9e1c:	0c000004 	jal	10 <SRAM_CARD_GLOBAL_DATA_SIZE>
    9e20:	46092c06 	c1	0x92c06
    9e24:	75435f4d 	jalx	50d7d34 <AP_BANK_SPACE+0x5097d34>
    9e28:	6e657272 	0x6e657272
    9e2c:	65724674 	0x65724674
    9e30:	26060071 	addiu	a2,s0,113
    9e34:	0000017b 	0x17b
    9e38:	09002302 	j	4008c08 <AP_BANK_SPACE+0x3fc8c08>
    9e3c:	535f4d46 	beql	k0,ra,1d358 <SRAM_OS_TASK_STACK_ADDR+0x1d58>
    9e40:	616e6769 	0x616e6769
    9e44:	6774536c 	0x6774536c
    9e48:	6d270600 	0x6d270600
    9e4c:	02000001 	movf	zero,s0,$fcc0
    9e50:	46090423 	c1	0x90423
    9e54:	74535f4d 	jalx	14d7d34 <AP_BANK_SPACE+0x1497d34>
    9e58:	6f657265 	0x6f657265
    9e5c:	6174535f 	0x6174535f
    9e60:	00737574 	teq	v1,s3,0x1d5
    9e64:	031a2806 	srlv	a1,k0,t8
    9e68:	23020000 	addi	v0,t8,0
    9e6c:	4d460906 	0x4d460906
    9e70:	7275435f 	udi15	s3,s5,t0,0xd
    9e74:	646e6142 	0x646e6142
    9e78:	96290600 	lhu	t1,1536(s1)
    9e7c:	02000002 	0x2000002
    9e80:	46090723 	c1	0x90723
    9e84:	6f565f4d 	0x6f565f4d
    9e88:	6174536c 	0x6174536c
    9e8c:	00737574 	teq	v1,s3,0x1d5
    9e90:	02e82a06 	0x2e82a06
    9e94:	23020000 	addi	v0,t8,0
    9e98:	54530908 	bnel	v0,s3,c2bc <SROM_FS_ADDR+0x2bc>
    9e9c:	6c665f43 	0x6c665f43
    9ea0:	06006761 	bltz	s0,23c28 <SRAM_BT_HEAD_ADDR+0x1828>
    9ea4:	00039e2b 	0x39e2b
    9ea8:	09230200 	j	48c0800 <AP_BANK_SPACE+0x4880800>
    9eac:	6e450300 	0x6e450300
    9eb0:	656e6967 	0x656e6967
    9eb4:	6174535f 	0x6174535f
    9eb8:	5f737574 	0x5f737574
    9ebc:	2c060074 	sltiu	a2,zero,116
    9ec0:	000003b7 	0x3b7
    9ec4:	00049a0b 	0x49a0b
    9ec8:	3c060100 	lui	a2,0x100
    9ecc:	444f4d0c 	0x444f4d0c
    9ed0:	5f454c55 	0x5f454c55
    9ed4:	495f4f4e 	0x495f4f4e
    9ed8:	0054494e 	0x54494e
    9edc:	4f4d0c00 	c3	0x14d0c00
    9ee0:	454c5544 	0x454c5544
    9ee4:	524f575f 	beql	s2,t7,1fc64 <SRAM_KEY_MESSAGE_RCODE_ADDR+0x464>
    9ee8:	0c01004b 	jal	4012c <AP_BANK_SPACE+0x12c>
    9eec:	55444f4d 	bnel	t2,a0,1dc24 <SRAM_BT_HCI_BUF_ADDR+0x324>
    9ef0:	535f454c 	beql	k0,ra,1b424 <SRAM_OS_SD_SWAP_BUF_ADDR+0x24>
    9ef4:	444e4154 	0x444e4154
    9ef8:	02005942 	0x2005942
    9efc:	6f4d0300 	0x6f4d0300
    9f00:	656c7564 	0x656c7564
    9f04:	6174535f 	0x6174535f
    9f08:	5f737574 	0x5f737574
    9f0c:	40060065 	0x40060065
    9f10:	00000461 	0x461
    9f14:	000c130b 	0xc130b
    9f18:	e3020200 	sc	v0,512(t8)
    9f1c:	5345520c 	beql	k0,a1,1e750 <SRAM_BT_HCI_BUF_ADDR+0xe50>
    9f20:	5f544c55 	0x5f544c55
    9f24:	4c4c554e 	0x4c4c554e
    9f28:	520c0000 	beql	s0,t4,9f2c <SRAM_AUDIO_GLOBAL_DATA_ADDR+0x2c>
    9f2c:	4c555345 	0x4c555345
    9f30:	47495f54 	c1	0x1495f54
    9f34:	45524f4e 	0x45524f4e
    9f38:	520c0100 	beql	s0,t4,a33c <SRAM_BT_LIB1_BANK_ADDR+0x33c>
    9f3c:	4c555345 	0x4c555345
    9f40:	4f4e5f54 	c3	0x14e5f54
    9f44:	455f454e 	0x455f454e
    9f48:	544e4556 	bnel	v0,t6,1b4a4 <SRAM_OS_SD_SWAP_BUF_ADDR+0xa4>
    9f4c:	520c0200 	beql	s0,t4,a750 <SRAM_BT_LIB1_BANK_ADDR+0x750>
    9f50:	4c555345 	0x4c555345
    9f54:	43525f54 	c0	0x1525f54
    9f58:	434c5f50 	c0	0x14c5f50
    9f5c:	4941575f 	0x4941575f
    9f60:	0c030054 	jal	c0150 <AP_BANK_SPACE+0x80150>
    9f64:	55534552 	bnel	t2,s3,1b4b0 <SRAM_OS_SD_SWAP_BUF_ADDR+0xb0>
    9f68:	435f544c 	c0	0x15f544c
    9f6c:	4f4d4d4f 	c3	0x14d4d4f
    9f70:	45525f4e 	0x45525f4e
    9f74:	56524553 	bnel	s2,s2,1b4c4 <SRAM_OS_SD_SWAP_BUF_ADDR+0xc4>
    9f78:	0c200045 	jal	800114 <AP_BANK_SPACE+0x7c0114>
    9f7c:	55534552 	bnel	t2,s3,1b4c8 <SRAM_OS_SD_SWAP_BUF_ADDR+0xc8>
    9f80:	455f544c 	0x455f544c
    9f84:	524f5252 	beql	s2,t7,1e8d0 <SRAM_BT_HCI_BUF_ADDR+0xfd0>
    9f88:	0c018000 	jal	60000 <AP_BANK_SPACE+0x20000>
    9f8c:	55534552 	bnel	t2,s3,1b4d8 <SRAM_OS_SD_SWAP_BUF_ADDR+0xd8>
    9f90:	425f544c 	c0	0x5f544c
    9f94:	5f4b4341 	0x5f4b4341
    9f98:	4e454353 	c3	0x454353
    9f9c:	49445f45 	0x49445f45
    9fa0:	54415053 	bnel	v0,at,1e0f0 <SRAM_BT_HCI_BUF_ADDR+0x7f0>
    9fa4:	81004843 	lb	zero,18499(t0)
    9fa8:	45520c01 	0x45520c01
    9fac:	544c5553 	bnel	v0,t4,1f4fc <SRAM_BT_RCODE_DATA_ADDR+0x3fc>
    9fb0:	4543535f 	0x4543535f
    9fb4:	455f454e 	0x455f454e
    9fb8:	00544958 	0x544958
    9fbc:	520c0182 	beql	s0,t4,a5c8 <SRAM_BT_LIB1_BANK_ADDR+0x5c8>
    9fc0:	4c555345 	0x4c555345
    9fc4:	454b5f54 	0x454b5f54
    9fc8:	56455f59 	bnel	s2,a1,21d30 <SRAM_AP_BACK_BASAL_RCODE_ADDR+0x530>
    9fcc:	5f544e45 	0x5f544e45
    9fd0:	45444552 	0x45444552
    9fd4:	425f4c41 	c0	0x5f4c41
    9fd8:	4f435f59 	c3	0x1435f59
    9fdc:	4e4f4d4d 	c3	0x4f4d4d
    9fe0:	0c018300 	jal	60c00 <AP_BANK_SPACE+0x20c00>
    9fe4:	55534552 	bnel	t2,s3,1b530 <SRAM_OS_SD_SWAP_BUF_ADDR+0x130>
    9fe8:	535f544c 	beql	k0,ra,1f11c <SRAM_BT_RCODE_DATA_ADDR+0x1c>
    9fec:	4d5f5359 	0x4d5f5359
    9ff0:	525f4753 	beql	s2,ra,1bd40 <SRAM_OS_TASK_STACK_ADDR+0x740>
    9ff4:	41454445 	0x41454445
    9ff8:	59425f4c 	0x59425f4c
    9ffc:	4d4f435f 	0x4d4f435f
    a000:	004e4f4d 	break	0x4e,0x13d
    a004:	520c0184 	beql	s0,t4,a618 <SRAM_BT_LIB1_BANK_ADDR+0x618>
    a008:	4c555345 	0x4c555345
    a00c:	4f465f54 	c3	0x1465f54
    a010:	5f454352 	0x5f454352
    a014:	5f535454 	0x5f535454
    a018:	504f5453 	beql	v0,t7,1f168 <SRAM_BT_RCODE_DATA_ADDR+0x68>
    a01c:	0c018500 	jal	61400 <AP_BANK_SPACE+0x21400>
    a020:	55534552 	bnel	t2,s3,1b56c <SRAM_OS_SD_SWAP_BUF_ADDR+0x16c>
    a024:	455f544c 	0x455f544c
    a028:	5245544e 	beql	s2,a1,1f164 <SRAM_BT_RCODE_DATA_ADDR+0x64>
    a02c:	41544f5f 	0x41544f5f
    a030:	4750555f 	c1	0x150555f
    a034:	45444152 	0x45444152
    a038:	0c01a100 	jal	68400 <AP_BANK_SPACE+0x28400>
    a03c:	55534552 	bnel	t2,s3,1b588 <SRAM_OS_SD_SWAP_BUF_ADDR+0x188>
    a040:	545f544c 	bnel	v0,ra,1f174 <SRAM_BT_RCODE_DATA_ADDR+0x74>
    a044:	41545345 	0x41545345
    a048:	55515f50 	bnel	t2,s1,21d8c <SRAM_AP_BACK_BASAL_RCODE_ADDR+0x58c>
    a04c:	ff005449 	sdc3	$0,21577(t8)
    a050:	45520c01 	0x45520c01
    a054:	544c5553 	bnel	v0,t4,1f5a4 <SRAM_BT_RCODE_DATA_ADDR+0x4a4>
    a058:	5050415f 	beql	v0,s0,1a5d8 <SRAM_OS_DATA_ADDR+0x1d8>
    a05c:	4955515f 	0x4955515f
    a060:	02800054 	0x2800054
    a064:	5345520c 	beql	k0,a1,1e898 <SRAM_BT_HCI_BUF_ADDR+0xf98>
    a068:	5f544c55 	0x5f544c55
    a06c:	4953554d 	0x4953554d
    a070:	4c505f43 	0x4c505f43
    a074:	81005941 	lb	zero,22849(t0)
    a078:	45520c02 	0x45520c02
    a07c:	544c5553 	bnel	v0,t4,1f5cc <SRAM_BT_RCODE_DATA_ADDR+0x4cc>
    a080:	53554d5f 	beql	k0,s5,1d600 <SRAM_BANK_C_ADDR+0x100>
    a084:	435f4349 	c0	0x15f4349
    a088:	59414c50 	0x59414c50
    a08c:	0c028200 	jal	a0800 <AP_BANK_SPACE+0x60800>
    a090:	55534552 	bnel	t2,s3,1b5dc <SRAM_OS_SD_SWAP_BUF_ADDR+0x1dc>
    a094:	4d5f544c 	0x4d5f544c
    a098:	43495355 	c0	0x1495355
    a09c:	4c50555f 	0x4c50555f
    a0a0:	83005941 	lb	zero,22849(t8)
    a0a4:	45520c02 	0x45520c02
    a0a8:	544c5553 	bnel	v0,t4,1f5f8 <SRAM_BT_RCODE_DATA_ADDR+0x4f8>
    a0ac:	544e455f 	bnel	v0,t6,1b62c <SRAM_OS_TASK_STACK_ADDR+0x2c>
    a0b0:	4c5f5245 	0x4c5f5245
    a0b4:	49454e49 	0x49454e49
    a0b8:	0284004e 	0x284004e
    a0bc:	5345520c 	beql	k0,a1,1e8f0 <SRAM_BT_HCI_BUF_ADDR+0xff0>
    a0c0:	5f544c55 	0x5f544c55
    a0c4:	49444152 	0x49444152
    a0c8:	0285004f 	0x285004f
    a0cc:	5345520c 	beql	k0,a1,1e900 <SRAM_AP_FRONT_RCODE_ADDR>
    a0d0:	5f544c55 	0x5f544c55
    a0d4:	45554c42 	0x45554c42
    a0d8:	54454554 	bnel	v0,a1,1b62c <SRAM_OS_TASK_STACK_ADDR+0x2c>
    a0dc:	4f535f48 	c3	0x1535f48
    a0e0:	00444e55 	0x444e55
    a0e4:	520c0286 	beql	s0,t4,ab00 <SRAM_BT_EXT1_BANK_ADDR+0x300>
    a0e8:	4c555345 	0x4c555345
    a0ec:	4c425f54 	0x4c425f54
    a0f0:	45544555 	0x45544555
    a0f4:	5f485445 	0x5f485445
    a0f8:	4c4c4143 	0x4c4c4143
    a0fc:	0c028700 	jal	a1c00 <AP_BANK_SPACE+0x61c00>
    a100:	55534552 	bnel	t2,s3,1b64c <SRAM_OS_TASK_STACK_ADDR+0x4c>
    a104:	425f544c 	c0	0x5f544c
    a108:	5445554c 	bnel	v0,a1,1f63c <SRAM_BT_RCODE_DATA_ADDR+0x53c>
    a10c:	48544545 	0x48544545
    a110:	4c41435f 	0x4c41435f
    a114:	41425f4c 	0x41425f4c
    a118:	52474b43 	beql	s2,a3,1ce28 <SRAM_OS_TASK_STACK_ADDR+0x1828>
    a11c:	444e554f 	0x444e554f
    a120:	0c028800 	jal	a2000 <AP_BANK_SPACE+0x62000>
    a124:	55534552 	bnel	t2,s3,1b670 <SRAM_OS_TASK_STACK_ADDR+0x70>
    a128:	555f544c 	bnel	t2,ra,1f25c <SRAM_BT_RCODE_DATA_ADDR+0x15c>
    a12c:	535f4253 	beql	k0,ra,1aa7c <SRAM_OS_DATA_ADDR+0x67c>
    a130:	444e554f 	0x444e554f
    a134:	0c028900 	jal	a2400 <AP_BANK_SPACE+0x62400>
    a138:	55534552 	bnel	t2,s3,1b684 <SRAM_OS_TASK_STACK_ADDR+0x84>
    a13c:	505f544c 	beql	v0,ra,1f270 <SRAM_BT_RCODE_DATA_ADDR+0x170>
    a140:	5245574f 	beql	s2,a1,1fe80 <SRAM_KEY_MESSAGE_RCODE_ADDR+0x680>
    a144:	46464f5f 	c1	0x464f5f
    a148:	0c028a00 	jal	a2800 <AP_BANK_SPACE+0x62800>
    a14c:	55534552 	bnel	t2,s3,1b698 <SRAM_OS_TASK_STACK_ADDR+0x98>
    a150:	4c5f544c 	0x4c5f544c
    a154:	505f574f 	beql	v0,ra,1fe94 <SRAM_KEY_MESSAGE_RCODE_ADDR+0x694>
    a158:	5245574f 	beql	s2,a1,1fe98 <SRAM_KEY_MESSAGE_RCODE_ADDR+0x698>
    a15c:	0c028b00 	jal	a2c00 <AP_BANK_SPACE+0x62c00>
    a160:	55534552 	bnel	t2,s3,1b6ac <SRAM_OS_TASK_STACK_ADDR+0xac>
    a164:	555f544c 	bnel	t2,ra,1f298 <SRAM_BT_RCODE_DATA_ADDR+0x198>
    a168:	545f4253 	bnel	v0,ra,1aab8 <SRAM_OS_DATA_ADDR+0x6b8>
    a16c:	534e4152 	beql	k0,t6,1a6b8 <SRAM_OS_DATA_ADDR+0x2b8>
    a170:	0c028c00 	jal	a3000 <AP_BANK_SPACE+0x63000>
    a174:	55534552 	bnel	t2,s3,1b6c0 <SRAM_OS_TASK_STACK_ADDR+0xc0>
    a178:	525f544c 	beql	s2,ra,1f2ac <SRAM_BT_RCODE_DATA_ADDR+0x1ac>
    a17c:	524f4345 	beql	s2,t7,1ae94 <SRAM_OS_HEAP_ADDR+0x214>
    a180:	50435f44 	beql	v0,v1,21e94 <SRAM_AP_BANK_BACK_BASAL_ADDR+0x94>
    a184:	0059414c 	syscall	0x16505
    a188:	520c028d 	beql	s0,t4,abc0 <SRAM_BT_EXT1_BANK_ADDR+0x3c0>
    a18c:	4c555345 	0x4c555345
    a190:	45525f54 	0x45525f54
    a194:	44524f43 	0x44524f43
    a198:	4c50555f 	0x4c50555f
    a19c:	8e005941 	lw	zero,22849(s0)
    a1a0:	45520c02 	0x45520c02
    a1a4:	544c5553 	bnel	v0,t4,1f6f4 <SRAM_BT_RCODE_DATA_ADDR+0x5f4>
    a1a8:	4345525f 	c0	0x145525f
    a1ac:	5f44524f 	0x5f44524f
    a1b0:	454e494c 	0x454e494c
    a1b4:	545f4e49 	bnel	v0,ra,1dadc <SRAM_BT_HCI_BUF_ADDR+0x1dc>
    a1b8:	8f00434f 	lw	zero,17231(t8)
    a1bc:	45520c02 	0x45520c02
    a1c0:	544c5553 	bnel	v0,t4,1f710 <SRAM_BT_RCODE_DATA_ADDR+0x610>
    a1c4:	4345525f 	c0	0x145525f
    a1c8:	5f44524f 	0x5f44524f
    a1cc:	545f4d46 	bnel	v0,ra,1d6e8 <SRAM_BANK_C_ADDR+0x1e8>
    a1d0:	9000434f 	lbu	zero,17231(zero)
    a1d4:	45520c02 	0x45520c02
    a1d8:	544c5553 	bnel	v0,t4,1f728 <SRAM_BT_RCODE_DATA_ADDR+0x628>
    a1dc:	4345525f 	c0	0x145525f
    a1e0:	5f44524f 	0x5f44524f
    a1e4:	5f43494d 	0x5f43494d
    a1e8:	00434f54 	0x434f54
    a1ec:	520c0291 	beql	s0,t4,ac34 <SRAM_BT_EXT1_BANK_ADDR+0x434>
    a1f0:	4c555345 	0x4c555345
    a1f4:	45525f54 	0x45525f54
    a1f8:	44524f43 	0x44524f43
    a1fc:	4e494c5f 	c3	0x494c5f
    a200:	5f4e4945 	0x5f4e4945
    a204:	00554f54 	0x554f54
    a208:	520c0292 	beql	s0,t4,ac54 <SRAM_BT_EXT1_BANK_ADDR+0x454>
    a20c:	4c555345 	0x4c555345
    a210:	45525f54 	0x45525f54
    a214:	44524f43 	0x44524f43
    a218:	5f4d465f 	0x5f4d465f
    a21c:	00554f54 	0x554f54
    a220:	520c0293 	beql	s0,t4,ac70 <SRAM_BT_EXT1_BANK_ADDR+0x470>
    a224:	4c555345 	0x4c555345
    a228:	45525f54 	0x45525f54
    a22c:	44524f43 	0x44524f43
    a230:	43494d5f 	c0	0x1494d5f
    a234:	554f545f 	bnel	t2,t7,1f3b4 <SRAM_BT_RCODE_DATA_ADDR+0x2b4>
    a238:	0c029400 	jal	a5000 <AP_BANK_SPACE+0x65000>
    a23c:	55534552 	bnel	t2,s3,1b788 <SRAM_OS_TASK_STACK_ADDR+0x188>
    a240:	4c5f544c 	0x4c5f544c
    a244:	50545341 	beql	v0,s4,1ef4c <SRAM_AP_FRONT_RCODE_ADDR+0x64c>
    a248:	0059414c 	syscall	0x16505
    a24c:	520c0295 	beql	s0,t4,aca4 <SRAM_BT_EXT1_BANK_ADDR+0x4a4>
    a250:	4c555345 	0x4c555345
    a254:	454e5f54 	0x454e5f54
    a258:	465f5458 	c1	0x5f5458
    a25c:	54434e55 	bnel	v0,v1,1dbb4 <SRAM_BT_HCI_BUF_ADDR+0x2b4>
    a260:	004e4f49 	0x4e4f49
    a264:	520c0296 	beql	s0,t4,acc0 <SRAM_BT_EXT1_BANK_ADDR+0x4c0>
    a268:	4c555345 	0x4c555345
    a26c:	4e455f54 	c3	0x455f54
    a270:	5f524554 	0x5f524554
    a274:	52475055 	beql	s2,a3,1e3cc <SRAM_BT_HCI_BUF_ADDR+0xacc>
    a278:	00454441 	0x454441
    a27c:	520c0297 	beql	s0,t4,acdc <SRAM_BT_EXT1_BANK_ADDR+0x4dc>
    a280:	4c555345 	0x4c555345
    a284:	414d5f54 	0x414d5f54
    a288:	415f4e49 	0x415f4e49
    a28c:	98005050 	lwr	zero,20560(zero)
    a290:	45520c02 	0x45520c02
    a294:	544c5553 	bnel	v0,t4,1f7e4 <SRAM_BT_RCODE_DATA_ADDR+0x6e4>
    a298:	544e455f 	bnel	v0,t6,1b818 <SRAM_OS_TASK_STACK_ADDR+0x218>
    a29c:	415f5245 	0x415f5245
    a2a0:	4d52414c 	0x4d52414c
    a2a4:	0c029900 	jal	a6400 <AP_BANK_SPACE+0x66400>
    a2a8:	55534552 	bnel	t2,s3,1b7f4 <SRAM_OS_TASK_STACK_ADDR+0x1f4>
    a2ac:	415f544c 	0x415f544c
    a2b0:	4d52414c 	0x4d52414c
    a2b4:	4f4e535f 	c3	0x14e535f
    a2b8:	00455a4f 	0x455a4f
    a2bc:	520c029a 	beql	s0,t4,ad28 <SRAM_BT_EXT1_BANK_ADDR+0x528>
    a2c0:	4c555345 	0x4c555345
    a2c4:	4c415f54 	0x4c415f54
    a2c8:	5f4d5241 	0x5f4d5241
    a2cc:	534f4c43 	beql	k0,t7,1d3dc <SRAM_OS_TASK_STACK_ADDR+0x1ddc>
    a2d0:	029b0045 	0x29b0045
    a2d4:	5345520c 	beql	k0,a1,1eb08 <SRAM_AP_FRONT_RCODE_ADDR+0x208>
    a2d8:	5f544c55 	0x5f544c55
    a2dc:	52414c41 	beql	s2,at,1d3e4 <SRAM_OS_TASK_STACK_ADDR+0x1de4>
    a2e0:	49525f4d 	0x49525f4d
    a2e4:	465f474e 	c1	0x5f474e
    a2e8:	45444c4f 	0x45444c4f
    a2ec:	43535f52 	c0	0x1535f52
    a2f0:	9c004e41 	0x9c004e41
    a2f4:	45520c02 	0x45520c02
    a2f8:	544c5553 	bnel	v0,t4,1f848 <SRAM_KEY_MESSAGE_RCODE_ADDR+0x48>
    a2fc:	5455415f 	bnel	v0,s5,1a87c <SRAM_OS_DATA_ADDR+0x47c>
    a300:	45535f4f 	0x45535f4f
    a304:	48435241 	0x48435241
    a308:	0c029d00 	jal	a7400 <AP_BANK_SPACE+0x67400>
    a30c:	55534552 	bnel	t2,s3,1b858 <SRAM_OS_TASK_STACK_ADDR+0x258>
    a310:	4d5f544c 	0x4d5f544c
    a314:	41554e41 	0x41554e41
    a318:	45535f4c 	0x45535f4c
    a31c:	48435241 	0x48435241
    a320:	0050555f 	0x50555f
    a324:	520c029e 	beql	s0,t4,ada0 <SRAM_BT_EXT1_BANK_ADDR+0x5a0>
    a328:	4c555345 	0x4c555345
    a32c:	414d5f54 	0x414d5f54
    a330:	4c41554e 	0x4c41554e
    a334:	4145535f 	0x4145535f
    a338:	5f484352 	0x5f484352
    a33c:	4e574f44 	c3	0x574f44
    a340:	0c029f00 	jal	a7c00 <AP_BANK_SPACE+0x67c00>
    a344:	55534552 	bnel	t2,s3,1b890 <SRAM_OS_TASK_STACK_ADDR+0x290>
    a348:	535f544c 	beql	k0,ra,1f47c <SRAM_BT_RCODE_DATA_ADDR+0x37c>
    a34c:	5f504f54 	0x5f504f54
    a350:	52414553 	beql	s2,at,1b8a0 <SRAM_OS_TASK_STACK_ADDR+0x2a0>
    a354:	a0004843 	sb	zero,18499(zero)
    a358:	45520c02 	0x45520c02
    a35c:	544c5553 	bnel	v0,t4,1f8ac <SRAM_KEY_MESSAGE_RCODE_ADDR+0xac>
    a360:	4e4f435f 	c3	0x4f435f
    a364:	5f474946 	0x5f474946
    a368:	52414843 	beql	s2,at,1c478 <SRAM_OS_TASK_STACK_ADDR+0xe78>
    a36c:	a1004547 	sb	zero,17735(t0)
    a370:	45520c02 	0x45520c02
    a374:	544c5553 	bnel	v0,t4,1f8c4 <SRAM_KEY_MESSAGE_RCODE_ADDR+0xc4>
    a378:	4e4f435f 	c3	0x4f435f
    a37c:	5f474946 	0x5f474946
    a380:	52414843 	beql	s2,at,1c490 <SRAM_OS_TASK_STACK_ADDR+0xe90>
    a384:	515f4547 	beql	t2,ra,1b8a4 <SRAM_OS_TASK_STACK_ADDR+0x2a4>
    a388:	00544955 	0x544955
    a38c:	520c02a2 	beql	s0,t4,ae18 <SRAM_BT_EXT1_BANK_ADDR+0x618>
    a390:	4c555345 	0x4c555345
    a394:	4e455f54 	c3	0x455f54
    a398:	5f524554 	0x5f524554
    a39c:	54515341 	bnel	v0,s1,1f0a4 <SRAM_AP_FRONT_RCODE_ADDR+0x7a4>
    a3a0:	5f46485f 	0x5f46485f
    a3a4:	54534554 	bnel	v0,s3,1b8f8 <SRAM_OS_TASK_STACK_ADDR+0x2f8>
    a3a8:	0c02a300 	jal	a8c00 <AP_BANK_SPACE+0x68c00>
    a3ac:	55534552 	bnel	t2,s3,1b8f8 <SRAM_OS_TASK_STACK_ADDR+0x2f8>
    a3b0:	455f544c 	0x455f544c
    a3b4:	5245544e 	beql	s2,a1,1f4f0 <SRAM_BT_RCODE_DATA_ADDR+0x3f0>
    a3b8:	4553555f 	0x4553555f
    a3bc:	a4003152 	sh	zero,12626(zero)
    a3c0:	45520c02 	0x45520c02
    a3c4:	544c5553 	bnel	v0,t4,1f914 <SRAM_KEY_MESSAGE_RCODE_ADDR+0x114>
    a3c8:	5359535f 	beql	k0,t9,1f148 <SRAM_BT_RCODE_DATA_ADDR+0x48>
    a3cc:	5f4d4554 	0x5f4d4554
    a3d0:	45544e45 	0x45544e45
    a3d4:	33535f52 	andi	s3,k0,0x5f52
    a3d8:	0c02a500 	jal	a9400 <AP_BANK_SPACE+0x69400>
    a3dc:	55534552 	bnel	t2,s3,1b928 <SRAM_OS_TASK_STACK_ADDR+0x328>
    a3e0:	535f544c 	beql	k0,ra,1f514 <SRAM_BT_RCODE_DATA_ADDR+0x414>
    a3e4:	45545359 	0x45545359
    a3e8:	58455f4d 	0x58455f4d
    a3ec:	535f5449 	beql	k0,ra,1f514 <SRAM_BT_RCODE_DATA_ADDR+0x414>
    a3f0:	02a60033 	tltu	s5,a2
    a3f4:	5345520c 	beql	k0,a1,1ec28 <SRAM_AP_FRONT_RCODE_ADDR+0x328>
    a3f8:	5f544c55 	0x5f544c55
    a3fc:	45544e45 	0x45544e45
    a400:	54535f52 	bnel	v0,s3,2214c <SRAM_AP_BANK_BACK_BASAL_ADDR+0x34c>
    a404:	445f4255 	0x445f4255
    a408:	47554245 	c1	0x1554245
    a40c:	0c02a700 	jal	a9c00 <AP_BANK_SPACE+0x69c00>
    a410:	55534552 	bnel	t2,s3,1b95c <SRAM_OS_TASK_STACK_ADDR+0x35c>
    a414:	455f544c 	0x455f544c
    a418:	525f4453 	beql	s2,ra,1b568 <SRAM_OS_SD_SWAP_BUF_ADDR+0x168>
    a41c:	41545345 	0x41545345
    a420:	a8005452 	swl	zero,21586(zero)
    a424:	45520c02 	0x45520c02
    a428:	544c5553 	bnel	v0,t4,1f978 <SRAM_KEY_MESSAGE_RCODE_ADDR+0x178>
    a42c:	4c44495f 	0x4c44495f
    a430:	4f4d5f45 	c3	0x14d5f45
    a434:	a9004544 	swl	zero,17732(t0)
    a438:	45520c02 	0x45520c02
    a43c:	544c5553 	bnel	v0,t4,1f98c <SRAM_KEY_MESSAGE_RCODE_ADDR+0x18c>
    a440:	544e455f 	bnel	v0,t6,1b9c0 <SRAM_OS_TASK_STACK_ADDR+0x3c0>
    a444:	4f5f5245 	c3	0x15f5245
    a448:	535f4154 	beql	k0,ra,1a99c <SRAM_OS_DATA_ADDR+0x59c>
    a44c:	5f474e4f 	0x5f474e4f
    a450:	54534554 	bnel	v0,s3,1b9a4 <SRAM_OS_TASK_STACK_ADDR+0x3a4>
    a454:	0c02aa00 	jal	aa800 <AP_BANK_SPACE+0x6a800>
    a458:	55534552 	bnel	t2,s3,1b9a4 <SRAM_OS_TASK_STACK_ADDR+0x3a4>
    a45c:	505f544c 	beql	v0,ra,1f590 <SRAM_BT_RCODE_DATA_ADDR+0x490>
    a460:	5f59414c 	0x5f59414c
    a464:	5f444453 	0x5f444453
    a468:	31444946 	andi	a0,t2,0x4946
    a46c:	02ab0036 	tne	s5,t3
    a470:	5345520c 	beql	k0,a1,1eca4 <SRAM_AP_FRONT_RCODE_ADDR+0x3a4>
    a474:	5f544c55 	0x5f544c55
    a478:	59414c50 	0x59414c50
    a47c:	4444535f 	0x4444535f
    a480:	4449465f 	0x4449465f
    a484:	ac003731 	sw	zero,14129(zero)
    a488:	45520c02 	0x45520c02
    a48c:	544c5553 	bnel	v0,t4,1f9dc <SRAM_KEY_MESSAGE_RCODE_ADDR+0x1dc>
    a490:	414c505f 	0x414c505f
    a494:	44535f59 	0x44535f59
    a498:	49465f44 	0x49465f44
    a49c:	00383144 	0x383144
    a4a0:	520c02ad 	beql	s0,t4,af58 <SRAM_BT_EXT1_BANK_ADDR+0x758>
    a4a4:	4c555345 	0x4c555345
    a4a8:	4c505f54 	0x4c505f54
    a4ac:	535f5941 	beql	k0,ra,209b4 <SRAM_AP_BANK_FRONT_CONTROL_ADDR+0x7b4>
    a4b0:	465f4444 	c1	0x5f4444
    a4b4:	39314449 	xori	s1,t1,0x4449
    a4b8:	0c02ae00 	jal	ab800 <AP_BANK_SPACE+0x6b800>
    a4bc:	55534552 	bnel	t2,s3,1ba08 <SRAM_OS_TASK_STACK_ADDR+0x408>
    a4c0:	505f544c 	beql	v0,ra,1f5f4 <SRAM_BT_RCODE_DATA_ADDR+0x4f4>
    a4c4:	5f59414c 	0x5f59414c
    a4c8:	5f444453 	0x5f444453
    a4cc:	32444946 	andi	a0,s2,0x4946
    a4d0:	02af0030 	tge	s5,t7
    a4d4:	5345520c 	beql	k0,a1,1ed08 <SRAM_AP_FRONT_RCODE_ADDR+0x408>
    a4d8:	5f544c55 	0x5f544c55
    a4dc:	59414c50 	0x59414c50
    a4e0:	4444535f 	0x4444535f
    a4e4:	4449465f 	0x4449465f
    a4e8:	b0003132 	0xb0003132
    a4ec:	45520c02 	0x45520c02
    a4f0:	544c5553 	bnel	v0,t4,1fa40 <SRAM_KEY_MESSAGE_RCODE_ADDR+0x240>
    a4f4:	414c505f 	0x414c505f
    a4f8:	44535f59 	0x44535f59
    a4fc:	49465f44 	0x49465f44
    a500:	00323244 	0x323244
    a504:	520c02b1 	beql	s0,t4,afcc <SRAM_BT_EXT1_BANK_ADDR+0x7cc>
    a508:	4c555345 	0x4c555345
    a50c:	4c505f54 	0x4c505f54
    a510:	535f5941 	beql	k0,ra,20a18 <SRAM_KERNEL_XSYS_ADDR+0x18>
    a514:	465f4444 	c1	0x5f4444
    a518:	33324449 	andi	s2,t9,0x4449
    a51c:	0c02b200 	jal	ac800 <AP_BANK_SPACE+0x6c800>
    a520:	55534552 	bnel	t2,s3,1ba6c <SRAM_OS_TASK_STACK_ADDR+0x46c>
    a524:	505f544c 	beql	v0,ra,1f658 <SRAM_BT_RCODE_DATA_ADDR+0x558>
    a528:	5f59414c 	0x5f59414c
    a52c:	5f444453 	0x5f444453
    a530:	32444946 	andi	a0,s2,0x4946
    a534:	02b30034 	teq	s5,s3
    a538:	5345520c 	beql	k0,a1,1ed6c <SRAM_AP_FRONT_RCODE_ADDR+0x46c>
    a53c:	5f544c55 	0x5f544c55
    a540:	59414c50 	0x59414c50
    a544:	4444535f 	0x4444535f
    a548:	4449465f 	0x4449465f
    a54c:	b4003532 	0xb4003532
    a550:	45520c02 	0x45520c02
    a554:	544c5553 	bnel	v0,t4,1faa4 <SRAM_KEY_MESSAGE_RCODE_ADDR+0x2a4>
    a558:	544e455f 	bnel	v0,t6,1bad8 <SRAM_OS_TASK_STACK_ADDR+0x4d8>
    a55c:	425f5245 	c0	0x5f5245
    a560:	42445f54 	c0	0x445f54
    a564:	02b50050 	0x2b50050
    a568:	5345520c 	beql	k0,a1,1ed9c <SRAM_AP_FRONT_RCODE_ADDR+0x49c>
    a56c:	5f544c55 	0x5f544c55
    a570:	4c414944 	0x4c414944
    a574:	4f5f474f 	c3	0x15f474f
    a578:	0480004b 	bltz	a0,a6a8 <SRAM_BT_LIB1_BANK_ADDR+0x6a8>
    a57c:	5345520c 	beql	k0,a1,1edb0 <SRAM_AP_FRONT_RCODE_ADDR+0x4b0>
    a580:	5f544c55 	0x5f544c55
    a584:	4c414944 	0x4c414944
    a588:	435f474f 	c0	0x15f474f
    a58c:	45434e41 	0x45434e41
    a590:	0481004c 	bgez	a0,a6c4 <SRAM_BT_LIB1_BANK_ADDR+0x6c4>
    a594:	5345520c 	beql	k0,a1,1edc8 <SRAM_AP_FRONT_RCODE_ADDR+0x4c8>
    a598:	5f544c55 	0x5f544c55
    a59c:	4c414944 	0x4c414944
    a5a0:	415f474f 	0x415f474f
    a5a4:	54524f42 	bnel	v0,s2,1e2b0 <SRAM_BT_HCI_BUF_ADDR+0x9b0>
    a5a8:	0c048200 	jal	120800 <AP_BANK_SPACE+0xe0800>
    a5ac:	55534552 	bnel	t2,s3,1baf8 <SRAM_OS_TASK_STACK_ADDR+0x4f8>
    a5b0:	445f544c 	0x445f544c
    a5b4:	4f4c4149 	c3	0x14c4149
    a5b8:	45525f47 	0x45525f47
    a5bc:	00595254 	0x595254
    a5c0:	520c0483 	beql	s0,t4,b7d0 <SRAM_AP_BANK_FRONT_BASAL_ADDR+0x7d0>
    a5c4:	4c555345 	0x4c555345
    a5c8:	49445f54 	0x49445f54
    a5cc:	474f4c41 	c1	0x14f4c41
    a5d0:	4e47495f 	c3	0x47495f
    a5d4:	0045524f 	0x45524f
    a5d8:	520c0484 	beql	s0,t4,b7ec <SRAM_AP_BANK_FRONT_BASAL_ADDR+0x7ec>
    a5dc:	4c555345 	0x4c555345
    a5e0:	49445f54 	0x49445f54
    a5e4:	474f4c41 	c1	0x14f4c41
    a5e8:	5345595f 	beql	k0,a1,20b68 <SRAM_KERNEL_XSYS_ADDR+0x168>
    a5ec:	0c048500 	jal	121400 <AP_BANK_SPACE+0xe1400>
    a5f0:	55534552 	bnel	t2,s3,1bb3c <SRAM_OS_TASK_STACK_ADDR+0x53c>
    a5f4:	445f544c 	0x445f544c
    a5f8:	4f4c4149 	c3	0x14c4149
    a5fc:	4f4e5f47 	c3	0x14e5f47
    a600:	0c048600 	jal	121800 <AP_BANK_SPACE+0xe1800>
    a604:	55534552 	bnel	t2,s3,1bb50 <SRAM_OS_TASK_STACK_ADDR+0x550>
    a608:	445f544c 	0x445f544c
    a60c:	4f4c4149 	c3	0x14c4149
    a610:	41435f47 	0x41435f47
    a614:	4c45434e 	0x4c45434e
    a618:	5455415f 	bnel	v0,s5,1ab98 <SRAM_OS_DATA_ADDR+0x798>
    a61c:	0487004f 	0x487004f
    a620:	5345520c 	beql	k0,a1,1ee54 <SRAM_AP_FRONT_RCODE_ADDR+0x554>
    a624:	5f544c55 	0x5f544c55
    a628:	4c414944 	0x4c414944
    a62c:	555f474f 	bnel	t2,ra,1c36c <SRAM_OS_TASK_STACK_ADDR+0xd6c>
    a630:	535f4253 	beql	k0,ra,1af80 <SRAM_OS_HEAP_ADDR+0x300>
    a634:	444e554f 	0x444e554f
    a638:	0c048800 	jal	122000 <AP_BANK_SPACE+0xe2000>
    a63c:	55534552 	bnel	t2,s3,1bb88 <SRAM_OS_TASK_STACK_ADDR+0x588>
    a640:	445f544c 	0x445f544c
    a644:	4f4c4149 	c3	0x14c4149
    a648:	4e4f5f47 	c3	0x4f5f47
    a64c:	435f594c 	c0	0x15f594c
    a650:	47524148 	c1	0x1524148
    a654:	04890045 	tgeiu	a0,69
    a658:	5345520c 	beql	k0,a1,1ee8c <SRAM_AP_FRONT_RCODE_ADDR+0x58c>
    a65c:	5f544c55 	0x5f544c55
    a660:	5f444948 	0x5f444948
    a664:	444e4553 	0x444e4553
    a668:	59454b5f 	0x59454b5f
    a66c:	4556455f 	0x4556455f
    a670:	8a00544e 	lwl	zero,21582(s0)
    a674:	610d0004 	0x610d0004
    a678:	725f7070 	0x725f7070
    a67c:	6c757365 	0x6c757365
    a680:	00655f74 	teq	v1,a1,0x17d
    a684:	b1018002 	0xb1018002
    a688:	0e000004 	jal	8000010 <AP_BANK_SPACE+0x7fc0010>
    a68c:	00000c4c 	syscall	0x31
    a690:	02550304 	0x2550304
    a694:	7461640f 	jalx	185903c <AP_BANK_SPACE+0x181903c>
    a698:	52030061 	beql	s0,v1,a820 <SRAM_BT_EXT1_BANK_ADDR+0x20>
    a69c:	00023702 	srl	a2,v0,0x1c
    a6a0:	64610f00 	0x64610f00
    a6a4:	03007264 	0x3007264
    a6a8:	01900254 	0x1900254
    a6ac:	10000000 	b	a6b0 <SRAM_BT_LIB1_BANK_ADDR+0x6b0>
    a6b0:	00000c79 	0xc79
    a6b4:	02560308 	0x2560308
    a6b8:	70797411 	udi1	v1,t9,t6,0x10
    a6bc:	4e030065 	c3	0x30065
    a6c0:	00015002 	srl	t2,at,0x0
    a6c4:	00230200 	0x230200
    a6c8:	6e6f6311 	0x6e6f6311
    a6cc:	746e6574 	jalx	1b995d0 <AP_BANK_SPACE+0x1b595d0>
    a6d0:	02550300 	0x2550300
    a6d4:	00000c28 	0xc28
    a6d8:	00042302 	srl	a0,a0,0xc
    a6dc:	67736d0d 	0x67736d0d
    a6e0:	7070615f 	udi15	v1,s0,t4,0x5
    a6e4:	00745f73 	tltu	v1,s4,0x17d
    a6e8:	4c025603 	0x4c025603
    a6ec:	1000000c 	b	a720 <SRAM_BT_LIB1_BANK_ADDR+0x720>
    a6f0:	00000ccc 	syscall	0x33
    a6f4:	026f0308 	0x26f0308
    a6f8:	70797411 	udi1	v1,t9,t6,0x10
    a6fc:	6b030065 	0x6b030065
    a700:	00014302 	srl	t0,at,0xc
    a704:	00230200 	0x230200
    a708:	73657211 	udi1	k1,a1,t6,0x8
    a70c:	65767265 	0x65767265
    a710:	026c0300 	0x26c0300
    a714:	00000247 	0x247
    a718:	11012302 	beq	t0,at,13324 <SRAM_BT_BACK_RCODE_ADDR+0x2324>
    a71c:	746e6f63 	jalx	1b9bd8c <AP_BANK_SPACE+0x1b5bd8c>
    a720:	00746e65 	0x746e65
    a724:	90026e03 	lbu	v0,28163(zero)
    a728:	02000001 	movf	zero,s0,$fcc0
    a72c:	0d000423 	jal	400108c <AP_BANK_SPACE+0x3fc108c>
    a730:	5f67736d 	0x5f67736d
    a734:	6c706572 	0x6c706572
    a738:	00745f79 	0x745f79
    a73c:	8c026f03 	lw	v0,28419(zero)
    a740:	1000000c 	b	a774 <SRAM_BT_LIB1_BANK_ADDR+0x774>
    a744:	00000d19 	0xd19
    a748:	027c0310 	0x27c0310
    a74c:	67736d11 	0x67736d11
    a750:	02770300 	0x2770300
    a754:	00000c79 	0xc79
    a758:	11002302 	beqz	t0,13364 <SRAM_BT_BACK_RCODE_ADDR+0x2364>
    a75c:	006d6573 	tltu	v1,t5,0x195
    a760:	31027903 	andi	v0,t0,0x7903
    a764:	02000002 	0x2000002
    a768:	72110823 	0x72110823
    a76c:	796c7065 	0x796c7065
    a770:	027b0300 	0x27b0300
    a774:	00000d19 	0xd19
    a778:	000c2302 	srl	a0,t4,0xc
    a77c:	0ccc040a 	jal	3301028 <AP_BANK_SPACE+0x32c1028>
    a780:	700d0000 	madd	zero,t5
    a784:	61766972 	0x61766972
    a788:	6d5f6574 	0x6d5f6574
    a78c:	745f6773 	jalx	17d9dcc <AP_BANK_SPACE+0x1799dcc>
    a790:	027c0300 	0x27c0300
    a794:	00000ce0 	0xce0
    a798:	0d1f040a 	jal	47c1028 <AP_BANK_SPACE+0x4781028>
    a79c:	e4100000 	swc1	$f16,0(zero)
    a7a0:	1c00000f 	bgtz	zero,a7e0 <SRAM_BT_LIB1_BANK_ADDR+0x7e0>
    a7a4:	11013209 	beq	t0,at,16fcc <SRAM_BTCALL_ASQT_BUF_ADDR+0x3cc>
    a7a8:	69676e65 	0x69676e65
    a7ac:	745f656e 	jalx	17d95b8 <AP_BANK_SPACE+0x17995b8>
    a7b0:	00657079 	0x657079
    a7b4:	43010709 	c0	0x1010709
    a7b8:	02000001 	movf	zero,s0,$fcc0
    a7bc:	65110023 	0x65110023
    a7c0:	6e69676e 	0x6e69676e
    a7c4:	74735f65 	jalx	1cd7d94 <AP_BANK_SPACE+0x1c97d94>
    a7c8:	00657461 	0x657461
    a7cc:	43010909 	c0	0x1010909
    a7d0:	02000001 	movf	zero,s0,$fcc0
    a7d4:	61110123 	0x61110123
    a7d8:	735f7070 	0x735f7070
    a7dc:	65746174 	0x65746174
    a7e0:	010b0900 	0x10b0900
    a7e4:	00000143 	sra	zero,zero,0x5
    a7e8:	11022302 	beq	t0,v0,133f4 <SRAM_BT_BACK_RCODE_ADDR+0x23f4>
    a7ec:	735f6975 	0x735f6975
    a7f0:	75746174 	jalx	5d185d0 <AP_BANK_SPACE+0x5cd85d0>
    a7f4:	0d090073 	jal	42401cc <AP_BANK_SPACE+0x42001cc>
    a7f8:	00014301 	0x14301
    a7fc:	03230200 	0x3230200
    a800:	6e5f6711 	0x6e5f6711
    a804:	75735f6f 	jalx	5cd7dbc <AP_BANK_SPACE+0x5c97dbc>
    a808:	726f7070 	0x726f7070
    a80c:	74745f74 	jalx	1d17dd0 <AP_BANK_SPACE+0x1cd7dd0>
    a810:	6c665f73 	0x6c665f73
    a814:	09006761 	j	4019d84 <AP_BANK_SPACE+0x3fd9d84>
    a818:	01430112 	0x1430112
    a81c:	23020000 	addi	v0,t8,0
    a820:	5f671104 	0x5f671104
    a824:	646e6573 	0x646e6573
    a828:	6978655f 	0x6978655f
    a82c:	6d6d5f74 	0x6d6d5f74
    a830:	74745f6d 	jalx	1d17db4 <AP_BANK_SPACE+0x1cd7db4>
    a834:	13090073 	beq	t8,t1,aa04 <SRAM_BT_EXT1_BANK_ADDR+0x204>
    a838:	00014301 	0x14301
    a83c:	05230200 	bgezl	t1,b040 <SRAM_AP_BANK_FRONT_BASAL_ADDR+0x40>
    a840:	776f7012 	jalx	dbdc048 <AP_BANK_SPACE+0xdb9c048>
    a844:	6f5f7265 	0x6f5f7265
    a848:	6c665f6e 	0x6c665f6e
    a84c:	09006761 	j	4019d84 <AP_BANK_SPACE+0x3fd9d84>
    a850:	01430114 	0x1430114
    a854:	04010000 	b	a858 <SRAM_BT_EXT1_BANK_ADDR+0x58>
    a858:	06230204 	bgezl	s1,b06c <SRAM_AP_BANK_FRONT_BASAL_ADDR+0x6c>
    a85c:	75747312 	jalx	5d1cc48 <AP_BANK_SPACE+0x5cdcc48>
    a860:	6f6d5f62 	0x6f6d5f62
    a864:	665f6564 	0x665f6564
    a868:	0067616c 	0x67616c
    a86c:	43011509 	c0	0x1011509
    a870:	01000001 	movf	zero,t0,$fcc0
    a874:	23020004 	addi	v0,t8,4
    a878:	6f731106 	0x6f731106
    a87c:	5f646e75 	0x5f646e75
    a880:	74617473 	jalx	185d1cc <AP_BANK_SPACE+0x181d1cc>
    a884:	18090065 	0x18090065
    a888:	00014301 	0x14301
    a88c:	07230200 	bgezl	t9,b090 <SRAM_AP_BANK_FRONT_BASAL_ADDR+0x90>
    a890:	78696611 	0x78696611
    a894:	6d61735f 	0x6d61735f
    a898:	5f656c70 	0x5f656c70
    a89c:	65746172 	0x65746172
    a8a0:	616c665f 	0x616c665f
    a8a4:	1a090067 	0x1a090067
    a8a8:	00014301 	0x14301
    a8ac:	08230200 	j	8c0800 <AP_BANK_SPACE+0x880800>
    a8b0:	74616211 	jalx	1858844 <AP_BANK_SPACE+0x1818844>
    a8b4:	79726574 	0x79726574
    a8b8:	7065725f 	udi15	v1,a1,t6,0x9
    a8bc:	5f74726f 	0x5f74726f
    a8c0:	62616e65 	0x62616e65
    a8c4:	0900656c 	j	40195b0 <AP_BANK_SPACE+0x3fd95b0>
    a8c8:	0143011d 	0x143011d
    a8cc:	23020000 	addi	v0,t8,0
    a8d0:	6e651109 	0x6e651109
    a8d4:	79677265 	0x79677265
    a8d8:	6176615f 	0x6176615f
    a8dc:	62616c69 	0x62616c69
    a8e0:	665f656c 	0x665f656c
    a8e4:	0067616c 	0x67616c
    a8e8:	a3012009 	sb	at,8201(t8)
    a8ec:	02000000 	0x2000000
    a8f0:	70110a23 	0x70110a23
    a8f4:	656e655f 	0x656e655f
    a8f8:	5f796772 	0x5f796772
    a8fc:	756c6176 	jalx	5b185d8 <AP_BANK_SPACE+0x5ad85d8>
    a900:	21090065 	addi	t1,t0,101
    a904:	000fe401 	0xfe401
    a908:	0c230200 	jal	8c0800 <AP_BANK_SPACE+0x880800>
    a90c:	655f7011 	0x655f7011
    a910:	6772656e 	0x6772656e
    a914:	61765f79 	0x61765f79
    a918:	5f65756c 	0x5f65756c
    a91c:	646e6162 	0x646e6162
    a920:	24090073 	li	t1,115
    a924:	000fe401 	0xfe401
    a928:	10230200 	beq	at,v1,b12c <SRAM_AP_BANK_FRONT_BASAL_ADDR+0x12c>
    a92c:	655f7011 	0x655f7011
    a930:	6772656e 	0x6772656e
    a934:	61765f79 	0x61765f79
    a938:	5f65756c 	0x5f65756c
    a93c:	71657266 	0x71657266
    a940:	25090073 	addiu	t1,t0,115
    a944:	000fe401 	0xfe401
    a948:	14230200 	bne	at,v1,b14c <SRAM_AP_BANK_FRONT_BASAL_ADDR+0x14c>
    a94c:	75747311 	jalx	5d1cc44 <AP_BANK_SPACE+0x5cdcc44>
    a950:	63705f62 	0x63705f62
    a954:	6f6f745f 	0x6f6f745f
    a958:	745f736c 	jalx	17dcdb0 <AP_BANK_SPACE+0x179cdb0>
    a95c:	00657079 	0x657079
    a960:	43012809 	c0	0x1012809
    a964:	02000001 	movf	zero,s0,$fcc0
    a968:	d6131823 	ldc1	$f19,6179(s0)
    a96c:	09000001 	j	4000004 <AP_BANK_SPACE+0x3fc0004>
    a970:	01430129 	0x1430129
    a974:	23020000 	addi	v0,t8,0
    a978:	69621219 	0x69621219
    a97c:	756e5f6e 	jalx	5b97db8 <AP_BANK_SPACE+0x5b57db8>
    a980:	7265626d 	0x7265626d
    a984:	012b0900 	0x12b0900
    a988:	00000143 	sra	zero,zero,0x5
    a98c:	02050301 	0x2050301
    a990:	77121a23 	jalx	c48688c <AP_BANK_SPACE+0xc44688c>
    a994:	73657661 	0x73657661
    a998:	6561645f 	0x6561645f
    a99c:	7261705f 	udi15	s3,at,t6,0x1
    a9a0:	70755f61 	0x70755f61
    a9a4:	65746164 	0x65746164
    a9a8:	616c665f 	0x616c665f
    a9ac:	2c090067 	sltiu	t1,zero,103
    a9b0:	00014301 	0x14301
    a9b4:	04010100 	b	adb8 <SRAM_BT_EXT1_BANK_ADDR+0x5b8>
    a9b8:	121a2302 	beq	s0,k0,135c4 <SRAM_BT_BACK_RCODE_ADDR+0x25c4>
    a9bc:	5f6f7774 	0x5f6f7774
    a9c0:	6e6f6870 	0x6e6f6870
    a9c4:	6f6d5f65 	0x6f6d5f65
    a9c8:	09006564 	j	4019590 <AP_BANK_SPACE+0x3fd9590>
    a9cc:	0143012d 	0x143012d
    a9d0:	01010000 	0x1010000
    a9d4:	1a230203 	0x1a230203
    a9d8:	696f7612 	0x696f7612
    a9dc:	725f6563 	0x725f6563
    a9e0:	6e6f6365 	0x6e6f6365
    a9e4:	7a696e67 	0x7a696e67
    a9e8:	6f6d5f65 	0x6f6d5f65
    a9ec:	09006564 	j	4019590 <AP_BANK_SPACE+0x3fd9590>
    a9f0:	0143012e 	0x143012e
    a9f4:	01010000 	0x1010000
    a9f8:	1a230202 	0x1a230202
    a9fc:	696f7612 	0x696f7612
    aa00:	725f6563 	0x725f6563
    aa04:	6e676365 	0x6e676365
    aa08:	5f657a69 	0x5f657a69
    aa0c:	706f7473 	0x706f7473
    aa10:	646f6d5f 	0x646f6d5f
    aa14:	2f090065 	sltiu	t1,t8,101
    aa18:	00014301 	0x14301
    aa1c:	01010100 	0x1010100
    aa20:	121a2302 	beq	s0,k0,1362c <SRAM_BT_BACK_RCODE_ADDR+0x262c>
    aa24:	72616d73 	0x72616d73
    aa28:	75625f74 	jalx	5897dd0 <AP_BANK_SPACE+0x5857dd0>
    aa2c:	72745f66 	0x72745f66
    aa30:	5f736e61 	0x5f736e61
    aa34:	67616c66 	0x67616c66
    aa38:	01310900 	0x1310900
    aa3c:	00000143 	sra	zero,zero,0x5
    aa40:	02000101 	0x2000101
    aa44:	0a001a23 	j	800688c <AP_BANK_SPACE+0x7fc688c>
    aa48:	0000d504 	0xd504
    aa4c:	70610d00 	0x70610d00
    aa50:	6e695f70 	0x6e695f70
    aa54:	735f6f66 	0x735f6f66
    aa58:	65746174 	0x65746174
    aa5c:	6c6c615f 	0x6c6c615f
    aa60:	0900745f 	j	401d17c <AP_BANK_SPACE+0x3fdd17c>
    aa64:	0d3b0132 	jal	4ec04c8 <AP_BANK_SPACE+0x4e804c8>
    aa68:	6d100000 	0x6d100000
    aa6c:	18000012 	blez	zero,aab8 <SRAM_BT_EXT1_BANK_ADDR+0x2b8>
    aa70:	11016b09 	beq	t0,at,25698 <SRAM_UART_STUB_RCODE_ADDR+0x698>
    aa74:	6574756d 	0x6574756d
    aa78:	6174735f 	0x6174735f
    aa7c:	09006574 	j	40195d0 <AP_BANK_SPACE+0x3fd95d0>
    aa80:	00a3013a 	0xa3013a
    aa84:	23020000 	addi	v0,t8,0
    aa88:	61701100 	0x61701100
    aa8c:	646f6d5f 	0x646f6d5f
    aa90:	3c090065 	lui	t1,0x65
    aa94:	0000a301 	0xa301
    aa98:	01230200 	0x1230200
    aa9c:	756f6111 	jalx	5bd8444 <AP_BANK_SPACE+0x5b98444>
    aaa0:	6f6d5f74 	0x6f6d5f74
    aaa4:	09006564 	j	4019590 <AP_BANK_SPACE+0x3fd9590>
    aaa8:	0143013e 	0x143013e
    aaac:	23020000 	addi	v0,t8,0
    aab0:	61621102 	0x61621102
    aab4:	696c6b63 	0x696c6b63
    aab8:	5f746867 	0x5f746867
    aabc:	74617473 	jalx	185d1cc <AP_BANK_SPACE+0x181d1cc>
    aac0:	40090065 	0x40090065
    aac4:	00014301 	0x14301
    aac8:	03230200 	0x3230200
    aacc:	72616311 	udi1	s3,at,t4,0xc
    aad0:	74735f64 	jalx	1cd7d90 <AP_BANK_SPACE+0x1c97d90>
    aad4:	00657461 	0x657461
    aad8:	43014209 	c0	0x1014209
    aadc:	02000001 	movf	zero,s0,$fcc0
    aae0:	75110423 	jalx	444108c <AP_BANK_SPACE+0x440108c>
    aae4:	74736f68 	jalx	1cdbda0 <AP_BANK_SPACE+0x1c9bda0>
    aae8:	6174735f 	0x6174735f
    aaec:	09006574 	j	40195d0 <AP_BANK_SPACE+0x3fd95d0>
    aaf0:	01430144 	0x1430144
    aaf4:	23020000 	addi	v0,t8,0
    aaf8:	696c1105 	0x696c1105
    aafc:	6e69656e 	0x6e69656e
    ab00:	6174735f 	0x6174735f
    ab04:	09006574 	j	40195d0 <AP_BANK_SPACE+0x3fd95d0>
    ab08:	01430146 	0x1430146
    ab0c:	23020000 	addi	v0,t8,0
    ab10:	61631106 	0x61631106
    ab14:	5f656c62 	0x5f656c62
    ab18:	74617473 	jalx	185d1cc <AP_BANK_SPACE+0x181d1cc>
    ab1c:	48090065 	0x48090065
    ab20:	00014301 	0x14301
    ab24:	07230200 	bgezl	t9,b328 <SRAM_AP_BANK_FRONT_BASAL_ADDR+0x328>
    ab28:	5f706811 	0x5f706811
    ab2c:	74617473 	jalx	185d1cc <AP_BANK_SPACE+0x181d1cc>
    ab30:	4a090065 	c2	0x90065
    ab34:	0000a301 	0xa301
    ab38:	08230200 	j	8c0800 <AP_BANK_SPACE+0x880800>
    ab3c:	61686311 	0x61686311
    ab40:	5f656772 	0x5f656772
    ab44:	74617473 	jalx	185d1cc <AP_BANK_SPACE+0x181d1cc>
    ab48:	4c090065 	0x4c090065
    ab4c:	00014301 	0x14301
    ab50:	09230200 	j	48c0800 <AP_BANK_SPACE+0x4880800>
    ab54:	74616211 	jalx	1858844 <AP_BANK_SPACE+0x1818844>
    ab58:	6c61765f 	0x6c61765f
    ab5c:	09006575 	j	40195d4 <AP_BANK_SPACE+0x3fd95d4>
    ab60:	0143014e 	0x143014e
    ab64:	23020000 	addi	v0,t8,0
    ab68:	6972110a 	0x6972110a
    ab6c:	615f676e 	0x615f676e
    ab70:	6d72616c 	0x6d72616c
    ab74:	01500900 	0x1500900
    ab78:	000000a3 	0xa3
    ab7c:	120b2302 	beq	s0,t3,13788 <SRAM_BT_BACK_RCODE_ADDR+0x2788>
    ab80:	62757473 	0x62757473
    ab84:	6f6f745f 	0x6f6f745f
    ab88:	745f736c 	jalx	17dcdb0 <AP_BANK_SPACE+0x179cdb0>
    ab8c:	00657079 	0x657079
    ab90:	43015209 	c0	0x1015209
    ab94:	01000001 	movf	zero,t0,$fcc0
    ab98:	23020107 	addi	v0,t8,263
    ab9c:	01d6140c 	syscall	0x75850
    aba0:	53090000 	beql	t8,t1,aba4 <SRAM_BT_EXT1_BANK_ADDR+0x3a4>
    aba4:	00014301 	0x14301
    aba8:	00010100 	sll	zero,at,0x4
    abac:	110c2302 	beq	t0,t4,137b8 <SRAM_BT_BACK_RCODE_ADDR+0x27b8>
    abb0:	6f747561 	0x6f747561
    abb4:	74736574 	jalx	1cd95d0 <AP_BANK_SPACE+0x1c995d0>
    abb8:	646f6d5f 	0x646f6d5f
    abbc:	55090065 	bnel	t0,t1,ad54 <SRAM_BT_EXT1_BANK_ADDR+0x554>
    abc0:	00014301 	0x14301
    abc4:	0d230200 	jal	48c0800 <AP_BANK_SPACE+0x4880800>
    abc8:	74617011 	jalx	185c044 <AP_BANK_SPACE+0x181c044>
    abcc:	645f6863 	0x645f6863
    abd0:	6c6e776f 	0x6c6e776f
    abd4:	5f64616f 	0x5f64616f
    abd8:	67616c66 	0x67616c66
    abdc:	01580900 	0x1580900
    abe0:	000000a3 	0xa3
    abe4:	110e2302 	beq	t0,t6,137f0 <SRAM_BT_BACK_RCODE_ADDR+0x27f0>
    abe8:	705f7462 	0x705f7462
    abec:	7265776f 	0x7265776f
    abf0:	006e6f5f 	0x6e6f5f
    abf4:	a3015a09 	sb	at,23049(t8)
    abf8:	02000000 	0x2000000
    abfc:	69110f23 	0x69110f23
    ac00:	72656e6e 	0x72656e6e
    ac04:	5f61705f 	0x5f61705f
    ac08:	74696e69 	jalx	1a5b9a4 <AP_BANK_SPACE+0x1a1b9a4>
    ac0c:	09006465 	j	4019194 <AP_BANK_SPACE+0x3fd9194>
    ac10:	00a3015c 	0xa3015c
    ac14:	23020000 	addi	v0,t8,0
    ac18:	756f1110 	jalx	5bc4440 <AP_BANK_SPACE+0x5b84440>
    ac1c:	5f726574 	0x5f726574
    ac20:	6f5f6170 	0x6f5f6170
    ac24:	5e09006e 	0x5e09006e
    ac28:	0000a301 	0xa301
    ac2c:	11230200 	beq	t1,v1,b430 <SRAM_AP_BANK_FRONT_BASAL_ADDR+0x430>
    ac30:	72756311 	udi1	s3,s5,t4,0xc
    ac34:	6e75665f 	0x6e75665f
    ac38:	6e695f63 	0x6e695f63
    ac3c:	00786564 	0x786564
    ac40:	43016009 	c0	0x1016009
    ac44:	02000001 	movf	zero,s0,$fcc0
    ac48:	63111223 	0x63111223
    ac4c:	665f7275 	0x665f7275
    ac50:	5f636e75 	0x5f636e75
    ac54:	09006469 	j	40191a4 <AP_BANK_SPACE+0x3fd91a4>
    ac58:	01430162 	0x1430162
    ac5c:	23020000 	addi	v0,t8,0
    ac60:	70611113 	udi3	v1,at,v0,0x4
    ac64:	74735f6b 	jalx	1cd7dac <AP_BANK_SPACE+0x1c97dac>
    ac68:	73757461 	0x73757461
    ac6c:	01640900 	0x1640900
    ac70:	00000143 	sra	zero,zero,0x5
    ac74:	11142302 	beq	t0,s4,13880 <SRAM_BT_BACK_RCODE_ADDR+0x2880>
    ac78:	69726576 	0x69726576
    ac7c:	61636966 	0x61636966
    ac80:	6e6f6974 	0x6e6f6974
    ac84:	6174735f 	0x6174735f
    ac88:	00737574 	teq	v1,s3,0x1d5
    ac8c:	43016609 	c0	0x1016609
    ac90:	02000001 	movf	zero,s0,$fcc0
    ac94:	6e111523 	0x6e111523
    ac98:	5f646565 	0x5f646565
    ac9c:	61647075 	0x61647075
    aca0:	705f6574 	0x705f6574
    aca4:	6c79616c 	0x6c79616c
    aca8:	00747369 	0x747369
    acac:	43016809 	c0	0x1016809
    acb0:	02000001 	movf	zero,s0,$fcc0
    acb4:	65111623 	0x65111623
    acb8:	72657478 	0x72657478
    acbc:	61625f6e 	0x61625f6e
    acc0:	6e695f74 	0x6e695f74
    acc4:	016a0900 	0x16a0900
    acc8:	00000143 	sra	zero,zero,0x5
    accc:	00172302 	srl	a0,s7,0xc
    acd0:	7070610d 	0x7070610d
    acd4:	666e695f 	0x666e695f
    acd8:	74735f6f 	jalx	1cd7dbc <AP_BANK_SPACE+0x1c97dbc>
    acdc:	5f657461 	0x5f657461
    ace0:	6b090074 	0x6b090074
    ace4:	00100701 	0x100701
    ace8:	12f51000 	beq	s7,s5,ecec <SRAM_ASRC_BUF_0_ADDR+0xcec>
    acec:	09040000 	j	4100000 <AP_BANK_SPACE+0x40c0000>
    acf0:	6c11017a 	0x6c11017a
    acf4:	5f747361 	0x5f747361
    acf8:	6b736964 	0x6b736964
    acfc:	01730900 	0x1730900
    ad00:	00000143 	sra	zero,zero,0x5
    ad04:	11002302 	beqz	t0,13910 <SRAM_BT_EXT3_BANK_ADDR+0x10>
    ad08:	7473616c 	jalx	1cd85b0 <AP_BANK_SPACE+0x1c985b0>
    ad0c:	6e75665f 	0x6e75665f
    ad10:	6e695f63 	0x6e695f63
    ad14:	00786564 	0x786564
    ad18:	43017509 	c0	0x1017509
    ad1c:	02000001 	movf	zero,s0,$fcc0
    ad20:	6c110123 	0x6c110123
    ad24:	5f747361 	0x5f747361
    ad28:	5f737973 	0x5f737973
    ad2c:	74617473 	jalx	185d1cc <AP_BANK_SPACE+0x181d1cc>
    ad30:	09007375 	j	401cdd4 <AP_BANK_SPACE+0x3fdcdd4>
    ad34:	01430177 	0x1430177
    ad38:	23020000 	addi	v0,t8,0
    ad3c:	616c1102 	0x616c1102
    ad40:	755f7473 	jalx	57dd1cc <AP_BANK_SPACE+0x579d1cc>
    ad44:	74735f69 	jalx	1cd7da4 <AP_BANK_SPACE+0x1c97da4>
    ad48:	73757461 	0x73757461
    ad4c:	01790900 	0x1790900
    ad50:	00000143 	sra	zero,zero,0x5
    ad54:	00032302 	srl	a0,v1,0xc
    ad58:	7070610d 	0x7070610d
    ad5c:	73616c5f 	udi15	k1,at,t5,0x11
    ad60:	74735f74 	jalx	1cd7dd0 <AP_BANK_SPACE+0x1c97dd0>
    ad64:	5f657461 	0x5f657461
    ad68:	7a090074 	0x7a090074
    ad6c:	00128601 	0x128601
    ad70:	138f1500 	beq	gp,t7,10174 <SRAM_BT_CONTROLLER_RCODE_ADDR+0x174>
    ad74:	66010000 	0x66010000
    ad78:	676e656d 	0x676e656d
    ad7c:	5f656e69 	0x5f656e69
    ad80:	5f746567 	0x5f746567
    ad84:	74617473 	jalx	185d1cc <AP_BANK_SPACE+0x181d1cc>
    ad88:	01007375 	0x1007375
    ad8c:	0c130106 	jal	4c0418 <AP_BANK_SPACE+0x480418>
    ad90:	68010000 	0x68010000
    ad94:	6880600a 	0x6880600a
    ad98:	6101600a 	0x6101600a
    ad9c:	0001e416 	0x1e416
    ada0:	35050100 	ori	a1,t0,0x100
    ada4:	0200000d 	break	0x200
    ada8:	cd172891 	pref	0x17,10385(t0)
    adac:	01000001 	movf	zero,t0,$fcc0
    adb0:	000d3507 	0xd3507
    adb4:	00910200 	0x910200
    adb8:	0001c617 	0x1c617
    adbc:	5e080100 	0x5e080100
    adc0:	02000001 	movf	zero,s0,$fcc0
    adc4:	65180491 	0x65180491
    adc8:	6e69676e 	0x6e69676e
    adcc:	74735f65 	jalx	1cd7d94 <AP_BANK_SPACE+0x1c97d94>
    add0:	73757461 	0x73757461
    add4:	706d745f 	udi15	v1,t5,t6,0x11
    add8:	4a090100 	c2	0x90100
    addc:	02000004 	sllv	zero,zero,s0
    ade0:	6d180891 	0x6d180891
    ade4:	0065646f 	0x65646f
    ade8:	01430a01 	0x1430a01
    adec:	91020000 	lbu	v0,0(t0)
    adf0:	e3150018 	sc	s5,24(t8)
    adf4:	01000013 	mtlo	t0
    adf8:	6e656d66 	0x6e656d66
    adfc:	656e6967 	0x656e6967
    ae00:	7465675f 	jalx	1959d7c <AP_BANK_SPACE+0x1919d7c>
    ae04:	6e61625f 	0x6e61625f
    ae08:	23010064 	addi	at,t8,100
    ae0c:	000c1301 	0xc1301
    ae10:	0a689100 	j	9a24400 <AP_BANK_SPACE+0x99e4400>
    ae14:	0a68e460 	j	9a39180 <AP_BANK_SPACE+0x99f9180>
    ae18:	16610160 	bne	s3,at,b39c <SRAM_AP_BANK_FRONT_BASAL_ADDR+0x39c>
    ae1c:	000001e4 	0x1e4
    ae20:	0d352201 	jal	4d48804 <AP_BANK_SPACE+0x4d08804>
    ae24:	91020000 	lbu	v0,0(t0)
    ae28:	01cd1710 	0x1cd1710
    ae2c:	24010000 	li	at,0
    ae30:	00000d35 	0xd35
    ae34:	17009102 	bnez	t8,fffef240 <get_app_msg+0x403c8d10>
    ae38:	000001c6 	0x1c6
    ae3c:	015e2501 	0x15e2501
    ae40:	91020000 	lbu	v0,0(t0)
    ae44:	3c150004 	lui	s5,0x4
    ae48:	01000014 	0x1000014
    ae4c:	6e656d66 	0x6e656d66
    ae50:	656e6967 	0x656e6967
    ae54:	7465675f 	jalx	1959d7c <AP_BANK_SPACE+0x1919d7c>
    ae58:	746e695f 	jalx	1b9a57c <AP_BANK_SPACE+0x1b5a57c>
    ae5c:	69736e65 	0x69736e65
    ae60:	01007974 	teq	t0,zero,0x1e5
    ae64:	0c130137 	jal	4c04dc <AP_BANK_SPACE+0x4804dc>
    ae68:	68f50000 	0x68f50000
    ae6c:	6948600a 	0x6948600a
    ae70:	6101600a 	0x6101600a
    ae74:	0001e416 	0x1e416
    ae78:	35360100 	ori	s6,t1,0x100
    ae7c:	0200000d 	break	0x200
    ae80:	cd171091 	pref	0x17,4241(t0)
    ae84:	01000001 	movf	zero,t0,$fcc0
    ae88:	000d3538 	0xd3538
    ae8c:	00910200 	0x910200
    ae90:	0001c617 	0x1c617
    ae94:	5e390100 	0x5e390100
    ae98:	02000001 	movf	zero,s0,$fcc0
    ae9c:	15000491 	bnez	t0,c0e4 <SROM_FS_ADDR+0xe4>
    aea0:	000014ab 	0x14ab
    aea4:	656d6601 	0x656d6601
    aea8:	6e69676e 	0x6e69676e
    aeac:	65675f65 	0x65675f65
    aeb0:	6e615f74 	0x6e615f74
    aeb4:	6e6e6574 	0x6e6e6574
    aeb8:	49010061 	bc2t	b040 <SRAM_AP_BANK_FRONT_BASAL_ADDR+0x40>
    aebc:	000c1301 	0xc1301
    aec0:	0a695900 	j	9a56400 <AP_BANK_SPACE+0x9a16400>
    aec4:	0a69ac60 	j	9a6b180 <AP_BANK_SPACE+0x9a2b180>
    aec8:	16610160 	bne	s3,at,b44c <SRAM_AP_BANK_FRONT_BASAL_ADDR+0x44c>
    aecc:	000001e4 	0x1e4
    aed0:	0d354801 	jal	4d52004 <AP_BANK_SPACE+0x4d12004>
    aed4:	91020000 	lbu	v0,0(t0)
    aed8:	01cd1718 	0x1cd1718
    aedc:	4a010000 	c2	0x10000
    aee0:	00000d35 	0xd35
    aee4:	17009102 	bnez	t8,fffef2f0 <get_app_msg+0x403c8dc0>
    aee8:	000001c6 	0x1c6
    aeec:	015e4b01 	0x15e4b01
    aef0:	91020000 	lbu	v0,0(t0)
    aef4:	6e611804 	0x6e611804
    aef8:	616e6574 	0x616e6574
    aefc:	6174735f 	0x6174735f
    af00:	00737574 	teq	v1,s3,0x1d5
    af04:	01434c01 	0x1434c01
    af08:	91020000 	lbu	v0,0(t0)
    af0c:	01150008 	0x1150008
    af10:	01000015 	0x1000015
    af14:	6e656d66 	0x6e656d66
    af18:	656e6967 	0x656e6967
    af1c:	7465675f 	jalx	1959d7c <AP_BANK_SPACE+0x1919d7c>
    af20:	6574735f 	0x6574735f
    af24:	006f6572 	tlt	v1,t7,0x195
    af28:	13015e01 	beq	t8,at,22730 <SRAM_BT_HEAD_ADDR+0x330>
    af2c:	b500000c 	0xb500000c
    af30:	08600a69 	j	18029a4 <AP_BANK_SPACE+0x17c29a4>
    af34:	01600a6a 	0x1600a6a
    af38:	01e41661 	0x1e41661
    af3c:	5d010000 	0x5d010000
    af40:	00000d35 	0xd35
    af44:	17109102 	bne	t8,s0,fffef350 <get_app_msg+0x403c8e20>
    af48:	000001cd 	break	0x0,0x7
    af4c:	0d355f01 	jal	4d57c04 <AP_BANK_SPACE+0x4d17c04>
    af50:	91020000 	lbu	v0,0(t0)
    af54:	01c61700 	0x1c61700
    af58:	60010000 	0x60010000
    af5c:	0000015e 	0x15e
    af60:	00049102 	srl	s2,a0,0x4
    af64:	00154b15 	0x154b15
    af68:	6d660100 	0x6d660100
    af6c:	69676e65 	0x69676e65
    af70:	675f656e 	0x675f656e
    af74:	705f7465 	0x705f7465
    af78:	6679616c 	0x6679616c
    af7c:	0067616c 	0x67616c
    af80:	13017001 	beq	t8,at,26f88 <OFFSET+0x788>
    af84:	1900000c 	blez	t0,afb8 <SRAM_BT_EXT1_BANK_ADDR+0x7b8>
    af88:	48600a6a 	0x48600a6a
    af8c:	01600a6a 	0x1600a6a
    af90:	01e41661 	0x1e41661
    af94:	6f010000 	0x6f010000
    af98:	00000d35 	0xd35
    af9c:	17109102 	bne	t8,s0,fffef3a8 <get_app_msg+0x403c8e78>
    afa0:	000001cd 	break	0x0,0x7
    afa4:	0d357101 	jal	4d5c404 <AP_BANK_SPACE+0x4d1c404>
    afa8:	91020000 	lbu	v0,0(t0)
    afac:	9a150000 	lwr	s5,0(s0)
    afb0:	01000015 	0x1000015
    afb4:	6e656d66 	0x6e656d66
    afb8:	656e6967 	0x656e6967
    afbc:	7465675f 	jalx	1959d7c <AP_BANK_SPACE+0x1919d7c>
    afc0:	646f6d5f 	0x646f6d5f
    afc4:	5f6c6175 	0x5f6c6175
    afc8:	74617473 	jalx	185d1cc <AP_BANK_SPACE+0x181d1cc>
    afcc:	01007375 	0x1007375
    afd0:	0c13017c 	jal	4c05f0 <AP_BANK_SPACE+0x4805f0>
    afd4:	6a510000 	0x6a510000
    afd8:	6a80600a 	0x6a80600a
    afdc:	6101600a 	0x6101600a
    afe0:	0001e416 	0x1e416
    afe4:	357b0100 	ori	k1,t3,0x100
    afe8:	0200000d 	break	0x200
    afec:	cd171091 	pref	0x17,4241(t0)
    aff0:	01000001 	movf	zero,t0,$fcc0
    aff4:	000d357d 	0xd357d
    aff8:	00910200 	0x910200
    affc:	5f671900 	0x5f671900
    b000:	73696874 	0x73696874
    b004:	7070615f 	udi15	v1,s0,t4,0x5
    b008:	6d69745f 	0x6d69745f
    b00c:	745f7265 	jalx	17dc994 <AP_BANK_SPACE+0x179c994>
    b010:	08006761 	j	19d84 <SRAM_AP_FRONT_DATA_ADDR+0x404>
    b014:	00014385 	0x14385
    b018:	1a010100 	0x1a010100
    b01c:	70615f67 	0x70615f67
    b020:	6e695f70 	0x6e695f70
    b024:	735f6f66 	0x735f6f66
    b028:	65746174 	0x65746174
    b02c:	6c6c615f 	0x6c6c615f
    b030:	018e0900 	0x18e0900
    b034:	00000fea 	0xfea
    b038:	671a0101 	0x671a0101
    b03c:	7070615f 	udi15	v1,s0,t4,0x5
    b040:	73616c5f 	udi15	k1,at,t5,0x11
    b044:	74735f74 	jalx	1cd7dd0 <AP_BANK_SPACE+0x1c97dd0>
    b048:	00657461 	0x657461
    b04c:	f5019409 	sdc1	$f1,-27639(t0)
    b050:	01000012 	0x1000012
    b054:	5f671a01 	0x5f671a01
    b058:	5f707061 	0x5f707061
    b05c:	6f666e69 	0x6f666e69
    b060:	6174735f 	0x6174735f
    b064:	09006574 	j	40195d0 <AP_BANK_SPACE+0x3fd95d0>
    b068:	126d019a 	beq	s3,t5,b6d4 <SRAM_AP_BANK_FRONT_BASAL_ADDR+0x6d4>
    b06c:	01010000 	0x1010000
    b070:	665f6719 	0x665f6719
    b074:	676e656d 	0x676e656d
    b078:	5f656e69 	0x5f656e69
    b07c:	74617473 	jalx	185d1cc <AP_BANK_SPACE+0x181d1cc>
    b080:	0b007375 	j	c01cdd4 <AP_BANK_SPACE+0xbfdcdd4>
    b084:	00044a15 	0x44a15
    b088:	19010100 	0x19010100
    b08c:	6f6d5f67 	0x6f6d5f67
    b090:	656c7564 	0x656c7564
    b094:	6174735f 	0x6174735f
    b098:	00737574 	teq	v1,s3,0x1d5
    b09c:	049a170b 	0x49a170b
    b0a0:	01010000 	0x1010000
    b0a4:	001dbf00 	sll	s7,sp,0x1c
    b0a8:	38000200 	xori	zero,zero,0x200
    b0ac:	0400000b 	bltz	zero,b0dc <SRAM_AP_BANK_FRONT_BASAL_ADDR+0xdc>
    b0b0:	0009d501 	0x9d501
    b0b4:	126a2800 	beq	s3,t2,150b8 <SRAM_BT_EXT5_BANK_ADDR+0xab8>
    b0b8:	1269c060 	beq	s3,t1,ffffb23c <get_app_msg+0x403d4d0c>
    b0bc:	554e4760 	bnel	t2,t6,1ce40 <SRAM_OS_TASK_STACK_ADDR+0x1840>
    b0c0:	33204320 	andi	zero,t9,0x4320
    b0c4:	342e342e 	ori	t6,at,0x342e
    b0c8:	70696d20 	0x70696d20
    b0cc:	65647373 	0x65647373
    b0d0:	302e362d 	andi	t6,at,0x362d
    b0d4:	31302e36 	andi	s0,t1,0x2e36
    b0d8:	3030322d 	andi	s0,at,0x322d
    b0dc:	32343037 	andi	s4,s1,0x3037
    b0e0:	66010030 	0x66010030
    b0e4:	676e656d 	0x676e656d
    b0e8:	5f656e69 	0x5f656e69
    b0ec:	7373656d 	0x7373656d
    b0f0:	5f656761 	0x5f656761
    b0f4:	756c6f76 	jalx	5b1bdd8 <AP_BANK_SPACE+0x5adbdd8>
    b0f8:	645f656d 	0x645f656d
    b0fc:	2e6c6165 	sltiu	t4,s3,24933
    b100:	632f0063 	0x632f0063
    b104:	72646779 	0x72646779
    b108:	2f657669 	sltiu	a1,k1,30313
    b10c:	6f532f66 	0x6f532f66
    b110:	735f7466 	0x735f7466
    b114:	412f6b64 	0x412f6b64
    b118:	38325354 	xori	s2,at,0x5354
    b11c:	535f3532 	beql	k0,ra,185e8 <SRAM_FS_BUF_ADDR+0x2e8>
    b120:	565f4b44 	bnel	s2,ra,1de34 <SRAM_BT_HCI_BUF_ADDR+0x534>
    b124:	2f322e34 	sltiu	s2,t9,11828
    b128:	65736163 	0x65736163
    b12c:	2f70612f 	sltiu	s0,k1,24879
    b130:	655f6d66 	0x655f6d66
    b134:	6e69676e 	0x6e69676e
    b138:	75020065 	jalx	4080194 <AP_BANK_SPACE+0x4040194>
    b13c:	6769736e 	0x6769736e
    b140:	2064656e 	addi	a0,v1,25966
    b144:	72616863 	0x72616863
    b148:	03080100 	0x3080100
    b14c:	38544e49 	xori	s4,v0,0x4e49
    b150:	0f080055 	jal	c200154 <AP_BANK_SPACE+0xc1c0154>
    b154:	00000095 	0x95
    b158:	67697302 	0x67697302
    b15c:	2064656e 	addi	a0,v1,25966
    b160:	72616863 	0x72616863
    b164:	02060100 	0x2060100
    b168:	726f6873 	0x726f6873
    b16c:	6e752074 	0x6e752074
    b170:	6e676973 	0x6e676973
    b174:	69206465 	0x69206465
    b178:	0200746e 	0x200746e
    b17c:	68730207 	0x68730207
    b180:	2074726f 	addi	s4,v1,29295
    b184:	00746e69 	0x746e69
    b188:	ec040502 	swc3	$4,1282(zero)
    b18c:	04000001 	bltz	zero,b194 <SRAM_AP_BANK_FRONT_BASAL_ADDR+0x194>
    b190:	6f6c0207 	0x6f6c0207
    b194:	6920676e 	0x6920676e
    b198:	0400746e 	bltz	zero,28354 <SRAM_AP_BACK_CODEC_RCODE_ADDR+0x154>
    b19c:	6c660205 	0x6c660205
    b1a0:	0074616f 	0x74616f
    b1a4:	64020404 	0x64020404
    b1a8:	6c62756f 	0x6c62756f
    b1ac:	04080065 	tgei	zero,101
    b1b0:	6e6f6c02 	0x6e6f6c02
    b1b4:	6f6c2067 	0x6f6c2067
    b1b8:	7520676e 	jalx	4819db8 <AP_BANK_SPACE+0x47d9db8>
    b1bc:	6769736e 	0x6769736e
    b1c0:	2064656e 	addi	a0,v1,25966
    b1c4:	00746e69 	0x746e69
    b1c8:	6c020708 	0x6c020708
    b1cc:	20676e6f 	addi	a3,v1,28271
    b1d0:	676e6f6c 	0x676e6f6c
    b1d4:	746e6920 	jalx	1b9a480 <AP_BANK_SPACE+0x1b5a480>
    b1d8:	02050800 	0x2050800
    b1dc:	69736e75 	0x69736e75
    b1e0:	64656e67 	0x64656e67
    b1e4:	746e6920 	jalx	1b9a480 <AP_BANK_SPACE+0x1b5a480>
    b1e8:	03070400 	0x3070400
    b1ec:	746e6975 	jalx	1b9a5d4 <AP_BANK_SPACE+0x1b5a5d4>
    b1f0:	15040038 	bne	t0,a0,b2d4 <SRAM_AP_BANK_FRONT_BASAL_ADDR+0x2d4>
    b1f4:	00000095 	0x95
    b1f8:	746e6903 	jalx	1b9a40c <AP_BANK_SPACE+0x1b5a40c>
    b1fc:	19040038 	0x19040038
    b200:	000000b3 	tltu	zero,zero,0x2
    b204:	6e697503 	0x6e697503
    b208:	00363174 	teq	at,s6,0xc5
    b20c:	00c21d04 	0xc21d04
    b210:	69030000 	0x69030000
    b214:	3631746e 	ori	s1,s1,0x746e
    b218:	d8210400 	ldc2	$1,1024(at)
    b21c:	03000000 	0x3000000
    b220:	746e6975 	jalx	1b9a5d4 <AP_BANK_SPACE+0x1b5a5d4>
    b224:	04003233 	bltz	zero,17af4 <SRAM_CARD_UD_RCODE_ADDR+0x6f4>
    b228:	00013625 	0x13625
    b22c:	6e690200 	0x6e690200
    b230:	05040074 	0x5040074
    b234:	61686302 	0x61686302
    b238:	06010072 	bgez	s0,b404 <SRAM_AP_BANK_FRONT_BASAL_ADDR+0x404>
    b23c:	0001ec04 	0x1ec04
    b240:	05070400 	0x5070400
    b244:	01b00604 	0x1b00604
    b248:	00950000 	0x950000
    b24c:	97070000 	lhu	a3,0(t8)
    b250:	01000001 	movf	zero,t0,$fcc0
    b254:	022d0800 	0x22d0800
    b258:	050c0000 	teqi	t0,0
    b25c:	736f09e3 	0x736f09e3
    b260:	6576655f 	0x6576655f
    b264:	745f746e 	jalx	17dd1b8 <AP_BANK_SPACE+0x179d1b8>
    b268:	00657079 	0x657079
    b26c:	0095db05 	0x95db05
    b270:	23020000 	addi	v0,t8,0
    b274:	736f0900 	0x736f0900
    b278:	6576655f 	0x6576655f
    b27c:	675f746e 	0x675f746e
    b280:	05007072 	bltz	t0,2744c <SRAM_RAM2_RESEVER2_ADDR+0x44c>
    b284:	000095dc 	0x95dc
    b288:	01230200 	0x1230200
    b28c:	5f736f09 	0x5f736f09
    b290:	6e657665 	0x6e657665
    b294:	6e635f74 	0x6e635f74
    b298:	dd050074 	ldc3	$5,116(t0)
    b29c:	000000c2 	srl	zero,zero,0x3
    b2a0:	09022302 	j	4088c08 <AP_BANK_SPACE+0x4048c08>
    b2a4:	655f736f 	0x655f736f
    b2a8:	746e6576 	jalx	1b995d8 <AP_BANK_SPACE+0x1b595d8>
    b2ac:	7274705f 	udi15	s3,s4,t6,0x1
    b2b0:	9ede0500 	0x9ede0500
    b2b4:	02000001 	movf	zero,s0,$fcc0
    b2b8:	6f090423 	0x6f090423
    b2bc:	76655f73 	jalx	9957dcc <AP_BANK_SPACE+0x9917dcc>
    b2c0:	5f746e65 	0x5f746e65
    b2c4:	006c6274 	teq	v1,t4,0x189
    b2c8:	01a0df05 	0x1a0df05
    b2cc:	23020000 	addi	v0,t8,0
    b2d0:	6f030008 	0x6f030008
    b2d4:	76655f73 	jalx	9957dcc <AP_BANK_SPACE+0x9917dcc>
    b2d8:	5f746e65 	0x5f746e65
    b2dc:	e3050074 	sc	a1,116(t8)
    b2e0:	000001b0 	tge	zero,zero,0x6
    b2e4:	022d040a 	0x22d040a
    b2e8:	55060000 	bnel	t0,a2,b2ec <SRAM_AP_BANK_FRONT_BASAL_ADDR+0x2ec>
    b2ec:	d8000002 	ldc2	$0,2(zero)
    b2f0:	07000000 	bltz	t8,b2f4 <SRAM_AP_BANK_FRONT_BASAL_ADDR+0x2f4>
    b2f4:	00000197 	0x197
    b2f8:	65060009 	0x65060009
    b2fc:	46000002 	mul.s	$f0,$f0,$f0
    b300:	07000001 	bltz	t8,b308 <SRAM_AP_BANK_FRONT_BASAL_ADDR+0x308>
    b304:	00000197 	0x197
    b308:	75060003 	jalx	418000c <AP_BANK_SPACE+0x414000c>
    b30c:	46000002 	mul.s	$f0,$f0,$f0
    b310:	07000001 	bltz	t8,b318 <SRAM_AP_BANK_FRONT_BASAL_ADDR+0x318>
    b314:	00000197 	0x197
    b318:	d70b0002 	ldc1	$f11,2(t8)
    b31c:	02000009 	jalr	zero,s0
    b320:	520ce302 	beql	s0,t4,3f2c <SROM_STUB_ADDR_MDY+0x42c>
    b324:	4c555345 	0x4c555345
    b328:	554e5f54 	bnel	t2,t6,2307c <SRAM_BT_HEAD_ADDR+0xc7c>
    b32c:	00004c4c 	syscall	0x131
    b330:	5345520c 	beql	k0,a1,1fb64 <SRAM_KEY_MESSAGE_RCODE_ADDR+0x364>
    b334:	5f544c55 	0x5f544c55
    b338:	4f4e4749 	c3	0x14e4749
    b33c:	01004552 	0x1004552
    b340:	5345520c 	beql	k0,a1,1fb74 <SRAM_KEY_MESSAGE_RCODE_ADDR+0x374>
    b344:	5f544c55 	0x5f544c55
    b348:	454e4f4e 	0x454e4f4e
    b34c:	4556455f 	0x4556455f
    b350:	0200544e 	0x200544e
    b354:	5345520c 	beql	k0,a1,1fb88 <SRAM_KEY_MESSAGE_RCODE_ADDR+0x388>
    b358:	5f544c55 	0x5f544c55
    b35c:	5f504352 	0x5f504352
    b360:	575f434c 	bnel	k0,ra,1c094 <SRAM_OS_TASK_STACK_ADDR+0xa94>
    b364:	00544941 	0x544941
    b368:	45520c03 	0x45520c03
    b36c:	544c5553 	bnel	v0,t4,208bc <SRAM_AP_BANK_FRONT_CONTROL_ADDR+0x6bc>
    b370:	4d4f435f 	0x4d4f435f
    b374:	5f4e4f4d 	0x5f4e4f4d
    b378:	45534552 	0x45534552
    b37c:	00455652 	0x455652
    b380:	45520c20 	0x45520c20
    b384:	544c5553 	bnel	v0,t4,208d4 <SRAM_AP_BANK_FRONT_CONTROL_ADDR+0x6d4>
    b388:	5252455f 	beql	s2,s2,1c908 <SRAM_OS_TASK_STACK_ADDR+0x1308>
    b38c:	8000524f 	lb	zero,21071(zero)
    b390:	45520c01 	0x45520c01
    b394:	544c5553 	bnel	v0,t4,208e4 <SRAM_AP_BANK_FRONT_CONTROL_ADDR+0x6e4>
    b398:	4341425f 	c0	0x141425f
    b39c:	43535f4b 	c0	0x1535f4b
    b3a0:	5f454e45 	0x5f454e45
    b3a4:	50534944 	beql	v0,s3,1d8b8 <SRAM_BANK_C_ADDR+0x3b8>
    b3a8:	48435441 	0x48435441
    b3ac:	0c018100 	jal	60400 <AP_BANK_SPACE+0x20400>
    b3b0:	55534552 	bnel	t2,s3,1c8fc <SRAM_OS_TASK_STACK_ADDR+0x12fc>
    b3b4:	535f544c 	beql	k0,ra,204e8 <SRAM_AP_BANK_FRONT_CONTROL_ADDR+0x2e8>
    b3b8:	454e4543 	0x454e4543
    b3bc:	4958455f 	0x4958455f
    b3c0:	01820054 	0x1820054
    b3c4:	5345520c 	beql	k0,a1,1fbf8 <SRAM_KEY_MESSAGE_RCODE_ADDR+0x3f8>
    b3c8:	5f544c55 	0x5f544c55
    b3cc:	5f59454b 	0x5f59454b
    b3d0:	4e455645 	c3	0x455645
    b3d4:	45525f54 	0x45525f54
    b3d8:	4c414544 	0x4c414544
    b3dc:	5f59425f 	0x5f59425f
    b3e0:	4d4d4f43 	0x4d4d4f43
    b3e4:	83004e4f 	lb	zero,20047(t8)
    b3e8:	45520c01 	0x45520c01
    b3ec:	544c5553 	bnel	v0,t4,2093c <SRAM_AP_BANK_FRONT_CONTROL_ADDR+0x73c>
    b3f0:	5359535f 	beql	k0,t9,20170 <SRAM_RAM2_RESEVER_ADDR+0x50>
    b3f4:	47534d5f 	c1	0x1534d5f
    b3f8:	4445525f 	0x4445525f
    b3fc:	5f4c4145 	0x5f4c4145
    b400:	435f5942 	c0	0x15f5942
    b404:	4f4d4d4f 	c3	0x14d4d4f
    b408:	0184004e 	0x184004e
    b40c:	5345520c 	beql	k0,a1,1fc40 <SRAM_KEY_MESSAGE_RCODE_ADDR+0x440>
    b410:	5f544c55 	0x5f544c55
    b414:	43524f46 	c0	0x1524f46
    b418:	54545f45 	bnel	v0,s4,23130 <SRAM_BT_HEAD_ADDR+0xd30>
    b41c:	54535f53 	bnel	v0,s3,2316c <SRAM_BT_HEAD_ADDR+0xd6c>
    b420:	8500504f 	lh	zero,20559(t0)
    b424:	45520c01 	0x45520c01
    b428:	544c5553 	bnel	v0,t4,20978 <SRAM_AP_BANK_FRONT_CONTROL_ADDR+0x778>
    b42c:	544e455f 	bnel	v0,t6,1c9ac <SRAM_OS_TASK_STACK_ADDR+0x13ac>
    b430:	4f5f5245 	c3	0x15f5245
    b434:	555f4154 	bnel	t2,ra,1b988 <SRAM_OS_TASK_STACK_ADDR+0x388>
    b438:	41524750 	0x41524750
    b43c:	a1004544 	sb	zero,17732(t0)
    b440:	45520c01 	0x45520c01
    b444:	544c5553 	bnel	v0,t4,20994 <SRAM_AP_BANK_FRONT_CONTROL_ADDR+0x794>
    b448:	5345545f 	beql	k0,a1,205c8 <SRAM_AP_BANK_FRONT_CONTROL_ADDR+0x3c8>
    b44c:	5f504154 	0x5f504154
    b450:	54495551 	bnel	v0,t1,20998 <SRAM_AP_BANK_FRONT_CONTROL_ADDR+0x798>
    b454:	0c01ff00 	jal	7fc00 <AP_BANK_SPACE+0x3fc00>
    b458:	55534552 	bnel	t2,s3,1c9a4 <SRAM_OS_TASK_STACK_ADDR+0x13a4>
    b45c:	415f544c 	0x415f544c
    b460:	515f5050 	beql	t2,ra,1f5a4 <SRAM_BT_RCODE_DATA_ADDR+0x4a4>
    b464:	00544955 	0x544955
    b468:	520c0280 	beql	s0,t4,be6c <SRAM_KEY_MESSAGE_DATA_ADDR+0x6c>
    b46c:	4c555345 	0x4c555345
    b470:	554d5f54 	bnel	t2,t5,231c4 <SRAM_BT_HEAD_ADDR+0xdc4>
    b474:	5f434953 	0x5f434953
    b478:	59414c50 	0x59414c50
    b47c:	0c028100 	jal	a0400 <AP_BANK_SPACE+0x60400>
    b480:	55534552 	bnel	t2,s3,1c9cc <SRAM_OS_TASK_STACK_ADDR+0x13cc>
    b484:	4d5f544c 	0x4d5f544c
    b488:	43495355 	c0	0x1495355
    b48c:	4c50435f 	0x4c50435f
    b490:	82005941 	lb	zero,22849(s0)
    b494:	45520c02 	0x45520c02
    b498:	544c5553 	bnel	v0,t4,209e8 <SRAM_AP_BANK_FRONT_CONTROL_ADDR+0x7e8>
    b49c:	53554d5f 	beql	k0,s5,1ea1c <SRAM_AP_FRONT_RCODE_ADDR+0x11c>
    b4a0:	555f4349 	bnel	t2,ra,1c1c8 <SRAM_OS_TASK_STACK_ADDR+0xbc8>
    b4a4:	59414c50 	0x59414c50
    b4a8:	0c028300 	jal	a0c00 <AP_BANK_SPACE+0x60c00>
    b4ac:	55534552 	bnel	t2,s3,1c9f8 <SRAM_OS_TASK_STACK_ADDR+0x13f8>
    b4b0:	455f544c 	0x455f544c
    b4b4:	5245544e 	beql	s2,a1,205f0 <SRAM_AP_BANK_FRONT_CONTROL_ADDR+0x3f0>
    b4b8:	4e494c5f 	c3	0x494c5f
    b4bc:	004e4945 	0x4e4945
    b4c0:	520c0284 	beql	s0,t4,bed4 <SRAM_KEY_MESSAGE_DATA_ADDR+0xd4>
    b4c4:	4c555345 	0x4c555345
    b4c8:	41525f54 	0x41525f54
    b4cc:	004f4944 	0x4f4944
    b4d0:	520c0285 	beql	s0,t4,bee8 <SRAM_KEY_MESSAGE_DATA_ADDR+0xe8>
    b4d4:	4c555345 	0x4c555345
    b4d8:	4c425f54 	0x4c425f54
    b4dc:	45544555 	0x45544555
    b4e0:	5f485445 	0x5f485445
    b4e4:	4e554f53 	c3	0x554f53
    b4e8:	02860044 	0x2860044
    b4ec:	5345520c 	beql	k0,a1,1fd20 <SRAM_KEY_MESSAGE_RCODE_ADDR+0x520>
    b4f0:	5f544c55 	0x5f544c55
    b4f4:	45554c42 	0x45554c42
    b4f8:	54454554 	bnel	v0,a1,1ca4c <SRAM_OS_TASK_STACK_ADDR+0x144c>
    b4fc:	41435f48 	0x41435f48
    b500:	87004c4c 	lh	zero,19532(t8)
    b504:	45520c02 	0x45520c02
    b508:	544c5553 	bnel	v0,t4,20a58 <SRAM_KERNEL_XSYS_ADDR+0x58>
    b50c:	554c425f 	bnel	t2,t4,1be8c <SRAM_OS_TASK_STACK_ADDR+0x88c>
    b510:	45455445 	0x45455445
    b514:	435f4854 	c0	0x15f4854
    b518:	5f4c4c41 	0x5f4c4c41
    b51c:	4b434142 	c2	0x1434142
    b520:	554f5247 	bnel	t2,t7,1fe40 <SRAM_KEY_MESSAGE_RCODE_ADDR+0x640>
    b524:	8800444e 	lwl	zero,17486(zero)
    b528:	45520c02 	0x45520c02
    b52c:	544c5553 	bnel	v0,t4,20a7c <SRAM_KERNEL_XSYS_ADDR+0x7c>
    b530:	4253555f 	c0	0x53555f
    b534:	554f535f 	bnel	t2,t7,202b4 <SRAM_AP_BANK_FRONT_CONTROL_ADDR+0xb4>
    b538:	8900444e 	lwl	zero,17486(t0)
    b53c:	45520c02 	0x45520c02
    b540:	544c5553 	bnel	v0,t4,20a90 <SRAM_KERNEL_XSYS_ADDR+0x90>
    b544:	574f505f 	bnel	k0,t7,1f6c4 <SRAM_BT_RCODE_DATA_ADDR+0x5c4>
    b548:	4f5f5245 	c3	0x15f5245
    b54c:	8a004646 	lwl	zero,17990(s0)
    b550:	45520c02 	0x45520c02
    b554:	544c5553 	bnel	v0,t4,20aa4 <SRAM_KERNEL_XSYS_ADDR+0xa4>
    b558:	574f4c5f 	bnel	k0,t7,1e6d8 <SRAM_BT_HCI_BUF_ADDR+0xdd8>
    b55c:	574f505f 	bnel	k0,t7,1f6dc <SRAM_BT_RCODE_DATA_ADDR+0x5dc>
    b560:	8b005245 	lwl	zero,21061(t8)
    b564:	45520c02 	0x45520c02
    b568:	544c5553 	bnel	v0,t4,20ab8 <SRAM_KERNEL_XSYS_ADDR+0xb8>
    b56c:	4253555f 	c0	0x53555f
    b570:	4152545f 	0x4152545f
    b574:	8c00534e 	lw	zero,21326(zero)
    b578:	45520c02 	0x45520c02
    b57c:	544c5553 	bnel	v0,t4,20acc <SRAM_KERNEL_XSYS_ADDR+0xcc>
    b580:	4345525f 	c0	0x145525f
    b584:	5f44524f 	0x5f44524f
    b588:	414c5043 	0x414c5043
    b58c:	028d0059 	0x28d0059
    b590:	5345520c 	beql	k0,a1,1fdc4 <SRAM_KEY_MESSAGE_RCODE_ADDR+0x5c4>
    b594:	5f544c55 	0x5f544c55
    b598:	4f434552 	c3	0x1434552
    b59c:	555f4452 	bnel	t2,ra,1c6e8 <SRAM_OS_TASK_STACK_ADDR+0x10e8>
    b5a0:	59414c50 	0x59414c50
    b5a4:	0c028e00 	jal	a3800 <AP_BANK_SPACE+0x63800>
    b5a8:	55534552 	bnel	t2,s3,1caf4 <SRAM_OS_TASK_STACK_ADDR+0x14f4>
    b5ac:	525f544c 	beql	s2,ra,206e0 <SRAM_AP_BANK_FRONT_CONTROL_ADDR+0x4e0>
    b5b0:	524f4345 	beql	s2,t7,1c2c8 <SRAM_OS_TASK_STACK_ADDR+0xcc8>
    b5b4:	494c5f44 	0x494c5f44
    b5b8:	4e49454e 	c3	0x49454e
    b5bc:	434f545f 	c0	0x14f545f
    b5c0:	0c028f00 	jal	a3c00 <AP_BANK_SPACE+0x63c00>
    b5c4:	55534552 	bnel	t2,s3,1cb10 <SRAM_OS_TASK_STACK_ADDR+0x1510>
    b5c8:	525f544c 	beql	s2,ra,206fc <SRAM_AP_BANK_FRONT_CONTROL_ADDR+0x4fc>
    b5cc:	524f4345 	beql	s2,t7,1c2e4 <SRAM_OS_TASK_STACK_ADDR+0xce4>
    b5d0:	4d465f44 	0x4d465f44
    b5d4:	434f545f 	c0	0x14f545f
    b5d8:	0c029000 	jal	a4000 <AP_BANK_SPACE+0x64000>
    b5dc:	55534552 	bnel	t2,s3,1cb28 <SRAM_OS_TASK_STACK_ADDR+0x1528>
    b5e0:	525f544c 	beql	s2,ra,20714 <SRAM_AP_BANK_FRONT_CONTROL_ADDR+0x514>
    b5e4:	524f4345 	beql	s2,t7,1c2fc <SRAM_OS_TASK_STACK_ADDR+0xcfc>
    b5e8:	494d5f44 	0x494d5f44
    b5ec:	4f545f43 	c3	0x1545f43
    b5f0:	02910043 	0x2910043
    b5f4:	5345520c 	beql	k0,a1,1fe28 <SRAM_KEY_MESSAGE_RCODE_ADDR+0x628>
    b5f8:	5f544c55 	0x5f544c55
    b5fc:	4f434552 	c3	0x1434552
    b600:	4c5f4452 	0x4c5f4452
    b604:	49454e49 	0x49454e49
    b608:	4f545f4e 	c3	0x1545f4e
    b60c:	02920055 	0x2920055
    b610:	5345520c 	beql	k0,a1,1fe44 <SRAM_KEY_MESSAGE_RCODE_ADDR+0x644>
    b614:	5f544c55 	0x5f544c55
    b618:	4f434552 	c3	0x1434552
    b61c:	465f4452 	c1	0x5f4452
    b620:	4f545f4d 	c3	0x1545f4d
    b624:	02930055 	0x2930055
    b628:	5345520c 	beql	k0,a1,1fe5c <SRAM_KEY_MESSAGE_RCODE_ADDR+0x65c>
    b62c:	5f544c55 	0x5f544c55
    b630:	4f434552 	c3	0x1434552
    b634:	4d5f4452 	0x4d5f4452
    b638:	545f4349 	bnel	v0,ra,1c360 <SRAM_OS_TASK_STACK_ADDR+0xd60>
    b63c:	9400554f 	lhu	zero,21839(zero)
    b640:	45520c02 	0x45520c02
    b644:	544c5553 	bnel	v0,t4,20b94 <SRAM_KERNEL_XSYS_ADDR+0x194>
    b648:	53414c5f 	beql	k0,at,1e7c8 <SRAM_BT_HCI_BUF_ADDR+0xec8>
    b64c:	414c5054 	0x414c5054
    b650:	02950059 	0x2950059
    b654:	5345520c 	beql	k0,a1,1fe88 <SRAM_KEY_MESSAGE_RCODE_ADDR+0x688>
    b658:	5f544c55 	0x5f544c55
    b65c:	5458454e 	bnel	v0,t8,1cb98 <SRAM_OS_TASK_STACK_ADDR+0x1598>
    b660:	4e55465f 	c3	0x55465f
    b664:	4f495443 	c3	0x1495443
    b668:	0296004e 	0x296004e
    b66c:	5345520c 	beql	k0,a1,1fea0 <SRAM_KEY_MESSAGE_RCODE_ADDR+0x6a0>
    b670:	5f544c55 	0x5f544c55
    b674:	45544e45 	0x45544e45
    b678:	50555f52 	beql	v0,s5,233c4 <SRAM_BT_HEAD_ADDR+0xfc4>
    b67c:	44415247 	0x44415247
    b680:	02970045 	0x2970045
    b684:	5345520c 	beql	k0,a1,1feb8 <SRAM_KEY_MESSAGE_RCODE_ADDR+0x6b8>
    b688:	5f544c55 	0x5f544c55
    b68c:	4e49414d 	c3	0x49414d
    b690:	5050415f 	beql	v0,s0,1bc10 <SRAM_OS_TASK_STACK_ADDR+0x610>
    b694:	0c029800 	jal	a6000 <AP_BANK_SPACE+0x66000>
    b698:	55534552 	bnel	t2,s3,1cbe4 <SRAM_OS_TASK_STACK_ADDR+0x15e4>
    b69c:	455f544c 	0x455f544c
    b6a0:	5245544e 	beql	s2,a1,207dc <SRAM_AP_BANK_FRONT_CONTROL_ADDR+0x5dc>
    b6a4:	414c415f 	0x414c415f
    b6a8:	99004d52 	lwr	zero,19794(t0)
    b6ac:	45520c02 	0x45520c02
    b6b0:	544c5553 	bnel	v0,t4,20c00 <SRAM_KERNEL_XSYS_ADDR+0x200>
    b6b4:	414c415f 	0x414c415f
    b6b8:	535f4d52 	beql	k0,ra,1ec04 <SRAM_AP_FRONT_RCODE_ADDR+0x304>
    b6bc:	5a4f4f4e 	0x5a4f4f4e
    b6c0:	029a0045 	0x29a0045
    b6c4:	5345520c 	beql	k0,a1,1fef8 <SRAM_KEY_MESSAGE_RCODE_ADDR+0x6f8>
    b6c8:	5f544c55 	0x5f544c55
    b6cc:	52414c41 	beql	s2,at,1e7d4 <SRAM_BT_HCI_BUF_ADDR+0xed4>
    b6d0:	4c435f4d 	0x4c435f4d
    b6d4:	0045534f 	0x45534f
    b6d8:	520c029b 	beql	s0,t4,c148 <SROM_FS_ADDR+0x148>
    b6dc:	4c555345 	0x4c555345
    b6e0:	4c415f54 	0x4c415f54
    b6e4:	5f4d5241 	0x5f4d5241
    b6e8:	474e4952 	c1	0x14e4952
    b6ec:	4c4f465f 	0x4c4f465f
    b6f0:	5f524544 	0x5f524544
    b6f4:	4e414353 	c3	0x414353
    b6f8:	0c029c00 	jal	a7000 <AP_BANK_SPACE+0x67000>
    b6fc:	55534552 	bnel	t2,s3,1cc48 <SRAM_OS_TASK_STACK_ADDR+0x1648>
    b700:	415f544c 	0x415f544c
    b704:	5f4f5455 	0x5f4f5455
    b708:	52414553 	beql	s2,at,1cc58 <SRAM_OS_TASK_STACK_ADDR+0x1658>
    b70c:	9d004843 	0x9d004843
    b710:	45520c02 	0x45520c02
    b714:	544c5553 	bnel	v0,t4,20c64 <SRAM_KERNEL_XSYS_ADDR+0x264>
    b718:	4e414d5f 	c3	0x414d5f
    b71c:	5f4c4155 	0x5f4c4155
    b720:	52414553 	beql	s2,at,1cc70 <SRAM_OS_TASK_STACK_ADDR+0x1670>
    b724:	555f4843 	bnel	t2,ra,1d834 <SRAM_BANK_C_ADDR+0x334>
    b728:	029e0050 	0x29e0050
    b72c:	5345520c 	beql	k0,a1,1ff60 <SRAM_KEY_MESSAGE_RCODE_ADDR+0x760>
    b730:	5f544c55 	0x5f544c55
    b734:	554e414d 	bnel	t2,t6,1bc6c <SRAM_OS_TASK_STACK_ADDR+0x66c>
    b738:	535f4c41 	beql	k0,ra,1e840 <SRAM_BT_HCI_BUF_ADDR+0xf40>
    b73c:	43524145 	c0	0x1524145
    b740:	4f445f48 	c3	0x1445f48
    b744:	9f004e57 	0x9f004e57
    b748:	45520c02 	0x45520c02
    b74c:	544c5553 	bnel	v0,t4,20c9c <SRAM_KERNEL_XSYS_ADDR+0x29c>
    b750:	4f54535f 	c3	0x154535f
    b754:	45535f50 	0x45535f50
    b758:	48435241 	0x48435241
    b75c:	0c02a000 	jal	a8000 <AP_BANK_SPACE+0x68000>
    b760:	55534552 	bnel	t2,s3,1ccac <SRAM_OS_TASK_STACK_ADDR+0x16ac>
    b764:	435f544c 	c0	0x15f544c
    b768:	49464e4f 	0x49464e4f
    b76c:	48435f47 	0x48435f47
    b770:	45475241 	0x45475241
    b774:	0c02a100 	jal	a8400 <AP_BANK_SPACE+0x68400>
    b778:	55534552 	bnel	t2,s3,1ccc4 <SRAM_OS_TASK_STACK_ADDR+0x16c4>
    b77c:	435f544c 	c0	0x15f544c
    b780:	49464e4f 	0x49464e4f
    b784:	48435f47 	0x48435f47
    b788:	45475241 	0x45475241
    b78c:	4955515f 	0x4955515f
    b790:	02a20054 	0x2a20054
    b794:	5345520c 	beql	k0,a1,1ffc8 <SRAM_KEY_MESSAGE_RCODE_ADDR+0x7c8>
    b798:	5f544c55 	0x5f544c55
    b79c:	45544e45 	0x45544e45
    b7a0:	53415f52 	beql	k0,at,234ec <SRAM_BT_HEAD_ADDR+0x10ec>
    b7a4:	485f5451 	0x485f5451
    b7a8:	45545f46 	0x45545f46
    b7ac:	a3005453 	sb	zero,21587(t8)
    b7b0:	45520c02 	0x45520c02
    b7b4:	544c5553 	bnel	v0,t4,20d04 <SRAM_KERNEL_XSYS_ADDR+0x304>
    b7b8:	544e455f 	bnel	v0,t6,1cd38 <SRAM_OS_TASK_STACK_ADDR+0x1738>
    b7bc:	555f5245 	bnel	t2,ra,200d4 <SRAM_DSP_IRQ_TABLE_ADDR+0xd4>
    b7c0:	31524553 	andi	s2,t2,0x4553
    b7c4:	0c02a400 	jal	a9000 <AP_BANK_SPACE+0x69000>
    b7c8:	55534552 	bnel	t2,s3,1cd14 <SRAM_OS_TASK_STACK_ADDR+0x1714>
    b7cc:	535f544c 	beql	k0,ra,20900 <SRAM_AP_BANK_FRONT_CONTROL_ADDR+0x700>
    b7d0:	45545359 	0x45545359
    b7d4:	4e455f4d 	c3	0x455f4d
    b7d8:	5f524554 	0x5f524554
    b7dc:	a5003353 	sh	zero,13139(t0)
    b7e0:	45520c02 	0x45520c02
    b7e4:	544c5553 	bnel	v0,t4,20d34 <SRAM_KERNEL_XSYS_ADDR+0x334>
    b7e8:	5359535f 	beql	k0,t9,20568 <SRAM_AP_BANK_FRONT_CONTROL_ADDR+0x368>
    b7ec:	5f4d4554 	0x5f4d4554
    b7f0:	54495845 	bnel	v0,t1,21908 <SRAM_AP_BACK_BASAL_RCODE_ADDR+0x108>
    b7f4:	0033535f 	0x33535f
    b7f8:	520c02a6 	beql	s0,t4,c294 <SROM_FS_ADDR+0x294>
    b7fc:	4c555345 	0x4c555345
    b800:	4e455f54 	c3	0x455f54
    b804:	5f524554 	0x5f524554
    b808:	42555453 	c0	0x555453
    b80c:	4245445f 	c0	0x45445f
    b810:	a7004755 	sh	zero,18261(t8)
    b814:	45520c02 	0x45520c02
    b818:	544c5553 	bnel	v0,t4,20d68 <SRAM_KERNEL_XSYS_ADDR+0x368>
    b81c:	4453455f 	0x4453455f
    b820:	5345525f 	beql	k0,a1,201a0 <SRAM_RAM2_RESEVER_ADDR+0x80>
    b824:	54524154 	bnel	v0,s2,1bd78 <SRAM_OS_TASK_STACK_ADDR+0x778>
    b828:	0c02a800 	jal	aa000 <AP_BANK_SPACE+0x6a000>
    b82c:	55534552 	bnel	t2,s3,1cd78 <SRAM_OS_TASK_STACK_ADDR+0x1778>
    b830:	495f544c 	0x495f544c
    b834:	5f454c44 	0x5f454c44
    b838:	45444f4d 	0x45444f4d
    b83c:	0c02a900 	jal	aa400 <AP_BANK_SPACE+0x6a400>
    b840:	55534552 	bnel	t2,s3,1cd8c <SRAM_OS_TASK_STACK_ADDR+0x178c>
    b844:	455f544c 	0x455f544c
    b848:	5245544e 	beql	s2,a1,20984 <SRAM_AP_BANK_FRONT_CONTROL_ADDR+0x784>
    b84c:	41544f5f 	0x41544f5f
    b850:	4e4f535f 	c3	0x4f535f
    b854:	45545f47 	0x45545f47
    b858:	aa005453 	swl	zero,21587(s0)
    b85c:	45520c02 	0x45520c02
    b860:	544c5553 	bnel	v0,t4,20db0 <SRAM_KERNEL_XSYS_ADDR+0x3b0>
    b864:	414c505f 	0x414c505f
    b868:	44535f59 	0x44535f59
    b86c:	49465f44 	0x49465f44
    b870:	00363144 	0x363144
    b874:	520c02ab 	beql	s0,t4,c324 <SROM_FS_ADDR+0x324>
    b878:	4c555345 	0x4c555345
    b87c:	4c505f54 	0x4c505f54
    b880:	535f5941 	beql	k0,ra,21d88 <SRAM_AP_BACK_BASAL_RCODE_ADDR+0x588>
    b884:	465f4444 	c1	0x5f4444
    b888:	37314449 	ori	s1,t9,0x4449
    b88c:	0c02ac00 	jal	ab000 <AP_BANK_SPACE+0x6b000>
    b890:	55534552 	bnel	t2,s3,1cddc <SRAM_OS_TASK_STACK_ADDR+0x17dc>
    b894:	505f544c 	beql	v0,ra,209c8 <SRAM_AP_BANK_FRONT_CONTROL_ADDR+0x7c8>
    b898:	5f59414c 	0x5f59414c
    b89c:	5f444453 	0x5f444453
    b8a0:	31444946 	andi	a0,t2,0x4946
    b8a4:	02ad0038 	0x2ad0038
    b8a8:	5345520c 	beql	k0,a1,200dc <SRAM_DSP_IRQ_TABLE_ADDR+0xdc>
    b8ac:	5f544c55 	0x5f544c55
    b8b0:	59414c50 	0x59414c50
    b8b4:	4444535f 	0x4444535f
    b8b8:	4449465f 	0x4449465f
    b8bc:	ae003931 	sw	zero,14641(s0)
    b8c0:	45520c02 	0x45520c02
    b8c4:	544c5553 	bnel	v0,t4,20e14 <SRAM_KERNEL_XSYS_ADDR+0x414>
    b8c8:	414c505f 	0x414c505f
    b8cc:	44535f59 	0x44535f59
    b8d0:	49465f44 	0x49465f44
    b8d4:	00303244 	0x303244
    b8d8:	520c02af 	beql	s0,t4,c398 <SROM_FS_ADDR+0x398>
    b8dc:	4c555345 	0x4c555345
    b8e0:	4c505f54 	0x4c505f54
    b8e4:	535f5941 	beql	k0,ra,21dec <SRAM_AP_BACK_BASAL_RCODE_ADDR+0x5ec>
    b8e8:	465f4444 	c1	0x5f4444
    b8ec:	31324449 	andi	s2,t1,0x4449
    b8f0:	0c02b000 	jal	ac000 <AP_BANK_SPACE+0x6c000>
    b8f4:	55534552 	bnel	t2,s3,1ce40 <SRAM_OS_TASK_STACK_ADDR+0x1840>
    b8f8:	505f544c 	beql	v0,ra,20a2c <SRAM_KERNEL_XSYS_ADDR+0x2c>
    b8fc:	5f59414c 	0x5f59414c
    b900:	5f444453 	0x5f444453
    b904:	32444946 	andi	a0,s2,0x4946
    b908:	02b10032 	tlt	s5,s1
    b90c:	5345520c 	beql	k0,a1,20140 <SRAM_RAM2_RESEVER_ADDR+0x20>
    b910:	5f544c55 	0x5f544c55
    b914:	59414c50 	0x59414c50
    b918:	4444535f 	0x4444535f
    b91c:	4449465f 	0x4449465f
    b920:	b2003332 	0xb2003332
    b924:	45520c02 	0x45520c02
    b928:	544c5553 	bnel	v0,t4,20e78 <SRAM_KERNEL_XSYS_ADDR+0x478>
    b92c:	414c505f 	0x414c505f
    b930:	44535f59 	0x44535f59
    b934:	49465f44 	0x49465f44
    b938:	00343244 	0x343244
    b93c:	520c02b3 	beql	s0,t4,c40c <SROM_FS_ADDR+0x40c>
    b940:	4c555345 	0x4c555345
    b944:	4c505f54 	0x4c505f54
    b948:	535f5941 	beql	k0,ra,21e50 <SRAM_AP_BANK_BACK_BASAL_ADDR+0x50>
    b94c:	465f4444 	c1	0x5f4444
    b950:	35324449 	ori	s2,t1,0x4449
    b954:	0c02b400 	jal	ad000 <AP_BANK_SPACE+0x6d000>
    b958:	55534552 	bnel	t2,s3,1cea4 <SRAM_OS_TASK_STACK_ADDR+0x18a4>
    b95c:	455f544c 	0x455f544c
    b960:	5245544e 	beql	s2,a1,20a9c <SRAM_KERNEL_XSYS_ADDR+0x9c>
    b964:	5f54425f 	0x5f54425f
    b968:	00504244 	0x504244
    b96c:	520c02b5 	beql	s0,t4,c444 <SROM_FS_ADDR+0x444>
    b970:	4c555345 	0x4c555345
    b974:	49445f54 	0x49445f54
    b978:	474f4c41 	c1	0x14f4c41
    b97c:	004b4f5f 	0x4b4f5f
    b980:	520c0480 	beql	s0,t4,cb84 <SROM_FS_ADDR+0xb84>
    b984:	4c555345 	0x4c555345
    b988:	49445f54 	0x49445f54
    b98c:	474f4c41 	c1	0x14f4c41
    b990:	4e41435f 	c3	0x41435f
    b994:	004c4543 	0x4c4543
    b998:	520c0481 	beql	s0,t4,cba0 <SROM_FS_ADDR+0xba0>
    b99c:	4c555345 	0x4c555345
    b9a0:	49445f54 	0x49445f54
    b9a4:	474f4c41 	c1	0x14f4c41
    b9a8:	4f42415f 	c3	0x142415f
    b9ac:	82005452 	lb	zero,21586(s0)
    b9b0:	45520c04 	0x45520c04
    b9b4:	544c5553 	bnel	v0,t4,20f04 <SRAM_KERNEL_XSYS_ADDR+0x504>
    b9b8:	4149445f 	0x4149445f
    b9bc:	5f474f4c 	0x5f474f4c
    b9c0:	52544552 	beql	s2,s4,1cf0c <SRAM_OS_TASK_STACK_ADDR+0x190c>
    b9c4:	04830059 	bgezl	a0,bb2c <SRAM_AP_BANK_FRONT_BASAL_ADDR+0xb2c>
    b9c8:	5345520c 	beql	k0,a1,201fc <SRAM_RAM2_RESEVER_ADDR+0xdc>
    b9cc:	5f544c55 	0x5f544c55
    b9d0:	4c414944 	0x4c414944
    b9d4:	495f474f 	0x495f474f
    b9d8:	524f4e47 	beql	s2,t7,1f2f8 <SRAM_BT_RCODE_DATA_ADDR+0x1f8>
    b9dc:	04840045 	0x4840045
    b9e0:	5345520c 	beql	k0,a1,20214 <SRAM_AP_BANK_FRONT_CONTROL_ADDR+0x14>
    b9e4:	5f544c55 	0x5f544c55
    b9e8:	4c414944 	0x4c414944
    b9ec:	595f474f 	0x595f474f
    b9f0:	85005345 	lh	zero,21317(t0)
    b9f4:	45520c04 	0x45520c04
    b9f8:	544c5553 	bnel	v0,t4,20f48 <SRAM_KERNEL_XSYS_ADDR+0x548>
    b9fc:	4149445f 	0x4149445f
    ba00:	5f474f4c 	0x5f474f4c
    ba04:	86004f4e 	lh	zero,20302(s0)
    ba08:	45520c04 	0x45520c04
    ba0c:	544c5553 	bnel	v0,t4,20f5c <SRAM_KERNEL_XSYS_ADDR+0x55c>
    ba10:	4149445f 	0x4149445f
    ba14:	5f474f4c 	0x5f474f4c
    ba18:	434e4143 	c0	0x14e4143
    ba1c:	415f4c45 	0x415f4c45
    ba20:	004f5455 	0x4f5455
    ba24:	520c0487 	beql	s0,t4,cc44 <SROM_FS_ADDR+0xc44>
    ba28:	4c555345 	0x4c555345
    ba2c:	49445f54 	0x49445f54
    ba30:	474f4c41 	c1	0x14f4c41
    ba34:	4253555f 	c0	0x53555f
    ba38:	554f535f 	bnel	t2,t7,207b8 <SRAM_AP_BANK_FRONT_CONTROL_ADDR+0x5b8>
    ba3c:	8800444e 	lwl	zero,17486(zero)
    ba40:	45520c04 	0x45520c04
    ba44:	544c5553 	bnel	v0,t4,20f94 <SRAM_KERNEL_XSYS_ADDR+0x594>
    ba48:	4149445f 	0x4149445f
    ba4c:	5f474f4c 	0x5f474f4c
    ba50:	594c4e4f 	0x594c4e4f
    ba54:	4148435f 	0x4148435f
    ba58:	00454752 	0x454752
    ba5c:	520c0489 	beql	s0,t4,cc84 <SROM_FS_ADDR+0xc84>
    ba60:	4c555345 	0x4c555345
    ba64:	49485f54 	0x49485f54
    ba68:	45535f44 	0x45535f44
    ba6c:	4b5f444e 	c2	0x15f444e
    ba70:	455f5945 	0x455f5945
    ba74:	544e4556 	bnel	v0,t6,1cfd0 <SRAM_OS_TASK_STACK_ADDR+0x19d0>
    ba78:	00048a00 	sll	s1,a0,0x8
    ba7c:	7070610d 	0x7070610d
    ba80:	7365725f 	udi15	k1,a1,t6,0x9
    ba84:	5f746c75 	0x5f746c75
    ba88:	80020065 	lb	v0,101(zero)
    ba8c:	00027501 	0x27501
    ba90:	0a100e00 	j	8403800 <AP_BANK_SPACE+0x83c3800>
    ba94:	03040000 	0x3040000
    ba98:	640f0255 	0x640f0255
    ba9c:	00617461 	0x617461
    baa0:	55025203 	bnel	t0,v0,202b0 <SRAM_AP_BANK_FRONT_CONTROL_ADDR+0xb0>
    baa4:	0f000002 	jal	c000008 <AP_BANK_SPACE+0xbfc0008>
    baa8:	72646461 	0x72646461
    baac:	02540300 	0x2540300
    bab0:	0000019e 	0x19e
    bab4:	0a3d1000 	j	8f44000 <AP_BANK_SPACE+0x8f04000>
    bab8:	03080000 	0x3080000
    babc:	74110256 	jalx	440958 <AP_BANK_SPACE+0x400958>
    bac0:	00657079 	0x657079
    bac4:	7a024e03 	0x7a024e03
    bac8:	02000001 	movf	zero,s0,$fcc0
    bacc:	63110023 	0x63110023
    bad0:	65746e6f 	0x65746e6f
    bad4:	0300746e 	0x300746e
    bad8:	09ec0255 	j	7b00954 <AP_BANK_SPACE+0x7ac0954>
    badc:	23020000 	addi	v0,t8,0
    bae0:	6d0d0004 	0x6d0d0004
    bae4:	615f6773 	0x615f6773
    bae8:	5f737070 	0x5f737070
    baec:	56030074 	bnel	s0,v1,bcc0 <SRAM_AP_BANK_FRONT_BASAL_ADDR+0xcc0>
    baf0:	000a1002 	srl	v0,t2,0x0
    baf4:	0a901000 	j	a404000 <AP_BANK_SPACE+0xa3c4000>
    baf8:	03080000 	0x3080000
    bafc:	7411026f 	jalx	4409bc <AP_BANK_SPACE+0x4009bc>
    bb00:	00657079 	0x657079
    bb04:	46026b03 	div.s	$f12,$f13,$f2
    bb08:	02000001 	movf	zero,s0,$fcc0
    bb0c:	72110023 	0x72110023
    bb10:	72657365 	0x72657365
    bb14:	03006576 	tne	t8,zero,0x195
    bb18:	0265026c 	0x265026c
    bb1c:	23020000 	addi	v0,t8,0
    bb20:	6f631101 	0x6f631101
    bb24:	6e65746e 	0x6e65746e
    bb28:	6e030074 	0x6e030074
    bb2c:	00019e02 	srl	s3,at,0x18
    bb30:	04230200 	bgezl	at,c334 <SROM_FS_ADDR+0x334>
    bb34:	736d0d00 	0x736d0d00
    bb38:	65725f67 	0x65725f67
    bb3c:	5f796c70 	0x5f796c70
    bb40:	6f030074 	0x6f030074
    bb44:	000a5002 	srl	t2,t2,0x0
    bb48:	0add1000 	j	b744000 <AP_BANK_SPACE+0xb704000>
    bb4c:	03100000 	0x3100000
    bb50:	6d11027c 	0x6d11027c
    bb54:	03006773 	tltu	t8,zero,0x19d
    bb58:	0a3d0277 	j	8f409dc <AP_BANK_SPACE+0x8f009dc>
    bb5c:	23020000 	addi	v0,t8,0
    bb60:	65731100 	0x65731100
    bb64:	7903006d 	0x7903006d
    bb68:	00023f02 	srl	a3,v0,0x1c
    bb6c:	08230200 	j	8c0800 <AP_BANK_SPACE+0x880800>
    bb70:	70657211 	udi1	v1,a1,t6,0x8
    bb74:	0300796c 	0x300796c
    bb78:	0add027b 	j	b7409ec <AP_BANK_SPACE+0xb7009ec>
    bb7c:	23020000 	addi	v0,t8,0
    bb80:	040a000c 	tlti	zero,12
    bb84:	00000a90 	0xa90
    bb88:	6972700d 	0x6972700d
    bb8c:	65746176 	0x65746176
    bb90:	67736d5f 	0x67736d5f
    bb94:	0300745f 	0x300745f
    bb98:	0aa4027c 	j	a9009f0 <AP_BANK_SPACE+0xa8c09f0>
    bb9c:	040a0000 	tlti	zero,0
    bba0:	00000ae3 	0xae3
    bba4:	000da810 	0xda810
    bba8:	32071c00 	andi	a3,s0,0x1c00
    bbac:	6e651101 	0x6e651101
    bbb0:	656e6967 	0x656e6967
    bbb4:	7079745f 	udi15	v1,t9,t6,0x11
    bbb8:	07070065 	0x7070065
    bbbc:	00014601 	0x14601
    bbc0:	00230200 	0x230200
    bbc4:	676e6511 	0x676e6511
    bbc8:	5f656e69 	0x5f656e69
    bbcc:	74617473 	jalx	185d1cc <AP_BANK_SPACE+0x181d1cc>
    bbd0:	09070065 	j	41c0194 <AP_BANK_SPACE+0x4180194>
    bbd4:	00014601 	0x14601
    bbd8:	01230200 	0x1230200
    bbdc:	70706111 	udi1	v1,s0,t4,0x4
    bbe0:	6174735f 	0x6174735f
    bbe4:	07006574 	bltz	t8,251b8 <SRAM_UART_STUB_RCODE_ADDR+0x1b8>
    bbe8:	0146010b 	0x146010b
    bbec:	23020000 	addi	v0,t8,0
    bbf0:	69751102 	0x69751102
    bbf4:	6174735f 	0x6174735f
    bbf8:	00737574 	teq	v1,s3,0x1d5
    bbfc:	46010d07 	c1	0x10d07
    bc00:	02000001 	movf	zero,s0,$fcc0
    bc04:	67110323 	0x67110323
    bc08:	5f6f6e5f 	0x5f6f6e5f
    bc0c:	70707573 	0x70707573
    bc10:	5f74726f 	0x5f74726f
    bc14:	5f737474 	0x5f737474
    bc18:	67616c66 	0x67616c66
    bc1c:	01120700 	0x1120700
    bc20:	00000146 	0x146
    bc24:	11042302 	beq	t0,a0,14830 <SRAM_BT_EXT5_BANK_ADDR+0x230>
    bc28:	65735f67 	0x65735f67
    bc2c:	655f646e 	0x655f646e
    bc30:	5f746978 	0x5f746978
    bc34:	5f6d6d6d 	0x5f6d6d6d
    bc38:	00737474 	teq	v1,s3,0x1d1
    bc3c:	46011307 	c1	0x11307
    bc40:	02000001 	movf	zero,s0,$fcc0
    bc44:	70120523 	0x70120523
    bc48:	7265776f 	0x7265776f
    bc4c:	5f6e6f5f 	0x5f6e6f5f
    bc50:	67616c66 	0x67616c66
    bc54:	01140700 	0x1140700
    bc58:	00000146 	0x146
    bc5c:	02040401 	0x2040401
    bc60:	73120623 	0x73120623
    bc64:	5f627574 	0x5f627574
    bc68:	65646f6d 	0x65646f6d
    bc6c:	616c665f 	0x616c665f
    bc70:	15070067 	bne	t0,a3,be10 <SRAM_KEY_MESSAGE_DATA_ADDR+0x10>
    bc74:	00014601 	0x14601
    bc78:	00040100 	sll	zero,a0,0x4
    bc7c:	11062302 	beq	t0,a2,14888 <SRAM_BT_EXT5_BANK_ADDR+0x288>
    bc80:	6e756f73 	0x6e756f73
    bc84:	74735f64 	jalx	1cd7d90 <AP_BANK_SPACE+0x1c97d90>
    bc88:	00657461 	0x657461
    bc8c:	46011807 	c1	0x11807
    bc90:	02000001 	movf	zero,s0,$fcc0
    bc94:	66110723 	0x66110723
    bc98:	735f7869 	0x735f7869
    bc9c:	6c706d61 	0x6c706d61
    bca0:	61725f65 	0x61725f65
    bca4:	665f6574 	0x665f6574
    bca8:	0067616c 	0x67616c
    bcac:	46011a07 	c1	0x11a07
    bcb0:	02000001 	movf	zero,s0,$fcc0
    bcb4:	62110823 	0x62110823
    bcb8:	65747461 	0x65747461
    bcbc:	725f7972 	0x725f7972
    bcc0:	726f7065 	0x726f7065
    bcc4:	6e655f74 	0x6e655f74
    bcc8:	656c6261 	0x656c6261
    bccc:	011d0700 	0x11d0700
    bcd0:	00000146 	0x146
    bcd4:	11092302 	beq	t0,t1,148e0 <SRAM_BT_EXT5_BANK_ADDR+0x2e0>
    bcd8:	72656e65 	0x72656e65
    bcdc:	615f7967 	0x615f7967
    bce0:	6c696176 	0x6c696176
    bce4:	656c6261 	0x656c6261
    bce8:	616c665f 	0x616c665f
    bcec:	20070067 	addi	a3,zero,103
    bcf0:	0000a601 	0xa601
    bcf4:	0a230200 	j	88c0800 <AP_BANK_SPACE+0x8880800>
    bcf8:	655f7011 	0x655f7011
    bcfc:	6772656e 	0x6772656e
    bd00:	61765f79 	0x61765f79
    bd04:	0065756c 	0x65756c
    bd08:	a8012107 	swl	at,8455(zero)
    bd0c:	0200000d 	break	0x200
    bd10:	70110c23 	0x70110c23
    bd14:	656e655f 	0x656e655f
    bd18:	5f796772 	0x5f796772
    bd1c:	756c6176 	jalx	5b185d8 <AP_BANK_SPACE+0x5ad85d8>
    bd20:	61625f65 	0x61625f65
    bd24:	0073646e 	0x73646e
    bd28:	a8012407 	swl	at,9223(zero)
    bd2c:	0200000d 	break	0x200
    bd30:	70111023 	0x70111023
    bd34:	656e655f 	0x656e655f
    bd38:	5f796772 	0x5f796772
    bd3c:	756c6176 	jalx	5b185d8 <AP_BANK_SPACE+0x5ad85d8>
    bd40:	72665f65 	0x72665f65
    bd44:	00737165 	0x737165
    bd48:	a8012507 	swl	at,9479(zero)
    bd4c:	0200000d 	break	0x200
    bd50:	73111423 	0x73111423
    bd54:	5f627574 	0x5f627574
    bd58:	745f6370 	jalx	17d8dc0 <AP_BANK_SPACE+0x1798dc0>
    bd5c:	736c6f6f 	0x736c6f6f
    bd60:	7079745f 	udi15	v1,t9,t6,0x11
    bd64:	28070065 	slti	a3,zero,101
    bd68:	00014601 	0x14601
    bd6c:	18230200 	0x18230200
    bd70:	00021713 	0x21713
    bd74:	01290700 	0x1290700
    bd78:	00000146 	0x146
    bd7c:	12192302 	beq	s0,t9,14988 <SRAM_BT_EXT5_BANK_ADDR+0x388>
    bd80:	5f6e6962 	0x5f6e6962
    bd84:	626d756e 	0x626d756e
    bd88:	07007265 	bltz	t8,28720 <SRAM_AP_BACK_CODEC_RCODE_ADDR+0x520>
    bd8c:	0146012b 	0x146012b
    bd90:	03010000 	0x3010000
    bd94:	1a230205 	0x1a230205
    bd98:	76617712 	jalx	985dc48 <AP_BANK_SPACE+0x981dc48>
    bd9c:	645f7365 	0x645f7365
    bda0:	705f6561 	0x705f6561
    bda4:	5f617261 	0x5f617261
    bda8:	61647075 	0x61647075
    bdac:	665f6574 	0x665f6574
    bdb0:	0067616c 	0x67616c
    bdb4:	46012c07 	c1	0x12c07
    bdb8:	01000001 	movf	zero,t0,$fcc0
    bdbc:	23020401 	addi	v0,t8,1025
    bdc0:	7774121a 	jalx	dd04868 <AP_BANK_SPACE+0xdcc4868>
    bdc4:	68705f6f 	0x68705f6f
    bdc8:	5f656e6f 	0x5f656e6f
    bdcc:	65646f6d 	0x65646f6d
    bdd0:	012d0700 	0x12d0700
    bdd4:	00000146 	0x146
    bdd8:	02030101 	0x2030101
    bddc:	76121a23 	jalx	848688c <AP_BANK_SPACE+0x844688c>
    bde0:	6563696f 	0x6563696f
    bde4:	6365725f 	0x6365725f
    bde8:	6e676e6f 	0x6e676e6f
    bdec:	5f657a69 	0x5f657a69
    bdf0:	65646f6d 	0x65646f6d
    bdf4:	012e0700 	0x12e0700
    bdf8:	00000146 	0x146
    bdfc:	02020101 	0x2020101
    be00:	76121a23 	jalx	848688c <AP_BANK_SPACE+0x844688c>
    be04:	6563696f 	0x6563696f
    be08:	6365725f 	0x6365725f
    be0c:	7a696e67 	0x7a696e67
    be10:	74735f65 	jalx	1cd7d94 <AP_BANK_SPACE+0x1c97d94>
    be14:	6d5f706f 	0x6d5f706f
    be18:	0065646f 	0x65646f
    be1c:	46012f07 	c1	0x12f07
    be20:	01000001 	movf	zero,t0,$fcc0
    be24:	23020101 	addi	v0,t8,257
    be28:	6d73121a 	0x6d73121a
    be2c:	5f747261 	0x5f747261
    be30:	5f667562 	0x5f667562
    be34:	6e617274 	0x6e617274
    be38:	6c665f73 	0x6c665f73
    be3c:	07006761 	bltz	t8,25bc4 <SRAM_AP_BANK_FRONT_UI_ADDR+0x3c4>
    be40:	01460131 	tgeu	t2,a2,0x4
    be44:	01010000 	0x1010000
    be48:	1a230200 	0x1a230200
    be4c:	d8040a00 	ldc2	$4,2560(zero)
    be50:	0d000000 	jal	4000000 <AP_BANK_SPACE+0x3fc0000>
    be54:	5f707061 	0x5f707061
    be58:	6f666e69 	0x6f666e69
    be5c:	6174735f 	0x6174735f
    be60:	615f6574 	0x615f6574
    be64:	745f6c6c 	jalx	17db1b0 <AP_BANK_SPACE+0x179b1b0>
    be68:	01320700 	0x1320700
    be6c:	00000aff 	0xaff
    be70:	00103110 	0x103110
    be74:	6b071800 	0x6b071800
    be78:	756d1101 	jalx	5b44404 <AP_BANK_SPACE+0x5b04404>
    be7c:	735f6574 	0x735f6574
    be80:	65746174 	0x65746174
    be84:	013a0700 	0x13a0700
    be88:	000000a6 	0xa6
    be8c:	11002302 	beqz	t0,14a98 <SRAM_BT_EXT5_BANK_ADDR+0x498>
    be90:	6d5f6170 	0x6d5f6170
    be94:	0065646f 	0x65646f
    be98:	a6013c07 	sh	at,15367(s0)
    be9c:	02000000 	0x2000000
    bea0:	61110123 	0x61110123
    bea4:	5f74756f 	0x5f74756f
    bea8:	65646f6d 	0x65646f6d
    beac:	013e0700 	0x13e0700
    beb0:	00000146 	0x146
    beb4:	11022302 	beq	t0,v0,14ac0 <SRAM_BT_EXT5_BANK_ADDR+0x4c0>
    beb8:	6b636162 	0x6b636162
    bebc:	6867696c 	0x6867696c
    bec0:	74735f74 	jalx	1cd7dd0 <AP_BANK_SPACE+0x1c97dd0>
    bec4:	00657461 	0x657461
    bec8:	46014007 	c1	0x14007
    becc:	02000001 	movf	zero,s0,$fcc0
    bed0:	63110323 	0x63110323
    bed4:	5f647261 	0x5f647261
    bed8:	74617473 	jalx	185d1cc <AP_BANK_SPACE+0x181d1cc>
    bedc:	42070065 	c0	0x70065
    bee0:	00014601 	0x14601
    bee4:	04230200 	bgezl	at,c6e8 <SROM_FS_ADDR+0x6e8>
    bee8:	6f687511 	0x6f687511
    beec:	735f7473 	0x735f7473
    bef0:	65746174 	0x65746174
    bef4:	01440700 	0x1440700
    bef8:	00000146 	0x146
    befc:	11052302 	beq	t0,a1,14b08 <SRAM_BT_EXT5_BANK_ADDR+0x508>
    bf00:	656e696c 	0x656e696c
    bf04:	735f6e69 	0x735f6e69
    bf08:	65746174 	0x65746174
    bf0c:	01460700 	0x1460700
    bf10:	00000146 	0x146
    bf14:	11062302 	beq	t0,a2,14b20 <SRAM_BT_EXT5_BANK_ADDR+0x520>
    bf18:	6c626163 	0x6c626163
    bf1c:	74735f65 	jalx	1cd7d94 <AP_BANK_SPACE+0x1c97d94>
    bf20:	00657461 	0x657461
    bf24:	46014807 	c1	0x14807
    bf28:	02000001 	movf	zero,s0,$fcc0
    bf2c:	68110723 	0x68110723
    bf30:	74735f70 	jalx	1cd7dc0 <AP_BANK_SPACE+0x1c97dc0>
    bf34:	00657461 	0x657461
    bf38:	a6014a07 	sh	at,18951(s0)
    bf3c:	02000000 	0x2000000
    bf40:	63110823 	0x63110823
    bf44:	67726168 	0x67726168
    bf48:	74735f65 	jalx	1cd7d94 <AP_BANK_SPACE+0x1c97d94>
    bf4c:	00657461 	0x657461
    bf50:	46014c07 	c1	0x14c07
    bf54:	02000001 	movf	zero,s0,$fcc0
    bf58:	62110923 	0x62110923
    bf5c:	765f7461 	jalx	97dd184 <AP_BANK_SPACE+0x979d184>
    bf60:	65756c61 	0x65756c61
    bf64:	014e0700 	0x14e0700
    bf68:	00000146 	0x146
    bf6c:	110a2302 	beq	t0,t2,14b78 <SRAM_BT_EXT5_BANK_ADDR+0x578>
    bf70:	676e6972 	0x676e6972
    bf74:	616c615f 	0x616c615f
    bf78:	07006d72 	bltz	t8,27544 <SRAM_RAM2_RESEVER2_ADDR+0x544>
    bf7c:	00a60150 	0xa60150
    bf80:	23020000 	addi	v0,t8,0
    bf84:	7473120b 	jalx	1cc482c <AP_BANK_SPACE+0x1c8482c>
    bf88:	745f6275 	jalx	17d89d4 <AP_BANK_SPACE+0x17989d4>
    bf8c:	736c6f6f 	0x736c6f6f
    bf90:	7079745f 	udi15	v1,t9,t6,0x11
    bf94:	52070065 	beql	s0,a3,c12c <SROM_FS_ADDR+0x12c>
    bf98:	00014601 	0x14601
    bf9c:	01070100 	0x1070100
    bfa0:	140c2302 	bne	zero,t4,14bac <SRAM_BT_EXT5_BANK_ADDR+0x5ac>
    bfa4:	00000217 	0x217
    bfa8:	46015307 	c1	0x15307
    bfac:	01000001 	movf	zero,t0,$fcc0
    bfb0:	23020001 	addi	v0,t8,1
    bfb4:	7561110c 	jalx	5844430 <AP_BANK_SPACE+0x5804430>
    bfb8:	65746f74 	0x65746f74
    bfbc:	6d5f7473 	0x6d5f7473
    bfc0:	0065646f 	0x65646f
    bfc4:	46015507 	c1	0x15507
    bfc8:	02000001 	movf	zero,s0,$fcc0
    bfcc:	70110d23 	0x70110d23
    bfd0:	68637461 	0x68637461
    bfd4:	776f645f 	jalx	dbd917c <AP_BANK_SPACE+0xdb9917c>
    bfd8:	616f6c6e 	0x616f6c6e
    bfdc:	6c665f64 	0x6c665f64
    bfe0:	07006761 	bltz	t8,25d68 <SRAM_AP_BANK_FRONT_UI_ADDR+0x568>
    bfe4:	00a60158 	0xa60158
    bfe8:	23020000 	addi	v0,t8,0
    bfec:	7462110e 	jalx	1884438 <AP_BANK_SPACE+0x1844438>
    bff0:	776f705f 	jalx	dbdc17c <AP_BANK_SPACE+0xdb9c17c>
    bff4:	6f5f7265 	0x6f5f7265
    bff8:	5a07006e 	0x5a07006e
    bffc:	0000a601 	0xa601
    c000:	0f230200 	jal	c8c0800 <AP_BANK_SPACE+0xc880800>
    c004:	6e6e6911 	0x6e6e6911
    c008:	705f7265 	0x705f7265
    c00c:	6e695f61 	0x6e695f61
    c010:	64657469 	0x64657469
    c014:	015c0700 	0x15c0700
    c018:	000000a6 	0xa6
    c01c:	11102302 	beq	t0,s0,14c28 <SRAM_BT_EXT5_BANK_ADDR+0x628>
    c020:	6574756f 	0x6574756f
    c024:	61705f72 	0x61705f72
    c028:	006e6f5f 	0x6e6f5f
    c02c:	a6015e07 	sh	at,24071(s0)
    c030:	02000000 	0x2000000
    c034:	63111123 	0x63111123
    c038:	665f7275 	0x665f7275
    c03c:	5f636e75 	0x5f636e75
    c040:	65646e69 	0x65646e69
    c044:	60070078 	0x60070078
    c048:	00014601 	0x14601
    c04c:	12230200 	beq	s1,v1,c850 <SROM_FS_ADDR+0x850>
    c050:	72756311 	udi1	s3,s5,t4,0xc
    c054:	6e75665f 	0x6e75665f
    c058:	64695f63 	0x64695f63
    c05c:	01620700 	0x1620700
    c060:	00000146 	0x146
    c064:	11132302 	beq	t0,s3,14c70 <SRAM_BT_EXT5_BANK_ADDR+0x670>
    c068:	5f6b7061 	0x5f6b7061
    c06c:	74617473 	jalx	185d1cc <AP_BANK_SPACE+0x181d1cc>
    c070:	07007375 	bltz	t8,28e48 <SRAM_AP_BANK_BACK_CODEC_ADDR+0x248>
    c074:	01460164 	0x1460164
    c078:	23020000 	addi	v0,t8,0
    c07c:	65761114 	0x65761114
    c080:	69666972 	0x69666972
    c084:	69746163 	0x69746163
    c088:	735f6e6f 	0x735f6e6f
    c08c:	75746174 	jalx	5d185d0 <AP_BANK_SPACE+0x5cd85d0>
    c090:	66070073 	0x66070073
    c094:	00014601 	0x14601
    c098:	15230200 	bne	t1,v1,c89c <SROM_FS_ADDR+0x89c>
    c09c:	65656e11 	0x65656e11
    c0a0:	70755f64 	0x70755f64
    c0a4:	65746164 	0x65746164
    c0a8:	616c705f 	0x616c705f
    c0ac:	73696c79 	0x73696c79
    c0b0:	68070074 	0x68070074
    c0b4:	00014601 	0x14601
    c0b8:	16230200 	bne	s1,v1,c8bc <SROM_FS_ADDR+0x8bc>
    c0bc:	74786511 	jalx	1e19444 <AP_BANK_SPACE+0x1dd9444>
    c0c0:	5f6e7265 	0x5f6e7265
    c0c4:	5f746162 	0x5f746162
    c0c8:	07006e69 	bltz	t8,27a70 <SRAM_RAM2_RESEVER2_ADDR+0xa70>
    c0cc:	0146016a 	0x146016a
    c0d0:	23020000 	addi	v0,t8,0
    c0d4:	610d0017 	0x610d0017
    c0d8:	695f7070 	0x695f7070
    c0dc:	5f6f666e 	0x5f6f666e
    c0e0:	74617473 	jalx	185d1cc <AP_BANK_SPACE+0x181d1cc>
    c0e4:	00745f65 	0x745f65
    c0e8:	cb016b07 	lwc2	$1,27399(t8)
    c0ec:	1000000d 	b	c124 <SROM_FS_ADDR+0x124>
    c0f0:	000010b9 	0x10b9
    c0f4:	017a0704 	0x17a0704
    c0f8:	73616c11 	udi1	k1,at,t5,0x10
    c0fc:	69645f74 	0x69645f74
    c100:	07006b73 	bltz	t8,26ed0 <OFFSET+0x6d0>
    c104:	01460173 	tltu	t2,a2,0x5
    c108:	23020000 	addi	v0,t8,0
    c10c:	616c1100 	0x616c1100
    c110:	665f7473 	0x665f7473
    c114:	5f636e75 	0x5f636e75
    c118:	65646e69 	0x65646e69
    c11c:	75070078 	jalx	41c01e0 <AP_BANK_SPACE+0x41801e0>
    c120:	00014601 	0x14601
    c124:	01230200 	0x1230200
    c128:	73616c11 	udi1	k1,at,t5,0x10
    c12c:	79735f74 	0x79735f74
    c130:	74735f73 	jalx	1cd7dcc <AP_BANK_SPACE+0x1c97dcc>
    c134:	73757461 	0x73757461
    c138:	01770700 	0x1770700
    c13c:	00000146 	0x146
    c140:	11022302 	beq	t0,v0,14d4c <SRAM_BT_EXT5_BANK_ADDR+0x74c>
    c144:	7473616c 	jalx	1cd85b0 <AP_BANK_SPACE+0x1c985b0>
    c148:	5f69755f 	0x5f69755f
    c14c:	74617473 	jalx	185d1cc <AP_BANK_SPACE+0x181d1cc>
    c150:	07007375 	bltz	t8,28f28 <SRAM_AP_BANK_BACK_CODEC_ADDR+0x328>
    c154:	01460179 	0x1460179
    c158:	23020000 	addi	v0,t8,0
    c15c:	610d0003 	0x610d0003
    c160:	6c5f7070 	0x6c5f7070
    c164:	5f747361 	0x5f747361
    c168:	74617473 	jalx	185d1cc <AP_BANK_SPACE+0x181d1cc>
    c16c:	00745f65 	0x745f65
    c170:	4a017a07 	c2	0x17a07
    c174:	08000010 	j	40 <APPLIB_GLOBAL_DATA_SIZE>
    c178:	00001116 	0x1116
    c17c:	09490a08 	j	5242820 <AP_BANK_SPACE+0x5202820>
    c180:	6f747563 	0x6f747563
    c184:	0a006666 	j	8019998 <AP_BANK_SPACE+0x7fd9998>
    c188:	00015f42 	srl	t3,at,0x1d
    c18c:	00230200 	0x230200
    c190:	0a007109 	j	801c424 <AP_BANK_SPACE+0x7fdc424>
    c194:	00015f44 	0x15f44
    c198:	02230200 	0x2230200
    c19c:	69616709 	0x69616709
    c1a0:	460a006e 	c1	0xa006e
    c1a4:	0000016d 	0x16d
    c1a8:	09042302 	j	4108c08 <AP_BANK_SPACE+0x40c8c08>
    c1ac:	65707974 	0x65707974
    c1b0:	5f480a00 	0x5f480a00
    c1b4:	02000001 	movf	zero,s0,$fcc0
    c1b8:	03000623 	0x3000623
    c1bc:	5f716570 	0x5f716570
    c1c0:	646e6162 	0x646e6162
    c1c4:	0a00745f 	j	801d17c <AP_BANK_SPACE+0x7fdd17c>
    c1c8:	0010d249 	0x10d249
    c1cc:	11730800 	beq	t3,s3,e1d0 <SRAM_ASRC_BUF_0_ADDR+0x1d0>
    c1d0:	0a080000 	j	8200000 <AP_BANK_SPACE+0x81c0000>
    c1d4:	68740950 	0x68740950
    c1d8:	68736572 	0x68736572
    c1dc:	00646c6f 	0x646c6f
    c1e0:	00d84c0a 	0xd84c0a
    c1e4:	23020000 	addi	v0,t8,0
    c1e8:	01fe1500 	0x1fe1500
    c1ec:	4d0a0000 	0x4d0a0000
    c1f0:	000000d8 	0xd8
    c1f4:	15022302 	bne	t0,v0,14e00 <SRAM_BT_EXT5_BANK_ADDR+0x800>
    c1f8:	0000020a 	0x20a
    c1fc:	00d84e0a 	0xd84e0a
    c200:	23020000 	addi	v0,t8,0
    c204:	65720904 	0x65720904
    c208:	76726573 	jalx	9c995cc <AP_BANK_SPACE+0x9c595cc>
    c20c:	4f0a0065 	c3	0x10a0065
    c210:	000000d8 	0xd8
    c214:	00062302 	srl	a0,a2,0xc
    c218:	72646d03 	0x72646d03
    c21c:	61625f63 	0x61625f63
    c220:	745f646e 	jalx	17d91b8 <AP_BANK_SPACE+0x17991b8>
    c224:	28500a00 	slti	s0,v0,2560
    c228:	08000011 	j	44 <AP_BANK_AUTOTEST+0x3>
    c22c:	000011af 	0x11af
    c230:	09570a04 	j	55c2810 <AP_BANK_SPACE+0x5582810>
    c234:	6f747563 	0x6f747563
    c238:	0a006666 	j	8019998 <AP_BANK_SPACE+0x7fd9998>
    c23c:	00015f54 	0x15f54
    c240:	00230200 	0x230200
    c244:	69616709 	0x69616709
    c248:	560a006e 	bnel	s0,t2,c404 <SROM_FS_ADDR+0x404>
    c24c:	0000016d 	0x16d
    c250:	00022302 	srl	a0,v0,0xc
    c254:	65616403 	0x65616403
    c258:	686e655f 	0x686e655f
    c25c:	6165775f 	0x6165775f
    c260:	5f6e656b 	0x5f6e656b
    c264:	646e6162 	0x646e6162
    c268:	0a00745f 	j	801d17c <AP_BANK_SPACE+0x7fdd17c>
    c26c:	00118657 	0x118657
    c270:	123a0800 	beq	s1,k0,e274 <SRAM_ASRC_BUF_0_ADDR+0x274>
    c274:	0a2c0000 	j	8b00000 <AP_BANK_SPACE+0x8ac0000>
    c278:	756e0961 	jalx	5b82584 <AP_BANK_SPACE+0x5b42584>
    c27c:	61625f6d 	0x61625f6d
    c280:	0a00646e 	j	80191b8 <AP_BANK_SPACE+0x7fd91b8>
    c284:	0001465c 	0x1465c
    c288:	00230200 	0x230200
    c28c:	6d756e09 	0x6d756e09
    c290:	6572665f 	0x6572665f
    c294:	6f705f71 	0x6f705f71
    c298:	00746e69 	0x746e69
    c29c:	01465d0a 	0x1465d0a
    c2a0:	23020000 	addi	v0,t8,0
    c2a4:	75640901 	jalx	5902404 <AP_BANK_SPACE+0x58c2404>
    c2a8:	69746172 	0x69746172
    c2ac:	6d5f6e6f 	0x6d5f6e6f
    c2b0:	5e0a0073 	0x5e0a0073
    c2b4:	000000d8 	0xd8
    c2b8:	09022302 	j	4088c08 <AP_BANK_SPACE+0x4048c08>
    c2bc:	00635f66 	0x635f66
    c2c0:	02455f0a 	0x2455f0a
    c2c4:	23020000 	addi	v0,t8,0
    c2c8:	72660904 	0x72660904
    c2cc:	705f7165 	0x705f7165
    c2d0:	746e696f 	jalx	1b9a5bc <AP_BANK_SPACE+0x1b5a5bc>
    c2d4:	45600a00 	0x45600a00
    c2d8:	02000002 	0x2000002
    c2dc:	03001823 	subu	v1,t8,zero
    c2e0:	5f656164 	0x5f656164
    c2e4:	72747461 	0x72747461
    c2e8:	74756269 	jalx	1d589a4 <AP_BANK_SPACE+0x1d189a4>
    c2ec:	745f7365 	jalx	17dcd94 <AP_BANK_SPACE+0x179cd94>
    c2f0:	cc610a00 	pref	0x1,2560(v1)
    c2f4:	08000011 	j	44 <AP_BANK_AUTOTEST+0x3>
    c2f8:	000012c3 	sra	v0,zero,0xb
    c2fc:	15700a0e 	bne	t3,s0,eb38 <SRAM_ASRC_BUF_0_ADDR+0xb38>
    c300:	00000225 	0x225
    c304:	00d8690a 	0xd8690a
    c308:	23020000 	addi	v0,t8,0
    c30c:	61720900 	0x61720900
    c310:	316f6974 	andi	t7,t3,0x6974
    c314:	d86a0a00 	ldc2	$10,2560(v1)
    c318:	02000000 	0x2000000
    c31c:	30150223 	andi	s5,zero,0x223
    c320:	0a000002 	j	8000008 <AP_BANK_SPACE+0x7fc0008>
    c324:	0000d86b 	0xd86b
    c328:	04230200 	bgezl	at,cb2c <SROM_FS_ADDR+0xb2c>
    c32c:	74617209 	jalx	185c824 <AP_BANK_SPACE+0x181c824>
    c330:	00326f69 	0x326f69
    c334:	00d86c0a 	0xd86c0a
    c338:	23020000 	addi	v0,t8,0
    c33c:	61740906 	0x61740906
    c340:	6d0a0076 	0x6d0a0076
    c344:	000000d8 	0xd8
    c348:	15082302 	bne	t0,t0,14f54 <SRAM_BT_EXT5_BANK_ADDR+0x954>
    c34c:	000001fe 	0x1fe
    c350:	00d86e0a 	0xd86e0a
    c354:	23020000 	addi	v0,t8,0
    c358:	020a150a 	0x20a150a
    c35c:	6f0a0000 	0x6f0a0000
    c360:	000000d8 	0xd8
    c364:	000c2302 	srl	a0,t4,0xc
    c368:	65616403 	0x65616403
    c36c:	6d6f635f 	0x6d6f635f
    c370:	73657270 	0x73657270
    c374:	5f726f73 	0x5f726f73
    c378:	6e617473 	0x6e617473
    c37c:	64726164 	0x64726164
    c380:	646f6d5f 	0x646f6d5f
    c384:	00745f65 	0x745f65
    c388:	1252700a 	beq	s2,s2,283b4 <SRAM_AP_BACK_CODEC_RCODE_ADDR+0x1b4>
    c38c:	82080000 	lb	t0,0(s0)
    c390:	10000013 	b	c3e0 <SROM_FS_ADDR+0x3e0>
    c394:	25157b0a 	addiu	s5,t0,31498
    c398:	0a000002 	j	8000008 <AP_BANK_SPACE+0x7fc0008>
    c39c:	0000d873 	tltu	zero,zero,0x361
    c3a0:	00230200 	0x230200
    c3a4:	6d6f6309 	0x6d6f6309
    c3a8:	73657270 	0x73657270
    c3ac:	61725f73 	0x61725f73
    c3b0:	316f6974 	andi	t7,t3,0x6974
    c3b4:	d8740a00 	ldc2	$20,2560(v1)
    c3b8:	02000000 	0x2000000
    c3bc:	30150223 	andi	s5,zero,0x223
    c3c0:	0a000002 	j	8000008 <AP_BANK_SPACE+0x7fc0008>
    c3c4:	0000d875 	0xd875
    c3c8:	04230200 	bgezl	at,cbcc <SROM_FS_ADDR+0xbcc>
    c3cc:	6d6f6309 	0x6d6f6309
    c3d0:	73657270 	0x73657270
    c3d4:	61725f73 	0x61725f73
    c3d8:	326f6974 	andi	t7,s3,0x6974
    c3dc:	d8760a00 	ldc2	$22,2560(v1)
    c3e0:	02000000 	0x2000000
    c3e4:	74090623 	jalx	24188c <AP_BANK_SPACE+0x20188c>
    c3e8:	745f7661 	jalx	17dd984 <AP_BANK_SPACE+0x179d984>
    c3ec:	00656d69 	0x656d69
    c3f0:	00d8770a 	0xd8770a
    c3f4:	23020000 	addi	v0,t8,0
    c3f8:	01fe1508 	0x1fe1508
    c3fc:	780a0000 	0x780a0000
    c400:	000000d8 	0xd8
    c404:	150a2302 	bne	t0,t2,15010 <SRAM_BT_EXT5_BANK_ADDR+0xa10>
    c408:	0000020a 	0x20a
    c40c:	00d8790a 	0xd8790a
    c410:	23020000 	addi	v0,t8,0
    c414:	616d090c 	0x616d090c
    c418:	7075656b 	0x7075656b
    c41c:	d87a0a00 	ldc2	$26,2560(v1)
    c420:	02000000 	0x2000000
    c424:	03000e23 	0x3000e23
    c428:	5f656164 	0x5f656164
    c42c:	6372646d 	0x6372646d
    c430:	6e61625f 	0x6e61625f
    c434:	74735f64 	jalx	1cd7d90 <AP_BANK_SPACE+0x1c97d90>
    c438:	61646e61 	0x61646e61
    c43c:	6d5f6472 	0x6d5f6472
    c440:	5f65646f 	0x5f65646f
    c444:	7b0a0074 	0x7b0a0074
    c448:	000012e9 	0x12e9
    c44c:	00141408 	0x141408
    c450:	820a0800 	lb	t2,2048(s0)
    c454:	67697309 	0x67697309
    c458:	5f6c616e 	0x5f6c616e
    c45c:	756a6461 	jalx	5a99184 <AP_BANK_SPACE+0x5a59184>
    c460:	0a007473 	j	801d1cc <AP_BANK_SPACE+0x7fdd1cc>
    c464:	00016d7e 	0x16d7e
    c468:	00230200 	0x230200
    c46c:	72646d09 	0x72646d09
    c470:	72635f63 	0x72635f63
    c474:	6f73736f 	0x6f73736f
    c478:	5f726576 	0x5f726576
    c47c:	71657266 	0x71657266
    c480:	7f0a0030 	0x7f0a0030
    c484:	000000d8 	0xd8
    c488:	09022302 	j	4088c08 <AP_BANK_SPACE+0x4048c08>
    c48c:	6372646d 	0x6372646d
    c490:	6f72635f 	0x6f72635f
    c494:	766f7373 	jalx	9bdcdcc <AP_BANK_SPACE+0x9b9cdcc>
    c498:	665f7265 	0x665f7265
    c49c:	31716572 	andi	s1,t3,0x6572
    c4a0:	d8800a00 	ldc2	$0,2560(a0)
    c4a4:	02000000 	0x2000000
    c4a8:	3b150423 	xori	s5,t8,0x423
    c4ac:	0a000002 	j	8000008 <AP_BANK_SPACE+0x7fc0008>
    c4b0:	00016d81 	0x16d81
    c4b4:	06230200 	bgezl	s1,ccb8 <SROM_FS_ADDR+0xcb8>
    c4b8:	646d0300 	0x646d0300
    c4bc:	655f6372 	0x655f6372
    c4c0:	6e657478 	0x6e657478
    c4c4:	61705f64 	0x61705f64
    c4c8:	735f6172 	0x735f6172
    c4cc:	646e6174 	0x646e6174
    c4d0:	5f647261 	0x5f647261
    c4d4:	65646f6d 	0x65646f6d
    c4d8:	0a00745f 	j	801d17c <AP_BANK_SPACE+0x7fdd17c>
    c4dc:	0013a782 	srl	s4,s3,0x1e
    c4e0:	14f90800 	bne	a3,t9,e4e4 <SRAM_ASRC_BUF_0_ADDR+0x4e4>
    c4e4:	0a080000 	j	8200000 <AP_BANK_SPACE+0x81c0000>
    c4e8:	444d098a 	0x444d098a
    c4ec:	635f4352 	0x635f4352
    c4f0:	65706d6f 	0x65706d6f
    c4f4:	7461736e 	jalx	185cdb8 <AP_BANK_SPACE+0x181cdb8>
    c4f8:	5f6e6f69 	0x5f6e6f69
    c4fc:	65726874 	0x65726874
    c500:	6c6f6873 	0x6c6f6873
    c504:	860a0064 	lh	t2,100(s0)
    c508:	000000d8 	0xd8
    c50c:	09002302 	j	4008c08 <AP_BANK_SPACE+0x3fc8c08>
    c510:	4352444d 	c0	0x152444d
    c514:	6d6f635f 	0x6d6f635f
    c518:	736e6570 	0x736e6570
    c51c:	6f697461 	0x6f697461
    c520:	65705f6e 	0x65705f6e
    c524:	645f6b61 	0x645f6b61
    c528:	63657465 	0x63657465
    c52c:	74615f74 	jalx	1857dd0 <AP_BANK_SPACE+0x1817dd0>
    c530:	6b636174 	0x6b636174
    c534:	6d69745f 	0x6d69745f
    c538:	870a0065 	lh	t2,101(t8)
    c53c:	000000d8 	0xd8
    c540:	09022302 	j	4088c08 <AP_BANK_SPACE+0x4048c08>
    c544:	4352444d 	c0	0x152444d
    c548:	6d6f635f 	0x6d6f635f
    c54c:	736e6570 	0x736e6570
    c550:	6f697461 	0x6f697461
    c554:	65705f6e 	0x65705f6e
    c558:	645f6b61 	0x645f6b61
    c55c:	63657465 	0x63657465
    c560:	65725f74 	0x65725f74
    c564:	7361656c 	0x7361656c
    c568:	69745f65 	0x69745f65
    c56c:	0a00656d 	j	80195b4 <AP_BANK_SPACE+0x7fd95b4>
    c570:	0000d888 	0xd888
    c574:	04230200 	bgezl	at,cd78 <SROM_FS_ADDR+0xd78>
    c578:	52444d09 	beql	s2,a0,1f9a0 <SRAM_KEY_MESSAGE_RCODE_ADDR+0x1a0>
    c57c:	6f635f43 	0x6f635f43
    c580:	6e65706d 	0x6e65706d
    c584:	69746173 	0x69746173
    c588:	665f6e6f 	0x665f6e6f
    c58c:	65746c69 	0x65746c69
    c590:	00515f72 	tlt	v0,s1,0x17d
    c594:	00d8890a 	0xd8890a
    c598:	23020000 	addi	v0,t8,0
    c59c:	6d030006 	0x6d030006
    c5a0:	5f637264 	0x5f637264
    c5a4:	6b616570 	0x6b616570
    c5a8:	7465645f 	jalx	195917c <AP_BANK_SPACE+0x191917c>
    c5ac:	5f746365 	0x5f746365
    c5b0:	6e617473 	0x6e617473
    c5b4:	64726164 	0x64726164
    c5b8:	646f6d5f 	0x646f6d5f
    c5bc:	00745f65 	0x745f65
    c5c0:	143c8a0a 	bne	at,gp,fffeedec <get_app_msg+0x403c88bc>
    c5c4:	49160000 	bc2fl	$cc5,c5c8 <SROM_FS_ADDR+0x5c8>
    c5c8:	6400001c 	0x6400001c
    c5cc:	010f0a01 	0x10f0a01
    c5d0:	616e6509 	0x616e6509
    c5d4:	00656c62 	0x656c62
    c5d8:	00a6be0a 	0xa6be0a
    c5dc:	23020000 	addi	v0,t8,0
    c5e0:	79620900 	0x79620900
    c5e4:	73736170 	0x73736170
    c5e8:	a6bf0a00 	sh	ra,2560(s5)
    c5ec:	02000000 	0x2000000
    c5f0:	70090123 	0x70090123
    c5f4:	75636572 	jalx	58d95c8 <AP_BANK_SPACE+0x58995c8>
    c5f8:	61725f74 	0x61725f74
    c5fc:	006f6974 	teq	v1,t7,0x1a5
    c600:	015fc00a 	movz	t8,t2,ra
    c604:	23020000 	addi	v0,t8,0
    c608:	71650902 	0x71650902
    c60c:	61766975 	0x61766975
    c610:	746e656c 	jalx	1b995b0 <AP_BANK_SPACE+0x1b595b0>
    c614:	6961675f 	0x6961675f
    c618:	c10a006e 	ll	t2,110(t0)
    c61c:	0000015f 	0x15f
    c620:	09042302 	j	4108c08 <AP_BANK_SPACE+0x40c8c08>
    c624:	6372646d 	0x6372646d
    c628:	6572705f 	0x6572705f
    c62c:	5f747563 	0x5f747563
    c630:	69746172 	0x69746172
    c634:	c20a006f 	ll	t2,111(s0)
    c638:	00000146 	0x146
    c63c:	15062302 	bne	t0,a2,15248 <SRAM_BT_EXT5_BANK_ADDR+0xc48>
    c640:	0000023b 	0x23b
    c644:	015fc30a 	0x15fc30a
    c648:	23020000 	addi	v0,t8,0
    c64c:	6f700908 	0x6f700908
    c650:	705f7473 	0x705f7473
    c654:	75636572 	jalx	58d95c8 <AP_BANK_SPACE+0x58995c8>
    c658:	61725f74 	0x61725f74
    c65c:	006f6974 	teq	v1,t7,0x1a5
    c660:	0153c40a 	0x153c40a
    c664:	23020000 	addi	v0,t8,0
    c668:	6570090a 	0x6570090a
    c66c:	6e655f71 	0x6e655f71
    c670:	656c6261 	0x656c6261
    c674:	a6c50a00 	sh	a1,2560(s6)
    c678:	02000000 	0x2000000
    c67c:	73090b23 	0x73090b23
    c680:	635f6b70 	0x635f6b70
    c684:	65706d6f 	0x65706d6f
    c688:	7461736e 	jalx	185cdb8 <AP_BANK_SPACE+0x181cdb8>
    c68c:	5f6e6f69 	0x5f6e6f69
    c690:	62616e65 	0x62616e65
    c694:	0a00656c 	j	80195b0 <AP_BANK_SPACE+0x7fd95b0>
    c698:	0000a6c6 	0xa6c6
    c69c:	0c230200 	jal	8c0800 <AP_BANK_SPACE+0x880800>
    c6a0:	61627609 	0x61627609
    c6a4:	655f7373 	0x655f7373
    c6a8:	6c62616e 	0x6c62616e
    c6ac:	c70a0065 	lwc1	$f10,101(t8)
    c6b0:	000000a6 	0xa6
    c6b4:	090d2302 	j	4348c08 <AP_BANK_SPACE+0x4308c08>
    c6b8:	72757376 	0x72757376
    c6bc:	6e756f72 	0x6e756f72
    c6c0:	6e655f64 	0x6e655f64
    c6c4:	656c6261 	0x656c6261
    c6c8:	a6c80a00 	sh	t0,2560(s6)
    c6cc:	02000000 	0x2000000
    c6d0:	74090e23 	jalx	24388c <AP_BANK_SPACE+0x20388c>
    c6d4:	6c626572 	0x6c626572
    c6d8:	6e655f65 	0x6e655f65
    c6dc:	636e6168 	0x636e6168
    c6e0:	6e655f65 	0x6e655f65
    c6e4:	656c6261 	0x656c6261
    c6e8:	a6c90a00 	sh	t1,2560(s6)
    c6ec:	02000000 	0x2000000
    c6f0:	6d090f23 	0x6d090f23
    c6f4:	5f637264 	0x5f637264
    c6f8:	62616e65 	0x62616e65
    c6fc:	0a00656c 	j	80195b0 <AP_BANK_SPACE+0x7fd95b0>
    c700:	0000a6ca 	0xa6ca
    c704:	10230200 	beq	at,v1,cf08 <SROM_FS_ADDR+0xf08>
    c708:	6d696c09 	0x6d696c09
    c70c:	72657469 	0x72657469
    c710:	616e655f 	0x616e655f
    c714:	00656c62 	0x656c62
    c718:	00a6cb0a 	0xa6cb0a
    c71c:	23020000 	addi	v0,t8,0
    c720:	6e650911 	0x6e650911
    c724:	79677265 	0x79677265
    c728:	7465645f 	jalx	195917c <AP_BANK_SPACE+0x191917c>
    c72c:	5f746365 	0x5f746365
    c730:	62616e65 	0x62616e65
    c734:	0a00656c 	j	80195b0 <AP_BANK_SPACE+0x7fd95b0>
    c738:	0000a6cc 	syscall	0x29b
    c73c:	12230200 	beq	s1,v1,cf40 <SROM_FS_ADDR+0xf40>
    c740:	696f6e09 	0x696f6e09
    c744:	725f6573 	0x725f6573
    c748:	63756465 	0x63756465
    c74c:	6e6f6974 	0x6e6f6974
    c750:	616e655f 	0x616e655f
    c754:	00656c62 	0x656c62
    c758:	00a6cd0a 	0xa6cd0a
    c75c:	23020000 	addi	v0,t8,0
    c760:	6e650913 	0x6e650913
    c764:	656c6261 	0x656c6261
    c768:	3238325f 	andi	t8,s1,0x325f
    c76c:	0a005433 	j	80150cc <AP_BANK_SPACE+0x7fd50cc>
    c770:	0000a6ce 	0xa6ce
    c774:	14230200 	bne	at,v1,cf78 <SROM_FS_ADDR+0xf78>
    c778:	65616409 	0x65616409
    c77c:	6972705f 	0x6972705f
    c780:	655f746e 	0x655f746e
    c784:	6c62616e 	0x6c62616e
    c788:	cf0a0065 	pref	0xa,101(t8)
    c78c:	000000a6 	0xa6
    c790:	09152302 	j	4548c08 <AP_BANK_SPACE+0x4508c08>
    c794:	5f6e7572 	0x5f6e7572
    c798:	71657266 	0x71657266
    c79c:	46d10a00 	c1	0xd10a00
    c7a0:	02000001 	movf	zero,s0,$fcc0
    c7a4:	70091623 	0x70091623
    c7a8:	625f7165 	0x625f7165
    c7ac:	73646e61 	0x73646e61
    c7b0:	49d30a00 	0x49d30a00
    c7b4:	0200001c 	0x200001c
    c7b8:	70091823 	0x70091823
    c7bc:	625f7165 	0x625f7165
    c7c0:	5f646e61 	0x5f646e61
    c7c4:	62616e65 	0x62616e65
    c7c8:	745f656c 	jalx	17d95b0 <AP_BANK_SPACE+0x17995b0>
    c7cc:	00657079 	0x657079
    c7d0:	1c59d40a 	0x1c59d40a
    c7d4:	23030000 	addi	v1,t8,0
    c7d8:	740901b8 	jalx	2406e0 <AP_BANK_SPACE+0x2006e0>
    c7dc:	6c626572 	0x6c626572
    c7e0:	6e655f65 	0x6e655f65
    c7e4:	636e6168 	0x636e6168
    c7e8:	75635f65 	jalx	58d7d94 <AP_BANK_SPACE+0x5897d94>
    c7ec:	72665f74 	0x72665f74
    c7f0:	0a007165 	j	801c594 <AP_BANK_SPACE+0x7fdc594>
    c7f4:	00015fd6 	0x15fd6
    c7f8:	cc230300 	pref	0x3,768(at)
    c7fc:	72740901 	0x72740901
    c800:	656c6265 	0x656c6265
    c804:	686e655f 	0x686e655f
    c808:	65636e61 	0x65636e61
    c80c:	7461725f 	jalx	185c97c <AP_BANK_SPACE+0x181c97c>
    c810:	0a006f69 	j	801bda4 <AP_BANK_SPACE+0x7fdbda4>
    c814:	00016dd7 	0x16dd7
    c818:	ce230300 	pref	0x3,768(s1)
    c81c:	70730901 	0x70730901
    c820:	6f635f6b 	0x6f635f6b
    c824:	735f706d 	0x735f706d
    c828:	6372756f 	0x6372756f
    c82c:	d90a0065 	ldc2	$10,101(t0)
    c830:	00000146 	0x146
    c834:	01d02303 	0x1d02303
    c838:	6b707309 	0x6b707309
    c83c:	6d6f635f 	0x6d6f635f
    c840:	69665f70 	0x69665f70
    c844:	7265746c 	0x7265746c
    c848:	64726f5f 	0x64726f5f
    c84c:	0a007265 	j	801c994 <AP_BANK_SPACE+0x7fdc994>
    c850:	0000d8da 	0xd8da
    c854:	d2230300 	0xd2230300
    c858:	70730901 	0x70730901
    c85c:	6f635f6b 	0x6f635f6b
    c860:	665f706d 	0x665f706d
    c864:	65746c69 	0x65746c69
    c868:	76515f72 	jalx	9457dc8 <AP_BANK_SPACE+0x9417dc8>
    c86c:	654c6c61 	0x654c6c61
    c870:	0a007466 	j	801d198 <AP_BANK_SPACE+0x7fdd198>
    c874:	000146db 	0x146db
    c878:	d4230300 	ldc1	$f3,768(at)
    c87c:	70730901 	0x70730901
    c880:	6f635f6b 	0x6f635f6b
    c884:	665f706d 	0x665f706d
    c888:	65746c69 	0x65746c69
    c88c:	76515f72 	jalx	9457dc8 <AP_BANK_SPACE+0x9417dc8>
    c890:	69526c61 	0x69526c61
    c894:	00746867 	0x746867
    c898:	0146dc0a 	0x146dc0a
    c89c:	23030000 	addi	v1,t8,0
    c8a0:	760901d5 	jalx	8240754 <AP_BANK_SPACE+0x8200754>
    c8a4:	73736162 	0x73736162
    c8a8:	7475635f 	jalx	1d58d7c <AP_BANK_SPACE+0x1d18d7c>
    c8ac:	6572665f 	0x6572665f
    c8b0:	de0a0071 	ldc3	$10,113(s0)
    c8b4:	0000015f 	0x15f
    c8b8:	01d62303 	0x1d62303
    c8bc:	61627609 	0x61627609
    c8c0:	725f7373 	0x725f7373
    c8c4:	6f697461 	0x6f697461
    c8c8:	6ddf0a00 	0x6ddf0a00
    c8cc:	03000001 	movf	zero,t8,$fcc0
    c8d0:	0901d823 	j	407608c <AP_BANK_SPACE+0x403608c>
    c8d4:	6769726f 	0x6769726f
    c8d8:	6c616e69 	0x6c616e69
    c8dc:	7361625f 	udi15	k1,at,t4,0x9
    c8e0:	61725f73 	0x61725f73
    c8e4:	006f6974 	teq	v1,t7,0x1a5
    c8e8:	0153e00a 	movz	gp,t2,s3
    c8ec:	23030000 	addi	v1,t8,0
    c8f0:	760901da 	jalx	8240768 <AP_BANK_SPACE+0x8200768>
    c8f4:	72727573 	0x72727573
    c8f8:	646e756f 	0x646e756f
    c8fc:	676e615f 	0x676e615f
    c900:	0a00656c 	j	80195b0 <AP_BANK_SPACE+0x7fd95b0>
    c904:	000146e2 	0x146e2
    c908:	db230300 	ldc2	$3,768(t9)
    c90c:	73760901 	0x73760901
    c910:	6f727275 	0x6f727275
    c914:	5f646e75 	0x5f646e75
    c918:	69746172 	0x69746172
    c91c:	e30a006f 	sc	t2,111(t8)
    c920:	00000153 	0x153
    c924:	01dc2303 	0x1dc2303
    c928:	72646d09 	0x72646d09
    c92c:	72635f63 	0x72635f63
    c930:	6f73736f 	0x6f73736f
    c934:	5f726576 	0x5f726576
    c938:	71657266 	0x71657266
    c93c:	69e50a00 	0x69e50a00
    c940:	0300001c 	0x300001c
    c944:	0901de23 	j	407788c <AP_BANK_SPACE+0x403788c>
    c948:	6372646d 	0x6372646d
    c94c:	6e61625f 	0x6e61625f
    c950:	0a007364 	j	801cd90 <AP_BANK_SPACE+0x7fdcd90>
    c954:	001c79e6 	0x1c79e6
    c958:	e2230300 	sc	v1,768(s1)
    c95c:	696c0901 	0x696c0901
    c960:	6574696d 	0x6574696d
    c964:	68745f72 	0x68745f72
    c968:	68736572 	0x68736572
    c96c:	00646c6f 	0x646c6f
    c970:	016de80a 	movz	sp,t3,t5
    c974:	23030000 	addi	v1,t8,0
    c978:	6c0901fa 	0x6c0901fa
    c97c:	74696d69 	jalx	1a5b5a4 <AP_BANK_SPACE+0x1a1b5a4>
    c980:	615f7265 	0x615f7265
    c984:	63617474 	0x63617474
    c988:	69745f6b 	0x69745f6b
    c98c:	0a00656d 	j	80195b4 <AP_BANK_SPACE+0x7fd95b4>
    c990:	00015fe9 	0x15fe9
    c994:	fc230300 	sdc3	$3,768(at)
    c998:	696c0901 	0x696c0901
    c99c:	6574696d 	0x6574696d
    c9a0:	65725f72 	0x65725f72
    c9a4:	7361656c 	0x7361656c
    c9a8:	69745f65 	0x69745f65
    c9ac:	0a00656d 	j	80195b4 <AP_BANK_SPACE+0x7fd95b4>
    c9b0:	00015fea 	0x15fea
    c9b4:	fe230300 	sdc3	$3,768(s1)
    c9b8:	65640901 	0x65640901
    c9bc:	61625f77 	0x61625f77
    c9c0:	0073646e 	0x73646e
    c9c4:	1c89ec0a 	0x1c89ec0a
    c9c8:	23030000 	addi	v1,t8,0
    c9cc:	70090280 	0x70090280
    c9d0:	6f697265 	0x6f697265
    c9d4:	6f635f64 	0x6f635f64
    c9d8:	00746e75 	0x746e75
    c9dc:	0146ee0a 	0x146ee0a
    c9e0:	23030000 	addi	v1,t8,0
    c9e4:	70090298 	udi8	zero,t1,zero,0xa
    c9e8:	64616572 	0x64616572
    c9ec:	7473756a 	jalx	1cdd5a8 <AP_BANK_SPACE+0x1c9d5a8>
    c9f0:	756f635f 	jalx	5bd8d7c <AP_BANK_SPACE+0x5b98d7c>
    c9f4:	0a00746e 	j	801d1b8 <AP_BANK_SPACE+0x7fdd1b8>
    c9f8:	000146ef 	0x146ef
    c9fc:	99230300 	lwr	v1,768(t1)
    ca00:	65700902 	0x65700902
    ca04:	646f6972 	0x646f6972
    ca08:	d8f00a00 	ldc2	$16,2560(a3)
    ca0c:	03000000 	0x3000000
    ca10:	09029a23 	j	40a688c <AP_BANK_SPACE+0x406688c>
    ca14:	61657270 	0x61657270
    ca18:	73756a64 	0x73756a64
    ca1c:	62645f74 	0x62645f74
    ca20:	d8f10a00 	ldc2	$17,2560(a3)
    ca24:	03000000 	0x3000000
    ca28:	09029c23 	j	40a708c <AP_BANK_SPACE+0x406708c>
    ca2c:	6e676973 	0x6e676973
    ca30:	655f6c61 	0x655f6c61
    ca34:	6772656e 	0x6772656e
    ca38:	6e695f79 	0x6e695f79
    ca3c:	0a007469 	j	801d1a4 <AP_BANK_SPACE+0x7fdd1a4>
    ca40:	0000d8f2 	tlt	zero,zero,0x363
    ca44:	9e230300 	0x9e230300
    ca48:	646d0902 	0x646d0902
    ca4c:	745f6372 	jalx	17d8dc8 <AP_BANK_SPACE+0x1798dc8>
    ca50:	73657268 	0x73657268
    ca54:	646c6f68 	0x646c6f68
    ca58:	7361625f 	udi15	k1,at,t4,0x9
    ca5c:	f40a0065 	sdc1	$f10,101(zero)
    ca60:	00001c99 	0x1c99
    ca64:	02a02303 	0x2a02303
    ca68:	72646d09 	0x72646d09
    ca6c:	68745f63 	0x68745f63
    ca70:	68736572 	0x68736572
    ca74:	5f646c6f 	0x5f646c6f
    ca78:	65736162 	0x65736162
    ca7c:	78616d5f 	0x78616d5f
    ca80:	6df50a00 	0x6df50a00
    ca84:	03000001 	movf	zero,t8,$fcc0
    ca88:	0902a623 	j	40a988c <AP_BANK_SPACE+0x406988c>
    ca8c:	696d696c 	0x696d696c
    ca90:	5f726574 	0x5f726574
    ca94:	65726874 	0x65726874
    ca98:	6c6f6873 	0x6c6f6873
    ca9c:	69645f64 	0x69645f64
    caa0:	0a006666 	j	8019998 <AP_BANK_SPACE+0x7fd9998>
    caa4:	00016df6 	tne	zero,at,0x1b7
    caa8:	a8230300 	swl	v1,768(at)
    caac:	754d0902 	jalx	5342408 <AP_BANK_SPACE+0x5302408>
    cab0:	4669746c 	c1	0x69746c
    cab4:	42716572 	c0	0x716572
    cab8:	45646e61 	0x45646e61
    cabc:	6772656e 	0x6772656e
    cac0:	6e655f79 	0x6e655f79
    cac4:	656c6261 	0x656c6261
    cac8:	46f80a00 	c1	0xf80a00
    cacc:	03000001 	movf	zero,t8,$fcc0
    cad0:	0902aa23 	j	40aa88c <AP_BANK_SPACE+0x406a88c>
    cad4:	71657246 	0x71657246
    cad8:	74657053 	jalx	195c14c <AP_BANK_SPACE+0x191c14c>
    cadc:	446d7572 	0x446d7572
    cae0:	6c707369 	0x6c707369
    cae4:	655f7961 	0x655f7961
    cae8:	6c62616e 	0x6c62616e
    caec:	f90a0065 	sdc2	$10,101(t0)
    caf0:	00000146 	0x146
    caf4:	02ab2303 	0x2ab2303
    caf8:	65616409 	0x65616409
    cafc:	7474615f 	jalx	1d1857c <AP_BANK_SPACE+0x1cd857c>
    cb00:	75626972 	jalx	589a5c8 <AP_BANK_SPACE+0x585a5c8>
    cb04:	00736574 	teq	v1,s3,0x195
    cb08:	1ca9fc0a 	0x1ca9fc0a
    cb0c:	23030000 	addi	v1,t8,0
    cb10:	631102ac 	0x631102ac
    cb14:	72706d6f 	0x72706d6f
    cb18:	6f737365 	0x6f737365
    cb1c:	6e655f72 	0x6e655f72
    cb20:	656c6261 	0x656c6261
    cb24:	6174735f 	0x6174735f
    cb28:	7261646e 	0x7261646e
    cb2c:	6f6d5f64 	0x6f6d5f64
    cb30:	0a006564 	j	8019590 <AP_BANK_SPACE+0x7fd9590>
    cb34:	00a60100 	0xa60100
    cb38:	23030000 	addi	v1,t8,0
    cb3c:	6d1102b0 	0x6d1102b0
    cb40:	5f637264 	0x5f637264
    cb44:	62616e65 	0x62616e65
    cb48:	735f656c 	0x735f656c
    cb4c:	646e6174 	0x646e6174
    cb50:	5f647261 	0x5f647261
    cb54:	65646f6d 	0x65646f6d
    cb58:	01010a00 	0x1010a00
    cb5c:	000000a6 	0xa6
    cb60:	02b12303 	0x2b12303
    cb64:	64756111 	0x64756111
    cb68:	70706f69 	0x70706f69
    cb6c:	7079745f 	udi15	v1,t9,t6,0x11
    cb70:	70755f65 	0x70755f65
    cb74:	65746164 	0x65746164
    cb78:	616c665f 	0x616c665f
    cb7c:	020a0067 	0x20a0067
    cb80:	0000a601 	0xa601
    cb84:	b2230300 	0xb2230300
    cb88:	75611102 	jalx	5844408 <AP_BANK_SPACE+0x5804408>
    cb8c:	706f6964 	0x706f6964
    cb90:	79745f70 	0x79745f70
    cb94:	0a006570 	j	80195c0 <AP_BANK_SPACE+0x7fd95c0>
    cb98:	01460103 	0x1460103
    cb9c:	23030000 	addi	v1,t8,0
    cba0:	701102b3 	0x701102b3
    cba4:	75636572 	jalx	58d95c8 <AP_BANK_SPACE+0x58995c8>
    cba8:	74735f74 	jalx	1cd7dd0 <AP_BANK_SPACE+0x1c97dd0>
    cbac:	61646e61 	0x61646e61
    cbb0:	6d5f6472 	0x6d5f6472
    cbb4:	0065646f 	0x65646f
    cbb8:	5f01040a 	0x5f01040a
    cbbc:	03000001 	movf	zero,t8,$fcc0
    cbc0:	1102b423 	beq	t0,v0,ffff9c50 <get_app_msg+0x403d3720>
    cbc4:	616e7964 	0x616e7964
    cbc8:	5f63696d 	0x5f63696d
    cbcc:	63657270 	0x63657270
    cbd0:	735f7475 	0x735f7475
    cbd4:	646e6174 	0x646e6174
    cbd8:	5f647261 	0x5f647261
    cbdc:	65646f6d 	0x65646f6d
    cbe0:	01050a00 	0x1050a00
    cbe4:	00000153 	0x153
    cbe8:	02b62303 	0x2b62303
    cbec:	6d6f6311 	0x6d6f6311
    cbf0:	73657270 	0x73657270
    cbf4:	5f726f73 	0x5f726f73
    cbf8:	65726874 	0x65726874
    cbfc:	6c6f6873 	0x6c6f6873
    cc00:	69645f64 	0x69645f64
    cc04:	0a006666 	j	8019998 <AP_BANK_SPACE+0x7fd9998>
    cc08:	016d0107 	0x16d0107
    cc0c:	23030000 	addi	v1,t8,0
    cc10:	6d1102b8 	0x6d1102b8
    cc14:	75656b61 	jalx	595ad84 <AP_BANK_SPACE+0x591ad84>
    cc18:	61675f70 	0x61675f70
    cc1c:	735f6e69 	0x735f6e69
    cc20:	646e6174 	0x646e6174
    cc24:	5f647261 	0x5f647261
    cc28:	65646f6d 	0x65646f6d
    cc2c:	01080a00 	0x1080a00
    cc30:	0000015f 	0x15f
    cc34:	02ba2303 	0x2ba2303
    cc38:	6d6f6311 	0x6d6f6311
    cc3c:	73657270 	0x73657270
    cc40:	5f726f73 	0x5f726f73
    cc44:	6e617473 	0x6e617473
    cc48:	64726164 	0x64726164
    cc4c:	646f6d5f 	0x646f6d5f
    cc50:	090a0065 	j	4280194 <AP_BANK_SPACE+0x4240194>
    cc54:	0012c301 	0x12c301
    cc58:	bc230300 	cache	0x3,768(at)
    cc5c:	646d1102 	0x646d1102
    cc60:	655f6372 	0x655f6372
    cc64:	6e657478 	0x6e657478
    cc68:	61705f64 	0x61705f64
    cc6c:	735f6172 	0x735f6172
    cc70:	646e6174 	0x646e6174
    cc74:	5f647261 	0x5f647261
    cc78:	65646f6d 	0x65646f6d
    cc7c:	010a0a00 	0x10a0a00
    cc80:	00001414 	0x1414
    cc84:	02ca2303 	0x2ca2303
    cc88:	72646d11 	udi1	s3,a0,t5,0x14
    cc8c:	65705f63 	0x65705f63
    cc90:	735f6b61 	0x735f6b61
    cc94:	646e6174 	0x646e6174
    cc98:	5f647261 	0x5f647261
    cc9c:	65646f6d 	0x65646f6d
    cca0:	010b0a00 	0x10b0a00
    cca4:	000014f9 	0x14f9
    cca8:	02d22303 	0x2d22303
    ccac:	6d5f7011 	0x6d5f7011
    ccb0:	5f637264 	0x5f637264
    ccb4:	646e6162 	0x646e6162
    ccb8:	6174735f 	0x6174735f
    ccbc:	7261646e 	0x7261646e
    ccc0:	6f6d5f64 	0x6f6d5f64
    ccc4:	0a006564 	j	8019590 <AP_BANK_SPACE+0x7fd9590>
    ccc8:	1caf010c 	0x1caf010c
    cccc:	23030000 	addi	v1,t8,0
    ccd0:	761102dc 	jalx	8440b70 <AP_BANK_SPACE+0x8400b70>
    ccd4:	6d756c6f 	0x6d756c6f
    ccd8:	75635f65 	jalx	58d7d94 <AP_BANK_SPACE+0x5897d94>
    ccdc:	6e657272 	0x6e657272
    cce0:	0e0a0074 	jal	82801d0 <AP_BANK_SPACE+0x82401d0>
    cce4:	00014601 	0x14601
    cce8:	e0230300 	sc	v1,768(at)
    ccec:	59060002 	0x59060002
    ccf0:	1600001c 	bnez	s0,cd64 <SROM_FS_ADDR+0xd64>
    ccf4:	07000011 	bltz	t8,cd3c <SROM_FS_ADDR+0xd3c>
    ccf8:	00000197 	0x197
    ccfc:	69060013 	0x69060013
    cd00:	4600001c 	c1	0x1c
    cd04:	07000001 	bltz	t8,cd0c <SROM_FS_ADDR+0xd0c>
    cd08:	00000197 	0x197
    cd0c:	79060013 	0x79060013
    cd10:	5f00001c 	bgtzl	t8,cd84 <SROM_FS_ADDR+0xd84>
    cd14:	07000001 	bltz	t8,cd1c <SROM_FS_ADDR+0xd1c>
    cd18:	00000197 	0x197
    cd1c:	89060001 	lwl	a2,1(t0)
    cd20:	7300001c 	udi12	t8,zero,zero,0x0
    cd24:	07000011 	bltz	t8,cd6c <SROM_FS_ADDR+0xd6c>
    cd28:	00000197 	0x197
    cd2c:	99060002 	lwr	a2,2(t0)
    cd30:	af00001c 	sw	zero,28(t8)
    cd34:	07000011 	bltz	t8,cd7c <SROM_FS_ADDR+0xd7c>
    cd38:	00000197 	0x197
    cd3c:	a9060005 	swl	a2,5(t0)
    cd40:	6d00001c 	0x6d00001c
    cd44:	07000001 	bltz	t8,cd4c <SROM_FS_ADDR+0xd4c>
    cd48:	00000197 	0x197
    cd4c:	040a0002 	tlti	zero,2
    cd50:	0000123a 	0x123a
    cd54:	1382040a 	beq	gp,v0,dd80 <SROM_SPINOR1_ADDR+0x180>
    cd58:	640d0000 	0x640d0000
    cd5c:	635f6561 	0x635f6561
    cd60:	69666e6f 	0x69666e6f
    cd64:	00745f67 	0x745f67
    cd68:	21010f0a 	addi	at,t0,3850
    cd6c:	17000015 	bnez	t8,cdc4 <SROM_FS_ADDR+0xdc4>
    cd70:	00001d04 	0x1d04
    cd74:	656d6601 	0x656d6601
    cd78:	6e69676e 	0x6e69676e
    cd7c:	65735f65 	0x65735f65
    cd80:	71655f74 	0x71655f74
    cd84:	01040100 	0x1040100
    cd88:	000009d7 	0x9d7
    cd8c:	601269c1 	0x601269c1
    cd90:	60126a10 	0x60126a10
    cd94:	6d186101 	0x6d186101
    cd98:	705f6773 	0x705f6773
    cd9c:	01007274 	teq	t0,zero,0x1c9
    cda0:	000af903 	sra	ra,t2,0x4
    cda4:	08910200 	j	2440800 <AP_BANK_SPACE+0x2400800>
    cda8:	5f671900 	0x5f671900
    cdac:	73696874 	0x73696874
    cdb0:	7070615f 	udi15	v1,s0,t4,0x5
    cdb4:	6d69745f 	0x6d69745f
    cdb8:	745f7265 	jalx	17dc994 <AP_BANK_SPACE+0x179c994>
    cdbc:	06006761 	bltz	s0,26b44 <OFFSET+0x344>
    cdc0:	00014685 	0x14685
    cdc4:	1a010100 	0x1a010100
    cdc8:	70615f67 	0x70615f67
    cdcc:	6e695f70 	0x6e695f70
    cdd0:	735f6f66 	0x735f6f66
    cdd4:	65746174 	0x65746174
    cdd8:	6c6c615f 	0x6c6c615f
    cddc:	018e0700 	0x18e0700
    cde0:	00000dae 	0xdae
    cde4:	671a0101 	0x671a0101
    cde8:	7070615f 	udi15	v1,s0,t4,0x5
    cdec:	73616c5f 	udi15	k1,at,t5,0x11
    cdf0:	74735f74 	jalx	1cd7dd0 <AP_BANK_SPACE+0x1c97dd0>
    cdf4:	00657461 	0x657461
    cdf8:	b9019407 	swr	at,-27641(t0)
    cdfc:	01000010 	0x1000010
    ce00:	5f671a01 	0x5f671a01
    ce04:	5f707061 	0x5f707061
    ce08:	6f666e69 	0x6f666e69
    ce0c:	6174735f 	0x6174735f
    ce10:	07006574 	bltz	t8,263e4 <SRAM_AP_BACK_RCODE_ADDR+0x3e4>
    ce14:	1031019a 	beq	at,s1,d480 <SROM_FS_ADDR+0x1480>
    ce18:	01010000 	0x1010000
    ce1c:	6d5f6719 	0x6d5f6719
    ce20:	705f6d6d 	0x705f6d6d
    ce24:	61685f70 	0x61685f70
    ce28:	656c646e 	0x656c646e
    ce2c:	9e1c0900 	0x9e1c0900
    ce30:	01000001 	movf	zero,t0,$fcc0
    ce34:	5f671901 	0x5f671901
    ce38:	635f6d66 	0x635f6d66
    ce3c:	656e6168 	0x656e6168
    ce40:	1f09006c 	0x1f09006c
    ce44:	00000146 	0x146
    ce48:	67190101 	0x67190101
    ce4c:	6561645f 	0x6561645f
    ce50:	6766635f 	0x6766635f
    ce54:	6d68735f 	0x6d68735f
    ce58:	bc220900 	cache	0x2,2304(at)
    ce5c:	0100001d 	0x100001d
    ce60:	b5040a01 	0xb5040a01
    ce64:	0000001c 	0x1c
Disassembly of section .debug_line:

00000000 <.debug_line>:
   0:	00000164 	0x164
   4:	00e90002 	0xe90002
   8:	01010000 	0x1010000
   c:	000a0efb 	0xa0efb
  10:	01010101 	0x1010101
  14:	01000000 	0x1000000
  18:	2e2e2f2e 	sltiu	t6,s1,12078
  1c:	2f2e2e2f 	sltiu	t6,t9,11823
  20:	00636e69 	0x636e69
  24:	2e2e2f2e 	sltiu	t6,s1,12078
  28:	2f2e2e2f 	sltiu	t6,t9,11823
  2c:	702f2e2e 	0x702f2e2e
  30:	725f7073 	0x725f7073
  34:	692f6c65 	0x692f6c65
  38:	756c636e 	jalx	5b18db8 <AP_BANK_SPACE+0x5ad8db8>
  3c:	2e006564 	sltiu	zero,s0,25956
  40:	2f2e2e2f 	sltiu	t6,t9,11823
  44:	2e2f2e2e 	sltiu	t7,s1,11822
  48:	73702f2e 	0x73702f2e
  4c:	65725f70 	0x65725f70
  50:	6e692f6c 	0x6e692f6c
  54:	64756c63 	0x64756c63
  58:	63752f65 	0x63752f65
  5c:	0000736f 	0x736f
  60:	6e656d66 	0x6e656d66
  64:	656e6967 	0x656e6967
  68:	6e6f635f 	0x6e6f635f
  6c:	6c6f7274 	0x6c6f7274
  70:	0000632e 	0x632e
  74:	70610000 	madd	v1,at
  78:	736d5f70 	0x736d5f70
  7c:	00682e67 	0x682e67
  80:	74000001 	jalx	4 <DRV_GROUP_EXFAT>
  84:	65657079 	0x65657079
  88:	682e7478 	0x682e7478
  8c:	00000200 	sll	zero,zero,0x8
  90:	682e736f 	0x682e736f
  94:	00000300 	sll	zero,zero,0xc
  98:	65736163 	0x65736163
  9c:	7079745f 	udi15	v1,t9,t6,0x11
  a0:	00682e65 	0x682e65
  a4:	61000001 	0x61000001
  a8:	745f7070 	jalx	17dc1c0 <AP_BANK_SPACE+0x179c1c0>
  ac:	72656d69 	0x72656d69
  b0:	0100682e 	0x100682e
  b4:	70610000 	madd	v1,at
  b8:	62696c70 	0x62696c70
  bc:	0100682e 	0x100682e
  c0:	63750000 	0x63750000
  c4:	745f736f 	jalx	17dcdbc <AP_BANK_SPACE+0x179cdbc>
  c8:	73657079 	0x73657079
  cc:	0300682e 	0x300682e
  d0:	70610000 	madd	v1,at
  d4:	6d665f70 	0x6d665f70
  d8:	69676e65 	0x69676e65
  dc:	682e656e 	0x682e656e
  e0:	00000000 	nop
  e4:	6e656d66 	0x6e656d66
  e8:	656e6967 	0x656e6967
  ec:	0100682e 	0x100682e
  f0:	00000000 	nop
  f4:	68cd0205 	0x68cd0205
  f8:	0b036002 	j	c0d8008 <AP_BANK_SPACE+0xc098008>
  fc:	02496401 	0x2496401
 100:	9c13038a 	0x9c13038a
 104:	642f9c2f 	0x642f9c2f
 108:	9c2f9c2e 	0x9c2f9c2e
 10c:	6449b8d7 	0x6449b8d7
 110:	9c2f9c31 	0x9c2f9c31
 114:	9c309c2f 	0x9c309c2f
 118:	9c319c2f 	0x9c319c2f
 11c:	9c2f9c2f 	0x9c2f9c2f
 120:	9c2f9c2f 	0x9c2f9c2f
 124:	9c2f9c2f 	0x9c2f9c2f
 128:	9c2f9d31 	0x9c2f9d31
 12c:	a12e9c2f 	sb	t6,-25553(t1)
 130:	00750248 	0x750248
 134:	05000101 	bltz	t0,53c <SRAM_BT_CONTROLLER_RCODE_SIZE+0x3c>
 138:	c2601902 	ll	zero,6402(s3)
 13c:	f06414bf 	0xf06414bf
 140:	9b018803 	lwr	at,-30717(t8)
 144:	3c024964 	lui	v0,0x4964
 148:	9c2f9c14 	0x9c2f9c14
 14c:	9c2f9c2f 	0x9c2f9c2f
 150:	9c2f9c31 	0x9c2f9c31
 154:	02489e2e 	0x2489e2e
 158:	4d481328 	0x4d481328
 15c:	b8d41e08 	swr	s4,7688(a2)
 160:	0248d52f 	0x248d52f
 164:	0101000f 	0x101000f
 168:	0000015f 	0x15f
 16c:	010a0002 	0x10a0002
 170:	01010000 	0x1010000
 174:	000a0efb 	0xa0efb
 178:	01010101 	0x1010101
 17c:	01000000 	0x1000000
 180:	2e2e2f2e 	sltiu	t6,s1,12078
 184:	2f2e2e2f 	sltiu	t6,t9,11823
 188:	00636e69 	0x636e69
 18c:	2e2e2f2e 	sltiu	t6,s1,12078
 190:	2f2e2e2f 	sltiu	t6,t9,11823
 194:	702f2e2e 	0x702f2e2e
 198:	725f7073 	0x725f7073
 19c:	692f6c65 	0x692f6c65
 1a0:	756c636e 	jalx	5b18db8 <AP_BANK_SPACE+0x5ad8db8>
 1a4:	2e006564 	sltiu	zero,s0,25956
 1a8:	2f2e2e2f 	sltiu	t6,t9,11823
 1ac:	2e2f2e2e 	sltiu	t7,s1,11822
 1b0:	73702f2e 	0x73702f2e
 1b4:	65725f70 	0x65725f70
 1b8:	6e692f6c 	0x6e692f6c
 1bc:	64756c63 	0x64756c63
 1c0:	63752f65 	0x63752f65
 1c4:	0000736f 	0x736f
 1c8:	6e656d66 	0x6e656d66
 1cc:	656e6967 	0x656e6967
 1d0:	73656d5f 	udi15	k1,a1,t5,0x15
 1d4:	65676173 	0x65676173
 1d8:	7465735f 	jalx	195cd7c <AP_BANK_SPACE+0x191cd7c>
 1dc:	6165645f 	0x6165645f
 1e0:	63725f6c 	0x63725f6c
 1e4:	2e65646f 	sltiu	a1,s3,25711
 1e8:	00000063 	0x63
 1ec:	70706100 	0x70706100
 1f0:	2e62696c 	sltiu	v0,s3,26988
 1f4:	00010068 	0x10068
 1f8:	73616300 	0x73616300
 1fc:	79745f65 	0x79745f65
 200:	682e6570 	0x682e6570
 204:	00000100 	sll	zero,zero,0x4
 208:	5f707061 	0x5f707061
 20c:	2e67736d 	sltiu	a3,s3,29549
 210:	00010068 	0x10068
 214:	70797400 	0x70797400
 218:	74786565 	jalx	1e19594 <AP_BANK_SPACE+0x1dd9594>
 21c:	0200682e 	0x200682e
 220:	736f0000 	madd	k1,t7
 224:	0300682e 	0x300682e
 228:	6d660000 	0x6d660000
 22c:	69676e65 	0x69676e65
 230:	682e656e 	0x682e656e
 234:	00000100 	sll	zero,zero,0x4
 238:	5f707061 	0x5f707061
 23c:	656d6974 	0x656d6974
 240:	00682e72 	tlt	v1,t0,0xb9
 244:	75000001 	jalx	4000004 <AP_BANK_SPACE+0x3fc0004>
 248:	5f736f63 	0x5f736f63
 24c:	65707974 	0x65707974
 250:	00682e73 	tltu	v1,t0,0xb9
 254:	61000003 	0x61000003
 258:	665f7070 	0x665f7070
 25c:	676e656d 	0x676e656d
 260:	2e656e69 	sltiu	a1,s3,28265
 264:	00000068 	0x68
 268:	5f6d6600 	0x5f6d6600
 26c:	65746e69 	0x65746e69
 270:	63616672 	0x63616672
 274:	00682e65 	0x682e65
 278:	00000001 	movf	zero,zero,$fcc0
 27c:	55020500 	bnel	t0,v0,1680 <SRAM_BTCALL_CALLRING_BUF_SIZE+0x680>
 280:	15bfc261 	bne	t5,ra,ffff0c08 <get_app_msg+0x403ca6d8>
 284:	f2804b64 	0xf2804b64
 288:	80829db8 	lb	v0,-25160(a0)
 28c:	4d64d82c 	0x4d64d82c
 290:	81656566 	lb	a1,25958(t3)
 294:	b9652208 	swr	a1,8712(t3)
 298:	2d80829e 	sltiu	zero,t4,-32098
 29c:	ff030204 	sdc3	$3,516(t8)
 2a0:	80390802 	lb	t9,2050(at)
 2a4:	03010464 	0x3010464
 2a8:	649b7d83 	0x649b7d83
 2ac:	6965664d 	0x6965664d
 2b0:	b91f0881 	swr	ra,2177(t0)
 2b4:	66808280 	0x66808280
 2b8:	21082c80 	addi	t0,t0,11392
 2bc:	b8d64a64 	swr	s6,19044(a2)
 2c0:	8281d480 	lb	at,-11136(s4)
 2c4:	13022d80 	beq	t8,v0,b8c8 <SRAM_AP_BANK_FRONT_BASAL_ADDR+0x8c8>
 2c8:	3b010100 	xori	at,t8,0x100
 2cc:	02000001 	movf	zero,s0,$fcc0
 2d0:	00010a00 	sll	at,at,0x8
 2d4:	fb010100 	sdc2	$1,256(t8)
 2d8:	01000a0e 	0x1000a0e
 2dc:	00010101 	0x10101
 2e0:	2e010000 	sltiu	at,s0,0
 2e4:	2f2e2e2f 	sltiu	t6,t9,11823
 2e8:	692f2e2e 	0x692f2e2e
 2ec:	2e00636e 	sltiu	zero,s0,25454
 2f0:	2f2e2e2f 	sltiu	t6,t9,11823
 2f4:	2e2f2e2e 	sltiu	t7,s1,11822
 2f8:	73702f2e 	0x73702f2e
 2fc:	65725f70 	0x65725f70
 300:	6e692f6c 	0x6e692f6c
 304:	64756c63 	0x64756c63
 308:	2f2e0065 	sltiu	t6,t9,101
 30c:	2e2f2e2e 	sltiu	t7,s1,11822
 310:	2e2e2f2e 	sltiu	t6,s1,12078
 314:	7073702f 	0x7073702f
 318:	6c65725f 	0x6c65725f
 31c:	636e692f 	0x636e692f
 320:	6564756c 	0x6564756c
 324:	6f63752f 	0x6f63752f
 328:	66000073 	0x66000073
 32c:	676e656d 	0x676e656d
 330:	5f656e69 	0x5f656e69
 334:	7373656d 	0x7373656d
 338:	5f656761 	0x5f656761
 33c:	5f746567 	0x5f746567
 340:	6c616564 	0x6c616564
 344:	6f63725f 	0x6f63725f
 348:	632e6564 	0x632e6564
 34c:	00000000 	nop
 350:	65736163 	0x65736163
 354:	7079745f 	udi15	v1,t9,t6,0x11
 358:	00682e65 	0x682e65
 35c:	61000001 	0x61000001
 360:	6d5f7070 	0x6d5f7070
 364:	682e6773 	0x682e6773
 368:	00000100 	sll	zero,zero,0x4
 36c:	65707974 	0x65707974
 370:	2e747865 	sltiu	s4,s3,30821
 374:	00020068 	0x20068
 378:	2e736f00 	sltiu	s3,s3,28416
 37c:	00030068 	0x30068
 380:	70706100 	0x70706100
 384:	6d69745f 	0x6d69745f
 388:	682e7265 	0x682e7265
 38c:	00000100 	sll	zero,zero,0x4
 390:	6c707061 	0x6c707061
 394:	682e6269 	0x682e6269
 398:	00000100 	sll	zero,zero,0x4
 39c:	736f6375 	0x736f6375
 3a0:	7079745f 	udi15	v1,t9,t6,0x11
 3a4:	682e7365 	0x682e7365
 3a8:	00000300 	sll	zero,zero,0xc
 3ac:	5f707061 	0x5f707061
 3b0:	6e656d66 	0x6e656d66
 3b4:	656e6967 	0x656e6967
 3b8:	0000682e 	0x682e
 3bc:	6d660000 	0x6d660000
 3c0:	69676e65 	0x69676e65
 3c4:	682e656e 	0x682e656e
 3c8:	00000100 	sll	zero,zero,0x4
 3cc:	695f6d66 	0x695f6d66
 3d0:	7265746e 	0x7265746e
 3d4:	65636166 	0x65636166
 3d8:	0100682e 	0x100682e
 3dc:	00000000 	nop
 3e0:	63210205 	0x63210205
 3e4:	6413bfc2 	0x6413bfc2
 3e8:	b820084b 	swr	zero,2123(at)
 3ec:	9c818082 	0x9c818082
 3f0:	80819c82 	lb	at,-25470(a0)
 3f4:	829c819c 	lb	gp,-32356(s4)
 3f8:	082c8082 	j	b20208 <AP_BANK_SPACE+0xae0208>
 3fc:	f1496421 	0xf1496421
 400:	82d580b8 	lb	s5,-32584(s6)
 404:	00082c80 	sll	a1,t0,0x12
 408:	015a0101 	0x15a0101
 40c:	00020000 	sll	zero,v0,0x0
 410:	000000ee 	0xee
 414:	0efb0101 	jal	bec0404 <AP_BANK_SPACE+0xbe80404>
 418:	0101000a 	movz	zero,t0,at
 41c:	00000101 	0x101
 420:	2f2e0100 	sltiu	t6,t9,256
 424:	2e2f2e2e 	sltiu	t7,s1,11822
 428:	6e692f2e 	0x6e692f2e
 42c:	2f2e0063 	sltiu	t6,t9,99
 430:	2e2f2e2e 	sltiu	t7,s1,11822
 434:	2e2e2f2e 	sltiu	t6,s1,12078
 438:	7073702f 	0x7073702f
 43c:	6c65725f 	0x6c65725f
 440:	636e692f 	0x636e692f
 444:	6564756c 	0x6564756c
 448:	2e2f2e00 	sltiu	t7,s1,11776
 44c:	2e2e2f2e 	sltiu	t6,s1,12078
 450:	2f2e2e2f 	sltiu	t6,t9,11823
 454:	5f707370 	0x5f707370
 458:	2f6c6572 	sltiu	t4,k1,25970
 45c:	6c636e69 	0x6c636e69
 460:	2f656475 	sltiu	a1,k1,25717
 464:	736f6375 	0x736f6375
 468:	6d660000 	0x6d660000
 46c:	69676e65 	0x69676e65
 470:	6d5f656e 	0x6d5f656e
 474:	2e6e6961 	sltiu	t6,s3,26977
 478:	00000063 	0x63
 47c:	70706100 	0x70706100
 480:	2e62696c 	sltiu	v0,s3,26988
 484:	00010068 	0x10068
 488:	73616300 	0x73616300
 48c:	79745f65 	0x79745f65
 490:	682e6570 	0x682e6570
 494:	00000100 	sll	zero,zero,0x4
 498:	65707974 	0x65707974
 49c:	2e747865 	sltiu	s4,s3,30821
 4a0:	00020068 	0x20068
 4a4:	6f637500 	0x6f637500
 4a8:	79745f73 	0x79745f73
 4ac:	2e736570 	sltiu	s3,s3,25968
 4b0:	00030068 	0x30068
 4b4:	70706100 	0x70706100
 4b8:	6d69745f 	0x6d69745f
 4bc:	682e7265 	0x682e7265
 4c0:	00000100 	sll	zero,zero,0x4
 4c4:	5f6d6d6d 	0x5f6d6d6d
 4c8:	5f656164 	0x5f656164
 4cc:	2e666564 	sltiu	a2,s3,25956
 4d0:	00020068 	0x20068
 4d4:	656d6600 	0x656d6600
 4d8:	6e69676e 	0x6e69676e
 4dc:	00682e65 	0x682e65
 4e0:	66000001 	0x66000001
 4e4:	6e695f6d 	0x6e695f6d
 4e8:	66726574 	0x66726574
 4ec:	2e656361 	sltiu	a1,s3,25441
 4f0:	00010068 	0x10068
 4f4:	6d6d6d00 	0x6d6d6d00
 4f8:	2e70705f 	sltiu	s0,s3,28767
 4fc:	00020068 	0x20068
 500:	05000000 	bltz	t0,504 <SRAM_BT_CONTROLLER_RCODE_SIZE+0x4>
 504:	0e680102 	jal	9a00408 <AP_BANK_SPACE+0x99c0408>
 508:	01220360 	0x1220360
 50c:	80d4f049 	lb	s4,-4023(a2)
 510:	d49df19d 	ldc1	$f29,-3683(a0)
 514:	f049e408 	0xf049e408
 518:	64483c08 	0x64483c08
 51c:	64646464 	0x64646464
 520:	b8b86464 	swr	t8,25700(a1)
 524:	9c9c64d6 	0x9c9c64d6
 528:	12037208 	beq	s0,v1,1cd4c <SRAM_OS_TASK_STACK_ADDR+0x174c>
 52c:	4948c508 	0x4948c508
 530:	82470903 	lb	a3,2307(s2)
 534:	4aba64ba 	c2	0xba64ba
 538:	66493c08 	0x66493c08
 53c:	ba67d5ba 	swr	a3,-10822(s3)
 540:	30d464f0 	andi	s4,a2,0x64f0
 544:	135a0248 	beq	k0,k0,e68 <SRAM_ASRC_BUF_0_SIZE+0x68>
 548:	b8bbb849 	swr	k1,-18359(a1)
 54c:	baba66bb 	swr	k0,26299(s5)
 550:	75082c49 	jalx	420b124 <AP_BANK_SPACE+0x41cb124>
 554:	809d4980 	lb	sp,18816(a0)
 558:	04486565 	tgei	v0,25957
 55c:	02820302 	0x2820302
 560:	026480d3 	0x26480d3
 564:	01010009 	0x1010009
 568:	0000013d 	0x13d
 56c:	00fa0002 	0xfa0002
 570:	01010000 	0x1010000
 574:	000a0efb 	0xa0efb
 578:	01010101 	0x1010101
 57c:	01000000 	0x1000000
 580:	2e2e2f2e 	sltiu	t6,s1,12078
 584:	2f2e2e2f 	sltiu	t6,t9,11823
 588:	702f2e2e 	0x702f2e2e
 58c:	725f7073 	0x725f7073
 590:	692f6c65 	0x692f6c65
 594:	756c636e 	jalx	5b18db8 <AP_BANK_SPACE+0x5ad8db8>
 598:	752f6564 	jalx	4bd9590 <AP_BANK_SPACE+0x4b99590>
 59c:	00736f63 	0x736f63
 5a0:	2e2e2f2e 	sltiu	t6,s1,12078
 5a4:	2f2e2e2f 	sltiu	t6,t9,11823
 5a8:	00636e69 	0x636e69
 5ac:	2e2e2f2e 	sltiu	t6,s1,12078
 5b0:	2f2e2e2f 	sltiu	t6,t9,11823
 5b4:	702f2e2e 	0x702f2e2e
 5b8:	725f7073 	0x725f7073
 5bc:	692f6c65 	0x692f6c65
 5c0:	756c636e 	jalx	5b18db8 <AP_BANK_SPACE+0x5ad8db8>
 5c4:	00006564 	0x6564
 5c8:	6e656d66 	0x6e656d66
 5cc:	656e6967 	0x656e6967
 5d0:	616c705f 	0x616c705f
 5d4:	65645f79 	0x65645f79
 5d8:	632e6c61 	0x632e6c61
 5dc:	00000000 	nop
 5e0:	736f6375 	0x736f6375
 5e4:	7079745f 	udi15	v1,t9,t6,0x11
 5e8:	682e7365 	0x682e7365
 5ec:	00000100 	sll	zero,zero,0x4
 5f0:	65736163 	0x65736163
 5f4:	7079745f 	udi15	v1,t9,t6,0x11
 5f8:	00682e65 	0x682e65
 5fc:	61000002 	0x61000002
 600:	6d5f7070 	0x6d5f7070
 604:	682e6773 	0x682e6773
 608:	00000200 	sll	zero,zero,0x8
 60c:	65707974 	0x65707974
 610:	2e747865 	sltiu	s4,s3,30821
 614:	00030068 	0x30068
 618:	2e736f00 	sltiu	s3,s3,28416
 61c:	00010068 	0x10068
 620:	70706100 	0x70706100
 624:	6d69745f 	0x6d69745f
 628:	682e7265 	0x682e7265
 62c:	00000200 	sll	zero,zero,0x8
 630:	6c707061 	0x6c707061
 634:	682e6269 	0x682e6269
 638:	00000200 	sll	zero,zero,0x8
 63c:	5f707061 	0x5f707061
 640:	6e656d66 	0x6e656d66
 644:	656e6967 	0x656e6967
 648:	0000682e 	0x682e
 64c:	6d6d0000 	0x6d6d0000
 650:	61645f6d 	0x61645f6d
 654:	65645f65 	0x65645f65
 658:	00682e66 	0x682e66
 65c:	6d000003 	0x6d000003
 660:	705f6d6d 	0x705f6d6d
 664:	00682e70 	tge	v1,t0,0xb9
 668:	00000003 	sra	zero,zero,0x0
 66c:	01020500 	0x1020500
 670:	17601268 	bnez	k1,5014 <SRAM_AP_BANK_BACK_AL_1_SIZE+0x1014>
 674:	f167b84a 	0xf167b84a
 678:	be651f08 	cache	0x5,7944(s3)
 67c:	f22408f7 	0xf22408f7
 680:	646565f0 	0x646565f0
 684:	48133202 	0x48133202
 688:	66b84948 	0x66b84948
 68c:	4948f269 	0x4948f269
 690:	65d666d4 	0x65d666d4
 694:	0848b9b8 	j	122e6e0 <AP_BANK_SPACE+0x11ee6e0>
 698:	806564e4 	lb	a1,25828(v1)
 69c:	649e2c80 	0x649e2c80
 6a0:	2c808065 	sltiu	zero,a0,-32667
 6a4:	01000902 	0x1000902
 6a8:	0001c301 	0x1c301
 6ac:	10000200 	b	eb0 <SRAM_ASRC_BUF_0_SIZE+0xb0>
 6b0:	01000001 	movf	zero,t0,$fcc0
 6b4:	0a0efb01 	j	83bec04 <AP_BANK_SPACE+0x837ec04>
 6b8:	01010100 	0x1010100
 6bc:	00000001 	movf	zero,zero,$fcc0
 6c0:	2e2f2e01 	sltiu	t7,s1,11777
 6c4:	2e2e2f2e 	sltiu	t6,s1,12078
 6c8:	636e692f 	0x636e692f
 6cc:	2e2f2e00 	sltiu	t7,s1,11776
 6d0:	2e2e2f2e 	sltiu	t6,s1,12078
 6d4:	2f2e2e2f 	sltiu	t6,t9,11823
 6d8:	5f707370 	0x5f707370
 6dc:	2f6c6572 	sltiu	t4,k1,25970
 6e0:	6c636e69 	0x6c636e69
 6e4:	2f656475 	sltiu	a1,k1,25717
 6e8:	736f6375 	0x736f6375
 6ec:	2e2f2e00 	sltiu	t7,s1,11776
 6f0:	2e2e2f2e 	sltiu	t6,s1,12078
 6f4:	2f2e2e2f 	sltiu	t6,t9,11823
 6f8:	5f707370 	0x5f707370
 6fc:	2f6c6572 	sltiu	t4,k1,25970
 700:	6c636e69 	0x6c636e69
 704:	00656475 	0x656475
 708:	656d6600 	0x656d6600
 70c:	6e69676e 	0x6e69676e
 710:	656d5f65 	0x656d5f65
 714:	67617373 	0x67617373
 718:	65735f65 	0x65735f65
 71c:	65645f74 	0x65645f74
 720:	632e6c61 	0x632e6c61
 724:	00000000 	nop
 728:	6c707061 	0x6c707061
 72c:	682e6269 	0x682e6269
 730:	00000100 	sll	zero,zero,0x4
 734:	736f6375 	0x736f6375
 738:	7079745f 	udi15	v1,t9,t6,0x11
 73c:	682e7365 	0x682e7365
 740:	00000200 	sll	zero,zero,0x8
 744:	65736163 	0x65736163
 748:	7079745f 	udi15	v1,t9,t6,0x11
 74c:	00682e65 	0x682e65
 750:	61000001 	0x61000001
 754:	6d5f7070 	0x6d5f7070
 758:	682e6773 	0x682e6773
 75c:	00000100 	sll	zero,zero,0x4
 760:	65707974 	0x65707974
 764:	2e747865 	sltiu	s4,s3,30821
 768:	00030068 	0x30068
 76c:	2e736f00 	sltiu	s3,s3,28416
 770:	00020068 	0x20068
 774:	5f6d6600 	0x5f6d6600
 778:	65746e69 	0x65746e69
 77c:	63616672 	0x63616672
 780:	00682e65 	0x682e65
 784:	61000001 	0x61000001
 788:	745f7070 	jalx	17dc1c0 <AP_BANK_SPACE+0x179c1c0>
 78c:	72656d69 	0x72656d69
 790:	0100682e 	0x100682e
 794:	70610000 	madd	v1,at
 798:	6d665f70 	0x6d665f70
 79c:	69676e65 	0x69676e65
 7a0:	682e656e 	0x682e656e
 7a4:	00000000 	nop
 7a8:	6e656d66 	0x6e656d66
 7ac:	656e6967 	0x656e6967
 7b0:	0100682e 	0x100682e
 7b4:	6d6d0000 	0x6d6d0000
 7b8:	70705f6d 	0x70705f6d
 7bc:	0300682e 	0x300682e
 7c0:	00000000 	nop
 7c4:	68010205 	0x68010205
 7c8:	80156006 	lb	s5,24582(zero)
 7cc:	d6b8b99d 	ldc1	$f24,-18019(s5)
 7d0:	64f3bab8 	0x64f3bab8
 7d4:	8149484a 	lb	t1,18506(t2)
 7d8:	b81f0866 	swr	ra,2150(zero)
 7dc:	65809d64 	0x65809d64
 7e0:	75084880 	jalx	4212200 <AP_BANK_SPACE+0x41d2200>
 7e4:	4980b865 	0x4980b865
 7e8:	818281b8 	lb	v0,-32328(t4)
 7ec:	48804980 	0x48804980
 7f0:	b84b9108 	swr	t3,-28408(v0)
 7f4:	b8b8b8d5 	swr	t8,-18219(a1)
 7f8:	66678282 	0x66678282
 7fc:	6475082c 	0x6475082c
 800:	65654a4b 	0x65654a4b
 804:	4880b8f2 	0x4880b8f2
 808:	649c9c64 	0x649c9c64
 80c:	2c8082a0 	sltiu	zero,a0,-32096
 810:	b8030204 	swr	v1,516(zero)
 814:	801d0802 	lb	sp,2050(zero)
 818:	03010464 	0x3010464
 81c:	649b7dcb 	0x649b7dcb
 820:	b8f1804c 	swr	s1,-32692(a3)
 824:	2d80829d 	sltiu	zero,t4,-32099
 828:	804c64d7 	lb	t4,25815(v0)
 82c:	8180b8f0 	lb	zero,-18192(t4)
 830:	082d8082 	j	b60208 <AP_BANK_SPACE+0xb20208>
 834:	b864643e 	swr	a0,25662(v1)
 838:	8281b866 	lb	at,-18330(s4)
 83c:	082c8080 	j	b20200 <AP_BANK_SPACE+0xae0200>
 840:	b8b864ad 	swr	t8,25773(a1)
 844:	8281b866 	lb	at,-18330(s4)
 848:	082c8080 	j	b20200 <AP_BANK_SPACE+0xae0200>
 84c:	3a086458 	xori	t0,s0,0x6458
 850:	f32c8080 	0xf32c8080
 854:	64d66664 	0x64d66664
 858:	8381b8ba 	lb	at,-18246(gp)
 85c:	d68180ba 	ldc1	$f1,-32582(s4)
 860:	f13c08d6 	0xf13c08d6
 864:	81b8ba64 	lb	t8,-17820(t5)
 868:	022cf182 	0x22cf182
 86c:	01010063 	0x1010063
 870:	00000161 	0x161
 874:	01040002 	0x1040002
 878:	01010000 	0x1010000
 87c:	000a0efb 	0xa0efb
 880:	01010101 	0x1010101
 884:	01000000 	0x1000000
 888:	2e2e2f2e 	sltiu	t6,s1,12078
 88c:	2f2e2e2f 	sltiu	t6,t9,11823
 890:	00636e69 	0x636e69
 894:	2e2e2f2e 	sltiu	t6,s1,12078
 898:	2f2e2e2f 	sltiu	t6,t9,11823
 89c:	702f2e2e 	0x702f2e2e
 8a0:	725f7073 	0x725f7073
 8a4:	692f6c65 	0x692f6c65
 8a8:	756c636e 	jalx	5b18db8 <AP_BANK_SPACE+0x5ad8db8>
 8ac:	2e006564 	sltiu	zero,s0,25956
 8b0:	2f2e2e2f 	sltiu	t6,t9,11823
 8b4:	2e2f2e2e 	sltiu	t7,s1,11822
 8b8:	73702f2e 	0x73702f2e
 8bc:	65725f70 	0x65725f70
 8c0:	6e692f6c 	0x6e692f6c
 8c4:	64756c63 	0x64756c63
 8c8:	63752f65 	0x63752f65
 8cc:	0000736f 	0x736f
 8d0:	6e656d66 	0x6e656d66
 8d4:	656e6967 	0x656e6967
 8d8:	73656d5f 	udi15	k1,a1,t5,0x15
 8dc:	65676173 	0x65676173
 8e0:	7465675f 	jalx	1959d7c <AP_BANK_SPACE+0x1919d7c>
 8e4:	6165645f 	0x6165645f
 8e8:	00632e6c 	0x632e6c
 8ec:	63000000 	0x63000000
 8f0:	5f657361 	0x5f657361
 8f4:	65707974 	0x65707974
 8f8:	0100682e 	0x100682e
 8fc:	70610000 	madd	v1,at
 900:	736d5f70 	0x736d5f70
 904:	00682e67 	0x682e67
 908:	74000001 	jalx	4 <DRV_GROUP_EXFAT>
 90c:	65657079 	0x65657079
 910:	682e7478 	0x682e7478
 914:	00000200 	sll	zero,zero,0x8
 918:	682e736f 	0x682e736f
 91c:	00000300 	sll	zero,zero,0xc
 920:	6e656d66 	0x6e656d66
 924:	656e6967 	0x656e6967
 928:	0100682e 	0x100682e
 92c:	6d660000 	0x6d660000
 930:	746e695f 	jalx	1b9a57c <AP_BANK_SPACE+0x1b5a57c>
 934:	61667265 	0x61667265
 938:	682e6563 	0x682e6563
 93c:	00000100 	sll	zero,zero,0x4
 940:	5f707061 	0x5f707061
 944:	656d6974 	0x656d6974
 948:	00682e72 	tlt	v1,t0,0xb9
 94c:	61000001 	0x61000001
 950:	696c7070 	0x696c7070
 954:	00682e62 	0x682e62
 958:	75000001 	jalx	4000004 <AP_BANK_SPACE+0x3fc0004>
 95c:	5f736f63 	0x5f736f63
 960:	65707974 	0x65707974
 964:	00682e73 	tltu	v1,t0,0xb9
 968:	61000003 	0x61000003
 96c:	665f7070 	0x665f7070
 970:	676e656d 	0x676e656d
 974:	2e656e69 	sltiu	a1,s3,28265
 978:	00000068 	0x68
 97c:	05000000 	bltz	t0,980 <SRAM_OS_DATA_SIZE+0x100>
 980:	0a680102 	j	9a00408 <AP_BANK_SPACE+0x99c0408>
 984:	4d641460 	0x4d641460
 988:	b83c0864 	swr	gp,2148(at)
 98c:	81200864 	lb	zero,2148(t1)
 990:	80825708 	lb	v0,22280(a0)
 994:	6475082c 	0x6475082c
 998:	80b8f149 	lb	t8,-3767(a1)
 99c:	2d8082d5 	sltiu	zero,t4,-32043
 9a0:	4a645a08 	c2	0x645a08
 9a4:	d580b8f0 	ldc1	$f0,-18192(t4)
 9a8:	082c8082 	j	b20208 <AP_BANK_SPACE+0xae0208>
 9ac:	084a6459 	j	1299164 <AP_BANK_SPACE+0x1259164>
 9b0:	b981b91f 	swr	at,-18145(t4)
 9b4:	d72c8082 	ldc1	$f12,-32638(t9)
 9b8:	b8f14964 	swr	s1,18788(a3)
 9bc:	8082d580 	lb	v0,-10880(a0)
 9c0:	6459082c 	0x6459082c
 9c4:	8081b849 	lb	at,-18359(a0)
 9c8:	4964f32c 	0x4964f32c
 9cc:	2c8081b8 	sltiu	zero,a0,-32328
 9d0:	01000f02 	0x1000f02
 9d4:	00011401 	0x11401
 9d8:	f8000200 	sdc2	$0,512(zero)
 9dc:	01000000 	0x1000000
 9e0:	0a0efb01 	j	83bec04 <AP_BANK_SPACE+0x837ec04>
 9e4:	01010100 	0x1010100
 9e8:	00000001 	movf	zero,zero,$fcc0
 9ec:	2e2f2e01 	sltiu	t7,s1,11777
 9f0:	2e2e2f2e 	sltiu	t6,s1,12078
 9f4:	636e692f 	0x636e692f
 9f8:	2e2f2e00 	sltiu	t7,s1,11776
 9fc:	2e2e2f2e 	sltiu	t6,s1,12078
 a00:	2f2e2e2f 	sltiu	t6,t9,11823
 a04:	5f707370 	0x5f707370
 a08:	2f6c6572 	sltiu	t4,k1,25970
 a0c:	6c636e69 	0x6c636e69
 a10:	00656475 	0x656475
 a14:	2e2e2f2e 	sltiu	t6,s1,12078
 a18:	2f2e2e2f 	sltiu	t6,t9,11823
 a1c:	702f2e2e 	0x702f2e2e
 a20:	725f7073 	0x725f7073
 a24:	692f6c65 	0x692f6c65
 a28:	756c636e 	jalx	5b18db8 <AP_BANK_SPACE+0x5ad8db8>
 a2c:	752f6564 	jalx	4bd9590 <AP_BANK_SPACE+0x4b99590>
 a30:	00736f63 	0x736f63
 a34:	656d6600 	0x656d6600
 a38:	6e69676e 	0x6e69676e
 a3c:	656d5f65 	0x656d5f65
 a40:	67617373 	0x67617373
 a44:	6f765f65 	0x6f765f65
 a48:	656d756c 	0x656d756c
 a4c:	6165645f 	0x6165645f
 a50:	00632e6c 	0x632e6c
 a54:	63000000 	0x63000000
 a58:	5f657361 	0x5f657361
 a5c:	65707974 	0x65707974
 a60:	0100682e 	0x100682e
 a64:	70610000 	madd	v1,at
 a68:	736d5f70 	0x736d5f70
 a6c:	00682e67 	0x682e67
 a70:	74000001 	jalx	4 <DRV_GROUP_EXFAT>
 a74:	65657079 	0x65657079
 a78:	682e7478 	0x682e7478
 a7c:	00000200 	sll	zero,zero,0x8
 a80:	682e736f 	0x682e736f
 a84:	00000300 	sll	zero,zero,0xc
 a88:	5f707061 	0x5f707061
 a8c:	656d6974 	0x656d6974
 a90:	00682e72 	tlt	v1,t0,0xb9
 a94:	61000001 	0x61000001
 a98:	696c7070 	0x696c7070
 a9c:	00682e62 	0x682e62
 aa0:	75000001 	jalx	4000004 <AP_BANK_SPACE+0x3fc0004>
 aa4:	5f736f63 	0x5f736f63
 aa8:	65707974 	0x65707974
 aac:	00682e73 	tltu	v1,t0,0xb9
 ab0:	61000003 	0x61000003
 ab4:	665f7070 	0x665f7070
 ab8:	676e656d 	0x676e656d
 abc:	2e656e69 	sltiu	a1,s3,28265
 ac0:	00000068 	0x68
 ac4:	6d6d6d00 	0x6d6d6d00
 ac8:	6561645f 	0x6561645f
 acc:	6665645f 	0x6665645f
 ad0:	0200682e 	0x200682e
 ad4:	00000000 	nop
 ad8:	69c10205 	0x69c10205
 adc:	65126012 	0x65126012
 ae0:	1f081f08 	0x1f081f08
 ae4:	2c8181d7 	sltiu	at,a0,-32297
 ae8:	01001d02 	0x1001d02
 aec:	Address 0xaec is out of bounds.

Disassembly of section .debug_frame:

00000000 <.debug_frame>:
   0:	0000000c 	syscall
   4:	ffffffff 	sdc3	$31,-1(ra)
   8:	04010001 	b	10 <SRAM_CARD_GLOBAL_DATA_SIZE>
   c:	001d0c1f 	0x1d0c1f
  10:	00000020 	add	zero,zero,zero
  14:	00000000 	nop
  18:	bfc26019 	cache	0x2,24601(s8)
  1c:	0000001b 	divu	zero,zero,zero
  20:	0e040e42 	jal	8103908 <AP_BANK_SPACE+0x80c3908>
  24:	11180e08 	beq	t0,t8,3848 <SRAM_BT_HEAD_SIZE+0x448>
  28:	1f117e11 	0x1f117e11
  2c:	110c427f 	beq	t0,t4,10a2c <SRAM_COMMON_BT_MANAGER_RCODE+0x52c>
  30:	00000008 	jr	zero
  34:	00000020 	add	zero,zero,zero
  38:	00000000 	nop
  3c:	600268cd 	0x600268cd
  40:	000002bb 	0x2bb
  44:	0e040e42 	jal	8103908 <AP_BANK_SPACE+0x80c3908>
  48:	11200e08 	beqz	t1,386c <SRAM_BT_HEAD_SIZE+0x46c>
  4c:	1f117e11 	0x1f117e11
  50:	110c427f 	beq	t0,t4,10a50 <SRAM_COMMON_BT_MANAGER_RCODE+0x550>
  54:	00000010 	mfhi	zero
  58:	00000020 	add	zero,zero,zero
  5c:	00000000 	nop
  60:	bfc26039 	cache	0x2,24633(s8)
  64:	000000a3 	0xa3
  68:	0e040e42 	jal	8103908 <AP_BANK_SPACE+0x80c3908>
  6c:	11200e08 	beqz	t1,3890 <SRAM_BT_HEAD_SIZE+0x490>
  70:	1f117e11 	0x1f117e11
  74:	110c427f 	beq	t0,t4,10a74 <SRAM_COMMON_BT_MANAGER_RCODE+0x574>
  78:	00000010 	mfhi	zero
  7c:	00000020 	add	zero,zero,zero
  80:	00000000 	nop
  84:	bfc260fd 	cache	0x2,24829(s8)
  88:	0000004f 	0x4f
  8c:	0e040e42 	jal	8103908 <AP_BANK_SPACE+0x80c3908>
  90:	11300e08 	beq	t1,s0,38b4 <SRAM_BT_HEAD_SIZE+0x4b4>
  94:	1f117e11 	0x1f117e11
  98:	110c427f 	beq	t0,t4,10a98 <SRAM_COMMON_BT_MANAGER_RCODE+0x598>
  9c:	00000020 	add	zero,zero,zero
  a0:	0000000c 	syscall
  a4:	ffffffff 	sdc3	$31,-1(ra)
  a8:	04010001 	b	b0 <SRAM_CARD_DATA_SIZE+0x30>
  ac:	001d0c1f 	0x1d0c1f
  b0:	00000020 	add	zero,zero,zero
  b4:	000000a0 	0xa0
  b8:	bfc26155 	cache	0x2,24917(s8)
  bc:	0000004f 	0x4f
  c0:	0e040e42 	jal	8103908 <AP_BANK_SPACE+0x80c3908>
  c4:	11280e08 	beq	t1,t0,38e8 <SRAM_BT_HEAD_SIZE+0x4e8>
  c8:	1f117e11 	0x1f117e11
  cc:	110c427f 	beq	t0,t4,10acc <SRAM_COMMON_BT_MANAGER_RCODE+0x5cc>
  d0:	00000018 	mult	zero,zero
  d4:	00000020 	add	zero,zero,zero
  d8:	000000a0 	0xa0
  dc:	bfc261ad 	cache	0x2,25005(s8)
  e0:	0000006b 	0x6b
  e4:	0e040e42 	jal	8103908 <AP_BANK_SPACE+0x80c3908>
  e8:	11300e08 	beq	t1,s0,390c <SROM_STUB_ADDR+0xc>
  ec:	1f117e11 	0x1f117e11
  f0:	110c427f 	beq	t0,t4,10af0 <SRAM_COMMON_BT_MANAGER_RCODE+0x5f0>
  f4:	00000020 	add	zero,zero,zero
  f8:	00000018 	mult	zero,zero
  fc:	000000a0 	0xa0
 100:	bfc26225 	cache	0x2,25125(s8)
 104:	00000013 	mtlo	zero
 108:	0e040e42 	jal	8103908 <AP_BANK_SPACE+0x80c3908>
 10c:	7f111108 	0x7f111108
 110:	00110d42 	srl	at,s1,0x15
 114:	00000020 	add	zero,zero,zero
 118:	000000a0 	0xa0
 11c:	bfc2623d 	cache	0x2,25149(s8)
 120:	0000006f 	0x6f
 124:	0e040e42 	jal	8103908 <AP_BANK_SPACE+0x80c3908>
 128:	11300e08 	beq	t1,s0,394c <SROM_STUB_ADDR+0x4c>
 12c:	1f117e11 	0x1f117e11
 130:	110c427f 	beq	t0,t4,10b30 <SRAM_COMMON_BT_MANAGER_RCODE+0x630>
 134:	00000020 	add	zero,zero,zero
 138:	00000020 	add	zero,zero,zero
 13c:	000000a0 	0xa0
 140:	bfc262b9 	cache	0x2,25273(s8)
 144:	0000005b 	0x5b
 148:	0e040e42 	jal	8103908 <AP_BANK_SPACE+0x80c3908>
 14c:	11200e08 	beqz	t1,3970 <SROM_STUB_ADDR+0x70>
 150:	1f117e11 	0x1f117e11
 154:	110c427f 	beq	t0,t4,10b54 <SRAM_COMMON_BT_MANAGER_RCODE+0x654>
 158:	00000010 	mfhi	zero
 15c:	0000000c 	syscall
 160:	ffffffff 	sdc3	$31,-1(ra)
 164:	04010001 	b	16c <SRAM_BTMANAGER_DATA_SIZE+0x2c>
 168:	001d0c1f 	0x1d0c1f
 16c:	00000020 	add	zero,zero,zero
 170:	0000015c 	0x15c
 174:	bfc26321 	cache	0x2,25377(s8)
 178:	000000a7 	0xa7
 17c:	0e040e42 	jal	8103908 <AP_BANK_SPACE+0x80c3908>
 180:	11280e08 	beq	t1,t0,39a4 <SROM_STUB_ADDR+0xa4>
 184:	1f117e11 	0x1f117e11
 188:	110c427f 	beq	t0,t4,10b88 <SRAM_COMMON_BT_MANAGER_RCODE+0x688>
 18c:	00000018 	mult	zero,zero
 190:	00000020 	add	zero,zero,zero
 194:	0000015c 	0x15c
 198:	bfc263d5 	cache	0x2,25557(s8)
 19c:	00000053 	mtlhx	zero
 1a0:	0e040e42 	jal	8103908 <AP_BANK_SPACE+0x80c3908>
 1a4:	11200e08 	beqz	t1,39c8 <SROM_STUB_ADDR+0xc8>
 1a8:	1f117e11 	0x1f117e11
 1ac:	110c427f 	beq	t0,t4,10bac <SRAM_COMMON_BT_MANAGER_RCODE+0x6ac>
 1b0:	00000010 	mfhi	zero
 1b4:	0000000c 	syscall
 1b8:	ffffffff 	sdc3	$31,-1(ra)
 1bc:	04010001 	b	1c4 <SRAM_BTMANAGER_DATA_SIZE+0x84>
 1c0:	001d0c1f 	0x1d0c1f
 1c4:	00000024 	and	zero,zero,zero
 1c8:	000001b4 	teq	zero,zero,0x6
 1cc:	600e6801 	0x600e6801
 1d0:	00000063 	0x63
 1d4:	0e040e42 	jal	8103908 <AP_BANK_SPACE+0x80c3908>
 1d8:	0e0c0e08 	jal	8303820 <AP_BANK_SPACE+0x82c3820>
 1dc:	7d101120 	0x7d101120
 1e0:	117e1111 	beq	t3,s8,4628 <SRAM_AP_BANK_BACK_AL_1_SIZE+0x628>
 1e4:	0c427f1f 	jal	109fc7c <AP_BANK_SPACE+0x105fc7c>
 1e8:	00001011 	0x1011
 1ec:	00000020 	add	zero,zero,zero
 1f0:	000001b4 	teq	zero,zero,0x6
 1f4:	600e687d 	0x600e687d
 1f8:	0000001b 	divu	zero,zero,zero
 1fc:	0e040e42 	jal	8103908 <AP_BANK_SPACE+0x80c3908>
 200:	11180e08 	beq	t0,t8,3a24 <SROM_STUB_ADDR+0x124>
 204:	1f117e11 	0x1f117e11
 208:	110c427f 	beq	t0,t4,10c08 <SRAM_COMMON_BT_MANAGER_RCODE+0x708>
 20c:	00000008 	jr	zero
 210:	00000024 	and	zero,zero,zero
 214:	000001b4 	teq	zero,zero,0x6
 218:	600e68a5 	0x600e68a5
 21c:	0000004b 	0x4b
 220:	0e040e42 	jal	8103908 <AP_BANK_SPACE+0x80c3908>
 224:	0e0c0e08 	jal	8303820 <AP_BANK_SPACE+0x82c3820>
 228:	7d101120 	0x7d101120
 22c:	117e1111 	beq	t3,s8,4674 <SRAM_AP_BANK_BACK_AL_1_SIZE+0x674>
 230:	0c427f1f 	jal	109fc7c <AP_BANK_SPACE+0x105fc7c>
 234:	00001011 	0x1011
 238:	00000024 	and	zero,zero,zero
 23c:	000001b4 	teq	zero,zero,0x6
 240:	600e68f9 	0x600e68f9
 244:	00000037 	0x37
 248:	0e040e42 	jal	8103908 <AP_BANK_SPACE+0x80c3908>
 24c:	0e0c0e08 	jal	8303820 <AP_BANK_SPACE+0x82c3820>
 250:	7d101120 	0x7d101120
 254:	117e1111 	beq	t3,s8,469c <SRAM_AP_BANK_BACK_AL_1_SIZE+0x69c>
 258:	0c427f1f 	jal	109fc7c <AP_BANK_SPACE+0x105fc7c>
 25c:	00001011 	0x1011
 260:	00000024 	and	zero,zero,zero
 264:	000001b4 	teq	zero,zero,0x6
 268:	600e6949 	0x600e6949
 26c:	000000b3 	tltu	zero,zero,0x2
 270:	0e040e42 	jal	8103908 <AP_BANK_SPACE+0x80c3908>
 274:	0e0c0e08 	jal	8303820 <AP_BANK_SPACE+0x82c3820>
 278:	7d101138 	0x7d101138
 27c:	117e1111 	beq	t3,s8,46c4 <SRAM_AP_BANK_BACK_AL_1_SIZE+0x6c4>
 280:	0c427f1f 	jal	109fc7c <AP_BANK_SPACE+0x105fc7c>
 284:	00002811 	0x2811
 288:	00000020 	add	zero,zero,zero
 28c:	000001b4 	teq	zero,zero,0x6
 290:	600e6a4d 	0x600e6a4d
 294:	0000005f 	0x5f
 298:	0e040e42 	jal	8103908 <AP_BANK_SPACE+0x80c3908>
 29c:	11180e08 	beq	t0,t8,3ac0 <SROM_STUB_ADDR+0x1c0>
 2a0:	1f117e11 	0x1f117e11
 2a4:	110c427f 	beq	t0,t4,10ca4 <SRAM_COMMON_BT_MANAGER_RCODE+0x7a4>
 2a8:	00000008 	jr	zero
 2ac:	00000020 	add	zero,zero,zero
 2b0:	000001b4 	teq	zero,zero,0x6
 2b4:	600e6abd 	0x600e6abd
 2b8:	00000037 	0x37
 2bc:	0e040e42 	jal	8103908 <AP_BANK_SPACE+0x80c3908>
 2c0:	11200e08 	beqz	t1,3ae4 <SROM_STUB_ADDR+0x1e4>
 2c4:	1f117e11 	0x1f117e11
 2c8:	110c427f 	beq	t0,t4,10cc8 <SRAM_COMMON_BT_MANAGER_RCODE+0x7c8>
 2cc:	00000010 	mfhi	zero
 2d0:	00000018 	mult	zero,zero
 2d4:	000001b4 	teq	zero,zero,0x6
 2d8:	600e6af9 	0x600e6af9
 2dc:	00000013 	mtlo	zero
 2e0:	0e040e42 	jal	8103908 <AP_BANK_SPACE+0x80c3908>
 2e4:	7f111108 	0x7f111108
 2e8:	00110d42 	srl	at,s1,0x15
 2ec:	0000000c 	syscall
 2f0:	ffffffff 	sdc3	$31,-1(ra)
 2f4:	04010001 	b	2fc <SRAM_AP_RCP_COMMAND_BUFFER_SIZE+0xdc>
 2f8:	001d0c1f 	0x1d0c1f
 2fc:	00000020 	add	zero,zero,zero
 300:	000002ec 	0x2ec
 304:	60126801 	0x60126801
 308:	000000a7 	0xa7
 30c:	0e040e42 	jal	8103908 <AP_BANK_SPACE+0x80c3908>
 310:	11200e08 	beqz	t1,3b34 <SROM_STUB_ADDR_MDY+0x34>
 314:	1f117e11 	0x1f117e11
 318:	110c427f 	beq	t0,t4,10d18 <SRAM_COMMON_BT_MANAGER_RCODE+0x818>
 31c:	00000010 	mfhi	zero
 320:	00000020 	add	zero,zero,zero
 324:	000002ec 	0x2ec
 328:	601268d1 	0x601268d1
 32c:	00000087 	0x87
 330:	0e040e42 	jal	8103908 <AP_BANK_SPACE+0x80c3908>
 334:	11280e08 	beq	t1,t0,3b58 <SROM_STUB_ADDR_MDY+0x58>
 338:	1f117e11 	0x1f117e11
 33c:	110c427f 	beq	t0,t4,10d3c <SRAM_COMMON_BT_MANAGER_RCODE+0x83c>
 340:	00000018 	mult	zero,zero
 344:	00000020 	add	zero,zero,zero
 348:	000002ec 	0x2ec
 34c:	60126971 	0x60126971
 350:	00000023 	negu	zero,zero
 354:	0e040e42 	jal	8103908 <AP_BANK_SPACE+0x80c3908>
 358:	11180e08 	beq	t0,t8,3b7c <SROM_STUB_ADDR_MDY+0x7c>
 35c:	1f117e11 	0x1f117e11
 360:	110c427f 	beq	t0,t4,10d60 <SRAM_COMMON_BT_MANAGER_RCODE+0x860>
 364:	00000008 	jr	zero
 368:	00000020 	add	zero,zero,zero
 36c:	000002ec 	0x2ec
 370:	60126999 	0x60126999
 374:	00000023 	negu	zero,zero
 378:	0e040e42 	jal	8103908 <AP_BANK_SPACE+0x80c3908>
 37c:	11180e08 	beq	t0,t8,3ba0 <SROM_STUB_ADDR_MDY+0xa0>
 380:	1f117e11 	0x1f117e11
 384:	110c427f 	beq	t0,t4,10d84 <SRAM_COMMON_BT_MANAGER_RCODE+0x884>
 388:	00000008 	jr	zero
 38c:	0000000c 	syscall
 390:	ffffffff 	sdc3	$31,-1(ra)
 394:	04010001 	b	39c <SRAM_FS_DATA_SIZE+0x9c>
 398:	001d0c1f 	0x1d0c1f
 39c:	00000020 	add	zero,zero,zero
 3a0:	0000038c 	syscall	0xe
 3a4:	60066801 	0x60066801
 3a8:	00000057 	0x57
 3ac:	0e040e42 	jal	8103908 <AP_BANK_SPACE+0x80c3908>
 3b0:	11180e08 	beq	t0,t8,3bd4 <SROM_STUB_ADDR_MDY+0xd4>
 3b4:	1f117e11 	0x1f117e11
 3b8:	110c427f 	beq	t0,t4,10db8 <SRAM_COMMON_BT_MANAGER_RCODE+0x8b8>
 3bc:	00000008 	jr	zero
 3c0:	00000020 	add	zero,zero,zero
 3c4:	0000038c 	syscall	0xe
 3c8:	60066861 	0x60066861
 3cc:	0000006f 	0x6f
 3d0:	0e040e42 	jal	8103908 <AP_BANK_SPACE+0x80c3908>
 3d4:	11280e08 	beq	t1,t0,3bf8 <SROM_STUB_ADDR_MDY+0xf8>
 3d8:	1f117e11 	0x1f117e11
 3dc:	110c427f 	beq	t0,t4,10ddc <SRAM_COMMON_BT_MANAGER_RCODE+0x8dc>
 3e0:	00000018 	mult	zero,zero
 3e4:	00000020 	add	zero,zero,zero
 3e8:	0000038c 	syscall	0xe
 3ec:	600668e1 	0x600668e1
 3f0:	00000063 	0x63
 3f4:	0e040e42 	jal	8103908 <AP_BANK_SPACE+0x80c3908>
 3f8:	11200e08 	beqz	t1,3c1c <SROM_STUB_ADDR_MDY+0x11c>
 3fc:	1f117e11 	0x1f117e11
 400:	110c427f 	beq	t0,t4,10e00 <SRAM_COMMON_BT_MANAGER_RCODE+0x900>
 404:	00000010 	mfhi	zero
 408:	00000020 	add	zero,zero,zero
 40c:	0000038c 	syscall	0xe
 410:	60066955 	0x60066955
 414:	00000067 	0x67
 418:	0e040e42 	jal	8103908 <AP_BANK_SPACE+0x80c3908>
 41c:	11200e08 	beqz	t1,3c40 <SROM_STUB_ADDR_MDY+0x140>
 420:	1f117e11 	0x1f117e11
 424:	110c427f 	beq	t0,t4,10e24 <SRAM_COMMON_BT_MANAGER_RCODE+0x924>
 428:	00000010 	mfhi	zero
 42c:	00000020 	add	zero,zero,zero
 430:	0000038c 	syscall	0xe
 434:	600669cd 	0x600669cd
 438:	00000083 	sra	zero,zero,0x2
 43c:	0e040e42 	jal	8103908 <AP_BANK_SPACE+0x80c3908>
 440:	11280e08 	beq	t1,t0,3c64 <SROM_STUB_ADDR_MDY+0x164>
 444:	1f117e11 	0x1f117e11
 448:	110c427f 	beq	t0,t4,10e48 <SRAM_COMMON_BT_MANAGER_RCODE+0x948>
 44c:	00000018 	mult	zero,zero
 450:	00000018 	mult	zero,zero
 454:	0000038c 	syscall	0xe
 458:	60066a5d 	0x60066a5d
 45c:	00000013 	mtlo	zero
 460:	0e040e42 	jal	8103908 <AP_BANK_SPACE+0x80c3908>
 464:	7f111108 	0x7f111108
 468:	00110d42 	srl	at,s1,0x15
 46c:	00000020 	add	zero,zero,zero
 470:	0000038c 	syscall	0xe
 474:	60066a75 	0x60066a75
 478:	0000004f 	0x4f
 47c:	0e040e42 	jal	8103908 <AP_BANK_SPACE+0x80c3908>
 480:	11280e08 	beq	t1,t0,3ca4 <SROM_STUB_ADDR_MDY+0x1a4>
 484:	1f117e11 	0x1f117e11
 488:	110c427f 	beq	t0,t4,10e88 <SRAM_COMMON_BT_MANAGER_RCODE+0x988>
 48c:	00000018 	mult	zero,zero
 490:	00000020 	add	zero,zero,zero
 494:	0000038c 	syscall	0xe
 498:	60066acd 	0x60066acd
 49c:	00000057 	0x57
 4a0:	0e040e42 	jal	8103908 <AP_BANK_SPACE+0x80c3908>
 4a4:	11280e08 	beq	t1,t0,3cc8 <SROM_STUB_ADDR_MDY+0x1c8>
 4a8:	1f117e11 	0x1f117e11
 4ac:	110c427f 	beq	t0,t4,10eac <SRAM_COMMON_BT_MANAGER_RCODE+0x9ac>
 4b0:	00000018 	mult	zero,zero
 4b4:	00000020 	add	zero,zero,zero
 4b8:	0000038c 	syscall	0xe
 4bc:	60066b31 	0x60066b31
 4c0:	00000053 	mtlhx	zero
 4c4:	0e040e42 	jal	8103908 <AP_BANK_SPACE+0x80c3908>
 4c8:	11180e08 	beq	t0,t8,3cec <SROM_STUB_ADDR_MDY+0x1ec>
 4cc:	1f117e11 	0x1f117e11
 4d0:	110c427f 	beq	t0,t4,10ed0 <SRAM_COMMON_BT_MANAGER_RCODE+0x9d0>
 4d4:	00000008 	jr	zero
 4d8:	00000020 	add	zero,zero,zero
 4dc:	0000038c 	syscall	0xe
 4e0:	60066b99 	0x60066b99
 4e4:	00000057 	0x57
 4e8:	0e040e42 	jal	8103908 <AP_BANK_SPACE+0x80c3908>
 4ec:	11180e08 	beq	t0,t8,3d10 <SROM_STUB_ADDR_MDY+0x210>
 4f0:	1f117e11 	0x1f117e11
 4f4:	110c427f 	beq	t0,t4,10ef4 <SRAM_COMMON_BT_MANAGER_RCODE+0x9f4>
 4f8:	00000008 	jr	zero
 4fc:	00000024 	and	zero,zero,zero
 500:	0000038c 	syscall	0xe
 504:	60066c01 	0x60066c01
 508:	00000033 	tltu	zero,zero
 50c:	0e040e42 	jal	8103908 <AP_BANK_SPACE+0x80c3908>
 510:	0e0c0e08 	jal	8303820 <AP_BANK_SPACE+0x82c3820>
 514:	7d101120 	0x7d101120
 518:	117e1111 	beq	t3,s8,4960 <SRAM_AP_BANK_BACK_AL_1_SIZE+0x960>
 51c:	0c427f1f 	jal	109fc7c <AP_BANK_SPACE+0x105fc7c>
 520:	00001011 	0x1011
 524:	00000020 	add	zero,zero,zero
 528:	0000038c 	syscall	0xe
 52c:	60066c3d 	0x60066c3d
 530:	000000eb 	0xeb
 534:	0e040e42 	jal	8103908 <AP_BANK_SPACE+0x80c3908>
 538:	11200e08 	beqz	t1,3d5c <SROM_STUB_ADDR_MDY+0x25c>
 53c:	1f117e11 	0x1f117e11
 540:	110c427f 	beq	t0,t4,10f40 <SRAM_COMMON_BT_MANAGER_RCODE+0xa40>
 544:	00000010 	mfhi	zero
 548:	0000000c 	syscall
 54c:	ffffffff 	sdc3	$31,-1(ra)
 550:	04010001 	b	558 <SRAM_BT_CONTROLLER_RCODE_SIZE+0x58>
 554:	001d0c1f 	0x1d0c1f
 558:	00000020 	add	zero,zero,zero
 55c:	00000548 	0x548
 560:	600a6801 	0x600a6801
 564:	0000007f 	0x7f
 568:	0e040e42 	jal	8103908 <AP_BANK_SPACE+0x80c3908>
 56c:	11380e08 	beq	t1,t8,3d90 <SROM_STUB_ADDR_MDY+0x290>
 570:	1f117e11 	0x1f117e11
 574:	110c427f 	beq	t0,t4,10f74 <SRAM_COMMON_BT_MANAGER_RCODE+0xa74>
 578:	00000028 	0x28
 57c:	00000020 	add	zero,zero,zero
 580:	00000548 	0x548
 584:	600a6891 	0x600a6891
 588:	00000053 	mtlhx	zero
 58c:	0e040e42 	jal	8103908 <AP_BANK_SPACE+0x80c3908>
 590:	11200e08 	beqz	t1,3db4 <SROM_STUB_ADDR_MDY+0x2b4>
 594:	1f117e11 	0x1f117e11
 598:	110c427f 	beq	t0,t4,10f98 <SRAM_COMMON_BT_MANAGER_RCODE+0xa98>
 59c:	00000010 	mfhi	zero
 5a0:	00000020 	add	zero,zero,zero
 5a4:	00000548 	0x548
 5a8:	600a68f5 	0x600a68f5
 5ac:	00000053 	mtlhx	zero
 5b0:	0e040e42 	jal	8103908 <AP_BANK_SPACE+0x80c3908>
 5b4:	11200e08 	beqz	t1,3dd8 <SROM_STUB_ADDR_MDY+0x2d8>
 5b8:	1f117e11 	0x1f117e11
 5bc:	110c427f 	beq	t0,t4,10fbc <SRAM_COMMON_BT_MANAGER_RCODE+0xabc>
 5c0:	00000010 	mfhi	zero
 5c4:	00000020 	add	zero,zero,zero
 5c8:	00000548 	0x548
 5cc:	600a6959 	0x600a6959
 5d0:	00000053 	mtlhx	zero
 5d4:	0e040e42 	jal	8103908 <AP_BANK_SPACE+0x80c3908>
 5d8:	11280e08 	beq	t1,t0,3dfc <SROM_STUB_ADDR_MDY+0x2fc>
 5dc:	1f117e11 	0x1f117e11
 5e0:	110c427f 	beq	t0,t4,10fe0 <SRAM_COMMON_BT_MANAGER_RCODE+0xae0>
 5e4:	00000018 	mult	zero,zero
 5e8:	00000020 	add	zero,zero,zero
 5ec:	00000548 	0x548
 5f0:	600a69b5 	0x600a69b5
 5f4:	00000053 	mtlhx	zero
 5f8:	0e040e42 	jal	8103908 <AP_BANK_SPACE+0x80c3908>
 5fc:	11200e08 	beqz	t1,3e20 <SROM_STUB_ADDR_MDY+0x320>
 600:	1f117e11 	0x1f117e11
 604:	110c427f 	beq	t0,t4,11004 <SRAM_BT_BACK_RCODE_ADDR+0x4>
 608:	00000010 	mfhi	zero
 60c:	00000020 	add	zero,zero,zero
 610:	00000548 	0x548
 614:	600a6a19 	0x600a6a19
 618:	0000002f 	0x2f
 61c:	0e040e42 	jal	8103908 <AP_BANK_SPACE+0x80c3908>
 620:	11200e08 	beqz	t1,3e44 <SROM_STUB_ADDR_MDY+0x344>
 624:	1f117e11 	0x1f117e11
 628:	110c427f 	beq	t0,t4,11028 <SRAM_BT_BACK_RCODE_ADDR+0x28>
 62c:	00000010 	mfhi	zero
 630:	00000020 	add	zero,zero,zero
 634:	00000548 	0x548
 638:	600a6a51 	0x600a6a51
 63c:	0000002f 	0x2f
 640:	0e040e42 	jal	8103908 <AP_BANK_SPACE+0x80c3908>
 644:	11200e08 	beqz	t1,3e68 <SROM_STUB_ADDR_MDY+0x368>
 648:	1f117e11 	0x1f117e11
 64c:	110c427f 	beq	t0,t4,1104c <SRAM_BT_BACK_RCODE_ADDR+0x4c>
 650:	00000010 	mfhi	zero
 654:	0000000c 	syscall
 658:	ffffffff 	sdc3	$31,-1(ra)
 65c:	04010001 	b	664 <SRAM_AP_BACK_BASAL_RCODE_SIZE+0x64>
 660:	001d0c1f 	0x1d0c1f
 664:	00000020 	add	zero,zero,zero
 668:	00000654 	0x654
 66c:	601269c1 	0x601269c1
 670:	0000004f 	0x4f
 674:	0e040e42 	jal	8103908 <AP_BANK_SPACE+0x80c3908>
 678:	11180e08 	beq	t0,t8,3e9c <SROM_STUB_ADDR_MDY+0x39c>
 67c:	1f117e11 	0x1f117e11
 680:	110c427f 	beq	t0,t4,11080 <SRAM_BT_BACK_RCODE_ADDR+0x80>
 684:	00000008 	jr	zero
Disassembly of section .debug_pubnames:

00000000 <.debug_pubnames>:
   0:	00000076 	tne	zero,zero,0x1
   4:	00000002 	srl	zero,zero,0x0
   8:	12960000 	beq	s4,s6,c <DRV_GROUP_BT>
   c:	10d70000 	beq	a2,s7,10 <SRAM_CARD_GLOBAL_DATA_SIZE>
  10:	6d660000 	0x6d660000
  14:	5f67655f 	0x5f67655f
  18:	6c706572 	0x6c706572
  1c:	736d5f79 	0x736d5f79
  20:	11110067 	beq	t0,s1,1c0 <SRAM_BTMANAGER_DATA_SIZE+0x80>
  24:	6d660000 	0x6d660000
  28:	69676e65 	0x69676e65
  2c:	6d5f656e 	0x6d5f656e
  30:	61737365 	0x61737365
  34:	645f6567 	0x645f6567
  38:	5f6c6165 	0x5f6c6165
  3c:	6b6e6162 	0x6b6e6162
  40:	00116400 	sll	t4,s1,0x10
  44:	656d6600 	0x656d6600
  48:	6e69676e 	0x6e69676e
  4c:	656d5f65 	0x656d5f65
  50:	67617373 	0x67617373
  54:	65645f65 	0x65645f65
  58:	b2006c61 	0xb2006c61
  5c:	66000011 	0x66000011
  60:	676e656d 	0x676e656d
  64:	5f656e69 	0x5f656e69
  68:	746e6f63 	jalx	1b9bd8c <AP_BANK_SPACE+0x1b5bd8c>
  6c:	5f6c6f72 	0x5f6c6f72
  70:	636f6c62 	0x636f6c62
  74:	0000006b 	0x6b
  78:	00750000 	0x750000
  7c:	00020000 	sll	zero,v0,0x0
  80:	00001296 	0x1296
  84:	000015d4 	0x15d4
  88:	00001354 	0x1354
  8c:	6e656d66 	0x6e656d66
  90:	656e6967 	0x656e6967
  94:	7465735f 	jalx	195cd7c <AP_BANK_SPACE+0x191cd7c>
  98:	6572665f 	0x6572665f
  9c:	79735f71 	0x79735f71
  a0:	bc00636e 	cache	0x0,25454(zero)
  a4:	66000013 	0x66000013
  a8:	676e656d 	0x676e656d
  ac:	5f656e69 	0x5f656e69
  b0:	5f746573 	0x5f746573
  b4:	74666f73 	jalx	199bdcc <AP_BANK_SPACE+0x195bdcc>
  b8:	6b656573 	0x6b656573
  bc:	00147400 	sll	t6,s4,0x10
  c0:	656d6600 	0x656d6600
  c4:	6e69676e 	0x6e69676e
  c8:	65735f65 	0x65735f65
  cc:	61685f74 	0x61685f74
  d0:	65736472 	0x65736472
  d4:	ef006b65 	swc3	$0,27493(t8)
  d8:	66000014 	0x66000014
  dc:	676e656d 	0x676e656d
  e0:	5f656e69 	0x5f656e69
  e4:	6b656573 	0x6b656573
  e8:	6572625f 	0x6572625f
  ec:	00006b61 	0x6b61
  f0:	3e000000 	0x3e000000
  f4:	02000000 	0x2000000
  f8:	00286a00 	0x286a00
  fc:	00142100 	sll	a0,s4,0x4
 100:	0012c400 	sll	t8,s2,0x10
 104:	656d6600 	0x656d6600
 108:	6e69676e 	0x6e69676e
 10c:	65675f65 	0x65675f65
 110:	65735f74 	0x65735f74
 114:	6c666b65 	0x6c666b65
 118:	37006761 	ori	zero,t8,0x6761
 11c:	66000013 	0x66000013
 120:	676e656d 	0x676e656d
 124:	5f656e69 	0x5f656e69
 128:	5f746567 	0x5f746567
 12c:	71657266 	0x71657266
 130:	00000000 	nop
 134:	00013800 	sll	a3,at,0x0
 138:	8b000200 	lwl	zero,512(t8)
 13c:	7a00003c 	0x7a00003c
 140:	38000023 	xori	zero,zero,0x23
 144:	66000020 	0x66000020
 148:	676e656d 	0x676e656d
 14c:	5f656e69 	0x5f656e69
 150:	64616f6c 	0x64616f6c
 154:	6766635f 	0x6766635f
 158:	00205900 	0x205900
 15c:	656d6600 	0x656d6600
 160:	6e69676e 	0x6e69676e
 164:	61735f65 	0x61735f65
 168:	635f6576 	0x635f6576
 16c:	9a006766 	lwr	zero,26470(s0)
 170:	67000020 	0x67000020
 174:	665f7465 	0x665f7465
 178:	6e695f6d 	0x6e695f6d
 17c:	705f7469 	0x705f7469
 180:	6d617261 	0x6d617261
 184:	0020d500 	0x20d500
 188:	656d6600 	0x656d6600
 18c:	6e69676e 	0x6e69676e
 190:	6e695f65 	0x6e695f65
 194:	36007469 	ori	zero,s0,0x7469
 198:	66000021 	0x66000021
 19c:	676e656d 	0x676e656d
 1a0:	5f656e69 	0x5f656e69
 1a4:	6e696564 	0x6e696564
 1a8:	59007469 	blezl	t0,1d350 <SRAM_OS_TASK_STACK_ADDR+0x1d50>
 1ac:	6d000021 	0x6d000021
 1b0:	006e6961 	0x6e6961
 1b4:	00002260 	0x2260
 1b8:	756f5f67 	jalx	5bd7d9c <AP_BANK_SPACE+0x5b97d9c>
 1bc:	74757074 	jalx	1d5c1d0 <AP_BANK_SPACE+0x1d1c1d0>
 1c0:	6168635f 	0x6168635f
 1c4:	6c656e6e 	0x6c656e6e
 1c8:	6e6f635f 	0x6e6f635f
 1cc:	00676966 	0x676966
 1d0:	00002286 	0x2286
 1d4:	6d665f67 	0x6d665f67
 1d8:	69676e65 	0x69676e65
 1dc:	735f656e 	0x735f656e
 1e0:	75746174 	jalx	5d185d0 <AP_BANK_SPACE+0x5cd85d0>
 1e4:	22a60073 	addi	a2,s5,115
 1e8:	5f670000 	0x5f670000
 1ec:	6e656d66 	0x6e656d66
 1f0:	656e6967 	0x656e6967
 1f4:	6766635f 	0x6766635f
 1f8:	0022c300 	0x22c300
 1fc:	6d5f6700 	0x6d5f6700
 200:	6c75646f 	0x6c75646f
 204:	74735f65 	jalx	1cd7d94 <AP_BANK_SPACE+0x1c97d94>
 208:	73757461 	0x73757461
 20c:	0022e100 	0x22e100
 210:	615f6700 	0x615f6700
 214:	756f6e69 	jalx	5bdb9a4 <AP_BANK_SPACE+0x5b9b9a4>
 218:	61705f74 	0x61705f74
 21c:	006d6172 	tlt	v1,t5,0x185
 220:	000022fe 	0x22fe
 224:	74735f67 	jalx	1cd7d9c <AP_BANK_SPACE+0x1c97d9c>
 228:	625f706f 	0x625f706f
 22c:	74745f79 	jalx	1d17de4 <AP_BANK_SPACE+0x1cd7de4>
 230:	6c665f73 	0x6c665f73
 234:	1f006761 	bgtz	t8,19fbc <SRAM_AP_FRONT_DATA_ADDR+0x63c>
 238:	67000023 	0x67000023
 23c:	6d6d6d5f 	0x6d6d6d5f
 240:	5f70705f 	0x5f70705f
 244:	646e6168 	0x646e6168
 248:	3d00656c 	0x3d00656c
 24c:	67000023 	0x67000023
 250:	5f6d665f 	0x5f6d665f
 254:	6e616863 	0x6e616863
 258:	57006c65 	bnezl	t8,1b3f0 <SRAM_AP_MANAGER_RCODE_ADDR+0xf0>
 25c:	67000023 	0x67000023
 260:	6561645f 	0x6561645f
 264:	6766635f 	0x6766635f
 268:	6d68735f 	0x6d68735f
 26c:	00000000 	nop
 270:	00004400 	sll	t0,zero,0x10
 274:	05000200 	bltz	t0,a78 <SRAM_AP_BACK_CODEC_RCODE_SIZE+0x78>
 278:	24000060 	li	zero,96
 27c:	49000020 	bc2f	300 <SRAM_FS_DATA_SIZE>
 280:	7000001e 	udi14	zero,zero,zero,0x0
 284:	0079616c 	0x79616c
 288:	00001e77 	0x1e77
 28c:	706f7473 	0x706f7473
 290:	001eb400 	sll	s6,s8,0x10
 294:	656d6600 	0x656d6600
 298:	6e69676e 	0x6e69676e
 29c:	6c705f65 	0x6c705f65
 2a0:	ec007961 	swc3	$0,31073(zero)
 2a4:	6600001e 	0x6600001e
 2a8:	676e656d 	0x676e656d
 2ac:	5f656e69 	0x5f656e69
 2b0:	706f7473 	0x706f7473
 2b4:	00000000 	nop
 2b8:	0000f800 	sll	ra,zero,0x0
 2bc:	29000200 	slti	zero,t0,512
 2c0:	3a000080 	xori	zero,s0,0x80
 2c4:	7400001a 	jalx	68 <AP_BANK_BACK_BASAL>
 2c8:	66000015 	0x66000015
 2cc:	6e615f6d 	0x6e615f6d
 2d0:	676f6c61 	0x676f6c61
 2d4:	6165645f 	0x6165645f
 2d8:	15aa006c 	bne	t5,t2,48c <SRAM_AP_BACK_DATA_SIZE+0x8c>
 2dc:	6d660000 	0x6d660000
 2e0:	646f6d5f 	0x646f6d5f
 2e4:	5f656c75 	0x5f656c75
 2e8:	6e65706f 	0x6e65706f
 2ec:	00162700 	sll	a0,s6,0x1c
 2f0:	5f6d6600 	0x5f6d6600
 2f4:	5f6e6941 	0x5f6e6941
 2f8:	6e65706f 	0x6e65706f
 2fc:	00166700 	sll	t4,s6,0x1c
 300:	5f6d6600 	0x5f6d6600
 304:	75646f6d 	jalx	591bdb4 <AP_BANK_SPACE+0x58dbdb4>
 308:	735f656c 	0x735f656c
 30c:	646e6174 	0x646e6174
 310:	9f007962 	0x9f007962
 314:	66000016 	0x66000016
 318:	676e656d 	0x676e656d
 31c:	5f656e69 	0x5f656e69
 320:	6574756d 	0x6574756d
 324:	6e79735f 	0x6e79735f
 328:	174d0063 	bne	k0,t5,4b8 <SRAM_AP_BACK_DATA_SIZE+0xb8>
 32c:	6d660000 	0x6d660000
 330:	69676e65 	0x69676e65
 334:	735f656e 	0x735f656e
 338:	625f7465 	0x625f7465
 33c:	5f646e61 	0x5f646e61
 340:	636e7973 	0x636e7973
 344:	0017b400 	sll	s6,s7,0x10
 348:	656d6600 	0x656d6600
 34c:	6e69676e 	0x6e69676e
 350:	65735f65 	0x65735f65
 354:	68745f74 	0x68745f74
 358:	00646f72 	tlt	v1,a0,0x1bd
 35c:	00001819 	0x1819
 360:	6e656d66 	0x6e656d66
 364:	656e6967 	0x656e6967
 368:	7374745f 	udi15	k1,s4,t6,0x11
 36c:	6174735f 	0x6174735f
 370:	52007472 	beqzl	s0,1d53c <SRAM_BANK_C_ADDR+0x3c>
 374:	66000018 	0x66000018
 378:	676e656d 	0x676e656d
 37c:	5f656e69 	0x5f656e69
 380:	5f737474 	0x5f737474
 384:	706f7473 	0x706f7473
 388:	00188a00 	sll	s1,t8,0x8
 38c:	656d6600 	0x656d6600
 390:	6e69676e 	0x6e69676e
 394:	65645f65 	0x65645f65
 398:	00677562 	0x677562
 39c:	000018bf 	0x18bf
 3a0:	6e656d66 	0x6e656d66
 3a4:	656e6967 	0x656e6967
 3a8:	6174735f 	0x6174735f
 3ac:	7962646e 	0x7962646e
 3b0:	00000000 	nop
 3b4:	0000c100 	sll	t8,zero,0x4
 3b8:	63000200 	0x63000200
 3bc:	4200009a 	c0	0x9a
 3c0:	0e000016 	jal	8000058 <AP_BANK_SPACE+0x7fc0058>
 3c4:	66000013 	0x66000013
 3c8:	676e656d 	0x676e656d
 3cc:	5f656e69 	0x5f656e69
 3d0:	5f746567 	0x5f746567
 3d4:	74617473 	jalx	185d1cc <AP_BANK_SPACE+0x181d1cc>
 3d8:	8f007375 	lw	zero,29557(t8)
 3dc:	66000013 	0x66000013
 3e0:	676e656d 	0x676e656d
 3e4:	5f656e69 	0x5f656e69
 3e8:	5f746567 	0x5f746567
 3ec:	646e6162 	0x646e6162
 3f0:	0013e300 	sll	gp,s3,0xc
 3f4:	656d6600 	0x656d6600
 3f8:	6e69676e 	0x6e69676e
 3fc:	65675f65 	0x65675f65
 400:	6e695f74 	0x6e695f74
 404:	736e6574 	0x736e6574
 408:	00797469 	0x797469
 40c:	0000143c 	0x143c
 410:	6e656d66 	0x6e656d66
 414:	656e6967 	0x656e6967
 418:	7465675f 	jalx	1959d7c <AP_BANK_SPACE+0x1919d7c>
 41c:	746e615f 	jalx	1b9857c <AP_BANK_SPACE+0x1b5857c>
 420:	616e6e65 	0x616e6e65
 424:	0014ab00 	sll	s5,s4,0xc
 428:	656d6600 	0x656d6600
 42c:	6e69676e 	0x6e69676e
 430:	65675f65 	0x65675f65
 434:	74735f74 	jalx	1cd7dd0 <AP_BANK_SPACE+0x1c97dd0>
 438:	6f657265 	0x6f657265
 43c:	00150100 	sll	zero,s5,0x4
 440:	656d6600 	0x656d6600
 444:	6e69676e 	0x6e69676e
 448:	65675f65 	0x65675f65
 44c:	6c705f74 	0x6c705f74
 450:	6c667961 	0x6c667961
 454:	4b006761 	c2	0x1006761
 458:	66000015 	0x66000015
 45c:	676e656d 	0x676e656d
 460:	5f656e69 	0x5f656e69
 464:	5f746567 	0x5f746567
 468:	75646f6d 	jalx	591bdb4 <AP_BANK_SPACE+0x58dbdb4>
 46c:	735f6c61 	0x735f6c61
 470:	75746174 	jalx	5d185d0 <AP_BANK_SPACE+0x5cd85d0>
 474:	00000073 	tltu	zero,zero,0x1
 478:	00220000 	0x220000
 47c:	00020000 	sll	zero,v0,0x0
 480:	0000b0a5 	0xb0a5
 484:	00001dc3 	sra	v1,zero,0x17
 488:	00001cca 	0x1cca
 48c:	6e656d66 	0x6e656d66
 490:	656e6967 	0x656e6967
 494:	7465735f 	jalx	195cd7c <AP_BANK_SPACE+0x191cd7c>
 498:	0071655f 	0x71655f
 49c:	00000000 	nop
Disassembly of section .debug_aranges:

00000000 <.debug_aranges>:
   0:	00000024 	and	zero,zero,zero
   4:	00000002 	srl	zero,zero,0x0
   8:	00040000 	sll	zero,a0,0x0
   c:	00000000 	nop
  10:	bfc26018 	cache	0x2,24600(s8)
  14:	0000013c 	0x13c
  18:	600268cd 	0x600268cd
  1c:	000002bb 	0x2bb
	...
  28:	0000001c 	0x1c
  2c:	12960002 	beq	s4,s6,38 <SRAM_CARD_GLOBAL_DATA_SIZE+0x28>
  30:	00040000 	sll	zero,a0,0x0
  34:	00000000 	nop
  38:	bfc26154 	cache	0x2,24916(s8)
  3c:	000001cc 	syscall	0x7
	...
  48:	0000001c 	0x1c
  4c:	286a0002 	slti	t2,v1,2
  50:	00040000 	sll	zero,a0,0x0
  54:	00000000 	nop
  58:	bfc26320 	cache	0x2,25376(s8)
  5c:	00000114 	0x114
	...
  68:	0000001c 	0x1c
  6c:	3c8b0002 	0x3c8b0002
  70:	00040000 	sll	zero,a0,0x0
  74:	00000000 	nop
  78:	600e6800 	0x600e6800
  7c:	00000310 	0x310
	...
  88:	0000001c 	0x1c
  8c:	60050002 	0x60050002
  90:	00040000 	sll	zero,a0,0x0
  94:	00000000 	nop
  98:	60126800 	0x60126800
  9c:	000001c0 	sll	zero,zero,0x7
	...
  a8:	0000001c 	0x1c
  ac:	80290002 	lb	t1,2(at)
  b0:	00040000 	sll	zero,a0,0x0
  b4:	00000000 	nop
  b8:	60066800 	0x60066800
  bc:	00000584 	0x584
	...
  c8:	0000001c 	0x1c
  cc:	9a630002 	lwr	v1,2(s3)
  d0:	00040000 	sll	zero,a0,0x0
  d4:	00000000 	nop
  d8:	600a6800 	0x600a6800
  dc:	00000288 	0x288
	...
  e8:	0000001c 	0x1c
  ec:	b0a50002 	0xb0a50002
  f0:	00040000 	sll	zero,a0,0x0
  f4:	00000000 	nop
  f8:	601269c0 	0x601269c0
  fc:	00000068 	0x68
	...
Disassembly of section .debug_str:

00000000 <.debug_str>:
   0:	676e6f6c 	0x676e6f6c
   4:	736e7520 	0x736e7520
   8:	656e6769 	0x656e6769
   c:	6e692064 	0x6e692064
  10:	74730074 	jalx	1cc01d0 <AP_BANK_SPACE+0x1c801d0>
  14:	705f6275 	0x705f6275
  18:	745f7968 	jalx	17de5a0 <AP_BANK_SPACE+0x179e5a0>
  1c:	00657079 	0x657079
  20:	5f746572 	0x5f746572
  24:	756c6176 	jalx	5b185d8 <AP_BANK_SPACE+0x5ad85d8>
  28:	6f6c0065 	0x6f6c0065
  2c:	7520676e 	jalx	4819db8 <AP_BANK_SPACE+0x47d9db8>
  30:	6769736e 	0x6769736e
  34:	2064656e 	addi	a0,v1,25966
  38:	00746e69 	0x746e69
  3c:	75736572 	jalx	5cd95c8 <AP_BANK_SPACE+0x5c995c8>
  40:	6500746c 	0x6500746c
  44:	6e69676e 	0x6e69676e
  48:	74735f65 	jalx	1cd7d94 <AP_BANK_SPACE+0x1c97d94>
  4c:	00657461 	0x657461
  50:	61746164 	0x61746164
  54:	7274705f 	udi15	s3,s4,t6,0x1
  58:	75747300 	jalx	5d1cc00 <AP_BANK_SPACE+0x5cdcc00>
  5c:	68705f62 	0x68705f62
  60:	79745f79 	0x79745f79
  64:	63006570 	0x63006570
  68:	6d5f7275 	0x6d5f7275
  6c:	70006773 	0x70006773
  70:	6d617261 	0x6d617261
  74:	7274705f 	udi15	s3,s4,t6,0x1
  78:	6e6f6c00 	0x6e6f6c00
  7c:	6e752067 	0x6e752067
  80:	6e676973 	0x6e676973
  84:	69206465 	0x69206465
  88:	6400746e 	0x6400746e
  8c:	5f617461 	0x5f617461
  90:	00727470 	tge	v1,s2,0x1d1
  94:	62757473 	0x62757473
  98:	7968705f 	0x7968705f
  9c:	7079745f 	udi15	v1,t9,t6,0x11
  a0:	6f6c0065 	0x6f6c0065
  a4:	7520676e 	jalx	4819db8 <AP_BANK_SPACE+0x47d9db8>
  a8:	6769736e 	0x6769736e
  ac:	2064656e 	addi	a0,v1,25966
  b0:	00746e69 	0x746e69
  b4:	61747461 	0x61747461
  b8:	745f6b63 	jalx	17dad8c <AP_BANK_SPACE+0x179ad8c>
  bc:	00656d69 	0x656d69
  c0:	69676e65 	0x69676e65
  c4:	735f656e 	0x735f656e
  c8:	65746174 	0x65746174
  cc:	6c657200 	0x6c657200
  d0:	65736165 	0x65736165
  d4:	6d69745f 	0x6d69745f
  d8:	74730065 	jalx	1cc0194 <AP_BANK_SPACE+0x1c80194>
  dc:	705f6275 	0x705f6275
  e0:	745f7968 	jalx	17de5a0 <AP_BANK_SPACE+0x179e5a0>
  e4:	00657079 	0x657079
  e8:	65726874 	0x65726874
  ec:	6c6f6873 	0x6c6f6873
  f0:	74003164 	jalx	c590 <SROM_FS_ADDR+0x590>
  f4:	73657268 	0x73657268
  f8:	646c6f68 	0x646c6f68
  fc:	616d0032 	0x616d0032
 100:	7075656b 	0x7075656b
 104:	6961675f 	0x6961675f
 108:	6f6c006e 	0x6f6c006e
 10c:	7520676e 	jalx	4819db8 <AP_BANK_SPACE+0x47d9db8>
 110:	6769736e 	0x6769736e
 114:	2064656e 	addi	a0,v1,25966
 118:	00746e69 	0x746e69
 11c:	61747461 	0x61747461
 120:	745f6b63 	jalx	17dad8c <AP_BANK_SPACE+0x179ad8c>
 124:	00656d69 	0x656d69
 128:	656c6572 	0x656c6572
 12c:	5f657361 	0x5f657361
 130:	656d6974 	0x656d6974
 134:	75747300 	jalx	5d1cc00 <AP_BANK_SPACE+0x5cdcc00>
 138:	68705f62 	0x68705f62
 13c:	79745f79 	0x79745f79
 140:	74006570 	jalx	195c0 <SRAM_AP_BACK_DATA_ADDR+0x40>
 144:	73657268 	0x73657268
 148:	646c6f68 	0x646c6f68
 14c:	68740031 	0x68740031
 150:	68736572 	0x68736572
 154:	32646c6f 	andi	a0,s3,0x6c6f
 158:	6b616d00 	0x6b616d00
 15c:	5f707565 	0x5f707565
 160:	6e696167 	0x6e696167
 164:	6e6f6c00 	0x6e6f6c00
 168:	6e752067 	0x6e752067
 16c:	6e676973 	0x6e676973
 170:	69206465 	0x69206465
 174:	7200746e 	0x7200746e
 178:	6c757365 	0x6c757365
 17c:	6e650074 	0x6e650074
 180:	656e6967 	0x656e6967
 184:	6174735f 	0x6174735f
 188:	64006574 	0x64006574
 18c:	5f617461 	0x5f617461
 190:	00727470 	tge	v1,s2,0x1d1
 194:	646e6162 	0x646e6162
 198:	666e695f 	0x666e695f
 19c:	7473006f 	jalx	1cc01bc <AP_BANK_SPACE+0x1c801bc>
 1a0:	705f6275 	0x705f6275
 1a4:	745f7968 	jalx	17de5a0 <AP_BANK_SPACE+0x179e5a0>
 1a8:	00657079 	0x657079
 1ac:	5f727563 	0x5f727563
 1b0:	0067736d 	0x67736d
 1b4:	676e6f6c 	0x676e6f6c
 1b8:	736e7520 	0x736e7520
 1bc:	656e6769 	0x656e6769
 1c0:	6e692064 	0x6e692064
 1c4:	65720074 	0x65720074
 1c8:	746c7573 	jalx	1b1d5cc <AP_BANK_SPACE+0x1add5cc>
 1cc:	74616400 	jalx	1859000 <AP_BANK_SPACE+0x1819000>
 1d0:	74705f61 	jalx	1c17d84 <AP_BANK_SPACE+0x1bd7d84>
 1d4:	74730072 	jalx	1cc01c8 <AP_BANK_SPACE+0x1c801c8>
 1d8:	705f6275 	0x705f6275
 1dc:	745f7968 	jalx	17de5a0 <AP_BANK_SPACE+0x179e5a0>
 1e0:	00657079 	0x657079
 1e4:	5f727563 	0x5f727563
 1e8:	0067736d 	0x67736d
 1ec:	676e6f6c 	0x676e6f6c
 1f0:	736e7520 	0x736e7520
 1f4:	656e6769 	0x656e6769
 1f8:	6e692064 	0x6e692064
 1fc:	74610074 	jalx	18401d0 <AP_BANK_SPACE+0x18001d0>
 200:	6b636174 	0x6b636174
 204:	6d69745f 	0x6d69745f
 208:	65720065 	0x65720065
 20c:	7361656c 	0x7361656c
 210:	69745f65 	0x69745f65
 214:	7300656d 	0x7300656d
 218:	5f627574 	0x5f627574
 21c:	5f796870 	0x5f796870
 220:	65707974 	0x65707974
 224:	72687400 	0x72687400
 228:	6f687365 	0x6f687365
 22c:	0031646c 	0x31646c
 230:	65726874 	0x65726874
 234:	6c6f6873 	0x6c6f6873
 238:	6d003264 	0x6d003264
 23c:	75656b61 	jalx	595ad84 <AP_BANK_SPACE+0x591ad84>
 240:	61675f70 	0x61675f70
 244:	Address 0x244 is out of bounds.

Disassembly of section .comment:

00000000 <.comment>:
   0:	43434700 	c0	0x1434700
   4:	4728203a 	c1	0x128203a
   8:	2029554e 	addi	t1,at,21838
   c:	2e342e33 	sltiu	s4,s1,11827
  10:	696d2034 	0x696d2034
  14:	64737370 	0x64737370
  18:	2e362d65 	sltiu	s6,s1,11621
  1c:	302e3630 	andi	t6,at,0x3630
  20:	30322d31 	andi	s2,at,0x2d31
  24:	34303730 	ori	s0,at,0x3730
  28:	00003032 	tlt	zero,zero,0xc0
  2c:	3a434347 	xori	v1,s2,0x4347
  30:	4e472820 	c3	0x472820
  34:	33202955 	andi	zero,t9,0x2955
  38:	342e342e 	ori	t6,at,0x342e
  3c:	70696d20 	0x70696d20
  40:	65647373 	0x65647373
  44:	302e362d 	andi	t6,at,0x362d
  48:	31302e36 	andi	s0,t1,0x2e36
  4c:	3030322d 	andi	s0,at,0x322d
  50:	32343037 	andi	s4,s1,0x3037
  54:	47000030 	c1	0x1000030
  58:	203a4343 	addi	k0,at,17219
  5c:	554e4728 	bnel	t2,t6,11d00 <SRAM_BT_BACK_RCODE_ADDR+0xd00>
  60:	2e332029 	sltiu	s3,s1,8233
  64:	20342e34 	addi	s4,at,11828
  68:	7370696d 	0x7370696d
  6c:	2d656473 	sltiu	a1,t3,25715
  70:	36302e36 	ori	s0,s1,0x2e36
  74:	2d31302e 	sltiu	s1,t1,12334
  78:	37303032 	ori	s0,t9,0x3032
  7c:	30323430 	andi	s2,at,0x3430
  80:	43470000 	c0	0x1470000
  84:	28203a43 	slti	zero,at,14915
  88:	29554e47 	slti	s5,t2,20039
  8c:	342e3320 	ori	t6,at,0x3320
  90:	6d20342e 	0x6d20342e
  94:	73737069 	0x73737069
  98:	362d6564 	ori	t5,s1,0x6564
  9c:	2e36302e 	sltiu	s6,s1,12334
  a0:	322d3130 	andi	t5,s1,0x3130
  a4:	30373030 	andi	s7,at,0x3030
  a8:	00303234 	teq	at,s0,0xc8
  ac:	43434700 	c0	0x1434700
  b0:	4728203a 	c1	0x128203a
  b4:	2029554e 	addi	t1,at,21838
  b8:	2e342e33 	sltiu	s4,s1,11827
  bc:	696d2034 	0x696d2034
  c0:	64737370 	0x64737370
  c4:	2e362d65 	sltiu	s6,s1,11621
  c8:	302e3630 	andi	t6,at,0x3630
  cc:	30322d31 	andi	s2,at,0x2d31
  d0:	34303730 	ori	s0,at,0x3730
  d4:	00003032 	tlt	zero,zero,0xc0
  d8:	3a434347 	xori	v1,s2,0x4347
  dc:	4e472820 	c3	0x472820
  e0:	33202955 	andi	zero,t9,0x2955
  e4:	342e342e 	ori	t6,at,0x342e
  e8:	70696d20 	0x70696d20
  ec:	65647373 	0x65647373
  f0:	302e362d 	andi	t6,at,0x362d
  f4:	31302e36 	andi	s0,t1,0x2e36
  f8:	3030322d 	andi	s0,at,0x322d
  fc:	32343037 	andi	s4,s1,0x3037
 100:	47000030 	c1	0x1000030
 104:	203a4343 	addi	k0,at,17219
 108:	554e4728 	bnel	t2,t6,11dac <SRAM_BT_BACK_RCODE_ADDR+0xdac>
 10c:	2e332029 	sltiu	s3,s1,8233
 110:	20342e34 	addi	s4,at,11828
 114:	7370696d 	0x7370696d
 118:	2d656473 	sltiu	a1,t3,25715
 11c:	36302e36 	ori	s0,s1,0x2e36
 120:	2d31302e 	sltiu	s1,t1,12334
 124:	37303032 	ori	s0,t9,0x3032
 128:	30323430 	andi	s2,at,0x3430
 12c:	43470000 	c0	0x1470000
 130:	28203a43 	slti	zero,at,14915
 134:	29554e47 	slti	s5,t2,20039
 138:	342e3320 	ori	t6,at,0x3320
 13c:	6d20342e 	0x6d20342e
 140:	73737069 	0x73737069
 144:	362d6564 	ori	t5,s1,0x6564
 148:	2e36302e 	sltiu	s6,s1,12334
 14c:	322d3130 	andi	t5,s1,0x3130
 150:	30373030 	andi	s7,at,0x3030
 154:	00303234 	teq	at,s0,0xc8
 158:	43434700 	c0	0x1434700
 15c:	4728203a 	c1	0x128203a
 160:	2029554e 	addi	t1,at,21838
 164:	2e342e33 	sltiu	s4,s1,11827
 168:	696d2034 	0x696d2034
 16c:	64737370 	0x64737370
 170:	2e362d65 	sltiu	s6,s1,11621
 174:	302e3630 	andi	t6,at,0x3630
 178:	30322d31 	andi	s2,at,0x2d31
 17c:	34303730 	ori	s0,at,0x3730
 180:	00003032 	tlt	zero,zero,0xc0
 184:	3a434347 	xori	v1,s2,0x4347
 188:	4e472820 	c3	0x472820
 18c:	33202955 	andi	zero,t9,0x2955
 190:	342e342e 	ori	t6,at,0x342e
 194:	70696d20 	0x70696d20
 198:	65647373 	0x65647373
 19c:	302e362d 	andi	t6,at,0x362d
 1a0:	31302e36 	andi	s0,t1,0x2e36
 1a4:	3030322d 	andi	s0,at,0x322d
 1a8:	32343037 	andi	s4,s1,0x3037
 1ac:	47000030 	c1	0x1000030
 1b0:	203a4343 	addi	k0,at,17219
 1b4:	554e4728 	bnel	t2,t6,11e58 <SRAM_BT_BACK_RCODE_ADDR+0xe58>
 1b8:	2e332029 	sltiu	s3,s1,8233
 1bc:	20342e34 	addi	s4,at,11828
 1c0:	7370696d 	0x7370696d
 1c4:	2d656473 	sltiu	a1,t3,25715
 1c8:	36302e36 	ori	s0,s1,0x2e36
 1cc:	2d31302e 	sltiu	s1,t1,12334
 1d0:	37303032 	ori	s0,t9,0x3032
 1d4:	30323430 	andi	s2,at,0x3430
 1d8:	43470000 	c0	0x1470000
 1dc:	28203a43 	slti	zero,at,14915
 1e0:	29554e47 	slti	s5,t2,20039
 1e4:	342e3320 	ori	t6,at,0x3320
 1e8:	6d20342e 	0x6d20342e
 1ec:	73737069 	0x73737069
 1f0:	362d6564 	ori	t5,s1,0x6564
 1f4:	2e36302e 	sltiu	s6,s1,12334
 1f8:	322d3130 	andi	t5,s1,0x3130
 1fc:	30373030 	andi	s7,at,0x3030
 200:	00303234 	teq	at,s0,0xc8
 204:	43434700 	c0	0x1434700
 208:	4728203a 	c1	0x128203a
 20c:	2029554e 	addi	t1,at,21838
 210:	2e342e33 	sltiu	s4,s1,11827
 214:	696d2034 	0x696d2034
 218:	64737370 	0x64737370
 21c:	2e362d65 	sltiu	s6,s1,11621
 220:	302e3630 	andi	t6,at,0x3630
 224:	30322d31 	andi	s2,at,0x2d31
 228:	34303730 	ori	s0,at,0x3730
 22c:	00003032 	tlt	zero,zero,0xc0
 230:	3a434347 	xori	v1,s2,0x4347
 234:	4e472820 	c3	0x472820
 238:	33202955 	andi	zero,t9,0x2955
 23c:	342e342e 	ori	t6,at,0x342e
 240:	70696d20 	0x70696d20
 244:	65647373 	0x65647373
 248:	302e362d 	andi	t6,at,0x362d
 24c:	31302e36 	andi	s0,t1,0x2e36
 250:	3030322d 	andi	s0,at,0x322d
 254:	32343037 	andi	s4,s1,0x3037
 258:	47000030 	c1	0x1000030
 25c:	203a4343 	addi	k0,at,17219
 260:	554e4728 	bnel	t2,t6,11f04 <SRAM_BT_BACK_RCODE_ADDR+0xf04>
 264:	2e332029 	sltiu	s3,s1,8233
 268:	20342e34 	addi	s4,at,11828
 26c:	7370696d 	0x7370696d
 270:	2d656473 	sltiu	a1,t3,25715
 274:	36302e36 	ori	s0,s1,0x2e36
 278:	2d31302e 	sltiu	s1,t1,12334
 27c:	37303032 	ori	s0,t9,0x3032
 280:	30323430 	andi	s2,at,0x3430
 284:	43470000 	c0	0x1470000
 288:	28203a43 	slti	zero,at,14915
 28c:	29554e47 	slti	s5,t2,20039
 290:	342e3320 	ori	t6,at,0x3320
 294:	6d20342e 	0x6d20342e
 298:	73737069 	0x73737069
 29c:	362d6564 	ori	t5,s1,0x6564
 2a0:	2e36302e 	sltiu	s6,s1,12334
 2a4:	322d3130 	andi	t5,s1,0x3130
 2a8:	30373030 	andi	s7,at,0x3030
 2ac:	00303234 	teq	at,s0,0xc8
 2b0:	43434700 	c0	0x1434700
 2b4:	4728203a 	c1	0x128203a
 2b8:	2029554e 	addi	t1,at,21838
 2bc:	2e342e33 	sltiu	s4,s1,11827
 2c0:	696d2034 	0x696d2034
 2c4:	64737370 	0x64737370
 2c8:	2e362d65 	sltiu	s6,s1,11621
 2cc:	302e3630 	andi	t6,at,0x3630
 2d0:	30322d31 	andi	s2,at,0x2d31
 2d4:	34303730 	ori	s0,at,0x3730
 2d8:	00003032 	tlt	zero,zero,0xc0
 2dc:	3a434347 	xori	v1,s2,0x4347
 2e0:	4e472820 	c3	0x472820
 2e4:	33202955 	andi	zero,t9,0x2955
 2e8:	342e342e 	ori	t6,at,0x342e
 2ec:	70696d20 	0x70696d20
 2f0:	65647373 	0x65647373
 2f4:	302e362d 	andi	t6,at,0x362d
 2f8:	31302e36 	andi	s0,t1,0x2e36
 2fc:	3030322d 	andi	s0,at,0x322d
 300:	32343037 	andi	s4,s1,0x3037
 304:	47000030 	c1	0x1000030
 308:	203a4343 	addi	k0,at,17219
 30c:	554e4728 	bnel	t2,t6,11fb0 <SRAM_BT_BACK_RCODE_ADDR+0xfb0>
 310:	2e332029 	sltiu	s3,s1,8233
 314:	20342e34 	addi	s4,at,11828
 318:	7370696d 	0x7370696d
 31c:	2d656473 	sltiu	a1,t3,25715
 320:	36302e36 	ori	s0,s1,0x2e36
 324:	2d31302e 	sltiu	s1,t1,12334
 328:	37303032 	ori	s0,t9,0x3032
 32c:	30323430 	andi	s2,at,0x3430
 330:	43470000 	c0	0x1470000
 334:	28203a43 	slti	zero,at,14915
 338:	29554e47 	slti	s5,t2,20039
 33c:	342e3320 	ori	t6,at,0x3320
 340:	6d20342e 	0x6d20342e
 344:	73737069 	0x73737069
 348:	362d6564 	ori	t5,s1,0x6564
 34c:	2e36302e 	sltiu	s6,s1,12334
 350:	322d3130 	andi	t5,s1,0x3130
 354:	30373030 	andi	s7,at,0x3030
 358:	00303234 	teq	at,s0,0xc8
 35c:	43434700 	c0	0x1434700
 360:	4728203a 	c1	0x128203a
 364:	2029554e 	addi	t1,at,21838
 368:	2e342e33 	sltiu	s4,s1,11827
 36c:	696d2034 	0x696d2034
 370:	64737370 	0x64737370
 374:	2e362d65 	sltiu	s6,s1,11621
 378:	302e3630 	andi	t6,at,0x3630
 37c:	30322d31 	andi	s2,at,0x2d31
 380:	34303730 	ori	s0,at,0x3730
 384:	00003032 	tlt	zero,zero,0xc0
 388:	3a434347 	xori	v1,s2,0x4347
 38c:	4e472820 	c3	0x472820
 390:	33202955 	andi	zero,t9,0x2955
 394:	342e342e 	ori	t6,at,0x342e
 398:	70696d20 	0x70696d20
 39c:	65647373 	0x65647373
 3a0:	302e362d 	andi	t6,at,0x362d
 3a4:	31302e36 	andi	s0,t1,0x2e36
 3a8:	3030322d 	andi	s0,at,0x322d
 3ac:	32343037 	andi	s4,s1,0x3037
 3b0:	47000030 	c1	0x1000030
 3b4:	203a4343 	addi	k0,at,17219
 3b8:	554e4728 	bnel	t2,t6,1205c <SRAM_BT_BACK_RCODE_ADDR+0x105c>
 3bc:	2e332029 	sltiu	s3,s1,8233
 3c0:	20342e34 	addi	s4,at,11828
 3c4:	7370696d 	0x7370696d
 3c8:	2d656473 	sltiu	a1,t3,25715
 3cc:	36302e36 	ori	s0,s1,0x2e36
 3d0:	2d31302e 	sltiu	s1,t1,12334
 3d4:	37303032 	ori	s0,t9,0x3032
 3d8:	30323430 	andi	s2,at,0x3430
 3dc:	43470000 	c0	0x1470000
 3e0:	28203a43 	slti	zero,at,14915
 3e4:	29554e47 	slti	s5,t2,20039
 3e8:	342e3320 	ori	t6,at,0x3320
 3ec:	6d20342e 	0x6d20342e
 3f0:	73737069 	0x73737069
 3f4:	362d6564 	ori	t5,s1,0x6564
 3f8:	2e36302e 	sltiu	s6,s1,12334
 3fc:	322d3130 	andi	t5,s1,0x3130
 400:	30373030 	andi	s7,at,0x3030
 404:	00303234 	teq	at,s0,0xc8
 408:	43434700 	c0	0x1434700
 40c:	4728203a 	c1	0x128203a
 410:	2029554e 	addi	t1,at,21838
 414:	2e342e33 	sltiu	s4,s1,11827
 418:	696d2034 	0x696d2034
 41c:	64737370 	0x64737370
 420:	2e362d65 	sltiu	s6,s1,11621
 424:	302e3630 	andi	t6,at,0x3630
 428:	30322d31 	andi	s2,at,0x2d31
 42c:	34303730 	ori	s0,at,0x3730
 430:	Address 0x430 is out of bounds.

