
mengine.exe:     file format elf32-tradlittlemips

Disassembly of section .text:

bfc26000 <audio_device_op_entry>:
bfc26000:	6b0a      	li	v1,10
bfc26002:	e805      	break	0

bfc26004 <key_op_entry>:
bfc26004:	6b08      	li	v1,8
bfc26006:	e805      	break	0

bfc26008 <libc_op_entry>:
bfc26008:	6b10      	li	v1,16
bfc2600a:	e805      	break	0

bfc2600c <mmm_mp_cmd>:
bfc2600c:	6b42      	li	v1,66
bfc2600e:	e805      	break	0

bfc26010 <sys_op_entry>:
bfc26010:	6b0f      	li	v1,15
bfc26012:	e805      	break	0

bfc26014 <vfs_op_entry>:
bfc26014:	6b11      	li	v1,17
bfc26016:	e805      	break	0

bfc26018 <mengine_status_deal>:
bfc26018:	64f7      	save	56,ra,s0-s1
#include "app_mengine.h"

void mengine_status_deal(void)
{
bfc2601a:	b137      	lw	s1,bfc260f4 <.LBE3+0xa0>
    mmm_mp_status_t mmm_status;
    switch_result_e switch_retval = SWITCH_NO_ERR;
    //获取当前播放状态
    mmm_mp_cmd(g_mp_handle, MMM_MP_GET_STATUS, (unsigned int) &mmm_status);
bfc2601c:	b037      	lw	s0,bfc260f8 <.LBE3+0xa4>
bfc2601e:	9980      	lw	a0,0(s1)
bfc26020:	6d1b      	li	a1,27
bfc26022:	e840      	jalr	s0
bfc26024:	0604      	addiu	a2,sp,16
bfc26026:	b236      	lw	v0,bfc260fc <.LBE3+0xa8>

    //存放当前的播放时间和比特率
    if((g_eg_status_p->play_status != PauseSta) && (g_eg_status_p->play_status != StopSta)) {
bfc26028:	9aa0      	lw	a1,0(v0)
bfc2602a:	a5c0      	lbu	a2,0(a1)
bfc2602c:	5e02      	sltiu	a2,2
bfc2602e:	6104      	btnez	bfc26038 <mengine_status_deal+0x20>
bfc26030:	b734      	lw	a3,bfc26100 <.LBE3+0xac>
        g_eg_playinfo_p->cur_time = (uint32) mmm_status.cur_time;
bfc26032:	9407      	lw	a0,28(sp)
bfc26034:	9f60      	lw	v1,0(a3)
bfc26036:	db80      	sw	a0,0(v1)
bfc26038:	9404      	lw	a0,16(sp)
    }

    switch(mmm_status.status) {
bfc2603a:	7401      	cmpi	a0,1
bfc2603c:	600d      	bteqz	bfc26058 <.LBE3+0x4>
bfc2603e:	5402      	slti	a0,2
bfc26040:	6119      	btnez	bfc26074 <.LBE3+0x20>
bfc26042:	7403      	cmpi	a0,3
bfc26044:	6026      	bteqz	bfc26092 <.LBE3+0x3e>
bfc26046:	a5c0      	lbu	a2,0(a1)

bfc26048 <.LBB2>:
        case MMM_MP_ENGINE_PLAYING: //正常播放
            if(g_eg_status_p->fast_status != FBPlay_Null) { //快进退取消
                //已经恢复正常播放
                if(g_eg_status_p->play_status == PlaySta) {
                    mmm_mp_cmd(g_mp_handle, MMM_MP_SET_FFB, (unsigned int) 0);
                    g_eg_status_p->fast_status = FBPlay_Null;
                }
            }
#ifdef AB_SUPPORT
            else if(g_eg_status_p->play_status == PlayAB) { /*ab 复读状态*/
                //复读结束,回到正常播放状态
                if((g_eg_status_p->ab_status == PlayAB_Do) && (mmm_status.ab_play_flag == AB_PLAY_CLEAR)) {
                    g_eg_status_p->ab_status = PlayAB_A;
                }
            } else {
                ; //快进退不理会浏览播放
            }
#endif //AB_SUPPORT
            break;

        case MMM_MP_ENGINE_STOPPED: //停止
            //sd 文件播放只需要停止
            if((g_fsel_type == FSEL_TYPE_SDFILE) || (g_mengine_enter_mode == ENTER_ALARM)) {
                stop(STOP_NORMAL); //停止播放,将文件关闭
                break;
            }

            //正常播放到尾 or 快进到尾 or 快退到头
#ifdef AB_SUPPORT
            if((g_eg_status_p->play_status == PlaySta) || (g_eg_status_p->play_status == PlayAB))
#else
            if(g_eg_status_p->play_status == PlaySta)
#endif
            {
                //到结尾了，但从来没播过的歌，认为是有错误的歌
                if(g_eg_playinfo_p->cur_time == 0) {
                    g_eg_status_p->err_status = EG_ERR_DECODER_ERROR;
                    error_handle2();
                    break;
                }
                //正常播放到尾
                switch_retval = mengine_file_switch(STOP_NORMAL, END_SWITCH, PLAY_NORMAL);

                if(switch_retval == SWITCH_ERR_READ_CARD_TIMEOUT) {
                    g_eg_status_p->err_status = EG_ERR_RAED_CARD_TIMEOUT;
                }
            } else if(g_eg_status_p->play_status == PlayFast) {
                if(g_eg_status_p->fast_status == FFPlaySta) {
                    //快进到尾下一曲继续快进
                    switch_retval = mengine_file_switch(STOP_NORMAL, END_SWITCH, PLAY_FFON);
                } else {
                    //快退到头上一曲继续快退
                    switch_retval = mengine_file_switch(STOP_NORMAL, FORCE_SWITCH_PREV, PLAY_FBON);
                }
            } else {
                ; //do nothing
            }
            break;

        case MMM_MP_ENGINE_ERROR: //出错
            //停止音乐保存错误状态
            error_handle();
            break;

        default:
            break;
    }

    if((g_eg_status_p->play_status == StopSta) || (g_eg_status_p->play_status == PauseSta)) {
bfc26048:	6b02      	li	v1,2

bfc2604a <.LBE2>:
}

///修改后台引擎状态
static inline void change_engine_state(engine_state_e engine_state)
{
bfc2604a:	5e02      	sltiu	a2,2
bfc2604c:	6101      	btnez	bfc26050 <.LBB3+0x2>

bfc2604e <.LBB3>:
bfc2604e:	6b01      	li	v1,1
}

///修改后台引擎状态
static inline void change_engine_state(engine_state_e engine_state)
{
bfc26050:	b533      	lw	a1,bfc2611c <.LBE3+0xc8>
    g_app_info_state_all.engine_state = engine_state;
bfc26052:	c561      	sb	v1,1(a1)

bfc26054 <.LBE3>:
bfc26054:	6477      	restore	56,ra,s0-s1
        change_engine_state(ENGINE_STATE_PAUSE);
    } else {
        change_engine_state(ENGINE_STATE_PLAYING);
    }
}
bfc26056:	e8a0      	jrc	ra
bfc26058:	a542      	lbu	v0,2(a1)
bfc2605a:	22f5      	beqz	v0,bfc26046 <mengine_status_deal+0x2e>
bfc2605c:	7602      	cmpi	a2,2
bfc2605e:	61f3      	btnez	bfc26046 <mengine_status_deal+0x2e>
bfc26060:	9980      	lw	a0,0(s1)
bfc26062:	6d1f      	li	a1,31
bfc26064:	e840      	jalr	s0
bfc26066:	6e00      	li	a2,0
bfc26068:	b325      	lw	v1,bfc260fc <.LBE3+0xa8>
bfc2606a:	6d00      	li	a1,0
bfc2606c:	9bc0      	lw	a2,0(v1)
bfc2606e:	c6a2      	sb	a1,2(a2)
bfc26070:	67a6      	move	a1,a2
bfc26072:	17e9      	b	bfc26046 <mengine_status_deal+0x2e>
bfc26074:	2ce8      	bnez	a0,bfc26046 <mengine_status_deal+0x2e>
bfc26076:	b224      	lw	v0,bfc26104 <.LBE3+0xb0>
bfc26078:	a2e0      	lbu	a3,0(v0)
bfc2607a:	7702      	cmpi	a3,2
bfc2607c:	6004      	bteqz	bfc26086 <.LBE3+0x32>
bfc2607e:	b723      	lw	a3,bfc26108 <.LBE3+0xb4>
bfc26080:	a760      	lbu	v1,0(a3)
bfc26082:	7302      	cmpi	v1,2
bfc26084:	610b      	btnez	bfc2609c <.LBE3+0x48>
bfc26086:	b222      	lw	v0,bfc2610c <.LBE3+0xb8>
bfc26088:	ea40      	jalr	v0
bfc2608a:	6c00      	li	a0,0
bfc2608c:	b41c      	lw	a0,bfc260fc <.LBE3+0xa8>
bfc2608e:	9ca0      	lw	a1,0(a0)
bfc26090:	17da      	b	bfc26046 <mengine_status_deal+0x2e>
bfc26092:	b222      	lw	v0,bfc26118 <.LBE3+0xc4>
bfc26094:	eac0      	jalrc	v0
bfc26096:	b71a      	lw	a3,bfc260fc <.LBE3+0xa8>
bfc26098:	9fa0      	lw	a1,0(a3)
bfc2609a:	17d5      	b	bfc26046 <mengine_status_deal+0x2e>
bfc2609c:	7602      	cmpi	a2,2
bfc2609e:	6109      	btnez	bfc260b2 <.LBE3+0x5e>
bfc260a0:	b318      	lw	v1,bfc26100 <.LBE3+0xac>
bfc260a2:	9bc0      	lw	a2,0(v1)
bfc260a4:	9e80      	lw	a0,0(a2)
bfc260a6:	2c12      	bnez	a0,bfc260cc <.LBE3+0x78>
bfc260a8:	6f05      	li	a3,5
bfc260aa:	b21a      	lw	v0,bfc26110 <.LBE3+0xbc>
bfc260ac:	ea40      	jalr	v0
bfc260ae:	c5e3      	sb	a3,3(a1)
bfc260b0:	17f2      	b	bfc26096 <.LBE3+0x42>
bfc260b2:	7604      	cmpi	a2,4
bfc260b4:	61c8      	btnez	bfc26046 <mengine_status_deal+0x2e>
bfc260b6:	a562      	lbu	v1,2(a1)
bfc260b8:	7301      	cmpi	v1,1
bfc260ba:	6115      	btnez	bfc260e6 <.LBE3+0x92>
bfc260bc:	b216      	lw	v0,bfc26114 <.LBE3+0xc0>
bfc260be:	6d04      	li	a1,4
bfc260c0:	6c00      	li	a0,0
bfc260c2:	ea40      	jalr	v0
bfc260c4:	6e02      	li	a2,2
bfc260c6:	b70e      	lw	a3,bfc260fc <.LBE3+0xa8>
bfc260c8:	9fa0      	lw	a1,0(a3)
bfc260ca:	17bd      	b	bfc26046 <mengine_status_deal+0x2e>
bfc260cc:	6c00      	li	a0,0
bfc260ce:	b212      	lw	v0,bfc26114 <.LBE3+0xc0>
bfc260d0:	6d04      	li	a1,4
bfc260d2:	ea40      	jalr	v0
bfc260d4:	67c4      	move	a2,a0
bfc260d6:	7204      	cmpi	v0,4
bfc260d8:	61d9      	btnez	bfc2608c <.LBE3+0x38>
bfc260da:	b609      	lw	a2,bfc260fc <.LBE3+0xa8>
bfc260dc:	6d09      	li	a1,9
bfc260de:	9e80      	lw	a0,0(a2)
bfc260e0:	c4a3      	sb	a1,3(a0)
bfc260e2:	67a4      	move	a1,a0
bfc260e4:	17b0      	b	bfc26046 <mengine_status_deal+0x2e>
bfc260e6:	6d03      	li	a1,3
bfc260e8:	b20b      	lw	v0,bfc26114 <.LBE3+0xc0>
bfc260ea:	ea40      	jalr	v0
bfc260ec:	67c5      	move	a2,a1
bfc260ee:	b404      	lw	a0,bfc260fc <.LBE3+0xa8>
bfc260f0:	9ca0      	lw	a1,0(a0)
bfc260f2:	17a9      	b	bfc26046 <mengine_status_deal+0x2e>
bfc260f4:	95fc      	lw	a1,1008(sp)
bfc260f6:	9fc1      	lw	a2,4(a3)
bfc260f8:	600d      	bteqz	bfc26114 <.LBE3+0xc0>
bfc260fa:	bfc2      	lwu	a2,8(a3)
bfc260fc:	95f8      	lw	a1,992(sp)
bfc260fe:	9fc1      	lw	a2,4(a3)
bfc26100:	95f4      	lw	a1,976(sp)
bfc26102:	9fc1      	lw	a2,4(a3)
bfc26104:	95df      	lw	a1,892(sp)
bfc26106:	9fc1      	lw	a2,4(a3)
bfc26108:	95de      	lw	a1,888(sp)
bfc2610a:	9fc1      	lw	a2,4(a3)
bfc2610c:	6869      	li	s0,105
bfc2610e:	6022      	bteqz	bfc26154 <me_update_share+0x28>
bfc26110:	6e61      	li	a2,97
bfc26112:	600a      	bteqz	bfc26128 <megine_check_status+0x8>
bfc26114:	6d41      	li	a1,65
bfc26116:	6022      	bteqz	bfc2615c <save_bk_info_to_rtc_ram>
bfc26118:	6e95      	li	a2,149
bfc2611a:	600a      	bteqz	bfc26130 <me_update_share+0x4>
bfc2611c:	a094      	lbu	a0,20(s0)
bfc2611e:	9fc1      	lw	a2,4(a3)

bfc26120 <megine_check_status>:
bfc26120:	b202      	lw	v0,bfc26128 <megine_check_status+0x8>

void megine_check_status(void)
{
    g_check_status_flag = TRUE;
bfc26122:	6b01      	li	v1,1
bfc26124:	e820      	jr	ra
bfc26126:	c260      	sb	v1,0(v0)
bfc26128:	95e8      	lw	a1,928(sp)
bfc2612a:	9fc1      	lw	a2,4(a3)

bfc2612c <me_update_share>:
bfc2612c:	64c3      	save	24,ra
}

void me_update_share(void)
{
bfc2612e:	6d00      	li	a1,0
    g_mengine_info_p = sys_share_query_update(APP_ID_MENGINE);
bfc26130:	b208      	lw	v0,bfc26150 <me_update_share+0x24>
bfc26132:	67c5      	move	a2,a1
bfc26134:	6c0e      	li	a0,14
bfc26136:	ea40      	jalr	v0
bfc26138:	6f46      	li	a3,70
bfc2613a:	b505      	lw	a1,bfc2614c <me_update_share+0x20>
bfc2613c:	b406      	lw	a0,bfc26154 <me_update_share+0x28>
    g_eg_status_p = &(g_mengine_info_p->eg_status);
bfc2613e:	b307      	lw	v1,bfc26158 <me_update_share+0x2c>
    g_eg_playinfo_p = &(g_mengine_info_p->eg_playinfo);
bfc26140:	dd40      	sw	v0,0(a1)
bfc26142:	dc40      	sw	v0,0(a0)
bfc26144:	4a08      	addiu	v0,8
bfc26146:	db40      	sw	v0,0(v1)
bfc26148:	6443      	restore	24,ra
bfc2614a:	e8a0      	jrc	ra
bfc2614c:	95f0      	lw	a1,960(sp)
bfc2614e:	9fc1      	lw	a2,4(a3)
bfc26150:	6011      	bteqz	bfc26174 <save_bk_info_to_rtc_ram+0x18>
bfc26152:	bfc2      	lwu	a2,8(a3)
bfc26154:	95f8      	lw	a1,992(sp)
bfc26156:	9fc1      	lw	a2,4(a3)
bfc26158:	95f4      	lw	a1,976(sp)
bfc2615a:	9fc1      	lw	a2,4(a3)

bfc2615c <save_bk_info_to_rtc_ram>:
bfc2615c:	64c5      	save	40,ra

}

//保存断点信息到rtc_ram，reset不会清0
void save_bk_info_to_rtc_ram(void)
{
bfc2615e:	b70c      	lw	a3,bfc2618c <save_bk_info_to_rtc_ram+0x30>
    mmm_mp_bp_info_t bk_info;
    mmm_mp_cmd(g_mp_handle, MMM_MP_GET_BREAK_POINT, (unsigned int)&bk_info);
bfc26160:	b20c      	lw	v0,bfc26190 <save_bk_info_to_rtc_ram+0x34>
bfc26162:	9f80      	lw	a0,0(a3)
bfc26164:	6d15      	li	a1,21
bfc26166:	ea40      	jalr	v0
bfc26168:	0604      	addiu	a2,sp,16
bfc2616a:	9605      	lw	a2,20(sp)
    act_writel((uint32)bk_info.bp_file_offset, RTC_BAK1);
bfc2616c:	b50a      	lw	a1,bfc26194 <save_bk_info_to_rtc_ram+0x38>
bfc2616e:	b40b      	lw	a0,bfc26198 <save_bk_info_to_rtc_ram+0x3c>
    act_writel((uint32)bk_info.bp_time_offset, RTC_BAK2);
bfc26170:	ddc0      	sw	a2,0(a1)
bfc26172:	9304      	lw	v1,16(sp)
bfc26174:	f594 6a16 	li	v0,42390
    act_writel(0xA596, RTC_REGUPDATA);
bfc26178:	dc60      	sw	v1,0(a0)
bfc2617a:	b309      	lw	v1,bfc2619c <save_bk_info_to_rtc_ram+0x40>
bfc2617c:	db40      	sw	v0,0(v1)
bfc2617e:	9b80      	lw	a0,0(v1)
    while(act_readl(RTC_REGUPDATA) != 0x5A69) {
bfc26180:	f26b 7409 	cmpi	a0,23145
bfc26184:	61fc      	btnez	bfc2617e <save_bk_info_to_rtc_ram+0x22>
bfc26186:	6445      	restore	40,ra
bfc26188:	e8a0      	jrc	ra
bfc2618a:	0000      	addiu	s0,sp,0
bfc2618c:	95fc      	lw	a1,1008(sp)
bfc2618e:	9fc1      	lw	a2,4(a3)
bfc26190:	600d      	bteqz	bfc261ac <mengine_control_block+0xc>
bfc26192:	bfc2      	lwu	a2,8(a3)
bfc26194:	0034      	addiu	s0,sp,208
bfc26196:	c012      	sb	s0,18(s0)
bfc26198:	0038      	addiu	s0,sp,224
bfc2619a:	c012      	sb	s0,18(s0)
bfc2619c:	0004      	addiu	s0,sp,16
bfc2619e:	c012      	sb	s0,18(s0)

bfc261a0 <mengine_control_block>:
bfc261a0:	64f6      	save	48,ra,s0-s1
        ;//nothing
    }
}

app_result_e mengine_control_block(void)
{
bfc261a2:	b624      	lw	a2,bfc26230 <mengine_control_block+0x90>
    private_msg_t cur_msg_val;
    app_result_e mengine_retval = RESULT_NULL;
    uint8 save_bk_info_cnt = 0;
    //250ms查询一次中间件状态
    g_status_timer = set_app_timer(APP_TIMER_ATTRB_CONTROL, 250, megine_check_status);
bfc261a4:	b224      	lw	v0,bfc26234 <mengine_control_block+0x94>
bfc261a6:	6c01      	li	a0,1
bfc261a8:	ea40      	jalr	v0
bfc261aa:	6dfa      	li	a1,250
bfc261ac:	6900      	li	s1,0
bfc261ae:	b323      	lw	v1,bfc26238 <mengine_control_block+0x98>
bfc261b0:	6711      	move	s0,s1
bfc261b2:	c340      	sb	v0,0(v1)
bfc261b4:	100a      	b	bfc261ca <mengine_control_block+0x2a>
bfc261b6:	f100 7100 	cmpi	s1,256
    while(1) {
        //更新共享查询
        me_update_share();

        //查询当前播放状态
        if(g_check_status_flag == TRUE) {
            g_check_status_flag = FALSE;
            if(g_eg_status_p->err_status == EG_ERR_NONE) {
                mengine_status_deal();
            }
            save_bk_info_cnt++;
            if(save_bk_info_cnt >= 20) { //250*20 = 5000ms
                save_bk_info_to_rtc_ram();
                save_bk_info_cnt = 0;
            }
        }

        //获取并处理详细
        if(get_app_msg(&cur_msg_val) == TRUE) {
            mengine_retval = mengine_message_done_bank(&cur_msg_val);
        }

        if(mengine_retval == RESULT_APP_QUIT) {
bfc261ba:	6024      	bteqz	bfc26204 <mengine_control_block+0x64>
bfc261bc:	b326      	lw	v1,bfc26254 <mengine_control_block+0xb4>
            //退出应用关闭处理
            stop(STOP_NORMAL);
            break;
        }

        //挂起g_delay_time * 10ms 多任务交互
        sys_os_time_dly(g_delay_time);
bfc261be:	6d00      	li	a1,0
bfc261c0:	a380      	lbu	a0,0(v1)
bfc261c2:	b226      	lw	v0,bfc26258 <mengine_control_block+0xb8>
bfc261c4:	67c5      	move	a2,a1
bfc261c6:	ea40      	jalr	v0
bfc261c8:	6f31      	li	a3,49
bfc261ca:	b31d      	lw	v1,bfc2623c <mengine_control_block+0x9c>
bfc261cc:	ebc0      	jalrc	v1
bfc261ce:	b31d      	lw	v1,bfc26240 <mengine_control_block+0xa0>
bfc261d0:	a380      	lbu	a0,0(v1)
bfc261d2:	7401      	cmpi	a0,1
bfc261d4:	610b      	btnez	bfc261ec <mengine_control_block+0x4c>
bfc261d6:	b71c      	lw	a3,bfc26244 <mengine_control_block+0xa4>
bfc261d8:	6a00      	li	v0,0
bfc261da:	9fc0      	lw	a2,0(a3)
bfc261dc:	c340      	sb	v0,0(v1)
bfc261de:	a6a3      	lbu	a1,3(a2)
bfc261e0:	2522      	beqz	a1,bfc26226 <mengine_control_block+0x86>
bfc261e2:	4081      	addiu	a0,s0,1
bfc261e4:	6704      	move	s0,a0
bfc261e6:	e811      	zeb	s0
bfc261e8:	5814      	sltiu	s0,20
bfc261ea:	6019      	bteqz	bfc2621e <mengine_control_block+0x7e>
bfc261ec:	b217      	lw	v0,bfc26248 <mengine_control_block+0xa8>
bfc261ee:	ea40      	jalr	v0
bfc261f0:	0404      	addiu	a0,sp,16
bfc261f2:	7201      	cmpi	v0,1
bfc261f4:	61e0      	btnez	bfc261b6 <mengine_control_block+0x16>
bfc261f6:	b116      	lw	s1,bfc2624c <mengine_control_block+0xac>
bfc261f8:	e940      	jalr	s1
bfc261fa:	0404      	addiu	a0,sp,16
bfc261fc:	6722      	move	s1,v0
bfc261fe:	f100 7100 	cmpi	s1,256
bfc26202:	61dc      	btnez	bfc261bc <mengine_control_block+0x1c>
bfc26204:	b013      	lw	s0,bfc26250 <mengine_control_block+0xb0>
bfc26206:	e840      	jalr	s0
bfc26208:	6c00      	li	a0,0
bfc2620a:	b00c      	lw	s0,bfc26238 <mengine_control_block+0x98>
    }

    kill_app_timer(g_status_timer);
bfc2620c:	b214      	lw	v0,bfc2625c <mengine_control_block+0xbc>
bfc2620e:	ea40      	jalr	v0
bfc26210:	8080      	lb	a0,0(s0)
bfc26212:	6d01      	li	a1,1
    g_status_timer = -1;
bfc26214:	edab      	neg	a1
bfc26216:	6751      	move	v0,s1

    return mengine_retval;
}
bfc26218:	c0a0      	sb	a1,0(s0)
bfc2621a:	6476      	restore	48,ra,s0-s1
bfc2621c:	e8a0      	jrc	ra
bfc2621e:	1a1f 9857 	jal	bfc2615c <save_bk_info_to_rtc_ram>
bfc26222:	6800      	li	s0,0
bfc26224:	17e3      	b	bfc261ec <mengine_control_block+0x4c>
bfc26226:	1a1f 9806 	jal	bfc26018 <mengine_status_deal>
bfc2622a:	6500      	nop
bfc2622c:	17da      	b	bfc261e2 <mengine_control_block+0x42>
bfc2622e:	0000      	addiu	s0,sp,0
bfc26230:	6121      	btnez	bfc26274 <mengine_reply_msg+0x14>
bfc26232:	bfc2      	lwu	a2,8(a3)
bfc26234:	6afd      	li	v0,253
bfc26236:	60a2      	bteqz	bfc2617c <save_bk_info_to_rtc_ram+0x20>
bfc26238:	95c4      	lw	a1,784(sp)
bfc2623a:	9fc1      	lw	a2,4(a3)
bfc2623c:	612d      	btnez	bfc26298 <mengine_reply_msg+0x38>
bfc2623e:	bfc2      	lwu	a2,8(a3)
bfc26240:	95e8      	lw	a1,928(sp)
bfc26242:	9fc1      	lw	a2,4(a3)
bfc26244:	95f8      	lw	a1,992(sp)
bfc26246:	9fc1      	lw	a2,4(a3)
bfc26248:	6439      	restore	72,s0-s1
bfc2624a:	bfc2      	lwu	a2,8(a3)
bfc2624c:	6895      	li	s0,149
bfc2624e:	600a      	bteqz	bfc26264 <mengine_reply_msg+0x4>
bfc26250:	6869      	li	s0,105
bfc26252:	6022      	bteqz	bfc26298 <mengine_reply_msg+0x38>
bfc26254:	95e7      	lw	a1,924(sp)
bfc26256:	9fc1      	lw	a2,4(a3)
bfc26258:	6011      	bteqz	bfc2627c <mengine_reply_msg+0x1c>
bfc2625a:	bfc2      	lwu	a2,8(a3)
bfc2625c:	6c0d      	li	a0,13
bfc2625e:	60a2      	bteqz	bfc261a4 <mengine_control_block+0x4>

bfc26260 <mengine_reply_msg>:
bfc26260:	64e3      	save	24,ra,s0

void mengine_reply_msg(void *msg_ptr, bool ret_vals)
{
bfc26262:	ed11      	zeb	a1
bfc26264:	7501      	cmpi	a1,1
    //消息指针
    private_msg_t *data_ptr = (private_msg_t *) msg_ptr;

    if(ret_vals == TRUE) {
bfc26266:	6704      	move	s0,a0
bfc26268:	610d      	btnez	bfc26284 <mengine_reply_msg+0x24>
bfc2626a:	9c63      	lw	v1,12(a0)
        data_ptr->reply->type = MSG_REPLY_SUCCESS;
bfc2626c:	6a01      	li	v0,1
bfc2626e:	c340      	sb	v0,0(v1)
    } else {
        data_ptr->reply->type = MSG_REPLY_FAILED;
bfc26270:	b30c      	lw	v1,bfc262a0 <mengine_reply_msg+0x40>
    }

    me_update_share();
bfc26272:	ebc0      	jalrc	v1
bfc26274:	6d00      	li	a1,0

    //回复同步消息(发送信号量)
    libc_sem_post(data_ptr->sem);
bfc26276:	9882      	lw	a0,8(s0)
bfc26278:	b20b      	lw	v0,bfc262a4 <mengine_reply_msg+0x44>
bfc2627a:	67c5      	move	a2,a1
bfc2627c:	ea40      	jalr	v0
bfc2627e:	6f16      	li	a3,22
bfc26280:	6463      	restore	24,ra,s0
bfc26282:	e8a0      	jrc	ra
bfc26284:	9c63      	lw	v1,12(a0)
bfc26286:	6a02      	li	v0,2
bfc26288:	c340      	sb	v0,0(v1)
bfc2628a:	b306      	lw	v1,bfc262a0 <mengine_reply_msg+0x40>
bfc2628c:	ebc0      	jalrc	v1
bfc2628e:	6d00      	li	a1,0
bfc26290:	9882      	lw	a0,8(s0)
bfc26292:	b205      	lw	v0,bfc262a4 <mengine_reply_msg+0x44>
bfc26294:	67c5      	move	a2,a1
bfc26296:	ea40      	jalr	v0
bfc26298:	6f16      	li	a3,22
bfc2629a:	6463      	restore	24,ra,s0
bfc2629c:	e8a0      	jrc	ra
bfc2629e:	0000      	addiu	s0,sp,0
bfc262a0:	612d      	btnez	bfc262fc <mengine_get_playmode>
bfc262a2:	bfc2      	lwu	a2,8(a3)
bfc262a4:	6009      	bteqz	bfc262b8 <m_decrypt_func+0x10>
bfc262a6:	bfc2      	lwu	a2,8(a3)

bfc262a8 <m_decrypt_func>:
bfc262a8:	6d00      	li	a1,0
}

void m_decrypt_func(void *buf, int offset, int size)
{
    int i;
    uint8 *p = buf;

    for(i = 0; i < size; i++) {
bfc262aa:	edc2      	slt	a1,a2
bfc262ac:	6008      	bteqz	bfc262be <m_decrypt_func+0x16>
bfc262ae:	e4a9      	addu	v0,a0,a1
        p[i] ^= 0x5a;
bfc262b0:	a260      	lbu	v1,0(v0)
bfc262b2:	6f5a      	li	a3,90
bfc262b4:	ebee      	xor	v1,a3
bfc262b6:	c260      	sb	v1,0(v0)
bfc262b8:	45a1      	addiu	a1,a1,1
bfc262ba:	edc2      	slt	a1,a2
bfc262bc:	61f8      	btnez	bfc262ae <m_decrypt_func+0x6>
bfc262be:	e8a0      	jrc	ra

bfc262c0 <mengine_get_filepath>:
bfc262c0:	64f4      	save	32,ra,s0-s1
#include "app_mengine.h"

app_result_e mengine_get_filepath(void *msg_ptr)
{
bfc262c2:	9ce3      	lw	a3,12(a0)
    //uint8 location_size;
    //消息指针
    private_msg_t *data_ptr = (private_msg_t *) msg_ptr;

    //返回路径的指针
    file_path_info_t *locat_info = (file_path_info_t *)(data_ptr->reply->content);
bfc262c4:	b60a      	lw	a2,bfc262ec <mengine_get_filepath+0x2c>

    //是目录模式
    //location_size = sizeof(file_location_t);

    libc_memcpy(&(locat_info->file_path), &(g_eg_cfg_p->location), sizeof(file_location_t));
bfc262c6:	9f01      	lw	s0,4(a3)
bfc262c8:	9ea0      	lw	a1,0(a2)
bfc262ca:	b20a      	lw	v0,bfc262f0 <mengine_get_filepath+0x30>
bfc262cc:	6724      	move	s1,a0
bfc262ce:	6e60      	li	a2,96
bfc262d0:	4084      	addiu	a0,s0,4
bfc262d2:	6f00      	li	a3,0
bfc262d4:	ea40      	jalr	v0
bfc262d6:	45a4      	addiu	a1,a1,4
bfc262d8:	b407      	lw	a0,bfc262f4 <mengine_get_filepath+0x34>

    locat_info->file_source = g_fsel_type; //当前文件模式
bfc262da:	b208      	lw	v0,bfc262f8 <mengine_get_filepath+0x38>

    mengine_reply_msg(msg_ptr, TRUE);
bfc262dc:	a460      	lbu	v1,0(a0)
bfc262de:	6d01      	li	a1,1
bfc262e0:	c060      	sb	v1,0(s0)
bfc262e2:	ea40      	jalr	v0
bfc262e4:	6791      	move	a0,s1
bfc262e6:	6a01      	li	v0,1

    return RESULT_IGNORE;
}
bfc262e8:	6474      	restore	32,ra,s0-s1
bfc262ea:	e8a0      	jrc	ra
bfc262ec:	95ec      	lw	a1,944(sp)
bfc262ee:	9fc1      	lw	a2,4(a3)
bfc262f0:	6009      	bteqz	bfc26304 <mengine_get_playmode+0x8>
bfc262f2:	bfc2      	lwu	a2,8(a3)
bfc262f4:	95df      	lw	a1,892(sp)
bfc262f6:	9fc1      	lw	a2,4(a3)
bfc262f8:	6261      	sw	ra,388(sp)
bfc262fa:	bfc2      	lwu	a2,8(a3)

bfc262fc <mengine_get_playmode>:
bfc262fc:	64c3      	save	24,ra

app_result_e mengine_get_playmode(void *msg_ptr)
{
bfc262fe:	b30d      	lw	v1,bfc26330 <mengine_get_playmode+0x34>
    //消息指针
    private_msg_t *data_ptr = (private_msg_t *) msg_ptr;

    if(g_shuffle_flag == SHUFFLE) {
bfc26300:	a340      	lbu	v0,0(v1)
bfc26302:	7210      	cmpi	v0,16
bfc26304:	610a      	btnez	bfc2631a <mengine_get_playmode+0x1e>
bfc26306:	9ca3      	lw	a1,12(a0)
        *(uint8 *)(data_ptr->reply->content) = FSEL_MODE_RANOM;
bfc26308:	6a03      	li	v0,3
bfc2630a:	9d61      	lw	v1,4(a1)
bfc2630c:	c340      	sb	v0,0(v1)
    } else {
        *(uint8 *)(data_ptr->reply->content) = g_repeat_mode;
bfc2630e:	b20b      	lw	v0,bfc26338 <mengine_get_playmode+0x3c>
    }

    //返回成功
    mengine_reply_msg(msg_ptr, TRUE);
bfc26310:	ea40      	jalr	v0
bfc26312:	6d01      	li	a1,1
bfc26314:	6a01      	li	v0,1

    return RESULT_IGNORE;
}
bfc26316:	6443      	restore	24,ra
bfc26318:	e8a0      	jrc	ra
bfc2631a:	9ce3      	lw	a3,12(a0)
bfc2631c:	b606      	lw	a2,bfc26334 <mengine_get_playmode+0x38>
bfc2631e:	9f61      	lw	v1,4(a3)
bfc26320:	a640      	lbu	v0,0(a2)
bfc26322:	c340      	sb	v0,0(v1)
bfc26324:	b205      	lw	v0,bfc26338 <mengine_get_playmode+0x3c>
bfc26326:	ea40      	jalr	v0
bfc26328:	6d01      	li	a1,1
bfc2632a:	6a01      	li	v0,1
bfc2632c:	6443      	restore	24,ra
bfc2632e:	e8a0      	jrc	ra
bfc26330:	95e1      	lw	a1,900(sp)
bfc26332:	9fc1      	lw	a2,4(a3)
bfc26334:	95e6      	lw	a1,920(sp)
bfc26336:	9fc1      	lw	a2,4(a3)
bfc26338:	6261      	sw	ra,388(sp)
bfc2633a:	bfc2      	lwu	a2,8(a3)

bfc2633c <handle_timers>:
bfc2633c:	f004 64f5 	save	a0,40,ra,s0-s1
bfc26340:	ed11      	zeb	a1
bfc26342:	6c00      	li	a0,0
bfc26344:	b23a      	lw	v0,bfc2642c <handle_timers+0xf0>
bfc26346:	d504      	sw	a1,16(sp)
bfc26348:	6f1c      	li	a3,28
bfc2634a:	67a4      	move	a1,a0
bfc2634c:	ea40      	jalr	v0
bfc2634e:	67c4      	move	a2,a0
bfc26350:	9304      	lw	v1,16(sp)
bfc26352:	67e2      	move	a3,v0
bfc26354:	6a00      	li	v0,0
bfc26356:	d205      	sw	v0,20(sp)
bfc26358:	2366      	beqz	v1,bfc26426 <handle_timers+0xea>
bfc2635a:	9405      	lw	a0,20(sp)
bfc2635c:	930a      	lw	v1,40(sp)
bfc2635e:	3290      	sll	v0,a0,4
bfc26360:	e351      	addu	a0,v1,v0
bfc26362:	a4a0      	lbu	a1,0(a0)
bfc26364:	6e03      	li	a2,3
bfc26366:	edcc      	and	a1,a2
bfc26368:	7501      	cmpi	a1,1
bfc2636a:	6156      	btnez	bfc26418 <handle_timers+0xdc>
bfc2636c:	b631      	lw	a2,bfc26430 <handle_timers+0xf4>
bfc2636e:	a461      	lbu	v1,1(a0)
bfc26370:	a6a0      	lbu	a1,0(a2)
bfc26372:	ed6e      	xor	a1,v1
bfc26374:	2502      	beqz	a1,bfc2637a <handle_timers+0x3e>
bfc26376:	73ff      	cmpi	v1,255
bfc26378:	614f      	btnez	bfc26418 <handle_timers+0xdc>
bfc2637a:	677d      	move	v1,sp
bfc2637c:	a354      	lbu	v0,20(v1)
bfc2637e:	b12e      	lw	s1,bfc26434 <handle_timers+0xf8>
bfc26380:	6860      	li	s0,96
bfc26382:	c140      	sb	v0,0(s1)
bfc26384:	a460      	lbu	v1,0(a0)
bfc26386:	acc2      	lhu	a2,4(a0)
bfc26388:	e86c      	and	s0,v1
bfc2638a:	7020      	cmpi	s0,32
bfc2638c:	653e      	move	t9,a2
bfc2638e:	6101      	btnez	bfc26392 <handle_timers+0x56>
bfc26390:	acc3      	lhu	a2,6(a0)
bfc26392:	9ca2      	lw	a1,8(a0)
bfc26394:	e7c1      	addu	s0,a3,a2
bfc26396:	efa3      	sltu	a3,a1
bfc26398:	6900      	li	s1,0
bfc2639a:	612e      	btnez	bfc263f8 <handle_timers+0xbc>
bfc2639c:	6910      	li	s1,16
bfc2639e:	e96c      	and	s1,v1
bfc263a0:	2104      	beqz	s1,bfc263aa <handle_timers+0x6e>
bfc263a2:	6904      	li	s1,4
bfc263a4:	ea2b      	neg	v0,s1
bfc263a6:	eb4c      	and	v1,v0
bfc263a8:	c460      	sb	v1,0(a0)
bfc263aa:	e7af      	subu	v1,a3,a1
bfc263ac:	67f9      	move	a3,t9
bfc263ae:	ebe3      	sltu	v1,a3
bfc263b0:	6901      	li	s1,1
bfc263b2:	6003      	bteqz	bfc263ba <handle_timers+0x7e>
bfc263b4:	e5c9      	addu	v0,a1,a2
bfc263b6:	dc42      	sw	v0,8(a0)
bfc263b8:	1001      	b	bfc263bc <handle_timers+0x80>
bfc263ba:	dc02      	sw	s0,8(a0)
bfc263bc:	a460      	lbu	v1,0(a0)
bfc263be:	6d20      	li	a1,32
bfc263c0:	ed6c      	and	a1,v1
bfc263c2:	251a      	beqz	a1,bfc263f8 <handle_timers+0xbc>
bfc263c4:	6d40      	li	a1,64
bfc263c6:	67c3      	move	a2,v1
bfc263c8:	eeac      	and	a2,a1
bfc263ca:	2605      	beqz	a2,bfc263d6 <handle_timers+0x9a>
bfc263cc:	6a41      	li	v0,65
bfc263ce:	ef4b      	neg	a3,v0
bfc263d0:	ebec      	and	v1,a3
bfc263d2:	c460      	sb	v1,0(a0)
bfc263d4:	1011      	b	bfc263f8 <handle_timers+0xbc>
bfc263d6:	ebad      	or	v1,a1
bfc263d8:	c460      	sb	v1,0(a0)
bfc263da:	a462      	lbu	v1,2(a0)
bfc263dc:	67a3      	move	a1,v1
bfc263de:	ed11      	zeb	a1
bfc263e0:	75ff      	cmpi	a1,255
bfc263e2:	6002      	bteqz	bfc263e8 <handle_timers+0xac>
bfc263e4:	43cf      	addiu	a2,v1,-1
bfc263e6:	c4c2      	sb	a2,2(a0)
bfc263e8:	a4a2      	lbu	a1,2(a0)
bfc263ea:	2d06      	bnez	a1,bfc263f8 <handle_timers+0xbc>
bfc263ec:	a420      	lbu	s1,0(a0)
bfc263ee:	6f04      	li	a3,4
bfc263f0:	ebeb      	neg	v1,a3
bfc263f2:	e96c      	and	s1,v1
bfc263f4:	c420      	sb	s1,0(a0)
bfc263f6:	6725      	move	s1,a1
bfc263f8:	9c42      	lw	v0,8(a0)
bfc263fa:	ea03      	sltu	v0,s0
bfc263fc:	6101      	btnez	bfc26400 <handle_timers+0xc4>
bfc263fe:	dc02      	sw	s0,8(a0)
bfc26400:	7101      	cmpi	s1,1
bfc26402:	6103      	btnez	bfc2640a <handle_timers+0xce>
bfc26404:	9c43      	lw	v0,12(a0)
bfc26406:	2201      	beqz	v0,bfc2640a <handle_timers+0xce>
bfc26408:	eac0      	jalrc	v0
bfc2640a:	6c00      	li	a0,0
bfc2640c:	b208      	lw	v0,bfc2642c <handle_timers+0xf0>
bfc2640e:	6f1c      	li	a3,28
bfc26410:	67a4      	move	a1,a0
bfc26412:	ea40      	jalr	v0
bfc26414:	67c4      	move	a2,a0
bfc26416:	67e2      	move	a3,v0
bfc26418:	9605      	lw	a2,20(sp)
bfc2641a:	9404      	lw	a0,16(sp)
bfc2641c:	46a1      	addiu	a1,a2,1
bfc2641e:	ed11      	zeb	a1
bfc26420:	ed83      	sltu	a1,a0
bfc26422:	d505      	sw	a1,20(sp)
bfc26424:	619a      	btnez	bfc2635a <handle_timers+0x1e>
bfc26426:	6475      	restore	40,ra,s0-s1
bfc26428:	e8a0      	jrc	ra
bfc2642a:	0000      	addiu	s0,sp,0
bfc2642c:	6011      	bteqz	bfc26450 <get_app_msg+0x18>
bfc2642e:	bfc2      	lwu	a2,8(a3)
bfc26430:	9755      	lw	a3,340(sp)
bfc26432:	9fc1      	lw	a2,4(a3)
bfc26434:	9754      	lw	a3,336(sp)
bfc26436:	9fc1      	lw	a2,4(a3)

bfc26438 <get_app_msg>:
bfc26438:	64e3      	save	24,ra,s0
bfc2643a:	b20b      	lw	v0,bfc26464 <get_app_msg+0x2c>
bfc2643c:	6704      	move	s0,a0
bfc2643e:	a2a0      	lbu	a1,0(v0)
bfc26440:	2504      	beqz	a1,bfc2644a <get_app_msg+0x12>
bfc26442:	b60a      	lw	a2,bfc26468 <get_app_msg+0x30>
bfc26444:	b30a      	lw	v1,bfc2646c <get_app_msg+0x34>
bfc26446:	eb40      	jalr	v1
bfc26448:	9e80      	lw	a0,0(a2)
bfc2644a:	b40a      	lw	a0,bfc26470 <get_app_msg+0x38>
bfc2644c:	b20a      	lw	v0,bfc26474 <get_app_msg+0x3c>
bfc2644e:	9ca0      	lw	a1,0(a0)
bfc26450:	6e00      	li	a2,0
bfc26452:	a583      	lbu	a0,3(a1)
bfc26454:	6f19      	li	a3,25
bfc26456:	ea40      	jalr	v0
bfc26458:	67b0      	move	a1,s0
bfc2645a:	5a01      	sltiu	v0,1
bfc2645c:	6758      	move	v0,t8
bfc2645e:	6463      	restore	24,ra,s0
bfc26460:	e8a0      	jrc	ra
bfc26462:	0000      	addiu	s0,sp,0
bfc26464:	9760      	lw	a3,384(sp)
bfc26466:	9fc1      	lw	a2,4(a3)
bfc26468:	9750      	lw	a3,320(sp)
bfc2646a:	9fc1      	lw	a2,4(a3)
bfc2646c:	633d      	addiu	sp,488
bfc2646e:	bfc2      	lwu	a2,8(a3)
bfc26470:	9758      	lw	a3,352(sp)
bfc26472:	9fc1      	lw	a2,4(a3)
bfc26474:	6011      	bteqz	bfc26498 <get_app_msg+0x60>
bfc26476:	bfc2      	lwu	a2,8(a3)
	...
Disassembly of section BANK_CONTROL_1_0:

60026800 <process_start>:
60026800:	64d4      	save	32,ra,s1
60026802:	0104      	addiu	s1,sp,16
60026804:	d984      	sw	a0,16(s1)
60026806:	9944      	lw	v0,16(s1)
60026808:	6782      	move	a0,v0
6002680a:	6d00      	li	a1,0
6002680c:	b207      	lw	v0,60026828 <BANK_CONTROL_1_ADDR_BASE+0x28>
6002680e:	eac0      	jalrc	v0
60026810:	c140      	sb	v0,0(s1)
60026812:	8140      	lb	v0,0(s1)
60026814:	6782      	move	a0,v0
60026816:	6d00      	li	a1,0
60026818:	6e00      	li	a2,0
6002681a:	6f0e      	li	a3,14
6002681c:	b204      	lw	v0,6002682c <BANK_CONTROL_1_ADDR_BASE+0x2c>
6002681e:	eac0      	jalrc	v0
60026820:	6a00      	li	v0,0
60026822:	65b9      	move	sp,s1
60026824:	6452      	restore	16,ra,s1
60026826:	e8a0      	jrc	ra
60026828:	6ae9      	li	v0,233
6002682a:	6006      	bteqz	60026838 <__start+0x8>
6002682c:	6009      	bteqz	60026840 <__start+0x10>
6002682e:	bfc2      	lwu	a2,8(a3)

60026830 <__start>:
60026830:	64d6      	save	48,ra,s1
60026832:	0104      	addiu	s1,sp,16
60026834:	d988      	sw	a0,32(s1)
60026836:	d9a9      	sw	a1,36(s1)
60026838:	6c00      	li	a0,0
6002683a:	6d00      	li	a1,0
6002683c:	6e00      	li	a2,0
6002683e:	6f10      	li	a3,16
60026840:	b220      	lw	v0,600268c0 <__start+0x90>
60026842:	eac0      	jalrc	v0
60026844:	c150      	sb	v0,16(s1)
60026846:	8170      	lb	v1,16(s1)
60026848:	6a01      	li	v0,1
6002684a:	ea4b      	neg	v0
6002684c:	ea6e      	xor	v0,v1
6002684e:	5a01      	sltiu	v0,1
60026850:	6004      	bteqz	6002685a <__start+0x2a>
60026852:	6a01      	li	v0,1
60026854:	ea4b      	neg	v0
60026856:	d945      	sw	v0,20(s1)
60026858:	102e      	b	600268b6 <__start+0x86>
6002685a:	b21b      	lw	v0,600268c4 <__start+0x94>
6002685c:	d940      	sw	v0,0(s1)
6002685e:	9948      	lw	v0,32(s1)
60026860:	d941      	sw	v0,4(s1)
60026862:	9949      	lw	v0,36(s1)
60026864:	9a41      	lw	v0,4(v0)
60026866:	d942      	sw	v0,8(s1)
60026868:	9949      	lw	v0,36(s1)
6002686a:	aa41      	lhu	v0,2(v0)
6002686c:	c946      	sh	v0,12(s1)
6002686e:	6c00      	li	a0,0
60026870:	6d00      	li	a1,0
60026872:	6e00      	li	a2,0
60026874:	6f33      	li	a3,51
60026876:	b215      	lw	v0,600268c8 <__start+0x98>
60026878:	eac0      	jalrc	v0
6002687a:	9949      	lw	v0,36(s1)
6002687c:	aa40      	lhu	v0,0(v0)
6002687e:	8170      	lb	v1,16(s1)
60026880:	6791      	move	a0,s1
60026882:	67a2      	move	a1,v0
60026884:	67c3      	move	a2,v1
60026886:	6f4a      	li	a3,74
60026888:	b210      	lw	v0,600268c8 <__start+0x98>
6002688a:	eac0      	jalrc	v0
6002688c:	5200      	slti	v0,0
6002688e:	6011      	bteqz	600268b2 <__start+0x82>
60026890:	8150      	lb	v0,16(s1)
60026892:	6782      	move	a0,v0
60026894:	6d00      	li	a1,0
60026896:	6e00      	li	a2,0
60026898:	6f11      	li	a3,17
6002689a:	b20a      	lw	v0,600268c0 <__start+0x90>
6002689c:	eac0      	jalrc	v0
6002689e:	6c00      	li	a0,0
600268a0:	6d00      	li	a1,0
600268a2:	6e00      	li	a2,0
600268a4:	6f34      	li	a3,52
600268a6:	b209      	lw	v0,600268c8 <__start+0x98>
600268a8:	eac0      	jalrc	v0
600268aa:	6a01      	li	v0,1
600268ac:	ea4b      	neg	v0
600268ae:	d945      	sw	v0,20(s1)
600268b0:	1002      	b	600268b6 <__start+0x86>
600268b2:	6a00      	li	v0,0
600268b4:	d945      	sw	v0,20(s1)
600268b6:	9945      	lw	v0,20(s1)
600268b8:	65b9      	move	sp,s1
600268ba:	6454      	restore	32,ra,s1
600268bc:	e8a0      	jrc	ra
600268be:	0000      	addiu	s0,sp,0
600268c0:	6009      	bteqz	600268d4 <__start+0xa4>
600268c2:	bfc2      	lwu	a2,8(a3)
600268c4:	6801      	li	s0,1
600268c6:	6002      	bteqz	600268cc <__start+0x9c>
600268c8:	6011      	bteqz	600268ec <__start+0xbc>
600268ca:	bfc2      	lwu	a2,8(a3)
Disassembly of section BANK_CONTROL_1_1:

60066800 <_load_cfg>:
60066800:	64f5      	save	40,ra,s0-s1
 * \note
 */
/*******************************************************************************/
void _load_cfg(void)
{
60066802:	b13f      	lw	s1,600668fc <_load_cfg+0xfc>
    uint16 vram_magic;

    g_music_replay_by_prev_key = (bool) com_get_config_default(MUSIC_REPLAY_BY_PREV_KEY);
60066804:	b23f      	lw	v0,60066900 <_load_cfg+0x100>
60066806:	ea40      	jalr	v0
60066808:	6cc8      	li	a0,200
6006680a:	a180      	lbu	a0,0(s1)

    if(g_open_disk == DISK_H) {
6006680c:	4107      	addiu	s0,s1,7
6006680e:	7410      	cmpi	a0,16
60066810:	c040      	sb	v0,0(s0)
60066812:	613c      	btnez	6006688c <_load_cfg+0x8c>
60066814:	a161      	lbu	v1,1(s1)
        vram_magic = VRAM_MAGIC(VM_CARD_BKINFO);
        //if ((g_app_info_state.need_update_playlist & CARD_NEED_SCAN) == 0)
        if(g_need_clr_vm == 0) {
60066816:	f5aa 6d14 	li	a1,21940
6006681a:	d504      	sw	a1,16(sp)
6006681c:	233f      	beqz	v1,6006689c <_load_cfg+0x9c>
6006681e:	b03c      	lw	s0,6006690c <_load_cfg+0x10c>
            sys_vm_read(g_eg_cfg_p, VM_CARD_BKINFO, sizeof(mengine_config_t));
        } else {
            _clear_vm_deal(g_open_disk);
        }
    } else {
        vram_magic = VRAM_MAGIC(VM_UHOST_BKINFO);
        //if ((g_app_info_state.need_update_playlist & UHOST_NEED_SCAN) == 0)
        if(g_need_clr_vm == 0) {
            sys_vm_read(g_eg_cfg_p, VM_UHOST_BKINFO, sizeof(mengine_config_t));
        } else {
            _clear_vm_deal(g_open_disk);
60066820:	e8c0      	jalrc	s0
60066822:	b137      	lw	s1,600668fc <_load_cfg+0xfc>
        }
    }
    g_need_clr_vm = 0;
60066824:	6b00      	li	v1,0
60066826:	b03c      	lw	s0,60066914 <_load_cfg+0x114>

    get_bk_info();
60066828:	e840      	jalr	s0
6006682a:	c161      	sb	v1,1(s1)
6006682c:	a160      	lbu	v1,0(s1)
    g_fsel_type = FSEL_TYPE_COMMONDIR;

    if(g_open_disk != DISK_SD) {
6006682e:	4183      	addiu	a0,s1,3
60066830:	6a00      	li	v0,0
60066832:	c440      	sb	v0,0(a0)
60066834:	2302      	beqz	v1,6006683a <_load_cfg+0x3a>
60066836:	99a4      	lw	a1,16(s1)
        //恢复断点
        g_eg_cfg_p->location.dirlocation.disk = g_open_disk;
60066838:	c564      	sb	v1,4(a1)
6006683a:	b032      	lw	s0,60066900 <_load_cfg+0x100>
    }

    g_card_support = (uint8) com_get_config_default(SETTING_APP_SUPPORT_CARDPLAY);
6006683c:	e840      	jalr	s0
6006683e:	6c00      	li	a0,0
60066840:	b738      	lw	a3,60066920 <_load_cfg+0x120>
60066842:	6c01      	li	a0,1
    g_uhost_support = (uint8) com_get_config_default(SETTING_APP_SUPPORT_UHOSTPLAY);
60066844:	e840      	jalr	s0
60066846:	c740      	sb	v0,0(a3)
60066848:	9984      	lw	a0,16(s1)

    if((g_eg_cfg_p->magic != vram_magic) && (g_open_disk != DISK_SD)) {
6006684a:	c148      	sb	v0,8(s1)
6006684c:	acc0      	lhu	a2,0(a0)
6006684e:	9304      	lw	v1,16(sp)
60066850:	ee6e      	xor	a2,v1
60066852:	2602      	beqz	a2,60066858 <_load_cfg+0x58>
60066854:	a140      	lbu	v0,0(s1)
60066856:	2a36      	bnez	v0,600668c4 <_load_cfg+0xc4>
60066858:	b029      	lw	s0,600668fc <_load_cfg+0xfc>
        g_eg_cfg_p->magic = vram_magic;
        //文件循环模式
        g_repeat_mode = FSEL_MODE_LOOPALL;
        //shuffle flag
        g_shuffle_flag = SHUFFLE_NONE;

        //(记录当前文件的路径信息/列表文件的层级关系)
        libc_memset(&g_eg_cfg_p->location.dirlocation, 0, sizeof(musfile_location_u));
        //续播默认为udisks
        g_eg_cfg_p->location.dirlocation.disk = g_open_disk;
        //断点信息
        libc_memset(&g_eg_cfg_p->bk_infor, 0, sizeof(mmm_mp_bp_info_t));
        mengine_vram_write(g_open_disk);
    }

    if(g_mengine_enter_mode == ENTER_ALARM) {
6006685a:	a062      	lbu	v1,2(s0)
6006685c:	7302      	cmpi	v1,2
6006685e:	6125      	btnez	600668aa <_load_cfg+0xaa>
60066860:	a080      	lbu	a0,0(s0)
        if(g_open_disk == DISK_SD) {
60066862:	2c02      	bnez	a0,60066868 <_load_cfg+0x68>
60066864:	6d02      	li	a1,2
            g_fsel_type = FSEL_TYPE_SDFILE;
60066866:	c0a3      	sb	a1,3(s0)
60066868:	9864      	lw	v1,16(s0)
        }
        //(记录当前文件的路径信息/列表文件的层级关系)
        libc_memset(&g_eg_cfg_p->location.dirlocation, 0, sizeof(musfile_location_u));
6006686a:	b22c      	lw	v0,60066918 <_load_cfg+0x118>
6006686c:	4384      	addiu	a0,v1,4
6006686e:	6d00      	li	a1,0
60066870:	6e98      	li	a2,152
60066872:	ea40      	jalr	v0
60066874:	6f01      	li	a3,1
60066876:	98c4      	lw	a2,16(s0)
        g_eg_cfg_p->location.dirlocation.disk = (uint8) g_open_disk;
60066878:	a0e0      	lbu	a3,0(s0)
6006687a:	b222      	lw	v0,60066900 <_load_cfg+0x100>
    } else {
        //检测文件有效性
        //需要主动获取文件信息
        g_eg_playinfo_p->cur_file_switch |= 0x01;
    }

    g_output_channel_config = (uint8)com_get_config_default(OUTPUT_CHANNEL_CONFIG);
6006687c:	c6e4      	sb	a3,4(a2)
6006687e:	f1a0 6c07 	li	a0,423
60066882:	ea40      	jalr	v0
60066884:	4006      	addiu	s0,s0,6
60066886:	c040      	sb	v0,0(s0)
60066888:	6475      	restore	40,ra,s0-s1
6006688a:	e8a0      	jrc	ra
6006688c:	a1c1      	lbu	a2,1(s1)
6006688e:	f5aa 6f13 	li	a3,21939
60066892:	d704      	sw	a3,16(sp)
60066894:	2ec4      	bnez	a2,6006681e <_load_cfg+0x1e>
60066896:	9984      	lw	a0,16(s1)
60066898:	b51e      	lw	a1,60066910 <_load_cfg+0x110>
6006689a:	1002      	b	600668a0 <_load_cfg+0xa0>
6006689c:	9984      	lw	a0,16(s1)
6006689e:	b51a      	lw	a1,60066904 <_load_cfg+0x104>
600668a0:	b11a      	lw	s1,60066908 <_load_cfg+0x108>
600668a2:	6ee8      	li	a2,232
600668a4:	e940      	jalr	s1
600668a6:	6f12      	li	a3,18
600668a8:	17bc      	b	60066822 <_load_cfg+0x22>
600668aa:	98a6      	lw	a1,24(s0)
600668ac:	6c01      	li	a0,1
600668ae:	a5c9      	lbu	a2,9(a1)
600668b0:	b214      	lw	v0,60066900 <_load_cfg+0x100>
600668b2:	ee8d      	or	a2,a0
600668b4:	c5c9      	sb	a2,9(a1)
600668b6:	f1a0 6c07 	li	a0,423
600668ba:	ea40      	jalr	v0
600668bc:	4006      	addiu	s0,s0,6
600668be:	c040      	sb	v0,0(s0)
600668c0:	6475      	restore	40,ra,s0-s1
600668c2:	e8a0      	jrc	ra
600668c4:	6751      	move	v0,s1
600668c6:	6f00      	li	a3,0
600668c8:	41c5      	addiu	a2,s1,5
600668ca:	b014      	lw	s0,60066918 <_load_cfg+0x118>
600668cc:	4a0a      	addiu	v0,10
600668ce:	cc60      	sh	v1,0(a0)
600668d0:	c2e0      	sb	a3,0(v0)
600668d2:	c6e0      	sb	a3,0(a2)
600668d4:	4484      	addiu	a0,a0,4
600668d6:	6d00      	li	a1,0
600668d8:	6e98      	li	a2,152
600668da:	e840      	jalr	s0
600668dc:	6f01      	li	a3,1
600668de:	9984      	lw	a0,16(s1)
600668e0:	a1a0      	lbu	a1,0(s1)
600668e2:	6e0c      	li	a2,12
600668e4:	c4a4      	sb	a1,4(a0)
600668e6:	9984      	lw	a0,16(s1)
600668e8:	6d00      	li	a1,0
600668ea:	4c7f      	addiu	a0,127
600668ec:	4c1d      	addiu	a0,29
600668ee:	e840      	jalr	s0
600668f0:	6f01      	li	a3,1
600668f2:	b30b      	lw	v1,6006691c <_load_cfg+0x11c>
600668f4:	eb40      	jalr	v1
600668f6:	a180      	lbu	a0,0(s1)
600668f8:	17af      	b	60066858 <_load_cfg+0x58>
600668fa:	0000      	addiu	s0,sp,0
600668fc:	95dc      	lw	a1,880(sp)
600668fe:	9fc1      	lw	a2,4(a3)
60066900:	68bd      	li	s0,189
60066902:	60a6      	bteqz	60066850 <_load_cfg+0x50>
60066904:	0000      	addiu	s0,sp,0
60066906:	000a      	addiu	s0,sp,40
60066908:	6011      	bteqz	6006692c <_save_cfg+0x8>
6006690a:	bfc2      	lwu	a2,8(a3)
6006690c:	6e45      	li	a2,69
6006690e:	600e      	bteqz	6006692c <_save_cfg+0x8>
60066910:	0000      	addiu	s0,sp,0
60066912:	0009      	addiu	s0,sp,36
60066914:	6989      	li	s1,137
60066916:	601a      	bteqz	6006694c <_save_cfg+0x28>
60066918:	6009      	bteqz	6006692c <_save_cfg+0x8>
6006691a:	bfc2      	lwu	a2,8(a3)
6006691c:	6801      	li	s0,1
6006691e:	600e      	bteqz	6006693c <_save_cfg+0x18>
60066920:	95e5      	lw	a1,916(sp)
60066922:	9fc1      	lw	a2,4(a3)

60066924 <_save_cfg>:
60066924:	64c3      	save	24,ra
}

//保存配置信息
void _save_cfg(void)
{
60066926:	b309      	lw	v1,60066948 <_save_cfg+0x24>
    /*保存VM变量*/
    //当前播放的是music歌曲
    if((g_fsel_type < FSEL_TYPE_SDFILE) && (g_mengine_enter_mode != ENTER_RECOD_PLAY) && (g_mengine_enter_mode
60066928:	a343      	lbu	v0,3(v1)
6006692a:	5a02      	sltiu	v0,2
6006692c:	6005      	bteqz	60066938 <_save_cfg+0x14>
6006692e:	a342      	lbu	v0,2(v1)
60066930:	7201      	cmpi	v0,1
60066932:	6002      	bteqz	60066938 <_save_cfg+0x14>
60066934:	7202      	cmpi	v0,2
60066936:	6102      	btnez	6006693c <_save_cfg+0x18>
60066938:	6443      	restore	24,ra
            != ENTER_ALARM)) {
        //只有music播放时才保存vram
        mengine_vram_write(g_eg_cfg_p->location.dirlocation.disk);
    }
}
6006693a:	e8a0      	jrc	ra
6006693c:	9ba4      	lw	a1,16(v1)
6006693e:	b304      	lw	v1,6006694c <_save_cfg+0x28>
60066940:	eb40      	jalr	v1
60066942:	a584      	lbu	a0,4(a1)
60066944:	6443      	restore	24,ra
60066946:	e8a0      	jrc	ra
60066948:	95dc      	lw	a1,880(sp)
6006694a:	9fc1      	lw	a2,4(a3)
6006694c:	6801      	li	s0,1
6006694e:	600e      	bteqz	6006696c <_app_init+0x1c>

60066950 <_app_init>:
60066950:	64f4      	save	32,ra,s0-s1

#ifdef WAVES_ASET_TOOLS
void waves_init(void)
{
    if(STUB_PC_TOOL_WAVES_ASET_MODE == g_app_info_state_all.stub_pc_tools_type) {
        g_waves.tuning_status = TUNING;
    } else if(STUB_PC_TOOL_UNKOWN == g_app_info_state_all.stub_pc_tools_type) {
        g_waves.tuning_status = NO_TUNING;
    }
    g_waves.bin_number = g_app_info_state_all.bin_number;
    g_waves.input_para_enable = (uint8) com_get_config_default(SETTING_APP_SUPPORT_WAVES_INPUT_PARAM);
}
#endif

//初始化引擎、读取配置信息、初始化文件选择器、中间件
int _app_init(void)
{
60066952:	b03b      	lw	s0,60066a3c <_app_init+0xec>
    int app_init_ret = 0;
    bool init_fsel_ret;
    char *mmm_name =
    { "mmm_mp.al" };

    //初始化applib库，后台AP
    applib_init(APP_ID_MENGINE, APP_TYPE_CONSOLE);
60066954:	6c0e      	li	a0,14
60066956:	e840      	jalr	s0
60066958:	6d02      	li	a1,2
6006695a:	6900      	li	s1,0
6006695c:	b039      	lw	s0,60066a40 <_app_init+0xf0>

    //升频
    adjust_freq_set_level(AP_BACK_LOW_PRIO, FREQ_LEVEL10, FREQ_NULL);
6006695e:	67d1      	move	a2,s1
60066960:	6f03      	li	a3,3
60066962:	6c06      	li	a0,6
60066964:	e840      	jalr	s0
60066966:	6d0a      	li	a1,10
60066968:	1820 9a00 	jal	60066800 <_load_cfg>

    //读取配置信息 (包括vm信息)
    _load_cfg();
6006696c:	6500      	nop
6006696e:	b236      	lw	v0,60066a44 <_app_init+0xf4>

    //初始化 applib 消息模块
    applib_message_init();
60066970:	eac0      	jalrc	v0
60066972:	b436      	lw	a0,60066a48 <_app_init+0xf8>

    //初始化软定时器
    init_app_timers(mengine_app_timer_vector, APP_TIMER_COUNT);
60066974:	b236      	lw	v0,60066a4c <_app_init+0xfc>
60066976:	4c54      	addiu	a0,84
60066978:	ea40      	jalr	v0
6006697a:	6d03      	li	a1,3
6006697c:	6c06      	li	a0,6

    adjust_freq_set_level(AP_BACK_LOW_PRIO, FREQ_LEVEL6, FREQ_NULL);
6006697e:	67a4      	move	a1,a0
60066980:	67d1      	move	a2,s1
60066982:	e840      	jalr	s0
60066984:	6f03      	li	a3,3
60066986:	b333      	lw	v1,60066a50 <_app_init+0x100>

    //加载中间件驱动
    sys_load_mmm(mmm_name, TRUE);
60066988:	67d1      	move	a2,s1
6006698a:	0c2a      	la	a0,60066a30 <_app_init+0xe0>
6006698c:	6d01      	li	a1,1
6006698e:	eb40      	jalr	v1
60066990:	6f02      	li	a3,2
60066992:	b436      	lw	a0,60066a68 <_app_init+0x118>

    //初始化中间件库
    app_init_ret = mmm_mp_cmd(&g_mp_handle, MMM_MP_OPEN, (unsigned int) NULL);
60066994:	b030      	lw	s0,60066a54 <_app_init+0x104>
60066996:	67b1      	move	a1,s1
60066998:	e840      	jalr	s0
6006699a:	67d1      	move	a2,s1
6006699c:	6722      	move	s1,v0
6006699e:	2a25      	bnez	v0,600669ea <_app_init+0x9a>

    if(app_init_ret == 0) {
600669a0:	b52e      	lw	a1,60066a58 <_app_init+0x108>
        if(1 == g_app_info_state_all.fix_sample_rate_flag) {
600669a2:	a588      	lbu	a0,8(a1)
600669a4:	7401      	cmpi	a0,1
600669a6:	6034      	bteqz	60066a10 <_app_init+0xc0>
600669a8:	b528      	lw	a1,60066a48 <_app_init+0xf8>
            mmm_mp_cmd(&g_mp_handle, MMM_MP_FIX_SAMPLE_RATE, NULL);
        }
        g_mmm_opened = TRUE;
600669aa:	6e01      	li	a2,1
600669ac:	b22c      	lw	v0,60066a5c <_app_init+0x10c>
        com_set_sound_out(SOUND_OUT_START);
600669ae:	c5c4      	sb	a2,4(a1)
600669b0:	ea40      	jalr	v0
600669b2:	6c01      	li	a0,1
600669b4:	b425      	lw	a0,60066a48 <_app_init+0xf8>

        //for front ap check if eg init ok
        g_eg_status_p->ctl_status = EG_CTL_INITING;
600669b6:	b22b      	lw	v0,60066a60 <_app_init+0x110>
        //update status
        me_update_share();
600669b8:	9c07      	lw	s0,28(a0)
600669ba:	ea40      	jalr	v0
600669bc:	c024      	sb	s1,4(s0)
600669be:	b325      	lw	v1,60066a50 <_app_init+0x100>

        sys_os_time_dly(2); //让前台处理一下用户交互
600669c0:	67d1      	move	a2,s1
600669c2:	6f31      	li	a3,49
600669c4:	6c02      	li	a0,2
600669c6:	eb40      	jalr	v1
600669c8:	67b1      	move	a1,s1
600669ca:	b720      	lw	a3,60066a48 <_app_init+0xf8>

        if(g_fsel_type != FSEL_TYPE_SDFILE) {
600669cc:	a7c3      	lbu	a2,3(a3)
600669ce:	7602      	cmpi	a2,2
600669d0:	6124      	btnez	60066a1a <_app_init+0xca>
600669d2:	b41e      	lw	a0,60066a48 <_app_init+0xf8>
            //初始化文件获取可播放文件/断点
            init_fsel_ret = mengine_file_init();
            if(init_fsel_ret == FALSE) {
                g_eg_playinfo_p->cur_file_switch &= (uint8) 0xfe;
            }
        } else {
            init_fsel_ret = TRUE;
        }

        g_eg_status_p->ctl_status = EG_CTL_NORMAL;
600669d4:	6f01      	li	a3,1
600669d6:	9cc7      	lw	a2,28(a0)
600669d8:	b322      	lw	v1,60066a60 <_app_init+0x110>
        //update status
        me_update_share();
600669da:	eb40      	jalr	v1
600669dc:	c6e4      	sb	a3,4(a2)
600669de:	6d00      	li	a1,0

        sys_os_time_dly(2); //让前台处理一下用户交互
600669e0:	b01c      	lw	s0,60066a50 <_app_init+0x100>
600669e2:	6c02      	li	a0,2
600669e4:	67c5      	move	a2,a1
600669e6:	e840      	jalr	s0
600669e8:	6f31      	li	a3,49
600669ea:	b018      	lw	s0,60066a48 <_app_init+0xf8>
    }

    g_delay_time = 2;
600669ec:	6f02      	li	a3,2
600669ee:	6e01      	li	a2,1
    //第一次进入立即查询状态，以更新mengine内容
    g_check_status_flag = TRUE;
600669f0:	b214      	lw	v0,60066a40 <_app_init+0xf0>

    //降频
    adjust_freq_set_level(AP_BACK_LOW_PRIO, FREQ_LEVEL2, FREQ_NULL);
600669f2:	c0eb      	sb	a3,11(s0)
600669f4:	c0cc      	sb	a2,12(s0)
600669f6:	6c06      	li	a0,6
600669f8:	6d02      	li	a1,2
600669fa:	6e00      	li	a2,0
600669fc:	ea40      	jalr	v0
600669fe:	6f03      	li	a3,3
60066a00:	9864      	lw	v1,16(s0)
    g_eg_playinfo_p->cur_time = (uint32)g_eg_cfg_p->bk_infor.bp_time_offset;
60066a02:	98a6      	lw	a1,24(s0)
60066a04:	4b7c      	addiu	v1,124
60066a06:	9b48      	lw	v0,32(v1)
60066a08:	dd40      	sw	v0,0(a1)
60066a0a:	6751      	move	v0,s1

#ifdef WAVES_ASET_TOOLS
    waves_init();
#endif

    return app_init_ret;
}
60066a0c:	6474      	restore	32,ra,s0-s1
60066a0e:	e8a0      	jrc	ra
60066a10:	b416      	lw	a0,60066a64 <_app_init+0x114>
60066a12:	6d2b      	li	a1,43
60066a14:	e840      	jalr	s0
60066a16:	67c2      	move	a2,v0
60066a18:	17c7      	b	600669a8 <_app_init+0x58>
60066a1a:	b013      	lw	s0,60066a64 <_app_init+0x114>
60066a1c:	e8c0      	jalrc	s0
60066a1e:	2ad9      	bnez	v0,600669d2 <_app_init+0x82>
60066a20:	b50a      	lw	a1,60066a48 <_app_init+0xf8>
60066a22:	6a02      	li	v0,2
60066a24:	9de6      	lw	a3,24(a1)
60066a26:	ec4b      	neg	a0,v0
60066a28:	a769      	lbu	v1,9(a3)
60066a2a:	eb8c      	and	v1,a0
60066a2c:	c769      	sb	v1,9(a3)
60066a2e:	17d1      	b	600669d2 <_app_init+0x82>
60066a30:	6d6d      	li	a1,109
60066a32:	5f6d      	sltiu	a3,109
60066a34:	706d      	cmpi	s0,109
60066a36:	612e      	btnez	60066a94 <_app_deinit+0x28>
60066a38:	006c      	addiu	s0,sp,432
60066a3a:	0000      	addiu	s0,sp,0
60066a3c:	6861      	li	s0,97
60066a3e:	60a2      	bteqz	60066984 <_app_init+0x34>
60066a40:	6005      	bteqz	60066a4c <_app_init+0xfc>
60066a42:	bfc2      	lwu	a2,8(a3)
60066a44:	6cc9      	li	a0,201
60066a46:	60a2      	bteqz	6006698c <_app_init+0x3c>
60066a48:	95dc      	lw	a1,880(sp)
60066a4a:	9fc1      	lw	a2,4(a3)
60066a4c:	6c41      	li	a0,65
60066a4e:	60a2      	bteqz	60066994 <_app_init+0x44>
60066a50:	6011      	bteqz	60066a74 <_app_deinit+0x8>
60066a52:	bfc2      	lwu	a2,8(a3)
60066a54:	600d      	bteqz	60066a70 <_app_deinit+0x4>
60066a56:	bfc2      	lwu	a2,8(a3)
60066a58:	a094      	lbu	a0,20(s0)
60066a5a:	9fc1      	lw	a2,4(a3)
60066a5c:	691d      	li	s1,29
60066a5e:	60a6      	bteqz	600669ac <_app_init+0x5c>
60066a60:	612d      	btnez	60066abc <_app_deinit+0x50>
60066a62:	bfc2      	lwu	a2,8(a3)
60066a64:	6801      	li	s0,1
60066a66:	601e      	bteqz	60066aa4 <_app_deinit+0x38>
60066a68:	95fc      	lw	a1,1008(sp)
60066a6a:	9fc1      	lw	a2,4(a3)

60066a6c <_app_deinit>:
60066a6c:	64f4      	save	32,ra,s0-s1

//退出app的功能函数,保存配置信息
bool _app_deinit(void)
{
60066a6e:	b118      	lw	s1,60066acc <_app_deinit+0x60>
    //升频
    adjust_freq_set_level(AP_BACK_LOW_PRIO, FREQ_LEVEL10, FREQ_NULL);
60066a70:	6c06      	li	a0,6
60066a72:	6d0a      	li	a1,10
60066a74:	6e00      	li	a2,0
60066a76:	e940      	jalr	s1
60066a78:	6f03      	li	a3,3
60066a7a:	b016      	lw	s0,60066ad0 <_app_deinit+0x64>

    //关闭文件选择器
    fsel_exit();
60066a7c:	e8c0      	jalrc	s0
60066a7e:	b016      	lw	s0,60066ad4 <_app_deinit+0x68>

    //关闭声音设备
    //mmm_mp_cmd(g_mp_handle, MMM_MP_AOUT_CLOSE, (unsigned int) NULL);
    //关闭中间件设备
    if(g_mmm_opened == TRUE) {
60066a80:	a044      	lbu	v0,4(s0)
60066a82:	7201      	cmpi	v0,1
60066a84:	601b      	bteqz	60066abc <_app_deinit+0x50>
60066a86:	b216      	lw	v0,60066adc <_app_deinit+0x70>
        mmm_mp_cmd(g_mp_handle, MMM_MP_CLOSE, (unsigned int) NULL);
        g_mmm_opened = FALSE;
    }

    com_set_sound_out(SOUND_OUT_STOP);
60066a88:	ea40      	jalr	v0
60066a8a:	6c00      	li	a0,0
60066a8c:	1820 9a49 	jal	60066924 <_save_cfg>

    //save config 写vram
    _save_cfg();
60066a90:	6500      	nop
60066a92:	6c03      	li	a0,3

    adjust_freq_set_level(AP_BACK_HIGH_PRIO, FREQ_NULL, FREQ_NULL);
60066a94:	6d00      	li	a1,0
60066a96:	67c5      	move	a2,a1
60066a98:	e940      	jalr	s1
60066a9a:	67e4      	move	a3,a0
60066a9c:	6d00      	li	a1,0
    //卸载解码驱动
    sys_free_mmm(TRUE);
60066a9e:	b211      	lw	v0,60066ae0 <_app_deinit+0x74>
60066aa0:	67c5      	move	a2,a1
60066aa2:	6c01      	li	a0,1
60066aa4:	ea40      	jalr	v0
60066aa6:	6f06      	li	a3,6
60066aa8:	6c06      	li	a0,6

    //降频
    adjust_freq_set_level(AP_BACK_LOW_PRIO, FREQ_LEVEL2, FREQ_NULL);
60066aaa:	6d02      	li	a1,2
60066aac:	6e00      	li	a2,0
60066aae:	e940      	jalr	s1
60066ab0:	6f03      	li	a3,3
60066ab2:	b20d      	lw	v0,60066ae4 <_app_deinit+0x78>

    //执行applib库的注销操作
    applib_quit();
60066ab4:	eac0      	jalrc	v0
60066ab6:	6a01      	li	v0,1
    return TRUE;
}
60066ab8:	6474      	restore	32,ra,s0-s1
60066aba:	e8a0      	jrc	ra
60066abc:	9888      	lw	a0,32(s0)
60066abe:	b207      	lw	v0,60066ad8 <_app_deinit+0x6c>
60066ac0:	6d01      	li	a1,1
60066ac2:	ea40      	jalr	v0
60066ac4:	6e00      	li	a2,0
60066ac6:	6b00      	li	v1,0
60066ac8:	c064      	sb	v1,4(s0)
60066aca:	17dd      	b	60066a86 <_app_deinit+0x1a>
60066acc:	6005      	bteqz	60066ad8 <_app_deinit+0x6c>
60066ace:	bfc2      	lwu	a2,8(a3)
60066ad0:	1f75 7a02 	jalx	6aede808 <i2s_mfp_cfg+0xa437e00>
60066ad4:	95dc      	lw	a1,880(sp)
60066ad6:	9fc1      	lw	a2,4(a3)
60066ad8:	600d      	bteqz	60066af4 <main+0xc>
60066ada:	bfc2      	lwu	a2,8(a3)
60066adc:	691d      	li	s1,29
60066ade:	60a6      	bteqz	60066a2c <_app_init+0xdc>
60066ae0:	6011      	bteqz	60066b04 <main+0x1c>
60066ae2:	bfc2      	lwu	a2,8(a3)
60066ae4:	6951      	li	s1,81
60066ae6:	60a2      	bteqz	60066a2c <_app_init+0xdc>

60066ae8 <main>:
60066ae8:	64f4      	save	32,ra,s0-s1

//argc虽然是int型，但只有低8位有用(因为ap_switch_info_t.param是8位的)
//argv是没有用的(也是因为ap_switch_info_t的原因)
/*argc(低8位有效)参数的含义:
***********第0位和第1位表示播放模式*****************
*00  普通文件
*01  录音文件
*10  闹铃
*11  还没用
************第2、3、4位为扩展位*********************

************第5位和第6位表示存储介质****************
*00  还没用
*01  卡
*10  U盘
*11  还没用
************第7位表示断点***************************
*0   表示不需要断点信息
*1   表示需要断点信息
*/
int main(int argc, const char *argv[])
{
60066aea:	b04a      	lw	s0,60066c10 <main+0x128>
    g_mengine_enter_mode = (mengine_enter_mode_e)(argc & 0x1f);
60066aec:	6b1f      	li	v1,31
60066aee:	eb8c      	and	v1,a0
60066af0:	40a2      	addiu	a1,s0,2
60066af2:	c560      	sb	v1,0(a1)
60066af4:	6744      	move	v0,a0

    //保持前后台的盘符一致
    //g_open_disk = (uint8) (argc & 0x60);
    if((argc & 0x20) == ENTER_MUSIC_DISK_H) {
60066af6:	6b20      	li	v1,32
60066af8:	ea6c      	and	v0,v1
60066afa:	222e      	beqz	v0,60066b58 <main+0x70>
60066afc:	6a10      	li	v0,16
        g_open_disk = DISK_H;
60066afe:	c040      	sb	v0,0(s0)
    } else if((argc & 0x40) == ENTER_MUSIC_DISK_U) {
        g_open_disk = DISK_U;
    } else {
        g_open_disk = DISK_SD;
60066b00:	6e80      	li	a2,128
    }

    //当且仅当argc的第7位为1，并且引擎进入的模式不为闹铃时才清除断点信息
    if(((argc & MUSIC_NEED_BK) == 0) && (g_mengine_enter_mode != ENTER_ALARM)) {
60066b02:	ee8c      	and	a2,a0
60066b04:	2e18      	bnez	a2,60066b36 <main+0x4e>
60066b06:	a580      	lbu	a0,0(a1)
60066b08:	6a01      	li	v0,1
        g_need_clr_vm = 1;
60066b0a:	7402      	cmpi	a0,2
60066b0c:	6014      	bteqz	60066b36 <main+0x4e>
60066b0e:	40a7      	addiu	a1,s0,7
    } else {
        g_need_clr_vm = 0;
    }

    //全局变量指针
    g_eg_cfg_p = &g_eg_config;
60066b10:	4d7d      	addiu	a1,125
60066b12:	d8a4      	sw	a1,16(s0)
60066b14:	67b0      	move	a1,s0

    g_mengine_info_p = &g_mengine_info[0]; //应用加载时初始化为0，不用再初始化了
60066b16:	4d2c      	addiu	a1,44
60066b18:	b13f      	lw	s1,60066c14 <main+0x12c>

    //创建共享查询，这时必须保证前台来获取状态时是可用的
    g_mengine_info_p = sys_share_query_creat(APP_ID_MENGINE, g_mengine_info_p, sizeof(mengine_info_t));
60066b1a:	c041      	sb	v0,1(s0)
60066b1c:	d8a5      	sw	a1,20(s0)
60066b1e:	6c0e      	li	a0,14
60066b20:	6e14      	li	a2,20
60066b22:	e940      	jalr	s1
60066b24:	6f43      	li	a3,67
60066b26:	d845      	sw	v0,20(s0)
60066b28:	2a08      	bnez	v0,60066b3a <main+0x52>
    if(g_mengine_info_p == NULL) {
60066b2a:	0c20      	la	a0,60066ba8 <main+0xc0>
        PRINT_ERR("music share query create fail!\n");
60066b2c:	67a2      	move	a1,v0
60066b2e:	67c2      	move	a2,v0
60066b30:	e940      	jalr	s1
60066b32:	6f4b      	li	a3,75
60066b34:	17ff      	b	60066b34 <main+0x4c>
60066b36:	6a00      	li	v0,0
60066b38:	17ea      	b	60066b0e <main+0x26>
60066b3a:	6d00      	li	a1,0
        while(1) {
            ; //QAC
        }
    }

    //get for dae freqency
    //更新DAE配置参数到共享内存
    g_dae_cfg_shm = (dae_config_t *) sys_shm_mount(SHARE_MEM_ID_DAECFG);
60066b3c:	b036      	lw	s0,60066c14 <main+0x12c>
60066b3e:	67c5      	move	a2,a1
60066b40:	6f49      	li	a3,73
60066b42:	e840      	jalr	s0
60066b44:	6c03      	li	a0,3
60066b46:	b733      	lw	a3,60066c10 <main+0x128>
60066b48:	67c2      	move	a2,v0
60066b4a:	df49      	sw	v0,36(a3)
60066b4c:	2a0a      	bnez	v0,60066b62 <main+0x7a>
    if(g_dae_cfg_shm == NULL) {
60066b4e:	0c20      	la	a0,60066bcc <main+0xe4>
        PRINT_ERR("dae_cfg shm not exist!!");
60066b50:	67a2      	move	a1,v0
60066b52:	e840      	jalr	s0
60066b54:	6f4b      	li	a3,75
60066b56:	17ff      	b	60066b56 <main+0x6e>
60066b58:	6a40      	li	v0,64
60066b5a:	ea8c      	and	v0,a0
60066b5c:	22d0      	beqz	v0,60066afe <main+0x16>
60066b5e:	c060      	sb	v1,0(s0)
60066b60:	17cf      	b	60066b00 <main+0x18>
60066b62:	b02c      	lw	s0,60066c10 <main+0x128>
        while(1) {
            ; //nothing for QAC
        }
    }

    g_eg_status_p = &(g_mengine_info_p->eg_status);
60066b64:	98c5      	lw	a2,20(s0)
60066b66:	d8c7      	sw	a2,28(s0)
60066b68:	4e08      	addiu	a2,8
    g_eg_playinfo_p = &(g_mengine_info_p->eg_playinfo);
60066b6a:	1820 9a54 	jal	60066950 <_app_init>
    //初始化
    _app_init();
60066b6e:	d8c6      	sw	a2,24(s0)
60066b70:	b32a      	lw	v1,60066c18 <main+0x130>
    set_esd_restart_tag();
60066b72:	ebc0      	jalrc	v1
60066b74:	b22a      	lw	v0,60066c18 <main+0x130>
    //循环
    g_mengine_result = mengine_control_block(); //app功能处理
60066b76:	eac0      	jalrc	v0
60066b78:	1820 9a9b 	jal	60066a6c <_app_deinit>

    //退出
    _app_deinit();
60066b7c:	c847      	sh	v0,14(s0)
60066b7e:	6d00      	li	a1,0

    //销毁共享查询
    if(sys_share_query_destroy(APP_ID_MENGINE) == -1) {
60066b80:	b025      	lw	s0,60066c14 <main+0x12c>
60066b82:	6c0e      	li	a0,14
60066b84:	67c5      	move	a2,a1
60066b86:	e840      	jalr	s0
60066b88:	6f44      	li	a3,68
60066b8a:	ea4f      	not	v0
60066b8c:	2a06      	bnez	v0,60066b9a <main+0xb2>
60066b8e:	6d00      	li	a1,0
        PRINT_ERR("music share query destroy fail!\n");
60066b90:	0c16      	la	a0,60066be8 <main+0x100>
60066b92:	67c5      	move	a2,a1
60066b94:	e840      	jalr	s0
60066b96:	6f4b      	li	a3,75
60066b98:	17ff      	b	60066b98 <main+0xb0>
60066b9a:	b222      	lw	v0,60066c20 <main+0x138>
        while(1) {
            ; //QAC
        }
    }
    clear_esd_restart_tag();
60066b9c:	eac0      	jalrc	v0
60066b9e:	b41d      	lw	a0,60066c10 <main+0x128>
    return g_mengine_result;
60066ba0:	ac47      	lhu	v0,14(a0)
}
60066ba2:	6474      	restore	32,ra,s0-s1
60066ba4:	e8a0      	jrc	ra
60066ba6:	0000      	addiu	s0,sp,0
60066ba8:	453c      	daddiu	s1,a1,-4
60066baa:	203e      	beqz	s0,60066c28 <com_load_share_data+0x4>
60066bac:	756d      	cmpi	a1,109
60066bae:	6973      	li	s1,115
60066bb0:	2063      	beqz	s0,60066c78 <com_load_share_data+0x54>
60066bb2:	6873      	li	s0,115
60066bb4:	7261      	cmpi	v0,97
60066bb6:	2065      	beqz	s0,60066c82 <com_load_share_data+0x5e>
60066bb8:	7571      	cmpi	a1,113
60066bba:	7265      	cmpi	v0,101
60066bbc:	2079      	beqz	s0,60066cb0 <com_load_share_data+0x8c>
60066bbe:	7263      	cmpi	v0,99
60066bc0:	6165      	btnez	60066c8c <com_load_share_data+0x68>
60066bc2:	6574      	move	s3,a0
60066bc4:	6620      	0x6620
60066bc6:	6961      	li	s1,97
60066bc8:	216c      	beqz	s1,60066ca2 <com_load_share_data+0x7e>
60066bca:	000a      	addiu	s0,sp,40
60066bcc:	453c      	daddiu	s1,a1,-4
60066bce:	203e      	beqz	s0,60066c4c <com_load_share_data+0x28>
60066bd0:	6164      	btnez	60066c9a <com_load_share_data+0x76>
60066bd2:	5f65      	sltiu	a3,101
60066bd4:	6663      	0x6663
60066bd6:	2067      	beqz	s0,60066ca6 <com_load_share_data+0x82>
60066bd8:	6873      	li	s0,115
60066bda:	206d      	beqz	s0,60066cb6 <com_load_share_data+0x92>
60066bdc:	6f6e      	li	a3,110
60066bde:	2074      	beqz	s0,60066cc8 <com_load_share_data+0xa4>
60066be0:	7865      	sd	v1,40(s0)
60066be2:	7369      	cmpi	v1,105
60066be4:	2174      	beqz	s1,60066cce <com_load_share_data+0xaa>
60066be6:	0021      	addiu	s0,sp,132
60066be8:	453c      	daddiu	s1,a1,-4
60066bea:	203e      	beqz	s0,60066c68 <com_load_share_data+0x44>
60066bec:	756d      	cmpi	a1,109
60066bee:	6973      	li	s1,115
60066bf0:	2063      	beqz	s0,60066cb8 <com_load_share_data+0x94>
60066bf2:	6873      	li	s0,115
60066bf4:	7261      	cmpi	v0,97
60066bf6:	2065      	beqz	s0,60066cc2 <com_load_share_data+0x9e>
60066bf8:	7571      	cmpi	a1,113
60066bfa:	7265      	cmpi	v0,101
60066bfc:	2079      	beqz	s0,60066cf0 <g_rec_folder_long+0x4>
60066bfe:	6564      	move	v1,a0
60066c00:	7473      	cmpi	a0,115
60066c02:	6f72      	li	a3,114
60066c04:	2079      	beqz	s0,60066cf8 <g_rec_folder_long+0xc>
60066c06:	6166      	btnez	60066cd4 <com_load_share_data+0xb0>
60066c08:	6c69      	li	a0,105
60066c0a:	0a21      	la	v0,60066c8c <com_load_share_data+0x68>
60066c0c:	0000      	addiu	s0,sp,0
60066c0e:	0000      	addiu	s0,sp,0
60066c10:	95dc      	lw	a1,880(sp)
60066c12:	9fc1      	lw	a2,4(a3)
60066c14:	6011      	bteqz	60066c38 <com_load_share_data+0x14>
60066c16:	bfc2      	lwu	a2,8(a3)
60066c18:	693d      	li	s1,61
60066c1a:	601a      	bteqz	60066c50 <com_load_share_data+0x2c>
60066c1c:	61a1      	btnez	60066b60 <main+0x78>
60066c1e:	bfc2      	lwu	a2,8(a3)
60066c20:	6959      	li	s1,89
60066c22:	601a      	bteqz	60066c58 <com_load_share_data+0x34>

60066c24 <com_load_share_data>:
60066c24:	64f5      	save	40,ra,s0-s1
60066c26:	6764      	move	v1,a0
60066c28:	6a00      	li	v0,0
60066c2a:	5b05      	sltiu	v1,5
60066c2c:	6785      	move	a0,a1
60066c2e:	d204      	sw	v0,16(sp)
60066c30:	603e      	bteqz	60066cae <com_load_share_data+0x8a>
60066c32:	0a04      	la	v0,60066c40 <com_load_share_data+0x1c>
60066c34:	3564      	sll	a1,v1,1
60066c36:	e54d      	addu	v1,a1,v0
60066c38:	8ba0      	lh	a1,0(v1)
60066c3a:	e54d      	addu	v1,a1,v0
60066c3c:	eb80      	jrc	v1
60066c3e:	0000      	addiu	s0,sp,0
60066c40:	000b      	addiu	s0,sp,44
60066c42:	0017      	addiu	s0,sp,92
60066c44:	0047      	addiu	s0,sp,284
60066c46:	0057      	addiu	s0,sp,348
60066c48:	005f      	addiu	s0,sp,380
60066c4a:	b21e      	lw	v0,60066cc0 <com_load_share_data+0x9c>
60066c4c:	2f02      	bnez	a3,60066c52 <com_load_share_data+0x2e>
60066c4e:	b51c      	lw	a1,60066cbc <com_load_share_data+0x98>
60066c50:	102c      	b	60066caa <com_load_share_data+0x86>
60066c52:	b51d      	lw	a1,60066cc4 <com_load_share_data+0xa0>
60066c54:	1029      	b	60066ca8 <com_load_share_data+0x84>
60066c56:	6767      	move	v1,a3
60066c58:	eb11      	zeb	v1
60066c5a:	5304      	slti	v1,4
60066c5c:	602b      	bteqz	60066cb4 <com_load_share_data+0x90>
60066c5e:	f71f 6800 	li	s0,65280
60066c62:	e8ec      	and	s0,a3
60066c64:	b117      	lw	s1,60066cc0 <com_load_share_data+0x9c>
60066c66:	2807      	bnez	s0,60066c76 <com_load_share_data+0x52>
60066c68:	6d0c      	li	a1,12
60066c6a:	ebb8      	mult	v1,a1
60066c6c:	b717      	lw	a3,60066cc8 <com_load_share_data+0xa4>
60066c6e:	ea12      	mflo	v0
60066c70:	e2f5      	addu	a1,v0,a3
60066c72:	67f0      	move	a3,s0
60066c74:	1006      	b	60066c82 <com_load_share_data+0x5e>
60066c76:	6a0c      	li	v0,12
60066c78:	eb58      	mult	v1,v0
60066c7a:	b315      	lw	v1,60066ccc <com_load_share_data+0xa8>
60066c7c:	ef12      	mflo	a3
60066c7e:	e775      	addu	a1,a3,v1
60066c80:	6f00      	li	a3,0
60066c82:	e9c0      	jalrc	s1
60066c84:	1017      	b	60066cb4 <com_load_share_data+0x90>
60066c86:	5701      	slti	a3,1
60066c88:	6012      	bteqz	60066cae <com_load_share_data+0x8a>
60066c8a:	6a0c      	li	v0,12
60066c8c:	ef58      	mult	a3,v0
60066c8e:	b511      	lw	a1,60066cd0 <com_load_share_data+0xac>
60066c90:	eb12      	mflo	v1
60066c92:	e3b5      	addu	a1,v1,a1
60066c94:	1001      	b	60066c98 <com_load_share_data+0x74>
60066c96:	b510      	lw	a1,60066cd4 <com_load_share_data+0xb0>
60066c98:	b20a      	lw	v0,60066cc0 <com_load_share_data+0x9c>
60066c9a:	6f00      	li	a3,0
60066c9c:	1006      	b	60066caa <com_load_share_data+0x86>
60066c9e:	b209      	lw	v0,60066cc0 <com_load_share_data+0x9c>
60066ca0:	2f02      	bnez	a3,60066ca6 <com_load_share_data+0x82>
60066ca2:	b50e      	lw	a1,60066cd8 <com_load_share_data+0xb4>
60066ca4:	1002      	b	60066caa <com_load_share_data+0x86>
60066ca6:	b50e      	lw	a1,60066cdc <com_load_share_data+0xb8>
60066ca8:	6f00      	li	a3,0
60066caa:	eac0      	jalrc	v0
60066cac:	1003      	b	60066cb4 <com_load_share_data+0x90>
60066cae:	6e01      	li	a2,1
60066cb0:	eccb      	neg	a0,a2
60066cb2:	d404      	sw	a0,16(sp)
60066cb4:	9204      	lw	v0,16(sp)
60066cb6:	6475      	restore	40,ra,s0-s1
60066cb8:	e8a0      	jrc	ra
60066cba:	0000      	addiu	s0,sp,0
60066cbc:	6d74      	li	a1,116
60066cbe:	6006      	bteqz	60066ccc <com_load_share_data+0xa8>
60066cc0:	6009      	bteqz	60066cd4 <com_load_share_data+0xb0>
60066cc2:	bfc2      	lwu	a2,8(a3)
60066cc4:	6d6c      	li	a1,108
60066cc6:	6006      	bteqz	60066cd4 <com_load_share_data+0xb0>
60066cc8:	6d0c      	li	a1,12
60066cca:	6006      	bteqz	60066cd8 <com_load_share_data+0xb4>
60066ccc:	6d3c      	li	a1,60
60066cce:	6006      	bteqz	60066cdc <com_load_share_data+0xb8>
60066cd0:	6cfc      	li	a0,252
60066cd2:	6006      	bteqz	60066ce0 <g_rec_folder_short>
60066cd4:	6d08      	li	a1,8
60066cd6:	6006      	bteqz	60066ce4 <g_rec_folder_short+0x4>
60066cd8:	6ce0      	li	a0,224
60066cda:	6006      	bteqz	60066ce8 <g_rec_folder_short+0x8>
60066cdc:	6cec      	li	a0,236
60066cde:	6006      	bteqz	60066cec <g_rec_folder_long>

60066ce0 <g_rec_folder_short>:
60066ce0:	4552 4f43 4452 2020 0000 0000               RECORD  ....

60066cec <g_rec_folder_long>:
60066cec:	feff 0052 0045 0043 004f 0052 0044 0000     ..R.E.C.O.R.D...

60066cfc <g_sd_ring_file>:
60066cfc:	6c61 7261 316d 6d2e 3370 0000               alarm1.mp3..

60066d08 <g_ring_floder_type>:
60066d08:	0504 0706                                   ....

60066d0c <g_ring_folder_short>:
60066d0c:	f0c6 b2b4 0000 0000 0000 0000 d4b3 b9b7     ................
	...
60066d24:	a7d1 b0cf 0000 0000 0000 0000 afcb f5be     ................
	...

60066d3c <g_ring_folder_long>:
60066d3c:	feff 8d77 5e8a 0000 0000 0000 feff 5403     ..w..^.........T
60066d4c:	996d 0000 0000 0000 feff 5b66 4e60 0000     m.........f[`N..
60066d5c:	0000 0000 feff 7761 89c9 0000 0000 0000     ......aw........

60066d6c <g_ring_folder_root_long>:
60066d6c:	feff 95f9 949f 0000                         ........

60066d74 <g_ring_folder_root_short>:
60066d74:	d6c4 d3d6 0000 0000                         ........
Disassembly of section BANK_CONTROL_1_2:

600a6800 <mengine_pause>:
600a6800:	64e3      	save	24,ra,s0
}

//暂停播放
app_result_e mengine_pause(void *msg_ptr)
{
600a6802:	b206      	lw	v0,600a6818 <mengine_pause+0x18>
    bool ret_vals;

    ret_vals = stop(STOP_PAUSE); //暂停播放
600a6804:	6704      	move	s0,a0
600a6806:	ea40      	jalr	v0
600a6808:	6c01      	li	a0,1
600a680a:	67a2      	move	a1,v0

    mengine_reply_msg(msg_ptr, ret_vals);
600a680c:	b204      	lw	v0,600a681c <mengine_pause+0x1c>
600a680e:	ea40      	jalr	v0
600a6810:	6790      	move	a0,s0
600a6812:	6a01      	li	v0,1

    return RESULT_IGNORE;
}
600a6814:	6463      	restore	24,ra,s0
600a6816:	e8a0      	jrc	ra
600a6818:	6869      	li	s0,105
600a681a:	6022      	bteqz	600a6860 <mengine_resume+0x20>
600a681c:	6261      	sw	ra,388(sp)
600a681e:	bfc2      	lwu	a2,8(a3)

600a6820 <mengine_stop>:
600a6820:	64e3      	save	24,ra,s0
600a6822:	b206      	lw	v0,600a6838 <mengine_stop+0x18>
600a6824:	6704      	move	s0,a0
600a6826:	ea40      	jalr	v0
600a6828:	6c00      	li	a0,0
600a682a:	67a2      	move	a1,v0
600a682c:	b204      	lw	v0,600a683c <mengine_stop+0x1c>
600a682e:	ea40      	jalr	v0
600a6830:	6790      	move	a0,s0
600a6832:	6a01      	li	v0,1
600a6834:	6463      	restore	24,ra,s0
600a6836:	e8a0      	jrc	ra
600a6838:	6869      	li	s0,105
600a683a:	6022      	bteqz	600a6880 <mengine_play+0x1c>
600a683c:	6261      	sw	ra,388(sp)
600a683e:	bfc2      	lwu	a2,8(a3)

600a6840 <mengine_resume>:
600a6840:	64e3      	save	24,ra,s0

//恢复播放(由暂停恢复)
app_result_e mengine_resume(void *msg_ptr)
{
600a6842:	9c61      	lw	v1,4(a0)
    bool ret_vals;
    private_msg_t *p = (private_msg_t *)msg_ptr;

    //设置文件播放
    ret_vals = play(*((play_mode_e *)p->msg.content.addr)); //播放
600a6844:	6704      	move	s0,a0
600a6846:	b206      	lw	v0,600a685c <mengine_resume+0x1c>
600a6848:	ea40      	jalr	v0
600a684a:	a380      	lbu	a0,0(v1)
600a684c:	67a2      	move	a1,v0

    mengine_reply_msg(msg_ptr, ret_vals);
600a684e:	b205      	lw	v0,600a6860 <mengine_resume+0x20>
600a6850:	ea40      	jalr	v0
600a6852:	6790      	move	a0,s0
600a6854:	6a01      	li	v0,1

    return RESULT_IGNORE;
}
600a6856:	6463      	restore	24,ra,s0
600a6858:	e8a0      	jrc	ra
600a685a:	0000      	addiu	s0,sp,0
600a685c:	6bc9      	li	v1,201
600a685e:	6022      	bteqz	600a68a4 <mengine_message_done_bank+0x10>
600a6860:	6261      	sw	ra,388(sp)
600a6862:	bfc2      	lwu	a2,8(a3)

600a6864 <mengine_play>:
600a6864:	64f4      	save	32,ra,s0-s1
600a6866:	b009      	lw	s0,600a6888 <mengine_play+0x24>
600a6868:	6724      	move	s1,a0
600a686a:	e840      	jalr	s0
600a686c:	6c00      	li	a0,0
600a686e:	b508      	lw	a1,600a688c <mengine_play+0x28>
600a6870:	6801      	li	s0,1
600a6872:	9d80      	lw	a0,0(a1)
600a6874:	67a2      	move	a1,v0
600a6876:	a469      	lbu	v1,9(a0)
600a6878:	b206      	lw	v0,600a6890 <mengine_play+0x2c>
600a687a:	eb0d      	or	v1,s0
600a687c:	c469      	sb	v1,9(a0)
600a687e:	ea40      	jalr	v0
600a6880:	6791      	move	a0,s1
600a6882:	6750      	move	v0,s0
600a6884:	6474      	restore	32,ra,s0-s1
600a6886:	e8a0      	jrc	ra
600a6888:	6bc9      	li	v1,201
600a688a:	6022      	bteqz	600a68d0 <mengine_message_done_bank+0x3c>
600a688c:	95f4      	lw	a1,976(sp)
600a688e:	9fc1      	lw	a2,4(a3)
600a6890:	6261      	sw	ra,388(sp)
600a6892:	bfc2      	lwu	a2,8(a3)

600a6894 <mengine_message_done_bank>:
600a6894:	64f4      	save	32,ra,s0-s1
600a6896:	6724      	move	s1,a0
600a6898:	f460 b318 	lw	v1,600a6d10 <mengine_message_done_bank+0x47c>
600a689c:	9c80      	lw	a0,0(a0)
600a689e:	6a00      	li	v0,0
600a68a0:	cb40      	sh	v0,0(v1)
600a68a2:	f70f 446f 	addiu	v1,a0,-241
600a68a6:	f140 5b15 	sltiu	v1,341
600a68aa:	f140 601c 	bteqz	600a6b66 <mengine_message_done_bank+0x2d2>
600a68ae:	0f04      	la	a3,600a68bc <mengine_message_done_bank+0x28>
600a68b0:	3264      	sll	v0,v1,1
600a68b2:	e2ed      	addu	v1,v0,a3
600a68b4:	8bc0      	lh	a2,0(v1)
600a68b6:	e6f5      	addu	a1,a2,a3
600a68b8:	ed80      	jrc	a1
600a68ba:	0000      	addiu	s0,sp,0
600a68bc:	02ef      	addiu	v0,sp,956
600a68be:	03e9      	addiu	v1,sp,932
600a68c0:	03e1      	addiu	v1,sp,900
600a68c2:	03e9      	addiu	v1,sp,932
600a68c4:	03e1      	addiu	v1,sp,900
600a68c6:	03d9      	addiu	v1,sp,868
600a68c8:	02ab      	addiu	v0,sp,684
600a68ca:	02ab      	addiu	v0,sp,684
600a68cc:	02ab      	addiu	v0,sp,684
600a68ce:	03cd      	addiu	v1,sp,820
600a68d0:	02ab      	addiu	v0,sp,684
600a68d2:	02ab      	addiu	v0,sp,684
600a68d4:	02ab      	addiu	v0,sp,684
600a68d6:	02ab      	addiu	v0,sp,684
600a68d8:	02ab      	addiu	v0,sp,684
600a68da:	02ab      	addiu	v0,sp,684
600a68dc:	02ab      	addiu	v0,sp,684
600a68de:	02ab      	addiu	v0,sp,684
600a68e0:	02ab      	addiu	v0,sp,684
600a68e2:	02ab      	addiu	v0,sp,684
600a68e4:	02ab      	addiu	v0,sp,684
600a68e6:	02ab      	addiu	v0,sp,684
600a68e8:	02ab      	addiu	v0,sp,684
600a68ea:	02ab      	addiu	v0,sp,684
600a68ec:	02ab      	addiu	v0,sp,684
600a68ee:	02ab      	addiu	v0,sp,684
600a68f0:	02ab      	addiu	v0,sp,684
600a68f2:	02ab      	addiu	v0,sp,684
600a68f4:	02ab      	addiu	v0,sp,684
600a68f6:	02ab      	addiu	v0,sp,684
600a68f8:	02ab      	addiu	v0,sp,684
600a68fa:	02ab      	addiu	v0,sp,684
600a68fc:	02ab      	addiu	v0,sp,684
600a68fe:	02ab      	addiu	v0,sp,684
600a6900:	02ab      	addiu	v0,sp,684
600a6902:	02ab      	addiu	v0,sp,684
600a6904:	02ab      	addiu	v0,sp,684
600a6906:	02ab      	addiu	v0,sp,684
600a6908:	02ab      	addiu	v0,sp,684
600a690a:	02ab      	addiu	v0,sp,684
600a690c:	02ab      	addiu	v0,sp,684
600a690e:	02ab      	addiu	v0,sp,684
600a6910:	02ab      	addiu	v0,sp,684
600a6912:	02ab      	addiu	v0,sp,684
600a6914:	02ab      	addiu	v0,sp,684
600a6916:	02ab      	addiu	v0,sp,684
600a6918:	02ab      	addiu	v0,sp,684
600a691a:	02ab      	addiu	v0,sp,684
600a691c:	02ab      	addiu	v0,sp,684
600a691e:	02ab      	addiu	v0,sp,684
600a6920:	02ab      	addiu	v0,sp,684
600a6922:	02ab      	addiu	v0,sp,684
600a6924:	02ab      	addiu	v0,sp,684
600a6926:	02ab      	addiu	v0,sp,684
600a6928:	02ab      	addiu	v0,sp,684
600a692a:	02ab      	addiu	v0,sp,684
600a692c:	02ab      	addiu	v0,sp,684
600a692e:	02ab      	addiu	v0,sp,684
600a6930:	02ab      	addiu	v0,sp,684
600a6932:	02ab      	addiu	v0,sp,684
600a6934:	02ab      	addiu	v0,sp,684
600a6936:	02ab      	addiu	v0,sp,684
600a6938:	02ab      	addiu	v0,sp,684
600a693a:	02ab      	addiu	v0,sp,684
600a693c:	02ab      	addiu	v0,sp,684
600a693e:	02ab      	addiu	v0,sp,684
600a6940:	02ab      	addiu	v0,sp,684
600a6942:	02ab      	addiu	v0,sp,684
600a6944:	02ab      	addiu	v0,sp,684
600a6946:	02ab      	addiu	v0,sp,684
600a6948:	02ab      	addiu	v0,sp,684
600a694a:	02ab      	addiu	v0,sp,684
600a694c:	02ab      	addiu	v0,sp,684
600a694e:	02ab      	addiu	v0,sp,684
600a6950:	02ab      	addiu	v0,sp,684
600a6952:	02ab      	addiu	v0,sp,684
600a6954:	02ab      	addiu	v0,sp,684
600a6956:	02ab      	addiu	v0,sp,684
600a6958:	02ab      	addiu	v0,sp,684
600a695a:	02ab      	addiu	v0,sp,684
600a695c:	02ab      	addiu	v0,sp,684
600a695e:	02ab      	addiu	v0,sp,684
600a6960:	02ab      	addiu	v0,sp,684
600a6962:	02ab      	addiu	v0,sp,684
600a6964:	02ab      	addiu	v0,sp,684
600a6966:	02ab      	addiu	v0,sp,684
600a6968:	02ab      	addiu	v0,sp,684
600a696a:	02ab      	addiu	v0,sp,684
600a696c:	02ab      	addiu	v0,sp,684
600a696e:	02ab      	addiu	v0,sp,684
600a6970:	02ab      	addiu	v0,sp,684
600a6972:	02ab      	addiu	v0,sp,684
600a6974:	02ab      	addiu	v0,sp,684
600a6976:	02ab      	addiu	v0,sp,684
600a6978:	02ab      	addiu	v0,sp,684
600a697a:	02ab      	addiu	v0,sp,684
600a697c:	02ab      	addiu	v0,sp,684
600a697e:	02ab      	addiu	v0,sp,684
600a6980:	02ab      	addiu	v0,sp,684
600a6982:	02ab      	addiu	v0,sp,684
600a6984:	02ab      	addiu	v0,sp,684
600a6986:	02ab      	addiu	v0,sp,684
600a6988:	02ab      	addiu	v0,sp,684
600a698a:	02ab      	addiu	v0,sp,684
600a698c:	02ab      	addiu	v0,sp,684
600a698e:	02ab      	addiu	v0,sp,684
600a6990:	02ab      	addiu	v0,sp,684
600a6992:	02ab      	addiu	v0,sp,684
600a6994:	02ab      	addiu	v0,sp,684
600a6996:	02ab      	addiu	v0,sp,684
600a6998:	02ab      	addiu	v0,sp,684
600a699a:	02ab      	addiu	v0,sp,684
600a699c:	02ab      	addiu	v0,sp,684
600a699e:	02ab      	addiu	v0,sp,684
600a69a0:	02ab      	addiu	v0,sp,684
600a69a2:	02ab      	addiu	v0,sp,684
600a69a4:	02ab      	addiu	v0,sp,684
600a69a6:	02ab      	addiu	v0,sp,684
600a69a8:	02ab      	addiu	v0,sp,684
600a69aa:	02ab      	addiu	v0,sp,684
600a69ac:	02ab      	addiu	v0,sp,684
600a69ae:	02ab      	addiu	v0,sp,684
600a69b0:	02ab      	addiu	v0,sp,684
600a69b2:	02ab      	addiu	v0,sp,684
600a69b4:	02ab      	addiu	v0,sp,684
600a69b6:	02ab      	addiu	v0,sp,684
600a69b8:	02ab      	addiu	v0,sp,684
600a69ba:	02ab      	addiu	v0,sp,684
600a69bc:	02ab      	addiu	v0,sp,684
600a69be:	02ab      	addiu	v0,sp,684
600a69c0:	02ab      	addiu	v0,sp,684
600a69c2:	02ab      	addiu	v0,sp,684
600a69c4:	02ab      	addiu	v0,sp,684
600a69c6:	02ab      	addiu	v0,sp,684
600a69c8:	02ab      	addiu	v0,sp,684
600a69ca:	02ab      	addiu	v0,sp,684
600a69cc:	02ab      	addiu	v0,sp,684
600a69ce:	02ab      	addiu	v0,sp,684
600a69d0:	02ab      	addiu	v0,sp,684
600a69d2:	02ab      	addiu	v0,sp,684
600a69d4:	02ab      	addiu	v0,sp,684
600a69d6:	02ab      	addiu	v0,sp,684
600a69d8:	02ab      	addiu	v0,sp,684
600a69da:	02ab      	addiu	v0,sp,684
600a69dc:	02ab      	addiu	v0,sp,684
600a69de:	02ab      	addiu	v0,sp,684
600a69e0:	02ab      	addiu	v0,sp,684
600a69e2:	02ab      	addiu	v0,sp,684
600a69e4:	02ab      	addiu	v0,sp,684
600a69e6:	02ab      	addiu	v0,sp,684
600a69e8:	02ab      	addiu	v0,sp,684
600a69ea:	02ab      	addiu	v0,sp,684
600a69ec:	02ab      	addiu	v0,sp,684
600a69ee:	02ab      	addiu	v0,sp,684
600a69f0:	02ab      	addiu	v0,sp,684
600a69f2:	02ab      	addiu	v0,sp,684
600a69f4:	02ab      	addiu	v0,sp,684
600a69f6:	02ab      	addiu	v0,sp,684
600a69f8:	02ab      	addiu	v0,sp,684
600a69fa:	02ab      	addiu	v0,sp,684
600a69fc:	02ab      	addiu	v0,sp,684
600a69fe:	02ab      	addiu	v0,sp,684
600a6a00:	02ab      	addiu	v0,sp,684
600a6a02:	02ab      	addiu	v0,sp,684
600a6a04:	02ab      	addiu	v0,sp,684
600a6a06:	02ab      	addiu	v0,sp,684
600a6a08:	02ab      	addiu	v0,sp,684
600a6a0a:	02ab      	addiu	v0,sp,684
600a6a0c:	02ab      	addiu	v0,sp,684
600a6a0e:	02ab      	addiu	v0,sp,684
600a6a10:	02ab      	addiu	v0,sp,684
600a6a12:	02ab      	addiu	v0,sp,684
600a6a14:	02ab      	addiu	v0,sp,684
600a6a16:	02ab      	addiu	v0,sp,684
600a6a18:	02ab      	addiu	v0,sp,684
600a6a1a:	02ab      	addiu	v0,sp,684
600a6a1c:	02ab      	addiu	v0,sp,684
600a6a1e:	02ab      	addiu	v0,sp,684
600a6a20:	02ab      	addiu	v0,sp,684
600a6a22:	02ab      	addiu	v0,sp,684
600a6a24:	02ab      	addiu	v0,sp,684
600a6a26:	02ab      	addiu	v0,sp,684
600a6a28:	02ab      	addiu	v0,sp,684
600a6a2a:	02ab      	addiu	v0,sp,684
600a6a2c:	02ab      	addiu	v0,sp,684
600a6a2e:	02ab      	addiu	v0,sp,684
600a6a30:	02ab      	addiu	v0,sp,684
600a6a32:	02ab      	addiu	v0,sp,684
600a6a34:	02ab      	addiu	v0,sp,684
600a6a36:	02ab      	addiu	v0,sp,684
600a6a38:	02ab      	addiu	v0,sp,684
600a6a3a:	02ab      	addiu	v0,sp,684
600a6a3c:	02ab      	addiu	v0,sp,684
600a6a3e:	02ab      	addiu	v0,sp,684
600a6a40:	02ab      	addiu	v0,sp,684
600a6a42:	02ab      	addiu	v0,sp,684
600a6a44:	02ab      	addiu	v0,sp,684
600a6a46:	02ab      	addiu	v0,sp,684
600a6a48:	02ab      	addiu	v0,sp,684
600a6a4a:	02ab      	addiu	v0,sp,684
600a6a4c:	02ab      	addiu	v0,sp,684
600a6a4e:	02ab      	addiu	v0,sp,684
600a6a50:	02ab      	addiu	v0,sp,684
600a6a52:	02ab      	addiu	v0,sp,684
600a6a54:	02ab      	addiu	v0,sp,684
600a6a56:	02ab      	addiu	v0,sp,684
600a6a58:	02ab      	addiu	v0,sp,684
600a6a5a:	02ab      	addiu	v0,sp,684
600a6a5c:	02ab      	addiu	v0,sp,684
600a6a5e:	02ab      	addiu	v0,sp,684
600a6a60:	02ab      	addiu	v0,sp,684
600a6a62:	02ab      	addiu	v0,sp,684
600a6a64:	02ab      	addiu	v0,sp,684
600a6a66:	02ab      	addiu	v0,sp,684
600a6a68:	02ab      	addiu	v0,sp,684
600a6a6a:	02ab      	addiu	v0,sp,684
600a6a6c:	02ab      	addiu	v0,sp,684
600a6a6e:	02ab      	addiu	v0,sp,684
600a6a70:	02ab      	addiu	v0,sp,684
600a6a72:	02ab      	addiu	v0,sp,684
600a6a74:	02ab      	addiu	v0,sp,684
600a6a76:	02ab      	addiu	v0,sp,684
600a6a78:	02ab      	addiu	v0,sp,684
600a6a7a:	02ab      	addiu	v0,sp,684
600a6a7c:	02ab      	addiu	v0,sp,684
600a6a7e:	02ab      	addiu	v0,sp,684
600a6a80:	02ab      	addiu	v0,sp,684
600a6a82:	02ab      	addiu	v0,sp,684
600a6a84:	02ab      	addiu	v0,sp,684
600a6a86:	02ab      	addiu	v0,sp,684
600a6a88:	02ab      	addiu	v0,sp,684
600a6a8a:	02ab      	addiu	v0,sp,684
600a6a8c:	02ab      	addiu	v0,sp,684
600a6a8e:	02ab      	addiu	v0,sp,684
600a6a90:	02ab      	addiu	v0,sp,684
600a6a92:	02ab      	addiu	v0,sp,684
600a6a94:	02ab      	addiu	v0,sp,684
600a6a96:	02ab      	addiu	v0,sp,684
600a6a98:	02ab      	addiu	v0,sp,684
600a6a9a:	02ab      	addiu	v0,sp,684
600a6a9c:	02ab      	addiu	v0,sp,684
600a6a9e:	02ab      	addiu	v0,sp,684
600a6aa0:	02ab      	addiu	v0,sp,684
600a6aa2:	02ab      	addiu	v0,sp,684
600a6aa4:	02ab      	addiu	v0,sp,684
600a6aa6:	02ab      	addiu	v0,sp,684
600a6aa8:	02ab      	addiu	v0,sp,684
600a6aaa:	02ab      	addiu	v0,sp,684
600a6aac:	02ab      	addiu	v0,sp,684
600a6aae:	02ab      	addiu	v0,sp,684
600a6ab0:	02ab      	addiu	v0,sp,684
600a6ab2:	02ab      	addiu	v0,sp,684
600a6ab4:	02ab      	addiu	v0,sp,684
600a6ab6:	02ab      	addiu	v0,sp,684
600a6ab8:	02ab      	addiu	v0,sp,684
600a6aba:	02ab      	addiu	v0,sp,684
600a6abc:	02ab      	addiu	v0,sp,684
600a6abe:	02ab      	addiu	v0,sp,684
600a6ac0:	02ab      	addiu	v0,sp,684
600a6ac2:	02ab      	addiu	v0,sp,684
600a6ac4:	02ab      	addiu	v0,sp,684
600a6ac6:	02ab      	addiu	v0,sp,684
600a6ac8:	02ab      	addiu	v0,sp,684
600a6aca:	02ab      	addiu	v0,sp,684
600a6acc:	02ab      	addiu	v0,sp,684
600a6ace:	02ab      	addiu	v0,sp,684
600a6ad0:	02ab      	addiu	v0,sp,684
600a6ad2:	02ab      	addiu	v0,sp,684
600a6ad4:	02ab      	addiu	v0,sp,684
600a6ad6:	02ab      	addiu	v0,sp,684
600a6ad8:	02ab      	addiu	v0,sp,684
600a6ada:	02ab      	addiu	v0,sp,684
600a6adc:	02ab      	addiu	v0,sp,684
600a6ade:	03c5      	addiu	v1,sp,788
600a6ae0:	03bd      	addiu	v1,sp,756
600a6ae2:	02ab      	addiu	v0,sp,684
600a6ae4:	02ab      	addiu	v0,sp,684
600a6ae6:	02ab      	addiu	v0,sp,684
600a6ae8:	02ab      	addiu	v0,sp,684
600a6aea:	02ab      	addiu	v0,sp,684
600a6aec:	02ab      	addiu	v0,sp,684
600a6aee:	02ab      	addiu	v0,sp,684
600a6af0:	02ab      	addiu	v0,sp,684
600a6af2:	02ab      	addiu	v0,sp,684
600a6af4:	02ab      	addiu	v0,sp,684
600a6af6:	03b5      	addiu	v1,sp,724
600a6af8:	03ad      	addiu	v1,sp,692
600a6afa:	0409      	addiu	a0,sp,36
600a6afc:	0401      	addiu	a0,sp,4
600a6afe:	02ab      	addiu	v0,sp,684
600a6b00:	03f9      	addiu	v1,sp,996
600a6b02:	02ab      	addiu	v0,sp,684
600a6b04:	03f1      	addiu	v1,sp,964
600a6b06:	0419      	addiu	a0,sp,100
600a6b08:	02ab      	addiu	v0,sp,684
600a6b0a:	0411      	addiu	a0,sp,68
600a6b0c:	0323      	addiu	v1,sp,140
600a6b0e:	031b      	addiu	v1,sp,108
600a6b10:	0363      	addiu	v1,sp,396
600a6b12:	02ab      	addiu	v0,sp,684
600a6b14:	02ab      	addiu	v0,sp,684
600a6b16:	02ab      	addiu	v0,sp,684
600a6b18:	02ab      	addiu	v0,sp,684
600a6b1a:	035b      	addiu	v1,sp,364
600a6b1c:	02ab      	addiu	v0,sp,684
600a6b1e:	02ab      	addiu	v0,sp,684
600a6b20:	02ab      	addiu	v0,sp,684
600a6b22:	02ab      	addiu	v0,sp,684
600a6b24:	02ab      	addiu	v0,sp,684
600a6b26:	02ab      	addiu	v0,sp,684
600a6b28:	0353      	addiu	v1,sp,332
600a6b2a:	02ab      	addiu	v0,sp,684
600a6b2c:	034b      	addiu	v1,sp,300
600a6b2e:	02ab      	addiu	v0,sp,684
600a6b30:	02ab      	addiu	v0,sp,684
600a6b32:	02ab      	addiu	v0,sp,684
600a6b34:	02ab      	addiu	v0,sp,684
600a6b36:	02ab      	addiu	v0,sp,684
600a6b38:	02ab      	addiu	v0,sp,684
600a6b3a:	02ab      	addiu	v0,sp,684
600a6b3c:	02ab      	addiu	v0,sp,684
600a6b3e:	02ab      	addiu	v0,sp,684
600a6b40:	02ab      	addiu	v0,sp,684
600a6b42:	02ab      	addiu	v0,sp,684
600a6b44:	02ab      	addiu	v0,sp,684
600a6b46:	02ab      	addiu	v0,sp,684
600a6b48:	0343      	addiu	v1,sp,268
600a6b4a:	033b      	addiu	v1,sp,236
600a6b4c:	0333      	addiu	v1,sp,204
600a6b4e:	036b      	addiu	v1,sp,428
600a6b50:	03a5      	addiu	v1,sp,660
600a6b52:	0303      	addiu	v1,sp,12
600a6b54:	02d1      	addiu	v0,sp,836
600a6b56:	02d1      	addiu	v0,sp,836
600a6b58:	02ab      	addiu	v0,sp,684
600a6b5a:	032b      	addiu	v1,sp,172
600a6b5c:	0397      	addiu	v1,sp,604
600a6b5e:	037d      	addiu	v1,sp,500
600a6b60:	0373      	addiu	v1,sp,460
600a6b62:	039f      	addiu	v1,sp,636
600a6b64:	030b      	addiu	v1,sp,44
600a6b66:	f201 7404 	cmpi	a0,2564
600a6b6a:	6014      	bteqz	600a6b94 <mengine_message_done_bank+0x300>
600a6b6c:	f201 7405 	cmpi	a0,2565
600a6b70:	6018      	bteqz	600a6ba2 <mengine_message_done_bank+0x30e>
600a6b72:	b375      	lw	v1,600a6d44 <mengine_message_done_bank+0x4b0>
600a6b74:	b675      	lw	a2,600a6d48 <mengine_message_done_bank+0x4b4>
600a6b76:	9ba0      	lw	a1,0(v1)
600a6b78:	b066      	lw	s0,600a6d10 <mengine_message_done_bank+0x47c>
600a6b7a:	6791      	move	a0,s1
600a6b7c:	1941 9a2b 	jal	60aa68ac <smart_process_message_deal>
600a6b80:	6f00      	li	a3,0
600a6b82:	c840      	sh	v0,0(s0)
600a6b84:	6791      	move	a0,s1
600a6b86:	6d01      	li	a1,1
600a6b88:	b26e      	lw	v0,600a6d40 <mengine_message_done_bank+0x4ac>
600a6b8a:	eac0      	jalrc	v0
600a6b8c:	b461      	lw	a0,600a6d0c <mengine_message_done_bank+0x478>
600a6b8e:	ac40      	lhu	v0,0(a0)
600a6b90:	6474      	restore	32,ra,s0-s1
600a6b92:	e8a0      	jrc	ra
600a6b94:	b06f      	lw	s0,600a6d4c <mengine_message_done_bank+0x4b8>
600a6b96:	e840      	jalr	s0
600a6b98:	6c01      	li	a0,1
600a6b9a:	9980      	lw	a0,0(s1)
600a6b9c:	f201 7405 	cmpi	a0,2565
600a6ba0:	61e8      	btnez	600a6b72 <mengine_message_done_bank+0x2de>
600a6ba2:	b26d      	lw	v0,600a6d54 <mengine_message_done_bank+0x4c0>
600a6ba4:	ea40      	jalr	v0
600a6ba6:	6c01      	li	a0,1
600a6ba8:	17e4      	b	600a6b72 <mengine_message_done_bank+0x2de>
600a6baa:	a184      	lbu	a0,4(s1)
600a6bac:	6d01      	li	a1,1
600a6bae:	ecac      	and	a0,a1
600a6bb0:	f080 2c14 	bnez	a0,600a6cdc <mengine_message_done_bank+0x448>
600a6bb4:	f100 6a00 	li	v0,256
600a6bb8:	b456      	lw	a0,600a6d10 <mengine_message_done_bank+0x47c>
600a6bba:	cc40      	sh	v0,0(a0)
600a6bbc:	17e7      	b	600a6b8c <mengine_message_done_bank+0x2f8>
600a6bbe:	1860 9b21 	jal	600e6c84 <mengine_get_playtype>
600a6bc2:	6791      	move	a0,s1
600a6bc4:	17e3      	b	600a6b8c <mengine_message_done_bank+0x2f8>
600a6bc6:	b360      	lw	v1,600a6d44 <mengine_message_done_bank+0x4b0>
600a6bc8:	6d00      	li	a1,0
600a6bca:	9b80      	lw	a0,0(v1)
600a6bcc:	99c1      	lw	a2,4(s1)
600a6bce:	f080 2c0e 	bnez	a0,600a6cee <mengine_message_done_bank+0x45a>
600a6bd2:	6791      	move	a0,s1
600a6bd4:	17d9      	b	600a6b88 <mengine_message_done_bank+0x2f4>
600a6bd6:	18c0 9a34 	jal	601a68d0 <mengine_cancel_ffb>
600a6bda:	6791      	move	a0,s1
600a6bdc:	17d7      	b	600a6b8c <mengine_message_done_bank+0x2f8>
600a6bde:	18c0 9a22 	jal	601a6888 <mengine_fast_backward>
600a6be2:	6791      	move	a0,s1
600a6be4:	17d3      	b	600a6b8c <mengine_message_done_bank+0x2f8>
600a6be6:	b24f      	lw	v0,600a6d20 <mengine_message_done_bank+0x48c>
600a6be8:	ea40      	jalr	v0
600a6bea:	6791      	move	a0,s1
600a6bec:	17cf      	b	600a6b8c <mengine_message_done_bank+0x2f8>
600a6bee:	18a0 9ace 	jal	60166b38 <mengine_play_digital_song>
600a6bf2:	6791      	move	a0,s1
600a6bf4:	17cb      	b	600a6b8c <mengine_message_done_bank+0x2f8>
600a6bf6:	1860 9ab6 	jal	600e6ad8 <mengine_list_access_allow>
600a6bfa:	6791      	move	a0,s1
600a6bfc:	17c7      	b	600a6b8c <mengine_message_done_bank+0x2f8>
600a6bfe:	1860 9a61 	jal	600e6984 <mengine_switch_disk>
600a6c02:	6791      	move	a0,s1
600a6c04:	17c3      	b	600a6b8c <mengine_message_done_bank+0x2f8>
600a6c06:	1860 9b3a 	jal	600e6ce8 <mengine_get_fileinfo>
600a6c0a:	6791      	move	a0,s1
600a6c0c:	17bf      	b	600a6b8c <mengine_message_done_bank+0x2f8>
600a6c0e:	b242      	lw	v0,600a6d14 <mengine_message_done_bank+0x480>
600a6c10:	ea40      	jalr	v0
600a6c12:	6791      	move	a0,s1
600a6c14:	17bb      	b	600a6b8c <mengine_message_done_bank+0x2f8>
600a6c16:	b242      	lw	v0,600a6d1c <mengine_message_done_bank+0x488>
600a6c18:	ea40      	jalr	v0
600a6c1a:	6791      	move	a0,s1
600a6c1c:	17b7      	b	600a6b8c <mengine_message_done_bank+0x2f8>
600a6c1e:	18c0 9a00 	jal	601a6800 <mengine_fastplay_step>
600a6c22:	6791      	move	a0,s1
600a6c24:	17b3      	b	600a6b8c <mengine_message_done_bank+0x2f8>
600a6c26:	18a0 9ad6 	jal	60166b58 <mengine_play_folder_next>
600a6c2a:	6791      	move	a0,s1
600a6c2c:	17af      	b	600a6b8c <mengine_message_done_bank+0x2f8>
600a6c2e:	b748      	lw	a3,600a6d4c <mengine_message_done_bank+0x4b8>
600a6c30:	6e00      	li	a2,0
600a6c32:	9fa0      	lw	a1,0(a3)
600a6c34:	c5c5      	sb	a2,5(a1)
600a6c36:	17a6      	b	600a6b84 <mengine_message_done_bank+0x2f0>
600a6c38:	b740      	lw	a3,600a6d38 <mengine_message_done_bank+0x4a4>
600a6c3a:	b241      	lw	v0,600a6d3c <mengine_message_done_bank+0x4a8>
600a6c3c:	9fc0      	lw	a2,0(a3)
600a6c3e:	ea40      	jalr	v0
600a6c40:	a684      	lbu	a0,4(a2)
600a6c42:	b340      	lw	v1,600a6d40 <mengine_message_done_bank+0x4ac>
600a6c44:	6791      	move	a0,s1
600a6c46:	eb40      	jalr	v1
600a6c48:	6d01      	li	a1,1
600a6c4a:	b432      	lw	a0,600a6d10 <mengine_message_done_bank+0x47c>
600a6c4c:	6a01      	li	v0,1
600a6c4e:	cc40      	sh	v0,0(a0)
600a6c50:	179d      	b	600a6b8c <mengine_message_done_bank+0x2f8>
600a6c52:	b235      	lw	v0,600a6d24 <mengine_message_done_bank+0x490>
600a6c54:	ea40      	jalr	v0
600a6c56:	6791      	move	a0,s1
600a6c58:	1799      	b	600a6b8c <mengine_message_done_bank+0x2f8>
600a6c5a:	6791      	move	a0,s1
600a6c5c:	6d00      	li	a1,0
600a6c5e:	1794      	b	600a6b88 <mengine_message_done_bank+0x2f4>
600a6c60:	18a0 9ade 	jal	60166b78 <mengine_play_folder_prev>
600a6c64:	6791      	move	a0,s1
600a6c66:	1792      	b	600a6b8c <mengine_message_done_bank+0x2f8>
600a6c68:	1840 9a08 	jal	600a6820 <mengine_stop>
600a6c6c:	6791      	move	a0,s1
600a6c6e:	178e      	b	600a6b8c <mengine_message_done_bank+0x2f8>
600a6c70:	1840 9a19 	jal	600a6864 <mengine_play>
600a6c74:	6791      	move	a0,s1
600a6c76:	178a      	b	600a6b8c <mengine_message_done_bank+0x2f8>
600a6c78:	1860 9abd 	jal	600e6af4 <mengine_set_playmode>
600a6c7c:	6791      	move	a0,s1
600a6c7e:	1786      	b	600a6b8c <mengine_message_done_bank+0x2f8>
600a6c80:	b226      	lw	v0,600a6d18 <mengine_message_done_bank+0x484>
600a6c82:	ea40      	jalr	v0
600a6c84:	6791      	move	a0,s1
600a6c86:	1782      	b	600a6b8c <mengine_message_done_bank+0x2f8>
600a6c88:	b228      	lw	v0,600a6d28 <mengine_message_done_bank+0x494>
600a6c8a:	ea40      	jalr	v0
600a6c8c:	6791      	move	a0,s1
600a6c8e:	b421      	lw	a0,600a6d10 <mengine_message_done_bank+0x47c>
600a6c90:	cc40      	sh	v0,0(a0)
600a6c92:	177c      	b	600a6b8c <mengine_message_done_bank+0x2f8>
600a6c94:	18a0 9a00 	jal	60166800 <mengine_set_eq>
600a6c98:	6791      	move	a0,s1
600a6c9a:	1778      	b	600a6b8c <mengine_message_done_bank+0x2f8>
600a6c9c:	b226      	lw	v0,600a6d34 <mengine_message_done_bank+0x4a0>
600a6c9e:	ea40      	jalr	v0
600a6ca0:	6791      	move	a0,s1
600a6ca2:	17f5      	b	600a6c8e <mengine_message_done_bank+0x3fa>
600a6ca4:	b223      	lw	v0,600a6d30 <mengine_message_done_bank+0x49c>
600a6ca6:	ea40      	jalr	v0
600a6ca8:	6791      	move	a0,s1
600a6caa:	17f1      	b	600a6c8e <mengine_message_done_bank+0x3fa>
600a6cac:	18a0 9a39 	jal	601668e4 <mengine_play_next>
600a6cb0:	6791      	move	a0,s1
600a6cb2:	176c      	b	600a6b8c <mengine_message_done_bank+0x2f8>
600a6cb4:	1860 9ad8 	jal	600e6b60 <mengine_set_filepath>
600a6cb8:	6791      	move	a0,s1
600a6cba:	1768      	b	600a6b8c <mengine_message_done_bank+0x2f8>
600a6cbc:	1840 9a10 	jal	600a6840 <mengine_resume>
600a6cc0:	6791      	move	a0,s1
600a6cc2:	1764      	b	600a6b8c <mengine_message_done_bank+0x2f8>
600a6cc4:	1840 9a00 	jal	600a6800 <mengine_pause>
600a6cc8:	6791      	move	a0,s1
600a6cca:	1760      	b	600a6b8c <mengine_message_done_bank+0x2f8>
600a6ccc:	18c0 9a10 	jal	601a6840 <mengine_fast_forward>
600a6cd0:	6791      	move	a0,s1
600a6cd2:	175c      	b	600a6b8c <mengine_message_done_bank+0x2f8>
600a6cd4:	18a0 9a40 	jal	60166900 <mengine_play_prev>
600a6cd8:	6791      	move	a0,s1
600a6cda:	1758      	b	600a6b8c <mengine_message_done_bank+0x2f8>
600a6cdc:	6d00      	li	a1,0
600a6cde:	b214      	lw	v0,600a6d2c <mengine_message_done_bank+0x498>
600a6ce0:	0c07      	la	a0,600a6cfc <mengine_message_done_bank+0x468>
600a6ce2:	67c5      	move	a2,a1
600a6ce4:	ea40      	jalr	v0
600a6ce6:	6f4b      	li	a3,75
600a6ce8:	f100 6a00 	li	v0,256
600a6cec:	1765      	b	600a6bb8 <mengine_message_done_bank+0x324>
600a6cee:	b217      	lw	v0,600a6d48 <mengine_message_done_bank+0x4b4>
600a6cf0:	ea40      	jalr	v0
600a6cf2:	4d2a      	addiu	a1,42
600a6cf4:	6d01      	li	a1,1
600a6cf6:	6791      	move	a0,s1
600a6cf8:	1747      	b	600a6b88 <mengine_message_done_bank+0x2f4>
600a6cfa:	0000      	addiu	s0,sp,0
600a6cfc:	493c      	addiu	s1,60
600a6cfe:	203e      	beqz	s0,600a6d7c <mengine_save_errno_no+0x20>
600a6d00:	6765      	move	v1,a1
600a6d02:	6520      	move	at,s0
600a6d04:	746e      	cmpi	a0,110
600a6d06:	7265      	cmpi	v0,101
600a6d08:	7320      	cmpi	v1,32
600a6d0a:	6233      	sw	ra,204(sp)
600a6d0c:	0074      	addiu	s0,sp,464
600a6d0e:	0000      	addiu	s0,sp,0
600a6d10:	95ea      	lw	a1,936(sp)
600a6d12:	9fc1      	lw	a2,4(a3)
600a6d14:	62fd      	sw	ra,1012(sp)
600a6d16:	bfc2      	lwu	a2,8(a3)
600a6d18:	62c1      	sw	ra,772(sp)
600a6d1a:	bfc2      	lwu	a2,8(a3)
600a6d1c:	6cc5      	li	a0,197
600a6d1e:	600e      	bteqz	600a6d3c <mengine_message_done_bank+0x4a8>
600a6d20:	6d15      	li	a1,21
600a6d22:	600e      	bteqz	600a6d40 <mengine_message_done_bank+0x4ac>
600a6d24:	6d39      	li	a1,57
600a6d26:	600e      	bteqz	600a6d44 <mengine_message_done_bank+0x4b0>
600a6d28:	6935      	li	s1,53
600a6d2a:	6012      	bteqz	600a6d50 <mengine_message_done_bank+0x4bc>
600a6d2c:	6011      	bteqz	600a6d50 <mengine_message_done_bank+0x4bc>
600a6d2e:	bfc2      	lwu	a2,8(a3)
600a6d30:	6885      	li	s0,133
600a6d32:	6012      	bteqz	600a6d58 <reset_by_PW_off>
600a6d34:	68e9      	li	s0,233
600a6d36:	6012      	bteqz	600a6d5c <mengine_save_errno_no>
600a6d38:	95ec      	lw	a1,944(sp)
600a6d3a:	9fc1      	lw	a2,4(a3)
600a6d3c:	6801      	li	s0,1
600a6d3e:	600e      	bteqz	600a6d5c <mengine_save_errno_no>
600a6d40:	6261      	sw	ra,388(sp)
600a6d42:	bfc2      	lwu	a2,8(a3)
600a6d44:	95fc      	lw	a1,1008(sp)
600a6d46:	9fc1      	lw	a2,4(a3)
600a6d48:	600d      	bteqz	600a6d64 <mengine_save_errno_no+0x8>
600a6d4a:	bfc2      	lwu	a2,8(a3)
600a6d4c:	95f8      	lw	a1,992(sp)
600a6d4e:	9fc1      	lw	a2,4(a3)
600a6d50:	6869      	li	s0,105
600a6d52:	6022      	bteqz	600a6d98 <mengine_save_errno_no+0x3c>
600a6d54:	6bc9      	li	v1,201
600a6d56:	6022      	bteqz	600a6d9c <mengine_save_errno_no+0x40>

600a6d58 <reset_by_PW_off>:
600a6d58:	e8a0      	jrc	ra
	...

600a6d5c <mengine_save_errno_no>:
600a6d5c:	64e6      	save	48,ra,s0

//保存引擎错误号
void mengine_save_errno_no(void)
{
600a6d5e:	b53c      	lw	a1,600a6e4c <mengine_save_errno_no+0xf0>
    eg_err_e err_status = EG_ERR_NONE;

    mmm_mp_status_t mmm_status;

    //读取错误号
    mmm_mp_cmd(g_mp_handle, MMM_MP_GET_ERRORNO, (unsigned int) &mmm_status.err_no);
600a6d60:	b03c      	lw	s0,600a6e50 <mengine_save_errno_no+0xf4>
600a6d62:	9d80      	lw	a0,0(a1)
600a6d64:	0605      	addiu	a2,sp,20
600a6d66:	e840      	jalr	s0
600a6d68:	6d1c      	li	a1,28
600a6d6a:	9305      	lw	v1,20(sp)

    //转换错误号
    switch(mmm_status.err_no) {
600a6d6c:	b23b      	lw	v0,600a6e58 <mengine_save_errno_no+0xfc>
600a6d6e:	e34d      	addu	v1,v0
600a6d70:	5b14      	sltiu	v1,20
600a6d72:	601a      	bteqz	600a6da8 <mengine_save_errno_no+0x4c>
600a6d74:	0f03      	la	a3,600a6d80 <mengine_save_errno_no+0x24>
600a6d76:	3264      	sll	v0,v1,1
600a6d78:	e2ed      	addu	v1,v0,a3
600a6d7a:	8bc0      	lh	a2,0(v1)
600a6d7c:	e6f1      	addu	a0,a2,a3
600a6d7e:	ec80      	jrc	a0
600a6d80:	004d      	addiu	s0,sp,308
600a6d82:	0051      	addiu	s0,sp,324
600a6d84:	0057      	addiu	s0,sp,348
600a6d86:	005d      	addiu	s0,sp,372
600a6d88:	0063      	addiu	s0,sp,396
600a6d8a:	0067      	addiu	s0,sp,412
600a6d8c:	006b      	addiu	s0,sp,428
600a6d8e:	0029      	addiu	s0,sp,164
600a6d90:	0029      	addiu	s0,sp,164
600a6d92:	0029      	addiu	s0,sp,164
600a6d94:	0029      	addiu	s0,sp,164
600a6d96:	0029      	addiu	s0,sp,164
600a6d98:	0029      	addiu	s0,sp,164
600a6d9a:	0029      	addiu	s0,sp,164
600a6d9c:	0029      	addiu	s0,sp,164
600a6d9e:	0029      	addiu	s0,sp,164
600a6da0:	0029      	addiu	s0,sp,164
600a6da2:	0029      	addiu	s0,sp,164
600a6da4:	0029      	addiu	s0,sp,164
600a6da6:	0035      	addiu	s0,sp,212
600a6da8:	6805      	li	s0,5
        case MMM_MP_ERR_OPEN_FILE:
            err_status = EG_ERR_OPEN_FILE; //打开文件失败
            break;

        case MMM_MP_ERR_FILE_NOT_SUPPORT: //文件格式不支持
            err_status = EG_ERR_NOT_SUPPORT;
            PRINT_ERR("FILE NOT SUPPORT");
            break;

        case MMM_MP_ERR_FILE_DAMAGED: //文件损毁
            err_status = EG_ERR_NOT_SUPPORT;
            PRINT_ERR("FILE DESTORY");
            break;

        case MMM_MP_ERR_DECODER_ERROR: //解码出错
            err_status = EG_ERR_DECODER_ERROR;
            PRINT_ERR("DECODER ERROR");
            break;

        case MMM_MP_ERR_NO_LICENSE: //无license
            err_status = EG_ERR_NO_LICENSE;
            break;

        case MMM_MP_ERR_SECURE_CLOCK: //DRM时钟错误
            err_status = EG_ERR_SECURE_CLOCK;
            break;

        case MMM_MP_ERR_LICENSE_INFO: //播放次数已满或是播放时间已经到期
            err_status = EG_ERR_DRM_INFO;
            break;

        case MMM_MP_SAMPLE_RATE_NOT_SUPPORT: //采样率不支持
            err_status = EG_ERR_NOT_SUPPORT;
            PRINT_ERR("SAMPLE RATE NOT SUPPORT");
            break;

        default:
            err_status = EG_ERR_DECODER_ERROR; //解码出错
600a6daa:	b42d      	lw	a0,600a6e5c <mengine_save_errno_no+0x100>
            break;
    }
    //保存错误状态
    g_eg_status_p->err_status = err_status;
600a6dac:	9ca0      	lw	a1,0(a0)
600a6dae:	c503      	sb	s0,3(a1)
600a6db0:	6466      	restore	48,ra,s0
600a6db2:	e8a0      	jrc	ra
600a6db4:	6804      	li	s0,4
600a6db6:	0c0f      	la	a0,600a6df0 <mengine_save_errno_no+0x94>
600a6db8:	6d00      	li	a1,0
600a6dba:	b227      	lw	v0,600a6e54 <mengine_save_errno_no+0xf8>
600a6dbc:	67c5      	move	a2,a1
600a6dbe:	ea40      	jalr	v0
600a6dc0:	6f4b      	li	a3,75
600a6dc2:	b427      	lw	a0,600a6e5c <mengine_save_errno_no+0x100>
600a6dc4:	9ca0      	lw	a1,0(a0)
600a6dc6:	c503      	sb	s0,3(a1)
600a6dc8:	6466      	restore	48,ra,s0
600a6dca:	e8a0      	jrc	ra
600a6dcc:	6803      	li	s0,3
600a6dce:	17ed      	b	600a6daa <mengine_save_errno_no+0x4e>
600a6dd0:	6804      	li	s0,4
600a6dd2:	0c0f      	la	a0,600a6e0c <mengine_save_errno_no+0xb0>
600a6dd4:	17f1      	b	600a6db8 <mengine_save_errno_no+0x5c>
600a6dd6:	6804      	li	s0,4
600a6dd8:	0c13      	la	a0,600a6e24 <mengine_save_errno_no+0xc8>
600a6dda:	17ee      	b	600a6db8 <mengine_save_errno_no+0x5c>
600a6ddc:	6805      	li	s0,5
600a6dde:	0c17      	la	a0,600a6e38 <mengine_save_errno_no+0xdc>
600a6de0:	17eb      	b	600a6db8 <mengine_save_errno_no+0x5c>
600a6de2:	6806      	li	s0,6
600a6de4:	17e2      	b	600a6daa <mengine_save_errno_no+0x4e>
600a6de6:	6807      	li	s0,7
600a6de8:	17e0      	b	600a6daa <mengine_save_errno_no+0x4e>
600a6dea:	6808      	li	s0,8
600a6dec:	17de      	b	600a6daa <mengine_save_errno_no+0x4e>
600a6dee:	0000      	addiu	s0,sp,0
600a6df0:	453c      	daddiu	s1,a1,-4
600a6df2:	203e      	beqz	s0,600a6e70 <error_handle2+0x10>
600a6df4:	4153      	daddiu	v0,s1,3
600a6df6:	504d      	slti	s0,77
600a6df8:	454c      	addiu	v0,a1,-4
600a6dfa:	5220      	slti	v0,32
600a6dfc:	5441      	slti	a0,65
600a6dfe:	2045      	beqz	s0,600a6e8a <error_handle2+0x2a>
600a6e00:	4f4e      	addiu	a3,78
600a6e02:	2054      	beqz	s0,600a6eac <error_handle+0x18>
600a6e04:	5553      	slti	a1,83
600a6e06:	5050      	slti	s0,80
600a6e08:	524f      	slti	v0,79
600a6e0a:	0054      	addiu	s0,sp,336
600a6e0c:	453c      	daddiu	s1,a1,-4
600a6e0e:	203e      	beqz	s0,600a6e8c <error_handle2+0x2c>
600a6e10:	4946      	addiu	s1,70
600a6e12:	454c      	addiu	v0,a1,-4
600a6e14:	4e20      	addiu	a2,32
600a6e16:	544f      	slti	a0,79
600a6e18:	5320      	slti	v1,32
600a6e1a:	5055      	slti	s0,85
600a6e1c:	4f50      	addiu	a3,80
600a6e1e:	5452      	slti	a0,82
600a6e20:	0000      	addiu	s0,sp,0
600a6e22:	0000      	addiu	s0,sp,0
600a6e24:	453c      	daddiu	s1,a1,-4
600a6e26:	203e      	beqz	s0,600a6ea4 <error_handle+0x10>
600a6e28:	4946      	addiu	s1,70
600a6e2a:	454c      	addiu	v0,a1,-4
600a6e2c:	4420      	addiu	s1,a0,0
600a6e2e:	5345      	slti	v1,69
600a6e30:	4f54      	addiu	a3,84
600a6e32:	5952      	sltiu	s1,82
600a6e34:	0000      	addiu	s0,sp,0
600a6e36:	0000      	addiu	s0,sp,0
600a6e38:	453c      	daddiu	s1,a1,-4
600a6e3a:	203e      	beqz	s0,600a6eb8 <error_handle+0x24>
600a6e3c:	4544      	addiu	v0,a1,4
600a6e3e:	4f43      	addiu	a3,67
600a6e40:	4544      	addiu	v0,a1,4
600a6e42:	2052      	beqz	s0,600a6ee8 <error_handle+0x54>
600a6e44:	5245      	slti	v0,69
600a6e46:	4f52      	addiu	a3,82
600a6e48:	0052      	addiu	s0,sp,328
600a6e4a:	0000      	addiu	s0,sp,0
600a6e4c:	95fc      	lw	a1,1008(sp)
600a6e4e:	9fc1      	lw	a2,4(a3)
600a6e50:	600d      	bteqz	600a6e6c <error_handle2+0xc>
600a6e52:	bfc2      	lwu	a2,8(a3)
600a6e54:	6011      	bteqz	600a6e78 <error_handle2+0x18>
600a6e56:	bfc2      	lwu	a2,8(a3)
600a6e58:	ffff      	daddiu	a3,sp,124
600a6e5a:	fffe      	daddiu	a3,sp,120
600a6e5c:	95f8      	lw	a1,992(sp)
600a6e5e:	9fc1      	lw	a2,4(a3)

600a6e60 <error_handle2>:
600a6e60:	64e3      	save	24,ra,s0

}

void error_handle2(void)
{
600a6e62:	b209      	lw	v0,600a6e84 <error_handle2+0x24>
    //关闭解码中间件
    stop(STOP_NORMAL);
600a6e64:	ea40      	jalr	v0
600a6e66:	6c00      	li	a0,0
600a6e68:	b408      	lw	a0,600a6e88 <error_handle2+0x28>

    if(g_file_sys_id != -1) {
600a6e6a:	9c60      	lw	v1,0(a0)
600a6e6c:	ea6f      	not	v0,v1
600a6e6e:	2a02      	bnez	v0,600a6e74 <error_handle2+0x14>
600a6e70:	6463      	restore	24,ra,s0
        //获取文件总数(保证未扫描完成时获取到正确的文件总数)
        g_eg_cfg_p->location.dirlocation.file_total = fsel_get_total();
    }
}
600a6e72:	e8a0      	jrc	ra
600a6e74:	b506      	lw	a1,600a6e88 <error_handle2+0x28>
600a6e76:	b207      	lw	v0,600a6e90 <error_handle2+0x30>
600a6e78:	ea40      	jalr	v0
600a6e7a:	9d00      	lw	s0,0(a1)
600a6e7c:	f060 c840 	sh	v0,96(s0)
600a6e80:	6463      	restore	24,ra,s0
600a6e82:	e8a0      	jrc	ra
600a6e84:	6869      	li	s0,105
600a6e86:	6022      	bteqz	600a6ecc <error_handle+0x38>
600a6e88:	9580      	lw	a1,512(sp)
600a6e8a:	9fc1      	lw	a2,4(a3)
600a6e8c:	95ec      	lw	a1,944(sp)
600a6e8e:	9fc1      	lw	a2,4(a3)
600a6e90:	20c5      	beqz	s0,600a6e1c <mengine_save_errno_no+0xc0>
600a6e92:	7a02      	sd	s0,16(v0)

600a6e94 <error_handle>:
600a6e94:	64c3      	save	24,ra

//错误处理
void error_handle(void)
{
600a6e96:	b304      	lw	v1,600a6ea4 <error_handle+0x10>
    //保存出错状态
    mengine_save_errno_no();
600a6e98:	ebc0      	jalrc	v1
600a6e9a:	b204      	lw	v0,600a6ea8 <error_handle+0x14>
    error_handle2();
600a6e9c:	eac0      	jalrc	v0
600a6e9e:	6443      	restore	24,ra
600a6ea0:	e8a0      	jrc	ra
600a6ea2:	0000      	addiu	s0,sp,0
600a6ea4:	6d5d      	li	a1,93
600a6ea6:	600a      	bteqz	600a6ebc <error_handle+0x28>
600a6ea8:	6e61      	li	a2,97
600a6eaa:	600a      	bteqz	600a6ec0 <error_handle+0x2c>
Disassembly of section BANK_CONTROL_1_3:

600e6800 <mengine_vram_write>:
600e6800:	64c3      	save	24,ra
//bank变量，临时用一下
static mengine_config_t s_cfg _BANK_DATA_ATTR_;

void mengine_vram_write(uint8 save_disk)
{
600e6802:	ec11      	zeb	a0
600e6804:	b20a      	lw	v0,600e682c <mengine_vram_write+0x2c>
    //写vram
    sys_vm_write(g_eg_cfg_p,
600e6806:	7410      	cmpi	a0,16
600e6808:	9a40      	lw	v0,0(v0)
600e680a:	6108      	btnez	600e681c <mengine_vram_write+0x1c>
600e680c:	6782      	move	a0,v0
600e680e:	b509      	lw	a1,600e6830 <mengine_vram_write+0x30>
600e6810:	b20a      	lw	v0,600e6838 <mengine_vram_write+0x38>
600e6812:	6ee8      	li	a2,232
600e6814:	ea40      	jalr	v0
600e6816:	6f13      	li	a3,19
600e6818:	6443      	restore	24,ra
600e681a:	e8a0      	jrc	ra
600e681c:	6782      	move	a0,v0
600e681e:	b506      	lw	a1,600e6834 <mengine_vram_write+0x34>
600e6820:	b206      	lw	v0,600e6838 <mengine_vram_write+0x38>
600e6822:	6ee8      	li	a2,232
600e6824:	ea40      	jalr	v0
600e6826:	6f13      	li	a3,19
600e6828:	6443      	restore	24,ra
600e682a:	e8a0      	jrc	ra
600e682c:	95ec      	lw	a1,944(sp)
600e682e:	9fc1      	lw	a2,4(a3)
600e6830:	0000      	addiu	s0,sp,0
600e6832:	000a      	addiu	s0,sp,40
600e6834:	0000      	addiu	s0,sp,0
600e6836:	0009      	addiu	s0,sp,36
600e6838:	6011      	bteqz	600e685c <switch_disk_file_init+0x20>
600e683a:	bfc2      	lwu	a2,8(a3)

600e683c <switch_disk_file_init>:
600e683c:	64f9      	save	72,ra,s0-s1
                 (save_disk == DISK_H) ? VM_CARD_BKINFO : VM_UHOST_BKINFO,
                 sizeof(*g_eg_cfg_p));
}

//始化文件选择器，定位到上次退出的文件
bool switch_disk_file_init(void)
{
600e683e:	b143      	lw	s1,600e6948 <.L9+0x3a>
    //文件选择器初始化参数
    fsel_param_t switch_init_param;
    //后缀名buffer
    uint8 exname[4];
    //文件选择类型
    //fsel_type_e file_source;
    //路径信息指针
    file_location_t *loact_ptr = &g_eg_cfg_p->location.dirlocation;
600e6840:	b345      	lw	v1,600e6954 <.L9+0x46>
    //初始化文件选择器结果
    bool init_result = FALSE;

    //介质存在标志
    int8 uhost_exist = -1;
    int8 card_exist = -1;

    g_file_sys_id = -1;
    //卡存在否
    //禁止访问列表
    g_list_access_allow = FALSE;

    if(g_card_support == 1) {
600e6842:	99e0      	lw	a3,0(s1)
600e6844:	6801      	li	s0,1
600e6846:	d70b      	sw	a3,44(sp)
600e6848:	a340      	lbu	v0,0(v1)
600e684a:	b541      	lw	a1,600e694c <.L9+0x3e>
600e684c:	b441      	lw	a0,600e6950 <.L9+0x42>
600e684e:	e80b      	neg	s0
600e6850:	47c4      	addiu	a2,a3,4
600e6852:	6900      	li	s1,0
600e6854:	7201      	cmpi	v0,1
600e6856:	d60a      	sw	a2,40(sp)
600e6858:	d00c      	sw	s0,48(sp)
600e685a:	dd00      	sw	s0,0(a1)
600e685c:	c420      	sb	s1,0(a0)
600e685e:	6037      	bteqz	600e68ce <switch_disk_file_init+0x92>
600e6860:	b43f      	lw	a0,600e695c <.L9+0x4e>
        //卡存在否
        card_exist = (int8) sys_detect_disk(DRV_GROUP_STG_CARD);
    }
    if(g_uhost_support == 1) {
600e6862:	a460      	lbu	v1,0(a0)
600e6864:	7301      	cmpi	v1,1
600e6866:	602a      	bteqz	600e68bc <switch_disk_file_init+0x80>
600e6868:	960c      	lw	a2,48(sp)
        //u盘存在否
        uhost_exist = (int8) sys_detect_disk(DRV_GROUP_STG_UHOST);
    }

    //卡和u盘都不存在
    if((card_exist == -1) && (uhost_exist == -1)) {
600e686a:	edcf      	not	a1,a2
600e686c:	5d01      	sltiu	a1,1
600e686e:	67b8      	move	a1,t8
600e6870:	2502      	beqz	a1,600e6876 <switch_disk_file_init+0x3a>
600e6872:	ef0f      	not	a3,s0
600e6874:	2719      	beqz	a3,600e68a8 <switch_disk_file_init+0x6c>
600e6876:	920b      	lw	v0,44(sp)
        goto switch_init_over;
    }
    if((loact_ptr->disk == DISK_U) && (uhost_exist == -1)) {
600e6878:	a284      	lbu	a0,4(v0)
600e687a:	6764      	move	v1,a0
600e687c:	eb11      	zeb	v1
600e687e:	7320      	cmpi	v1,32
600e6880:	601a      	bteqz	600e68b6 <switch_disk_file_init+0x7a>
600e6882:	7310      	cmpi	v1,16
        //拔卡出错,且u盘存在,则切换到u盘播放
        goto switch_init_over;
    }
    if((loact_ptr->disk == DISK_H) && (card_exist == -1)) {
600e6884:	6101      	btnez	600e6888 <switch_disk_file_init+0x4c>
600e6886:	2d10      	bnez	a1,600e68a8 <switch_disk_file_init+0x6c>
600e6888:	b336      	lw	v1,600e6960 <.L9+0x52>
        //拔卡出错,且u盘存在,则切换到卡播放
        goto switch_init_over;
    }

    //文件选择器初始化接口的参数设置

    //盘符信息
    switch_init_param.disk = loact_ptr->disk;

    switch_init_param.fsel_type = g_fsel_type;
600e688a:	b537      	lw	a1,600e6964 <.L9+0x56>

    //循环模式
    switch_init_param.fsel_mode = FSEL_MODE_LOOPALL;

    //bitmap 设置
    switch_init_param.file_type_bit = MUSIC_BITMAP;
600e688c:	a3c0      	lbu	a2,0(v1)
600e688e:	67fd      	move	a3,sp
600e6890:	b236      	lw	v0,600e6968 <.L9+0x5a>

    //文件选择器初始化
    g_file_sys_id = fsel_init(&switch_init_param, 0);
600e6892:	c79a      	sb	a0,26(a3)
600e6894:	d507      	sw	a1,28(sp)
600e6896:	0406      	addiu	a0,sp,24
600e6898:	c7d8      	sb	a2,24(a3)
600e689a:	c739      	sb	s1,25(a3)
600e689c:	ea40      	jalr	v0
600e689e:	67b1      	move	a1,s1
600e68a0:	b42b      	lw	a0,600e694c <.L9+0x3e>
600e68a2:	eb4f      	not	v1,v0
    //初始化成功
    if(g_file_sys_id != -1) {
600e68a4:	dc40      	sw	v0,0(a0)
600e68a6:	2b1c      	bnez	v1,600e68e0 <switch_disk_file_init+0xa4>
600e68a8:	b536      	lw	a1,600e6980 <.L9+0x72>
        //设置上次退出的文件
        init_result = fsel_set_location(loact_ptr);
        if(init_result == TRUE) {
            //比较后缀名
            vfs_get_name(g_file_sys_id, exname, 0);
            if(libc_strncmp(exname, loact_ptr->file_info.file_extend_info.file_ext, sizeof(exname)) != 0) {
                init_result = FALSE;
            }
        }

        //设置失败
        if(init_result == FALSE) {
            //清除断点信息
            libc_memset(&g_eg_cfg_p->bk_infor, 0, sizeof(mmm_mp_bp_info_t));

            //获取当前模式下的第一个可播放文件
            init_result = fsel_get_nextfile(loact_ptr->file_info.file_extend_info.file_ext);
            //找到可播放文件
            if(init_result == TRUE) {
                //获取当前文件的location信息
                init_result = fsel_get_location(loact_ptr);
            }
        }
#ifdef MENGINE_ID3_SUPPORT
        if(init_result == TRUE) {
            mengine_getid3_done(&g_eg_cfg_p->location);
        }
#endif
#ifdef DIR_NAME_SUPPORT
        if(init_result == TRUE) {
            fsel_get_dir_name(g_dir_name_buf, sizeof(g_dir_name_buf) / 2 - 2, &(g_eg_cfg_p->location.dirlocation));
        }
#endif
    }

switch_init_over:
    if(init_result == FALSE) {
        //没有可播放文件
        //loact_ptr->file_total = 0;

        //设置状态为出错无文件
        g_eg_status_p->err_status = EG_ERR_NO_FILE;
600e68aa:	6b01      	li	v1,1
600e68ac:	9d80      	lw	a0,0(a1)
600e68ae:	c463      	sb	v1,3(a0)
600e68b0:	6751      	move	v0,s1
    }
    return init_result;
}
600e68b2:	6479      	restore	72,ra,s0-s1
600e68b4:	e8a0      	jrc	ra
600e68b6:	ee0f      	not	a2,s0
600e68b8:	2ee4      	bnez	a2,600e6882 <switch_disk_file_init+0x46>
600e68ba:	17f6      	b	600e68a8 <switch_disk_file_init+0x6c>
600e68bc:	b027      	lw	s0,600e6958 <.L9+0x4a>
600e68be:	6c02      	li	a0,2
600e68c0:	67b1      	move	a1,s1
600e68c2:	67d1      	move	a2,s1
600e68c4:	e840      	jalr	s0
600e68c6:	6f09      	li	a3,9
600e68c8:	6702      	move	s0,v0
600e68ca:	e891      	seb	s0
600e68cc:	17cd      	b	600e6868 <switch_disk_file_init+0x2c>
600e68ce:	b223      	lw	v0,600e6958 <.L9+0x4a>
600e68d0:	6c01      	li	a0,1
600e68d2:	67b1      	move	a1,s1
600e68d4:	67d1      	move	a2,s1
600e68d6:	ea40      	jalr	v0
600e68d8:	6f09      	li	a3,9
600e68da:	ea91      	seb	v0
600e68dc:	d20c      	sw	v0,48(sp)
600e68de:	17c0      	b	600e6860 <switch_disk_file_init+0x24>
600e68e0:	b123      	lw	s1,600e696c <.L9+0x5e>
600e68e2:	e940      	jalr	s1
600e68e4:	940a      	lw	a0,40(sp)
600e68e6:	7201      	cmpi	v0,1
600e68e8:	6722      	move	s1,v0
600e68ea:	6013      	bteqz	600e6912 <.L9+0x4>
600e68ec:	29e1      	bnez	s1,600e68b0 <switch_disk_file_init+0x74>
600e68ee:	b617      	lw	a2,600e6948 <.L9+0x3a>
600e68f0:	b221      	lw	v0,600e6974 <.L9+0x66>
600e68f2:	9e80      	lw	a0,0(a2)
600e68f4:	67b1      	move	a1,s1
600e68f6:	4c7f      	addiu	a0,127
600e68f8:	4c1d      	addiu	a0,29
600e68fa:	6e0c      	li	a2,12
600e68fc:	ea40      	jalr	v0
600e68fe:	6f01      	li	a3,1
600e6900:	970a      	lw	a3,40(sp)
600e6902:	b11e      	lw	s1,600e6978 <.L9+0x6a>
600e6904:	e940      	jalr	s1
600e6906:	4784      	addiu	a0,a3,4
600e6908:	7201      	cmpi	v0,1
600e690a:	6722      	move	s1,v0
600e690c:	6016      	bteqz	600e693a <.L9+0x2c>

600e690e <.L9>:
600e690e:	29d0      	bnez	s1,600e68b0 <switch_disk_file_init+0x74>
600e6910:	17cb      	b	600e68a8 <switch_disk_file_init+0x6c>
600e6912:	b00f      	lw	s0,600e694c <.L9+0x3e>
600e6914:	6e00      	li	a2,0
600e6916:	9880      	lw	a0,0(s0)
600e6918:	6d02      	li	a1,2
600e691a:	0008      	addiu	s0,sp,32
600e691c:	b215      	lw	v0,600e6970 <.L9+0x62>
600e691e:	67e6      	move	a3,a2
600e6920:	d504      	sw	a1,16(sp)
600e6922:	ea40      	jalr	v0
600e6924:	67b0      	move	a1,s0
600e6926:	950b      	lw	a1,44(sp)
600e6928:	b213      	lw	v0,600e6974 <.L9+0x66>
600e692a:	6790      	move	a0,s0
600e692c:	4d08      	addiu	a1,8
600e692e:	6e04      	li	a2,4
600e6930:	ea40      	jalr	v0
600e6932:	6f05      	li	a3,5
600e6934:	22db      	beqz	v0,600e68ec <switch_disk_file_init+0xb0>
600e6936:	6900      	li	s1,0
600e6938:	17da      	b	600e68ee <switch_disk_file_init+0xb2>
600e693a:	b111      	lw	s1,600e697c <.L9+0x6e>
600e693c:	e940      	jalr	s1
600e693e:	940a      	lw	a0,40(sp)
600e6940:	6722      	move	s1,v0
600e6942:	29b6      	bnez	s1,600e68b0 <switch_disk_file_init+0x74>
600e6944:	17b1      	b	600e68a8 <switch_disk_file_init+0x6c>
600e6946:	0000      	addiu	s0,sp,0
600e6948:	95ec      	lw	a1,944(sp)
600e694a:	9fc1      	lw	a2,4(a3)
600e694c:	9580      	lw	a1,512(sp)
600e694e:	9fc1      	lw	a2,4(a3)
600e6950:	95e9      	lw	a1,932(sp)
600e6952:	9fc1      	lw	a2,4(a3)
600e6954:	95e5      	lw	a1,916(sp)
600e6956:	9fc1      	lw	a2,4(a3)
600e6958:	6011      	bteqz	600e697c <.L9+0x6e>
600e695a:	bfc2      	lwu	a2,8(a3)
600e695c:	95e4      	lw	a1,912(sp)
600e695e:	9fc1      	lw	a2,4(a3)
600e6960:	95df      	lw	a1,892(sp)
600e6962:	9fc1      	lw	a2,4(a3)
600e6964:	0c00      	la	a0,600e6964 <.L9+0x56>
600e6966:	7600      	cmpi	a2,0
600e6968:	1ea1 7a02 	jalx	60d5e808 <i2s_mfp_cfg+0x2b7e00>
600e696c:	219d      	beqz	s1,600e68a8 <switch_disk_file_init+0x6c>
600e696e:	7a02      	sd	s0,16(v0)
600e6970:	6015      	bteqz	600e699c <mengine_switch_disk+0x18>
600e6972:	bfc2      	lwu	a2,8(a3)
600e6974:	6009      	bteqz	600e6988 <mengine_switch_disk+0x4>
600e6976:	bfc2      	lwu	a2,8(a3)
600e6978:	2005      	beqz	s0,600e6984 <mengine_switch_disk>
600e697a:	7a02      	sd	s0,16(v0)
600e697c:	21cd      	beqz	s1,600e6918 <.L9+0xa>
600e697e:	7a02      	sd	s0,16(v0)
600e6980:	95f8      	lw	a1,992(sp)
600e6982:	9fc1      	lw	a2,4(a3)

600e6984 <mengine_switch_disk>:
600e6984:	f004 64f6 	save	a0,48,ra,s0-s1

//切换磁盘
app_result_e mengine_switch_disk(void *msg_ptr)
{
600e6988:	b142      	lw	s1,600e6a90 <mengine_switch_disk+0x10c>
    //存放目标磁盘盘符的数据指针
    private_msg_t *data_ptr = (private_msg_t *) msg_ptr;
    uint8 dest_disk;
    bool ret_val;
    uint8 temp_buf[4];

    //升频
    adjust_freq_set_level(AP_BACK_LOW_PRIO, FREQ_LEVEL10, FREQ_NULL);
600e698a:	6d0a      	li	a1,10
600e698c:	6c06      	li	a0,6
600e698e:	6e00      	li	a2,0
600e6990:	e940      	jalr	s1
600e6992:	6f03      	li	a3,3
600e6994:	b640      	lw	a2,600e6a94 <mengine_switch_disk+0x110>

    temp_buf[0] = 'W';
    temp_buf[1] = 'A';
    temp_buf[2] = 'V';
    temp_buf[3] = 0;

    g_eg_status_p->err_status = EG_ERR_NONE;
600e6996:	673d      	move	s1,sp
600e6998:	9e80      	lw	a0,0(a2)
600e699a:	6857      	li	s0,87
600e699c:	c118      	sb	s0,24(s1)
600e699e:	6b41      	li	v1,65
600e69a0:	6d00      	li	a1,0
600e69a2:	6a56      	li	v0,86
600e69a4:	67fd      	move	a3,sp
600e69a6:	b03d      	lw	s0,600e6a98 <mengine_switch_disk+0x114>

    //停止当前歌曲播放
    stop(STOP_NORMAL);
600e69a8:	c179      	sb	v1,25(s1)
600e69aa:	c15a      	sb	v0,26(s1)
600e69ac:	c7bb      	sb	a1,27(a3)
600e69ae:	c4a3      	sb	a1,3(a0)
600e69b0:	e840      	jalr	s0
600e69b2:	6c00      	li	a0,0
600e69b4:	b33a      	lw	v1,600e6a9c <mengine_switch_disk+0x118>
    if(g_file_sys_id != -1) {
600e69b6:	9b80      	lw	a0,0(v1)
600e69b8:	ea8f      	not	v0,a0
600e69ba:	2a46      	bnez	v0,600e6a48 <mengine_switch_disk+0xc4>
600e69bc:	900c      	lw	s0,48(sp)
        vfs_get_name(g_file_sys_id, g_eg_cfg_p->name_buf,
                     sizeof(g_eg_cfg_p->name_buf) / 2 - 2);
#ifdef CHECK_BK_DIR
        fsel_get_dir_name(g_eg_cfg_p->dir_name, sizeof(g_eg_cfg_p->dir_name) / 2 - 2,
                          &g_eg_cfg_p->location.dirlocation);
#endif

        //关闭文件选择器
        fsel_exit();
    }

    //禁止访问列表
    //g_list_access_allow = FALSE;

    //获取目标磁盘盘符
    dest_disk = *(uint8 *)(data_ptr->msg.content.addr);
600e69be:	b439      	lw	a0,600e6aa0 <mengine_switch_disk+0x11c>
    //保存断点
    mengine_vram_write(g_eg_cfg_p->location.dirlocation.disk);
600e69c0:	98c1      	lw	a2,4(s0)
600e69c2:	9ca0      	lw	a1,0(a0)
600e69c4:	a600      	lbu	s0,0(a2)
600e69c6:	b33b      	lw	v1,600e6ab0 <mengine_switch_disk+0x12c>
600e69c8:	eb40      	jalr	v1
600e69ca:	a584      	lbu	a0,4(a1)
600e69cc:	7010      	cmpi	s0,16
    sys_vm_read(&s_cfg,
600e69ce:	613a      	btnez	600e6a44 <mengine_switch_disk+0xc0>
600e69d0:	b53a      	lw	a1,600e6ab8 <mengine_switch_disk+0x134>
600e69d2:	b439      	lw	a0,600e6ab4 <mengine_switch_disk+0x130>
600e69d4:	b13b      	lw	s1,600e6ac0 <mengine_switch_disk+0x13c>
600e69d6:	6ee8      	li	a2,232
600e69d8:	e940      	jalr	s1
600e69da:	6f12      	li	a3,18
600e69dc:	b131      	lw	s1,600e6aa0 <mengine_switch_disk+0x11c>
                (dest_disk == DISK_H) ? VM_CARD_BKINFO : VM_UHOST_BKINFO,
                sizeof(s_cfg));
    //vram断点值
    libc_memcpy(&g_eg_cfg_p->location, &s_cfg.location, sizeof(mengine_bkinfo_t));
600e69de:	b536      	lw	a1,600e6ab4 <mengine_switch_disk+0x130>
600e69e0:	9980      	lw	a0,0(s1)
600e69e2:	b339      	lw	v1,600e6ac4 <mengine_switch_disk+0x140>
600e69e4:	4484      	addiu	a0,a0,4
600e69e6:	45a4      	addiu	a1,a1,4
600e69e8:	6ea4      	li	a2,164
600e69ea:	eb40      	jalr	v1
600e69ec:	6f00      	li	a3,0
600e69ee:	b737      	lw	a3,600e6ac8 <mengine_switch_disk+0x144>

    g_fsel_type = FSEL_TYPE_COMMONDIR;
600e69f0:	9940      	lw	v0,0(s1)

    g_eg_cfg_p->location.dirlocation.disk = dest_disk;
600e69f2:	6b00      	li	v1,0
600e69f4:	c760      	sb	v1,0(a3)
600e69f6:	1860 9a0f 	jal	600e683c <switch_disk_file_init>

    ret_val = switch_disk_file_init();
600e69fa:	c204      	sb	s0,4(v0)
600e69fc:	7201      	cmpi	v0,1

    if(ret_val == TRUE) {
600e69fe:	6702      	move	s0,v0
600e6a00:	6114      	btnez	600e6a2a <mengine_switch_disk+0xa6>
600e6a02:	9940      	lw	v0,0(s1)
        if(g_eg_cfg_p->bk_infor.bp_time_offset != 0) {
600e6a04:	f080 9a9c 	lw	a0,156(v0)
600e6a08:	240c      	beqz	a0,600e6a22 <mengine_switch_disk+0x9e>
600e6a0a:	6782      	move	a0,v0
            //修改插拔磁盘时wav的文件位置信息出错导致断点无法播放的问题
            if(libc_strncmp(g_eg_cfg_p->location.dirlocation.file_info.file_extend_info.file_ext, temp_buf, 4) == 0) {
600e6a0c:	b02e      	lw	s0,600e6ac4 <mengine_switch_disk+0x140>
600e6a0e:	4c08      	addiu	a0,8
600e6a10:	0506      	addiu	a1,sp,24
600e6a12:	6e04      	li	a2,4
600e6a14:	e840      	jalr	s0
600e6a16:	6f05      	li	a3,5
600e6a18:	2a03      	bnez	v0,600e6a20 <mengine_switch_disk+0x9c>
600e6a1a:	99c0      	lw	a2,0(s1)
                //清除文件位置信息
                g_eg_cfg_p->bk_infor.bp_file_offset = 0;
600e6a1c:	f0a0 de40 	sw	v0,160(a2)
600e6a20:	6c01      	li	a0,1
            }
            ret_val = play(PLAY_RESUME); //播放(play中会先进行setfile)
600e6a22:	b22b      	lw	v0,600e6acc <mengine_switch_disk+0x148>
        } else {
            ret_val = play(PLAY_NORMAL); //播放(play中会先进行setfile)
600e6a24:	eac0      	jalrc	v0
600e6a26:	6702      	move	s0,v0
600e6a28:	2223      	beqz	v0,600e6a70 <mengine_switch_disk+0xec>
        }
        //播放出错
        if(ret_val == FALSE) {
600e6a2a:	940c      	lw	a0,48(sp)
            error_handle();
        }
    }
    //返回
    mengine_reply_msg(msg_ptr, ret_val);
600e6a2c:	b32a      	lw	v1,600e6ad4 <mengine_switch_disk+0x150>
600e6a2e:	eb40      	jalr	v1
600e6a30:	67b0      	move	a1,s0
600e6a32:	b218      	lw	v0,600e6a90 <mengine_switch_disk+0x10c>

    //降频
    adjust_freq_set_level(AP_BACK_LOW_PRIO, FREQ_LEVEL2, FREQ_NULL);
600e6a34:	6c06      	li	a0,6
600e6a36:	6d02      	li	a1,2
600e6a38:	6e00      	li	a2,0
600e6a3a:	ea40      	jalr	v0
600e6a3c:	6f03      	li	a3,3
600e6a3e:	6a01      	li	v0,1

    return RESULT_IGNORE;
}
600e6a40:	6476      	restore	48,ra,s0-s1
600e6a42:	e8a0      	jrc	ra
600e6a44:	b51e      	lw	a1,600e6ab8 <mengine_switch_disk+0x134>
600e6a46:	17c5      	b	600e69d2 <mengine_switch_disk+0x4e>
600e6a48:	b116      	lw	s1,600e6aa0 <mengine_switch_disk+0x11c>
600e6a4a:	6f02      	li	a3,2
600e6a4c:	99a0      	lw	a1,0(s1)
600e6a4e:	b216      	lw	v0,600e6aa4 <mengine_switch_disk+0x120>
600e6a50:	4d7f      	addiu	a1,127
600e6a52:	d704      	sw	a3,16(sp)
600e6a54:	4d29      	addiu	a1,41
600e6a56:	6f00      	li	a3,0
600e6a58:	ea40      	jalr	v0
600e6a5a:	6e0e      	li	a2,14
600e6a5c:	99c0      	lw	a2,0(s1)
600e6a5e:	b013      	lw	s0,600e6aa8 <mengine_switch_disk+0x124>
600e6a60:	f0c0 4688 	addiu	a0,a2,200
600e6a64:	6d0e      	li	a1,14
600e6a66:	e840      	jalr	s0
600e6a68:	46c4      	addiu	a2,a2,4
600e6a6a:	b211      	lw	v0,600e6aac <mengine_switch_disk+0x128>
600e6a6c:	eac0      	jalrc	v0
600e6a6e:	17a6      	b	600e69bc <mengine_switch_disk+0x38>
600e6a70:	b318      	lw	v1,600e6ad0 <mengine_switch_disk+0x14c>
600e6a72:	ebc0      	jalrc	v1
600e6a74:	940c      	lw	a0,48(sp)
600e6a76:	b318      	lw	v1,600e6ad4 <mengine_switch_disk+0x150>
600e6a78:	eb40      	jalr	v1
600e6a7a:	67b0      	move	a1,s0
600e6a7c:	b205      	lw	v0,600e6a90 <mengine_switch_disk+0x10c>
600e6a7e:	6c06      	li	a0,6
600e6a80:	6d02      	li	a1,2
600e6a82:	6e00      	li	a2,0
600e6a84:	ea40      	jalr	v0
600e6a86:	6f03      	li	a3,3
600e6a88:	6a01      	li	v0,1
600e6a8a:	6476      	restore	48,ra,s0-s1
600e6a8c:	e8a0      	jrc	ra
600e6a8e:	0000      	addiu	s0,sp,0
600e6a90:	6005      	bteqz	600e6a9c <mengine_switch_disk+0x118>
600e6a92:	bfc2      	lwu	a2,8(a3)
600e6a94:	95f8      	lw	a1,992(sp)
600e6a96:	9fc1      	lw	a2,4(a3)
600e6a98:	6869      	li	s0,105
600e6a9a:	6022      	bteqz	600e6ae0 <mengine_list_access_allow+0x8>
600e6a9c:	9580      	lw	a1,512(sp)
600e6a9e:	9fc1      	lw	a2,4(a3)
600e6aa0:	95ec      	lw	a1,944(sp)
600e6aa2:	9fc1      	lw	a2,4(a3)
600e6aa4:	6015      	bteqz	600e6ad0 <mengine_switch_disk+0x14c>
600e6aa6:	bfc2      	lwu	a2,8(a3)
600e6aa8:	8df1      	lh	a3,34(a1)
600e6aaa:	7b02      	sd	s0,16(v1)
600e6aac:	1f75 7a02 	jalx	6aede808 <i2s_mfp_cfg+0xa437e00>
600e6ab0:	6801      	li	s0,1
600e6ab2:	600e      	bteqz	600e6ad0 <mengine_switch_disk+0x14c>
600e6ab4:	6d5c      	li	a1,92
600e6ab6:	600e      	bteqz	600e6ad4 <mengine_switch_disk+0x150>
600e6ab8:	0000      	addiu	s0,sp,0
600e6aba:	000a      	addiu	s0,sp,40
600e6abc:	0000      	addiu	s0,sp,0
600e6abe:	0009      	addiu	s0,sp,36
600e6ac0:	6011      	bteqz	600e6ae4 <mengine_list_access_allow+0xc>
600e6ac2:	bfc2      	lwu	a2,8(a3)
600e6ac4:	6009      	bteqz	600e6ad8 <mengine_list_access_allow>
600e6ac6:	bfc2      	lwu	a2,8(a3)
600e6ac8:	95df      	lw	a1,892(sp)
600e6aca:	9fc1      	lw	a2,4(a3)
600e6acc:	6bc9      	li	v1,201
600e6ace:	6022      	bteqz	600e6b14 <mengine_set_playmode+0x20>
600e6ad0:	6e95      	li	a2,149
600e6ad2:	600a      	bteqz	600e6ae8 <mengine_list_access_allow+0x10>
600e6ad4:	6261      	sw	ra,388(sp)
600e6ad6:	bfc2      	lwu	a2,8(a3)

600e6ad8 <mengine_list_access_allow>:
600e6ad8:	64c3      	save	24,ra

//访问列表开关打开
app_result_e mengine_list_access_allow(void *msg_ptr)
{
600e6ada:	b305      	lw	v1,600e6aec <mengine_list_access_allow+0x14>
    g_list_access_allow = TRUE;
600e6adc:	6d01      	li	a1,1
600e6ade:	b205      	lw	v0,600e6af0 <mengine_list_access_allow+0x18>
    //返回成功
    mengine_reply_msg(msg_ptr, TRUE);
600e6ae0:	c3a0      	sb	a1,0(v1)
600e6ae2:	ea40      	jalr	v0
600e6ae4:	6d01      	li	a1,1
600e6ae6:	6a01      	li	v0,1
    return RESULT_IGNORE;
}
600e6ae8:	6443      	restore	24,ra
600e6aea:	e8a0      	jrc	ra
600e6aec:	95e9      	lw	a1,932(sp)
600e6aee:	9fc1      	lw	a2,4(a3)
600e6af0:	6261      	sw	ra,388(sp)
600e6af2:	bfc2      	lwu	a2,8(a3)

600e6af4 <mengine_set_playmode>:
600e6af4:	64e3      	save	24,ra,s0

//设置循环模式
app_result_e mengine_set_playmode(void *msg_ptr)
{
600e6af6:	9c41      	lw	v0,4(a0)
    //设置循环模式的指针
    private_msg_t *data_ptr = (private_msg_t *) msg_ptr;
    uint8 cur_mode;

    //获取当前循环模式
    cur_mode = *(uint8 *)(data_ptr->msg.content.addr);
600e6af8:	6704      	move	s0,a0
600e6afa:	a280      	lbu	a0,0(v0)
600e6afc:	7403      	cmpi	a0,3

    if(cur_mode == FSEL_MODE_RANOM) {
600e6afe:	6112      	btnez	600e6b24 <mengine_set_playmode+0x30>
600e6b00:	b613      	lw	a2,600e6b4c <mengine_set_playmode+0x58>
        g_shuffle_flag = SHUFFLE;
600e6b02:	b215      	lw	v0,600e6b54 <mengine_set_playmode+0x60>
        g_repeat_mode = FSEL_MODE_LOOPALL;
    } else {
        g_shuffle_flag = SHUFFLE_NONE;
        g_repeat_mode = cur_mode;
    }

    //暂停或则停止时设置循环模式
    if((g_eg_status_p->play_status == StopSta) || (g_eg_status_p->play_status == PauseSta)) {
600e6b04:	6f10      	li	a3,16
600e6b06:	c6e0      	sb	a3,0(a2)
600e6b08:	9ae0      	lw	a3,0(v0)
600e6b0a:	b512      	lw	a1,600e6b50 <mengine_set_playmode+0x5c>
600e6b0c:	a7c0      	lbu	a2,0(a3)
600e6b0e:	6b00      	li	v1,0
600e6b10:	5e02      	sltiu	a2,2
600e6b12:	c560      	sb	v1,0(a1)
600e6b14:	6111      	btnez	600e6b38 <mengine_set_playmode+0x44>
600e6b16:	b312      	lw	v1,600e6b5c <mengine_set_playmode+0x68>
        fsel_set_mode(cur_mode); //设置循环模式
    }

    //返回成功
    mengine_reply_msg(msg_ptr, TRUE);
600e6b18:	6790      	move	a0,s0
600e6b1a:	eb40      	jalr	v1
600e6b1c:	6d01      	li	a1,1
600e6b1e:	6a01      	li	v0,1

    return RESULT_IGNORE;
}
600e6b20:	6463      	restore	24,ra,s0
600e6b22:	e8a0      	jrc	ra
600e6b24:	b20b      	lw	v0,600e6b4c <mengine_set_playmode+0x58>
600e6b26:	b50a      	lw	a1,600e6b4c <mengine_set_playmode+0x58>
600e6b28:	c280      	sb	a0,0(v0)
600e6b2a:	b20b      	lw	v0,600e6b54 <mengine_set_playmode+0x60>
600e6b2c:	6b00      	li	v1,0
600e6b2e:	9ae0      	lw	a3,0(v0)
600e6b30:	c560      	sb	v1,0(a1)
600e6b32:	a7c0      	lbu	a2,0(a3)
600e6b34:	5e02      	sltiu	a2,2
600e6b36:	60ef      	bteqz	600e6b16 <mengine_set_playmode+0x22>
600e6b38:	b208      	lw	v0,600e6b58 <mengine_set_playmode+0x64>
600e6b3a:	eac0      	jalrc	v0
600e6b3c:	b308      	lw	v1,600e6b58 <mengine_set_playmode+0x64>
600e6b3e:	6790      	move	a0,s0
600e6b40:	eb40      	jalr	v1
600e6b42:	6d01      	li	a1,1
600e6b44:	6a01      	li	v0,1
600e6b46:	6463      	restore	24,ra,s0
600e6b48:	e8a0      	jrc	ra
600e6b4a:	0000      	addiu	s0,sp,0
600e6b4c:	95e1      	lw	a1,900(sp)
600e6b4e:	9fc1      	lw	a2,4(a3)
600e6b50:	95e6      	lw	a1,920(sp)
600e6b52:	9fc1      	lw	a2,4(a3)
600e6b54:	95f8      	lw	a1,992(sp)
600e6b56:	9fc1      	lw	a2,4(a3)
600e6b58:	2121      	beqz	s1,600e6b9c <mengine_set_filepath+0x3c>
600e6b5a:	7a02      	sd	s0,16(v0)
600e6b5c:	6261      	sw	ra,388(sp)
600e6b5e:	bfc2      	lwu	a2,8(a3)

600e6b60 <mengine_set_filepath>:
600e6b60:	f004 64f5 	save	a0,40,ra,s0-s1

//设置播放文件路径信息
app_result_e mengine_set_filepath(void *msg_ptr)
{
600e6b64:	9c01      	lw	s0,4(a0)
    bool ret_vals;
    //消息指针
    private_msg_t *data_ptr = (private_msg_t *) msg_ptr;
    //路径信息指针
    file_path_info_t *locat_info = (file_path_info_t *) data_ptr->msg.content.addr;
600e6b66:	b63a      	lw	a2,600e6c4c <mengine_set_filepath+0xec>
    //盘符
    uint8 disk_old = g_eg_cfg_p->location.dirlocation.disk;
600e6b68:	a084      	lbu	a0,4(s0)
    uint8 disk_new = locat_info->file_path.dirlocation.disk;
600e6b6a:	9ea0      	lw	a1,0(a2)
600e6b6c:	b239      	lw	v0,600e6c50 <mengine_set_filepath+0xf0>

    fsel_type_e cur_type = locat_info->file_source;
    ret_vals = stop(STOP_NORMAL); //停止播放
600e6b6e:	a524      	lbu	s1,4(a1)
600e6b70:	d404      	sw	a0,16(sp)
600e6b72:	a060      	lbu	v1,0(s0)
600e6b74:	6c00      	li	a0,0
600e6b76:	ea40      	jalr	v0
600e6b78:	d305      	sw	v1,20(sp)
600e6b7a:	9205      	lw	v0,20(sp)

    if(cur_type == FSEL_TYPE_SDFILE) {
600e6b7c:	7202      	cmpi	v0,2
600e6b7e:	604f      	bteqz	600e6c1e <mengine_set_filepath+0xbe>
600e6b80:	9304      	lw	v1,16(sp)
        libc_memcpy(g_file_name, locat_info->file_path.dirlocation.file_info.file_extend_info.file_ext, 12);
        ret_vals = TRUE;
        g_mengine_enter_mode = ENTER_ALARM;
    } else {
        //录音文件播放时不会走这个分支
        //(刚才是磁盘播放，此时是换盘)
        if((disk_new != disk_old) && (g_mengine_enter_mode == ENTER_MUSIC_START)) {
600e6b82:	eb2a      	cmp	v1,s1
600e6b84:	613b      	btnez	600e6bfc <mengine_set_filepath+0x9c>
600e6b86:	b636      	lw	a2,600e6c5c <mengine_set_filepath+0xfc>
600e6b88:	a640      	lbu	v0,0(a2)
600e6b8a:	ea11      	zeb	v0
            mengine_vram_write(disk_old);
        }
        //alarm 闹钟设置了磁盘播放
        if(g_mengine_enter_mode == ENTER_ALARM) {
600e6b8c:	7202      	cmpi	v0,2
600e6b8e:	6041      	bteqz	600e6c12 <mengine_set_filepath+0xb2>
600e6b90:	9404      	lw	a0,16(sp)
            libc_memcpy(&g_eg_cfg_p->location, &locat_info->file_path, sizeof(file_location_t));
        } else {
            sys_vm_read(&s_cfg,
600e6b92:	7410      	cmpi	a0,16
600e6b94:	6159      	btnez	600e6c48 <mengine_set_filepath+0xe8>
600e6b96:	b535      	lw	a1,600e6c68 <mengine_set_filepath+0x108>
600e6b98:	b433      	lw	a0,600e6c64 <mengine_set_filepath+0x104>
600e6b9a:	b236      	lw	v0,600e6c70 <mengine_set_filepath+0x110>
600e6b9c:	6ee8      	li	a2,232
600e6b9e:	ea40      	jalr	v0
600e6ba0:	6f12      	li	a3,18
600e6ba2:	b22b      	lw	v0,600e6c4c <mengine_set_filepath+0xec>
                        (disk_new == DISK_H) ? VM_CARD_BKINFO : VM_UHOST_BKINFO,
                        sizeof(s_cfg));

            //磁盘文件选择
            //会转为music播放,音乐播放时不会转为alarm
            g_mengine_enter_mode = ENTER_MUSIC_START;
            //{
            //vram断点值
            libc_memcpy(&g_eg_cfg_p->location, &s_cfg.location, sizeof(mengine_bkinfo_t));
600e6ba4:	b72e      	lw	a3,600e6c5c <mengine_set_filepath+0xfc>
600e6ba6:	9ac0      	lw	a2,0(v0)
600e6ba8:	b52f      	lw	a1,600e6c64 <mengine_set_filepath+0x104>
600e6baa:	6b00      	li	v1,0
600e6bac:	4684      	addiu	a0,a2,4
600e6bae:	c760      	sb	v1,0(a3)
600e6bb0:	45a4      	addiu	a1,a1,4
600e6bb2:	6ea4      	li	a2,164
600e6bb4:	b229      	lw	v0,600e6c58 <mengine_set_filepath+0xf8>
600e6bb6:	ea40      	jalr	v0
600e6bb8:	6f00      	li	a3,0
600e6bba:	b725      	lw	a3,600e6c4c <mengine_set_filepath+0xec>
        }

        g_fsel_type = cur_type; //更改引擎保存的文件选择类型
        g_eg_cfg_p->location.dirlocation.disk = disk_new;
600e6bbc:	679d      	move	a0,sp
600e6bbe:	a474      	lbu	v1,20(a0)
600e6bc0:	b22d      	lw	v0,600e6c74 <mengine_set_filepath+0x114>
600e6bc2:	67dd      	move	a2,sp
600e6bc4:	a6b0      	lbu	a1,16(a2)
600e6bc6:	9f80      	lw	a0,0(a3)
600e6bc8:	c260      	sb	v1,0(v0)
600e6bca:	b22c      	lw	v0,600e6c78 <mengine_set_filepath+0x118>
        //关闭文件选择器
        fsel_exit();
600e6bcc:	ea40      	jalr	v0
600e6bce:	c4a4      	sb	a1,4(a0)
600e6bd0:	1860 9a0f 	jal	600e683c <switch_disk_file_init>

        //重新初始化文件选择器
        ret_vals = switch_disk_file_init();
600e6bd4:	6500      	nop
600e6bd6:	7201      	cmpi	v0,1
        if(ret_vals == TRUE) {
600e6bd8:	67a2      	move	a1,v0
600e6bda:	6106      	btnez	600e6be8 <mengine_set_filepath+0x88>
600e6bdc:	b428      	lw	a0,600e6c7c <mengine_set_filepath+0x11c>
            g_eg_playinfo_p->cur_file_switch |= 0x01;
600e6bde:	6b01      	li	v1,1
600e6be0:	9cc0      	lw	a2,0(a0)
600e6be2:	a6e9      	lbu	a3,9(a2)
600e6be4:	ef6d      	or	a3,v1
600e6be6:	c6e9      	sb	a3,9(a2)
600e6be8:	677d      	move	v1,sp
        }
    }
    g_fsel_type = cur_type; //更改引擎保存的文件选择类型
600e6bea:	b623      	lw	a2,600e6c74 <mengine_set_filepath+0x114>
600e6bec:	a3f4      	lbu	a3,20(v1)
600e6bee:	940a      	lw	a0,40(sp)
    mengine_reply_msg(msg_ptr, ret_vals);
600e6bf0:	b224      	lw	v0,600e6c80 <mengine_set_filepath+0x120>
600e6bf2:	ea40      	jalr	v0
600e6bf4:	c6e0      	sb	a3,0(a2)
600e6bf6:	6a01      	li	v0,1

    return RESULT_IGNORE;
}
600e6bf8:	6475      	restore	40,ra,s0-s1
600e6bfa:	e8a0      	jrc	ra
600e6bfc:	b418      	lw	a0,600e6c58 <mengine_set_filepath+0xf8>
600e6bfe:	a440      	lbu	v0,0(a0)
600e6c00:	2ac4      	bnez	v0,600e6b8a <mengine_set_filepath+0x2a>
600e6c02:	b218      	lw	v0,600e6c60 <mengine_set_filepath+0x100>
600e6c04:	ea40      	jalr	v0
600e6c06:	6791      	move	a0,s1
600e6c08:	b515      	lw	a1,600e6c5c <mengine_set_filepath+0xfc>
600e6c0a:	a540      	lbu	v0,0(a1)
600e6c0c:	ea11      	zeb	v0
600e6c0e:	7202      	cmpi	v0,2
600e6c10:	61bf      	btnez	600e6b90 <mengine_set_filepath+0x30>
600e6c12:	b30f      	lw	v1,600e6c4c <mengine_set_filepath+0xec>
600e6c14:	40a4      	addiu	a1,s0,4
600e6c16:	9be0      	lw	a3,0(v1)
600e6c18:	6e60      	li	a2,96
600e6c1a:	4784      	addiu	a0,a3,4
600e6c1c:	17cb      	b	600e6bb4 <mengine_set_filepath+0x54>
600e6c1e:	b40e      	lw	a0,600e6c54 <mengine_set_filepath+0xf4>
600e6c20:	67b0      	move	a1,s0
600e6c22:	b20e      	lw	v0,600e6c58 <mengine_set_filepath+0xf8>
600e6c24:	4d08      	addiu	a1,8
600e6c26:	6e0c      	li	a2,12
600e6c28:	ea40      	jalr	v0
600e6c2a:	6f00      	li	a3,0
600e6c2c:	b70c      	lw	a3,600e6c5c <mengine_set_filepath+0xfc>
600e6c2e:	677d      	move	v1,sp
600e6c30:	6a02      	li	v0,2
600e6c32:	c740      	sb	v0,0(a3)
600e6c34:	b610      	lw	a2,600e6c74 <mengine_set_filepath+0x114>
600e6c36:	a3f4      	lbu	a3,20(v1)
600e6c38:	940a      	lw	a0,40(sp)
600e6c3a:	b212      	lw	v0,600e6c80 <mengine_set_filepath+0x120>
600e6c3c:	6d01      	li	a1,1
600e6c3e:	ea40      	jalr	v0
600e6c40:	c6e0      	sb	a3,0(a2)
600e6c42:	6a01      	li	v0,1
600e6c44:	6475      	restore	40,ra,s0-s1
600e6c46:	e8a0      	jrc	ra
600e6c48:	b509      	lw	a1,600e6c68 <mengine_set_filepath+0x108>
600e6c4a:	17a6      	b	600e6b98 <mengine_set_filepath+0x38>
600e6c4c:	95ec      	lw	a1,944(sp)
600e6c4e:	9fc1      	lw	a2,4(a3)
600e6c50:	6869      	li	s0,105
600e6c52:	6022      	bteqz	600e6c98 <mengine_get_playtype+0x14>
600e6c54:	95a4      	lw	a1,656(sp)
600e6c56:	9fc1      	lw	a2,4(a3)
600e6c58:	6009      	bteqz	600e6c6c <mengine_set_filepath+0x10c>
600e6c5a:	bfc2      	lwu	a2,8(a3)
600e6c5c:	95de      	lw	a1,888(sp)
600e6c5e:	9fc1      	lw	a2,4(a3)
600e6c60:	6801      	li	s0,1
600e6c62:	600e      	bteqz	600e6c80 <mengine_set_filepath+0x120>
600e6c64:	6d5c      	li	a1,92
600e6c66:	600e      	bteqz	600e6c84 <mengine_get_playtype>
600e6c68:	0000      	addiu	s0,sp,0
600e6c6a:	000a      	addiu	s0,sp,40
600e6c6c:	0000      	addiu	s0,sp,0
600e6c6e:	0009      	addiu	s0,sp,36
600e6c70:	6011      	bteqz	600e6c94 <mengine_get_playtype+0x10>
600e6c72:	bfc2      	lwu	a2,8(a3)
600e6c74:	95df      	lw	a1,892(sp)
600e6c76:	9fc1      	lw	a2,4(a3)
600e6c78:	1f75 7a02 	jalx	6aede808 <i2s_mfp_cfg+0xa437e00>
600e6c7c:	95f4      	lw	a1,976(sp)
600e6c7e:	9fc1      	lw	a2,4(a3)
600e6c80:	6261      	sw	ra,388(sp)
600e6c82:	bfc2      	lwu	a2,8(a3)

600e6c84 <mengine_get_playtype>:
600e6c84:	64c3      	save	24,ra

//获取播放介质
app_result_e mengine_get_playtype(void *msg_ptr)
{
600e6c86:	b30d      	lw	v1,600e6cb8 <mengine_get_playtype+0x34>
    //设置播放类型的指针
    private_msg_t *data_ptr = (private_msg_t *) msg_ptr;
    uint8 cur_type;

    if(g_mengine_enter_mode == ENTER_RECOD_PLAY) {
600e6c88:	a340      	lbu	v0,0(v1)
600e6c8a:	6b05      	li	v1,5
        cur_type = PLAY_RECORD_FILE;
600e6c8c:	7201      	cmpi	v0,1
600e6c8e:	600b      	bteqz	600e6ca6 <mengine_get_playtype+0x22>
600e6c90:	b50b      	lw	a1,600e6cbc <mengine_get_playtype+0x38>
    } else {
        //普通播放和sd播放
        cur_type = (0 << 7); //播放类型放在 bit[7]
        if(g_eg_cfg_p->location.dirlocation.disk == DISK_H) {
600e6c92:	4b0b      	addiu	v1,11
600e6c94:	9d40      	lw	v0,0(a1)
600e6c96:	a2e4      	lbu	a3,4(v0)
600e6c98:	ef6e      	xor	a3,v1
600e6c9a:	5f01      	sltiu	a3,1
600e6c9c:	67d8      	move	a2,t8
600e6c9e:	5e01      	sltiu	a2,1
            //cur_type |= (2 << 5);//SDCARD介质，bit[5]
            cur_type = PLAY_DISK_CARD;
600e6ca0:	67b8      	move	a1,t8
600e6ca2:	4bf2      	addiu	v1,-14
600e6ca4:	e3af      	subu	v1,a1
600e6ca6:	9ce3      	lw	a3,12(a0)
        } else {
            //cur_type |= (1 << 5);//UHOST介质，bit[5]
            cur_type = PLAY_DISK_UHOST;
        }
    }

    //获取当前播放类型
    *(uint8 *)(data_ptr->reply->content) = cur_type;
600e6ca8:	9fc1      	lw	a2,4(a3)
600e6caa:	c660      	sb	v1,0(a2)
600e6cac:	b305      	lw	v1,600e6cc0 <mengine_get_playtype+0x3c>

    //返回成功
    mengine_reply_msg(msg_ptr, TRUE);
600e6cae:	eb40      	jalr	v1
600e6cb0:	6d01      	li	a1,1
600e6cb2:	6a01      	li	v0,1

    return RESULT_IGNORE;
}
600e6cb4:	6443      	restore	24,ra
600e6cb6:	e8a0      	jrc	ra
600e6cb8:	95de      	lw	a1,888(sp)
600e6cba:	9fc1      	lw	a2,4(a3)
600e6cbc:	95ec      	lw	a1,944(sp)
600e6cbe:	9fc1      	lw	a2,4(a3)
600e6cc0:	6261      	sw	ra,388(sp)
600e6cc2:	bfc2      	lwu	a2,8(a3)

600e6cc4 <mengine_clear_fileswitch>:
600e6cc4:	64c3      	save	24,ra

app_result_e mengine_clear_fileswitch(void *msg_ptr)
{
600e6cc6:	b207      	lw	v0,600e6ce0 <mengine_clear_fileswitch+0x1c>
    g_eg_playinfo_p->cur_file_switch &= (uint8)(0xfe);
600e6cc8:	6f02      	li	a3,2
600e6cca:	9aa0      	lw	a1,0(v0)
600e6ccc:	ebeb      	neg	v1,a3
600e6cce:	a5c9      	lbu	a2,9(a1)
600e6cd0:	b205      	lw	v0,600e6ce4 <mengine_clear_fileswitch+0x20>

    //返回成功
    mengine_reply_msg(msg_ptr, TRUE);
600e6cd2:	ee6c      	and	a2,v1
600e6cd4:	c5c9      	sb	a2,9(a1)
600e6cd6:	ea40      	jalr	v0
600e6cd8:	6d01      	li	a1,1
600e6cda:	6a01      	li	v0,1

    return RESULT_IGNORE;
}
600e6cdc:	6443      	restore	24,ra
600e6cde:	e8a0      	jrc	ra
600e6ce0:	95f4      	lw	a1,976(sp)
600e6ce2:	9fc1      	lw	a2,4(a3)
600e6ce4:	6261      	sw	ra,388(sp)
600e6ce6:	bfc2      	lwu	a2,8(a3)

600e6ce8 <mengine_get_fileinfo>:
600e6ce8:	64e3      	save	24,ra,s0

//获取文件信息，包括文件总时间，波特率，采样率等
app_result_e mengine_get_fileinfo(void *msg_ptr)
{
600e6cea:	9c63      	lw	v1,12(a0)
    //消息指针
    private_msg_t *data_ptr = (private_msg_t *) msg_ptr;

    //copy当前文件信息到消息指针指向的数据区
    libc_memcpy((data_ptr->reply->content), &g_eg_file_info, sizeof(mmm_mp_file_info_t));
600e6cec:	6704      	move	s0,a0
600e6cee:	b507      	lw	a1,600e6d08 <mengine_get_fileinfo+0x20>
600e6cf0:	9b81      	lw	a0,4(v1)
600e6cf2:	b207      	lw	v0,600e6d0c <mengine_get_fileinfo+0x24>
600e6cf4:	6e14      	li	a2,20
600e6cf6:	ea40      	jalr	v0
600e6cf8:	6f00      	li	a3,0
600e6cfa:	b206      	lw	v0,600e6d10 <mengine_get_fileinfo+0x28>

    mengine_reply_msg(msg_ptr, TRUE);
600e6cfc:	6790      	move	a0,s0
600e6cfe:	ea40      	jalr	v0
600e6d00:	6d01      	li	a1,1
600e6d02:	6a01      	li	v0,1

    return RESULT_IGNORE;
}
600e6d04:	6463      	restore	24,ra,s0
600e6d06:	e8a0      	jrc	ra
600e6d08:	9590      	lw	a1,576(sp)
600e6d0a:	9fc1      	lw	a2,4(a3)
600e6d0c:	6009      	bteqz	600e6d20 <mengine_set_sortnumber+0xc>
600e6d0e:	bfc2      	lwu	a2,8(a3)
600e6d10:	6261      	sw	ra,388(sp)
600e6d12:	bfc2      	lwu	a2,8(a3)

600e6d14 <mengine_set_sortnumber>:
600e6d14:	64c3      	save	24,ra

//更新文件序号
app_result_e mengine_set_sortnumber(void *msg_ptr)
{
600e6d16:	9ce1      	lw	a3,4(a0)
    //消息指针
    private_msg_t *data_ptr = (private_msg_t *) msg_ptr;

    //param
    uint16 set_num;

    set_num = *(uint16 *)(data_ptr->msg.content.addr);
600e6d18:	b606      	lw	a2,600e6d30 <mengine_set_sortnumber+0x1c>

    //change cur number
    g_eg_cfg_p->location.dirlocation.file_num = set_num;
600e6d1a:	af60      	lhu	v1,0(a3)
600e6d1c:	9ea0      	lw	a1,0(a2)
600e6d1e:	b206      	lw	v0,600e6d34 <mengine_set_sortnumber+0x20>

    mengine_reply_msg(msg_ptr, TRUE);
600e6d20:	f060 cd62 	sh	v1,98(a1)
600e6d24:	ea40      	jalr	v0
600e6d26:	6d01      	li	a1,1
600e6d28:	6a01      	li	v0,1

    return RESULT_IGNORE;
}
600e6d2a:	6443      	restore	24,ra
600e6d2c:	e8a0      	jrc	ra
600e6d2e:	0000      	addiu	s0,sp,0
600e6d30:	95ec      	lw	a1,944(sp)
600e6d32:	9fc1      	lw	a2,4(a3)
600e6d34:	6261      	sw	ra,388(sp)
600e6d36:	bfc2      	lwu	a2,8(a3)

600e6d38 <mengine_get_disknumber>:
600e6d38:	64e3      	save	24,ra,s0

//获取当前文件序号
app_result_e mengine_get_disknumber(void *msg_ptr)
{
600e6d3a:	b207      	lw	v0,600e6d54 <mengine_get_disknumber+0x1c>
    //消息指针
    private_msg_t *data_ptr = (private_msg_t *) msg_ptr;

    *(uint16 *)(data_ptr->reply->content) = fsel_get_fileno();
600e6d3c:	ea40      	jalr	v0
600e6d3e:	6704      	move	s0,a0
600e6d40:	9883      	lw	a0,12(s0)
600e6d42:	6d01      	li	a1,1

    mengine_reply_msg(msg_ptr, TRUE);
600e6d44:	9c61      	lw	v1,4(a0)
600e6d46:	cb40      	sh	v0,0(v1)
600e6d48:	b204      	lw	v0,600e6d58 <mengine_get_disknumber+0x20>
600e6d4a:	ea40      	jalr	v0
600e6d4c:	6790      	move	a0,s0
600e6d4e:	6a01      	li	v0,1

    return RESULT_IGNORE;
}
600e6d50:	6463      	restore	24,ra,s0
600e6d52:	e8a0      	jrc	ra
600e6d54:	2101      	beqz	s1,600e6d58 <mengine_get_disknumber+0x20>
600e6d56:	7a02      	sd	s0,16(v0)
600e6d58:	6261      	sw	ra,388(sp)
600e6d5a:	bfc2      	lwu	a2,8(a3)

600e6d5c <s_cfg>:
	...

600e6e44 <_clear_vm_deal>:
600e6e44:	64f4      	save	32,ra,s0-s1
600e6e46:	b715      	lw	a3,600e6e98 <_clear_vm_deal+0x54>
600e6e48:	b015      	lw	s0,600e6e9c <_clear_vm_deal+0x58>
600e6e4a:	9fc4      	lw	a2,16(a3)
600e6e4c:	6724      	move	s1,a0
600e6e4e:	6d00      	li	a1,0
600e6e50:	4684      	addiu	a0,a2,4
600e6e52:	6f01      	li	a3,1
600e6e54:	e840      	jalr	s0
600e6e56:	6e98      	li	a2,152
600e6e58:	b410      	lw	a0,600e6e98 <_clear_vm_deal+0x54>
600e6e5a:	e911      	zeb	s1
600e6e5c:	a4a0      	lbu	a1,0(a0)
600e6e5e:	9c64      	lw	v1,16(a0)
600e6e60:	6e0c      	li	a2,12
600e6e62:	c3a4      	sb	a1,4(v1)
600e6e64:	9c84      	lw	a0,16(a0)
600e6e66:	6d00      	li	a1,0
600e6e68:	4c7f      	addiu	a0,127
600e6e6a:	4c1d      	addiu	a0,29
600e6e6c:	e840      	jalr	s0
600e6e6e:	6f01      	li	a3,1
600e6e70:	210a      	beqz	s1,600e6e86 <_clear_vm_deal+0x42>
600e6e72:	7110      	cmpi	s1,16
600e6e74:	6008      	bteqz	600e6e86 <_clear_vm_deal+0x42>
600e6e76:	2102      	beqz	s1,600e6e7c <_clear_vm_deal+0x38>
600e6e78:	7120      	cmpi	s1,32
600e6e7a:	6103      	btnez	600e6e82 <_clear_vm_deal+0x3e>
600e6e7c:	b20b      	lw	v0,600e6ea8 <_clear_vm_deal+0x64>
600e6e7e:	ea40      	jalr	v0
600e6e80:	6c20      	li	a0,32
600e6e82:	6474      	restore	32,ra,s0-s1
600e6e84:	e8a0      	jrc	ra
600e6e86:	b305      	lw	v1,600e6e98 <_clear_vm_deal+0x54>
600e6e88:	b506      	lw	a1,600e6ea0 <_clear_vm_deal+0x5c>
600e6e8a:	9b84      	lw	a0,16(v1)
600e6e8c:	b206      	lw	v0,600e6ea4 <_clear_vm_deal+0x60>
600e6e8e:	6ee8      	li	a2,232
600e6e90:	ea40      	jalr	v0
600e6e92:	6f13      	li	a3,19
600e6e94:	17f0      	b	600e6e76 <_clear_vm_deal+0x32>
600e6e96:	0000      	addiu	s0,sp,0
600e6e98:	95dc      	lw	a1,880(sp)
600e6e9a:	9fc1      	lw	a2,4(a3)
600e6e9c:	6009      	bteqz	600e6eb0 <_clear_vm_deal+0x6c>
600e6e9e:	bfc2      	lwu	a2,8(a3)
600e6ea0:	0000      	addiu	s0,sp,0
600e6ea2:	000a      	addiu	s0,sp,40
600e6ea4:	6011      	bteqz	600e6ec8 <_clear_vm_deal+0x84>
600e6ea6:	bfc2      	lwu	a2,8(a3)
600e6ea8:	6801      	li	s0,1
600e6eaa:	600e      	bteqz	600e6ec8 <_clear_vm_deal+0x84>
Disassembly of section BANK_CONTROL_1_4:

60126800 <close_mmm>:
60126800:	64e3      	save	24,ra,s0
#include "app_mengine.h"

//关闭中间件,销毁中间件线程
int32 close_mmm(void)
{
60126802:	b00a      	lw	s0,60126828 <close_mmm+0x28>
    if(g_mmm_opened == TRUE) {
60126804:	a040      	lbu	v0,0(s0)
60126806:	7201      	cmpi	v0,1
60126808:	6003      	bteqz	60126810 <close_mmm+0x10>
6012680a:	6a00      	li	v0,0
        mmm_mp_cmd(g_mp_handle, MMM_MP_CLOSE, (unsigned int) NULL);
        g_mmm_opened = FALSE;
    }
    return 0;
}
6012680c:	6463      	restore	24,ra,s0
6012680e:	e8a0      	jrc	ra
60126810:	b507      	lw	a1,60126828 <close_mmm+0x28>
60126812:	b208      	lw	v0,60126830 <close_mmm+0x30>
60126814:	9d80      	lw	a0,0(a1)
60126816:	6e00      	li	a2,0
60126818:	ea40      	jalr	v0
6012681a:	6d01      	li	a1,1
6012681c:	6b00      	li	v1,0
6012681e:	6a00      	li	v0,0
60126820:	c060      	sb	v1,0(s0)
60126822:	6463      	restore	24,ra,s0
60126824:	e8a0      	jrc	ra
60126826:	0000      	addiu	s0,sp,0
60126828:	95e0      	lw	a1,896(sp)
6012682a:	9fc1      	lw	a2,4(a3)
6012682c:	95fc      	lw	a1,1008(sp)
6012682e:	9fc1      	lw	a2,4(a3)
60126830:	600d      	bteqz	6012684c <open_mmm+0x18>
60126832:	bfc2      	lwu	a2,8(a3)

60126834 <open_mmm>:
60126834:	64f4      	save	32,ra,s0-s1

int32 open_mmm(void)
{
60126836:	b310      	lw	v1,60126874 <open_mmm+0x40>
    int32 open_ret;
    if(g_mmm_opened == TRUE) {
60126838:	a340      	lbu	v0,0(v1)
6012683a:	7201      	cmpi	v0,1
6012683c:	6a00      	li	v0,0
        return 0;
6012683e:	6102      	btnez	60126844 <open_mmm+0x10>
60126840:	6474      	restore	32,ra,s0-s1
    }
    open_ret = mmm_mp_cmd(&g_mp_handle, MMM_MP_OPEN, (unsigned int) NULL);
    if((open_ret != -1) && (1 == g_app_info_state_all.fix_sample_rate_flag)) {
        mmm_mp_cmd(&g_mp_handle, MMM_MP_FIX_SAMPLE_RATE, NULL);
    }
    g_mmm_opened = TRUE;

    return open_ret;
}
60126842:	e8a0      	jrc	ra
60126844:	b40d      	lw	a0,60126874 <open_mmm+0x40>
60126846:	b10e      	lw	s1,6012687c <open_mmm+0x48>
60126848:	67a2      	move	a1,v0
6012684a:	e940      	jalr	s1
6012684c:	67c2      	move	a2,v0
6012684e:	ec4f      	not	a0,v0
60126850:	6702      	move	s0,v0
60126852:	2404      	beqz	a0,6012685c <open_mmm+0x28>
60126854:	b60b      	lw	a2,60126880 <open_mmm+0x4c>
60126856:	a6a8      	lbu	a1,8(a2)
60126858:	7501      	cmpi	a1,1
6012685a:	6006      	bteqz	60126868 <open_mmm+0x34>
6012685c:	b706      	lw	a3,60126874 <open_mmm+0x40>
6012685e:	6a01      	li	v0,1
60126860:	c740      	sb	v0,0(a3)
60126862:	6750      	move	v0,s0
60126864:	6474      	restore	32,ra,s0-s1
60126866:	e8a0      	jrc	ra
60126868:	b404      	lw	a0,60126874 <open_mmm+0x40>
6012686a:	6d2b      	li	a1,43
6012686c:	e940      	jalr	s1
6012686e:	6e00      	li	a2,0
60126870:	17f5      	b	6012685c <open_mmm+0x28>
60126872:	0000      	addiu	s0,sp,0
60126874:	95e0      	lw	a1,896(sp)
60126876:	9fc1      	lw	a2,4(a3)
60126878:	95fc      	lw	a1,1008(sp)
6012687a:	9fc1      	lw	a2,4(a3)
6012687c:	600d      	bteqz	60126898 <mengine_tts_start+0x14>
6012687e:	bfc2      	lwu	a2,8(a3)
60126880:	a094      	lbu	a0,20(s0)
60126882:	9fc1      	lw	a2,4(a3)

60126884 <mengine_tts_start>:
60126884:	64f4      	save	32,ra,s0-s1

app_result_e mengine_tts_start(void *msg_ptr)
{
60126886:	b315      	lw	v1,601268d8 <mengine_tts_start+0x54>
    //设置播放类型的指针
    //private_msg_t* data_ptr = (private_msg_t*) msg_ptr;
    bool ret_vals = TRUE;

    if((g_eg_status_p->play_status == PlayFast)
60126888:	6724      	move	s1,a0
6012688a:	9b40      	lw	v0,0(v1)
6012688c:	6801      	li	s0,1
6012688e:	a240      	lbu	v0,0(v0)
60126890:	7204      	cmpi	v0,4
60126892:	6002      	bteqz	60126898 <mengine_tts_start+0x14>
60126894:	7202      	cmpi	v0,2
60126896:	6113      	btnez	601268be <mengine_tts_start+0x3a>
60126898:	b011      	lw	s0,601268dc <mengine_tts_start+0x58>
            || (g_eg_status_p->play_status == PlaySta)
            || (g_eg_status_p->play_status == PlayAB)) {
        //先暂停播放
        ret_vals = stop(STOP_PAUSE); //暂停播放
6012689a:	e840      	jalr	s0
6012689c:	6c01      	li	a0,1
6012689e:	7201      	cmpi	v0,1
        if(ret_vals == TRUE) {
601268a0:	6702      	move	s0,v0
601268a2:	6103      	btnez	601268aa <mengine_tts_start+0x26>
601268a4:	b40f      	lw	a0,601268e0 <mengine_tts_start+0x5c>
            g_stop_by_tts_flag = TRUE;
601268a6:	6d01      	li	a1,1
601268a8:	c4a0      	sb	a1,0(a0)
601268aa:	1880 9a00 	jal	60126800 <close_mmm>
        }
    }
    close_mmm();
601268ae:	6500      	nop
601268b0:	b20d      	lw	v0,601268e4 <mengine_tts_start+0x60>

    mengine_reply_msg(msg_ptr, ret_vals);
601268b2:	6791      	move	a0,s1
601268b4:	ea40      	jalr	v0
601268b6:	67b0      	move	a1,s0
601268b8:	6a01      	li	v0,1

    return RESULT_IGNORE;
}
601268ba:	6474      	restore	32,ra,s0-s1
601268bc:	e8a0      	jrc	ra
601268be:	7203      	cmpi	v0,3
601268c0:	60eb      	bteqz	60126898 <mengine_tts_start+0x14>
601268c2:	1880 9a00 	jal	60126800 <close_mmm>
601268c6:	6500      	nop
601268c8:	b207      	lw	v0,601268e4 <mengine_tts_start+0x60>
601268ca:	6791      	move	a0,s1
601268cc:	ea40      	jalr	v0
601268ce:	67b0      	move	a1,s0
601268d0:	6a01      	li	v0,1
601268d2:	6474      	restore	32,ra,s0-s1
601268d4:	e8a0      	jrc	ra
601268d6:	0000      	addiu	s0,sp,0
601268d8:	95f8      	lw	a1,992(sp)
601268da:	9fc1      	lw	a2,4(a3)
601268dc:	6869      	li	s0,105
601268de:	6022      	bteqz	60126924 <mengine_tts_stop+0x3c>
601268e0:	95d8      	lw	a1,864(sp)
601268e2:	9fc1      	lw	a2,4(a3)
601268e4:	6261      	sw	ra,388(sp)
601268e6:	bfc2      	lwu	a2,8(a3)

601268e8 <mengine_tts_stop>:
601268e8:	64f4      	save	32,ra,s0-s1

app_result_e mengine_tts_stop(void *msg_ptr)
{
601268ea:	1880 9a0d 	jal	60126834 <open_mmm>
    //设置播放类型的指针
    //private_msg_t* data_ptr = (private_msg_t*) msg_ptr;
    bool ret_vals = TRUE;

    open_mmm();
601268ee:	d408      	sw	a0,32(sp)
601268f0:	b10d      	lw	s1,60126924 <mengine_tts_stop+0x3c>

    if(g_stop_by_tts_flag == TRUE) {
601268f2:	6801      	li	s0,1
601268f4:	a140      	lbu	v0,0(s1)
601268f6:	ea0a      	cmp	v0,s0
601268f8:	6106      	btnez	60126906 <mengine_tts_stop+0x1e>
601268fa:	b50c      	lw	a1,60126928 <mengine_tts_stop+0x40>

        if(g_eg_status_p->err_status == EG_ERR_NONE) {
601268fc:	9d80      	lw	a0,0(a1)
601268fe:	a463      	lbu	v1,3(a0)
60126900:	2309      	beqz	v1,60126914 <mengine_tts_stop+0x2c>
60126902:	6e00      	li	a2,0
            ret_vals = play(PLAY_RESUME); //续播
        }
        g_stop_by_tts_flag = FALSE;
60126904:	c1c0      	sb	a2,0(s1)
60126906:	9408      	lw	a0,32(sp)
    }

    mengine_reply_msg(msg_ptr, ret_vals);
60126908:	b20a      	lw	v0,60126930 <mengine_tts_stop+0x48>
6012690a:	ea40      	jalr	v0
6012690c:	67b0      	move	a1,s0
6012690e:	6a01      	li	v0,1

    return RESULT_IGNORE;
}
60126910:	6474      	restore	32,ra,s0-s1
60126912:	e8a0      	jrc	ra
60126914:	6790      	move	a0,s0
60126916:	b006      	lw	s0,6012692c <mengine_tts_stop+0x44>
60126918:	e8c0      	jalrc	s0
6012691a:	6702      	move	s0,v0
6012691c:	6e00      	li	a2,0
6012691e:	c1c0      	sb	a2,0(s1)
60126920:	17f2      	b	60126906 <mengine_tts_stop+0x1e>
60126922:	0000      	addiu	s0,sp,0
60126924:	95d8      	lw	a1,864(sp)
60126926:	9fc1      	lw	a2,4(a3)
60126928:	95f8      	lw	a1,992(sp)
6012692a:	9fc1      	lw	a2,4(a3)
6012692c:	6bc9      	li	v1,201
6012692e:	6022      	bteqz	60126974 <mengine_standby+0x40>
60126930:	6261      	sw	ra,388(sp)
60126932:	bfc2      	lwu	a2,8(a3)

60126934 <mengine_standby>:
60126934:	64f4      	save	32,ra,s0-s1

//STANDBY命令响应
app_result_e mengine_standby(void *msg_ptr)
{
60126936:	6d00      	li	a1,0
    private_msg_t *data_ptr = (private_msg_t *) msg_ptr;
    os_event_t *standby_sem = (os_event_t *)(data_ptr->msg.content.addr);

    //备份现场，准备进入睡眠模式
    PRINT_INFO("engine standby enter");
60126938:	b31d      	lw	v1,601269ac <mengine_standby+0x78>
6012693a:	9c21      	lw	s1,4(a0)
6012693c:	67c5      	move	a2,a1
6012693e:	6704      	move	s0,a0
60126940:	0c0e      	la	a0,60126978 <mengine_standby+0x44>
60126942:	eb40      	jalr	v1
60126944:	6f4b      	li	a3,75
60126946:	b31b      	lw	v1,601269b0 <mengine_standby+0x7c>

    //回复前台，然后接着跑就会睡眠
    mengine_reply_msg(data_ptr, TRUE);
60126948:	6790      	move	a0,s0
6012694a:	eb40      	jalr	v1
6012694c:	6d01      	li	a1,1
6012694e:	6d00      	li	a1,0

    libc_sem_wait(standby_sem, 0);
60126950:	b219      	lw	v0,601269b4 <mengine_standby+0x80>
60126952:	6791      	move	a0,s1
60126954:	67c5      	move	a2,a1
60126956:	ea40      	jalr	v0
60126958:	6f14      	li	a3,20
6012695a:	6d00      	li	a1,0

    //从睡眠模式回来，恢复现场
    PRINT_INFO("engine standby exit");
6012695c:	b314      	lw	v1,601269ac <mengine_standby+0x78>
6012695e:	67c5      	move	a2,a1
60126960:	0c0d      	la	a0,60126994 <mengine_standby+0x60>
60126962:	eb40      	jalr	v1
60126964:	6f4b      	li	a3,75
60126966:	b515      	lw	a1,601269b8 <mengine_standby+0x84>
    standby_restart_all_app_timer(g_app_timer_vector, g_app_timer_count);
60126968:	b315      	lw	v1,601269bc <mengine_standby+0x88>
6012696a:	9d80      	lw	a0,0(a1)
6012696c:	b215      	lw	v0,601269c0 <mengine_standby+0x8c>
6012696e:	ea40      	jalr	v0
60126970:	a3a0      	lbu	a1,0(v1)
60126972:	6a01      	li	v0,1

    return RESULT_IGNORE;
}
60126974:	6474      	restore	32,ra,s0-s1
60126976:	e8a0      	jrc	ra
60126978:	493c      	addiu	s1,60
6012697a:	203e      	beqz	s0,601269f8 <mengine_standby+0xc4>
6012697c:	6e65      	li	a2,101
6012697e:	6967      	li	s1,103
60126980:	656e      	move	t3,a2
60126982:	7320      	cmpi	v1,32
60126984:	6174      	btnez	60126a6e <mengine_standby+0x13a>
60126986:	646e      	restore	112,ra,s0
60126988:	7962      	sd	v1,16(s1)
6012698a:	6520      	move	at,s0
6012698c:	746e      	cmpi	a0,110
6012698e:	7265      	cmpi	v0,101
60126990:	0000      	addiu	s0,sp,0
60126992:	0000      	addiu	s0,sp,0
60126994:	493c      	addiu	s1,60
60126996:	203e      	beqz	s0,60126a14 <mengine_standby+0xe0>
60126998:	6e65      	li	a2,101
6012699a:	6967      	li	s1,103
6012699c:	656e      	move	t3,a2
6012699e:	7320      	cmpi	v1,32
601269a0:	6174      	btnez	60126a8a <mengine_standby+0x156>
601269a2:	646e      	restore	112,ra,s0
601269a4:	7962      	sd	v1,16(s1)
601269a6:	6520      	move	at,s0
601269a8:	6978      	li	s1,120
601269aa:	0074      	addiu	s0,sp,464
601269ac:	6011      	bteqz	601269d0 <mengine_standby+0x9c>
601269ae:	bfc2      	lwu	a2,8(a3)
601269b0:	6261      	sw	ra,388(sp)
601269b2:	bfc2      	lwu	a2,8(a3)
601269b4:	6009      	bteqz	601269c8 <mengine_standby+0x94>
601269b6:	bfc2      	lwu	a2,8(a3)
601269b8:	9750      	lw	a3,320(sp)
601269ba:	9fc1      	lw	a2,4(a3)
601269bc:	9760      	lw	a3,384(sp)
601269be:	9fc1      	lw	a2,4(a3)
601269c0:	6c85      	li	a0,133
601269c2:	60a2      	bteqz	60126908 <mengine_tts_stop+0x20>
Disassembly of section BANK_CONTROL_1_5:

60166800 <mengine_set_eq>:
60166800:	64e3      	save	24,ra,s0
#include "app_mengine.h"
app_result_e mengine_set_eq(void *msg_ptr)
{
60166802:	6704      	move	s0,a0
60166804:	b40f      	lw	a0,60166840 <mengine_set_eq+0x40>
    //private_msg_t * data_ptr = (private_msg_t*) msg_ptr;
    //dae_config_t *p_dae_cfg = (dae_config_t *)(data_ptr->msg.content.addr);

    adjust_freq_add_value(0, g_dae_cfg_shm->run_freq);
60166806:	b210      	lw	v0,60166844 <mengine_set_eq+0x44>
60166808:	9c60      	lw	v1,0(a0)
6016680a:	6e01      	li	a2,1
6016680c:	a3b6      	lbu	a1,22(v1)
6016680e:	6c00      	li	a0,0
60166810:	ea40      	jalr	v0
60166812:	6f03      	li	a3,3
60166814:	b20d      	lw	v0,60166848 <mengine_set_eq+0x48>

    if(NULL != g_mp_handle) {
60166816:	9a80      	lw	a0,0(v0)
60166818:	2c07      	bnez	a0,60166828 <mengine_set_eq+0x28>
6016681a:	b30e      	lw	v1,60166850 <mengine_set_eq+0x50>
        mmm_mp_cmd(g_mp_handle, MMM_MP_SET_EQ, (unsigned int) NULL);
    }
    //返回成功
    mengine_reply_msg(msg_ptr, TRUE);
6016681c:	6790      	move	a0,s0
6016681e:	eb40      	jalr	v1
60166820:	6d01      	li	a1,1
60166822:	6a01      	li	v0,1

    return RESULT_IGNORE;
}
60166824:	6463      	restore	24,ra,s0
60166826:	e8a0      	jrc	ra
60166828:	b209      	lw	v0,60166848 <mengine_set_eq+0x48>
6016682a:	6e00      	li	a2,0
6016682c:	ea40      	jalr	v0
6016682e:	6d1e      	li	a1,30
60166830:	b308      	lw	v1,60166850 <mengine_set_eq+0x50>
60166832:	6790      	move	a0,s0
60166834:	eb40      	jalr	v1
60166836:	6d01      	li	a1,1
60166838:	6a01      	li	v0,1
6016683a:	6463      	restore	24,ra,s0
6016683c:	e8a0      	jrc	ra
6016683e:	0000      	addiu	s0,sp,0
60166840:	9600      	lw	a2,0(sp)
60166842:	9fc1      	lw	a2,4(a3)
60166844:	6005      	bteqz	60166850 <mengine_set_eq+0x50>
60166846:	bfc2      	lwu	a2,8(a3)
60166848:	95fc      	lw	a1,1008(sp)
6016684a:	9fc1      	lw	a2,4(a3)
6016684c:	600d      	bteqz	60166868 <mengine_play_switch+0x14>
6016684e:	bfc2      	lwu	a2,8(a3)
60166850:	6261      	sw	ra,388(sp)
60166852:	bfc2      	lwu	a2,8(a3)

60166854 <mengine_play_switch>:
60166854:	f004 64f4 	save	a0,32,ra,s0-s1
SPECIAL_SWITCH_MODE;

//切换到上下曲
static app_result_e mengine_play_switch(void *msg_ptr, switch_mode_e switch_mode)
{
60166858:	b11d      	lw	s1,601668cc <mengine_play_switch+0x78>
    bool bret;
    //play_mode_e play_mode;//保存是否正在播放
    switch_result_e switch_ret; //切换是否成功

    //升频
    adjust_freq_set_level(AP_BACK_LOW_PRIO, FREQ_LEVEL10, FREQ_NULL);
6016685a:	6705      	move	s0,a1
6016685c:	6c06      	li	a0,6
6016685e:	6d0a      	li	a1,10
60166860:	6e00      	li	a2,0
60166862:	e940      	jalr	s1
60166864:	6f03      	li	a3,3
60166866:	b41b      	lw	a0,601668d0 <mengine_play_switch+0x7c>

    if(g_eg_status_p->play_status != PlaySta) { //正在播放
60166868:	e811      	zeb	s0
6016686a:	9c60      	lw	v1,0(a0)
6016686c:	a340      	lbu	v0,0(v1)
6016686e:	7202      	cmpi	v0,2
60166870:	6112      	btnez	60166896 <mengine_play_switch+0x42>
60166872:	b21b      	lw	v0,601668dc <mengine_play_switch+0x88>
        //清除断点
        libc_memset(&(g_eg_cfg_p->bk_infor), 0, sizeof(mmm_mp_bp_info_t));
    }

    switch_ret = mengine_file_switch(STOP_NORMAL, switch_mode, PLAY_NO_PLAY);
60166874:	67b0      	move	a1,s0
60166876:	6e04      	li	a2,4
60166878:	ea40      	jalr	v0
6016687a:	6c00      	li	a0,0
6016687c:	5a01      	sltiu	v0,1

    if(switch_ret == SWITCH_NO_ERR) {
        bret = TRUE;
    } else {
        bret = FALSE;
    }

    mengine_reply_msg(msg_ptr, bret);
6016687e:	9408      	lw	a0,32(sp)
60166880:	b318      	lw	v1,601668e0 <mengine_play_switch+0x8c>
60166882:	eb40      	jalr	v1
60166884:	67b8      	move	a1,t8
60166886:	6c06      	li	a0,6

    //降频
    adjust_freq_set_level(AP_BACK_LOW_PRIO, FREQ_LEVEL2, FREQ_NULL);
60166888:	6d02      	li	a1,2
6016688a:	6e00      	li	a2,0
6016688c:	e940      	jalr	s1
6016688e:	6f03      	li	a3,3
60166890:	6a01      	li	v0,1

    return RESULT_IGNORE;

}
60166892:	6474      	restore	32,ra,s0-s1
60166894:	e8a0      	jrc	ra
60166896:	b510      	lw	a1,601668d4 <mengine_play_switch+0x80>
60166898:	b210      	lw	v0,601668d8 <mengine_play_switch+0x84>
6016689a:	9d80      	lw	a0,0(a1)
6016689c:	6f01      	li	a3,1
6016689e:	4c7f      	addiu	a0,127
601668a0:	4c1d      	addiu	a0,29
601668a2:	6d00      	li	a1,0
601668a4:	ea40      	jalr	v0
601668a6:	6e0c      	li	a2,12
601668a8:	b20d      	lw	v0,601668dc <mengine_play_switch+0x88>
601668aa:	67b0      	move	a1,s0
601668ac:	6e04      	li	a2,4
601668ae:	ea40      	jalr	v0
601668b0:	6c00      	li	a0,0
601668b2:	5a01      	sltiu	v0,1
601668b4:	9408      	lw	a0,32(sp)
601668b6:	b30b      	lw	v1,601668e0 <mengine_play_switch+0x8c>
601668b8:	eb40      	jalr	v1
601668ba:	67b8      	move	a1,t8
601668bc:	6c06      	li	a0,6
601668be:	6d02      	li	a1,2
601668c0:	6e00      	li	a2,0
601668c2:	e940      	jalr	s1
601668c4:	6f03      	li	a3,3
601668c6:	6a01      	li	v0,1
601668c8:	6474      	restore	32,ra,s0-s1
601668ca:	e8a0      	jrc	ra
601668cc:	6005      	bteqz	601668d8 <mengine_play_switch+0x84>
601668ce:	bfc2      	lwu	a2,8(a3)
601668d0:	95f8      	lw	a1,992(sp)
601668d2:	9fc1      	lw	a2,4(a3)
601668d4:	95ec      	lw	a1,944(sp)
601668d6:	9fc1      	lw	a2,4(a3)
601668d8:	6009      	bteqz	601668ec <mengine_play_next+0x8>
601668da:	bfc2      	lwu	a2,8(a3)
601668dc:	6d41      	li	a1,65
601668de:	6022      	bteqz	60166924 <mengine_play_prev+0x24>
601668e0:	6261      	sw	ra,388(sp)
601668e2:	bfc2      	lwu	a2,8(a3)

601668e4 <mengine_play_next>:
601668e4:	64c3      	save	24,ra

//切换到下一曲
app_result_e mengine_play_next(void *msg_ptr)
{
601668e6:	b306      	lw	v1,601668fc <mengine_play_next+0x18>
    if(g_mengine_enter_mode == ENTER_RECOD_PLAY) {
601668e8:	6d00      	li	a1,0
        return mengine_play_switch(msg_ptr, NORMAL_SWITCH_NEXT);
601668ea:	a340      	lbu	v0,0(v1)
601668ec:	7201      	cmpi	v0,1
601668ee:	6001      	bteqz	601668f2 <mengine_play_next+0xe>
601668f0:	6d02      	li	a1,2
    } else {
        return mengine_play_switch(msg_ptr, FORCE_SWITCH_NEXT);
601668f2:	18a0 9a15 	jal	60166854 <mengine_play_switch>
601668f6:	6500      	nop
601668f8:	6443      	restore	24,ra
    }
}
601668fa:	e8a0      	jrc	ra
601668fc:	95de      	lw	a1,888(sp)
601668fe:	9fc1      	lw	a2,4(a3)

60166900 <mengine_play_prev>:
60166900:	64f5      	save	40,ra,s0-s1

//切换到上一曲
app_result_e mengine_play_prev(void *msg_ptr)
{
60166902:	b321      	lw	v1,60166984 <mengine_play_prev+0x84>
    play_status_e play_status = g_eg_status_p->play_status;
    bool bret = TRUE;

    if((g_music_replay_by_prev_key == TRUE) && (g_eg_playinfo_p->cur_time > 5000)) {
60166904:	b61f      	lw	a2,60166980 <mengine_play_prev+0x80>
60166906:	a340      	lbu	v0,0(v1)
60166908:	9ea0      	lw	a1,0(a2)
6016690a:	6724      	move	s1,a0
6016690c:	7201      	cmpi	v0,1
6016690e:	6c01      	li	a0,1
60166910:	a500      	lbu	s0,0(a1)
60166912:	d404      	sw	a0,16(sp)
60166914:	6106      	btnez	60166922 <mengine_play_prev+0x22>
60166916:	b21d      	lw	v0,60166988 <mengine_play_prev+0x88>
60166918:	9a60      	lw	v1,0(v0)
6016691a:	9be0      	lw	a3,0(v1)
6016691c:	f382 5f09 	sltiu	a3,5001
60166920:	600f      	bteqz	60166940 <mengine_play_prev+0x40>
60166922:	b51f      	lw	a1,6016699c <mengine_play_prev+0x9c>
        g_eg_playinfo_p->cur_time = 0;

        //清除断点
        libc_memset(&(g_eg_cfg_p->bk_infor), 0, sizeof(mmm_mp_bp_info_t));

        if(play_status == PlaySta) {
            //停止播放
            bret = stop(STOP_NORMAL);

            //从头开始播放
            if(bret == TRUE) {
                //play(PLAY_NORMAL);
            }
            g_eg_playinfo_p->cur_file_switch = 1;
        }
        if(bret == TRUE) {
            mengine_reply_msg(msg_ptr, bret);
            return RESULT_IGNORE;
        }
    }

    //return mengine_play_switch(msg_ptr, FORCE_SWITCH_PREV);
    if(g_mengine_enter_mode == ENTER_RECOD_PLAY) {
60166924:	a580      	lbu	a0,0(a1)
60166926:	7401      	cmpi	a0,1
60166928:	6106      	btnez	60166936 <mengine_play_prev+0x36>
6016692a:	6791      	move	a0,s1
        return mengine_play_switch(msg_ptr, NORMAL_SWITCH_PREV);
6016692c:	18a0 9a15 	jal	60166854 <mengine_play_switch>
    } else {
        return mengine_play_switch(msg_ptr, FORCE_SWITCH_PREV);
60166930:	6d01      	li	a1,1
60166932:	6475      	restore	40,ra,s0-s1
    }
}
60166934:	e8a0      	jrc	ra
60166936:	6791      	move	a0,s1
60166938:	18a0 9a15 	jal	60166854 <mengine_play_switch>
6016693c:	6d03      	li	a1,3
6016693e:	17f9      	b	60166932 <mengine_play_prev+0x32>
60166940:	6c00      	li	a0,0
60166942:	db80      	sw	a0,0(v1)
60166944:	b312      	lw	v1,6016698c <mengine_play_prev+0x8c>
60166946:	9704      	lw	a3,16(sp)
60166948:	9b80      	lw	a0,0(v1)
6016694a:	b212      	lw	v0,60166990 <mengine_play_prev+0x90>
6016694c:	4c7f      	addiu	a0,127
6016694e:	4c1d      	addiu	a0,29
60166950:	6d00      	li	a1,0
60166952:	ea40      	jalr	v0
60166954:	6e0c      	li	a2,12
60166956:	7002      	cmpi	s0,2
60166958:	600a      	bteqz	6016696e <mengine_play_prev+0x6e>
6016695a:	9204      	lw	v0,16(sp)
6016695c:	7201      	cmpi	v0,1
6016695e:	61e1      	btnez	60166922 <mengine_play_prev+0x22>
60166960:	b30e      	lw	v1,60166998 <mengine_play_prev+0x98>
60166962:	67a2      	move	a1,v0
60166964:	eb40      	jalr	v1
60166966:	6791      	move	a0,s1
60166968:	6a01      	li	v0,1
6016696a:	6475      	restore	40,ra,s0-s1
6016696c:	e8a0      	jrc	ra
6016696e:	b20a      	lw	v0,60166994 <mengine_play_prev+0x94>
60166970:	ea40      	jalr	v0
60166972:	6c00      	li	a0,0
60166974:	b705      	lw	a3,60166988 <mengine_play_prev+0x88>
60166976:	6e01      	li	a2,1
60166978:	9fa0      	lw	a1,0(a3)
6016697a:	d204      	sw	v0,16(sp)
6016697c:	c5c9      	sb	a2,9(a1)
6016697e:	17ed      	b	6016695a <mengine_play_prev+0x5a>
60166980:	95f8      	lw	a1,992(sp)
60166982:	9fc1      	lw	a2,4(a3)
60166984:	95e3      	lw	a1,908(sp)
60166986:	9fc1      	lw	a2,4(a3)
60166988:	95f4      	lw	a1,976(sp)
6016698a:	9fc1      	lw	a2,4(a3)
6016698c:	95ec      	lw	a1,944(sp)
6016698e:	9fc1      	lw	a2,4(a3)
60166990:	6009      	bteqz	601669a4 <mengine_special_switch+0x4>
60166992:	bfc2      	lwu	a2,8(a3)
60166994:	6869      	li	s0,105
60166996:	6022      	bteqz	601669dc <mengine_special_switch+0x3c>
60166998:	6261      	sw	ra,388(sp)
6016699a:	bfc2      	lwu	a2,8(a3)
6016699c:	95de      	lw	a1,888(sp)
6016699e:	9fc1      	lw	a2,4(a3)

601669a0 <mengine_special_switch>:
601669a0:	64f6      	save	48,ra,s0-s1

//实现文件切换, 根据文件号、或者目录切换
bool mengine_special_switch(uint8 direct, uint16 dest_num)
{
601669a2:	b250      	lw	v0,60166ae0 <mengine_special_switch+0x140>
    bool ret;

    //停止当前歌曲播放
    ret = stop(STOP_NORMAL);
601669a4:	6704      	move	s0,a0
601669a6:	6c00      	li	a0,0
601669a8:	ea40      	jalr	v0
601669aa:	6725      	move	s1,a1
601669ac:	e811      	zeb	s0
601669ae:	e931      	zeh	s1
601669b0:	651a      	move	t8,v0
    if(ret == FALSE) {
        return ret;
601669b2:	2a03      	bnez	v0,601669ba <mengine_special_switch+0x1a>
601669b4:	6758      	move	v0,t8
    }

    //检测磁盘是否存在
    ret = mengine_check_disk_in();
    //如果已经拔出磁盘
    if(ret == FALSE) {
        //保存错误状态
        g_eg_status_p->err_status = EG_ERR_DISK_OUT;

        return ret;
    }

    //升频
    adjust_freq_set_level(AP_BACK_LOW_PRIO, FREQ_LEVEL10, FREQ_NULL);

    //是否可以选择列表
    if((g_list_access_allow == TRUE) && (g_mengine_enter_mode != ENTER_RECOD_PLAY)) {
        //只设置一次
        fsel_set_seltype(FSEL_TYPE_LISTDIR, fsel_get_fileno());
        g_list_access_allow = FALSE;
    }

    //强制切换
    fsel_set_mode(g_shuffle_flag | FSEL_MODE_LOOPALL);

    if(direct == SWITCH_BY_NO) {
        //数字点歌
        ret = fsel_get_byno((void *) g_eg_cfg_p->location.dirlocation.file_info.file_extend_info.file_ext, dest_num);
    } else if(direct == SWITCH_NEXT_DIR) {
        //目录向后
        ret = fsel_get_nextdir((void *) g_eg_cfg_p->location.dirlocation.file_info.file_extend_info.file_ext);
    } else {
        //目录向前
        ret = fsel_get_prevdir((void *) g_eg_cfg_p->location.dirlocation.file_info.file_extend_info.file_ext);
    }

    //恢复循环模式
    fsel_set_mode(g_shuffle_flag | (uint8)g_repeat_mode);

    //获取当前歌曲的location
    if(ret == TRUE) {
        fsel_get_location(&(g_eg_cfg_p->location.dirlocation));

        if(direct != 0) {
            g_eg_playinfo_p->cur_file_switch |= 0x01;
        }
        //清除断点信息
        libc_memset(&g_eg_cfg_p->bk_infor, 0, sizeof(mmm_mp_bp_info_t));

#ifdef MENGINE_ID3_SUPPORT
        mengine_getid3_done(&g_eg_cfg_p->location);
#endif
#ifdef DIR_NAME_SUPPORT
        fsel_get_dir_name(g_dir_name_buf, sizeof(g_dir_name_buf) / 2 - 2, &(g_eg_cfg_p->location.dirlocation));
#endif
        vfs_get_name(g_file_sys_id, g_eg_cfg_p->name_buf,
                     sizeof(g_eg_cfg_p->name_buf) / 2 - 2);
#ifdef CHECK_BK_DIR
        fsel_get_dir_name(g_eg_cfg_p->dir_name, sizeof(g_eg_cfg_p->dir_name) / 2 - 2,
                          &g_eg_cfg_p->location.dirlocation);
#endif
    } else {
        libc_memset(g_eg_cfg_p->name_buf, 0, sizeof(g_eg_cfg_p->name_buf));
#ifdef CHECK_BK_DIR
        libc_memset(g_eg_cfg_p->dir_name, 0, sizeof(g_eg_cfg_p->dir_name));
#endif
    }
    if(g_mengine_enter_mode != ENTER_RECOD_PLAY) {
        //正常切换也需要断点记忆,用于断电恢复
        mengine_vram_write(g_eg_cfg_p->location.dirlocation.disk);
    }

    //普通歌曲切换时当前时间先清零
    g_eg_playinfo_p->cur_time = 0;

    //if (direct == 0)
    //{
    //  //只要切换歌曲就会开始播放
    //  ret = play(PLAY_RESUME);
    //}

    //降频
    adjust_freq_set_level(AP_BACK_LOW_PRIO, FREQ_LEVEL2, FREQ_NULL);

    return ret;
}
601669b6:	6476      	restore	48,ra,s0-s1
601669b8:	e8a0      	jrc	ra
601669ba:	b24b      	lw	v0,60166ae4 <mengine_special_switch+0x144>
601669bc:	eac0      	jalrc	v0
601669be:	2a08      	bnez	v0,601669d0 <mengine_special_switch+0x30>
601669c0:	b64a      	lw	a2,60166ae8 <mengine_special_switch+0x148>
601669c2:	651a      	move	t8,v0
601669c4:	9e60      	lw	v1,0(a2)
601669c6:	6d02      	li	a1,2
601669c8:	6758      	move	v0,t8
601669ca:	c3a3      	sb	a1,3(v1)
601669cc:	6476      	restore	48,ra,s0-s1
601669ce:	e8a0      	jrc	ra
601669d0:	b247      	lw	v0,60166ae8 <mengine_special_switch+0x148>
601669d2:	6c06      	li	a0,6
601669d4:	6f03      	li	a3,3
601669d6:	6d0a      	li	a1,10
601669d8:	ea40      	jalr	v0
601669da:	6e00      	li	a2,0
601669dc:	b745      	lw	a3,60166af0 <mengine_special_switch+0x150>
601669de:	a780      	lbu	a0,0(a3)
601669e0:	7401      	cmpi	a0,1
601669e2:	604d      	bteqz	60166a7e <mengine_special_switch+0xde>
601669e4:	b747      	lw	a3,60166b00 <mengine_special_switch+0x160>
601669e6:	b248      	lw	v0,60166b04 <mengine_special_switch+0x164>
601669e8:	ea40      	jalr	v0
601669ea:	a780      	lbu	a0,0(a3)
601669ec:	2072      	beqz	s0,60166ad2 <mengine_special_switch+0x132>
601669ee:	7080      	cmpi	s0,128
601669f0:	6165      	btnez	60166abc <mengine_special_switch+0x11c>
601669f2:	b546      	lw	a1,60166b08 <mengine_special_switch+0x168>
601669f4:	b247      	lw	v0,60166b10 <mengine_special_switch+0x170>
601669f6:	9d80      	lw	a0,0(a1)
601669f8:	4c08      	addiu	a0,8
601669fa:	eac0      	jalrc	v0
601669fc:	b341      	lw	v1,60166afc <mengine_special_switch+0x15c>
601669fe:	b147      	lw	s1,60166b18 <mengine_special_switch+0x178>
60166a00:	d206      	sw	v0,24(sp)
60166a02:	a380      	lbu	a0,0(v1)
60166a04:	a1e0      	lbu	a3,0(s1)
60166a06:	b240      	lw	v0,60166b04 <mengine_special_switch+0x164>
60166a08:	ea40      	jalr	v0
60166a0a:	eced      	or	a0,a3
60166a0c:	9406      	lw	a0,24(sp)
60166a0e:	7401      	cmpi	a0,1
60166a10:	6144      	btnez	60166a9a <mengine_special_switch+0xfa>
60166a12:	b13e      	lw	s1,60166b08 <mengine_special_switch+0x168>
60166a14:	b242      	lw	v0,60166b1c <mengine_special_switch+0x17c>
60166a16:	99a0      	lw	a1,0(s1)
60166a18:	ea40      	jalr	v0
60166a1a:	4584      	addiu	a0,a1,4
60166a1c:	2006      	beqz	s0,60166a2a <mengine_special_switch+0x8a>
60166a1e:	b341      	lw	v1,60166b20 <mengine_special_switch+0x180>
60166a20:	6f01      	li	a3,1
60166a22:	9bc0      	lw	a2,0(v1)
60166a24:	a689      	lbu	a0,9(a2)
60166a26:	eced      	or	a0,a3
60166a28:	c689      	sb	a0,9(a2)
60166a2a:	9980      	lw	a0,0(s1)
60166a2c:	b23e      	lw	v0,60166b24 <mengine_special_switch+0x184>
60166a2e:	4c7f      	addiu	a0,127
60166a30:	4c1d      	addiu	a0,29
60166a32:	6d00      	li	a1,0
60166a34:	6e0c      	li	a2,12
60166a36:	ea40      	jalr	v0
60166a38:	6f01      	li	a3,1
60166a3a:	b53c      	lw	a1,60166b28 <mengine_special_switch+0x188>
60166a3c:	6f02      	li	a3,2
60166a3e:	9d80      	lw	a0,0(a1)
60166a40:	99a0      	lw	a1,0(s1)
60166a42:	b23b      	lw	v0,60166b2c <mengine_special_switch+0x18c>
60166a44:	4d7f      	addiu	a1,127
60166a46:	d704      	sw	a3,16(sp)
60166a48:	4d29      	addiu	a1,41
60166a4a:	6e0e      	li	a2,14
60166a4c:	ea40      	jalr	v0
60166a4e:	6f00      	li	a3,0
60166a50:	99c0      	lw	a2,0(s1)
60166a52:	b238      	lw	v0,60166b30 <mengine_special_switch+0x190>
60166a54:	f0c0 4688 	addiu	a0,a2,200
60166a58:	6d0e      	li	a1,14
60166a5a:	ea40      	jalr	v0
60166a5c:	46c4      	addiu	a2,a2,4
60166a5e:	b326      	lw	v1,60166af4 <mengine_special_switch+0x154>
60166a60:	a380      	lbu	a0,0(v1)
60166a62:	7401      	cmpi	a0,1
60166a64:	6130      	btnez	60166ac6 <mengine_special_switch+0x126>
60166a66:	b32f      	lw	v1,60166b20 <mengine_special_switch+0x180>
60166a68:	6e00      	li	a2,0
60166a6a:	9b80      	lw	a0,0(v1)
60166a6c:	b220      	lw	v0,60166aec <mengine_special_switch+0x14c>
60166a6e:	dcc0      	sw	a2,0(a0)
60166a70:	6d02      	li	a1,2
60166a72:	6c06      	li	a0,6
60166a74:	ea40      	jalr	v0
60166a76:	6f03      	li	a3,3
60166a78:	9506      	lw	a1,24(sp)
60166a7a:	651d      	move	t8,a1
60166a7c:	179b      	b	601669b4 <mengine_special_switch+0x14>
60166a7e:	b51e      	lw	a1,60166af4 <mengine_special_switch+0x154>
60166a80:	a560      	lbu	v1,0(a1)
60166a82:	7301      	cmpi	v1,1
60166a84:	60af      	bteqz	601669e4 <mengine_special_switch+0x44>
60166a86:	b21d      	lw	v0,60166af8 <mengine_special_switch+0x158>
60166a88:	eac0      	jalrc	v0
60166a8a:	67a2      	move	a1,v0
60166a8c:	b21c      	lw	v0,60166afc <mengine_special_switch+0x15c>
60166a8e:	ea40      	jalr	v0
60166a90:	6c01      	li	a0,1
60166a92:	b618      	lw	a2,60166af0 <mengine_special_switch+0x150>
60166a94:	6c00      	li	a0,0
60166a96:	c680      	sb	a0,0(a2)
60166a98:	17a5      	b	601669e4 <mengine_special_switch+0x44>
60166a9a:	b11c      	lw	s1,60166b08 <mengine_special_switch+0x168>
60166a9c:	b022      	lw	s0,60166b24 <mengine_special_switch+0x184>
60166a9e:	9980      	lw	a0,0(s1)
60166aa0:	6d00      	li	a1,0
60166aa2:	4c7f      	addiu	a0,127
60166aa4:	4c29      	addiu	a0,41
60166aa6:	6e20      	li	a2,32
60166aa8:	e840      	jalr	s0
60166aaa:	6f01      	li	a3,1
60166aac:	9980      	lw	a0,0(s1)
60166aae:	6d00      	li	a1,0
60166ab0:	4c7f      	addiu	a0,127
60166ab2:	4c49      	addiu	a0,73
60166ab4:	6e20      	li	a2,32
60166ab6:	e840      	jalr	s0
60166ab8:	6f01      	li	a3,1
60166aba:	17d1      	b	60166a5e <mengine_special_switch+0xbe>
60166abc:	b613      	lw	a2,60166b08 <mengine_special_switch+0x168>
60166abe:	b216      	lw	v0,60166b14 <mengine_special_switch+0x174>
60166ac0:	9e80      	lw	a0,0(a2)
60166ac2:	4c08      	addiu	a0,8
60166ac4:	179a      	b	601669fa <mengine_special_switch+0x5a>
60166ac6:	b711      	lw	a3,60166b08 <mengine_special_switch+0x168>
60166ac8:	b21b      	lw	v0,60166b34 <mengine_special_switch+0x194>
60166aca:	9fc0      	lw	a2,0(a3)
60166acc:	ea40      	jalr	v0
60166ace:	a684      	lbu	a0,4(a2)
60166ad0:	17ca      	b	60166a66 <mengine_special_switch+0xc6>
60166ad2:	b30e      	lw	v1,60166b08 <mengine_special_switch+0x168>
60166ad4:	67b1      	move	a1,s1
60166ad6:	9b80      	lw	a0,0(v1)
60166ad8:	b10d      	lw	s1,60166b0c <mengine_special_switch+0x16c>
60166ada:	e940      	jalr	s1
60166adc:	4c08      	addiu	a0,8
60166ade:	178e      	b	601669fc <mengine_special_switch+0x5c>
60166ae0:	6869      	li	s0,105
60166ae2:	6022      	bteqz	60166b28 <mengine_special_switch+0x188>
60166ae4:	6801      	li	s0,1
60166ae6:	6022      	bteqz	60166b2c <mengine_special_switch+0x18c>
60166ae8:	95f8      	lw	a1,992(sp)
60166aea:	9fc1      	lw	a2,4(a3)
60166aec:	6005      	bteqz	60166af8 <mengine_special_switch+0x158>
60166aee:	bfc2      	lwu	a2,8(a3)
60166af0:	95e9      	lw	a1,932(sp)
60166af2:	9fc1      	lw	a2,4(a3)
60166af4:	95de      	lw	a1,888(sp)
60166af6:	9fc1      	lw	a2,4(a3)
60166af8:	2101      	beqz	s1,60166afc <mengine_special_switch+0x15c>
60166afa:	7a02      	sd	s0,16(v0)
60166afc:	1f15 7a0a 	jalx	6ae1e828 <i2s_mfp_cfg+0xa377e20>
60166b00:	95e1      	lw	a1,900(sp)
60166b02:	9fc1      	lw	a2,4(a3)
60166b04:	2121      	beqz	s1,60166b48 <mengine_play_digital_song+0x10>
60166b06:	7a02      	sd	s0,16(v0)
60166b08:	95ec      	lw	a1,944(sp)
60166b0a:	9fc1      	lw	a2,4(a3)
60166b0c:	208d      	beqz	s0,60166a28 <mengine_special_switch+0x88>
60166b0e:	7a02      	sd	s0,16(v0)
60166b10:	2205      	beqz	v0,60166b1c <mengine_special_switch+0x17c>
60166b12:	7a02      	sd	s0,16(v0)
60166b14:	222d      	beqz	v0,60166b70 <mengine_play_folder_next+0x18>
60166b16:	7a02      	sd	s0,16(v0)
60166b18:	95e6      	lw	a1,920(sp)
60166b1a:	9fc1      	lw	a2,4(a3)
60166b1c:	21cd      	beqz	s1,60166ab8 <mengine_special_switch+0x118>
60166b1e:	7a02      	sd	s0,16(v0)
60166b20:	95f4      	lw	a1,976(sp)
60166b22:	9fc1      	lw	a2,4(a3)
60166b24:	6009      	bteqz	60166b38 <mengine_play_digital_song>
60166b26:	bfc2      	lwu	a2,8(a3)
60166b28:	9580      	lw	a1,512(sp)
60166b2a:	9fc1      	lw	a2,4(a3)
60166b2c:	6015      	bteqz	60166b58 <mengine_play_folder_next>
60166b2e:	bfc2      	lwu	a2,8(a3)
60166b30:	8df1      	lh	a3,34(a1)
60166b32:	7b02      	sd	s0,16(v1)
60166b34:	6801      	li	s0,1
60166b36:	600e      	bteqz	60166b54 <mengine_play_digital_song+0x1c>

60166b38 <mengine_play_digital_song>:
60166b38:	64e3      	save	24,ra,s0

//数字点歌
app_result_e mengine_play_digital_song(void *msg_ptr)
{
60166b3a:	9c61      	lw	v1,4(a0)
    bool ret_val;
    //点歌数字的指针
    private_msg_t *data_ptr = (private_msg_t *) msg_ptr;
    uint16 song_number = *(uint16 *)(data_ptr->msg.content.addr);
60166b3c:	6704      	move	s0,a0
60166b3e:	aba0      	lhu	a1,0(v1)
    ret_val = mengine_special_switch(SWITCH_BY_NO, song_number);
60166b40:	18a0 9a68 	jal	601669a0 <mengine_special_switch>
60166b44:	6c00      	li	a0,0
60166b46:	67a2      	move	a1,v0

    //返回成功
    mengine_reply_msg(msg_ptr, ret_val);
60166b48:	b203      	lw	v0,60166b54 <mengine_play_digital_song+0x1c>
60166b4a:	ea40      	jalr	v0
60166b4c:	6790      	move	a0,s0
60166b4e:	6a01      	li	v0,1

    return RESULT_IGNORE;
}
60166b50:	6463      	restore	24,ra,s0
60166b52:	e8a0      	jrc	ra
60166b54:	6261      	sw	ra,388(sp)
60166b56:	bfc2      	lwu	a2,8(a3)

60166b58 <mengine_play_folder_next>:
60166b58:	64e3      	save	24,ra,s0

//目录切换
app_result_e mengine_play_folder_next(void *msg_ptr)
{
60166b5a:	6704      	move	s0,a0
60166b5c:	6d01      	li	a1,1
    bool ret_val;

    ret_val = mengine_special_switch(SWITCH_NEXT_DIR, 1);
60166b5e:	18a0 9a68 	jal	601669a0 <mengine_special_switch>
60166b62:	6c80      	li	a0,128
60166b64:	67a2      	move	a1,v0

    //返回成功
    mengine_reply_msg(msg_ptr, ret_val);
60166b66:	b204      	lw	v0,60166b74 <mengine_play_folder_next+0x1c>
60166b68:	ea40      	jalr	v0
60166b6a:	6790      	move	a0,s0
60166b6c:	6a01      	li	v0,1

    return RESULT_IGNORE;
}
60166b6e:	6463      	restore	24,ra,s0
60166b70:	e8a0      	jrc	ra
60166b72:	0000      	addiu	s0,sp,0
60166b74:	6261      	sw	ra,388(sp)
60166b76:	bfc2      	lwu	a2,8(a3)

60166b78 <mengine_play_folder_prev>:
60166b78:	64e3      	save	24,ra,s0

//目录切换
app_result_e mengine_play_folder_prev(void *msg_ptr)
{
60166b7a:	6704      	move	s0,a0
60166b7c:	6d01      	li	a1,1
    bool ret_val;

    ret_val = mengine_special_switch(SWITCH_PRE_DIR, 1);
60166b7e:	18a0 9a68 	jal	601669a0 <mengine_special_switch>
60166b82:	6c80      	li	a0,128
60166b84:	67a2      	move	a1,v0

    //返回成功
    mengine_reply_msg(msg_ptr, ret_val);
60166b86:	b204      	lw	v0,60166b94 <mengine_play_folder_prev+0x1c>
60166b88:	ea40      	jalr	v0
60166b8a:	6790      	move	a0,s0
60166b8c:	6a01      	li	v0,1

    return RESULT_IGNORE;
}
60166b8e:	6463      	restore	24,ra,s0
60166b90:	e8a0      	jrc	ra
60166b92:	0000      	addiu	s0,sp,0
60166b94:	6261      	sw	ra,388(sp)
60166b96:	bfc2      	lwu	a2,8(a3)
Disassembly of section BANK_CONTROL_1_6:

601a6800 <mengine_fastplay_step>:
601a6800:	64e3      	save	24,ra,s0
#endif

//设置快进退的步长
app_result_e mengine_fastplay_step(void *msg_ptr)
{
601a6802:	b30c      	lw	v1,601a6830 <mengine_fastplay_step+0x30>
    //消息指针
    private_msg_t *data_ptr = (private_msg_t *) msg_ptr;
    //速度参数 毫秒为单位
    uint32 *speed_ptr = (uint32 *)(data_ptr->msg.content.addr);

    //是正常播放 or 快进
    if((g_eg_status_p->play_status == PlaySta) || (g_eg_status_p->play_status == PlayFast)) {
601a6804:	6704      	move	s0,a0
601a6806:	9b40      	lw	v0,0(v1)
601a6808:	9cc1      	lw	a2,4(a0)
601a680a:	a240      	lbu	v0,0(v0)
601a680c:	7202      	cmpi	v0,2
601a680e:	6002      	bteqz	601a6814 <mengine_fastplay_step+0x14>
601a6810:	7204      	cmpi	v0,4
601a6812:	6106      	btnez	601a6820 <mengine_fastplay_step+0x20>
601a6814:	b508      	lw	a1,601a6834 <mengine_fastplay_step+0x34>
        mmm_mp_cmd(g_mp_handle, MMM_MP_FFB_STEP, (unsigned int)(*speed_ptr));  //快进
601a6816:	9ec0      	lw	a2,0(a2)
601a6818:	9d80      	lw	a0,0(a1)
601a681a:	b208      	lw	v0,601a6838 <mengine_fastplay_step+0x38>
601a681c:	ea40      	jalr	v0
601a681e:	6d09      	li	a1,9
601a6820:	b307      	lw	v1,601a683c <mengine_fastplay_step+0x3c>
    }

    //返回成功
    mengine_reply_msg(msg_ptr, TRUE);
601a6822:	6790      	move	a0,s0
601a6824:	eb40      	jalr	v1
601a6826:	6d01      	li	a1,1
601a6828:	6a01      	li	v0,1

    return RESULT_IGNORE;
}
601a682a:	6463      	restore	24,ra,s0
601a682c:	e8a0      	jrc	ra
601a682e:	0000      	addiu	s0,sp,0
601a6830:	95f8      	lw	a1,992(sp)
601a6832:	9fc1      	lw	a2,4(a3)
601a6834:	95fc      	lw	a1,1008(sp)
601a6836:	9fc1      	lw	a2,4(a3)
601a6838:	600d      	bteqz	601a6854 <mengine_fast_forward+0x14>
601a683a:	bfc2      	lwu	a2,8(a3)
601a683c:	6261      	sw	ra,388(sp)
601a683e:	bfc2      	lwu	a2,8(a3)

601a6840 <mengine_fast_forward>:
601a6840:	64f4      	save	32,ra,s0-s1

//快进
app_result_e mengine_fast_forward(void *msg_ptr)
{
601a6842:	b00e      	lw	s0,601a6878 <mengine_fast_forward+0x38>
    //是正常播放 or 快进
    if((g_eg_status_p->play_status == PlaySta) || (g_eg_status_p->play_status == PlayFast)) {
601a6844:	6724      	move	s1,a0
601a6846:	9840      	lw	v0,0(s0)
601a6848:	a240      	lbu	v0,0(v0)
601a684a:	7202      	cmpi	v0,2
601a684c:	6002      	bteqz	601a6852 <mengine_fast_forward+0x12>
601a684e:	7204      	cmpi	v0,4
601a6850:	610b      	btnez	601a6868 <mengine_fast_forward+0x28>
601a6852:	b60b      	lw	a2,601a687c <mengine_fast_forward+0x3c>
        mmm_mp_cmd(g_mp_handle, MMM_MP_SET_FFB, (unsigned int) 4); //快进
601a6854:	b20b      	lw	v0,601a6880 <mengine_fast_forward+0x40>
601a6856:	9e80      	lw	a0,0(a2)
601a6858:	6d1f      	li	a1,31
601a685a:	ea40      	jalr	v0
601a685c:	6e04      	li	a2,4
601a685e:	9860      	lw	v1,0(s0)
        g_eg_status_p->play_status = PlayFast; //修改状态
601a6860:	6d04      	li	a1,4
601a6862:	6c01      	li	a0,1
        g_eg_status_p->fast_status = FFPlaySta;
601a6864:	c3a0      	sb	a1,0(v1)
601a6866:	c382      	sb	a0,2(v1)
601a6868:	b307      	lw	v1,601a6884 <mengine_fast_forward+0x44>
    }
    //返回成功
    mengine_reply_msg(msg_ptr, TRUE);
601a686a:	6791      	move	a0,s1
601a686c:	eb40      	jalr	v1
601a686e:	6d01      	li	a1,1
601a6870:	6a01      	li	v0,1

    return RESULT_IGNORE;
}
601a6872:	6474      	restore	32,ra,s0-s1
601a6874:	e8a0      	jrc	ra
601a6876:	0000      	addiu	s0,sp,0
601a6878:	95f8      	lw	a1,992(sp)
601a687a:	9fc1      	lw	a2,4(a3)
601a687c:	95fc      	lw	a1,1008(sp)
601a687e:	9fc1      	lw	a2,4(a3)
601a6880:	600d      	bteqz	601a689c <mengine_fast_backward+0x14>
601a6882:	bfc2      	lwu	a2,8(a3)
601a6884:	6261      	sw	ra,388(sp)
601a6886:	bfc2      	lwu	a2,8(a3)

601a6888 <mengine_fast_backward>:
601a6888:	64f4      	save	32,ra,s0-s1

//快退
app_result_e mengine_fast_backward(void *msg_ptr)
{
601a688a:	b00e      	lw	s0,601a68c0 <mengine_fast_backward+0x38>
    //当前是正常播放 or 快退
    if((g_eg_status_p->play_status == PlaySta) || (g_eg_status_p->play_status == PlayFast)) {
601a688c:	6724      	move	s1,a0
601a688e:	9840      	lw	v0,0(s0)
601a6890:	a240      	lbu	v0,0(v0)
601a6892:	7202      	cmpi	v0,2
601a6894:	6002      	bteqz	601a689a <mengine_fast_backward+0x12>
601a6896:	7204      	cmpi	v0,4
601a6898:	610c      	btnez	601a68b2 <mengine_fast_backward+0x2a>
601a689a:	b70b      	lw	a3,601a68c4 <mengine_fast_backward+0x3c>
        mmm_mp_cmd(g_mp_handle, MMM_MP_SET_FFB, (unsigned int) -4); //快退
601a689c:	6e04      	li	a2,4
601a689e:	9f80      	lw	a0,0(a3)
601a68a0:	b20a      	lw	v0,601a68c8 <mengine_fast_backward+0x40>
601a68a2:	6d1f      	li	a1,31
601a68a4:	ea40      	jalr	v0
601a68a6:	eecb      	neg	a2
601a68a8:	9860      	lw	v1,0(s0)
        g_eg_status_p->play_status = PlayFast; //修改状态
601a68aa:	6d04      	li	a1,4
601a68ac:	6c02      	li	a0,2
        g_eg_status_p->fast_status = FBPlaySta;
601a68ae:	c3a0      	sb	a1,0(v1)
601a68b0:	c382      	sb	a0,2(v1)
601a68b2:	b307      	lw	v1,601a68cc <mengine_fast_backward+0x44>
    }

    //返回成功
    mengine_reply_msg(msg_ptr, TRUE);
601a68b4:	6791      	move	a0,s1
601a68b6:	eb40      	jalr	v1
601a68b8:	6d01      	li	a1,1
601a68ba:	6a01      	li	v0,1

    return RESULT_IGNORE;
}
601a68bc:	6474      	restore	32,ra,s0-s1
601a68be:	e8a0      	jrc	ra
601a68c0:	95f8      	lw	a1,992(sp)
601a68c2:	9fc1      	lw	a2,4(a3)
601a68c4:	95fc      	lw	a1,1008(sp)
601a68c6:	9fc1      	lw	a2,4(a3)
601a68c8:	600d      	bteqz	601a68e4 <mengine_cancel_ffb+0x14>
601a68ca:	bfc2      	lwu	a2,8(a3)
601a68cc:	6261      	sw	ra,388(sp)
601a68ce:	bfc2      	lwu	a2,8(a3)

601a68d0 <mengine_cancel_ffb>:
601a68d0:	64f4      	save	32,ra,s0-s1

//取消快进快退
app_result_e mengine_cancel_ffb(void *msg_ptr)
{
601a68d2:	b011      	lw	s0,601a6914 <mengine_cancel_ffb+0x44>
    //当前是快进退状态
    if((g_eg_status_p->play_status == PlayFast) && (g_eg_status_p->fast_status != FBPlay_Null)) {
601a68d4:	6724      	move	s1,a0
601a68d6:	9860      	lw	v1,0(s0)
601a68d8:	a340      	lbu	v0,0(v1)
601a68da:	7204      	cmpi	v0,4
601a68dc:	6102      	btnez	601a68e2 <mengine_cancel_ffb+0x12>
601a68de:	a382      	lbu	a0,2(v1)
601a68e0:	2c07      	bnez	a0,601a68f0 <mengine_cancel_ffb+0x20>
601a68e2:	b310      	lw	v1,601a6920 <mengine_cancel_ffb+0x50>
        mmm_mp_cmd(g_mp_handle, MMM_MP_SET_FFB, (unsigned int) 0); //取消快进退
        g_eg_status_p->play_status = PlaySta; //修改状态
        g_eg_status_p->fast_status = FBPlay_Null;
    }

    //返回成功
    mengine_reply_msg(msg_ptr, TRUE);
601a68e4:	6791      	move	a0,s1
601a68e6:	eb40      	jalr	v1
601a68e8:	6d01      	li	a1,1
601a68ea:	6a01      	li	v0,1

    return RESULT_IGNORE;
}
601a68ec:	6474      	restore	32,ra,s0-s1
601a68ee:	e8a0      	jrc	ra
601a68f0:	b70a      	lw	a3,601a6914 <mengine_cancel_ffb+0x44>
601a68f2:	b20b      	lw	v0,601a691c <mengine_cancel_ffb+0x4c>
601a68f4:	9f80      	lw	a0,0(a3)
601a68f6:	6d1f      	li	a1,31
601a68f8:	ea40      	jalr	v0
601a68fa:	6e00      	li	a2,0
601a68fc:	9860      	lw	v1,0(s0)
601a68fe:	6e02      	li	a2,2
601a6900:	6d00      	li	a1,0
601a6902:	c3c0      	sb	a2,0(v1)
601a6904:	c3a2      	sb	a1,2(v1)
601a6906:	b307      	lw	v1,601a6920 <mengine_cancel_ffb+0x50>
601a6908:	6791      	move	a0,s1
601a690a:	eb40      	jalr	v1
601a690c:	6d01      	li	a1,1
601a690e:	6a01      	li	v0,1
601a6910:	6474      	restore	32,ra,s0-s1
601a6912:	e8a0      	jrc	ra
601a6914:	95f8      	lw	a1,992(sp)
601a6916:	9fc1      	lw	a2,4(a3)
601a6918:	95fc      	lw	a1,1008(sp)
601a691a:	9fc1      	lw	a2,4(a3)
601a691c:	600d      	bteqz	601a6938 <flush_rtc_reg+0x14>
601a691e:	bfc2      	lwu	a2,8(a3)
601a6920:	6261      	sw	ra,388(sp)
601a6922:	bfc2      	lwu	a2,8(a3)

601a6924 <flush_rtc_reg>:
601a6924:	b305      	lw	v1,601a6938 <flush_rtc_reg+0x14>

//写rtc域寄存器密码
void flush_rtc_reg(void)
{
    act_writel(0xA596, RTC_REGUPDATA);
601a6926:	f594 6a16 	li	v0,42390
601a692a:	db40      	sw	v0,0(v1)
601a692c:	9b80      	lw	a0,0(v1)
    while(act_readl(RTC_REGUPDATA) != 0x5A69) {
601a692e:	f26b 7409 	cmpi	a0,23145
601a6932:	61fc      	btnez	601a692c <flush_rtc_reg+0x8>
601a6934:	e8a0      	jrc	ra
601a6936:	0000      	addiu	s0,sp,0
601a6938:	0004      	addiu	s0,sp,16
601a693a:	c012      	sb	s0,18(s0)

601a693c <set_esd_restart_tag>:
601a693c:	64c3      	save	24,ra
        ;//qac
    }
}

//标记ESD RESTART标志：在正常进入播放时标记，如果能够正常退出播放，会调用 clear_esd_restart_tag 清除掉
void set_esd_restart_tag(void)
{
601a693e:	b206      	lw	v0,601a6954 <set_esd_restart_tag+0x18>
    act_writel(act_readl(RTC_BAK0) | (1 << MY_RTC_ESD_FLAG), RTC_BAK0);
601a6940:	6c04      	li	a0,4
601a6942:	9a60      	lw	v1,0(v0)
601a6944:	eb8d      	or	v1,a0
601a6946:	da60      	sw	v1,0(v0)
601a6948:	18c0 9a49 	jal	601a6924 <flush_rtc_reg>
    flush_rtc_reg();
601a694c:	6500      	nop
601a694e:	6443      	restore	24,ra
601a6950:	e8a0      	jrc	ra
601a6952:	0000      	addiu	s0,sp,0
601a6954:	0030      	addiu	s0,sp,192
601a6956:	c012      	sb	s0,18(s0)

601a6958 <clear_esd_restart_tag>:
601a6958:	64c3      	save	24,ra
}

//清除ESD RESTART标志：在正在退出播放时调用
void clear_esd_restart_tag(void)
{
601a695a:	b206      	lw	v0,601a6970 <clear_esd_restart_tag+0x18>
    act_writel(act_readl(RTC_BAK0) & (~(1 << MY_RTC_ESD_FLAG)), RTC_BAK0);
601a695c:	6d05      	li	a1,5
601a695e:	9a60      	lw	v1,0(v0)
601a6960:	ecab      	neg	a0,a1
601a6962:	eb8c      	and	v1,a0
601a6964:	da60      	sw	v1,0(v0)
601a6966:	18c0 9a49 	jal	601a6924 <flush_rtc_reg>
    flush_rtc_reg();
601a696a:	6500      	nop
601a696c:	6443      	restore	24,ra
601a696e:	e8a0      	jrc	ra
601a6970:	0030      	addiu	s0,sp,192
601a6972:	c012      	sb	s0,18(s0)

601a6974 <is_esd_restart>:
601a6974:	b404      	lw	a0,601a6984 <is_esd_restart+0x10>
}

//是否ESD RESTART
bool is_esd_restart(void)
{
    if((act_readl(RTC_BAK0) & (1 << MY_RTC_ESD_FLAG)) != 0) {
601a6976:	6a04      	li	v0,4
601a6978:	9c60      	lw	v1,0(a0)
601a697a:	eb4c      	and	v1,v0
601a697c:	424d      	addiu	v0,v0,-3
        return TRUE;
601a697e:	2b01      	bnez	v1,601a6982 <is_esd_restart+0xe>
601a6980:	6743      	move	v0,v1
    } else {
        return FALSE;
601a6982:	e8a0      	jrc	ra
    }
}
601a6984:	0030      	addiu	s0,sp,192
601a6986:	c012      	sb	s0,18(s0)

601a6988 <get_bk_info>:
601a6988:	64e3      	save	24,ra,s0

//断点恢复
bool get_bk_info(void)
{
601a698a:	18c0 9a5d 	jal	601a6974 <is_esd_restart>
    bool ret = FALSE;
    if(is_esd_restart() == TRUE) {
601a698e:	6800      	li	s0,0
601a6990:	7201      	cmpi	v0,1
601a6992:	6003      	bteqz	601a699a <get_bk_info+0x12>
601a6994:	6750      	move	v0,s0
        g_eg_cfg_p->bk_infor.bp_file_offset = (int)act_readl(RTC_BAK1);
        g_eg_cfg_p->bk_infor.bp_time_offset = (int)act_readl(RTC_BAK2);
        ret = TRUE;
        libc_print("re-bk-info", g_eg_cfg_p->bk_infor.bp_file_offset, 2);
    }
    return ret;
}
601a6996:	6463      	restore	24,ra,s0
601a6998:	e8a0      	jrc	ra
601a699a:	b50d      	lw	a1,601a69cc <get_bk_info+0x44>
601a699c:	b70d      	lw	a3,601a69d0 <get_bk_info+0x48>
601a699e:	9d60      	lw	v1,0(a1)
601a69a0:	9fa0      	lw	a1,0(a3)
601a69a2:	b60d      	lw	a2,601a69d4 <get_bk_info+0x4c>
601a69a4:	f0a0 dba0 	sw	a1,160(v1)
601a69a8:	9e80      	lw	a0,0(a2)
601a69aa:	b20c      	lw	v0,601a69d8 <get_bk_info+0x50>
601a69ac:	f080 db9c 	sw	a0,156(v1)
601a69b0:	4001      	addiu	s0,s0,1
601a69b2:	0c04      	la	a0,601a69c0 <get_bk_info+0x38>
601a69b4:	6e02      	li	a2,2
601a69b6:	ea40      	jalr	v0
601a69b8:	6f4b      	li	a3,75
601a69ba:	6750      	move	v0,s0
601a69bc:	6463      	restore	24,ra,s0
601a69be:	e8a0      	jrc	ra
601a69c0:	6572      	move	s3,v0
601a69c2:	622d      	sw	ra,180(sp)
601a69c4:	2d6b      	bnez	a1,601a6a9c <get_bk_info+0x114>
601a69c6:	6e69      	li	a2,105
601a69c8:	6f66      	li	a3,102
601a69ca:	0000      	addiu	s0,sp,0
601a69cc:	95ec      	lw	a1,944(sp)
601a69ce:	9fc1      	lw	a2,4(a3)
601a69d0:	0034      	addiu	s0,sp,208
601a69d2:	c012      	sb	s0,18(s0)
601a69d4:	0038      	addiu	s0,sp,224
601a69d6:	c012      	sb	s0,18(s0)
601a69d8:	6011      	bteqz	601a69fc <get_bk_info+0x74>
601a69da:	bfc2      	lwu	a2,8(a3)
Disassembly of section BANK_CONTROL_1_7:

601e6800 <mengine_file_init>:
601e6800:	f010 64f3 	save	152,ra,s0-s1
#include "audio_device.h"

//初始化文件选择器,定位到设定文件or当前模式第一个可播放文件
bool mengine_file_init(void)
{
601e6804:	6801      	li	s0,1
    fsel_param_t init_param; //文件选择器初始化参数
    //后缀名buffer
    uint8 exname[4];
    //路径信息指针
    plist_location_t *loaction_ptr;
    //文件选择类型
    //初始化文件选择器结果
    bool init_result = FALSE;
    //介质存在标志
    int8 uhost_exist = -1;
601e6806:	6c00      	li	a0,0
601e6808:	e80b      	neg	s0
601e680a:	d421      	sw	a0,132(sp)
601e680c:	6730      	move	s1,s0
    int8 card_exist = -1;
601e680e:	b3ae      	lw	v1,601e6ac4 <.LBB3+0x2e>
    uint8 temp_buf[4];

    for(;;) {
        if(g_card_support == 1) {
601e6810:	a340      	lbu	v0,0(v1)
601e6812:	7201      	cmpi	v0,1
601e6814:	f080 600a 	bteqz	601e692c <mengine_file_init+0x12c>
601e6818:	b6ad      	lw	a2,601e6acc <.LBB3+0x36>
            //卡存在否
            card_exist = (int8) sys_detect_disk(DRV_GROUP_STG_CARD);
        }
        if(g_uhost_support == 1) {
601e681a:	a6a0      	lbu	a1,0(a2)
601e681c:	7501      	cmpi	a1,1
601e681e:	f080 6012 	bteqz	601e6946 <mengine_file_init+0x146>
601e6822:	b5ac      	lw	a1,601e6ad0 <.LBB3+0x3a>
            //u盘存在否
            uhost_exist = (int8) sys_detect_disk(DRV_GROUP_STG_UHOST);
        }

        //断点信息就放在g_eg_cfg_p->location
        loaction_ptr = &(g_eg_cfg_p->location.plist_location);
601e6824:	9d80      	lw	a0,0(a1)
601e6826:	4464      	addiu	v1,a0,4
601e6828:	d31e      	sw	v1,120(sp)
601e682a:	a4e4      	lbu	a3,4(a0)

        //保证盘符正确
        if(loaction_ptr->disk == DISK_C) {
601e682c:	7707      	cmpi	a3,7
601e682e:	6102      	btnez	601e6834 <mengine_file_init+0x34>
601e6830:	6e20      	li	a2,32
            loaction_ptr->disk = DISK_U;
601e6832:	c4c4      	sb	a2,4(a0)
601e6834:	ea2f      	not	v0,s1
        }
        //卡和u盘都不存在
        if((card_exist == -1) && (uhost_exist == -1)) {
601e6836:	5a01      	sltiu	v0,1
601e6838:	67b8      	move	a1,t8
601e683a:	250e      	beqz	a1,601e6858 <mengine_file_init+0x58>
601e683c:	ef0f      	not	a3,s0
601e683e:	5f01      	sltiu	a3,1
601e6840:	6778      	move	v1,t8
601e6842:	230d      	beqz	v1,601e685e <mengine_file_init+0x5e>
601e6844:	b7af      	lw	a3,601e6b00 <.LBB3+0x6a>
            break;
        }
        if(g_mengine_enter_mode == ENTER_RECOD_PLAY) {
            if(uhost_exist == -1) {
                //u盘不存在
                loaction_ptr->disk = DISK_H;
            } else if(card_exist == -1) {
                //卡不存在
                loaction_ptr->disk = DISK_U;
            } else {
                ; //do nothing
            }
        }
        if((uhost_exist == -1) && (loaction_ptr->disk == DISK_U)) {
            break;
        }

        if((card_exist == -1) && (loaction_ptr->disk == DISK_H)) {
            break;
        }

        //文件选择器初始化接口的参数设置

        //盘符信息
        init_param.disk = loaction_ptr->disk;

        //文件选择类型
        init_param.fsel_type = g_fsel_type;

        //循环模式
        init_param.fsel_mode = FSEL_MODE_LOOPALL;

        //bitmap 设置
        init_param.file_type_bit = MUSIC_BITMAP;

        //文件选择器初始化
        g_file_sys_id = fsel_init(&init_param, 0);
        if(g_file_sys_id == -1) {
            break;
        }

        //为了BUG：文件还能定位到，但实际已经格式化了
        if(vfs_dir(g_file_sys_id, DIR_NEXT, NULL, EXT_NAME_ALL) == 0) {
            _clear_vm_deal(loaction_ptr->disk);

            break;
        }

        if(g_mengine_enter_mode == ENTER_RECOD_PLAY) {
            uint8 rec_name_less[8 + 1];
            uint8 rec_name_more[16 + 1];

            libc_memset(rec_name_less, 0x00, sizeof(rec_name_less));
            libc_memset(rec_name_more, 0x00, sizeof(rec_name_more));
            com_load_share_data(COM_SHARE_DATA_REC_FOLDER, rec_name_less, sizeof(rec_name_less) - 1, 0);
            com_load_share_data(COM_SHARE_DATA_REC_FOLDER, rec_name_more, sizeof(rec_name_more) - 1, 1);

            //设置进入record目录,定位到第一个文件
            init_result = fsel_enter_dir((uint8 *) &rec_name_less, (uint8 *) &rec_name_more, DIR_TAIL);
            if(init_result == FALSE) {
                //未找到record 目录
                break;
            }
            init_result = fsel_get_location(loaction_ptr);
            //清除断点信息
            libc_memset(&g_eg_cfg_p->bk_infor, 0, sizeof(mmm_mp_bp_info_t));
        }

        //record if bk is ok for front apk update plist and if need scan
        g_eg_status_p->first_file_status = FIRST_PLAY_FROM_BK;

        for(;;) {
            if(init_result == TRUE) {
                break;
            }

            //设置上次退出的文件
            init_result = fsel_set_location(loaction_ptr);

            if(init_result == FALSE) {
                break;
            }

            //比较后缀名
            vfs_get_name(g_file_sys_id, exname, 0);

            if(libc_strncmp(exname, loaction_ptr->file_info.file_extend_info.file_ext, sizeof(exname)) != 0) {
                init_result = FALSE;
                break;
            }

            temp_buf[0] = 'W';
            temp_buf[1] = 'A';
            temp_buf[2] = 'V';
            temp_buf[3] = 0;
            //修改插拔磁盘时wav的文件位置信息出错导致断点无法播放的问题
            if(libc_strncmp(exname, temp_buf, sizeof(exname)) == 0) {
                //清除文件位置信息
                g_eg_cfg_p->bk_infor.bp_file_offset = 0;
            }
            vfs_get_name(g_file_sys_id, g_file_name, sizeof(g_file_name) / 2 - 2);

            if(libc_strncmp(g_file_name, g_eg_cfg_p->name_buf, sizeof(g_file_name)) != 0) {
                init_result = FALSE;
                break;
            }

#ifdef CHECK_BK_DIR
            {
                uint8 dir_name[sizeof(g_eg_cfg_p->dir_name)];

                fsel_get_dir_name(dir_name, sizeof(dir_name) / 2 - 2, &g_eg_cfg_p->location.dirlocation);
                if(libc_strncmp(dir_name, g_eg_cfg_p->dir_name, sizeof(dir_name)) != 0) {
                    init_result = FALSE;
                }
            }
#endif
            break;
        }

        //设置失败
        if(init_result == FALSE) {
            //清除断点信息
            libc_memset(&g_eg_cfg_p->bk_infor, 0, sizeof(mmm_mp_bp_info_t));

            //获取当前模式下的第一个可播放文件
            init_result = fsel_get_nextfile(loaction_ptr->file_info.file_extend_info.file_ext);
            //找到可播放文件
            if(init_result == TRUE) {
                //获取当前文件的location信息
                init_result = fsel_get_location(loaction_ptr);
            }
            //first play file need form start，bk is error
            g_eg_status_p->first_file_status = FIRST_PLAY_FROM_START;
        }

        if(init_result == TRUE) {
#ifdef MENGINE_ID3_SUPPORT
            mengine_getid3_done(&g_eg_cfg_p->location);
#endif
#ifdef DIR_NAME_SUPPORT
            fsel_get_dir_name(g_dir_name_buf, sizeof(g_dir_name_buf) / 2 - 2, &(g_eg_cfg_p->location.dirlocation));
#endif
            vfs_get_name(g_file_sys_id, g_eg_cfg_p->name_buf, sizeof(g_eg_cfg_p->name_buf) / 2 - 2);
#ifdef CHECK_BK_DIR
            fsel_get_dir_name(g_eg_cfg_p->dir_name, sizeof(g_eg_cfg_p->dir_name) / 2 - 2,
                              &g_eg_cfg_p->location.dirlocation);
#endif
        }

        break;
    }
    if((init_result == FALSE) || ((loaction_ptr->disk != g_open_disk) && (g_mengine_enter_mode != ENTER_RECOD_PLAY))) {
        //没有可播放文件
        //loaction_ptr->file_total = 0;

        init_result = FALSE;

        //设置状态为出错无文件
        g_eg_status_p->err_status = EG_ERR_NO_FILE;
601e6846:	6a00      	li	v0,0
601e6848:	9fa0      	lw	a1,0(a3)
601e684a:	6e01      	li	a2,1
601e684c:	d221      	sw	v0,132(sp)
601e684e:	c5c3      	sb	a2,3(a1)
601e6850:	9221      	lw	v0,132(sp)
    }

    return init_result;
}
601e6852:	f010 6473 	restore	152,ra,s0-s1
601e6856:	e8a0      	jrc	ra
601e6858:	eb0f      	not	v1,s0
601e685a:	5b01      	sltiu	v1,1
601e685c:	6778      	move	v1,t8
601e685e:	b29e      	lw	v0,601e6ad4 <.LBB3+0x3e>
601e6860:	a2c0      	lbu	a2,0(v0)
601e6862:	7601      	cmpi	a2,1
601e6864:	605c      	bteqz	601e691e <mengine_file_init+0x11e>
601e6866:	235f      	beqz	v1,601e6926 <mengine_file_init+0x126>
601e6868:	961e      	lw	a2,120(sp)
601e686a:	a660      	lbu	v1,0(a2)
601e686c:	6783      	move	a0,v1
601e686e:	ec11      	zeb	a0
601e6870:	7420      	cmpi	a0,32
601e6872:	60e8      	bteqz	601e6844 <mengine_file_init+0x44>
601e6874:	2504      	beqz	a1,601e687e <mengine_file_init+0x7e>
601e6876:	67a3      	move	a1,v1
601e6878:	ed11      	zeb	a1
601e687a:	7510      	cmpi	a1,16
601e687c:	60e3      	bteqz	601e6844 <mengine_file_init+0x44>
601e687e:	b597      	lw	a1,601e6ad8 <.LBB3+0x42>
601e6880:	67fd      	move	a3,sp
601e6882:	c77a      	sb	v1,26(a3)
601e6884:	a540      	lbu	v0,0(a1)
601e6886:	b396      	lw	v1,601e6adc <.LBB3+0x46>
601e6888:	679d      	move	a0,sp
601e688a:	6e00      	li	a2,0
601e688c:	b195      	lw	s1,601e6ae0 <.LBB3+0x4a>
601e688e:	c458      	sb	v0,24(a0)
601e6890:	c4d9      	sb	a2,25(a0)
601e6892:	d307      	sw	v1,28(sp)
601e6894:	0406      	addiu	a0,sp,24
601e6896:	e940      	jalr	s1
601e6898:	6d00      	li	a1,0
601e689a:	b193      	lw	s1,601e6ae4 <.LBB3+0x4e>
601e689c:	ef4f      	not	a3,v0
601e689e:	6782      	move	a0,v0
601e68a0:	d940      	sw	v0,0(s1)
601e68a2:	27d0      	beqz	a3,601e6844 <mengine_file_init+0x44>
601e68a4:	6e01      	li	a2,1
601e68a6:	b391      	lw	v1,601e6ae8 <.LBB3+0x52>
601e68a8:	d604      	sw	a2,16(sp)
601e68aa:	6d80      	li	a1,128
601e68ac:	6e00      	li	a2,0
601e68ae:	eb40      	jalr	v1
601e68b0:	6f04      	li	a3,4
601e68b2:	f080 2202 	beqz	v0,601e69ba <mengine_file_init+0x1ba>
601e68b6:	b388      	lw	v1,601e6ad4 <.LBB3+0x3e>
601e68b8:	a3e0      	lbu	a3,0(v1)
601e68ba:	7701      	cmpi	a3,1
601e68bc:	f080 6002 	bteqz	601e69c4 <.LBB2>
601e68c0:	b390      	lw	v1,601e6b00 <.LBB3+0x6a>
601e68c2:	6f00      	li	a3,0
601e68c4:	9b80      	lw	a0,0(v1)
601e68c6:	c4e5      	sb	a3,5(a0)
601e68c8:	9521      	lw	a1,132(sp)
601e68ca:	7501      	cmpi	a1,1
601e68cc:	615c      	btnez	601e6986 <mengine_file_init+0x186>
601e68ce:	9421      	lw	a0,132(sp)
601e68d0:	f0a0 2c04 	bnez	a0,601e6a1c <.LBB2+0x58>
601e68d4:	b37f      	lw	v1,601e6ad0 <.LBB3+0x3a>
601e68d6:	9521      	lw	a1,132(sp)
601e68d8:	9b80      	lw	a0,0(v1)
601e68da:	b286      	lw	v0,601e6af0 <.LBB3+0x5a>
601e68dc:	4c7f      	addiu	a0,127
601e68de:	4c1d      	addiu	a0,29
601e68e0:	6e0c      	li	a2,12
601e68e2:	ea40      	jalr	v0
601e68e4:	6f01      	li	a3,1
601e68e6:	971e      	lw	a3,120(sp)
601e68e8:	b28a      	lw	v0,601e6b10 <.LBB3+0x7a>
601e68ea:	ea40      	jalr	v0
601e68ec:	4784      	addiu	a0,a3,4
601e68ee:	7201      	cmpi	v0,1
601e68f0:	67b8      	move	a1,t8
601e68f2:	5d01      	sltiu	a1,1
601e68f4:	d221      	sw	v0,132(sp)
601e68f6:	f080 6118 	btnez	601e6a2a <.LBE2+0x6>
601e68fa:	b782      	lw	a3,601e6b00 <.LBB3+0x6a>
601e68fc:	6d01      	li	a1,1
601e68fe:	9f80      	lw	a0,0(a3)
601e6900:	c4a5      	sb	a1,5(a0)
601e6902:	612d      	btnez	601e695e <mengine_file_init+0x15e>
601e6904:	9421      	lw	a0,132(sp)
601e6906:	249e      	beqz	a0,601e6844 <mengine_file_init+0x44>
601e6908:	921e      	lw	v0,120(sp)
601e690a:	b783      	lw	a3,601e6b14 <.LBB3+0x7e>
601e690c:	a2a0      	lbu	a1,0(v0)
601e690e:	a7c0      	lbu	a2,0(a3)
601e6910:	edce      	xor	a1,a2
601e6912:	259e      	beqz	a1,601e6850 <mengine_file_init+0x50>
601e6914:	b470      	lw	a0,601e6ad4 <.LBB3+0x3e>
601e6916:	a460      	lbu	v1,0(a0)
601e6918:	7301      	cmpi	v1,1
601e691a:	609a      	bteqz	601e6850 <mengine_file_init+0x50>
601e691c:	1793      	b	601e6844 <mengine_file_init+0x44>
601e691e:	2b1c      	bnez	v1,601e6958 <mengine_file_init+0x158>
601e6920:	2502      	beqz	a1,601e6926 <mengine_file_init+0x126>
601e6922:	6b20      	li	v1,32
601e6924:	c464      	sb	v1,4(a0)
601e6926:	921e      	lw	v0,120(sp)
601e6928:	a260      	lbu	v1,0(v0)
601e692a:	17a4      	b	601e6874 <mengine_file_init+0x74>
601e692c:	9521      	lw	a1,132(sp)
601e692e:	b167      	lw	s1,601e6ac8 <.LBB3+0x32>
601e6930:	67c5      	move	a2,a1
601e6932:	6c01      	li	a0,1
601e6934:	e940      	jalr	s1
601e6936:	6f09      	li	a3,9
601e6938:	b665      	lw	a2,601e6acc <.LBB3+0x36>
601e693a:	6722      	move	s1,v0
601e693c:	a6a0      	lbu	a1,0(a2)
601e693e:	e991      	seb	s1
601e6940:	7501      	cmpi	a1,1
601e6942:	f77f 610e 	btnez	601e6822 <mengine_file_init+0x22>
601e6946:	9521      	lw	a1,132(sp)
601e6948:	b260      	lw	v0,601e6ac8 <.LBB3+0x32>
601e694a:	6c02      	li	a0,2
601e694c:	67c5      	move	a2,a1
601e694e:	ea40      	jalr	v0
601e6950:	6f09      	li	a3,9
601e6952:	6702      	move	s0,v0
601e6954:	e891      	seb	s0
601e6956:	1765      	b	601e6822 <mengine_file_init+0x22>
601e6958:	6f10      	li	a3,16
601e695a:	c4e4      	sb	a3,4(a0)
601e695c:	1784      	b	601e6866 <mengine_file_init+0x66>
601e695e:	b062      	lw	s0,601e6ae4 <.LBB3+0x4e>
601e6960:	6b02      	li	v1,2
601e6962:	9880      	lw	a0,0(s0)
601e6964:	b05b      	lw	s0,601e6ad0 <.LBB3+0x3a>
601e6966:	b261      	lw	v0,601e6ae8 <.LBB3+0x52>
601e6968:	98a0      	lw	a1,0(s0)
601e696a:	6e0e      	li	a2,14
601e696c:	4d7f      	addiu	a1,127
601e696e:	d304      	sw	v1,16(sp)
601e6970:	4d29      	addiu	a1,41
601e6972:	ea40      	jalr	v0
601e6974:	6f00      	li	a3,0
601e6976:	98e0      	lw	a3,0(s0)
601e6978:	b265      	lw	v0,601e6b0c <.LBB3+0x76>
601e697a:	f0c0 4788 	addiu	a0,a3,200
601e697e:	6d0e      	li	a1,14
601e6980:	ea40      	jalr	v0
601e6982:	47c4      	addiu	a2,a3,4
601e6984:	17bf      	b	601e6904 <mengine_file_init+0x104>
601e6986:	b260      	lw	v0,601e6b04 <.LBB3+0x6e>
601e6988:	ea40      	jalr	v0
601e698a:	941e      	lw	a0,120(sp)
601e698c:	d221      	sw	v0,132(sp)
601e698e:	22a2      	beqz	v0,601e68d4 <mengine_file_init+0xd4>
601e6990:	9980      	lw	a0,0(s1)
601e6992:	6e00      	li	a2,0
601e6994:	0008      	addiu	s0,sp,32
601e6996:	6d02      	li	a1,2
601e6998:	b354      	lw	v1,601e6ae8 <.LBB3+0x52>
601e699a:	67e6      	move	a3,a2
601e699c:	d504      	sw	a1,16(sp)
601e699e:	eb40      	jalr	v1
601e69a0:	67b0      	move	a1,s0
601e69a2:	961e      	lw	a2,120(sp)
601e69a4:	b353      	lw	v1,601e6af0 <.LBB3+0x5a>
601e69a6:	46a4      	addiu	a1,a2,4
601e69a8:	6790      	move	a0,s0
601e69aa:	6e04      	li	a2,4
601e69ac:	eb40      	jalr	v1
601e69ae:	6f05      	li	a3,5
601e69b0:	d21f      	sw	v0,124(sp)
601e69b2:	2243      	beqz	v0,601e6a3a <.LBE2+0x16>
601e69b4:	6c00      	li	a0,0
601e69b6:	d421      	sw	a0,132(sp)
601e69b8:	178d      	b	601e68d4 <mengine_file_init+0xd4>
601e69ba:	951e      	lw	a1,120(sp)
601e69bc:	b24c      	lw	v0,601e6aec <.LBB3+0x56>
601e69be:	ea40      	jalr	v0
601e69c0:	a580      	lbu	a0,0(a1)
601e69c2:	1740      	b	601e6844 <mengine_file_init+0x44>

601e69c4 <.LBB2>:
601e69c4:	b34b      	lw	v1,601e6af0 <.LBB3+0x5a>
601e69c6:	040c      	addiu	a0,sp,48
601e69c8:	6d00      	li	a1,0
601e69ca:	6e09      	li	a2,9
601e69cc:	eb40      	jalr	v1
601e69ce:	6f01      	li	a3,1
601e69d0:	b048      	lw	s0,601e6af0 <.LBB3+0x5a>
601e69d2:	0410      	addiu	a0,sp,64
601e69d4:	6d00      	li	a1,0
601e69d6:	6e11      	li	a2,17
601e69d8:	e840      	jalr	s0
601e69da:	6f01      	li	a3,1
601e69dc:	b046      	lw	s0,601e6af4 <.LBB3+0x5e>
601e69de:	6c04      	li	a0,4
601e69e0:	050c      	addiu	a1,sp,48
601e69e2:	6e08      	li	a2,8
601e69e4:	e840      	jalr	s0
601e69e6:	6f00      	li	a3,0
601e69e8:	6c04      	li	a0,4
601e69ea:	0510      	addiu	a1,sp,64
601e69ec:	6e10      	li	a2,16
601e69ee:	e840      	jalr	s0
601e69f0:	6f01      	li	a3,1
601e69f2:	b242      	lw	v0,601e6af8 <.LBB3+0x62>
601e69f4:	040c      	addiu	a0,sp,48
601e69f6:	0510      	addiu	a1,sp,64
601e69f8:	ea40      	jalr	v0
601e69fa:	6e83      	li	a2,131
601e69fc:	f73f 2202 	beqz	v0,601e6844 <mengine_file_init+0x44>
601e6a00:	b23f      	lw	v0,601e6afc <.LBB3+0x66>
601e6a02:	ea40      	jalr	v0
601e6a04:	941e      	lw	a0,120(sp)
601e6a06:	b633      	lw	a2,601e6ad0 <.LBB3+0x3a>
601e6a08:	b33a      	lw	v1,601e6af0 <.LBB3+0x5a>
601e6a0a:	9e80      	lw	a0,0(a2)
601e6a0c:	d221      	sw	v0,132(sp)
601e6a0e:	4c7f      	addiu	a0,127
601e6a10:	4c1d      	addiu	a0,29
601e6a12:	6d00      	li	a1,0
601e6a14:	6e0c      	li	a2,12
601e6a16:	eb40      	jalr	v1
601e6a18:	6f01      	li	a3,1
601e6a1a:	1752      	b	601e68c0 <mengine_file_init+0xc0>
601e6a1c:	9621      	lw	a2,132(sp)
601e6a1e:	7601      	cmpi	a2,1
601e6a20:	6778      	move	v1,t8
601e6a22:	5b01      	sltiu	v1,1

601e6a24 <.LBE2>:
601e6a24:	f77f 600e 	bteqz	601e6904 <mengine_file_init+0x104>
601e6a28:	179a      	b	601e695e <mengine_file_init+0x15e>
601e6a2a:	b235      	lw	v0,601e6afc <.LBB3+0x66>
601e6a2c:	ea40      	jalr	v0
601e6a2e:	941e      	lw	a0,120(sp)
601e6a30:	7201      	cmpi	v0,1
601e6a32:	67d8      	move	a2,t8
601e6a34:	5e01      	sltiu	a2,1
601e6a36:	d221      	sw	v0,132(sp)
601e6a38:	1760      	b	601e68fa <mengine_file_init+0xfa>
601e6a3a:	679d      	move	a0,sp
601e6a3c:	f060 a4fc 	lbu	a3,124(a0)
601e6a40:	6e41      	li	a2,65
601e6a42:	6b57      	li	v1,87
601e6a44:	6a56      	li	v0,86
601e6a46:	f020 c4c9 	sb	a2,41(a0)
601e6a4a:	f020 c4eb 	sb	a3,43(a0)
601e6a4e:	f020 c468 	sb	v1,40(a0)
601e6a52:	f020 c44a 	sb	v0,42(a0)
601e6a56:	6790      	move	a0,s0
601e6a58:	b026      	lw	s0,601e6af0 <.LBB3+0x5a>
601e6a5a:	050a      	addiu	a1,sp,40
601e6a5c:	6e04      	li	a2,4
601e6a5e:	e840      	jalr	s0
601e6a60:	6f05      	li	a3,5
601e6a62:	2a04      	bnez	v0,601e6a6c <.LBE2+0x48>
601e6a64:	b01b      	lw	s0,601e6ad0 <.LBB3+0x3a>
601e6a66:	98a0      	lw	a1,0(s0)
601e6a68:	f0a0 dd40 	sw	v0,160(a1)
601e6a6c:	b027      	lw	s0,601e6b08 <.LBB3+0x72>
601e6a6e:	6f02      	li	a3,2
601e6a70:	9980      	lw	a0,0(s1)
601e6a72:	d704      	sw	a3,16(sp)
601e6a74:	b11d      	lw	s1,601e6ae8 <.LBB3+0x52>
601e6a76:	971f      	lw	a3,124(sp)
601e6a78:	67b0      	move	a1,s0
601e6a7a:	e940      	jalr	s1
601e6a7c:	6e0e      	li	a2,14
601e6a7e:	b115      	lw	s1,601e6ad0 <.LBB3+0x3a>
601e6a80:	b31c      	lw	v1,601e6af0 <.LBB3+0x5a>
601e6a82:	99a0      	lw	a1,0(s1)
601e6a84:	6790      	move	a0,s0
601e6a86:	4d7f      	addiu	a1,127
601e6a88:	4d29      	addiu	a1,41
601e6a8a:	6e20      	li	a2,32
601e6a8c:	eb40      	jalr	v1
601e6a8e:	6f05      	li	a3,5
601e6a90:	d220      	sw	v0,128(sp)
601e6a92:	2203      	beqz	v0,601e6a9a <.LBB3+0x4>
601e6a94:	921f      	lw	v0,124(sp)

601e6a96 <.LBB3>:
601e6a96:	d221      	sw	v0,132(sp)
601e6a98:	171d      	b	601e68d4 <mengine_file_init+0xd4>
601e6a9a:	99c0      	lw	a2,0(s1)
601e6a9c:	0016      	addiu	s0,sp,88
601e6a9e:	b21c      	lw	v0,601e6b0c <.LBB3+0x76>
601e6aa0:	6790      	move	a0,s0
601e6aa2:	6d0e      	li	a1,14
601e6aa4:	ea40      	jalr	v0
601e6aa6:	46c4      	addiu	a2,a2,4
601e6aa8:	99a0      	lw	a1,0(s1)
601e6aaa:	b312      	lw	v1,601e6af0 <.LBB3+0x5a>
601e6aac:	4d7f      	addiu	a1,127
601e6aae:	6790      	move	a0,s0
601e6ab0:	4d49      	addiu	a1,73
601e6ab2:	6e20      	li	a2,32
601e6ab4:	eb40      	jalr	v1
601e6ab6:	6f05      	li	a3,5
601e6ab8:	f71f 2209 	beqz	v0,601e68ce <mengine_file_init+0xce>
601e6abc:	9220      	lw	v0,128(sp)
601e6abe:	d221      	sw	v0,132(sp)
601e6ac0:	1709      	b	601e68d4 <mengine_file_init+0xd4>
601e6ac2:	0000      	addiu	s0,sp,0
601e6ac4:	95e5      	lw	a1,916(sp)
601e6ac6:	9fc1      	lw	a2,4(a3)
601e6ac8:	6011      	bteqz	601e6aec <.LBB3+0x56>
601e6aca:	bfc2      	lwu	a2,8(a3)
601e6acc:	95e4      	lw	a1,912(sp)
601e6ace:	9fc1      	lw	a2,4(a3)
601e6ad0:	95ec      	lw	a1,944(sp)
601e6ad2:	9fc1      	lw	a2,4(a3)
601e6ad4:	95de      	lw	a1,888(sp)
601e6ad6:	9fc1      	lw	a2,4(a3)
601e6ad8:	95df      	lw	a1,892(sp)
601e6ada:	9fc1      	lw	a2,4(a3)
601e6adc:	0c00      	la	a0,601e6adc <.LBB3+0x46>
601e6ade:	7600      	cmpi	a2,0
601e6ae0:	1ea1 7a02 	jalx	60d5e808 <i2s_mfp_cfg+0x2b7e00>
601e6ae4:	9580      	lw	a1,512(sp)
601e6ae6:	9fc1      	lw	a2,4(a3)
601e6ae8:	6015      	bteqz	601e6b14 <.LBB3+0x7e>
601e6aea:	bfc2      	lwu	a2,8(a3)
601e6aec:	6e45      	li	a2,69
601e6aee:	600e      	bteqz	601e6b0c <.LBB3+0x76>
601e6af0:	6009      	bteqz	601e6b04 <.LBB3+0x6e>
601e6af2:	bfc2      	lwu	a2,8(a3)
601e6af4:	6c25      	li	a0,37
601e6af6:	6006      	bteqz	601e6b04 <.LBB3+0x6e>
601e6af8:	8d8d      	lh	a0,26(a1)
601e6afa:	7b06      	sd	s0,48(v1)
601e6afc:	21cd      	beqz	s1,601e6a98 <.LBB3+0x2>
601e6afe:	7a02      	sd	s0,16(v0)
601e6b00:	95f8      	lw	a1,992(sp)
601e6b02:	9fc1      	lw	a2,4(a3)
601e6b04:	219d      	beqz	s1,601e6a40 <.LBE2+0x1c>
601e6b06:	7a02      	sd	s0,16(v0)
601e6b08:	95a4      	lw	a1,656(sp)
601e6b0a:	9fc1      	lw	a2,4(a3)
601e6b0c:	8df1      	lh	a3,34(a1)
601e6b0e:	7b02      	sd	s0,16(v1)
601e6b10:	2005      	beqz	s0,601e6b1c <.LBB3+0x86>
601e6b12:	7a02      	sd	s0,16(v0)
601e6b14:	95dc      	lw	a1,880(sp)
601e6b16:	9fc1      	lw	a2,4(a3)
Disassembly of section BANK_CONTROL_1_8:

60226800 <mengine_check_disk_in>:
60226800:	64f4      	save	32,ra,s0-s1
bool __section__(".BANK_CONTROL_1_8")get_music_decrypt_status(mmm_mp_fs_para_t *p_fs_para);

//如果为卡盘播放文件，检测卡是否存在,如果播放u盘检测u盘是否存在
bool mengine_check_disk_in(void)
{
60226802:	b016      	lw	s0,60226858 <mengine_check_disk_in+0x58>
    bool bret = TRUE;
    if(g_eg_cfg_p->location.dirlocation.disk == DISK_H) {
60226804:	6901      	li	s1,1
60226806:	9860      	lw	v1,0(s0)
60226808:	a344      	lbu	v0,4(v1)
6022680a:	7210      	cmpi	v0,16
6022680c:	6105      	btnez	60226818 <mengine_check_disk_in+0x18>
6022680e:	b514      	lw	a1,6022685c <mengine_check_disk_in+0x5c>
        if(g_card_support == 1) {
60226810:	a580      	lbu	a0,0(a1)
60226812:	ec2a      	cmp	a0,s1
60226814:	6016      	bteqz	60226842 <mengine_check_disk_in+0x42>
60226816:	6900      	li	s1,0
            if(sys_detect_disk(DRV_GROUP_STG_CARD) == -1) {
                bret = FALSE;
            }
        } else {
            bret = FALSE;
60226818:	a3c4      	lbu	a2,4(v1)
        }
    }
    if(g_eg_cfg_p->location.dirlocation.disk == DISK_U) {
6022681a:	7620      	cmpi	a2,32
6022681c:	6105      	btnez	60226828 <mengine_check_disk_in+0x28>
6022681e:	b412      	lw	a0,60226864 <mengine_check_disk_in+0x64>
        if(g_uhost_support == 1) {
60226820:	a4e0      	lbu	a3,0(a0)
60226822:	7701      	cmpi	a3,1
60226824:	6004      	bteqz	6022682e <mengine_check_disk_in+0x2e>
60226826:	6900      	li	s1,0
            if(sys_detect_disk(DRV_GROUP_STG_UHOST) == -1) {
                bret = FALSE;
            }
        } else {
            bret = FALSE;
60226828:	6751      	move	v0,s1
        }
    }
    return bret;
}
6022682a:	6474      	restore	32,ra,s0-s1
6022682c:	e8a0      	jrc	ra
6022682e:	6d00      	li	a1,0
60226830:	b20c      	lw	v0,60226860 <mengine_check_disk_in+0x60>
60226832:	67c5      	move	a2,a1
60226834:	6c02      	li	a0,2
60226836:	ea40      	jalr	v0
60226838:	6f09      	li	a3,9
6022683a:	ed4f      	not	a1,v0
6022683c:	2df5      	bnez	a1,60226828 <mengine_check_disk_in+0x28>
6022683e:	6900      	li	s1,0
60226840:	17f3      	b	60226828 <mengine_check_disk_in+0x28>
60226842:	6d00      	li	a1,0
60226844:	b207      	lw	v0,60226860 <mengine_check_disk_in+0x60>
60226846:	6791      	move	a0,s1
60226848:	67c5      	move	a2,a1
6022684a:	ea40      	jalr	v0
6022684c:	6f09      	li	a3,9
6022684e:	eb4f      	not	v1,v0
60226850:	2b01      	bnez	v1,60226854 <mengine_check_disk_in+0x54>
60226852:	412f      	addiu	s1,s1,-1
60226854:	9860      	lw	v1,0(s0)
60226856:	17e0      	b	60226818 <mengine_check_disk_in+0x18>
60226858:	95ec      	lw	a1,944(sp)
6022685a:	9fc1      	lw	a2,4(a3)
6022685c:	95e5      	lw	a1,916(sp)
6022685e:	9fc1      	lw	a2,4(a3)
60226860:	6011      	bteqz	60226884 <stop+0x1c>
60226862:	bfc2      	lwu	a2,8(a3)
60226864:	95e4      	lw	a1,912(sp)
60226866:	9fc1      	lw	a2,4(a3)

60226868 <stop>:
60226868:	64f6      	save	48,ra,s0-s1

#if(_DEBUG == 1)
static void _print_file_name(void)
{
    uint8 name_buf[32];

    if(g_open_disk == DISK_SD) {
        return;
    }

    PRINT_INFO_INT("文件:", (uint32)g_eg_cfg_p->location.dirlocation.file_num);
    vfs_get_name(g_file_sys_id, name_buf, sizeof(name_buf) / 2 - 2);
    PRINT_DATA(name_buf, sizeof(name_buf));
}
#endif

//设置播放文件到解码器
bool set_file(void)
{
    int result, m_type, level_a;
    mmm_mp_fs_para_t set_file_param;
    bool music_decrypt_status  = FALSE;

    if(g_fsel_type != FSEL_TYPE_SDFILE) {
        //首先检测磁盘是否存在
        if(mengine_check_disk_in() == FALSE) {
            //保存错误状态
            g_eg_status_p->err_status = EG_ERR_DISK_OUT;
            return FALSE;
        }
    }

    //文件系统挂载id
    if(g_fsel_type == FSEL_TYPE_SDFILE) {
        //sd file
        set_file_param.fs_type = FILE_SOURCE_SD;
        set_file_param.file_name = (char *) g_file_name;
    } else {
        //normal file
        set_file_param.fs_type = FILE_SOURCE_NORMAL;
        set_file_param.file_name = NULL;
        //参数设置
        if(g_file_sys_id < 0) {
            return FALSE;
        }
    }

    //盘符
    set_file_param.file_mount_id = (void *) g_file_sys_id;

#if(_DEBUG == 1)
    _print_file_name();
#endif
    if(g_fsel_type != FSEL_TYPE_SDFILE) {
        music_decrypt_status = get_music_decrypt_status(&set_file_param);
    }

    //是否支持音乐文件加密 支持为TRUE 不支持为FALSE
    mmm_mp_cmd(g_mp_handle, MMM_MP_DECRYPT_STATUS, music_decrypt_status);
    //将解密函数的地址传递到中间件
    mmm_mp_cmd(g_mp_handle, MMM_MP_SET_DECRYPT_FUNC, m_decrypt_func);

    //发送set file命令
    result = mmm_mp_cmd(g_mp_handle, MMM_MP_SET_FILE, (unsigned int) &set_file_param);

    if(result != 0) {
        mengine_save_errno_no();

        if(g_file_sys_id != -1)

        {
            //获取文件总数(保证未扫描完成时获取到正确的文件总数)
            g_eg_cfg_p->location.dirlocation.file_total = fsel_get_total();
        }

        return FALSE;
    }
    //获取文件格式、总时间、比特率等信息
    result = mmm_mp_cmd(g_mp_handle, MMM_MP_MEDIA_INFO, (unsigned int) &g_eg_file_info);
    if(result != 0) {
        //need stop
        error_handle();
        return FALSE;
    }

    m_type = g_eg_file_info.music_type;
    PRINT_DBG_INT("music_type:", m_type);

    //their add dae check
    if(m_type == MP3_TYPE) {
        m_type = FREQ_LEVEL2; //
        level_a = FREQ_LEVEL8;
    } else if(m_type == WAV_TYPE) {
        m_type = FREQ_LEVEL6; //
        level_a = FREQ_LEVEL7;
    } else if((m_type == APE_TYPE) || (m_type == FLAC_TYPE)) {
        m_type = FREQ_LEVEL10; //
        level_a = FREQ_LEVEL9;
    } else if(m_type == WMA_TYPE) {
        m_type = FREQ_LEVEL6; //
        level_a = FREQ_LEVEL7;
    } else {
        m_type = FREQ_LEVEL10; //
        level_a = FREQ_LEVEL9;
    }

    adjust_freq_set_level(AP_BACK_HIGH_PRIO, level_a, m_type);

    return TRUE;

}

//开始播放音乐
bool play(play_mode_e play_mode)
{
    int result;
    bool bret = TRUE;

    //停止 or 暂停时 发送播放命令
    if((g_eg_status_p->play_status != StopSta) && (g_eg_status_p->play_status != PauseSta)) {
        return bret;
    }

    bret = set_file();
    if(bret == FALSE) {
        return bret;
    }

#ifdef WAVES_ASET_TOOLS
    g_waves.bin_number = g_app_info_state_all.bin_number;
#endif

    //set sound open
    com_set_sound_out(SOUND_OUT_RESUME);

    adjust_freq_add_value(0, g_dae_cfg_shm->run_freq);

    //输出声道处理选择
    //#define OUTPUT_CHANNEL_NORMAL      0 //正常，中间件会初始化为正常
    //#define OUTPUT_CHANNEL_L_R_SWITCH  1 //左右声道互换 L = R0, R = L0
    //#define OUTPUT_CHANNEL_L_R_MERGE   2 //左右声道合并后输出到左声道和右声道 L = R = (L0 + R0) / 2
    //#define OUTPUT_CHANNEL_L_R_ALL_L   3 //左右声道都输出左声道 L = R = L0
    //#define OUTPUT_CHANNEL_L_R_ALL_R   4 //左右声道都输出右声道 L = R = R0

    mmm_mp_cmd(g_mp_handle, MMM_MP_SET_OUTPUT_CHANNEL, g_output_channel_config);

    if(play_mode == PLAY_FFON) {
        if(g_eg_cfg_p->bk_infor.bp_time_offset != 0) {
            mmm_mp_cmd(g_mp_handle, MMM_MP_SET_BREAK_POINT, (unsigned int) &g_eg_cfg_p->bk_infor);
        }
        result = mmm_mp_cmd(g_mp_handle, MMM_MP_SET_FFB, (unsigned int) 4);
        //快进播放
#ifdef WAVES_ASET_TOOLS
        result = mmm_mp_cmd(g_mp_handle, MMM_MP_PLAY, (unsigned int) &g_waves);
#else
        result = mmm_mp_cmd(g_mp_handle, MMM_MP_PLAY, (unsigned int) NULL);
#endif


        g_eg_status_p->play_status = PlayFast; //设置播放状态
        g_eg_status_p->fast_status = FFPlaySta;
    } else if(play_mode == PLAY_FBON) {
        //快退播放
        if(g_eg_cfg_p->bk_infor.bp_time_offset == 0) {
            //mmm_mp_cmd(g_mp_handle, MMM_MP_SET_BREAK_POINT, (unsigned int) &g_eg_cfg_p->bk_infor);
            //}
            //else
            //{
            g_eg_cfg_p->bk_infor.bp_time_offset = -5000;
            g_eg_cfg_p->bk_infor.bp_file_offset = 0;
            g_eg_cfg_p->bk_infor.bp_info_ext = 0;
        }
        mmm_mp_cmd(g_mp_handle, MMM_MP_SET_BREAK_POINT, (unsigned int) &g_eg_cfg_p->bk_infor);

        result = mmm_mp_cmd(g_mp_handle, MMM_MP_SET_FFB, (unsigned int) -4);
#ifdef WAVES_ASET_TOOLS
        result = mmm_mp_cmd(g_mp_handle, MMM_MP_PLAY, (unsigned int) &g_waves);
#else
        result = mmm_mp_cmd(g_mp_handle, MMM_MP_PLAY, (unsigned int) NULL);
#endif

        g_eg_status_p->play_status = PlayFast; //设置播放状态
        g_eg_status_p->fast_status = FBPlaySta;
    } else if(play_mode == PLAY_RESUME) {
        //断点续播,设置断点
        if(g_eg_cfg_p->bk_infor.bp_time_offset != 0) {
            mmm_mp_cmd(g_mp_handle, MMM_MP_SET_BREAK_POINT, (unsigned int) &g_eg_cfg_p->bk_infor);
        }
#ifdef WAVES_ASET_TOOLS
        result = mmm_mp_cmd(g_mp_handle, MMM_MP_PLAY, (unsigned int) &g_waves);
#else
        result = mmm_mp_cmd(g_mp_handle, MMM_MP_PLAY, (unsigned int) NULL);
#endif

        g_eg_status_p->play_status = PlaySta; //设置播放状态
    } else {
        g_eg_status_p->play_status = PlaySta; //设置播放状态
#ifdef WAVES_ASET_TOOLS
        result = mmm_mp_cmd(g_mp_handle, MMM_MP_PLAY, (unsigned int) &g_waves);
#else
        result = mmm_mp_cmd(g_mp_handle, MMM_MP_PLAY, (unsigned int) NULL);
#endif

    }

    if(result != 0) {
        bret = FALSE;
        //mengine_save_errno_no();
        error_handle();
    } else {
        mmm_mp_cmd(g_mp_handle, MMM_MP_GET_ENERGY_INFO, (unsigned int) & (g_app_info_state_all.p_energy_value));
        g_app_info_state_all.energy_available_flag = TRUE;

        bret = TRUE;
    }

    return bret;
}

//停止播放音乐
bool stop(stop_mode_e stop_mode)
{
6022686a:	ec11      	zeb	a0
6022686c:	b32e      	lw	v1,60226924 <stop+0xbc>
    bool bret = TRUE;
    int result = 0;

    g_app_info_state_all.energy_available_flag = FALSE;

    //取消快进退
    //    if (g_eg_status_p->play_status == PlayFast)
    //    {
    //        mmm_mp_cmd(g_mp_handle, MMM_MP_SET_FFB, (unsigned int) 0);
    //        g_eg_status_p->play_status = PlaySta;
    //    }
#ifdef AB_SUPPORT
    //    else if (g_eg_status_p->play_status == PlayAB)
    //    {
    //        if (g_eg_status_p->ab_status == PlayAB_Do)
    //        {
    //            mmm_mp_cmd(g_mp_handle, MMM_MP_CLEAR_AB, (unsigned int) NULL);
    //        }
    //        g_eg_status_p->play_status = PlaySta;
    //        g_eg_status_p->ab_status = PlayAB_Null;
    //    }
    //    else
    //    {
    //        ; //for qac
    //    }
    //取消ab repeat
    if(g_eg_status_p->play_status == PlayAB) {
        if(g_eg_status_p->ab_status == PlayAB_Do) {
            mmm_mp_cmd(g_mp_handle, MMM_MP_CLEAR_AB, (unsigned int) NULL);
        }
        g_eg_status_p->play_status = PlaySta;
        g_eg_status_p->ab_status = PlayAB_Null;
    }

#endif
    //正常播放才会停止
    if((g_eg_status_p->play_status == PlaySta) || (g_eg_status_p->play_status == PlayFast)) {
6022686e:	d404      	sw	a0,16(sp)
60226870:	b42c      	lw	a0,60226920 <stop+0xb8>
60226872:	6d00      	li	a1,0
60226874:	9b40      	lw	v0,0(v1)
60226876:	c4aa      	sb	a1,10(a0)
60226878:	a240      	lbu	v0,0(v0)
6022687a:	6e01      	li	a2,1
6022687c:	7202      	cmpi	v0,2
6022687e:	d605      	sw	a2,20(sp)
60226880:	6002      	bteqz	60226886 <stop+0x1e>
60226882:	7204      	cmpi	v0,4
60226884:	612d      	btnez	602268e0 <stop+0x78>
60226886:	b02a      	lw	s0,6022692c <stop+0xc4>
        //保存断点
        mmm_mp_cmd(g_mp_handle, MMM_MP_GET_BREAK_POINT, (unsigned int) & (g_eg_cfg_p->bk_infor));
60226888:	b128      	lw	s1,60226928 <stop+0xc0>
6022688a:	98c0      	lw	a2,0(s0)
6022688c:	9980      	lw	a0,0(s1)
6022688e:	b029      	lw	s0,60226930 <stop+0xc8>
60226890:	4e7f      	addiu	a2,127
60226892:	6d15      	li	a1,21
60226894:	e840      	jalr	s0
60226896:	4e1d      	addiu	a2,29
60226898:	9980      	lw	a0,0(s1)
        //if (g_save_freq != 0)
        //{
        //}
        //停止播放
#ifdef WAVES_ASET_TOOLS
        result = mmm_mp_cmd(g_mp_handle, MMM_MP_STOP, (unsigned int) &g_waves);
#else
        result = mmm_mp_cmd(g_mp_handle, MMM_MP_STOP, (unsigned int) NULL);
6022689a:	6d19      	li	a1,25
6022689c:	e840      	jalr	s0
6022689e:	6e00      	li	a2,0
602268a0:	b321      	lw	v1,60226924 <stop+0xbc>
#endif

        if(g_eg_status_p->play_status == PlayFast) {
602268a2:	d206      	sw	v0,24(sp)
602268a4:	9b40      	lw	v0,0(v1)
602268a6:	a2e0      	lbu	a3,0(v0)
602268a8:	7704      	cmpi	a3,4
602268aa:	602f      	bteqz	6022690a <stop+0xa2>
602268ac:	9406      	lw	a0,24(sp)
            mmm_mp_cmd(g_mp_handle, MMM_MP_SET_FFB, (unsigned int) 0);
        }
        if(result != 0) {
602268ae:	2c33      	bnez	a0,60226916 <stop+0xae>
602268b0:	9504      	lw	a1,16(sp)
            bret = FALSE;
        } else {
            //暂停播放
            if(stop_mode == STOP_PAUSE) {
602268b2:	7501      	cmpi	a1,1
602268b4:	6125      	btnez	60226900 <stop+0x98>
602268b6:	b71c      	lw	a3,60226924 <stop+0xbc>
                g_eg_status_p->play_status = PauseSta;
602268b8:	67dd      	move	a2,sp
602268ba:	9f40      	lw	v0,0(a3)
602268bc:	a674      	lbu	v1,20(a2)
602268be:	c260      	sb	v1,0(v0)
            } else {
                //正常停止
                g_eg_status_p->play_status = StopSta;
602268c0:	6a01      	li	v0,1
            }
            bret = TRUE;
602268c2:	d205      	sw	v0,20(sp)
602268c4:	6c00      	li	a0,0
        }

        if(bret == FALSE) {
            mengine_save_errno_no();
        }

        //for dae adjust freq
        adjust_freq_add_value(0, 0);
602268c6:	b01d      	lw	s0,60226938 <stop+0xd0>
602268c8:	67a4      	move	a1,a0
602268ca:	6e01      	li	a2,1
602268cc:	e840      	jalr	s0
602268ce:	6f03      	li	a3,3
602268d0:	6c03      	li	a0,3

        adjust_freq_set_level(AP_BACK_HIGH_PRIO, FREQ_LEVEL2, FREQ_NULL);
602268d2:	67e4      	move	a3,a0
602268d4:	6d02      	li	a1,2
602268d6:	e840      	jalr	s0
602268d8:	6e00      	li	a2,0
602268da:	b219      	lw	v0,6022693c <stop+0xd4>

        //关闭音频输出
        com_set_sound_out(SOUND_OUT_PAUSE);
602268dc:	ea40      	jalr	v0
602268de:	6c02      	li	a0,2
602268e0:	b312      	lw	v1,60226928 <stop+0xc0>
    }

    //停止关闭文件
    mmm_mp_cmd(g_mp_handle, MMM_MP_CLEAR_FILE, (unsigned int) NULL);
602268e2:	b214      	lw	v0,60226930 <stop+0xc8>
602268e4:	9b80      	lw	a0,0(v1)
602268e6:	6d11      	li	a1,17
602268e8:	ea40      	jalr	v0
602268ea:	6e00      	li	a2,0
602268ec:	b715      	lw	a3,60226940 <stop+0xd8>

    fsel_set_mode(g_shuffle_flag | (uint8) g_repeat_mode); //设置循环模式
602268ee:	b616      	lw	a2,60226944 <stop+0xdc>
602268f0:	a780      	lbu	a0,0(a3)
602268f2:	a6a0      	lbu	a1,0(a2)
602268f4:	b215      	lw	v0,60226948 <stop+0xe0>
602268f6:	ea40      	jalr	v0
602268f8:	ecad      	or	a0,a1
602268fa:	9205      	lw	v0,20(sp)
    return bret;
}
602268fc:	6476      	restore	48,ra,s0-s1
602268fe:	e8a0      	jrc	ra
60226900:	b009      	lw	s0,60226920 <stop+0xb8>
60226902:	677d      	move	v1,sp
60226904:	9840      	lw	v0,0(s0)
60226906:	a378      	lbu	v1,24(v1)
60226908:	17da      	b	602268be <stop+0x56>
6022690a:	9980      	lw	a0,0(s1)
6022690c:	6d1f      	li	a1,31
6022690e:	e840      	jalr	s0
60226910:	6e00      	li	a2,0
60226912:	9406      	lw	a0,24(sp)
60226914:	24cd      	beqz	a0,602268b0 <stop+0x48>
60226916:	6c00      	li	a0,0
60226918:	b307      	lw	v1,60226934 <stop+0xcc>
6022691a:	eb40      	jalr	v1
6022691c:	d405      	sw	a0,20(sp)
6022691e:	17d2      	b	602268c4 <stop+0x5c>
60226920:	a094      	lbu	a0,20(s0)
60226922:	9fc1      	lw	a2,4(a3)
60226924:	95f8      	lw	a1,992(sp)
60226926:	9fc1      	lw	a2,4(a3)
60226928:	95fc      	lw	a1,1008(sp)
6022692a:	9fc1      	lw	a2,4(a3)
6022692c:	95ec      	lw	a1,944(sp)
6022692e:	9fc1      	lw	a2,4(a3)
60226930:	600d      	bteqz	6022694c <next_or_prev>
60226932:	bfc2      	lwu	a2,8(a3)
60226934:	6d5d      	li	a1,93
60226936:	600a      	bteqz	6022694c <next_or_prev>
60226938:	6005      	bteqz	60226944 <stop+0xdc>
6022693a:	bfc2      	lwu	a2,8(a3)
6022693c:	691d      	li	s1,29
6022693e:	60a6      	bteqz	6022688c <stop+0x24>
60226940:	95e1      	lw	a1,900(sp)
60226942:	9fc1      	lw	a2,4(a3)
60226944:	95e6      	lw	a1,920(sp)
60226946:	9fc1      	lw	a2,4(a3)
60226948:	2121      	beqz	s1,6022698c <next_or_prev+0x40>
6022694a:	7a02      	sd	s0,16(v0)

6022694c <next_or_prev>:
6022694c:	64f5      	save	40,ra,s0-s1

//切换上下曲
bool next_or_prev(switch_mode_e switch_mode)
{
6022694e:	ec11      	zeb	a0
60226950:	6d02      	li	a1,2
    bool bret = TRUE;
    uint8 direct = (uint8)(switch_mode & 0x01);
    uint8 force_mod = (uint8)((switch_mode & 0x02) >> 1);
60226952:	ed8c      	and	a1,a0
60226954:	5d01      	sltiu	a1,1

    g_eg_status_p->err_status = EG_ERR_NONE;

    if(force_mod == TRUE) {
60226956:	b73a      	lw	a3,60226a3c <next_or_prev+0xf0>
60226958:	6801      	li	s0,1
6022695a:	6778      	move	v1,t8
6022695c:	e88c      	and	s0,a0
6022695e:	5b01      	sltiu	v1,1
60226960:	9f80      	lw	a0,0(a3)
60226962:	6e00      	li	a2,0
60226964:	6758      	move	v0,t8
60226966:	c4c3      	sb	a2,3(a0)
60226968:	d204      	sw	v0,16(sp)
6022696a:	2a63      	bnez	v0,60226a32 <next_or_prev+0xe6>
6022696c:	b537      	lw	a1,60226a48 <next_or_prev+0xfc>
        //强制切换
        //将循环模式设置为FSEL_MODE_LOOPALL
        fsel_set_mode(g_shuffle_flag | FSEL_MODE_LOOPALL);
    }

    if(g_fsel_type == FSEL_TYPE_LISTDIR) {
6022696e:	a560      	lbu	v1,0(a1)
60226970:	7301      	cmpi	v1,1
60226972:	6054      	bteqz	60226a1c <next_or_prev+0xd0>
60226974:	b139      	lw	s1,60226a58 <next_or_prev+0x10c>
        //check if need to set just only one not the same
        if(fsel_get_fileno() != g_eg_cfg_p->location.dirlocation.file_num) {
            fsel_set_fileno(g_eg_cfg_p->location.dirlocation.file_num);
        }
    }

    //是否可以选择列表
    if(g_list_access_allow == TRUE) {
60226976:	a1e0      	lbu	a3,0(s1)
60226978:	7701      	cmpi	a3,1
6022697a:	6042      	bteqz	60226a00 <next_or_prev+0xb4>
6022697c:	2816      	bnez	s0,602269aa <next_or_prev+0x5e>
        if(fsel_set_seltype(FSEL_TYPE_LISTDIR, fsel_get_fileno()) == TRUE) {
            //只设置一次
            g_fsel_type = FSEL_TYPE_LISTDIR;
            g_list_access_allow = FALSE;
        }
    }

    if(direct == NORMAL_SWITCH_NEXT) {
6022697e:	b035      	lw	s0,60226a50 <next_or_prev+0x104>
        //获取下一曲
        bret = fsel_get_nextfile((void *) g_eg_cfg_p->location.dirlocation.file_info.file_extend_info.file_ext);
60226980:	b238      	lw	v0,60226a60 <next_or_prev+0x114>
60226982:	9880      	lw	a0,0(s0)
60226984:	ea40      	jalr	v0
    } else {
        //获取上一曲
        bret = fsel_get_prevfile((void *) g_eg_cfg_p->location.dirlocation.file_info.file_extend_info.file_ext);
60226986:	4c08      	addiu	a0,8
60226988:	7201      	cmpi	v0,1
    }

    //获取当前歌曲的location
    if(bret == TRUE) {
6022698a:	6702      	move	s0,v0
6022698c:	6016      	bteqz	602269ba <next_or_prev+0x6e>
6022698e:	9604      	lw	a2,16(sp)
        fsel_get_location(&(g_eg_cfg_p->location.dirlocation));

        g_eg_playinfo_p->cur_file_switch |= 0x01;

        //普通歌曲切换时当前时间先清零
        g_eg_playinfo_p->cur_time = 0;
#ifdef MENGINE_ID3_SUPPORT
        mengine_getid3_done(&g_eg_cfg_p->location);
#endif
#ifdef DIR_NAME_SUPPORT
        fsel_get_dir_name(g_dir_name_buf, sizeof(g_dir_name_buf) / 2 - 2, &(g_eg_cfg_p->location.dirlocation));
#endif
    }

    if(force_mod == TRUE) {
60226990:	2e24      	bnez	a2,602269da <next_or_prev+0x8e>
60226992:	b630      	lw	a2,60226a50 <next_or_prev+0x104>
        //恢复循环模式
        fsel_set_mode(g_shuffle_flag | (uint8) g_repeat_mode);
    }

    //清除断点信息
    libc_memset(&g_eg_cfg_p->bk_infor, 0, sizeof(mmm_mp_bp_info_t));
60226994:	b238      	lw	v0,60226a74 <next_or_prev+0x128>
60226996:	9e80      	lw	a0,0(a2)
60226998:	6d00      	li	a1,0
6022699a:	4c7f      	addiu	a0,127
6022699c:	4c1d      	addiu	a0,29
6022699e:	6e0c      	li	a2,12
602269a0:	ea40      	jalr	v0
602269a2:	6f01      	li	a3,1
602269a4:	6750      	move	v0,s0

    return bret;

}
602269a6:	6475      	restore	40,ra,s0-s1
602269a8:	e8a0      	jrc	ra
602269aa:	b72a      	lw	a3,60226a50 <next_or_prev+0x104>
602269ac:	b22e      	lw	v0,60226a64 <next_or_prev+0x118>
602269ae:	9f80      	lw	a0,0(a3)
602269b0:	ea40      	jalr	v0
602269b2:	4c08      	addiu	a0,8
602269b4:	7201      	cmpi	v0,1
602269b6:	6702      	move	s0,v0
602269b8:	61ea      	btnez	6022698e <next_or_prev+0x42>
602269ba:	b526      	lw	a1,60226a50 <next_or_prev+0x104>
602269bc:	b22b      	lw	v0,60226a68 <next_or_prev+0x11c>
602269be:	9d80      	lw	a0,0(a1)
602269c0:	ea40      	jalr	v0
602269c2:	4484      	addiu	a0,a0,4
602269c4:	b52a      	lw	a1,60226a6c <next_or_prev+0x120>
602269c6:	6b01      	li	v1,1
602269c8:	9dc0      	lw	a2,0(a1)
602269ca:	6a00      	li	v0,0
602269cc:	a6e9      	lbu	a3,9(a2)
602269ce:	ef6d      	or	a3,v1
602269d0:	c6e9      	sb	a3,9(a2)
602269d2:	9d80      	lw	a0,0(a1)
602269d4:	9604      	lw	a2,16(sp)
602269d6:	dc40      	sw	v0,0(a0)
602269d8:	26dc      	beqz	a2,60226992 <next_or_prev+0x46>
602269da:	b326      	lw	v1,60226a70 <next_or_prev+0x124>
602269dc:	b519      	lw	a1,60226a40 <next_or_prev+0xf4>
602269de:	a3e0      	lbu	a3,0(v1)
602269e0:	a580      	lbu	a0,0(a1)
602269e2:	b219      	lw	v0,60226a44 <next_or_prev+0xf8>
602269e4:	ea40      	jalr	v0
602269e6:	eced      	or	a0,a3
602269e8:	b61a      	lw	a2,60226a50 <next_or_prev+0x104>
602269ea:	b223      	lw	v0,60226a74 <next_or_prev+0x128>
602269ec:	9e80      	lw	a0,0(a2)
602269ee:	6d00      	li	a1,0
602269f0:	4c7f      	addiu	a0,127
602269f2:	4c1d      	addiu	a0,29
602269f4:	6e0c      	li	a2,12
602269f6:	ea40      	jalr	v0
602269f8:	6f01      	li	a3,1
602269fa:	6750      	move	v0,s0
602269fc:	6475      	restore	40,ra,s0-s1
602269fe:	e8a0      	jrc	ra
60226a00:	b213      	lw	v0,60226a48 <next_or_prev+0xfc>
60226a02:	eac0      	jalrc	v0
60226a04:	67a2      	move	a1,v0
60226a06:	b216      	lw	v0,60226a5c <next_or_prev+0x110>
60226a08:	ea40      	jalr	v0
60226a0a:	6c01      	li	a0,1
60226a0c:	7201      	cmpi	v0,1
60226a0e:	61b6      	btnez	6022697c <next_or_prev+0x30>
60226a10:	b50e      	lw	a1,60226a48 <next_or_prev+0xfc>
60226a12:	6e01      	li	a2,1
60226a14:	6b00      	li	v1,0
60226a16:	c5c0      	sb	a2,0(a1)
60226a18:	c160      	sb	v1,0(s1)
60226a1a:	17b0      	b	6022697c <next_or_prev+0x30>
60226a1c:	b10c      	lw	s1,60226a4c <next_or_prev+0x100>
60226a1e:	e9c0      	jalrc	s1
60226a20:	b40c      	lw	a0,60226a4c <next_or_prev+0x100>
60226a22:	9cc0      	lw	a2,0(a0)
60226a24:	f060 ae82 	lhu	a0,98(a2)
60226a28:	ec4a      	cmp	a0,v0
60226a2a:	60a4      	bteqz	60226974 <next_or_prev+0x28>
60226a2c:	b20a      	lw	v0,60226a54 <next_or_prev+0x108>
60226a2e:	eac0      	jalrc	v0
60226a30:	17a1      	b	60226974 <next_or_prev+0x28>
60226a32:	b204      	lw	v0,60226a40 <next_or_prev+0xf4>
60226a34:	b104      	lw	s1,60226a44 <next_or_prev+0xf8>
60226a36:	e940      	jalr	s1
60226a38:	a280      	lbu	a0,0(v0)
60226a3a:	1798      	b	6022696c <next_or_prev+0x20>
60226a3c:	95f8      	lw	a1,992(sp)
60226a3e:	9fc1      	lw	a2,4(a3)
60226a40:	95e1      	lw	a1,900(sp)
60226a42:	9fc1      	lw	a2,4(a3)
60226a44:	2121      	beqz	s1,60226a88 <set_file+0x10>
60226a46:	7a02      	sd	s0,16(v0)
60226a48:	95df      	lw	a1,892(sp)
60226a4a:	9fc1      	lw	a2,4(a3)
60226a4c:	2101      	beqz	s1,60226a50 <next_or_prev+0x104>
60226a4e:	7a02      	sd	s0,16(v0)
60226a50:	95ec      	lw	a1,944(sp)
60226a52:	9fc1      	lw	a2,4(a3)
60226a54:	1e95 7a02 	jalx	6ad1e808 <i2s_mfp_cfg+0xa277e00>
60226a58:	95e9      	lw	a1,932(sp)
60226a5a:	9fc1      	lw	a2,4(a3)
60226a5c:	1f15 7a0a 	jalx	6ae1e828 <i2s_mfp_cfg+0xa377e20>
60226a60:	2005      	beqz	s0,60226a6c <next_or_prev+0x120>
60226a62:	7a02      	sd	s0,16(v0)
60226a64:	2049      	beqz	s0,60226af8 <set_file+0x80>
60226a66:	7a02      	sd	s0,16(v0)
60226a68:	21cd      	beqz	s1,60226a04 <next_or_prev+0xb8>
60226a6a:	7a02      	sd	s0,16(v0)
60226a6c:	95f4      	lw	a1,976(sp)
60226a6e:	9fc1      	lw	a2,4(a3)
60226a70:	95e6      	lw	a1,920(sp)
60226a72:	9fc1      	lw	a2,4(a3)
60226a74:	6009      	bteqz	60226a88 <set_file+0x10>
60226a76:	bfc2      	lwu	a2,8(a3)

60226a78 <set_file>:
60226a78:	64f7      	save	56,ra,s0-s1
60226a7a:	b046      	lw	s0,60226b90 <set_file+0x118>
60226a7c:	6b00      	li	v1,0
60226a7e:	a080      	lbu	a0,0(s0)
60226a80:	d309      	sw	v1,36(sp)
60226a82:	6744      	move	v0,a0
60226a84:	ea11      	zeb	v0
60226a86:	7202      	cmpi	v0,2
60226a88:	615d      	btnez	60226b44 <set_file+0xcc>
60226a8a:	67e4      	move	a3,a0
60226a8c:	ef11      	zeb	a3
60226a8e:	7702      	cmpi	a3,2
60226a90:	6025      	bteqz	60226adc <set_file+0x64>
60226a92:	b544      	lw	a1,60226ba0 <set_file+0x128>
60226a94:	6a00      	li	v0,0
60226a96:	9d60      	lw	v1,0(a1)
60226a98:	d204      	sw	v0,16(sp)
60226a9a:	eb42      	slt	v1,v0
60226a9c:	d206      	sw	v0,24(sp)
60226a9e:	611c      	btnez	60226ad8 <set_file+0x60>
60226aa0:	6744      	move	v0,a0
60226aa2:	ea11      	zeb	v0
60226aa4:	7202      	cmpi	v0,2
60226aa6:	d305      	sw	v1,20(sp)
60226aa8:	6124      	btnez	60226af2 <set_file+0x7a>
60226aaa:	b13f      	lw	s1,60226ba4 <set_file+0x12c>
60226aac:	b03f      	lw	s0,60226ba8 <set_file+0x130>
60226aae:	9980      	lw	a0,0(s1)
60226ab0:	9609      	lw	a2,36(sp)
60226ab2:	e840      	jalr	s0
60226ab4:	6d90      	li	a1,144
60226ab6:	9980      	lw	a0,0(s1)
60226ab8:	b63d      	lw	a2,60226bac <set_file+0x134>
60226aba:	e840      	jalr	s0
60226abc:	6d91      	li	a1,145
60226abe:	9980      	lw	a0,0(s1)
60226ac0:	6d10      	li	a1,16
60226ac2:	e840      	jalr	s0
60226ac4:	0604      	addiu	a2,sp,16
60226ac6:	d208      	sw	v0,32(sp)
60226ac8:	2228      	beqz	v0,60226b1a <set_file+0xa2>
60226aca:	b33a      	lw	v1,60226bb0 <set_file+0x138>
60226acc:	ebc0      	jalrc	v1
60226ace:	b735      	lw	a3,60226ba0 <set_file+0x128>
60226ad0:	9fc0      	lw	a2,0(a3)
60226ad2:	eccf      	not	a0,a2
60226ad4:	2c4b      	bnez	a0,60226b6c <set_file+0xf4>
60226ad6:	6a00      	li	v0,0
60226ad8:	6477      	restore	56,ra,s0-s1
60226ada:	e8a0      	jrc	ra
60226adc:	b031      	lw	s0,60226b9c <set_file+0x124>
60226ade:	6b01      	li	v1,1
60226ae0:	6744      	move	v0,a0
60226ae2:	d304      	sw	v1,16(sp)
60226ae4:	b12e      	lw	s1,60226b9c <set_file+0x124>
60226ae6:	9860      	lw	v1,0(s0)
60226ae8:	ea11      	zeb	v0
60226aea:	7202      	cmpi	v0,2
60226aec:	d106      	sw	s1,24(sp)
60226aee:	d305      	sw	v1,20(sp)
60226af0:	60dc      	bteqz	60226aaa <set_file+0x32>
60226af2:	1900 9b8f 	jal	60226e3c <get_music_decrypt_status>
60226af6:	0404      	addiu	a0,sp,16
60226af8:	b12b      	lw	s1,60226ba4 <set_file+0x12c>
60226afa:	d209      	sw	v0,36(sp)
60226afc:	b02b      	lw	s0,60226ba8 <set_file+0x130>
60226afe:	9980      	lw	a0,0(s1)
60226b00:	9609      	lw	a2,36(sp)
60226b02:	e840      	jalr	s0
60226b04:	6d90      	li	a1,144
60226b06:	9980      	lw	a0,0(s1)
60226b08:	b629      	lw	a2,60226bac <set_file+0x134>
60226b0a:	e840      	jalr	s0
60226b0c:	6d91      	li	a1,145
60226b0e:	9980      	lw	a0,0(s1)
60226b10:	6d10      	li	a1,16
60226b12:	e840      	jalr	s0
60226b14:	0604      	addiu	a2,sp,16
60226b16:	d208      	sw	v0,32(sp)
60226b18:	2ad8      	bnez	v0,60226aca <set_file+0x52>
60226b1a:	9980      	lw	a0,0(s1)
60226b1c:	b628      	lw	a2,60226bbc <set_file+0x144>
60226b1e:	e840      	jalr	s0
60226b20:	6d12      	li	a1,18
60226b22:	2a2c      	bnez	v0,60226b7c <set_file+0x104>
60226b24:	b426      	lw	a0,60226bbc <set_file+0x144>
60226b26:	9cc3      	lw	a2,12(a0)
60226b28:	7601      	cmpi	a2,1
60226b2a:	6118      	btnez	60226b5c <set_file+0xe4>
60226b2c:	6d02      	li	a1,2
60226b2e:	6a08      	li	v0,8
60226b30:	35a0      	sll	a1,8
60226b32:	6c03      	li	a0,3
60226b34:	ed4d      	or	a1,v0
60226b36:	b224      	lw	v0,60226bc4 <set_file+0x14c>
60226b38:	6e00      	li	a2,0
60226b3a:	ea40      	jalr	v0
60226b3c:	67e4      	move	a3,a0
60226b3e:	6a01      	li	v0,1
60226b40:	6477      	restore	56,ra,s0-s1
60226b42:	e8a0      	jrc	ra
60226b44:	b214      	lw	v0,60226b90 <set_file+0x118>
60226b46:	eac0      	jalrc	v0
60226b48:	2a07      	bnez	v0,60226b58 <set_file+0xe0>
60226b4a:	b614      	lw	a2,60226b98 <set_file+0x120>
60226b4c:	9209      	lw	v0,36(sp)
60226b4e:	9e80      	lw	a0,0(a2)
60226b50:	6d02      	li	a1,2
60226b52:	c4a3      	sb	a1,3(a0)
60226b54:	6477      	restore	56,ra,s0-s1
60226b56:	e8a0      	jrc	ra
60226b58:	a080      	lbu	a0,0(s0)
60226b5a:	1797      	b	60226a8a <set_file+0x12>
60226b5c:	7603      	cmpi	a2,3
60226b5e:	6015      	bteqz	60226b8a <set_file+0x112>
60226b60:	46ec      	addiu	a3,a2,-4
60226b62:	5f02      	sltiu	a3,2
60226b64:	6010      	bteqz	60226b86 <set_file+0x10e>
60226b66:	6d0a      	li	a1,10
60226b68:	6a09      	li	v0,9
60226b6a:	17e2      	b	60226b30 <set_file+0xb8>
60226b6c:	b512      	lw	a1,60226bb4 <set_file+0x13c>
60226b6e:	b213      	lw	v0,60226bb8 <set_file+0x140>
60226b70:	ea40      	jalr	v0
60226b72:	9d00      	lw	s0,0(a1)
60226b74:	f060 c840 	sh	v0,96(s0)
60226b78:	6a00      	li	v0,0
60226b7a:	17ae      	b	60226ad8 <set_file+0x60>
60226b7c:	b311      	lw	v1,60226bc0 <set_file+0x148>
60226b7e:	ebc0      	jalrc	v1
60226b80:	9208      	lw	v0,32(sp)
60226b82:	6477      	restore	56,ra,s0-s1
60226b84:	e8a0      	jrc	ra
60226b86:	7602      	cmpi	a2,2
60226b88:	61ee      	btnez	60226b66 <set_file+0xee>
60226b8a:	6d06      	li	a1,6
60226b8c:	6a07      	li	v0,7
60226b8e:	17d0      	b	60226b30 <set_file+0xb8>
60226b90:	95df      	lw	a1,892(sp)
60226b92:	9fc1      	lw	a2,4(a3)
60226b94:	6801      	li	s0,1
60226b96:	6022      	bteqz	60226bdc <play+0x14>
60226b98:	95f8      	lw	a1,992(sp)
60226b9a:	9fc1      	lw	a2,4(a3)
60226b9c:	95a4      	lw	a1,656(sp)
60226b9e:	9fc1      	lw	a2,4(a3)
60226ba0:	9580      	lw	a1,512(sp)
60226ba2:	9fc1      	lw	a2,4(a3)
60226ba4:	95fc      	lw	a1,1008(sp)
60226ba6:	9fc1      	lw	a2,4(a3)
60226ba8:	600d      	bteqz	60226bc4 <set_file+0x14c>
60226baa:	bfc2      	lwu	a2,8(a3)
60226bac:	62a9      	sw	ra,676(sp)
60226bae:	bfc2      	lwu	a2,8(a3)
60226bb0:	6d5d      	li	a1,93
60226bb2:	600a      	bteqz	60226bc8 <play>
60226bb4:	95ec      	lw	a1,944(sp)
60226bb6:	9fc1      	lw	a2,4(a3)
60226bb8:	20c5      	beqz	s0,60226b44 <set_file+0xcc>
60226bba:	7a02      	sd	s0,16(v0)
60226bbc:	9590      	lw	a1,576(sp)
60226bbe:	9fc1      	lw	a2,4(a3)
60226bc0:	6e95      	li	a2,149
60226bc2:	600a      	bteqz	60226bd8 <play+0x10>
60226bc4:	6005      	bteqz	60226bd0 <play+0x8>
60226bc6:	bfc2      	lwu	a2,8(a3)

60226bc8 <play>:
60226bc8:	64f4      	save	32,ra,s0-s1
60226bca:	b154      	lw	s1,60226d18 <play+0x150>
60226bcc:	6704      	move	s0,a0
60226bce:	9980      	lw	a0,0(s1)
60226bd0:	6b01      	li	v1,1
60226bd2:	a440      	lbu	v0,0(a0)
60226bd4:	e811      	zeb	s0
60226bd6:	5a02      	sltiu	v0,2
60226bd8:	6743      	move	v0,v1
60226bda:	6102      	btnez	60226be0 <play+0x18>
60226bdc:	6474      	restore	32,ra,s0-s1
60226bde:	e8a0      	jrc	ra
60226be0:	1900 9a9e 	jal	60226a78 <set_file>
60226be4:	6500      	nop
60226be6:	67a2      	move	a1,v0
60226be8:	25f9      	beqz	a1,60226bdc <play+0x14>
60226bea:	b24d      	lw	v0,60226d1c <play+0x154>
60226bec:	ea40      	jalr	v0
60226bee:	6c03      	li	a0,3
60226bf0:	b44c      	lw	a0,60226d20 <play+0x158>
60226bf2:	b24d      	lw	v0,60226d24 <play+0x15c>
60226bf4:	9c60      	lw	v1,0(a0)
60226bf6:	6e01      	li	a2,1
60226bf8:	a3b6      	lbu	a1,22(v1)
60226bfa:	6c00      	li	a0,0
60226bfc:	ea40      	jalr	v0
60226bfe:	6f03      	li	a3,3
60226c00:	b64a      	lw	a2,60226d28 <play+0x160>
60226c02:	b74b      	lw	a3,60226d2c <play+0x164>
60226c04:	9e80      	lw	a0,0(a2)
60226c06:	b34b      	lw	v1,60226d30 <play+0x168>
60226c08:	a7c0      	lbu	a2,0(a3)
60226c0a:	eb40      	jalr	v1
60226c0c:	6d29      	li	a1,41
60226c0e:	7002      	cmpi	s0,2
60226c10:	6031      	bteqz	60226c74 <play+0xac>
60226c12:	7003      	cmpi	s0,3
60226c14:	6154      	btnez	60226cbe <play+0xf6>
60226c16:	b448      	lw	a0,60226d34 <play+0x16c>
60226c18:	9cc0      	lw	a2,0(a0)
60226c1a:	f080 9e7c 	lw	v1,156(a2)
60226c1e:	2b09      	bnez	v1,60226c32 <play+0x6a>
60226c20:	f382 6808 	li	s0,5000
60226c24:	ef0b      	neg	a3,s0
60226c26:	f080 defc 	sw	a3,156(a2)
60226c2a:	f0a0 de60 	sw	v1,160(a2)
60226c2e:	f0a0 de64 	sw	v1,164(a2)
60226c32:	b23e      	lw	v0,60226d28 <play+0x160>
60226c34:	b33f      	lw	v1,60226d30 <play+0x168>
60226c36:	9a80      	lw	a0,0(v0)
60226c38:	4e7f      	addiu	a2,127
60226c3a:	6d14      	li	a1,20
60226c3c:	eb40      	jalr	v1
60226c3e:	4e1d      	addiu	a2,29
60226c40:	b53a      	lw	a1,60226d28 <play+0x160>
60226c42:	6f04      	li	a3,4
60226c44:	9d80      	lw	a0,0(a1)
60226c46:	b03b      	lw	s0,60226d30 <play+0x168>
60226c48:	eeeb      	neg	a2,a3
60226c4a:	e840      	jalr	s0
60226c4c:	6d1f      	li	a1,31
60226c4e:	b237      	lw	v0,60226d28 <play+0x160>
60226c50:	b338      	lw	v1,60226d30 <play+0x168>
60226c52:	9a80      	lw	a0,0(v0)
60226c54:	6e00      	li	a2,0
60226c56:	eb40      	jalr	v1
60226c58:	6d18      	li	a1,24
60226c5a:	6782      	move	a0,v0
60226c5c:	9940      	lw	v0,0(s1)
60226c5e:	6e04      	li	a2,4
60226c60:	6b02      	li	v1,2
60226c62:	c2c0      	sb	a2,0(v0)
60226c64:	c262      	sb	v1,2(v0)
60226c66:	241e      	beqz	a0,60226ca4 <play+0xdc>
60226c68:	b234      	lw	v0,60226d38 <play+0x170>
60226c6a:	ea40      	jalr	v0
60226c6c:	6800      	li	s0,0
60226c6e:	6750      	move	v0,s0
60226c70:	6474      	restore	32,ra,s0-s1
60226c72:	e8a0      	jrc	ra
60226c74:	b530      	lw	a1,60226d30 <play+0x168>
60226c76:	9dc0      	lw	a2,0(a1)
60226c78:	f080 9e1c 	lw	s0,156(a2)
60226c7c:	2832      	bnez	s0,60226ce2 <play+0x11a>
60226c7e:	b52b      	lw	a1,60226d28 <play+0x160>
60226c80:	b32c      	lw	v1,60226d30 <play+0x168>
60226c82:	9d80      	lw	a0,0(a1)
60226c84:	6e04      	li	a2,4
60226c86:	eb40      	jalr	v1
60226c88:	6d1f      	li	a1,31
60226c8a:	b228      	lw	v0,60226d28 <play+0x160>
60226c8c:	b029      	lw	s0,60226d30 <play+0x168>
60226c8e:	9a80      	lw	a0,0(v0)
60226c90:	6e00      	li	a2,0
60226c92:	e840      	jalr	s0
60226c94:	6d18      	li	a1,24
60226c96:	6782      	move	a0,v0
60226c98:	9940      	lw	v0,0(s1)
60226c9a:	6e04      	li	a2,4
60226c9c:	6b01      	li	v1,1
60226c9e:	c2c0      	sb	a2,0(v0)
60226ca0:	c262      	sb	v1,2(v0)
60226ca2:	17e1      	b	60226c66 <play+0x9e>
60226ca4:	b026      	lw	s0,60226d3c <play+0x174>
60226ca6:	b321      	lw	v1,60226d28 <play+0x160>
60226ca8:	67d0      	move	a2,s0
60226caa:	9b80      	lw	a0,0(v1)
60226cac:	b221      	lw	v0,60226d30 <play+0x168>
60226cae:	6d28      	li	a1,40
60226cb0:	ea40      	jalr	v0
60226cb2:	4e0c      	addiu	a2,12
60226cb4:	6d01      	li	a1,1
60226cb6:	c0aa      	sb	a1,10(s0)
60226cb8:	6801      	li	s0,1
60226cba:	6750      	move	v0,s0
60226cbc:	17d9      	b	60226c70 <play+0xa8>
60226cbe:	7001      	cmpi	s0,1
60226cc0:	6118      	btnez	60226cf2 <play+0x12a>
60226cc2:	b01d      	lw	s0,60226d34 <play+0x16c>
60226cc4:	98c0      	lw	a2,0(s0)
60226cc6:	f080 9e9c 	lw	a0,156(a2)
60226cca:	2c1e      	bnez	a0,60226d08 <play+0x140>
60226ccc:	b217      	lw	v0,60226d28 <play+0x160>
60226cce:	b019      	lw	s0,60226d30 <play+0x168>
60226cd0:	9a80      	lw	a0,0(v0)
60226cd2:	6d18      	li	a1,24
60226cd4:	e840      	jalr	s0
60226cd6:	6e00      	li	a2,0
60226cd8:	99c0      	lw	a2,0(s1)
60226cda:	6d02      	li	a1,2
60226cdc:	6782      	move	a0,v0
60226cde:	c6a0      	sb	a1,0(a2)
60226ce0:	17c2      	b	60226c66 <play+0x9e>
60226ce2:	b712      	lw	a3,60226d28 <play+0x160>
60226ce4:	4e7f      	addiu	a2,127
60226ce6:	9f80      	lw	a0,0(a3)
60226ce8:	b312      	lw	v1,60226d30 <play+0x168>
60226cea:	6d14      	li	a1,20
60226cec:	eb40      	jalr	v1
60226cee:	4e1d      	addiu	a2,29
60226cf0:	17c6      	b	60226c7e <play+0xb6>
60226cf2:	9980      	lw	a0,0(s1)
60226cf4:	b70d      	lw	a3,60226d28 <play+0x160>
60226cf6:	6e02      	li	a2,2
60226cf8:	c4c0      	sb	a2,0(a0)
60226cfa:	b30e      	lw	v1,60226d30 <play+0x168>
60226cfc:	9f80      	lw	a0,0(a3)
60226cfe:	6d18      	li	a1,24
60226d00:	eb40      	jalr	v1
60226d02:	6e00      	li	a2,0
60226d04:	6782      	move	a0,v0
60226d06:	17af      	b	60226c66 <play+0x9e>
60226d08:	b708      	lw	a3,60226d28 <play+0x160>
60226d0a:	4e7f      	addiu	a2,127
60226d0c:	9f80      	lw	a0,0(a3)
60226d0e:	b309      	lw	v1,60226d30 <play+0x168>
60226d10:	6d14      	li	a1,20
60226d12:	eb40      	jalr	v1
60226d14:	4e1d      	addiu	a2,29
60226d16:	17da      	b	60226ccc <play+0x104>
60226d18:	95f8      	lw	a1,992(sp)
60226d1a:	9fc1      	lw	a2,4(a3)
60226d1c:	691d      	li	s1,29
60226d1e:	60a6      	bteqz	60226c6c <play+0xa4>
60226d20:	9600      	lw	a2,0(sp)
60226d22:	9fc1      	lw	a2,4(a3)
60226d24:	6005      	bteqz	60226d30 <play+0x168>
60226d26:	bfc2      	lwu	a2,8(a3)
60226d28:	95fc      	lw	a1,1008(sp)
60226d2a:	9fc1      	lw	a2,4(a3)
60226d2c:	95e2      	lw	a1,904(sp)
60226d2e:	9fc1      	lw	a2,4(a3)
60226d30:	600d      	bteqz	60226d4c <mengine_file_switch+0xc>
60226d32:	bfc2      	lwu	a2,8(a3)
60226d34:	95ec      	lw	a1,944(sp)
60226d36:	9fc1      	lw	a2,4(a3)
60226d38:	6e95      	li	a2,149
60226d3a:	600a      	bteqz	60226d50 <mengine_file_switch+0x10>
60226d3c:	a094      	lbu	a0,20(s0)
60226d3e:	9fc1      	lw	a2,4(a3)

60226d40 <mengine_file_switch>:
60226d40:	64f7      	save	56,ra,s0-s1

switch_result_e mengine_file_switch(stop_mode_e stop_mode, switch_mode_e switch_mode, play_mode_e play_mode)
{
60226d42:	ee11      	zeb	a2
60226d44:	b232      	lw	v0,60226e0c <.L95+0x94>
    bool ret;

    uint8 read_err;
    switch_result_e switch_result = SWITCH_NO_ERR;

    //停止当前歌曲播放
    ret = stop(stop_mode);
60226d46:	6705      	move	s0,a1
60226d48:	d606      	sw	a2,24(sp)
60226d4a:	ec11      	zeb	a0
60226d4c:	e811      	zeb	s0
60226d4e:	ea40      	jalr	v0
60226d50:	6900      	li	s1,0
60226d52:	2215      	beqz	v0,60226d7e <.L95+0x6>
    if(ret == FALSE) {
60226d54:	b42f      	lw	a0,60226e10 <.L95+0x98>
        switch_result = SWITCH_ERR_STOP;
        goto switch_end;
    }

    if(g_file_sys_id < 0) {
60226d56:	6751      	move	v0,s1
        return SWITCH_NO_ERR;
60226d58:	9c60      	lw	v1,0(a0)
60226d5a:	5300      	slti	v1,0
60226d5c:	610e      	btnez	60226d7a <.L95+0x2>
60226d5e:	b22e      	lw	v0,60226e14 <.L95+0x9c>
    }
    //检测磁盘是否存在
    ret = mengine_check_disk_in();
60226d60:	eac0      	jalrc	v0
60226d62:	d207      	sw	v0,28(sp)
60226d64:	b22d      	lw	v0,60226e18 <.L95+0xa0>
    //是否是读文件出错
    read_err = fsel_get_error();
60226d66:	eac0      	jalrc	v0
60226d68:	9507      	lw	a1,28(sp)

    if((ret == FALSE) || (read_err == 2)) {
60226d6a:	2502      	beqz	a1,60226d70 <mengine_file_switch+0x30>
60226d6c:	7202      	cmpi	v0,2
60226d6e:	610a      	btnez	60226d84 <.L95+0xc>
60226d70:	b72b      	lw	a3,60226e1c <.L95+0xa4>
        PRINT_DBG_INT("file_switch:", (((uint32) ret) << 8) | read_err);
        switch_result = SWITCH_ERR_DISK_OUT;
        //保存错误状态
        g_eg_status_p->err_status = EG_ERR_DISK_OUT;
60226d72:	6902      	li	s1,2
60226d74:	9fc0      	lw	a2,0(a3)
60226d76:	c623      	sb	s1,3(a2)

60226d78 <.L95>:
60226d78:	6751      	move	v0,s1
        goto switch_end;
    }

    //切换上下曲
    ret = next_or_prev(switch_mode);
    if((ret == FALSE) && (g_mengine_enter_mode != ENTER_RECOD_PLAY)) {
        if(play_mode == PLAY_FBON) {
            //强制切换到上一首歌曲
            ret = next_or_prev(FORCE_SWITCH_PREV);
        } else {
            //强制切换到下一首歌曲
            ret = next_or_prev(FORCE_SWITCH_NEXT);
        }
    }

    if(FALSE == ret) {
        //快速插拔卡的时候，next_or_prev歌曲切换需要调用文件系统再次读卡的时候，因为读卡超时会读不到数据而返回错误
        switch_result = SWITCH_ERR_READ_CARD_TIMEOUT;
        goto switch_end;
    }

    if(g_mengine_enter_mode != ENTER_RECOD_PLAY) {
        vfs_get_name(g_file_sys_id, g_eg_cfg_p->name_buf, sizeof(g_eg_cfg_p->name_buf) / 2 - 2);
#ifdef CHECK_BK_DIR
        fsel_get_dir_name(g_eg_cfg_p->dir_name, sizeof(g_eg_cfg_p->dir_name) / 2 - 2,
                          &g_eg_cfg_p->location.dirlocation);
#endif

        //正常切换也需要断点记忆,用于断电恢复
        mengine_vram_write(g_eg_cfg_p->location.dirlocation.disk);
    }

    if((play_mode != PLAY_NO_PLAY) && (ret == TRUE)) {
        //切换歌曲开始播放
        ret = play(play_mode);
    }

    if(ret == FALSE) {
        switch_result = SWITCH_ERR_PLAY;
    }
switch_end:

    return switch_result;
60226d7a:	6477      	restore	56,ra,s0-s1
}
60226d7c:	e8a0      	jrc	ra
60226d7e:	4121      	addiu	s1,s1,1
60226d80:	6751      	move	v0,s1
60226d82:	17fb      	b	60226d7a <.L95+0x2>
60226d84:	6790      	move	a0,s0
60226d86:	b027      	lw	s0,60226e20 <.L95+0xa8>
60226d88:	e8c0      	jalrc	s0
60226d8a:	d208      	sw	v0,32(sp)
60226d8c:	2a0d      	bnez	v0,60226da8 <.L95+0x30>
60226d8e:	b426      	lw	a0,60226e24 <.L95+0xac>
60226d90:	a460      	lbu	v1,0(a0)
60226d92:	7301      	cmpi	v1,1
60226d94:	601d      	bteqz	60226dd0 <.L95+0x58>
60226d96:	9506      	lw	a1,24(sp)
60226d98:	6c03      	li	a0,3
60226d9a:	7503      	cmpi	a1,3
60226d9c:	6001      	bteqz	60226da0 <.L95+0x28>
60226d9e:	6c02      	li	a0,2
60226da0:	e8c0      	jalrc	s0
60226da2:	d208      	sw	v0,32(sp)
60226da4:	9208      	lw	v0,32(sp)
60226da6:	2214      	beqz	v0,60226dd0 <.L95+0x58>
60226da8:	b71f      	lw	a3,60226e24 <.L95+0xac>
60226daa:	a7c0      	lbu	a2,0(a3)
60226dac:	7601      	cmpi	a2,1
60226dae:	6113      	btnez	60226dd6 <.L95+0x5e>
60226db0:	9206      	lw	v0,24(sp)
60226db2:	7204      	cmpi	v0,4
60226db4:	6003      	bteqz	60226dbc <.L95+0x44>
60226db6:	9408      	lw	a0,32(sp)
60226db8:	7401      	cmpi	a0,1
60226dba:	6005      	bteqz	60226dc6 <.L95+0x4e>
60226dbc:	9708      	lw	a3,32(sp)
60226dbe:	2fdc      	bnez	a3,60226d78 <.L95>
60226dc0:	6905      	li	s1,5
60226dc2:	6751      	move	v0,s1
60226dc4:	17da      	b	60226d7a <.L95+0x2>
60226dc6:	6782      	move	a0,v0
60226dc8:	b21c      	lw	v0,60226e38 <.L95+0xc0>
60226dca:	eac0      	jalrc	v0
60226dcc:	d208      	sw	v0,32(sp)
60226dce:	17f6      	b	60226dbc <.L95+0x44>
60226dd0:	6904      	li	s1,4
60226dd2:	6751      	move	v0,s1
60226dd4:	17d2      	b	60226d7a <.L95+0x2>
60226dd6:	b50f      	lw	a1,60226e10 <.L95+0x98>
60226dd8:	b614      	lw	a2,60226e28 <.L95+0xb0>
60226dda:	9d80      	lw	a0,0(a1)
60226ddc:	9ea0      	lw	a1,0(a2)
60226dde:	6b02      	li	v1,2
60226de0:	4d7f      	addiu	a1,127
60226de2:	b213      	lw	v0,60226e2c <.L95+0xb4>
60226de4:	d304      	sw	v1,16(sp)
60226de6:	4d29      	addiu	a1,41
60226de8:	6e0e      	li	a2,14
60226dea:	ea40      	jalr	v0
60226dec:	6f00      	li	a3,0
60226dee:	b70f      	lw	a3,60226e28 <.L95+0xb0>
60226df0:	b210      	lw	v0,60226e30 <.L95+0xb8>
60226df2:	9fc0      	lw	a2,0(a3)
60226df4:	6d0e      	li	a1,14
60226df6:	f0c0 4688 	addiu	a0,a2,200
60226dfa:	ea40      	jalr	v0
60226dfc:	46c4      	addiu	a2,a2,4
60226dfe:	b40b      	lw	a0,60226e28 <.L95+0xb0>
60226e00:	b30d      	lw	v1,60226e34 <.L95+0xbc>
60226e02:	9ca0      	lw	a1,0(a0)
60226e04:	eb40      	jalr	v1
60226e06:	a584      	lbu	a0,4(a1)
60226e08:	17d3      	b	60226db0 <.L95+0x38>
60226e0a:	0000      	addiu	s0,sp,0
60226e0c:	6869      	li	s0,105
60226e0e:	6022      	bteqz	60226e54 <get_music_decrypt_status+0x18>
60226e10:	9580      	lw	a1,512(sp)
60226e12:	9fc1      	lw	a2,4(a3)
60226e14:	6801      	li	s0,1
60226e16:	6022      	bteqz	60226e5c <get_music_decrypt_status+0x20>
60226e18:	1e71 7a02 	jalx	68cde808 <i2s_mfp_cfg+0x8237e00>
60226e1c:	95f8      	lw	a1,992(sp)
60226e1e:	9fc1      	lw	a2,4(a3)
60226e20:	694d      	li	s1,77
60226e22:	6022      	bteqz	60226e68 <get_music_decrypt_status+0x2c>
60226e24:	95de      	lw	a1,888(sp)
60226e26:	9fc1      	lw	a2,4(a3)
60226e28:	95ec      	lw	a1,944(sp)
60226e2a:	9fc1      	lw	a2,4(a3)
60226e2c:	6015      	bteqz	60226e58 <get_music_decrypt_status+0x1c>
60226e2e:	bfc2      	lwu	a2,8(a3)
60226e30:	8df1      	lh	a3,34(a1)
60226e32:	7b02      	sd	s0,16(v1)
60226e34:	6801      	li	s0,1
60226e36:	600e      	bteqz	60226e54 <get_music_decrypt_status+0x18>
60226e38:	6bc9      	li	v1,201
60226e3a:	6022      	bteqz	60226e80 <get_music_decrypt_status+0x44>

60226e3c <get_music_decrypt_status>:
60226e3c:	64f7      	save	56,ra,s0-s1

//判断音乐文件加密demo函数，方案中根据音乐文件尾部4个字节数据是否为0x7f来判断的
//客户如果想自己判断音乐文件是否加密，可以修改该函数即可
//返回值为TRUE表示音乐文件是加密的;FALSE表示音乐文件是非加密的
bool __section__(".BANK_CONTROL_1_8")get_music_decrypt_status(mmm_mp_fs_para_t *p_fs_para)
{
60226e3e:	6704      	move	s0,a0
60226e40:	b722      	lw	a3,60226ec8 <get_music_decrypt_status+0x8c>
    uint32 cur_file_handle;
    uint8 encryption_data[4];
    uint32 file_len = 0;
    bool music_decrypt_status  = FALSE;

    cur_file_handle = (void *) vfs_file_open(g_file_sys_id, p_fs_para->file_name, R_NORMAL_SEEK);
60226e42:	6c00      	li	a0,0
60226e44:	d409      	sw	a0,36(sp)
60226e46:	d408      	sw	a0,32(sp)
60226e48:	6e05      	li	a2,5
60226e4a:	9f80      	lw	a0,0(a3)
60226e4c:	d604      	sw	a2,16(sp)
60226e4e:	9609      	lw	a2,36(sp)
60226e50:	98a2      	lw	a1,8(s0)
60226e52:	b11f      	lw	s1,60226ecc <get_music_decrypt_status+0x90>
60226e54:	e940      	jalr	s1
60226e56:	67e6      	move	a3,a2
60226e58:	b51c      	lw	a1,60226ec8 <get_music_decrypt_status+0x8c>
    vfs_file_get_size(g_file_sys_id, &file_len, p_fs_para->file_name, 1);
60226e5a:	6722      	move	s1,v0
60226e5c:	9d80      	lw	a0,0(a1)
60226e5e:	98c2      	lw	a2,8(s0)
60226e60:	6a09      	li	v0,9
60226e62:	b31b      	lw	v1,60226ecc <get_music_decrypt_status+0x90>
60226e64:	0508      	addiu	a1,sp,32
60226e66:	6f01      	li	a3,1
60226e68:	eb40      	jalr	v1
60226e6a:	d204      	sw	v0,16(sp)
60226e6c:	b717      	lw	a3,60226ec8 <get_music_decrypt_status+0x8c>

    vfs_file_seek(g_file_sys_id,  file_len - 4, SEEK_SET, cur_file_handle);
60226e6e:	6e0b      	li	a2,11
60226e70:	9508      	lw	a1,32(sp)
60226e72:	9f80      	lw	a0,0(a3)
60226e74:	b316      	lw	v1,60226ecc <get_music_decrypt_status+0x90>
60226e76:	d604      	sw	a2,16(sp)
60226e78:	9609      	lw	a2,36(sp)
60226e7a:	45ac      	addiu	a1,a1,-4
60226e7c:	eb40      	jalr	v1
60226e7e:	67f1      	move	a3,s1
60226e80:	b212      	lw	v0,60226ec8 <get_music_decrypt_status+0x8c>
    vfs_file_read(g_file_sys_id, encryption_data, 4, cur_file_handle);
60226e82:	6f0d      	li	a3,13
60226e84:	9a80      	lw	a0,0(v0)
60226e86:	b312      	lw	v1,60226ecc <get_music_decrypt_status+0x90>
60226e88:	d704      	sw	a3,16(sp)
60226e8a:	0506      	addiu	a1,sp,24
60226e8c:	6e04      	li	a2,4
60226e8e:	eb40      	jalr	v1
60226e90:	67f1      	move	a3,s1
60226e92:	b60e      	lw	a2,60226ec8 <get_music_decrypt_status+0x8c>

    vfs_file_close(g_file_sys_id, cur_file_handle);
60226e94:	6d07      	li	a1,7
60226e96:	9e80      	lw	a0,0(a2)
60226e98:	9609      	lw	a2,36(sp)
60226e9a:	b30d      	lw	v1,60226ecc <get_music_decrypt_status+0x90>
60226e9c:	d504      	sw	a1,16(sp)
60226e9e:	67e6      	move	a3,a2
60226ea0:	eb40      	jalr	v1
60226ea2:	67b1      	move	a1,s1
60226ea4:	677d      	move	v1,sp

    if((0x7f == encryption_data[0])\
60226ea6:	a358      	lbu	v0,24(v1)
60226ea8:	727f      	cmpi	v0,127
60226eaa:	610b      	btnez	60226ec2 <get_music_decrypt_status+0x86>
60226eac:	a359      	lbu	v0,25(v1)
60226eae:	727f      	cmpi	v0,127
60226eb0:	6108      	btnez	60226ec2 <get_music_decrypt_status+0x86>
60226eb2:	a3ba      	lbu	a1,26(v1)
60226eb4:	757f      	cmpi	a1,127
60226eb6:	6105      	btnez	60226ec2 <get_music_decrypt_status+0x86>
60226eb8:	a3db      	lbu	a2,27(v1)
60226eba:	767f      	cmpi	a2,127
60226ebc:	6102      	btnez	60226ec2 <get_music_decrypt_status+0x86>
60226ebe:	6b01      	li	v1,1
            && (0x7f == encryption_data[1])\
            && (0x7f == encryption_data[2])\
            && (0x7f == encryption_data[3])) {
        music_decrypt_status = TRUE;
60226ec0:	d309      	sw	v1,36(sp)
60226ec2:	9209      	lw	v0,36(sp)
    }

    return music_decrypt_status;
}
60226ec4:	6477      	restore	56,ra,s0-s1
60226ec6:	e8a0      	jrc	ra
60226ec8:	9580      	lw	a1,512(sp)
60226eca:	9fc1      	lw	a2,4(a3)
60226ecc:	6015      	bteqz	60226ef8 <get_music_decrypt_status+0xbc>
60226ece:	bfc2      	lwu	a2,8(a3)
Disassembly of section BANK_ENHANCED_1_0:

7a021e00 <fsel_init_sysdata>:
7a021e00:	64c4      	save	32,ra
7a021e02:	b211      	lw	v0,7a021e44 <BANK_BACK_ENHANCED_1_ADDR_BASE+0x44>
7a021e04:	6c00      	li	a0,0
7a021e06:	c280      	sb	a0,0(v0)
7a021e08:	b310      	lw	v1,7a021e48 <BANK_BACK_ENHANCED_1_ADDR_BASE+0x48>
7a021e0a:	b711      	lw	a3,7a021e4c <BANK_BACK_ENHANCED_1_ADDR_BASE+0x4c>
7a021e0c:	b214      	lw	v0,7a021e5c <BANK_BACK_ENHANCED_1_ADDR_BASE+0x5c>
7a021e0e:	6d00      	li	a1,0
7a021e10:	cba0      	sh	a1,0(v1)
7a021e12:	cfa0      	sh	a1,0(a3)
7a021e14:	b60f      	lw	a2,7a021e50 <BANK_BACK_ENHANCED_1_ADDR_BASE+0x50>
7a021e16:	9ae0      	lw	a3,0(v0)
7a021e18:	b40f      	lw	a0,7a021e54 <BANK_BACK_ENHANCED_1_ADDR_BASE+0x54>
7a021e1a:	b310      	lw	v1,7a021e58 <BANK_BACK_ENHANCED_1_ADDR_BASE+0x58>
7a021e1c:	cea0      	sh	a1,0(a2)
7a021e1e:	cca0      	sh	a1,0(a0)
7a021e20:	dbe0      	sw	a3,0(v1)
7a021e22:	b610      	lw	a2,7a021e60 <BANK_BACK_ENHANCED_1_ADDR_BASE+0x60>
7a021e24:	b410      	lw	a0,7a021e64 <BANK_BACK_ENHANCED_1_ADDR_BASE+0x64>
7a021e26:	b311      	lw	v1,7a021e68 <BANK_BACK_ENHANCED_1_ADDR_BASE+0x68>
7a021e28:	4f0c      	addiu	a3,12
7a021e2a:	6d01      	li	a1,1
7a021e2c:	dee0      	sw	a3,0(a2)
7a021e2e:	cca0      	sh	a1,0(a0)
7a021e30:	6f00      	li	a3,0
7a021e32:	9b80      	lw	a0,0(v1)
7a021e34:	b20e      	lw	v0,7a021e6c <BANK_BACK_ENHANCED_1_ADDR_BASE+0x6c>
7a021e36:	d704      	sw	a3,16(sp)
7a021e38:	6d3a      	li	a1,58
7a021e3a:	ea40      	jalr	v0
7a021e3c:	67c7      	move	a2,a3
7a021e3e:	6444      	restore	32,ra
7a021e40:	e8a0      	jrc	ra
7a021e42:	0000      	addiu	s0,sp,0
7a021e44:	976d      	lw	a3,436(sp)
7a021e46:	9fc1      	lw	a2,4(a3)
7a021e48:	9770      	lw	a3,448(sp)
7a021e4a:	9fc1      	lw	a2,4(a3)
7a021e4c:	9772      	lw	a3,456(sp)
7a021e4e:	9fc1      	lw	a2,4(a3)
7a021e50:	9774      	lw	a3,464(sp)
7a021e52:	9fc1      	lw	a2,4(a3)
7a021e54:	9776      	lw	a3,472(sp)
7a021e56:	9fc1      	lw	a2,4(a3)
7a021e58:	98a4      	lw	a1,16(s0)
7a021e5a:	9fc1      	lw	a2,4(a3)
7a021e5c:	9588      	lw	a1,544(sp)
7a021e5e:	9fc1      	lw	a2,4(a3)
7a021e60:	9894      	lw	a0,80(s0)
7a021e62:	9fc1      	lw	a2,4(a3)
7a021e64:	9584      	lw	a1,528(sp)
7a021e66:	9fc1      	lw	a2,4(a3)
7a021e68:	958c      	lw	a1,560(sp)
7a021e6a:	9fc1      	lw	a2,4(a3)
7a021e6c:	6015      	bteqz	7a021e98 <fsel_set_fileno+0x4>
7a021e6e:	bfc2      	lwu	a2,8(a3)

7a021e70 <fsel_get_error>:
7a021e70:	64c4      	save	32,ra
7a021e72:	b507      	lw	a1,7a021e8c <fsel_get_error+0x1c>
7a021e74:	6b10      	li	v1,16
7a021e76:	9d80      	lw	a0,0(a1)
7a021e78:	b206      	lw	v0,7a021e90 <fsel_get_error+0x20>
7a021e7a:	6d00      	li	a1,0
7a021e7c:	d304      	sw	v1,16(sp)
7a021e7e:	67c5      	move	a2,a1
7a021e80:	ea40      	jalr	v0
7a021e82:	67e5      	move	a3,a1
7a021e84:	ea11      	zeb	v0
7a021e86:	6444      	restore	32,ra
7a021e88:	e8a0      	jrc	ra
7a021e8a:	0000      	addiu	s0,sp,0
7a021e8c:	958c      	lw	a1,560(sp)
7a021e8e:	9fc1      	lw	a2,4(a3)
7a021e90:	6015      	bteqz	7a021ebc <fsel_init+0x1c>
7a021e92:	bfc2      	lwu	a2,8(a3)

7a021e94 <fsel_set_fileno>:
7a021e94:	b202      	lw	v0,7a021e9c <fsel_set_fileno+0x8>
7a021e96:	e820      	jr	ra
7a021e98:	ca80      	sh	a0,0(v0)
7a021e9a:	0000      	addiu	s0,sp,0
7a021e9c:	9774      	lw	a3,464(sp)
7a021e9e:	9fc1      	lw	a2,4(a3)

7a021ea0 <fsel_init>:
7a021ea0:	64f5      	save	40,ra,s0-s1
7a021ea2:	6724      	move	s1,a0
7a021ea4:	b42b      	lw	a0,7a021f50 <fsel_init+0xb0>
7a021ea6:	ed11      	zeb	a1
7a021ea8:	6b00      	li	v1,0
7a021eaa:	6a01      	li	v0,1
7a021eac:	d504      	sw	a1,16(sp)
7a021eae:	c460      	sb	v1,0(a0)
7a021eb0:	ea4b      	neg	v0
7a021eb2:	2131      	beqz	s1,7a021f16 <fsel_init+0x76>
7a021eb4:	b028      	lw	s0,7a021f54 <fsel_init+0xb4>
7a021eb6:	b229      	lw	v0,7a021f58 <fsel_init+0xb8>
7a021eb8:	67b1      	move	a1,s1
7a021eba:	6e08      	li	a2,8
7a021ebc:	6f00      	li	a3,0
7a021ebe:	ea40      	jalr	v0
7a021ec0:	6790      	move	a0,s0
7a021ec2:	a0c1      	lbu	a2,1(s0)
7a021ec4:	6f0f      	li	a3,15
7a021ec6:	eeec      	and	a2,a3
7a021ec8:	c0c1      	sb	a2,1(s0)
7a021eca:	a161      	lbu	v1,1(s1)
7a021ecc:	6df0      	li	a1,240
7a021ece:	ebac      	and	v1,a1
7a021ed0:	2b24      	bnez	v1,7a021f1a <fsel_init+0x7a>
7a021ed2:	b423      	lw	a0,7a021f5c <fsel_init+0xbc>
7a021ed4:	c460      	sb	v1,0(a0)
7a021ed6:	a182      	lbu	a0,2(s1)
7a021ed8:	7410      	cmpi	a0,16
7a021eda:	6125      	btnez	7a021f26 <fsel_init+0x86>
7a021edc:	6801      	li	s0,1
7a021ede:	b621      	lw	a2,7a021f60 <fsel_init+0xc0>
7a021ee0:	d005      	sw	s0,20(sp)
7a021ee2:	9405      	lw	a0,20(sp)
7a021ee4:	9504      	lw	a1,16(sp)
7a021ee6:	b121      	lw	s1,7a021f68 <fsel_init+0xc8>
7a021ee8:	e940      	jalr	s1
7a021eea:	6f0a      	li	a3,10
7a021eec:	6702      	move	s0,v0
7a021eee:	6b0b      	li	v1,11
7a021ef0:	2a21      	bnez	v0,7a021f34 <fsel_init+0x94>
7a021ef2:	b619      	lw	a2,7a021f54 <fsel_init+0xb4>
7a021ef4:	9405      	lw	a0,20(sp)
7a021ef6:	a6a2      	lbu	a1,2(a2)
7a021ef8:	6f29      	li	a3,41
7a021efa:	e940      	jalr	s1
7a021efc:	67c2      	move	a2,v0
7a021efe:	ea91      	seb	v0
7a021f00:	b51b      	lw	a1,7a021f6c <fsel_init+0xcc>
7a021f02:	eb4f      	not	v1,v0
7a021f04:	dd40      	sw	v0,0(a1)
7a021f06:	231c      	beqz	v1,7a021f40 <fsel_init+0xa0>
7a021f08:	1814 8780 	jal	7a021e00 <BANK_BACK_ENHANCED_1_ADDR_BASE>
7a021f0c:	6500      	nop
7a021f0e:	b418      	lw	a0,7a021f6c <fsel_init+0xcc>
7a021f10:	b318      	lw	v1,7a021f70 <fsel_init+0xd0>
7a021f12:	9c40      	lw	v0,0(a0)
7a021f14:	c300      	sb	s0,0(v1)
7a021f16:	6475      	restore	40,ra,s0-s1
7a021f18:	e8a0      	jrc	ra
7a021f1a:	b411      	lw	a0,7a021f5c <fsel_init+0xbc>
7a021f1c:	6b01      	li	v1,1
7a021f1e:	c460      	sb	v1,0(a0)
7a021f20:	a182      	lbu	a0,2(s1)
7a021f22:	7410      	cmpi	a0,16
7a021f24:	60db      	bteqz	7a021edc <fsel_init+0x3c>
7a021f26:	7420      	cmpi	a0,32
7a021f28:	6104      	btnez	7a021f32 <fsel_init+0x92>
7a021f2a:	b60f      	lw	a2,7a021f64 <fsel_init+0xc4>
7a021f2c:	6902      	li	s1,2
7a021f2e:	d105      	sw	s1,20(sp)
7a021f30:	17d8      	b	7a021ee2 <fsel_init+0x42>
7a021f32:	6b07      	li	v1,7
7a021f34:	b207      	lw	v0,7a021f50 <fsel_init+0xb0>
7a021f36:	6f01      	li	a3,1
7a021f38:	c260      	sb	v1,0(v0)
7a021f3a:	eaeb      	neg	v0,a3
7a021f3c:	6475      	restore	40,ra,s0-s1
7a021f3e:	e8a0      	jrc	ra
7a021f40:	9405      	lw	a0,20(sp)
7a021f42:	67b0      	move	a1,s0
7a021f44:	67d0      	move	a2,s0
7a021f46:	e940      	jalr	s1
7a021f48:	6f0b      	li	a3,11
7a021f4a:	6b0c      	li	v1,12
7a021f4c:	17f3      	b	7a021f34 <fsel_init+0x94>
7a021f4e:	0000      	addiu	s0,sp,0
7a021f50:	976c      	lw	a3,432(sp)
7a021f52:	9fc1      	lw	a2,4(a3)
7a021f54:	9764      	lw	a3,400(sp)
7a021f56:	9fc1      	lw	a2,4(a3)
7a021f58:	6009      	bteqz	7a021f6c <fsel_init+0xcc>
7a021f5a:	bfc2      	lwu	a2,8(a3)
7a021f5c:	976e      	lw	a3,440(sp)
7a021f5e:	9fc1      	lw	a2,4(a3)
7a021f60:	1ff8 7a02 	jalx	7c7de808 <fsel_total_file_sortlist+0x1635dd0>
7a021f64:	1fec 7a02 	jalx	767de808 <i2s_mfp_cfg+0x15d37e00>
7a021f68:	6011      	bteqz	7a021f8c <fsel_exit+0x18>
7a021f6a:	bfc2      	lwu	a2,8(a3)
7a021f6c:	958c      	lw	a1,560(sp)
7a021f6e:	9fc1      	lw	a2,4(a3)
7a021f70:	98b8      	lw	a1,96(s0)
7a021f72:	9fc1      	lw	a2,4(a3)

7a021f74 <fsel_exit>:
7a021f74:	64f4      	save	32,ra,s0-s1
7a021f76:	b01b      	lw	s0,7a021fe0 <fsel_exit+0x6c>
7a021f78:	b119      	lw	s1,7a021fdc <fsel_exit+0x68>
7a021f7a:	9880      	lw	a0,0(s0)
7a021f7c:	6b00      	li	v1,0
7a021f7e:	ea8f      	not	v0,a0
7a021f80:	c160      	sb	v1,0(s1)
7a021f82:	6b01      	li	v1,1
7a021f84:	2a03      	bnez	v0,7a021f8c <fsel_exit+0x18>
7a021f86:	6743      	move	v0,v1
7a021f88:	6474      	restore	32,ra,s0-s1
7a021f8a:	e8a0      	jrc	ra
7a021f8c:	6d00      	li	a1,0
7a021f8e:	b216      	lw	v0,7a021fe4 <fsel_exit+0x70>
7a021f90:	67c5      	move	a2,a1
7a021f92:	ea40      	jalr	v0
7a021f94:	6f2a      	li	a3,42
7a021f96:	6c01      	li	a0,1
7a021f98:	eb8b      	neg	v1,a0
7a021f9a:	5200      	slti	v0,0
7a021f9c:	d860      	sw	v1,0(s0)
7a021f9e:	6115      	btnez	7a021fca <fsel_exit+0x56>
7a021fa0:	b612      	lw	a2,7a021fe8 <fsel_exit+0x74>
7a021fa2:	6c01      	li	a0,1
7a021fa4:	a642      	lbu	v0,2(a2)
7a021fa6:	7210      	cmpi	v0,16
7a021fa8:	6003      	bteqz	7a021fb0 <fsel_exit+0x3c>
7a021faa:	7220      	cmpi	v0,32
7a021fac:	4481      	addiu	a0,a0,1
7a021fae:	6111      	btnez	7a021fd2 <fsel_exit+0x5e>
7a021fb0:	6d00      	li	a1,0
7a021fb2:	b20d      	lw	v0,7a021fe4 <fsel_exit+0x70>
7a021fb4:	67c5      	move	a2,a1
7a021fb6:	ea40      	jalr	v0
7a021fb8:	6f0b      	li	a3,11
7a021fba:	5200      	slti	v0,0
7a021fbc:	6b01      	li	v1,1
7a021fbe:	60e3      	bteqz	7a021f86 <fsel_exit+0x12>
7a021fc0:	b407      	lw	a0,7a021fdc <fsel_exit+0x68>
7a021fc2:	6b0b      	li	v1,11
7a021fc4:	c460      	sb	v1,0(a0)
7a021fc6:	6b00      	li	v1,0
7a021fc8:	17de      	b	7a021f86 <fsel_exit+0x12>
7a021fca:	6d0c      	li	a1,12
7a021fcc:	4361      	addiu	v1,v1,1
7a021fce:	c1a0      	sb	a1,0(s1)
7a021fd0:	17da      	b	7a021f86 <fsel_exit+0x12>
7a021fd2:	6f07      	li	a3,7
7a021fd4:	6bff      	li	v1,255
7a021fd6:	c1e0      	sb	a3,0(s1)
7a021fd8:	17d6      	b	7a021f86 <fsel_exit+0x12>
7a021fda:	0000      	addiu	s0,sp,0
7a021fdc:	976c      	lw	a3,432(sp)
7a021fde:	9fc1      	lw	a2,4(a3)
7a021fe0:	958c      	lw	a1,560(sp)
7a021fe2:	9fc1      	lw	a2,4(a3)
7a021fe4:	6011      	bteqz	7a022008 <fsel_get_nextfile+0x4>
7a021fe6:	bfc2      	lwu	a2,8(a3)
7a021fe8:	9764      	lw	a3,400(sp)
7a021fea:	9fc1      	lw	a2,4(a3)

7a021fec <uhost_drv_name>:
7a021fec:	6875 736f 2e74 7264 0076 0000               uhost.drv...

7a021ff8 <card_drv_name>:
7a021ff8:	6163 6472 642e 7672 0000 0000               card.drv....

7a022004 <fsel_get_nextfile>:
7a022004:	64c3      	save	24,ra
7a022006:	651c      	move	t8,a0
7a022008:	b40d      	lw	a0,7a02203c <fsel_get_nextfile+0x38>
7a02200a:	b50c      	lw	a1,7a022038 <fsel_get_nextfile+0x34>
7a02200c:	9c60      	lw	v1,0(a0)
7a02200e:	6e00      	li	a2,0
7a022010:	ea6f      	not	v0,v1
7a022012:	c5c0      	sb	a2,0(a1)
7a022014:	6b00      	li	v1,0
7a022016:	2a03      	bnez	v0,7a02201e <fsel_get_nextfile+0x1a>
7a022018:	6743      	move	v0,v1
7a02201a:	6443      	restore	24,ra
7a02201c:	e8a0      	jrc	ra
7a02201e:	b60a      	lw	a2,7a022044 <fsel_get_nextfile+0x40>
7a022020:	b308      	lw	v1,7a022040 <fsel_get_nextfile+0x3c>
7a022022:	a6a0      	lbu	a1,0(a2)
7a022024:	34a8      	sll	a0,a1,2
7a022026:	e47d      	addu	a3,a0,v1
7a022028:	9f40      	lw	v0,0(a3)
7a02202a:	ea40      	jalr	v0
7a02202c:	6798      	move	a0,t8
7a02202e:	6762      	move	v1,v0
7a022030:	6743      	move	v0,v1
7a022032:	6443      	restore	24,ra
7a022034:	e8a0      	jrc	ra
7a022036:	0000      	addiu	s0,sp,0
7a022038:	976c      	lw	a3,432(sp)
7a02203a:	9fc1      	lw	a2,4(a3)
7a02203c:	958c      	lw	a1,560(sp)
7a02203e:	9fc1      	lw	a2,4(a3)
7a022040:	2310      	beqz	v1,7a022062 <fsel_get_prevfile+0x1a>
7a022042:	7a02      	sd	s0,16(v0)
7a022044:	98b8      	lw	a1,96(s0)
7a022046:	9fc1      	lw	a2,4(a3)

7a022048 <fsel_get_prevfile>:
7a022048:	64c3      	save	24,ra
7a02204a:	651c      	move	t8,a0
7a02204c:	b40d      	lw	a0,7a022080 <fsel_get_prevfile+0x38>
7a02204e:	b50c      	lw	a1,7a02207c <fsel_get_prevfile+0x34>
7a022050:	9c60      	lw	v1,0(a0)
7a022052:	6e00      	li	a2,0
7a022054:	ea6f      	not	v0,v1
7a022056:	c5c0      	sb	a2,0(a1)
7a022058:	6b00      	li	v1,0
7a02205a:	2a03      	bnez	v0,7a022062 <fsel_get_prevfile+0x1a>
7a02205c:	6743      	move	v0,v1
7a02205e:	6443      	restore	24,ra
7a022060:	e8a0      	jrc	ra
7a022062:	b60a      	lw	a2,7a022088 <fsel_get_prevfile+0x40>
7a022064:	b308      	lw	v1,7a022084 <fsel_get_prevfile+0x3c>
7a022066:	a6a0      	lbu	a1,0(a2)
7a022068:	34a8      	sll	a0,a1,2
7a02206a:	e47d      	addu	a3,a0,v1
7a02206c:	9f40      	lw	v0,0(a3)
7a02206e:	ea40      	jalr	v0
7a022070:	6798      	move	a0,t8
7a022072:	6762      	move	v1,v0
7a022074:	6743      	move	v0,v1
7a022076:	6443      	restore	24,ra
7a022078:	e8a0      	jrc	ra
7a02207a:	0000      	addiu	s0,sp,0
7a02207c:	976c      	lw	a3,432(sp)
7a02207e:	9fc1      	lw	a2,4(a3)
7a022080:	958c      	lw	a1,560(sp)
7a022082:	9fc1      	lw	a2,4(a3)
7a022084:	2308      	beqz	v1,7a022096 <fsel_get_byno+0xa>
7a022086:	7a02      	sd	s0,16(v0)
7a022088:	98b8      	lw	a1,96(s0)
7a02208a:	9fc1      	lw	a2,4(a3)

7a02208c <fsel_get_byno>:
7a02208c:	64c3      	save	24,ra
7a02208e:	b20b      	lw	v0,7a0220b8 <fsel_get_byno+0x2c>
7a022090:	ed31      	zeh	a1
7a022092:	6b00      	li	v1,0
7a022094:	c260      	sb	v1,0(v0)
7a022096:	651d      	move	t8,a1
7a022098:	2d03      	bnez	a1,7a0220a0 <fsel_get_byno+0x14>
7a02209a:	6758      	move	v0,t8
7a02209c:	6443      	restore	24,ra
7a02209e:	e8a0      	jrc	ra
7a0220a0:	b608      	lw	a2,7a0220bc <fsel_get_byno+0x30>
7a0220a2:	b307      	lw	v1,7a0220bc <fsel_get_byno+0x30>
7a0220a4:	a640      	lbu	v0,0(a2)
7a0220a6:	3748      	sll	a3,v0,2
7a0220a8:	e779      	addu	a2,a3,v1
7a0220aa:	9e40      	lw	v0,0(a2)
7a0220ac:	eac0      	jalrc	v0
7a0220ae:	651a      	move	t8,v0
7a0220b0:	6758      	move	v0,t8
7a0220b2:	6443      	restore	24,ra
7a0220b4:	e8a0      	jrc	ra
7a0220b6:	0000      	addiu	s0,sp,0
7a0220b8:	976c      	lw	a3,432(sp)
7a0220ba:	9fc1      	lw	a2,4(a3)
7a0220bc:	2300      	beqz	v1,7a0220be <fsel_get_byno+0x32>
7a0220be:	7a02      	sd	s0,16(v0)
7a0220c0:	98b8      	lw	a1,96(s0)
7a0220c2:	9fc1      	lw	a2,4(a3)

7a0220c4 <fsel_get_total>:
7a0220c4:	64c3      	save	24,ra
7a0220c6:	b30c      	lw	v1,7a0220f4 <fsel_get_total+0x30>
7a0220c8:	b40a      	lw	a0,7a0220f0 <fsel_get_total+0x2c>
7a0220ca:	ab40      	lhu	v0,0(v1)
7a0220cc:	6d00      	li	a1,0
7a0220ce:	c4a0      	sb	a1,0(a0)
7a0220d0:	651a      	move	t8,v0
7a0220d2:	2203      	beqz	v0,7a0220da <fsel_get_total+0x16>
7a0220d4:	6758      	move	v0,t8
7a0220d6:	6443      	restore	24,ra
7a0220d8:	e8a0      	jrc	ra
7a0220da:	b509      	lw	a1,7a0220fc <fsel_get_total+0x38>
7a0220dc:	b307      	lw	v1,7a0220f8 <fsel_get_total+0x34>
7a0220de:	a580      	lbu	a0,0(a1)
7a0220e0:	3788      	sll	a3,a0,2
7a0220e2:	e779      	addu	a2,a3,v1
7a0220e4:	9e40      	lw	v0,0(a2)
7a0220e6:	eac0      	jalrc	v0
7a0220e8:	651a      	move	t8,v0
7a0220ea:	6758      	move	v0,t8
7a0220ec:	6443      	restore	24,ra
7a0220ee:	e8a0      	jrc	ra
7a0220f0:	976c      	lw	a3,432(sp)
7a0220f2:	9fc1      	lw	a2,4(a3)
7a0220f4:	9776      	lw	a3,472(sp)
7a0220f6:	9fc1      	lw	a2,4(a3)
7a0220f8:	22f8      	beqz	v0,7a0220ea <fsel_get_total+0x26>
7a0220fa:	7a02      	sd	s0,16(v0)
7a0220fc:	98b8      	lw	a1,96(s0)
7a0220fe:	9fc1      	lw	a2,4(a3)

7a022100 <fsel_get_fileno>:
7a022100:	b406      	lw	a0,7a022118 <fsel_get_fileno+0x18>
7a022102:	b505      	lw	a1,7a022114 <fsel_get_fileno+0x14>
7a022104:	a440      	lbu	v0,0(a0)
7a022106:	ad60      	lhu	v1,0(a1)
7a022108:	7201      	cmpi	v0,1
7a02210a:	6102      	btnez	7a022110 <fsel_get_fileno+0x10>
7a02210c:	b604      	lw	a2,7a02211c <fsel_get_fileno+0x1c>
7a02210e:	ae60      	lhu	v1,0(a2)
7a022110:	e820      	jr	ra
7a022112:	6743      	move	v0,v1
7a022114:	9774      	lw	a3,464(sp)
7a022116:	9fc1      	lw	a2,4(a3)
7a022118:	98b8      	lw	a1,96(s0)
7a02211a:	9fc1      	lw	a2,4(a3)
7a02211c:	98ba      	lw	a1,104(s0)
7a02211e:	9fc1      	lw	a2,4(a3)

7a022120 <fsel_set_mode>:
7a022120:	64e3      	save	24,ra,s0
7a022122:	6704      	move	s0,a0
7a022124:	e811      	zeb	s0
7a022126:	b417      	lw	a0,7a022180 <fsel_set_mode+0x60>
7a022128:	6af0      	li	v0,240
7a02212a:	6b00      	li	v1,0
7a02212c:	ea0c      	and	v0,s0
7a02212e:	c460      	sb	v1,0(a0)
7a022130:	221e      	beqz	v0,7a02216e <fsel_set_mode+0x4e>
7a022132:	b315      	lw	v1,7a022184 <fsel_set_mode+0x64>
7a022134:	a3a0      	lbu	a1,0(v1)
7a022136:	2507      	beqz	a1,7a022146 <fsel_set_mode+0x26>
7a022138:	b318      	lw	v1,7a022198 <fsel_set_mode+0x78>
7a02213a:	6f0f      	li	a3,15
7a02213c:	ef0c      	and	a3,s0
7a02213e:	6a01      	li	v0,1
7a022140:	c3e1      	sb	a3,1(v1)
7a022142:	6463      	restore	24,ra,s0
7a022144:	e8a0      	jrc	ra
7a022146:	6d01      	li	a1,1
7a022148:	b210      	lw	v0,7a022188 <fsel_set_mode+0x68>
7a02214a:	ea40      	jalr	v0
7a02214c:	c3a0      	sb	a1,0(v1)
7a02214e:	b410      	lw	a0,7a02218c <fsel_set_mode+0x6c>
7a022150:	cc40      	sh	v0,0(a0)
7a022152:	1834 8829 	jal	7a0620a4 <fsel_init_shuffle>
7a022156:	6782      	move	a0,v0
7a022158:	b70f      	lw	a3,7a022194 <fsel_set_mode+0x74>
7a02215a:	b60e      	lw	a2,7a022190 <fsel_set_mode+0x70>
7a02215c:	af60      	lhu	v1,0(a3)
7a02215e:	6f0f      	li	a3,15
7a022160:	ce60      	sh	v1,0(a2)
7a022162:	b30e      	lw	v1,7a022198 <fsel_set_mode+0x78>
7a022164:	ef0c      	and	a3,s0
7a022166:	6a01      	li	v0,1
7a022168:	c3e1      	sb	a3,1(v1)
7a02216a:	6463      	restore	24,ra,s0
7a02216c:	e8a0      	jrc	ra
7a02216e:	b606      	lw	a2,7a022184 <fsel_set_mode+0x64>
7a022170:	6f0f      	li	a3,15
7a022172:	c660      	sb	v1,0(a2)
7a022174:	b309      	lw	v1,7a022198 <fsel_set_mode+0x78>
7a022176:	ef0c      	and	a3,s0
7a022178:	6a01      	li	v0,1
7a02217a:	c3e1      	sb	a3,1(v1)
7a02217c:	6463      	restore	24,ra,s0
7a02217e:	e8a0      	jrc	ra
7a022180:	976c      	lw	a3,432(sp)
7a022182:	9fc1      	lw	a2,4(a3)
7a022184:	976e      	lw	a3,440(sp)
7a022186:	9fc1      	lw	a2,4(a3)
7a022188:	20c5      	beqz	s0,7a022114 <fsel_get_fileno+0x14>
7a02218a:	7a02      	sd	s0,16(v0)
7a02218c:	9776      	lw	a3,472(sp)
7a02218e:	9fc1      	lw	a2,4(a3)
7a022190:	9858      	lw	v0,96(s0)
7a022192:	9fc1      	lw	a2,4(a3)
7a022194:	9774      	lw	a3,464(sp)
7a022196:	9fc1      	lw	a2,4(a3)
7a022198:	9764      	lw	a3,400(sp)
7a02219a:	9fc1      	lw	a2,4(a3)

7a02219c <fsel_set_location>:
7a02219c:	64c3      	save	24,ra
7a02219e:	b209      	lw	v0,7a0221c0 <fsel_set_location+0x24>
7a0221a0:	6b00      	li	v1,0
7a0221a2:	c260      	sb	v1,0(v0)
7a0221a4:	651c      	move	t8,a0
7a0221a6:	2408      	beqz	a0,7a0221b8 <fsel_set_location+0x1c>
7a0221a8:	b208      	lw	v0,7a0221c8 <fsel_set_location+0x2c>
7a0221aa:	b707      	lw	a3,7a0221c4 <fsel_set_location+0x28>
7a0221ac:	a260      	lbu	v1,0(v0)
7a0221ae:	3668      	sll	a2,v1,2
7a0221b0:	e6f5      	addu	a1,a2,a3
7a0221b2:	9d40      	lw	v0,0(a1)
7a0221b4:	eac0      	jalrc	v0
7a0221b6:	651a      	move	t8,v0
7a0221b8:	6758      	move	v0,t8
7a0221ba:	6443      	restore	24,ra
7a0221bc:	e8a0      	jrc	ra
7a0221be:	0000      	addiu	s0,sp,0
7a0221c0:	976c      	lw	a3,432(sp)
7a0221c2:	9fc1      	lw	a2,4(a3)
7a0221c4:	22f0      	beqz	v0,7a0221a6 <fsel_set_location+0xa>
7a0221c6:	7a02      	sd	s0,16(v0)
7a0221c8:	98b8      	lw	a1,96(s0)
7a0221ca:	9fc1      	lw	a2,4(a3)

7a0221cc <fsel_get_location>:
7a0221cc:	64c3      	save	24,ra
7a0221ce:	b30b      	lw	v1,7a0221f8 <fsel_get_location+0x2c>
7a0221d0:	b509      	lw	a1,7a0221f4 <fsel_get_location+0x28>
7a0221d2:	ab40      	lhu	v0,0(v1)
7a0221d4:	6e00      	li	a2,0
7a0221d6:	c5c0      	sb	a2,0(a1)
7a0221d8:	220a      	beqz	v0,7a0221ee <fsel_get_location+0x22>
7a0221da:	2409      	beqz	a0,7a0221ee <fsel_get_location+0x22>
7a0221dc:	b209      	lw	v0,7a022200 <fsel_get_location+0x34>
7a0221de:	b308      	lw	v1,7a0221fc <fsel_get_location+0x30>
7a0221e0:	a2c0      	lbu	a2,0(v0)
7a0221e2:	35c8      	sll	a1,a2,2
7a0221e4:	e57d      	addu	a3,a1,v1
7a0221e6:	9f40      	lw	v0,0(a3)
7a0221e8:	eac0      	jalrc	v0
7a0221ea:	6443      	restore	24,ra
7a0221ec:	e8a0      	jrc	ra
7a0221ee:	6a00      	li	v0,0
7a0221f0:	6443      	restore	24,ra
7a0221f2:	e8a0      	jrc	ra
7a0221f4:	976c      	lw	a3,432(sp)
7a0221f6:	9fc1      	lw	a2,4(a3)
7a0221f8:	9770      	lw	a3,448(sp)
7a0221fa:	9fc1      	lw	a2,4(a3)
7a0221fc:	22e8      	beqz	v0,7a0221ce <fsel_get_location+0x2>
7a0221fe:	7a02      	sd	s0,16(v0)
7a022200:	98b8      	lw	a1,96(s0)
7a022202:	9fc1      	lw	a2,4(a3)

7a022204 <fsel_get_nextdir>:
7a022204:	64c3      	save	24,ra
7a022206:	b209      	lw	v0,7a022228 <fsel_get_nextdir+0x24>
7a022208:	b506      	lw	a1,7a022220 <fsel_get_nextdir+0x1c>
7a02220a:	a2e0      	lbu	a3,0(v0)
7a02220c:	b306      	lw	v1,7a022224 <fsel_get_nextdir+0x20>
7a02220e:	6e00      	li	a2,0
7a022210:	c5c0      	sb	a2,0(a1)
7a022212:	36e8      	sll	a2,a3,2
7a022214:	e675      	addu	a1,a2,v1
7a022216:	9d40      	lw	v0,0(a1)
7a022218:	eac0      	jalrc	v0
7a02221a:	6443      	restore	24,ra
7a02221c:	e8a0      	jrc	ra
7a02221e:	0000      	addiu	s0,sp,0
7a022220:	976c      	lw	a3,432(sp)
7a022222:	9fc1      	lw	a2,4(a3)
7a022224:	22e0      	beqz	v0,7a0221e6 <fsel_get_location+0x1a>
7a022226:	7a02      	sd	s0,16(v0)
7a022228:	98b8      	lw	a1,96(s0)
7a02222a:	9fc1      	lw	a2,4(a3)

7a02222c <fsel_get_prevdir>:
7a02222c:	64c3      	save	24,ra
7a02222e:	b209      	lw	v0,7a022250 <fsel_get_prevdir+0x24>
7a022230:	b506      	lw	a1,7a022248 <fsel_get_prevdir+0x1c>
7a022232:	a2e0      	lbu	a3,0(v0)
7a022234:	b306      	lw	v1,7a02224c <fsel_get_prevdir+0x20>
7a022236:	6e00      	li	a2,0
7a022238:	c5c0      	sb	a2,0(a1)
7a02223a:	36e8      	sll	a2,a3,2
7a02223c:	e675      	addu	a1,a2,v1
7a02223e:	9d40      	lw	v0,0(a1)
7a022240:	eac0      	jalrc	v0
7a022242:	6443      	restore	24,ra
7a022244:	e8a0      	jrc	ra
7a022246:	0000      	addiu	s0,sp,0
7a022248:	976c      	lw	a3,432(sp)
7a02224a:	9fc1      	lw	a2,4(a3)
7a02224c:	22d8      	beqz	v0,7a0221fe <fsel_get_location+0x32>
7a02224e:	7a02      	sd	s0,16(v0)
7a022250:	98b8      	lw	a1,96(s0)
7a022252:	9fc1      	lw	a2,4(a3)

7a022254 <fsel_dir_get_location>:
7a022254:	64f5      	save	40,ra,s0-s1
7a022256:	b719      	lw	a3,7a0222b8 <fsel_dir_get_location+0x64>
7a022258:	b019      	lw	s0,7a0222bc <fsel_dir_get_location+0x68>
7a02225a:	6e02      	li	a2,2
7a02225c:	6724      	move	s1,a0
7a02225e:	b319      	lw	v1,7a0222c0 <fsel_dir_get_location+0x6c>
7a022260:	9f80      	lw	a0,0(a3)
7a022262:	d604      	sw	a2,16(sp)
7a022264:	6e00      	li	a2,0
7a022266:	67e6      	move	a3,a2
7a022268:	eb40      	jalr	v1
7a02226a:	67b0      	move	a1,s0
7a02226c:	9880      	lw	a0,0(s0)
7a02226e:	b513      	lw	a1,7a0222b8 <fsel_dir_get_location+0x64>
7a022270:	d981      	sw	a0,4(s1)
7a022272:	9d80      	lw	a0,0(a1)
7a022274:	6a03      	li	v0,3
7a022276:	b313      	lw	v1,7a0222c0 <fsel_dir_get_location+0x6c>
7a022278:	67b1      	move	a1,s1
7a02227a:	67d1      	move	a2,s1
7a02227c:	d204      	sw	v0,16(sp)
7a02227e:	4d10      	addiu	a1,16
7a022280:	4e08      	addiu	a2,8
7a022282:	eb40      	jalr	v1
7a022284:	6f00      	li	a3,0
7a022286:	ea11      	zeb	v0
7a022288:	6762      	move	v1,v0
7a02228a:	2212      	beqz	v0,7a0222b0 <fsel_dir_get_location+0x5c>
7a02228c:	b60e      	lw	a2,7a0222c4 <fsel_dir_get_location+0x70>
7a02228e:	b40f      	lw	a0,7a0222c8 <fsel_dir_get_location+0x74>
7a022290:	a662      	lbu	v1,2(a2)
7a022292:	b20f      	lw	v0,7a0222cc <fsel_dir_get_location+0x78>
7a022294:	c160      	sb	v1,0(s1)
7a022296:	a4a0      	lbu	a1,0(a0)
7a022298:	c1a1      	sb	a1,1(s1)
7a02229a:	aa40      	lhu	v0,0(v0)
7a02229c:	2a02      	bnez	v0,7a0222a2 <fsel_dir_get_location+0x4e>
7a02229e:	b70d      	lw	a3,7a0222d0 <fsel_dir_get_location+0x7c>
7a0222a0:	af40      	lhu	v0,0(a3)
7a0222a2:	b50d      	lw	a1,7a0222d4 <fsel_dir_get_location+0x80>
7a0222a4:	f040 c95c 	sh	v0,92(s1)
7a0222a8:	ad40      	lhu	v0,0(a1)
7a0222aa:	6b01      	li	v1,1
7a0222ac:	f040 c95e 	sh	v0,94(s1)
7a0222b0:	6743      	move	v0,v1
7a0222b2:	6475      	restore	40,ra,s0-s1
7a0222b4:	e8a0      	jrc	ra
7a0222b6:	0000      	addiu	s0,sp,0
7a0222b8:	958c      	lw	a1,560(sp)
7a0222ba:	9fc1      	lw	a2,4(a3)
7a0222bc:	9778      	lw	a3,480(sp)
7a0222be:	9fc1      	lw	a2,4(a3)
7a0222c0:	6015      	bteqz	7a0222ec <fsel_get_location_array+0x4>
7a0222c2:	bfc2      	lwu	a2,8(a3)
7a0222c4:	9764      	lw	a3,400(sp)
7a0222c6:	9fc1      	lw	a2,4(a3)
7a0222c8:	976d      	lw	a3,436(sp)
7a0222ca:	9fc1      	lw	a2,4(a3)
7a0222cc:	9776      	lw	a3,472(sp)
7a0222ce:	9fc1      	lw	a2,4(a3)
7a0222d0:	9772      	lw	a3,456(sp)
7a0222d2:	9fc1      	lw	a2,4(a3)
7a0222d4:	9774      	lw	a3,464(sp)
7a0222d6:	9fc1      	lw	a2,4(a3)

7a0222d8 <fsel_get_prevdir_array>:
7a0222d8:	8d2d 7b06 8a1d 7b1a                         -..{...{

7a0222e0 <fsel_get_nextdir_array>:
7a0222e0:	8d8d 7b02 8a01 7b1a                         ...{...{

7a0222e8 <fsel_get_location_array>:
7a0222e8:	2255 7a02 8b09 7b12                         U".z...{

7a0222f0 <fsel_set_location_array>:
7a0222f0:	2301 7a0e 8bb1 7b12                         .#.z...{

7a0222f8 <fsel_get_total_array>:
7a0222f8:	1ff9 7a0e 8a39 7b1a                         ...z9..{

7a022300 <fsel_get_byno_array>:
7a022300:	20c1 7a0e 8a45 7b12                         . .zE..{

7a022308 <fsel_get_prev_array>:
7a022308:	8c41 7b06 8d8d 7b16                         A..{...{

7a022310 <fsel_get_next_array>:
7a022310:	8ced 7b02 8c31 7b16                         ...{1..{
Disassembly of section BANK_ENHANCED_1_1:

7a061e00 <init_member_map>:
7a061e00:	b314      	lw	v1,7a061e50 <init_member_map+0x50>
7a061e02:	6c00      	li	a0,0
7a061e04:	a3e0      	lbu	a3,0(v1)
7a061e06:	6747      	move	v0,a3
7a061e08:	ea11      	zeb	v0
7a061e0a:	324e      	srl	v0,3
7a061e0c:	220b      	beqz	v0,7a061e24 <init_member_map+0x24>
7a061e0e:	b612      	lw	a2,7a061e54 <init_member_map+0x54>
7a061e10:	6d01      	li	a1,1
7a061e12:	edab      	neg	a1
7a061e14:	6762      	move	v1,v0
7a061e16:	e4c9      	addu	v0,a0,a2
7a061e18:	c2a0      	sb	a1,0(v0)
7a061e1a:	4441      	addiu	v0,a0,1
7a061e1c:	6782      	move	a0,v0
7a061e1e:	ec11      	zeb	a0
7a061e20:	ec63      	sltu	a0,v1
7a061e22:	61f9      	btnez	7a061e16 <init_member_map+0x16>
7a061e24:	b20e      	lw	v0,7a061e5c <init_member_map+0x5c>
7a061e26:	b60d      	lw	a2,7a061e58 <init_member_map+0x58>
7a061e28:	a260      	lbu	v1,0(v0)
7a061e2a:	b20e      	lw	v0,7a061e60 <init_member_map+0x60>
7a061e2c:	6d07      	li	a1,7
7a061e2e:	a240      	lbu	v0,0(v0)
7a061e30:	edec      	and	a1,a3
7a061e32:	eb43      	sltu	v1,v0
7a061e34:	c6e0      	sb	a3,0(a2)
7a061e36:	6003      	bteqz	7a061e3e <init_member_map+0x3e>
7a061e38:	4761      	addiu	v1,a3,1
7a061e3a:	45a1      	addiu	a1,a1,1
7a061e3c:	c660      	sb	v1,0(a2)
7a061e3e:	2507      	beqz	a1,7a061e4e <init_member_map+0x4e>
7a061e40:	b309      	lw	v1,7a061e64 <init_member_map+0x64>
7a061e42:	b205      	lw	v0,7a061e54 <init_member_map+0x54>
7a061e44:	e57d      	addu	a3,a1,v1
7a061e46:	e459      	addu	a2,a0,v0
7a061e48:	f7ff a79f 	lbu	a0,-1(a3)
7a061e4c:	c680      	sb	a0,0(a2)
7a061e4e:	e8a0      	jrc	ra
7a061e50:	9850      	lw	v0,64(s0)
7a061e52:	9fc1      	lw	a2,4(a3)
7a061e54:	9830      	lw	s1,64(s0)
7a061e56:	9fc1      	lw	a2,4(a3)
7a061e58:	9853      	lw	v0,76(s0)
7a061e5a:	9fc1      	lw	a2,4(a3)
7a061e5c:	9855      	lw	v0,84(s0)
7a061e5e:	9fc1      	lw	a2,4(a3)
7a061e60:	9851      	lw	v0,68(s0)
7a061e62:	9fc1      	lw	a2,4(a3)
7a061e64:	234c      	beqz	v1,7a061efe <get_group_num+0x16>
7a061e66:	7a06      	sd	s0,48(v0)

7a061e68 <set_bitmap_bit>:
7a061e68:	45ef      	addiu	a3,a1,-1
7a061e6a:	ef31      	zeh	a3
7a061e6c:	32ee      	srl	v0,a3,3
7a061e6e:	ea11      	zeb	v0
7a061e70:	6e07      	li	a2,7
7a061e72:	b309      	lw	v1,7a061e94 <set_bitmap_bit+0x2c>
7a061e74:	efcc      	and	a3,a2
7a061e76:	e299      	addu	a2,v0,a0
7a061e78:	e775      	addu	a1,a3,v1
7a061e7a:	a660      	lbu	v1,0(a2)
7a061e7c:	a5a0      	lbu	a1,0(a1)
7a061e7e:	6743      	move	v0,v1
7a061e80:	eaac      	and	v0,a1
7a061e82:	6782      	move	a0,v0
7a061e84:	2204      	beqz	v0,7a061e8e <set_bitmap_bit+0x26>
7a061e86:	ecaf      	not	a0,a1
7a061e88:	eb8c      	and	v1,a0
7a061e8a:	c660      	sb	v1,0(a2)
7a061e8c:	6c01      	li	a0,1
7a061e8e:	e820      	jr	ra
7a061e90:	6744      	move	v0,a0
7a061e92:	0000      	addiu	s0,sp,0
7a061e94:	2344      	beqz	v1,7a061f1e <get_group_num+0x36>
7a061e96:	7a06      	sd	s0,48(v0)

7a061e98 <get_bitmap_bit>:
7a061e98:	f004 64f4 	save	a0,32,ra,s0-s1
7a061e9c:	6745      	move	v0,a1
7a061e9e:	6d01      	li	a1,1
7a061ea0:	eeac      	and	a2,a1
7a061ea2:	eea2      	slt	a2,a1
7a061ea4:	ea11      	zeb	v0
7a061ea6:	6111      	btnez	7a061eca <get_bitmap_bit+0x32>
7a061ea8:	6705      	move	s0,a1
7a061eaa:	4221      	addiu	s1,v0,1
7a061eac:	e822      	slt	s0,s1
7a061eae:	600a      	bteqz	7a061ec4 <get_bitmap_bit+0x2c>
7a061eb0:	9408      	lw	a0,32(sp)
7a061eb2:	1834 879a 	jal	7a061e68 <set_bitmap_bit>
7a061eb6:	67b0      	move	a1,s0
7a061eb8:	2a13      	bnez	v0,7a061ee0 <get_bitmap_bit+0x48>
7a061eba:	4041      	addiu	v0,s0,1
7a061ebc:	6702      	move	s0,v0
7a061ebe:	e831      	zeh	s0
7a061ec0:	e822      	slt	s0,s1
7a061ec2:	61f6      	btnez	7a061eb0 <get_bitmap_bit+0x18>
7a061ec4:	6a00      	li	v0,0
7a061ec6:	6474      	restore	32,ra,s0-s1
7a061ec8:	e8a0      	jrc	ra
7a061eca:	6702      	move	s0,v0
7a061ecc:	20fb      	beqz	s0,7a061ec4 <get_bitmap_bit+0x2c>
7a061ece:	9408      	lw	a0,32(sp)
7a061ed0:	1834 879a 	jal	7a061e68 <set_bitmap_bit>
7a061ed4:	67b0      	move	a1,s0
7a061ed6:	2a04      	bnez	v0,7a061ee0 <get_bitmap_bit+0x48>
7a061ed8:	406f      	addiu	v1,s0,-1
7a061eda:	6703      	move	s0,v1
7a061edc:	e831      	zeh	s0
7a061ede:	17f6      	b	7a061ecc <get_bitmap_bit+0x34>
7a061ee0:	6750      	move	v0,s0
7a061ee2:	6474      	restore	32,ra,s0-s1
7a061ee4:	e8a0      	jrc	ra
	...

7a061ee8 <get_group_num>:
7a061ee8:	64f5      	save	40,ra,s0-s1
7a061eea:	b214      	lw	v0,7a061f38 <get_group_num+0x50>
7a061eec:	6b03      	li	v1,3
7a061eee:	a200      	lbu	s0,0(v0)
7a061ef0:	d304      	sw	v1,16(sp)
7a061ef2:	6a01      	li	v0,1
7a061ef4:	2802      	bnez	s0,7a061efa <get_group_num+0x12>
7a061ef6:	6475      	restore	40,ra,s0-s1
7a061ef8:	e8a0      	jrc	ra
7a061efa:	9604      	lw	a2,16(sp)
7a061efc:	6c00      	li	a0,0
7a061efe:	46af      	addiu	a1,a2,-1
7a061f00:	ed11      	zeb	a1
7a061f02:	b10f      	lw	s1,7a061f3c <get_group_num+0x54>
7a061f04:	d504      	sw	a1,16(sp)
7a061f06:	67c4      	move	a2,a0
7a061f08:	67a4      	move	a1,a0
7a061f0a:	e940      	jalr	s1
7a061f0c:	6f35      	li	a3,53
7a061f0e:	ea1b      	divu	zero,v0,s0
7a061f10:	ec10      	mfhi	a0
7a061f12:	4421      	addiu	s1,a0,1
7a061f14:	b40b      	lw	a0,7a061f40 <get_group_num+0x58>
7a061f16:	1834 879a 	jal	7a061e68 <set_bitmap_bit>
7a061f1a:	67b1      	move	a1,s1
7a061f1c:	2a0a      	bnez	v0,7a061f32 <get_group_num+0x4a>
7a061f1e:	9704      	lw	a3,16(sp)
7a061f20:	2fec      	bnez	a3,7a061efa <get_group_num+0x12>
7a061f22:	b206      	lw	v0,7a061f38 <get_group_num+0x50>
7a061f24:	b407      	lw	a0,7a061f40 <get_group_num+0x58>
7a061f26:	a2a0      	lbu	a1,0(v0)
7a061f28:	1834 87a6 	jal	7a061e98 <get_bitmap_bit>
7a061f2c:	67d1      	move	a2,s1
7a061f2e:	6475      	restore	40,ra,s0-s1
7a061f30:	e8a0      	jrc	ra
7a061f32:	6751      	move	v0,s1
7a061f34:	6475      	restore	40,ra,s0-s1
7a061f36:	e8a0      	jrc	ra
7a061f38:	9852      	lw	v0,72(s0)
7a061f3a:	9fc1      	lw	a2,4(a3)
7a061f3c:	6011      	bteqz	7a061f60 <get_member_num+0x1c>
7a061f3e:	bfc2      	lwu	a2,8(a3)
7a061f40:	9828      	lw	s1,32(s0)
7a061f42:	9fc1      	lw	a2,4(a3)

7a061f44 <get_member_num>:
7a061f44:	64f5      	save	40,ra,s0-s1
7a061f46:	b219      	lw	v0,7a061fa8 <get_member_num+0x64>
7a061f48:	6b03      	li	v1,3
7a061f4a:	d304      	sw	v1,16(sp)
7a061f4c:	a260      	lbu	v1,0(v0)
7a061f4e:	6a01      	li	v0,1
7a061f50:	2323      	beqz	v1,7a061f98 <get_member_num+0x54>
7a061f52:	b717      	lw	a3,7a061fac <get_member_num+0x68>
7a061f54:	b617      	lw	a2,7a061fb0 <get_member_num+0x6c>
7a061f56:	a7a0      	lbu	a1,0(a3)
7a061f58:	a680      	lbu	a0,0(a2)
7a061f5a:	6723      	move	s1,v1
7a061f5c:	ed83      	sltu	a1,a0
7a061f5e:	611e      	btnez	7a061f9c <get_member_num+0x58>
7a061f60:	9304      	lw	v1,16(sp)
7a061f62:	b215      	lw	v0,7a061fb4 <get_member_num+0x70>
7a061f64:	438f      	addiu	a0,v1,-1
7a061f66:	ec11      	zeb	a0
7a061f68:	d404      	sw	a0,16(sp)
7a061f6a:	6c00      	li	a0,0
7a061f6c:	67a4      	move	a1,a0
7a061f6e:	67c4      	move	a2,a0
7a061f70:	ea40      	jalr	v0
7a061f72:	6f35      	li	a3,53
7a061f74:	ea3b      	divu	zero,v0,s1
7a061f76:	b411      	lw	a0,7a061fb8 <get_member_num+0x74>
7a061f78:	e810      	mfhi	s0
7a061f7a:	4041      	addiu	v0,s0,1
7a061f7c:	6702      	move	s0,v0
7a061f7e:	e811      	zeb	s0
7a061f80:	1834 879a 	jal	7a061e68 <set_bitmap_bit>
7a061f84:	67b0      	move	a1,s0
7a061f86:	2a0c      	bnez	v0,7a061fa0 <get_member_num+0x5c>
7a061f88:	9504      	lw	a1,16(sp)
7a061f8a:	2dea      	bnez	a1,7a061f60 <get_member_num+0x1c>
7a061f8c:	b607      	lw	a2,7a061fa8 <get_member_num+0x64>
7a061f8e:	b40b      	lw	a0,7a061fb8 <get_member_num+0x74>
7a061f90:	a6a0      	lbu	a1,0(a2)
7a061f92:	1834 87a6 	jal	7a061e98 <get_bitmap_bit>
7a061f96:	67d0      	move	a2,s0
7a061f98:	6475      	restore	40,ra,s0-s1
7a061f9a:	e8a0      	jrc	ra
7a061f9c:	4321      	addiu	s1,v1,1
7a061f9e:	17e0      	b	7a061f60 <get_member_num+0x1c>
7a061fa0:	6750      	move	v0,s0
7a061fa2:	6475      	restore	40,ra,s0-s1
7a061fa4:	e8a0      	jrc	ra
7a061fa6:	0000      	addiu	s0,sp,0
7a061fa8:	9853      	lw	v0,76(s0)
7a061faa:	9fc1      	lw	a2,4(a3)
7a061fac:	9855      	lw	v0,84(s0)
7a061fae:	9fc1      	lw	a2,4(a3)
7a061fb0:	9851      	lw	v0,68(s0)
7a061fb2:	9fc1      	lw	a2,4(a3)
7a061fb4:	6011      	bteqz	7a061fd8 <get_nextlist_num+0x1c>
7a061fb6:	bfc2      	lwu	a2,8(a3)
7a061fb8:	9830      	lw	s1,64(s0)
7a061fba:	9fc1      	lw	a2,4(a3)

7a061fbc <get_nextlist_num>:
7a061fbc:	b30e      	lw	v1,7a061ff4 <get_nextlist_num+0x38>
7a061fbe:	a340      	lbu	v0,0(v1)
7a061fc0:	5a0f      	sltiu	v0,15
7a061fc2:	6113      	btnez	7a061fea <get_nextlist_num+0x2e>
7a061fc4:	6c00      	li	a0,0
7a061fc6:	c380      	sb	a0,0(v1)
7a061fc8:	b30c      	lw	v1,7a061ff8 <get_nextlist_num+0x3c>
7a061fca:	a340      	lbu	v0,0(v1)
7a061fcc:	5a10      	sltiu	v0,16
7a061fce:	6002      	bteqz	7a061fd4 <get_nextlist_num+0x18>
7a061fd0:	42a1      	addiu	a1,v0,1
7a061fd2:	c3a0      	sb	a1,0(v1)
7a061fd4:	b50a      	lw	a1,7a061ffc <get_nextlist_num+0x40>
7a061fd6:	67e4      	move	a3,a0
7a061fd8:	a5c0      	lbu	a2,0(a1)
7a061fda:	ef11      	zeb	a3
7a061fdc:	b309      	lw	v1,7a062000 <get_nextlist_num+0x44>
7a061fde:	464f      	addiu	v0,a2,-1
7a061fe0:	36e4      	sll	a2,a3,1
7a061fe2:	e671      	addu	a0,a2,v1
7a061fe4:	c540      	sb	v0,0(a1)
7a061fe6:	e820      	jr	ra
7a061fe8:	ac40      	lhu	v0,0(a0)
7a061fea:	4241      	addiu	v0,v0,1
7a061fec:	6782      	move	a0,v0
7a061fee:	c340      	sb	v0,0(v1)
7a061ff0:	17eb      	b	7a061fc8 <get_nextlist_num+0xc>
7a061ff2:	0000      	addiu	s0,sp,0
7a061ff4:	987c      	lw	v1,112(s0)
7a061ff6:	9fc1      	lw	a2,4(a3)
7a061ff8:	987d      	lw	v1,116(s0)
7a061ffa:	9fc1      	lw	a2,4(a3)
7a061ffc:	987e      	lw	v1,120(s0)
7a061ffe:	9fc1      	lw	a2,4(a3)
7a062000:	985c      	lw	v0,112(s0)
7a062002:	9fc1      	lw	a2,4(a3)

7a062004 <get_shuffle_num>:
7a062004:	64e3      	save	24,ra,s0
7a062006:	b324      	lw	v1,7a062094 <get_shuffle_num+0x90>
7a062008:	a340      	lbu	v0,0(v1)
7a06200a:	223a      	beqz	v0,7a062080 <get_shuffle_num+0x7c>
7a06200c:	b023      	lw	s0,7a062098 <get_shuffle_num+0x94>
7a06200e:	a0a0      	lbu	a1,0(s0)
7a062010:	2511      	beqz	a1,7a062034 <get_shuffle_num+0x30>
7a062012:	1834 87d1 	jal	7a061f44 <get_member_num>
7a062016:	6500      	nop
7a062018:	b021      	lw	s0,7a06209c <get_shuffle_num+0x98>
7a06201a:	c840      	sh	v0,0(s0)
7a06201c:	221b      	beqz	v0,7a062054 <get_shuffle_num+0x50>
7a06201e:	b61f      	lw	a2,7a062098 <get_shuffle_num+0x94>
7a062020:	a8e0      	lhu	a3,0(s0)
7a062022:	a660      	lbu	v1,0(a2)
7a062024:	35f8      	sll	a1,a3,6
7a062026:	e571      	addu	a0,a1,v1
7a062028:	4cc0      	addiu	a0,-64
7a06202a:	6764      	move	v1,a0
7a06202c:	eb31      	zeh	v1
7a06202e:	6743      	move	v0,v1
7a062030:	6463      	restore	24,ra,s0
7a062032:	e8a0      	jrc	ra
7a062034:	1834 87ba 	jal	7a061ee8 <get_group_num>
7a062038:	6500      	nop
7a06203a:	c040      	sb	v0,0(s0)
7a06203c:	ea11      	zeb	v0
7a06203e:	6762      	move	v1,v0
7a062040:	22f6      	beqz	v0,7a06202e <get_shuffle_num+0x2a>
7a062042:	1834 8780 	jal	7a061e00 <init_member_map>
7a062046:	6500      	nop
7a062048:	1834 87d1 	jal	7a061f44 <get_member_num>
7a06204c:	6500      	nop
7a06204e:	b014      	lw	s0,7a06209c <get_shuffle_num+0x98>
7a062050:	c840      	sh	v0,0(s0)
7a062052:	2ae5      	bnez	v0,7a06201e <get_shuffle_num+0x1a>
7a062054:	1834 87ba 	jal	7a061ee8 <get_group_num>
7a062058:	6500      	nop
7a06205a:	b610      	lw	a2,7a062098 <get_shuffle_num+0x94>
7a06205c:	c640      	sb	v0,0(a2)
7a06205e:	ea11      	zeb	v0
7a062060:	6762      	move	v1,v0
7a062062:	22e5      	beqz	v0,7a06202e <get_shuffle_num+0x2a>
7a062064:	1834 8780 	jal	7a061e00 <init_member_map>
7a062068:	6500      	nop
7a06206a:	1834 87d1 	jal	7a061f44 <get_member_num>
7a06206e:	6500      	nop
7a062070:	c840      	sh	v0,0(s0)
7a062072:	6782      	move	a0,v0
7a062074:	2ad4      	bnez	v0,7a06201e <get_shuffle_num+0x1a>
7a062076:	b70b      	lw	a3,7a0620a0 <get_shuffle_num+0x9c>
7a062078:	6a0e      	li	v0,14
7a06207a:	6764      	move	v1,a0
7a06207c:	c740      	sb	v0,0(a3)
7a06207e:	17d7      	b	7a06202e <get_shuffle_num+0x2a>
7a062080:	1834 87ba 	jal	7a061ee8 <get_group_num>
7a062084:	6500      	nop
7a062086:	6762      	move	v1,v0
7a062088:	b404      	lw	a0,7a062098 <get_shuffle_num+0x94>
7a06208a:	eb11      	zeb	v1
7a06208c:	c440      	sb	v0,0(a0)
7a06208e:	6743      	move	v0,v1
7a062090:	6463      	restore	24,ra,s0
7a062092:	e8a0      	jrc	ra
7a062094:	9854      	lw	v0,80(s0)
7a062096:	9fc1      	lw	a2,4(a3)
7a062098:	9855      	lw	v0,84(s0)
7a06209a:	9fc1      	lw	a2,4(a3)
7a06209c:	9856      	lw	v0,88(s0)
7a06209e:	9fc1      	lw	a2,4(a3)
7a0620a0:	976c      	lw	a3,432(sp)
7a0620a2:	9fc1      	lw	a2,4(a3)

7a0620a4 <fsel_init_shuffle>:
7a0620a4:	64f4      	save	32,ra,s0-s1
7a0620a6:	6704      	move	s0,a0
7a0620a8:	b22f      	lw	v0,7a062164 <fsel_init_shuffle+0xc0>
7a0620aa:	e831      	zeh	s0
7a0620ac:	6900      	li	s1,0
7a0620ae:	ca20      	sh	s1,0(v0)
7a0620b0:	6750      	move	v0,s0
7a0620b2:	2802      	bnez	s0,7a0620b8 <fsel_init_shuffle+0x14>
7a0620b4:	6474      	restore	32,ra,s0-s1
7a0620b6:	e8a0      	jrc	ra
7a0620b8:	b42c      	lw	a0,7a062164 <fsel_init_shuffle+0xc0>
7a0620ba:	b32d      	lw	v1,7a06216c <fsel_init_shuffle+0xc8>
7a0620bc:	6d00      	li	a1,0
7a0620be:	6e08      	li	a2,8
7a0620c0:	eb40      	jalr	v1
7a0620c2:	6f01      	li	a3,1
7a0620c4:	b42b      	lw	a0,7a062170 <fsel_init_shuffle+0xcc>
7a0620c6:	b32a      	lw	v1,7a06216c <fsel_init_shuffle+0xc8>
7a0620c8:	6d00      	li	a1,0
7a0620ca:	6e20      	li	a2,32
7a0620cc:	eb40      	jalr	v1
7a0620ce:	6f01      	li	a3,1
7a0620d0:	b52a      	lw	a1,7a062178 <fsel_init_shuffle+0xd4>
7a0620d2:	b42b      	lw	a0,7a06217c <fsel_init_shuffle+0xd8>
7a0620d4:	b22b      	lw	v0,7a062180 <fsel_init_shuffle+0xdc>
7a0620d6:	6b10      	li	v1,16
7a0620d8:	c520      	sb	s1,0(a1)
7a0620da:	cc20      	sh	s1,0(a0)
7a0620dc:	b72a      	lw	a3,7a062184 <fsel_init_shuffle+0xe0>
7a0620de:	b62b      	lw	a2,7a062188 <fsel_init_shuffle+0xe4>
7a0620e0:	b52b      	lw	a1,7a06218c <fsel_init_shuffle+0xe8>
7a0620e2:	b42c      	lw	a0,7a062190 <fsel_init_shuffle+0xec>
7a0620e4:	c260      	sb	v1,0(v0)
7a0620e6:	5841      	sltiu	s0,65
7a0620e8:	6b01      	li	v1,1
7a0620ea:	c760      	sb	v1,0(a3)
7a0620ec:	c660      	sb	v1,0(a2)
7a0620ee:	c520      	sb	s1,0(a1)
7a0620f0:	cc00      	sh	s0,0(a0)
7a0620f2:	602c      	bteqz	7a06214c <fsel_init_shuffle+0xa8>
7a0620f4:	b520      	lw	a1,7a062174 <fsel_init_shuffle+0xd0>
7a0620f6:	b428      	lw	a0,7a062194 <fsel_init_shuffle+0xf0>
7a0620f8:	330e      	srl	v1,s0,3
7a0620fa:	c520      	sb	s1,0(a1)
7a0620fc:	c400      	sb	s0,0(a0)
7a0620fe:	6d00      	li	a1,0
7a062100:	230a      	beqz	v1,7a062116 <fsel_init_shuffle+0x72>
7a062102:	b41a      	lw	a0,7a062168 <fsel_init_shuffle+0xc4>
7a062104:	6e01      	li	a2,1
7a062106:	eecb      	neg	a2
7a062108:	45e1      	addiu	a3,a1,1
7a06210a:	e589      	addu	v0,a1,a0
7a06210c:	67a7      	move	a1,a3
7a06210e:	ed11      	zeb	a1
7a062110:	ed63      	sltu	a1,v1
7a062112:	c2c0      	sb	a2,0(v0)
7a062114:	61f9      	btnez	7a062108 <fsel_init_shuffle+0x64>
7a062116:	6a07      	li	v0,7
7a062118:	6770      	move	v1,s0
7a06211a:	eb4c      	and	v1,v0
7a06211c:	2309      	beqz	v1,7a062130 <fsel_init_shuffle+0x8c>
7a06211e:	ed4c      	and	a1,v0
7a062120:	43ef      	addiu	a3,v1,-1
7a062122:	b21e      	lw	v0,7a062198 <fsel_init_shuffle+0xf4>
7a062124:	ef11      	zeb	a3
7a062126:	b411      	lw	a0,7a062168 <fsel_init_shuffle+0xc4>
7a062128:	e74d      	addu	v1,a3,v0
7a06212a:	e599      	addu	a2,a1,a0
7a06212c:	a3a0      	lbu	a1,0(v1)
7a06212e:	c6a0      	sb	a1,0(a2)
7a062130:	b511      	lw	a1,7a062174 <fsel_init_shuffle+0xd0>
7a062132:	a5c0      	lbu	a2,0(a1)
7a062134:	2608      	beqz	a2,7a062146 <fsel_init_shuffle+0xa2>
7a062136:	6a3f      	li	v0,63
7a062138:	b419      	lw	a0,7a06219c <fsel_init_shuffle+0xf8>
7a06213a:	ea0c      	and	v0,s0
7a06213c:	b319      	lw	v1,7a0621a0 <fsel_init_shuffle+0xfc>
7a06213e:	361a      	srl	a2,s0,6
7a062140:	42e1      	addiu	a3,v0,1
7a062142:	c4c0      	sb	a2,0(a0)
7a062144:	c3e0      	sb	a3,0(v1)
7a062146:	6a01      	li	v0,1
7a062148:	6474      	restore	32,ra,s0-s1
7a06214a:	e8a0      	jrc	ra
7a06214c:	b20a      	lw	v0,7a062170 <fsel_init_shuffle+0xcc>
7a06214e:	b407      	lw	a0,7a062168 <fsel_init_shuffle+0xc4>
7a062150:	c260      	sb	v1,0(v0)
7a062152:	b307      	lw	v1,7a06216c <fsel_init_shuffle+0xc8>
7a062154:	6e08      	li	a2,8
7a062156:	6f01      	li	a3,1
7a062158:	eb40      	jalr	v1
7a06215a:	6dff      	li	a1,255
7a06215c:	b60e      	lw	a2,7a062194 <fsel_init_shuffle+0xf0>
7a06215e:	6f40      	li	a3,64
7a062160:	c6e0      	sb	a3,0(a2)
7a062162:	17e6      	b	7a062130 <fsel_init_shuffle+0x8c>
7a062164:	9858      	lw	v0,96(s0)
7a062166:	9fc1      	lw	a2,4(a3)
7a062168:	9828      	lw	s1,32(s0)
7a06216a:	9fc1      	lw	a2,4(a3)
7a06216c:	6009      	bteqz	7a062180 <fsel_init_shuffle+0xdc>
7a06216e:	bfc2      	lwu	a2,8(a3)
7a062170:	9830      	lw	s1,64(s0)
7a062172:	9fc1      	lw	a2,4(a3)
7a062174:	9854      	lw	v0,80(s0)
7a062176:	9fc1      	lw	a2,4(a3)
7a062178:	9855      	lw	v0,84(s0)
7a06217a:	9fc1      	lw	a2,4(a3)
7a06217c:	9856      	lw	v0,88(s0)
7a06217e:	9fc1      	lw	a2,4(a3)
7a062180:	987c      	lw	v1,112(s0)
7a062182:	9fc1      	lw	a2,4(a3)
7a062184:	987d      	lw	v1,116(s0)
7a062186:	9fc1      	lw	a2,4(a3)
7a062188:	987e      	lw	v1,120(s0)
7a06218a:	9fc1      	lw	a2,4(a3)
7a06218c:	987f      	lw	v1,124(s0)
7a06218e:	9fc1      	lw	a2,4(a3)
7a062190:	9824      	lw	s1,16(s0)
7a062192:	9fc1      	lw	a2,4(a3)
7a062194:	9852      	lw	v0,72(s0)
7a062196:	9fc1      	lw	a2,4(a3)
7a062198:	234c      	beqz	v1,7a062232 <fsel_shuffle_next_file+0x8e>
7a06219a:	7a06      	sd	s0,48(v0)
7a06219c:	9850      	lw	v0,64(s0)
7a06219e:	9fc1      	lw	a2,4(a3)
7a0621a0:	9851      	lw	v0,68(s0)
7a0621a2:	9fc1      	lw	a2,4(a3)

7a0621a4 <fsel_shuffle_next_file>:
7a0621a4:	64f4      	save	32,ra,s0-s1
7a0621a6:	b428      	lw	a0,7a062244 <fsel_shuffle_next_file+0xa0>
7a0621a8:	b026      	lw	s0,7a062240 <fsel_shuffle_next_file+0x9c>
7a0621aa:	ac60      	lhu	v1,0(a0)
7a0621ac:	a840      	lhu	v0,0(s0)
7a0621ae:	6783      	move	a0,v1
7a0621b0:	ec31      	zeh	a0
7a0621b2:	ea83      	sltu	v0,a0
7a0621b4:	613a      	btnez	7a06222a <fsel_shuffle_next_file+0x86>
7a0621b6:	c860      	sh	v1,0(s0)
7a0621b8:	a860      	lhu	v1,0(s0)
7a0621ba:	651b      	move	t8,v1
7a0621bc:	2333      	beqz	v1,7a062224 <fsel_shuffle_next_file+0x80>
7a0621be:	b323      	lw	v1,7a062248 <fsel_shuffle_next_file+0xa4>
7a0621c0:	a3a0      	lbu	a1,0(v1)
7a0621c2:	5d02      	sltiu	a1,2
7a0621c4:	610e      	btnez	7a0621e2 <fsel_shuffle_next_file+0x3e>
7a0621c6:	6703      	move	s0,v1
7a0621c8:	1834 87ef 	jal	7a061fbc <get_nextlist_num>
7a0621cc:	6500      	nop
7a0621ce:	b71d      	lw	a3,7a062240 <fsel_shuffle_next_file+0x9c>
7a0621d0:	afc0      	lhu	a2,0(a3)
7a0621d2:	ee43      	sltu	a2,v0
7a0621d4:	602e      	bteqz	7a062232 <fsel_shuffle_next_file+0x8e>
7a0621d6:	a080      	lbu	a0,0(s0)
7a0621d8:	444f      	addiu	v0,a0,-1
7a0621da:	c040      	sb	v0,0(s0)
7a0621dc:	ea11      	zeb	v0
7a0621de:	5a02      	sltiu	v0,2
7a0621e0:	60f3      	bteqz	7a0621c8 <fsel_shuffle_next_file+0x24>
7a0621e2:	b01b      	lw	s0,7a06224c <fsel_shuffle_next_file+0xa8>
7a0621e4:	b117      	lw	s1,7a062240 <fsel_shuffle_next_file+0x9c>
7a0621e6:	1834 8801 	jal	7a062004 <get_shuffle_num>
7a0621ea:	6500      	nop
7a0621ec:	6782      	move	a0,v0
7a0621ee:	2219      	beqz	v0,7a062222 <fsel_shuffle_next_file+0x7e>
7a0621f0:	a860      	lhu	v1,0(s0)
7a0621f2:	eb4e      	xor	v1,v0
7a0621f4:	23f8      	beqz	v1,7a0621e6 <fsel_shuffle_next_file+0x42>
7a0621f6:	a9a0      	lhu	a1,0(s1)
7a0621f8:	ed43      	sltu	a1,v0
7a0621fa:	61f5      	btnez	7a0621e6 <fsel_shuffle_next_file+0x42>
7a0621fc:	b315      	lw	v1,7a062250 <fsel_shuffle_next_file+0xac>
7a0621fe:	a340      	lbu	v0,0(v1)
7a062200:	5a0f      	sltiu	v0,15
7a062202:	601a      	bteqz	7a062238 <fsel_shuffle_next_file+0x94>
7a062204:	42c1      	addiu	a2,v0,1
7a062206:	c3c0      	sb	a2,0(v1)
7a062208:	67a6      	move	a1,a2
7a06220a:	b313      	lw	v1,7a062254 <fsel_shuffle_next_file+0xb0>
7a06220c:	a340      	lbu	v0,0(v1)
7a06220e:	5a10      	sltiu	v0,16
7a062210:	6002      	bteqz	7a062216 <fsel_shuffle_next_file+0x72>
7a062212:	42e1      	addiu	a3,v0,1
7a062214:	c3e0      	sb	a3,0(v1)
7a062216:	67c5      	move	a2,a1
7a062218:	ee11      	zeb	a2
7a06221a:	b310      	lw	v1,7a062258 <fsel_shuffle_next_file+0xb4>
7a06221c:	35c4      	sll	a1,a2,1
7a06221e:	e569      	addu	v0,a1,v1
7a062220:	ca80      	sh	a0,0(v0)
7a062222:	651c      	move	t8,a0
7a062224:	6758      	move	v0,t8
7a062226:	6474      	restore	32,ra,s0-s1
7a062228:	e8a0      	jrc	ra
7a06222a:	1834 8829 	jal	7a0620a4 <fsel_init_shuffle>
7a06222e:	6500      	nop
7a062230:	17c3      	b	7a0621b8 <fsel_shuffle_next_file+0x14>
7a062232:	651a      	move	t8,v0
7a062234:	2af7      	bnez	v0,7a062224 <fsel_shuffle_next_file+0x80>
7a062236:	17d5      	b	7a0621e2 <fsel_shuffle_next_file+0x3e>
7a062238:	6d00      	li	a1,0
7a06223a:	c3a0      	sb	a1,0(v1)
7a06223c:	17e6      	b	7a06220a <fsel_shuffle_next_file+0x66>
7a06223e:	0000      	addiu	s0,sp,0
7a062240:	9824      	lw	s1,16(s0)
7a062242:	9fc1      	lw	a2,4(a3)
7a062244:	9776      	lw	a3,472(sp)
7a062246:	9fc1      	lw	a2,4(a3)
7a062248:	987e      	lw	v1,120(s0)
7a06224a:	9fc1      	lw	a2,4(a3)
7a06224c:	9858      	lw	v0,96(s0)
7a06224e:	9fc1      	lw	a2,4(a3)
7a062250:	987c      	lw	v1,112(s0)
7a062252:	9fc1      	lw	a2,4(a3)
7a062254:	987d      	lw	v1,116(s0)
7a062256:	9fc1      	lw	a2,4(a3)
7a062258:	985c      	lw	v0,112(s0)
7a06225a:	9fc1      	lw	a2,4(a3)

7a06225c <fsel_shuffle_prev_file>:
7a06225c:	64f4      	save	32,ra,s0-s1
7a06225e:	b434      	lw	a0,7a06232c <.LBE2+0x84>
7a062260:	b032      	lw	s0,7a062328 <.LBE2+0x80>
7a062262:	ac60      	lhu	v1,0(a0)
7a062264:	a840      	lhu	v0,0(s0)
7a062266:	6783      	move	a0,v1
7a062268:	ec31      	zeh	a0
7a06226a:	ea83      	sltu	v0,a0
7a06226c:	6155      	btnez	7a062318 <.LBE2+0x70>
7a06226e:	c860      	sh	v1,0(s0)
7a062270:	a8e0      	lhu	a3,0(s0)
7a062272:	6767      	move	v1,a3
7a062274:	eb31      	zeh	v1
7a062276:	651b      	move	t8,v1
7a062278:	234c      	beqz	v1,7a062312 <.LBE2+0x6a>
7a06227a:	b62e      	lw	a2,7a062330 <.LBE2+0x88>
7a06227c:	a660      	lbu	v1,0(a2)
7a06227e:	5b02      	sltiu	v1,2
7a062280:	6128      	btnez	7a0622d2 <.LBE2+0x2a>
7a062282:	b52f      	lw	a1,7a06233c <.LBE2+0x94>
7a062284:	b02c      	lw	s0,7a062334 <.LBE2+0x8c>
7a062286:	653d      	move	t9,a1
7a062288:	b12c      	lw	s1,7a062338 <.LBE2+0x90>
7a06228a:	a0a0      	lbu	a1,0(s0)
7a06228c:	1019      	b	7a0622c0 <.LBE2+0x18>

7a06228e <.LBB2>:
7a06228e:	6d0f      	li	a1,15
7a062290:	c0a0      	sb	a1,0(s0)
7a062292:	a140      	lbu	v0,0(s1)
7a062294:	5a10      	sltiu	v0,16
7a062296:	6002      	bteqz	7a06229c <.LBB2+0xe>
7a062298:	4241      	addiu	v0,v0,1
7a06229a:	c140      	sb	v0,0(s1)
7a06229c:	6745      	move	v0,a1
7a06229e:	ea11      	zeb	v0
7a0622a0:	438f      	addiu	a0,v1,-1
7a0622a2:	3244      	sll	v0,1
7a0622a4:	6779      	move	v1,t9
7a0622a6:	e269      	addu	v0,v1

7a0622a8 <.LBE2>:
7a0622a8:	aa60      	lhu	v1,0(v0)
7a0622aa:	6747      	move	v0,a3
7a0622ac:	ea31      	zeh	v0
7a0622ae:	ea63      	sltu	v0,v1
7a0622b0:	c680      	sb	a0,0(a2)
7a0622b2:	600d      	bteqz	7a0622ce <.LBE2+0x26>
7a0622b4:	446f      	addiu	v1,a0,-1
7a0622b6:	6783      	move	a0,v1
7a0622b8:	ec11      	zeb	a0
7a0622ba:	5c02      	sltiu	a0,2
7a0622bc:	c660      	sb	v1,0(a2)
7a0622be:	6109      	btnez	7a0622d2 <.LBE2+0x2a>
7a0622c0:	6745      	move	v0,a1
7a0622c2:	ea11      	zeb	v0
7a0622c4:	22e4      	beqz	v0,7a06228e <.LBB2>
7a0622c6:	458f      	addiu	a0,a1,-1
7a0622c8:	67a4      	move	a1,a0
7a0622ca:	c080      	sb	a0,0(s0)
7a0622cc:	17e2      	b	7a062292 <.LBB2+0x4>
7a0622ce:	651b      	move	t8,v1
7a0622d0:	2b20      	bnez	v1,7a062312 <.LBE2+0x6a>
7a0622d2:	b01c      	lw	s0,7a062340 <.LBE2+0x98>
7a0622d4:	b115      	lw	s1,7a062328 <.LBE2+0x80>
7a0622d6:	1834 8801 	jal	7a062004 <get_shuffle_num>
7a0622da:	6500      	nop
7a0622dc:	6782      	move	a0,v0
7a0622de:	2218      	beqz	v0,7a062310 <.LBE2+0x68>
7a0622e0:	a8c0      	lhu	a2,0(s0)
7a0622e2:	ee4e      	xor	a2,v0
7a0622e4:	26f8      	beqz	a2,7a0622d6 <.LBE2+0x2e>
7a0622e6:	a9e0      	lhu	a3,0(s1)
7a0622e8:	ef43      	sltu	a3,v0
7a0622ea:	61f5      	btnez	7a0622d6 <.LBE2+0x2e>
7a0622ec:	b312      	lw	v1,7a062334 <.LBE2+0x8c>
7a0622ee:	a340      	lbu	v0,0(v1)
7a0622f0:	2217      	beqz	v0,7a062320 <.LBE2+0x78>
7a0622f2:	424f      	addiu	v0,v0,-1
7a0622f4:	c340      	sb	v0,0(v1)
7a0622f6:	67a2      	move	a1,v0
7a0622f8:	b310      	lw	v1,7a062338 <.LBE2+0x90>
7a0622fa:	a340      	lbu	v0,0(v1)
7a0622fc:	5a10      	sltiu	v0,16
7a0622fe:	6002      	bteqz	7a062304 <.LBE2+0x5c>
7a062300:	42c1      	addiu	a2,v0,1
7a062302:	c3c0      	sb	a2,0(v1)
7a062304:	6745      	move	v0,a1
7a062306:	ea11      	zeb	v0
7a062308:	b30d      	lw	v1,7a06233c <.LBE2+0x94>
7a06230a:	3744      	sll	a3,v0,1
7a06230c:	e775      	addu	a1,a3,v1
7a06230e:	cd80      	sh	a0,0(a1)
7a062310:	651c      	move	t8,a0
7a062312:	6758      	move	v0,t8
7a062314:	6474      	restore	32,ra,s0-s1
7a062316:	e8a0      	jrc	ra
7a062318:	1834 8829 	jal	7a0620a4 <fsel_init_shuffle>
7a06231c:	6500      	nop
7a06231e:	17a8      	b	7a062270 <fsel_shuffle_prev_file+0x14>
7a062320:	6d0f      	li	a1,15
7a062322:	c3a0      	sb	a1,0(v1)
7a062324:	17e9      	b	7a0622f8 <.LBE2+0x50>
7a062326:	0000      	addiu	s0,sp,0
7a062328:	9824      	lw	s1,16(s0)
7a06232a:	9fc1      	lw	a2,4(a3)
7a06232c:	9776      	lw	a3,472(sp)
7a06232e:	9fc1      	lw	a2,4(a3)
7a062330:	987d      	lw	v1,116(s0)
7a062332:	9fc1      	lw	a2,4(a3)
7a062334:	987c      	lw	v1,112(s0)
7a062336:	9fc1      	lw	a2,4(a3)
7a062338:	987e      	lw	v1,120(s0)
7a06233a:	9fc1      	lw	a2,4(a3)
7a06233c:	985c      	lw	v0,112(s0)
7a06233e:	9fc1      	lw	a2,4(a3)
7a062340:	9858      	lw	v0,96(s0)
7a062342:	9fc1      	lw	a2,4(a3)

7a062344 <byte_get_val>:
7a062344:	0201 0804 2010 8040                         ..... @.

7a06234c <byte_set_val>:
7a06234c:	0301 0f07 3f1f ff7f                         .....?..
Disassembly of section BANK_ENHANCED_1_2:

7a0a1e00 <fsel_total_file_curdir>:
7a0a1e00:	b50a      	lw	a1,7a0a1e28 <fsel_total_file_curdir+0x28>
7a0a1e02:	b70b      	lw	a3,7a0a1e2c <fsel_total_file_curdir+0x2c>
7a0a1e04:	9d80      	lw	a0,0(a1)
7a0a1e06:	b60b      	lw	a2,7a0a1e30 <fsel_total_file_curdir+0x30>
7a0a1e08:	9fa0      	lw	a1,0(a3)
7a0a1e0a:	ae60      	lhu	v1,0(a2)
7a0a1e0c:	ad41      	lhu	v0,2(a1)
7a0a1e0e:	ea6e      	xor	v0,v1
7a0a1e10:	2a06      	bnez	v0,7a0a1e1e <fsel_total_file_curdir+0x1e>
7a0a1e12:	ad40      	lhu	v0,0(a1)
7a0a1e14:	ac60      	lhu	v1,0(a0)
7a0a1e16:	e273      	subu	a0,v0,v1
7a0a1e18:	4441      	addiu	v0,a0,1
7a0a1e1a:	e820      	jr	ra
7a0a1e1c:	ea31      	zeh	v0
7a0a1e1e:	acca      	lhu	a2,20(a0)
7a0a1e20:	ace0      	lhu	a3,0(a0)
7a0a1e22:	e6eb      	subu	v0,a2,a3
7a0a1e24:	e820      	jr	ra
7a0a1e26:	ea31      	zeh	v0
7a0a1e28:	9894      	lw	a0,80(s0)
7a0a1e2a:	9fc1      	lw	a2,4(a3)
7a0a1e2c:	98a4      	lw	a1,16(s0)
7a0a1e2e:	9fc1      	lw	a2,4(a3)
7a0a1e30:	9584      	lw	a1,528(sp)
7a0a1e32:	9fc1      	lw	a2,4(a3)

7a0a1e34 <fsel_total_file_alldir>:
7a0a1e34:	64e3      	save	24,ra,s0
7a0a1e36:	b30a      	lw	v1,7a0a1e5c <fsel_total_file_alldir+0x28>
7a0a1e38:	b508      	lw	a1,7a0a1e58 <fsel_total_file_alldir+0x24>
7a0a1e3a:	a340      	lbu	v0,0(v1)
7a0a1e3c:	9d80      	lw	a0,0(a1)
7a0a1e3e:	7201      	cmpi	v0,1
7a0a1e40:	ac00      	lhu	s0,0(a0)
7a0a1e42:	6101      	btnez	7a0a1e46 <fsel_total_file_alldir+0x12>
7a0a1e44:	2803      	bnez	s0,7a0a1e4c <fsel_total_file_alldir+0x18>
7a0a1e46:	6750      	move	v0,s0
7a0a1e48:	6463      	restore	24,ra,s0
7a0a1e4a:	e8a0      	jrc	ra
7a0a1e4c:	1834 8829 	jal	7a0620a4 <fsel_init_shuffle>
7a0a1e50:	6790      	move	a0,s0
7a0a1e52:	6750      	move	v0,s0
7a0a1e54:	6463      	restore	24,ra,s0
7a0a1e56:	e8a0      	jrc	ra
7a0a1e58:	98a4      	lw	a1,16(s0)
7a0a1e5a:	9fc1      	lw	a2,4(a3)
7a0a1e5c:	976e      	lw	a3,440(sp)
7a0a1e5e:	9fc1      	lw	a2,4(a3)

7a0a1e60 <fsel_last_list_entry>:
7a0a1e60:	64f5      	save	40,ra,s0-s1
7a0a1e62:	b018      	lw	s0,7a0a1ec0 <fsel_last_list_entry+0x60>
7a0a1e64:	b218      	lw	v0,7a0a1ec4 <fsel_last_list_entry+0x64>
7a0a1e66:	98e0      	lw	a3,0(s0)
7a0a1e68:	b615      	lw	a2,7a0a1ebc <fsel_last_list_entry+0x5c>
7a0a1e6a:	af61      	lhu	v1,2(a3)
7a0a1e6c:	9a00      	lw	s0,0(v0)
7a0a1e6e:	b513      	lw	a1,7a0a1eb8 <fsel_last_list_entry+0x58>
7a0a1e70:	6c00      	li	a0,0
7a0a1e72:	ce60      	sh	v1,0(a2)
7a0a1e74:	436f      	addiu	v1,v1,-1
7a0a1e76:	480c      	addiu	s0,12
7a0a1e78:	ec62      	slt	a0,v1
7a0a1e7a:	9d20      	lw	s1,0(a1)
7a0a1e7c:	dd00      	sw	s0,0(a1)
7a0a1e7e:	6007      	bteqz	7a0a1e8e <fsel_last_list_entry+0x2e>
7a0a1e80:	4441      	addiu	v0,a0,1
7a0a1e82:	6782      	move	a0,v0
7a0a1e84:	ec31      	zeh	a0
7a0a1e86:	ec62      	slt	a0,v1
7a0a1e88:	4814      	addiu	s0,20
7a0a1e8a:	61fa      	btnez	7a0a1e80 <fsel_last_list_entry+0x20>
7a0a1e8c:	dd00      	sw	s0,0(a1)
7a0a1e8e:	1854 8780 	jal	7a0a1e00 <fsel_total_file_curdir>
7a0a1e92:	6500      	nop
7a0a1e94:	b70d      	lw	a3,7a0a1ec8 <fsel_last_list_entry+0x68>
7a0a1e96:	b40e      	lw	a0,7a0a1ecc <fsel_last_list_entry+0x6c>
7a0a1e98:	b30e      	lw	v1,7a0a1ed0 <fsel_last_list_entry+0x70>
7a0a1e9a:	6e00      	li	a2,0
7a0a1e9c:	cf40      	sh	v0,0(a3)
7a0a1e9e:	ccc0      	sh	a2,0(a0)
7a0a1ea0:	6d1b      	li	a1,27
7a0a1ea2:	9b80      	lw	a0,0(v1)
7a0a1ea4:	b20c      	lw	v0,7a0a1ed4 <fsel_last_list_entry+0x74>
7a0a1ea6:	d504      	sw	a1,16(sp)
7a0a1ea8:	67d0      	move	a2,s0
7a0a1eaa:	6d00      	li	a1,0
7a0a1eac:	ea40      	jalr	v0
7a0a1eae:	67f1      	move	a3,s1
7a0a1eb0:	6a01      	li	v0,1
7a0a1eb2:	6475      	restore	40,ra,s0-s1
7a0a1eb4:	e8a0      	jrc	ra
7a0a1eb6:	0000      	addiu	s0,sp,0
7a0a1eb8:	9894      	lw	a0,80(s0)
7a0a1eba:	9fc1      	lw	a2,4(a3)
7a0a1ebc:	9584      	lw	a1,528(sp)
7a0a1ebe:	9fc1      	lw	a2,4(a3)
7a0a1ec0:	98a4      	lw	a1,16(s0)
7a0a1ec2:	9fc1      	lw	a2,4(a3)
7a0a1ec4:	9588      	lw	a1,544(sp)
7a0a1ec6:	9fc1      	lw	a2,4(a3)
7a0a1ec8:	9772      	lw	a3,456(sp)
7a0a1eca:	9fc1      	lw	a2,4(a3)
7a0a1ecc:	9770      	lw	a3,448(sp)
7a0a1ece:	9fc1      	lw	a2,4(a3)
7a0a1ed0:	958c      	lw	a1,560(sp)
7a0a1ed2:	9fc1      	lw	a2,4(a3)
7a0a1ed4:	6015      	bteqz	7a0a1f00 <fsel_check_index_num+0x28>
7a0a1ed6:	bfc2      	lwu	a2,8(a3)

7a0a1ed8 <fsel_check_index_num>:
7a0a1ed8:	64f4      	save	32,ra,s0-s1
7a0a1eda:	6724      	move	s1,a0
7a0a1edc:	b00d      	lw	s0,7a0a1f10 <fsel_check_index_num+0x38>
7a0a1ede:	1896 a280 	jal	7b128a00 <fsel_sortlsit_vram_read>
7a0a1ee2:	6c00      	li	a0,0
7a0a1ee4:	b20a      	lw	v0,7a0a1f0c <fsel_check_index_num+0x34>
7a0a1ee6:	e931      	zeh	s1
7a0a1ee8:	aa80      	lhu	a0,0(v0)
7a0a1eea:	6b01      	li	v1,1
7a0a1eec:	240c      	beqz	a0,7a0a1f06 <fsel_check_index_num+0x2e>
7a0a1eee:	f382 5b09 	sltiu	v1,5001
7a0a1ef2:	6009      	bteqz	7a0a1f06 <fsel_check_index_num+0x2e>
7a0a1ef4:	a8a0      	lhu	a1,0(s0)
7a0a1ef6:	ed2e      	xor	a1,s1
7a0a1ef8:	2506      	beqz	a1,7a0a1f06 <fsel_check_index_num+0x2e>
7a0a1efa:	43c1      	addiu	a2,v1,1
7a0a1efc:	6766      	move	v1,a2
7a0a1efe:	eb31      	zeh	v1
7a0a1f00:	ec63      	sltu	a0,v1
7a0a1f02:	4002      	addiu	s0,s0,2
7a0a1f04:	60f4      	bteqz	7a0a1eee <fsel_check_index_num+0x16>
7a0a1f06:	6751      	move	v0,s1
7a0a1f08:	6474      	restore	32,ra,s0-s1
7a0a1f0a:	e8a0      	jrc	ra
7a0a1f0c:	e000      	daddu	s0,s0
7a0a1f0e:	9fc2      	lw	a2,8(a3)
7a0a1f10:	f000 9fc2 	lw	a2,2(a3)

7a0a1f14 <fsel_set_seltype>:
7a0a1f14:	64f5      	save	40,ra,s0-s1
7a0a1f16:	ec11      	zeb	a0
7a0a1f18:	b334      	lw	v1,7a0a1fe8 <fsel_set_seltype+0xd4>
7a0a1f1a:	6725      	move	s1,a1
7a0a1f1c:	6a00      	li	v0,0
7a0a1f1e:	5c04      	sltiu	a0,4
7a0a1f20:	e931      	zeh	s1
7a0a1f22:	c340      	sb	v0,0(v1)
7a0a1f24:	6101      	btnez	7a0a1f28 <fsel_set_seltype+0x14>
7a0a1f26:	6c00      	li	a0,0
7a0a1f28:	b031      	lw	s0,7a0a1fec <fsel_set_seltype+0xd8>
7a0a1f2a:	a040      	lbu	v0,0(s0)
7a0a1f2c:	ea8a      	cmp	v0,a0
7a0a1f2e:	6002      	bteqz	7a0a1f34 <fsel_set_seltype+0x20>
7a0a1f30:	c080      	sb	a0,0(s0)
7a0a1f32:	6744      	move	v0,a0
7a0a1f34:	7201      	cmpi	v0,1
7a0a1f36:	6003      	bteqz	7a0a1f3e <fsel_set_seltype+0x2a>
7a0a1f38:	6a01      	li	v0,1
7a0a1f3a:	6475      	restore	40,ra,s0-s1
7a0a1f3c:	e8a0      	jrc	ra
7a0a1f3e:	b42d      	lw	a0,7a0a1ff0 <fsel_set_seltype+0xdc>
7a0a1f40:	cc20      	sh	s1,0(a0)
7a0a1f42:	1854 87b6 	jal	7a0a1ed8 <fsel_check_index_num>
7a0a1f46:	6791      	move	a0,s1
7a0a1f48:	b52b      	lw	a1,7a0a1ff4 <fsel_set_seltype+0xe0>
7a0a1f4a:	b32d      	lw	v1,7a0a1ffc <fsel_set_seltype+0xe8>
7a0a1f4c:	b72b      	lw	a3,7a0a1ff8 <fsel_set_seltype+0xe4>
7a0a1f4e:	cd40      	sh	v0,0(a1)
7a0a1f50:	9ba0      	lw	a1,0(v1)
7a0a1f52:	b62c      	lw	a2,7a0a2000 <fsel_set_seltype+0xec>
7a0a1f54:	dfa0      	sw	a1,0(a3)
7a0a1f56:	67e5      	move	a3,a1
7a0a1f58:	4f0c      	addiu	a3,12
7a0a1f5a:	653e      	move	t9,a2
7a0a1f5c:	dee0      	sw	a3,0(a2)
7a0a1f5e:	b62a      	lw	a2,7a0a2004 <fsel_set_seltype+0xf0>
7a0a1f60:	6c01      	li	a0,1
7a0a1f62:	ce80      	sh	a0,0(a2)
7a0a1f64:	ad66      	lhu	v1,12(a1)
7a0a1f66:	651a      	move	t8,v0
7a0a1f68:	2313      	beqz	v1,7a0a1f90 <fsel_set_seltype+0x7c>
7a0a1f6a:	ad80      	lhu	a0,0(a1)
7a0a1f6c:	b027      	lw	s0,7a0a2008 <fsel_set_seltype+0xf4>
7a0a1f6e:	6744      	move	v0,a0
7a0a1f70:	c880      	sh	a0,0(s0)
7a0a1f72:	ea31      	zeh	v0
7a0a1f74:	6718      	move	s0,t8
7a0a1f76:	ea03      	sltu	v0,s0
7a0a1f78:	6011      	bteqz	7a0a1f9c <fsel_set_seltype+0x88>
7a0a1f7a:	adc1      	lhu	a2,2(a1)
7a0a1f7c:	7601      	cmpi	a2,1
7a0a1f7e:	6127      	btnez	7a0a1fce <fsel_set_seltype+0xba>
7a0a1f80:	b71d      	lw	a3,7a0a1ff4 <fsel_set_seltype+0xe0>
7a0a1f82:	cf80      	sh	a0,0(a3)
7a0a1f84:	b01c      	lw	s0,7a0a1ff4 <fsel_set_seltype+0xe0>
7a0a1f86:	b61b      	lw	a2,7a0a1ff0 <fsel_set_seltype+0xdc>
7a0a1f88:	a8e0      	lhu	a3,0(s0)
7a0a1f8a:	6a01      	li	v0,1
7a0a1f8c:	cee0      	sh	a3,0(a2)
7a0a1f8e:	17d5      	b	7a0a1f3a <fsel_set_seltype+0x26>
7a0a1f90:	c060      	sb	v1,0(s0)
7a0a1f92:	b019      	lw	s0,7a0a1ff4 <fsel_set_seltype+0xe0>
7a0a1f94:	6743      	move	v0,v1
7a0a1f96:	c820      	sh	s1,0(s0)
7a0a1f98:	6475      	restore	40,ra,s0-s1
7a0a1f9a:	e8a0      	jrc	ra
7a0a1f9c:	6743      	move	v0,v1
7a0a1f9e:	ea2e      	xor	v0,s1
7a0a1fa0:	22cb      	beqz	v0,7a0a1f38 <fsel_set_seltype+0x24>
7a0a1fa2:	6719      	move	s0,t9
7a0a1fa4:	1006      	b	7a0a1fb2 <fsel_set_seltype+0x9e>
7a0a1fa6:	4f14      	addiu	a3,20
7a0a1fa8:	4441      	addiu	v0,a0,1
7a0a1faa:	d8e0      	sw	a3,0(s0)
7a0a1fac:	6799      	move	a0,t9
7a0a1fae:	9ce0      	lw	a3,0(a0)
7a0a1fb0:	ce40      	sh	v0,0(a2)
7a0a1fb2:	af60      	lhu	v1,0(a3)
7a0a1fb4:	e963      	sltu	s1,v1
7a0a1fb6:	6103      	btnez	7a0a1fbe <fsel_set_seltype+0xaa>
7a0a1fb8:	af8a      	lhu	a0,20(a3)
7a0a1fba:	e983      	sltu	s1,a0
7a0a1fbc:	61bd      	btnez	7a0a1f38 <fsel_set_seltype+0x24>
7a0a1fbe:	ae80      	lhu	a0,0(a2)
7a0a1fc0:	ad41      	lhu	v0,2(a1)
7a0a1fc2:	6764      	move	v1,a0
7a0a1fc4:	eb31      	zeh	v1
7a0a1fc6:	ea6e      	xor	v0,v1
7a0a1fc8:	2aee      	bnez	v0,7a0a1fa6 <fsel_set_seltype+0x92>
7a0a1fca:	6a01      	li	v0,1
7a0a1fcc:	17b6      	b	7a0a1f3a <fsel_set_seltype+0x26>
7a0a1fce:	b40a      	lw	a0,7a0a1ff4 <fsel_set_seltype+0xe0>
7a0a1fd0:	b50f      	lw	a1,7a0a200c <fsel_set_seltype+0xf8>
7a0a1fd2:	6800      	li	s0,0
7a0a1fd4:	cc00      	sh	s0,0(a0)
7a0a1fd6:	6b1b      	li	v1,27
7a0a1fd8:	9d80      	lw	a0,0(a1)
7a0a1fda:	b20e      	lw	v0,7a0a2010 <fsel_set_seltype+0xfc>
7a0a1fdc:	d304      	sw	v1,16(sp)
7a0a1fde:	6d01      	li	a1,1
7a0a1fe0:	ea40      	jalr	v0
7a0a1fe2:	67c7      	move	a2,a3
7a0a1fe4:	17cf      	b	7a0a1f84 <fsel_set_seltype+0x70>
7a0a1fe6:	0000      	addiu	s0,sp,0
7a0a1fe8:	976c      	lw	a3,432(sp)
7a0a1fea:	9fc1      	lw	a2,4(a3)
7a0a1fec:	98b8      	lw	a1,96(s0)
7a0a1fee:	9fc1      	lw	a2,4(a3)
7a0a1ff0:	98ba      	lw	a1,104(s0)
7a0a1ff2:	9fc1      	lw	a2,4(a3)
7a0a1ff4:	9774      	lw	a3,464(sp)
7a0a1ff6:	9fc1      	lw	a2,4(a3)
7a0a1ff8:	98a4      	lw	a1,16(s0)
7a0a1ffa:	9fc1      	lw	a2,4(a3)
7a0a1ffc:	9588      	lw	a1,544(sp)
7a0a1ffe:	9fc1      	lw	a2,4(a3)
7a0a2000:	9894      	lw	a0,80(s0)
7a0a2002:	9fc1      	lw	a2,4(a3)
7a0a2004:	9584      	lw	a1,528(sp)
7a0a2006:	9fc1      	lw	a2,4(a3)
7a0a2008:	9776      	lw	a3,472(sp)
7a0a200a:	9fc1      	lw	a2,4(a3)
7a0a200c:	958c      	lw	a1,560(sp)
7a0a200e:	9fc1      	lw	a2,4(a3)
7a0a2010:	6015      	bteqz	7a0a203c <fsel_list_next_dir+0x28>
7a0a2012:	bfc2      	lwu	a2,8(a3)

7a0a2014 <fsel_list_next_dir>:
7a0a2014:	f004 64f5 	save	a0,40,ra,s0-s1
7a0a2018:	b332      	lw	v1,7a0a20e0 <fsel_list_next_dir+0xcc>
7a0a201a:	b031      	lw	s0,7a0a20dc <fsel_list_next_dir+0xc8>
7a0a201c:	9b40      	lw	v0,0(v1)
7a0a201e:	aa61      	lhu	v1,2(v0)
7a0a2020:	98e0      	lw	a3,0(s0)
7a0a2022:	7301      	cmpi	v1,1
7a0a2024:	6901      	li	s1,1
7a0a2026:	6014      	bteqz	7a0a2050 <fsel_list_next_dir+0x3c>
7a0a2028:	b52f      	lw	a1,7a0a20e4 <fsel_list_next_dir+0xd0>
7a0a202a:	ad80      	lhu	a0,0(a1)
7a0a202c:	67c4      	move	a2,a0
7a0a202e:	ee31      	zeh	a2
7a0a2030:	ee6e      	xor	a2,v1
7a0a2032:	2639      	beqz	a2,7a0a20a6 <fsel_list_next_dir+0x92>
7a0a2034:	67c7      	move	a2,a3
7a0a2036:	4e14      	addiu	a2,20
7a0a2038:	b32d      	lw	v1,7a0a20ec <fsel_list_next_dir+0xd8>
7a0a203a:	d8c0      	sw	a2,0(s0)
7a0a203c:	6a1b      	li	v0,27
7a0a203e:	4401      	addiu	s0,a0,1
7a0a2040:	cd00      	sh	s0,0(a1)
7a0a2042:	9b80      	lw	a0,0(v1)
7a0a2044:	6d01      	li	a1,1
7a0a2046:	d204      	sw	v0,16(sp)
7a0a2048:	b12b      	lw	s1,7a0a20f4 <fsel_list_next_dir+0xe0>
7a0a204a:	e9c0      	jalrc	s1
7a0a204c:	6722      	move	s1,v0
7a0a204e:	e911      	zeb	s1
7a0a2050:	7101      	cmpi	s1,1
7a0a2052:	6035      	bteqz	7a0a20be <fsel_list_next_dir+0xaa>
7a0a2054:	b029      	lw	s0,7a0a20f8 <fsel_list_next_dir+0xe4>
7a0a2056:	9840      	lw	v0,0(s0)
7a0a2058:	2222      	beqz	v0,7a0a209e <fsel_list_next_dir+0x8a>
7a0a205a:	940a      	lw	a0,40(sp)
7a0a205c:	240c      	beqz	a0,7a0a2076 <fsel_list_next_dir+0x62>
7a0a205e:	b324      	lw	v1,7a0a20ec <fsel_list_next_dir+0xd8>
7a0a2060:	6d02      	li	a1,2
7a0a2062:	9b80      	lw	a0,0(v1)
7a0a2064:	6e00      	li	a2,0
7a0a2066:	b224      	lw	v0,7a0a20f4 <fsel_list_next_dir+0xe0>
7a0a2068:	d504      	sw	a1,16(sp)
7a0a206a:	67e6      	move	a3,a2
7a0a206c:	ea40      	jalr	v0
7a0a206e:	67b0      	move	a1,s0
7a0a2070:	9840      	lw	v0,0(s0)
7a0a2072:	970a      	lw	a3,40(sp)
7a0a2074:	df40      	sw	v0,0(a3)
7a0a2076:	b623      	lw	a2,7a0a2100 <fsel_list_next_dir+0xec>
7a0a2078:	6b01      	li	v1,1
7a0a207a:	1854 8780 	jal	7a0a1e00 <fsel_total_file_curdir>
7a0a207e:	ce60      	sh	v1,0(a2)
7a0a2080:	b521      	lw	a1,7a0a2104 <fsel_list_next_dir+0xf0>
7a0a2082:	b417      	lw	a0,7a0a20dc <fsel_list_next_dir+0xc8>
7a0a2084:	cd40      	sh	v0,0(a1)
7a0a2086:	9c40      	lw	v0,0(a0)
7a0a2088:	b720      	lw	a3,7a0a2108 <fsel_list_next_dir+0xf4>
7a0a208a:	aa80      	lhu	a0,0(v0)
7a0a208c:	cf80      	sh	a0,0(a3)
7a0a208e:	1854 87b6 	jal	7a0a1ed8 <fsel_check_index_num>
7a0a2092:	ec31      	zeh	a0
7a0a2094:	b61e      	lw	a2,7a0a210c <fsel_list_next_dir+0xf8>
7a0a2096:	ce40      	sh	v0,0(a2)
7a0a2098:	6751      	move	v0,s1
7a0a209a:	6475      	restore	40,ra,s0-s1
7a0a209c:	e8a0      	jrc	ra
7a0a209e:	6722      	move	s1,v0
7a0a20a0:	6751      	move	v0,s1
7a0a20a2:	6475      	restore	40,ra,s0-s1
7a0a20a4:	e8a0      	jrc	ra
7a0a20a6:	b411      	lw	a0,7a0a20e8 <fsel_list_next_dir+0xd4>
7a0a20a8:	6901      	li	s1,1
7a0a20aa:	9cc0      	lw	a2,0(a0)
7a0a20ac:	cd20      	sh	s1,0(a1)
7a0a20ae:	4e0c      	addiu	a2,12
7a0a20b0:	d8c0      	sw	a2,0(s0)
7a0a20b2:	b00f      	lw	s0,7a0a20ec <fsel_list_next_dir+0xd8>
7a0a20b4:	6d1b      	li	a1,27
7a0a20b6:	9880      	lw	a0,0(s0)
7a0a20b8:	d504      	sw	a1,16(sp)
7a0a20ba:	b50e      	lw	a1,7a0a20f0 <fsel_list_next_dir+0xdc>
7a0a20bc:	17c5      	b	7a0a2048 <fsel_list_next_dir+0x34>
7a0a20be:	b60c      	lw	a2,7a0a20ec <fsel_list_next_dir+0xd8>
7a0a20c0:	b007      	lw	s0,7a0a20dc <fsel_list_next_dir+0xc8>
7a0a20c2:	b30f      	lw	v1,7a0a20fc <fsel_list_next_dir+0xe8>
7a0a20c4:	9e80      	lw	a0,0(a2)
7a0a20c6:	9be1      	lw	a3,4(v1)
7a0a20c8:	98c0      	lw	a2,0(s0)
7a0a20ca:	6d1a      	li	a1,26
7a0a20cc:	b20a      	lw	v0,7a0a20f4 <fsel_list_next_dir+0xe0>
7a0a20ce:	d504      	sw	a1,16(sp)
7a0a20d0:	ea40      	jalr	v0
7a0a20d2:	6d00      	li	a1,0
7a0a20d4:	b709      	lw	a3,7a0a20f8 <fsel_list_next_dir+0xe4>
7a0a20d6:	df40      	sw	v0,0(a3)
7a0a20d8:	17bd      	b	7a0a2054 <fsel_list_next_dir+0x40>
7a0a20da:	0000      	addiu	s0,sp,0
7a0a20dc:	9894      	lw	a0,80(s0)
7a0a20de:	9fc1      	lw	a2,4(a3)
7a0a20e0:	98a4      	lw	a1,16(s0)
7a0a20e2:	9fc1      	lw	a2,4(a3)
7a0a20e4:	9584      	lw	a1,528(sp)
7a0a20e6:	9fc1      	lw	a2,4(a3)
7a0a20e8:	9588      	lw	a1,544(sp)
7a0a20ea:	9fc1      	lw	a2,4(a3)
7a0a20ec:	958c      	lw	a1,560(sp)
7a0a20ee:	9fc1      	lw	a2,4(a3)
7a0a20f0:	0000      	addiu	s0,sp,0
7a0a20f2:	8000      	lb	s0,0(s0)
7a0a20f4:	6015      	bteqz	7a0a2120 <fsel_list_prev_dir+0x10>
7a0a20f6:	bfc2      	lwu	a2,8(a3)
7a0a20f8:	9778      	lw	a3,480(sp)
7a0a20fa:	9fc1      	lw	a2,4(a3)
7a0a20fc:	9764      	lw	a3,400(sp)
7a0a20fe:	9fc1      	lw	a2,4(a3)
7a0a2100:	9770      	lw	a3,448(sp)
7a0a2102:	9fc1      	lw	a2,4(a3)
7a0a2104:	9772      	lw	a3,456(sp)
7a0a2106:	9fc1      	lw	a2,4(a3)
7a0a2108:	98ba      	lw	a1,104(s0)
7a0a210a:	9fc1      	lw	a2,4(a3)
7a0a210c:	9774      	lw	a3,464(sp)
7a0a210e:	9fc1      	lw	a2,4(a3)

7a0a2110 <fsel_list_prev_dir>:
7a0a2110:	f004 64f5 	save	a0,40,ra,s0-s1
7a0a2114:	b42e      	lw	a0,7a0a21cc <fsel_list_prev_dir+0xbc>
7a0a2116:	b52d      	lw	a1,7a0a21c8 <fsel_list_prev_dir+0xb8>
7a0a2118:	ac60      	lhu	v1,0(a0)
7a0a211a:	9de0      	lw	a3,0(a1)
7a0a211c:	6743      	move	v0,v1
7a0a211e:	ea31      	zeh	v0
7a0a2120:	7201      	cmpi	v0,1
7a0a2122:	612e      	btnez	7a0a2180 <fsel_list_prev_dir+0x70>
7a0a2124:	1854 8798 	jal	7a0a1e60 <fsel_last_list_entry>
7a0a2128:	6500      	nop
7a0a212a:	6722      	move	s1,v0
7a0a212c:	7101      	cmpi	s1,1
7a0a212e:	6038      	bteqz	7a0a21a0 <fsel_list_prev_dir+0x90>
7a0a2130:	b02b      	lw	s0,7a0a21dc <fsel_list_prev_dir+0xcc>
7a0a2132:	9840      	lw	v0,0(s0)
7a0a2134:	2245      	beqz	v0,7a0a21c0 <fsel_list_prev_dir+0xb0>
7a0a2136:	960a      	lw	a2,40(sp)
7a0a2138:	260c      	beqz	a2,7a0a2152 <fsel_list_prev_dir+0x42>
7a0a213a:	b726      	lw	a3,7a0a21d0 <fsel_list_prev_dir+0xc0>
7a0a213c:	6b02      	li	v1,2
7a0a213e:	9f80      	lw	a0,0(a3)
7a0a2140:	6e00      	li	a2,0
7a0a2142:	b226      	lw	v0,7a0a21d8 <fsel_list_prev_dir+0xc8>
7a0a2144:	d304      	sw	v1,16(sp)
7a0a2146:	67b0      	move	a1,s0
7a0a2148:	ea40      	jalr	v0
7a0a214a:	67e6      	move	a3,a2
7a0a214c:	9840      	lw	v0,0(s0)
7a0a214e:	940a      	lw	a0,40(sp)
7a0a2150:	dc40      	sw	v0,0(a0)
7a0a2152:	1854 8780 	jal	7a0a1e00 <fsel_total_file_curdir>
7a0a2156:	6500      	nop
7a0a2158:	b51c      	lw	a1,7a0a21c8 <fsel_list_prev_dir+0xb8>
7a0a215a:	b424      	lw	a0,7a0a21e8 <fsel_list_prev_dir+0xd8>
7a0a215c:	b624      	lw	a2,7a0a21ec <fsel_list_prev_dir+0xdc>
7a0a215e:	9de0      	lw	a3,0(a1)
7a0a2160:	cc40      	sh	v0,0(a0)
7a0a2162:	ce40      	sh	v0,0(a2)
7a0a2164:	6762      	move	v1,v0
7a0a2166:	af40      	lhu	v0,0(a3)
7a0a2168:	b622      	lw	a2,7a0a21f0 <fsel_list_prev_dir+0xe0>
7a0a216a:	e351      	addu	a0,v1,v0
7a0a216c:	448f      	addiu	a0,a0,-1
7a0a216e:	ce80      	sh	a0,0(a2)
7a0a2170:	1854 87b6 	jal	7a0a1ed8 <fsel_check_index_num>
7a0a2174:	ec31      	zeh	a0
7a0a2176:	b520      	lw	a1,7a0a21f4 <fsel_list_prev_dir+0xe4>
7a0a2178:	cd40      	sh	v0,0(a1)
7a0a217a:	6751      	move	v0,s1
7a0a217c:	6475      	restore	40,ra,s0-s1
7a0a217e:	e8a0      	jrc	ra
7a0a2180:	43cf      	addiu	a2,v1,-1
7a0a2182:	ccc0      	sh	a2,0(a0)
7a0a2184:	67c7      	move	a2,a3
7a0a2186:	4eec      	addiu	a2,-20
7a0a2188:	ddc0      	sw	a2,0(a1)
7a0a218a:	b512      	lw	a1,7a0a21d0 <fsel_list_prev_dir+0xc0>
7a0a218c:	6b1b      	li	v1,27
7a0a218e:	9d80      	lw	a0,0(a1)
7a0a2190:	b012      	lw	s0,7a0a21d8 <fsel_list_prev_dir+0xc8>
7a0a2192:	b511      	lw	a1,7a0a21d4 <fsel_list_prev_dir+0xc4>
7a0a2194:	e840      	jalr	s0
7a0a2196:	d304      	sw	v1,16(sp)
7a0a2198:	6722      	move	s1,v0
7a0a219a:	e911      	zeb	s1
7a0a219c:	7101      	cmpi	s1,1
7a0a219e:	61c8      	btnez	7a0a2130 <fsel_list_prev_dir+0x20>
7a0a21a0:	b50c      	lw	a1,7a0a21d0 <fsel_list_prev_dir+0xc0>
7a0a21a2:	b70a      	lw	a3,7a0a21c8 <fsel_list_prev_dir+0xb8>
7a0a21a4:	b310      	lw	v1,7a0a21e4 <fsel_list_prev_dir+0xd4>
7a0a21a6:	9d80      	lw	a0,0(a1)
7a0a21a8:	9fc0      	lw	a2,0(a3)
7a0a21aa:	681a      	li	s0,26
7a0a21ac:	9be1      	lw	a3,4(v1)
7a0a21ae:	b50d      	lw	a1,7a0a21e0 <fsel_list_prev_dir+0xd0>
7a0a21b0:	b20a      	lw	v0,7a0a21d8 <fsel_list_prev_dir+0xc8>
7a0a21b2:	ea40      	jalr	v0
7a0a21b4:	d004      	sw	s0,16(sp)
7a0a21b6:	b40a      	lw	a0,7a0a21dc <fsel_list_prev_dir+0xcc>
7a0a21b8:	b009      	lw	s0,7a0a21dc <fsel_list_prev_dir+0xcc>
7a0a21ba:	dc40      	sw	v0,0(a0)
7a0a21bc:	9840      	lw	v0,0(s0)
7a0a21be:	2abb      	bnez	v0,7a0a2136 <fsel_list_prev_dir+0x26>
7a0a21c0:	6722      	move	s1,v0
7a0a21c2:	6751      	move	v0,s1
7a0a21c4:	6475      	restore	40,ra,s0-s1
7a0a21c6:	e8a0      	jrc	ra
7a0a21c8:	9894      	lw	a0,80(s0)
7a0a21ca:	9fc1      	lw	a2,4(a3)
7a0a21cc:	9584      	lw	a1,528(sp)
7a0a21ce:	9fc1      	lw	a2,4(a3)
7a0a21d0:	958c      	lw	a1,560(sp)
7a0a21d2:	9fc1      	lw	a2,4(a3)
7a0a21d4:	0001      	addiu	s0,sp,4
7a0a21d6:	8000      	lb	s0,0(s0)
7a0a21d8:	6015      	bteqz	7a0a2204 <fsel_list_prev_dir+0xf4>
7a0a21da:	bfc2      	lwu	a2,8(a3)
7a0a21dc:	9778      	lw	a3,480(sp)
7a0a21de:	9fc1      	lw	a2,4(a3)
7a0a21e0:	0000      	addiu	s0,sp,0
7a0a21e2:	8000      	lb	s0,0(s0)
7a0a21e4:	9764      	lw	a3,400(sp)
7a0a21e6:	9fc1      	lw	a2,4(a3)
7a0a21e8:	9772      	lw	a3,456(sp)
7a0a21ea:	9fc1      	lw	a2,4(a3)
7a0a21ec:	9770      	lw	a3,448(sp)
7a0a21ee:	9fc1      	lw	a2,4(a3)
7a0a21f0:	98ba      	lw	a1,104(s0)
7a0a21f2:	9fc1      	lw	a2,4(a3)
7a0a21f4:	9774      	lw	a3,464(sp)
7a0a21f6:	9fc1      	lw	a2,4(a3)
Disassembly of section BANK_ENHANCED_1_3:

7a0e1e00 <fsel_get_cur_dir_total_files>:
7a0e1e00:	f004 64f7 	save	a0,56,ra,s0-s1
7a0e1e04:	6705      	move	s0,a1
7a0e1e06:	b62c      	lw	a2,7a0e1eb4 <fsel_get_cur_dir_total_files+0xb4>
7a0e1e08:	6d82      	li	a1,130
7a0e1e0a:	d508      	sw	a1,32(sp)
7a0e1e0c:	4d81      	addiu	a1,-127
7a0e1e0e:	6900      	li	s1,0
7a0e1e10:	9e80      	lw	a0,0(a2)
7a0e1e12:	b32c      	lw	v1,7a0e1ec0 <fsel_get_cur_dir_total_files+0xc0>
7a0e1e14:	d504      	sw	a1,16(sp)
7a0e1e16:	b62a      	lw	a2,7a0e1ebc <fsel_get_cur_dir_total_files+0xbc>
7a0e1e18:	b528      	lw	a1,7a0e1eb8 <fsel_get_cur_dir_total_files+0xb8>
7a0e1e1a:	eb40      	jalr	v1
7a0e1e1c:	67f1      	move	a3,s1
7a0e1e1e:	e811      	zeb	s0
7a0e1e20:	6a01      	li	v0,1
7a0e1e22:	e84e      	xor	s0,v0
7a0e1e24:	e843      	sltu	s0,v0
7a0e1e26:	6718      	move	s0,t8
7a0e1e28:	b723      	lw	a3,7a0e1eb4 <fsel_get_cur_dir_total_files+0xb4>
7a0e1e2a:	b527      	lw	a1,7a0e1ec4 <fsel_get_cur_dir_total_files+0xc4>
7a0e1e2c:	9f80      	lw	a0,0(a3)
7a0e1e2e:	6a01      	li	v0,1
7a0e1e30:	9de1      	lw	a3,4(a1)
7a0e1e32:	b324      	lw	v1,7a0e1ec0 <fsel_get_cur_dir_total_files+0xc0>
7a0e1e34:	9508      	lw	a1,32(sp)
7a0e1e36:	d204      	sw	v0,16(sp)
7a0e1e38:	eb40      	jalr	v1
7a0e1e3a:	6e00      	li	a2,0
7a0e1e3c:	2214      	beqz	v0,7a0e1e66 <fsel_get_cur_dir_total_files+0x66>
7a0e1e3e:	4181      	addiu	a0,s1,1
7a0e1e40:	6724      	move	s1,a0
7a0e1e42:	e931      	zeh	s1
7a0e1e44:	f382 5909 	sltiu	s1,5001
7a0e1e48:	600e      	bteqz	7a0e1e66 <fsel_get_cur_dir_total_files+0x66>
7a0e1e4a:	281d      	bnez	s0,7a0e1e86 <fsel_get_cur_dir_total_files+0x86>
7a0e1e4c:	6f80      	li	a3,128
7a0e1e4e:	d708      	sw	a3,32(sp)
7a0e1e50:	b719      	lw	a3,7a0e1eb4 <fsel_get_cur_dir_total_files+0xb4>
7a0e1e52:	b51d      	lw	a1,7a0e1ec4 <fsel_get_cur_dir_total_files+0xc4>
7a0e1e54:	9f80      	lw	a0,0(a3)
7a0e1e56:	6a01      	li	v0,1
7a0e1e58:	9de1      	lw	a3,4(a1)
7a0e1e5a:	b31a      	lw	v1,7a0e1ec0 <fsel_get_cur_dir_total_files+0xc0>
7a0e1e5c:	9508      	lw	a1,32(sp)
7a0e1e5e:	d204      	sw	v0,16(sp)
7a0e1e60:	eb40      	jalr	v1
7a0e1e62:	6e00      	li	a2,0
7a0e1e64:	2aec      	bnez	v0,7a0e1e3e <fsel_get_cur_dir_total_files+0x3e>
7a0e1e66:	b614      	lw	a2,7a0e1eb4 <fsel_get_cur_dir_total_files+0xb4>
7a0e1e68:	6b03      	li	v1,3
7a0e1e6a:	9e80      	lw	a0,0(a2)
7a0e1e6c:	b513      	lw	a1,7a0e1eb8 <fsel_get_cur_dir_total_files+0xb8>
7a0e1e6e:	b614      	lw	a2,7a0e1ebc <fsel_get_cur_dir_total_files+0xbc>
7a0e1e70:	b214      	lw	v0,7a0e1ec0 <fsel_get_cur_dir_total_files+0xc0>
7a0e1e72:	d304      	sw	v1,16(sp)
7a0e1e74:	ea40      	jalr	v0
7a0e1e76:	6f01      	li	a3,1
7a0e1e78:	2003      	beqz	s0,7a0e1e80 <fsel_get_cur_dir_total_files+0x80>
7a0e1e7a:	b415      	lw	a0,7a0e1ecc <fsel_get_cur_dir_total_files+0xcc>
7a0e1e7c:	6d00      	li	a1,0
7a0e1e7e:	cca0      	sh	a1,0(a0)
7a0e1e80:	6751      	move	v0,s1
7a0e1e82:	6477      	restore	56,ra,s0-s1
7a0e1e84:	e8a0      	jrc	ra
7a0e1e86:	b50c      	lw	a1,7a0e1eb4 <fsel_get_cur_dir_total_files+0xb4>
7a0e1e88:	6e03      	li	a2,3
7a0e1e8a:	9d80      	lw	a0,0(a1)
7a0e1e8c:	b30d      	lw	v1,7a0e1ec0 <fsel_get_cur_dir_total_files+0xc0>
7a0e1e8e:	6d00      	li	a1,0
7a0e1e90:	67e5      	move	a3,a1
7a0e1e92:	d604      	sw	a2,16(sp)
7a0e1e94:	eb40      	jalr	v1
7a0e1e96:	0606      	addiu	a2,sp,24
7a0e1e98:	940e      	lw	a0,56(sp)
7a0e1e9a:	b20c      	lw	v0,7a0e1ec8 <fsel_get_cur_dir_total_files+0xc8>
7a0e1e9c:	0506      	addiu	a1,sp,24
7a0e1e9e:	6e08      	li	a2,8
7a0e1ea0:	ea40      	jalr	v0
7a0e1ea2:	6f02      	li	a3,2
7a0e1ea4:	2ad3      	bnez	v0,7a0e1e4c <fsel_get_cur_dir_total_files+0x4c>
7a0e1ea6:	b00a      	lw	s0,7a0e1ecc <fsel_get_cur_dir_total_files+0xcc>
7a0e1ea8:	6f80      	li	a3,128
7a0e1eaa:	c820      	sh	s1,0(s0)
7a0e1eac:	6702      	move	s0,v0
7a0e1eae:	d708      	sw	a3,32(sp)
7a0e1eb0:	17cf      	b	7a0e1e50 <fsel_get_cur_dir_total_files+0x50>
7a0e1eb2:	0000      	addiu	s0,sp,0
7a0e1eb4:	958c      	lw	a1,560(sp)
7a0e1eb6:	9fc1      	lw	a2,4(a3)
7a0e1eb8:	977c      	lw	a3,496(sp)
7a0e1eba:	9fc1      	lw	a2,4(a3)
7a0e1ebc:	97c8      	lw	a3,800(sp)
7a0e1ebe:	9fc1      	lw	a2,4(a3)
7a0e1ec0:	6015      	bteqz	7a0e1eec <fsel_get_cur_dir_next_file+0x1c>
7a0e1ec2:	bfc2      	lwu	a2,8(a3)
7a0e1ec4:	9764      	lw	a3,400(sp)
7a0e1ec6:	9fc1      	lw	a2,4(a3)
7a0e1ec8:	6009      	bteqz	7a0e1edc <fsel_get_cur_dir_next_file+0xc>
7a0e1eca:	bfc2      	lwu	a2,8(a3)
7a0e1ecc:	9770      	lw	a3,448(sp)
7a0e1ece:	9fc1      	lw	a2,4(a3)

7a0e1ed0 <fsel_get_cur_dir_next_file>:
7a0e1ed0:	64e4      	save	32,ra,s0
7a0e1ed2:	b30d      	lw	v1,7a0e1f04 <fsel_get_cur_dir_next_file+0x34>
7a0e1ed4:	6d82      	li	a1,130
7a0e1ed6:	ab40      	lhu	v0,0(v1)
7a0e1ed8:	2201      	beqz	v0,7a0e1edc <fsel_get_cur_dir_next_file+0xc>
7a0e1eda:	45ae      	addiu	a1,a1,-2
7a0e1edc:	b70b      	lw	a3,7a0e1f08 <fsel_get_cur_dir_next_file+0x38>
7a0e1ede:	b60c      	lw	a2,7a0e1f0c <fsel_get_cur_dir_next_file+0x3c>
7a0e1ee0:	9f80      	lw	a0,0(a3)
7a0e1ee2:	6801      	li	s0,1
7a0e1ee4:	9ee1      	lw	a3,4(a2)
7a0e1ee6:	b20b      	lw	v0,7a0e1f10 <fsel_get_cur_dir_next_file+0x40>
7a0e1ee8:	d004      	sw	s0,16(sp)
7a0e1eea:	ea40      	jalr	v0
7a0e1eec:	6e00      	li	a2,0
7a0e1eee:	651a      	move	t8,v0
7a0e1ef0:	2205      	beqz	v0,7a0e1efc <fsel_get_cur_dir_next_file+0x2c>
7a0e1ef2:	b405      	lw	a0,7a0e1f04 <fsel_get_cur_dir_next_file+0x34>
7a0e1ef4:	6518      	move	t8,s0
7a0e1ef6:	ac60      	lhu	v1,0(a0)
7a0e1ef8:	43a1      	addiu	a1,v1,1
7a0e1efa:	cca0      	sh	a1,0(a0)
7a0e1efc:	6758      	move	v0,t8
7a0e1efe:	6464      	restore	32,ra,s0
7a0e1f00:	e8a0      	jrc	ra
7a0e1f02:	0000      	addiu	s0,sp,0
7a0e1f04:	9770      	lw	a3,448(sp)
7a0e1f06:	9fc1      	lw	a2,4(a3)
7a0e1f08:	958c      	lw	a1,560(sp)
7a0e1f0a:	9fc1      	lw	a2,4(a3)
7a0e1f0c:	9764      	lw	a3,400(sp)
7a0e1f0e:	9fc1      	lw	a2,4(a3)
7a0e1f10:	6015      	bteqz	7a0e1f3c <.L22+0x14>
7a0e1f12:	bfc2      	lwu	a2,8(a3)

7a0e1f14 <fsel_get_disk_dir_next_file>:
7a0e1f14:	64f5      	save	40,ra,s0-s1
7a0e1f16:	1874 87b4 	jal	7a0e1ed0 <fsel_get_cur_dir_next_file>
7a0e1f1a:	6500      	nop
7a0e1f1c:	6f01      	li	a3,1
7a0e1f1e:	2a28      	bnez	v0,7a0e1f70 <.L22+0x48>

7a0e1f20 <.L20>:
7a0e1f20:	b332      	lw	v1,7a0e1fe8 <.L22+0xc0>
7a0e1f22:	a340      	lbu	v0,0(v1)
7a0e1f24:	5a08      	sltiu	v0,8
7a0e1f26:	6127      	btnez	7a0e1f76 <.L22+0x4e>

7a0e1f28 <.L22>:
7a0e1f28:	ea11      	zeb	v0
7a0e1f2a:	2221      	beqz	v0,7a0e1f6e <.L22+0x46>
7a0e1f2c:	b030      	lw	s0,7a0e1fec <.L22+0xc4>
7a0e1f2e:	b131      	lw	s1,7a0e1ff0 <.L22+0xc8>
7a0e1f30:	9880      	lw	a0,0(s0)
7a0e1f32:	6800      	li	s0,0
7a0e1f34:	d004      	sw	s0,16(sp)
7a0e1f36:	6d7c      	li	a1,124
7a0e1f38:	67d0      	move	a2,s0
7a0e1f3a:	e940      	jalr	s1
7a0e1f3c:	67f0      	move	a3,s0
7a0e1f3e:	ea11      	zeb	v0
7a0e1f40:	2216      	beqz	v0,7a0e1f6e <.L22+0x46>
7a0e1f42:	b42a      	lw	a0,7a0e1fe8 <.L22+0xc0>
7a0e1f44:	b52a      	lw	a1,7a0e1fec <.L22+0xc4>
7a0e1f46:	a4e0      	lbu	a3,0(a0)
7a0e1f48:	6a01      	li	v0,1
7a0e1f4a:	47cf      	addiu	a2,a3,-1
7a0e1f4c:	c4c0      	sb	a2,0(a0)
7a0e1f4e:	9d80      	lw	a0,0(a1)
7a0e1f50:	67d0      	move	a2,s0
7a0e1f52:	d204      	sw	v0,16(sp)
7a0e1f54:	6d80      	li	a1,128
7a0e1f56:	e940      	jalr	s1
7a0e1f58:	67e2      	move	a3,v0
7a0e1f5a:	2205      	beqz	v0,7a0e1f66 <.L22+0x3e>
7a0e1f5c:	1816 a280 	jal	7b028a00 <BANK_BACK_ENHANCED_2_ADDR_BASE>
7a0e1f60:	6c80      	li	a0,128
7a0e1f62:	6702      	move	s0,v0
7a0e1f64:	222c      	beqz	v0,7a0e1fbe <.L22+0x96>
7a0e1f66:	b321      	lw	v1,7a0e1fe8 <.L22+0xc0>
7a0e1f68:	a340      	lbu	v0,0(v1)
7a0e1f6a:	ea11      	zeb	v0
7a0e1f6c:	2adf      	bnez	v0,7a0e1f2c <.L22+0x4>
7a0e1f6e:	67e2      	move	a3,v0
7a0e1f70:	6747      	move	v0,a3
7a0e1f72:	6475      	restore	40,ra,s0-s1
7a0e1f74:	e8a0      	jrc	ra
7a0e1f76:	b21e      	lw	v0,7a0e1fec <.L22+0xc4>
7a0e1f78:	6901      	li	s1,1
7a0e1f7a:	9a80      	lw	a0,0(v0)
7a0e1f7c:	b31d      	lw	v1,7a0e1ff0 <.L22+0xc8>
7a0e1f7e:	d104      	sw	s1,16(sp)
7a0e1f80:	6d82      	li	a1,130
7a0e1f82:	6e00      	li	a2,0
7a0e1f84:	eb40      	jalr	v1
7a0e1f86:	67f1      	move	a3,s1
7a0e1f88:	22ee      	beqz	v0,7a0e1f66 <.L22+0x3e>
7a0e1f8a:	1816 a280 	jal	7b028a00 <BANK_BACK_ENHANCED_2_ADDR_BASE>
7a0e1f8e:	6c80      	li	a0,128
7a0e1f90:	6702      	move	s0,v0
7a0e1f92:	2ae9      	bnez	v0,7a0e1f66 <.L22+0x3e>
7a0e1f94:	b516      	lw	a1,7a0e1fec <.L22+0xc4>
7a0e1f96:	b317      	lw	v1,7a0e1ff0 <.L22+0xc8>
7a0e1f98:	9d80      	lw	a0,0(a1)
7a0e1f9a:	67c2      	move	a2,v0
7a0e1f9c:	d204      	sw	v0,16(sp)
7a0e1f9e:	6d2f      	li	a1,47
7a0e1fa0:	eb40      	jalr	v1
7a0e1fa2:	67e2      	move	a3,v0
7a0e1fa4:	ea11      	zeb	v0
7a0e1fa6:	22e3      	beqz	v0,7a0e1f6e <.L22+0x46>
7a0e1fa8:	b610      	lw	a2,7a0e1fe8 <.L22+0xc0>
7a0e1faa:	b413      	lw	a0,7a0e1ff4 <.L22+0xcc>
7a0e1fac:	a640      	lbu	v0,0(a2)
7a0e1fae:	cc00      	sh	s0,0(a0)
7a0e1fb0:	42e1      	addiu	a3,v0,1
7a0e1fb2:	1874 87b4 	jal	7a0e1ed0 <fsel_get_cur_dir_next_file>
7a0e1fb6:	c6e0      	sb	a3,0(a2)
7a0e1fb8:	22b3      	beqz	v0,7a0e1f20 <.L20>
7a0e1fba:	67f1      	move	a3,s1
7a0e1fbc:	17d9      	b	7a0e1f70 <.L22+0x48>
7a0e1fbe:	b30c      	lw	v1,7a0e1fec <.L22+0xc4>
7a0e1fc0:	6d2f      	li	a1,47
7a0e1fc2:	9b80      	lw	a0,0(v1)
7a0e1fc4:	67c2      	move	a2,v0
7a0e1fc6:	d204      	sw	v0,16(sp)
7a0e1fc8:	e940      	jalr	s1
7a0e1fca:	67e2      	move	a3,v0
7a0e1fcc:	ea11      	zeb	v0
7a0e1fce:	22cf      	beqz	v0,7a0e1f6e <.L22+0x46>
7a0e1fd0:	b506      	lw	a1,7a0e1fe8 <.L22+0xc0>
7a0e1fd2:	b209      	lw	v0,7a0e1ff4 <.L22+0xcc>
7a0e1fd4:	a5c0      	lbu	a2,0(a1)
7a0e1fd6:	ca00      	sh	s0,0(v0)
7a0e1fd8:	4681      	addiu	a0,a2,1
7a0e1fda:	1874 87b4 	jal	7a0e1ed0 <fsel_get_cur_dir_next_file>
7a0e1fde:	c580      	sb	a0,0(a1)
7a0e1fe0:	229f      	beqz	v0,7a0e1f20 <.L20>
7a0e1fe2:	6f01      	li	a3,1
7a0e1fe4:	17c5      	b	7a0e1f70 <.L22+0x48>
7a0e1fe6:	0000      	addiu	s0,sp,0
7a0e1fe8:	976d      	lw	a3,436(sp)
7a0e1fea:	9fc1      	lw	a2,4(a3)
7a0e1fec:	958c      	lw	a1,560(sp)
7a0e1fee:	9fc1      	lw	a2,4(a3)
7a0e1ff0:	6015      	bteqz	7a0e201c <fsel_get_all_dirs_total_files+0x24>
7a0e1ff2:	bfc2      	lwu	a2,8(a3)
7a0e1ff4:	9770      	lw	a3,448(sp)
7a0e1ff6:	9fc1      	lw	a2,4(a3)

7a0e1ff8 <fsel_get_all_dirs_total_files>:
7a0e1ff8:	64f7      	save	56,ra,s0-s1
7a0e1ffa:	b428      	lw	a0,7a0e2098 <fsel_get_all_dirs_total_files+0xa0>
7a0e1ffc:	9c60      	lw	v1,0(a0)
7a0e1ffe:	6c00      	li	a0,0
7a0e2000:	ea6f      	not	v0,v1
7a0e2002:	2a03      	bnez	v0,7a0e200a <fsel_get_all_dirs_total_files+0x12>
7a0e2004:	6744      	move	v0,a0
7a0e2006:	6477      	restore	56,ra,s0-s1
7a0e2008:	e8a0      	jrc	ra
7a0e200a:	b525      	lw	a1,7a0e209c <fsel_get_all_dirs_total_files+0xa4>
7a0e200c:	b425      	lw	a0,7a0e20a0 <fsel_get_all_dirs_total_files+0xa8>
7a0e200e:	b727      	lw	a3,7a0e20a8 <fsel_get_all_dirs_total_files+0xb0>
7a0e2010:	ad00      	lhu	s0,0(a1)
7a0e2012:	ac20      	lhu	s1,0(a0)
7a0e2014:	afc0      	lhu	a2,0(a3)
7a0e2016:	b224      	lw	v0,7a0e20a4 <fsel_get_all_dirs_total_files+0xac>
7a0e2018:	6d03      	li	a1,3
7a0e201a:	d006      	sw	s0,24(sp)
7a0e201c:	d107      	sw	s1,28(sp)
7a0e201e:	d608      	sw	a2,32(sp)
7a0e2020:	a220      	lbu	s1,0(v0)
7a0e2022:	b624      	lw	a2,7a0e20b0 <fsel_get_all_dirs_total_files+0xb8>
7a0e2024:	d504      	sw	a1,16(sp)
7a0e2026:	b024      	lw	s0,7a0e20b4 <fsel_get_all_dirs_total_files+0xbc>
7a0e2028:	b521      	lw	a1,7a0e20ac <fsel_get_all_dirs_total_files+0xb4>
7a0e202a:	6783      	move	a0,v1
7a0e202c:	e840      	jalr	s0
7a0e202e:	6f00      	li	a3,0
7a0e2030:	1814 8780 	jal	7a021e00 <BANK_BACK_ENHANCED_1_ADDR_BASE>
7a0e2034:	6800      	li	s0,0
7a0e2036:	1006      	b	7a0e2044 <fsel_get_all_dirs_total_files+0x4c>
7a0e2038:	4061      	addiu	v1,s0,1
7a0e203a:	6703      	move	s0,v1
7a0e203c:	e831      	zeh	s0
7a0e203e:	f382 5808 	sltiu	s0,5000
7a0e2042:	6004      	bteqz	7a0e204c <fsel_get_all_dirs_total_files+0x54>
7a0e2044:	1874 87c5 	jal	7a0e1f14 <fsel_get_disk_dir_next_file>
7a0e2048:	6500      	nop
7a0e204a:	2af6      	bnez	v0,7a0e2038 <fsel_get_all_dirs_total_files+0x40>
7a0e204c:	b313      	lw	v1,7a0e2098 <fsel_get_all_dirs_total_files+0xa0>
7a0e204e:	6d03      	li	a1,3
7a0e2050:	9b80      	lw	a0,0(v1)
7a0e2052:	b618      	lw	a2,7a0e20b0 <fsel_get_all_dirs_total_files+0xb8>
7a0e2054:	d504      	sw	a1,16(sp)
7a0e2056:	b218      	lw	v0,7a0e20b4 <fsel_get_all_dirs_total_files+0xbc>
7a0e2058:	b515      	lw	a1,7a0e20ac <fsel_get_all_dirs_total_files+0xb4>
7a0e205a:	ea40      	jalr	v0
7a0e205c:	6f01      	li	a3,1
7a0e205e:	b717      	lw	a3,7a0e20b8 <fsel_get_all_dirs_total_files+0xc0>
7a0e2060:	a7c0      	lbu	a2,0(a3)
7a0e2062:	7601      	cmpi	a2,1
7a0e2064:	6101      	btnez	7a0e2068 <fsel_get_all_dirs_total_files+0x70>
7a0e2066:	2814      	bnez	s0,7a0e2090 <fsel_get_all_dirs_total_files+0x98>
7a0e2068:	67dd      	move	a2,sp
7a0e206a:	67bd      	move	a1,sp
7a0e206c:	b40d      	lw	a0,7a0e20a0 <fsel_get_all_dirs_total_files+0xa8>
7a0e206e:	ae6e      	lhu	v1,28(a2)
7a0e2070:	ad4c      	lhu	v0,24(a1)
7a0e2072:	b70b      	lw	a3,7a0e209c <fsel_get_all_dirs_total_files+0xa4>
7a0e2074:	cc60      	sh	v1,0(a0)
7a0e2076:	b412      	lw	a0,7a0e20bc <fsel_get_all_dirs_total_files+0xc4>
7a0e2078:	cf40      	sh	v0,0(a3)
7a0e207a:	675d      	move	v0,sp
7a0e207c:	aaf0      	lhu	a3,32(v0)
7a0e207e:	b50a      	lw	a1,7a0e20a4 <fsel_get_all_dirs_total_files+0xac>
7a0e2080:	b60a      	lw	a2,7a0e20a8 <fsel_get_all_dirs_total_files+0xb0>
7a0e2082:	cc00      	sh	s0,0(a0)
7a0e2084:	6790      	move	a0,s0
7a0e2086:	6744      	move	v0,a0
7a0e2088:	c520      	sb	s1,0(a1)
7a0e208a:	cee0      	sh	a3,0(a2)
7a0e208c:	6477      	restore	56,ra,s0-s1
7a0e208e:	e8a0      	jrc	ra
7a0e2090:	1834 8829 	jal	7a0620a4 <fsel_init_shuffle>
7a0e2094:	6790      	move	a0,s0
7a0e2096:	17e8      	b	7a0e2068 <fsel_get_all_dirs_total_files+0x70>
7a0e2098:	958c      	lw	a1,560(sp)
7a0e209a:	9fc1      	lw	a2,4(a3)
7a0e209c:	9770      	lw	a3,448(sp)
7a0e209e:	9fc1      	lw	a2,4(a3)
7a0e20a0:	9772      	lw	a3,456(sp)
7a0e20a2:	9fc1      	lw	a2,4(a3)
7a0e20a4:	976d      	lw	a3,436(sp)
7a0e20a6:	9fc1      	lw	a2,4(a3)
7a0e20a8:	9774      	lw	a3,464(sp)
7a0e20aa:	9fc1      	lw	a2,4(a3)
7a0e20ac:	97d0      	lw	a3,832(sp)
7a0e20ae:	9fc1      	lw	a2,4(a3)
7a0e20b0:	981c      	lw	s0,112(s0)
7a0e20b2:	9fc1      	lw	a2,4(a3)
7a0e20b4:	6015      	bteqz	7a0e20e0 <fsel_dir_get_byno_all+0x20>
7a0e20b6:	bfc2      	lwu	a2,8(a3)
7a0e20b8:	976e      	lw	a3,440(sp)
7a0e20ba:	9fc1      	lw	a2,4(a3)
7a0e20bc:	9776      	lw	a3,472(sp)
7a0e20be:	9fc1      	lw	a2,4(a3)

7a0e20c0 <fsel_dir_get_byno_all>:
7a0e20c0:	f004 64f7 	save	a0,56,ra,s0-s1
7a0e20c4:	b03c      	lw	s0,7a0e21b4 <fsel_dir_get_byno_all+0xf4>
7a0e20c6:	6a01      	li	v0,1
7a0e20c8:	d207      	sw	v0,28(sp)
7a0e20ca:	a840      	lhu	v0,0(s0)
7a0e20cc:	6725      	move	s1,a1
7a0e20ce:	e931      	zeh	s1
7a0e20d0:	220a      	beqz	v0,7a0e20e6 <fsel_dir_get_byno_all+0x26>
7a0e20d2:	ea23      	sltu	v0,s1
7a0e20d4:	6101      	btnez	7a0e20d8 <fsel_dir_get_byno_all+0x18>
7a0e20d6:	290c      	bnez	s1,7a0e20f0 <fsel_dir_get_byno_all+0x30>
7a0e20d8:	67bd      	move	a1,sp
7a0e20da:	b438      	lw	a0,7a0e21b8 <fsel_dir_get_byno_all+0xf8>
7a0e20dc:	a57c      	lbu	v1,28(a1)
7a0e20de:	6a00      	li	v0,0
7a0e20e0:	c460      	sb	v1,0(a0)
7a0e20e2:	6477      	restore	56,ra,s0-s1
7a0e20e4:	e8a0      	jrc	ra
7a0e20e6:	1874 87fe 	jal	7a0e1ff8 <fsel_get_all_dirs_total_files>
7a0e20ea:	6500      	nop
7a0e20ec:	c840      	sh	v0,0(s0)
7a0e20ee:	17f1      	b	7a0e20d2 <fsel_dir_get_byno_all+0x12>
7a0e20f0:	b733      	lw	a3,7a0e21bc <fsel_dir_get_byno_all+0xfc>
7a0e20f2:	b634      	lw	a2,7a0e21c0 <fsel_dir_get_byno_all+0x100>
7a0e20f4:	6a00      	li	v0,0
7a0e20f6:	a780      	lbu	a0,0(a3)
7a0e20f8:	c740      	sb	v0,0(a3)
7a0e20fa:	ae40      	lhu	v0,0(a2)
7a0e20fc:	d406      	sw	a0,24(sp)
7a0e20fe:	6762      	move	v1,v0
7a0e2100:	eb31      	zeh	v1
7a0e2102:	eb23      	sltu	v1,s1
7a0e2104:	6020      	bteqz	7a0e2146 <fsel_dir_get_byno_all+0x86>
7a0e2106:	e14f      	subu	v1,s1,v0
7a0e2108:	eb31      	zeh	v1
7a0e210a:	d308      	sw	v1,32(sp)
7a0e210c:	6800      	li	s0,0
7a0e210e:	2b29      	bnez	v1,7a0e2162 <fsel_dir_get_byno_all+0xa2>
7a0e2110:	9207      	lw	v0,28(sp)
7a0e2112:	7201      	cmpi	v0,1
7a0e2114:	6111      	btnez	7a0e2138 <fsel_dir_get_byno_all+0x78>
7a0e2116:	b62b      	lw	a2,7a0e21c0 <fsel_dir_get_byno_all+0x100>
7a0e2118:	930e      	lw	v1,56(sp)
7a0e211a:	ce20      	sh	s1,0(a2)
7a0e211c:	230d      	beqz	v1,7a0e2138 <fsel_dir_get_byno_all+0x78>
7a0e211e:	b02c      	lw	s0,7a0e21cc <fsel_dir_get_byno_all+0x10c>
7a0e2120:	6d02      	li	a1,2
7a0e2122:	9880      	lw	a0,0(s0)
7a0e2124:	b028      	lw	s0,7a0e21c4 <fsel_dir_get_byno_all+0x104>
7a0e2126:	6e00      	li	a2,0
7a0e2128:	b22b      	lw	v0,7a0e21d4 <fsel_dir_get_byno_all+0x114>
7a0e212a:	d504      	sw	a1,16(sp)
7a0e212c:	67e6      	move	a3,a2
7a0e212e:	ea40      	jalr	v0
7a0e2130:	67b0      	move	a1,s0
7a0e2132:	9880      	lw	a0,0(s0)
7a0e2134:	970e      	lw	a3,56(sp)
7a0e2136:	df80      	sw	a0,0(a3)
7a0e2138:	67fd      	move	a3,sp
7a0e213a:	b621      	lw	a2,7a0e21bc <fsel_dir_get_byno_all+0xfc>
7a0e213c:	a778      	lbu	v1,24(a3)
7a0e213e:	9207      	lw	v0,28(sp)
7a0e2140:	c660      	sb	v1,0(a2)
7a0e2142:	6477      	restore	56,ra,s0-s1
7a0e2144:	e8a0      	jrc	ra
7a0e2146:	e963      	sltu	s1,v1
7a0e2148:	6013      	bteqz	7a0e2170 <fsel_dir_get_byno_all+0xb0>
7a0e214a:	e23f      	subu	a3,v0,s1
7a0e214c:	ef31      	zeh	a3
7a0e214e:	d709      	sw	a3,36(sp)
7a0e2150:	6800      	li	s0,0
7a0e2152:	27de      	beqz	a3,7a0e2110 <fsel_dir_get_byno_all+0x50>
7a0e2154:	1027      	b	7a0e21a4 <fsel_dir_get_byno_all+0xe4>
7a0e2156:	40c1      	addiu	a2,s0,1
7a0e2158:	6706      	move	s0,a2
7a0e215a:	9508      	lw	a1,32(sp)
7a0e215c:	e831      	zeh	s0
7a0e215e:	e8a3      	sltu	s0,a1
7a0e2160:	60d7      	bteqz	7a0e2110 <fsel_dir_get_byno_all+0x50>
7a0e2162:	b419      	lw	a0,7a0e21c4 <fsel_dir_get_byno_all+0x104>
7a0e2164:	1816 a2e7 	jal	7b028b9c <fsel_dir_next_layer>
7a0e2168:	6500      	nop
7a0e216a:	2af5      	bnez	v0,7a0e2156 <fsel_dir_get_byno_all+0x96>
7a0e216c:	d207      	sw	v0,28(sp)
7a0e216e:	17d0      	b	7a0e2110 <fsel_dir_get_byno_all+0x50>
7a0e2170:	7301      	cmpi	v1,1
7a0e2172:	61ce      	btnez	7a0e2110 <fsel_dir_get_byno_all+0x50>
7a0e2174:	b415      	lw	a0,7a0e21c8 <fsel_dir_get_byno_all+0x108>
7a0e2176:	b716      	lw	a3,7a0e21cc <fsel_dir_get_byno_all+0x10c>
7a0e2178:	b616      	lw	a2,7a0e21d0 <fsel_dir_get_byno_all+0x110>
7a0e217a:	6d00      	li	a1,0
7a0e217c:	9307      	lw	v1,28(sp)
7a0e217e:	cca0      	sh	a1,0(a0)
7a0e2180:	b215      	lw	v0,7a0e21d4 <fsel_dir_get_byno_all+0x114>
7a0e2182:	9f80      	lw	a0,0(a3)
7a0e2184:	9ee1      	lw	a3,4(a2)
7a0e2186:	6d82      	li	a1,130
7a0e2188:	d304      	sw	v1,16(sp)
7a0e218a:	ea40      	jalr	v0
7a0e218c:	6e00      	li	a2,0
7a0e218e:	b50e      	lw	a1,7a0e21c4 <fsel_dir_get_byno_all+0x104>
7a0e2190:	dd40      	sw	v0,0(a1)
7a0e2192:	2abe      	bnez	v0,7a0e2110 <fsel_dir_get_byno_all+0x50>
7a0e2194:	d207      	sw	v0,28(sp)
7a0e2196:	17bc      	b	7a0e2110 <fsel_dir_get_byno_all+0x50>
7a0e2198:	4081      	addiu	a0,s0,1
7a0e219a:	6704      	move	s0,a0
7a0e219c:	9209      	lw	v0,36(sp)
7a0e219e:	e831      	zeh	s0
7a0e21a0:	e843      	sltu	s0,v0
7a0e21a2:	60b6      	bteqz	7a0e2110 <fsel_dir_get_byno_all+0x50>
7a0e21a4:	b408      	lw	a0,7a0e21c4 <fsel_dir_get_byno_all+0x104>
7a0e21a6:	1836 a2cd 	jal	7b068b34 <fsel_dir_prev_layer>
7a0e21aa:	6500      	nop
7a0e21ac:	2af5      	bnez	v0,7a0e2198 <fsel_dir_get_byno_all+0xd8>
7a0e21ae:	d207      	sw	v0,28(sp)
7a0e21b0:	17af      	b	7a0e2110 <fsel_dir_get_byno_all+0x50>
7a0e21b2:	0000      	addiu	s0,sp,0
7a0e21b4:	9776      	lw	a3,472(sp)
7a0e21b6:	9fc1      	lw	a2,4(a3)
7a0e21b8:	976c      	lw	a3,432(sp)
7a0e21ba:	9fc1      	lw	a2,4(a3)
7a0e21bc:	976e      	lw	a3,440(sp)
7a0e21be:	9fc1      	lw	a2,4(a3)
7a0e21c0:	9774      	lw	a3,464(sp)
7a0e21c2:	9fc1      	lw	a2,4(a3)
7a0e21c4:	9778      	lw	a3,480(sp)
7a0e21c6:	9fc1      	lw	a2,4(a3)
7a0e21c8:	9770      	lw	a3,448(sp)
7a0e21ca:	9fc1      	lw	a2,4(a3)
7a0e21cc:	958c      	lw	a1,560(sp)
7a0e21ce:	9fc1      	lw	a2,4(a3)
7a0e21d0:	9764      	lw	a3,400(sp)
7a0e21d2:	9fc1      	lw	a2,4(a3)
7a0e21d4:	6015      	bteqz	7a0e2200 <fsel_dir_get_byno+0x28>
7a0e21d6:	bfc2      	lwu	a2,8(a3)

7a0e21d8 <fsel_dir_get_byno>:
7a0e21d8:	f004 64f5 	save	a0,40,ra,s0-s1
7a0e21dc:	b341      	lw	v1,7a0e22e0 <fsel_dir_get_byno+0x108>
7a0e21de:	6705      	move	s0,a1
7a0e21e0:	ab40      	lhu	v0,0(v1)
7a0e21e2:	e831      	zeh	s0
7a0e21e4:	ea03      	sltu	v0,s0
7a0e21e6:	6101      	btnez	7a0e21ea <fsel_dir_get_byno+0x12>
7a0e21e8:	2807      	bnez	s0,7a0e21f8 <fsel_dir_get_byno+0x20>
7a0e21ea:	b43f      	lw	a0,7a0e22e4 <fsel_dir_get_byno+0x10c>
7a0e21ec:	6d01      	li	a1,1
7a0e21ee:	c4a0      	sb	a1,0(a0)
7a0e21f0:	6b00      	li	v1,0
7a0e21f2:	6743      	move	v0,v1
7a0e21f4:	6475      	restore	40,ra,s0-s1
7a0e21f6:	e8a0      	jrc	ra
7a0e21f8:	b63c      	lw	a2,7a0e22e4 <fsel_dir_get_byno+0x10c>
7a0e21fa:	6d82      	li	a1,130
7a0e21fc:	ae40      	lhu	v0,0(a2)
7a0e21fe:	2a36      	bnez	v0,7a0e226c <fsel_dir_get_byno+0x94>
7a0e2200:	6762      	move	v1,v0
7a0e2202:	eb31      	zeh	v1
7a0e2204:	eb03      	sltu	v1,s0
7a0e2206:	6037      	bteqz	7a0e2276 <fsel_dir_get_byno+0x9e>
7a0e2208:	e04f      	subu	v1,s0,v0
7a0e220a:	6723      	move	s1,v1
7a0e220c:	b737      	lw	a3,7a0e22e8 <fsel_dir_get_byno+0x110>
7a0e220e:	6a00      	li	v0,0
7a0e2210:	e931      	zeh	s1
7a0e2212:	cf40      	sh	v0,0(a3)
7a0e2214:	2114      	beqz	s1,7a0e223e <fsel_dir_get_byno+0x66>
7a0e2216:	b737      	lw	a3,7a0e22f0 <fsel_dir_get_byno+0x118>
7a0e2218:	b337      	lw	v1,7a0e22f4 <fsel_dir_get_byno+0x11c>
7a0e221a:	9f80      	lw	a0,0(a3)
7a0e221c:	6e01      	li	a2,1
7a0e221e:	9be1      	lw	a3,4(v1)
7a0e2220:	b236      	lw	v0,7a0e22f8 <fsel_dir_get_byno+0x120>
7a0e2222:	d604      	sw	a2,16(sp)
7a0e2224:	ea40      	jalr	v0
7a0e2226:	6e00      	li	a2,0
7a0e2228:	b431      	lw	a0,7a0e22ec <fsel_dir_get_byno+0x114>
7a0e222a:	dc40      	sw	v0,0(a0)
7a0e222c:	2256      	beqz	v0,7a0e22da <fsel_dir_get_byno+0x102>
7a0e222e:	b52f      	lw	a1,7a0e22e8 <fsel_dir_get_byno+0x110>
7a0e2230:	ad40      	lhu	v0,0(a1)
7a0e2232:	4281      	addiu	a0,v0,1
7a0e2234:	cd80      	sh	a0,0(a1)
7a0e2236:	ec31      	zeh	a0
7a0e2238:	ec23      	sltu	a0,s1
7a0e223a:	6d80      	li	a1,128
7a0e223c:	61ec      	btnez	7a0e2216 <fsel_dir_get_byno+0x3e>
7a0e223e:	b32b      	lw	v1,7a0e22e8 <fsel_dir_get_byno+0x110>
7a0e2240:	b62f      	lw	a2,7a0e22fc <fsel_dir_get_byno+0x124>
7a0e2242:	920a      	lw	v0,40(sp)
7a0e2244:	cb00      	sh	s0,0(v1)
7a0e2246:	ce00      	sh	s0,0(a2)
7a0e2248:	220d      	beqz	v0,7a0e2264 <fsel_dir_get_byno+0x8c>
7a0e224a:	b02a      	lw	s0,7a0e22f0 <fsel_dir_get_byno+0x118>
7a0e224c:	6d02      	li	a1,2
7a0e224e:	9880      	lw	a0,0(s0)
7a0e2250:	b027      	lw	s0,7a0e22ec <fsel_dir_get_byno+0x114>
7a0e2252:	6e00      	li	a2,0
7a0e2254:	b229      	lw	v0,7a0e22f8 <fsel_dir_get_byno+0x120>
7a0e2256:	d504      	sw	a1,16(sp)
7a0e2258:	67e6      	move	a3,a2
7a0e225a:	ea40      	jalr	v0
7a0e225c:	67b0      	move	a1,s0
7a0e225e:	9880      	lw	a0,0(s0)
7a0e2260:	970a      	lw	a3,40(sp)
7a0e2262:	df80      	sw	a0,0(a3)
7a0e2264:	6b01      	li	v1,1
7a0e2266:	6743      	move	v0,v1
7a0e2268:	6475      	restore	40,ra,s0-s1
7a0e226a:	e8a0      	jrc	ra
7a0e226c:	6762      	move	v1,v0
7a0e226e:	eb31      	zeh	v1
7a0e2270:	eb03      	sltu	v1,s0
7a0e2272:	45ae      	addiu	a1,a1,-2
7a0e2274:	61c9      	btnez	7a0e2208 <fsel_dir_get_byno+0x30>
7a0e2276:	e863      	sltu	s0,v1
7a0e2278:	601c      	bteqz	7a0e22b2 <fsel_dir_get_byno+0xda>
7a0e227a:	e21f      	subu	a3,v0,s0
7a0e227c:	6727      	move	s1,a3
7a0e227e:	b61b      	lw	a2,7a0e22e8 <fsel_dir_get_byno+0x110>
7a0e2280:	6b00      	li	v1,0
7a0e2282:	e931      	zeh	s1
7a0e2284:	ce60      	sh	v1,0(a2)
7a0e2286:	21db      	beqz	s1,7a0e223e <fsel_dir_get_byno+0x66>
7a0e2288:	b61b      	lw	a2,7a0e22f4 <fsel_dir_get_byno+0x11c>
7a0e228a:	b31a      	lw	v1,7a0e22f0 <fsel_dir_get_byno+0x118>
7a0e228c:	9ee1      	lw	a3,4(a2)
7a0e228e:	9b80      	lw	a0,0(v1)
7a0e2290:	6d01      	li	a1,1
7a0e2292:	b21a      	lw	v0,7a0e22f8 <fsel_dir_get_byno+0x120>
7a0e2294:	d504      	sw	a1,16(sp)
7a0e2296:	6e00      	li	a2,0
7a0e2298:	ea40      	jalr	v0
7a0e229a:	6d81      	li	a1,129
7a0e229c:	b414      	lw	a0,7a0e22ec <fsel_dir_get_byno+0x114>
7a0e229e:	dc40      	sw	v0,0(a0)
7a0e22a0:	221c      	beqz	v0,7a0e22da <fsel_dir_get_byno+0x102>
7a0e22a2:	b412      	lw	a0,7a0e22e8 <fsel_dir_get_byno+0x110>
7a0e22a4:	ac40      	lhu	v0,0(a0)
7a0e22a6:	42e1      	addiu	a3,v0,1
7a0e22a8:	cce0      	sh	a3,0(a0)
7a0e22aa:	ef31      	zeh	a3
7a0e22ac:	ef23      	sltu	a3,s1
7a0e22ae:	61ec      	btnez	7a0e2288 <fsel_dir_get_byno+0xb0>
7a0e22b0:	17c6      	b	7a0e223e <fsel_dir_get_byno+0x66>
7a0e22b2:	7301      	cmpi	v1,1
7a0e22b4:	61c4      	btnez	7a0e223e <fsel_dir_get_byno+0x66>
7a0e22b6:	b40d      	lw	a0,7a0e22e8 <fsel_dir_get_byno+0x110>
7a0e22b8:	b70e      	lw	a3,7a0e22f0 <fsel_dir_get_byno+0x118>
7a0e22ba:	b30f      	lw	v1,7a0e22f4 <fsel_dir_get_byno+0x11c>
7a0e22bc:	6d00      	li	a1,0
7a0e22be:	cca0      	sh	a1,0(a0)
7a0e22c0:	6e01      	li	a2,1
7a0e22c2:	9f80      	lw	a0,0(a3)
7a0e22c4:	b20d      	lw	v0,7a0e22f8 <fsel_dir_get_byno+0x120>
7a0e22c6:	9be1      	lw	a3,4(v1)
7a0e22c8:	6d82      	li	a1,130
7a0e22ca:	d604      	sw	a2,16(sp)
7a0e22cc:	ea40      	jalr	v0
7a0e22ce:	6e00      	li	a2,0
7a0e22d0:	b507      	lw	a1,7a0e22ec <fsel_dir_get_byno+0x114>
7a0e22d2:	6762      	move	v1,v0
7a0e22d4:	dd40      	sw	v0,0(a1)
7a0e22d6:	228d      	beqz	v0,7a0e21f2 <fsel_dir_get_byno+0x1a>
7a0e22d8:	17b2      	b	7a0e223e <fsel_dir_get_byno+0x66>
7a0e22da:	6762      	move	v1,v0
7a0e22dc:	178a      	b	7a0e21f2 <fsel_dir_get_byno+0x1a>
7a0e22de:	0000      	addiu	s0,sp,0
7a0e22e0:	9772      	lw	a3,456(sp)
7a0e22e2:	9fc1      	lw	a2,4(a3)
7a0e22e4:	976c      	lw	a3,432(sp)
7a0e22e6:	9fc1      	lw	a2,4(a3)
7a0e22e8:	9770      	lw	a3,448(sp)
7a0e22ea:	9fc1      	lw	a2,4(a3)
7a0e22ec:	9778      	lw	a3,480(sp)
7a0e22ee:	9fc1      	lw	a2,4(a3)
7a0e22f0:	958c      	lw	a1,560(sp)
7a0e22f2:	9fc1      	lw	a2,4(a3)
7a0e22f4:	9764      	lw	a3,400(sp)
7a0e22f6:	9fc1      	lw	a2,4(a3)
7a0e22f8:	6015      	bteqz	7a0e2324 <fsel_dir_set_location+0x24>
7a0e22fa:	bfc2      	lwu	a2,8(a3)
7a0e22fc:	9774      	lw	a3,464(sp)
7a0e22fe:	9fc1      	lw	a2,4(a3)

7a0e2300 <fsel_dir_set_location>:
7a0e2300:	64f6      	save	48,ra,s0-s1
7a0e2302:	6704      	move	s0,a0
7a0e2304:	2402      	beqz	a0,7a0e230a <fsel_dir_set_location+0xa>
7a0e2306:	9c41      	lw	v0,4(a0)
7a0e2308:	2a0c      	bnez	v0,7a0e2322 <fsel_dir_set_location+0x22>
7a0e230a:	6c00      	li	a0,0
7a0e230c:	b226      	lw	v0,7a0e23a4 <fsel_dir_set_location+0xa4>
7a0e230e:	ea40      	jalr	v0
7a0e2310:	67a4      	move	a1,a0
7a0e2312:	b526      	lw	a1,7a0e23a8 <fsel_dir_set_location+0xa8>
7a0e2314:	b426      	lw	a0,7a0e23ac <fsel_dir_set_location+0xac>
7a0e2316:	6b00      	li	v1,0
7a0e2318:	cd40      	sh	v0,0(a1)
7a0e231a:	cc60      	sh	v1,0(a0)
7a0e231c:	6a00      	li	v0,0
7a0e231e:	6476      	restore	48,ra,s0-s1
7a0e2320:	e8a0      	jrc	ra
7a0e2322:	67f0      	move	a3,s0
7a0e2324:	b123      	lw	s1,7a0e23b0 <fsel_dir_set_location+0xb0>
7a0e2326:	4f08      	addiu	a3,8
7a0e2328:	d706      	sw	a3,24(sp)
7a0e232a:	6e03      	li	a2,3
7a0e232c:	9980      	lw	a0,0(s1)
7a0e232e:	67b0      	move	a1,s0
7a0e2330:	d604      	sw	a2,16(sp)
7a0e2332:	b121      	lw	s1,7a0e23b4 <fsel_dir_set_location+0xb4>
7a0e2334:	9606      	lw	a2,24(sp)
7a0e2336:	4d10      	addiu	a1,16
7a0e2338:	e940      	jalr	s1
7a0e233a:	6f01      	li	a3,1
7a0e233c:	ea11      	zeb	v0
7a0e233e:	220d      	beqz	v0,7a0e235a <fsel_dir_set_location+0x5a>
7a0e2340:	b61c      	lw	a2,7a0e23b0 <fsel_dir_set_location+0xb0>
7a0e2342:	6a02      	li	v0,2
7a0e2344:	9e80      	lw	a0,0(a2)
7a0e2346:	b51d      	lw	a1,7a0e23b8 <fsel_dir_set_location+0xb8>
7a0e2348:	6e00      	li	a2,0
7a0e234a:	d204      	sw	v0,16(sp)
7a0e234c:	e940      	jalr	s1
7a0e234e:	67e6      	move	a3,a2
7a0e2350:	b41a      	lw	a0,7a0e23b8 <fsel_dir_set_location+0xb8>
7a0e2352:	98a1      	lw	a1,4(s0)
7a0e2354:	9c60      	lw	v1,0(a0)
7a0e2356:	ed6e      	xor	a1,v1
7a0e2358:	250b      	beqz	a1,7a0e2370 <fsel_dir_set_location+0x70>
7a0e235a:	1814 8780 	jal	7a021e00 <BANK_BACK_ENHANCED_1_ADDR_BASE>
7a0e235e:	6500      	nop
7a0e2360:	6c00      	li	a0,0
7a0e2362:	b211      	lw	v0,7a0e23a4 <fsel_dir_set_location+0xa4>
7a0e2364:	ea40      	jalr	v0
7a0e2366:	67a4      	move	a1,a0
7a0e2368:	b710      	lw	a3,7a0e23a8 <fsel_dir_set_location+0xa8>
7a0e236a:	cf40      	sh	v0,0(a3)
7a0e236c:	6a00      	li	v0,0
7a0e236e:	17d7      	b	7a0e231e <fsel_dir_set_location+0x1e>
7a0e2370:	9406      	lw	a0,24(sp)
7a0e2372:	b20d      	lw	v0,7a0e23a4 <fsel_dir_set_location+0xa4>
7a0e2374:	ea40      	jalr	v0
7a0e2376:	6d01      	li	a1,1
7a0e2378:	b60c      	lw	a2,7a0e23a8 <fsel_dir_set_location+0xa8>
7a0e237a:	b50d      	lw	a1,7a0e23ac <fsel_dir_set_location+0xac>
7a0e237c:	ce40      	sh	v0,0(a2)
7a0e237e:	f040 a87e 	lhu	v1,94(s0)
7a0e2382:	b40f      	lw	a0,7a0e23bc <fsel_dir_set_location+0xbc>
7a0e2384:	ade0      	lhu	a3,0(a1)
7a0e2386:	cc60      	sh	v1,0(a0)
7a0e2388:	27e8      	beqz	a3,7a0e235a <fsel_dir_set_location+0x5a>
7a0e238a:	a081      	lbu	a0,1(s0)
7a0e238c:	b50d      	lw	a1,7a0e23c0 <fsel_dir_set_location+0xc0>
7a0e238e:	b20e      	lw	v0,7a0e23c4 <fsel_dir_set_location+0xc4>
7a0e2390:	c580      	sb	a0,0(a1)
7a0e2392:	b40a      	lw	a0,7a0e23b8 <fsel_dir_set_location+0xb8>
7a0e2394:	40a4      	addiu	a1,s0,4
7a0e2396:	6e04      	li	a2,4
7a0e2398:	ea40      	jalr	v0
7a0e239a:	6f00      	li	a3,0
7a0e239c:	6a01      	li	v0,1
7a0e239e:	6476      	restore	48,ra,s0-s1
7a0e23a0:	e8a0      	jrc	ra
7a0e23a2:	0000      	addiu	s0,sp,0
7a0e23a4:	1e01 7a0e 	jalx	70c1e838 <i2s_mfp_cfg+0x10177e30>
7a0e23a8:	9772      	lw	a3,456(sp)
7a0e23aa:	9fc1      	lw	a2,4(a3)
7a0e23ac:	9770      	lw	a3,448(sp)
7a0e23ae:	9fc1      	lw	a2,4(a3)
7a0e23b0:	958c      	lw	a1,560(sp)
7a0e23b2:	9fc1      	lw	a2,4(a3)
7a0e23b4:	6015      	bteqz	7a0e23e0 <fsel_dir_set_location+0xe0>
7a0e23b6:	bfc2      	lwu	a2,8(a3)
7a0e23b8:	9778      	lw	a3,480(sp)
7a0e23ba:	9fc1      	lw	a2,4(a3)
7a0e23bc:	9774      	lw	a3,464(sp)
7a0e23be:	9fc1      	lw	a2,4(a3)
7a0e23c0:	976d      	lw	a3,436(sp)
7a0e23c2:	9fc1      	lw	a2,4(a3)
7a0e23c4:	6009      	bteqz	7a0e23d8 <fsel_dir_set_location+0xd8>
7a0e23c6:	bfc2      	lwu	a2,8(a3)
Disassembly of section BANK_ENHANCED_2_0:

7b028a00 <filtrate_dir>:
7b028a00:	64fa      	save	80,ra,s0-s1
7b028a02:	b229      	lw	v0,7b028aa4 <BANK_BACK_ENHANCED_2_ADDR_BASE+0xa4>
7b028a04:	6724      	move	s1,a0
7b028a06:	a2e0      	lbu	a3,0(v0)
7b028a08:	e911      	zeb	s1
7b028a0a:	6b00      	li	v1,0
7b028a0c:	2703      	beqz	a3,7b028a14 <BANK_BACK_ENHANCED_2_ADDR_BASE+0x14>
7b028a0e:	6743      	move	v0,v1
7b028a10:	647a      	restore	80,ra,s0-s1
7b028a12:	e8a0      	jrc	ra
7b028a14:	b525      	lw	a1,7b028aa4 <BANK_BACK_ENHANCED_2_ADDR_BASE+0xa4>
7b028a16:	6b02      	li	v1,2
7b028a18:	9d80      	lw	a0,0(a1)
7b028a1a:	b225      	lw	v0,7b028aac <BANK_BACK_ENHANCED_2_ADDR_BASE+0xac>
7b028a1c:	d304      	sw	v1,16(sp)
7b028a1e:	0506      	addiu	a1,sp,24
7b028a20:	ea40      	jalr	v0
7b028a22:	6e0e      	li	a2,14
7b028a24:	6762      	move	v1,v0
7b028a26:	eb31      	zeh	v1
7b028a28:	730b      	cmpi	v1,11
7b028a2a:	602e      	bteqz	7b028a88 <BANK_BACK_ENHANCED_2_ADDR_BASE+0x88>
7b028a2c:	7308      	cmpi	v1,8
7b028a2e:	6136      	btnez	7b028a9c <BANK_BACK_ENHANCED_2_ADDR_BASE+0x9c>
7b028a30:	677d      	move	v1,sp
7b028a32:	a358      	lbu	v0,24(v1)
7b028a34:	72ff      	cmpi	v0,255
7b028a36:	6132      	btnez	7b028a9c <BANK_BACK_ENHANCED_2_ADDR_BASE+0x9c>
7b028a38:	f000 061a 	addiu	a2,sp,26
7b028a3c:	6d02      	li	a1,2
7b028a3e:	653e      	move	t9,a2
7b028a40:	d50e      	sw	a1,56(sp)
7b028a42:	6e06      	li	a2,6
7b028a44:	6c00      	li	a0,0
7b028a46:	ecc3      	sltu	a0,a2
7b028a48:	67a4      	move	a1,a0
7b028a4a:	6011      	bteqz	7b028a6e <BANK_BACK_ENHANCED_2_ADDR_BASE+0x6e>
7b028a4c:	b719      	lw	a3,7b028ab0 <BANK_BACK_ENHANCED_2_ADDR_BASE+0xb0>
7b028a4e:	6719      	move	s0,t9
7b028a50:	e4e9      	addu	v0,a0,a3
7b028a52:	e50d      	addu	v1,a1,s0
7b028a54:	a240      	lbu	v0,0(v0)
7b028a56:	a360      	lbu	v1,0(v1)
7b028a58:	ea6e      	xor	v0,v1
7b028a5a:	2a20      	bnez	v0,7b028a9c <BANK_BACK_ENHANCED_2_ADDR_BASE+0x9c>
7b028a5c:	930e      	lw	v1,56(sp)
7b028a5e:	4401      	addiu	s0,a0,1
7b028a60:	6790      	move	a0,s0
7b028a62:	e569      	addu	v0,a1,v1
7b028a64:	ec11      	zeb	a0
7b028a66:	67a2      	move	a1,v0
7b028a68:	ecc3      	sltu	a0,a2
7b028a6a:	ed11      	zeb	a1
7b028a6c:	61f0      	btnez	7b028a4e <BANK_BACK_ENHANCED_2_ADDR_BASE+0x4e>
7b028a6e:	b70f      	lw	a3,7b028aa8 <BANK_BACK_ENHANCED_2_ADDR_BASE+0xa8>
7b028a70:	6801      	li	s0,1
7b028a72:	9f80      	lw	a0,0(a3)
7b028a74:	b20e      	lw	v0,7b028aac <BANK_BACK_ENHANCED_2_ADDR_BASE+0xac>
7b028a76:	d004      	sw	s0,16(sp)
7b028a78:	67b1      	move	a1,s1
7b028a7a:	6e00      	li	a2,0
7b028a7c:	ea40      	jalr	v0
7b028a7e:	67f0      	move	a3,s0
7b028a80:	6b00      	li	v1,0
7b028a82:	2ac5      	bnez	v0,7b028a0e <BANK_BACK_ENHANCED_2_ADDR_BASE+0xe>
7b028a84:	6770      	move	v1,s0
7b028a86:	17c3      	b	7b028a0e <BANK_BACK_ENHANCED_2_ADDR_BASE+0xe>
7b028a88:	679d      	move	a0,sp
7b028a8a:	a4d8      	lbu	a2,24(a0)
7b028a8c:	76ff      	cmpi	a2,255
7b028a8e:	60ce      	bteqz	7b028a2c <BANK_BACK_ENHANCED_2_ADDR_BASE+0x2c>
7b028a90:	0006      	addiu	s0,sp,24
7b028a92:	6f01      	li	a3,1
7b028a94:	6538      	move	t9,s0
7b028a96:	6e08      	li	a2,8
7b028a98:	d70e      	sw	a3,56(sp)
7b028a9a:	17d4      	b	7b028a44 <BANK_BACK_ENHANCED_2_ADDR_BASE+0x44>
7b028a9c:	6b00      	li	v1,0
7b028a9e:	6743      	move	v0,v1
7b028aa0:	647a      	restore	80,ra,s0-s1
7b028aa2:	e8a0      	jrc	ra
7b028aa4:	976d      	lw	a3,436(sp)
7b028aa6:	9fc1      	lw	a2,4(a3)
7b028aa8:	958c      	lw	a1,560(sp)
7b028aaa:	9fc1      	lw	a2,4(a3)
7b028aac:	6015      	bteqz	7b028ad8 <fsel_dir_next+0x24>
7b028aae:	bfc2      	lwu	a2,8(a3)
7b028ab0:	8e84      	lh	a0,8(a2)
7b028ab2:	7b02      	sd	s0,16(v1)

7b028ab4 <fsel_dir_next>:
7b028ab4:	64f5      	save	40,ra,s0-s1
7b028ab6:	b230      	lw	v0,7b028b74 <fsel_dir_next+0xc0>
7b028ab8:	6724      	move	s1,a0
7b028aba:	aa60      	lhu	v1,0(v0)
7b028abc:	6743      	move	v0,v1
7b028abe:	2332      	beqz	v1,7b028b24 <fsel_dir_next+0x70>
7b028ac0:	b52e      	lw	a1,7b028b78 <fsel_dir_next+0xc4>
7b028ac2:	a580      	lbu	a0,0(a1)
7b028ac4:	7401      	cmpi	a0,1
7b028ac6:	6036      	bteqz	7b028b34 <fsel_dir_next+0x80>
7b028ac8:	b52f      	lw	a1,7b028b84 <fsel_dir_next+0xd0>
7b028aca:	ad80      	lhu	a0,0(a1)
7b028acc:	6744      	move	v0,a0
7b028ace:	ea6e      	xor	v0,v1
7b028ad0:	222b      	beqz	v0,7b028b28 <fsel_dir_next+0x74>
7b028ad2:	6d82      	li	a1,130
7b028ad4:	2401      	beqz	a0,7b028ad8 <fsel_dir_next+0x24>
7b028ad6:	45ae      	addiu	a1,a1,-2
7b028ad8:	b72d      	lw	a3,7b028b8c <fsel_dir_next+0xd8>
7b028ada:	b32e      	lw	v1,7b028b90 <fsel_dir_next+0xdc>
7b028adc:	9f80      	lw	a0,0(a3)
7b028ade:	6e01      	li	a2,1
7b028ae0:	9be1      	lw	a3,4(v1)
7b028ae2:	b22d      	lw	v0,7b028b94 <fsel_dir_next+0xe0>
7b028ae4:	d604      	sw	a2,16(sp)
7b028ae6:	ea40      	jalr	v0
7b028ae8:	6e00      	li	a2,0
7b028aea:	b328      	lw	v1,7b028b88 <fsel_dir_next+0xd4>
7b028aec:	db40      	sw	v0,0(v1)
7b028aee:	2231      	beqz	v0,7b028b52 <fsel_dir_next+0x9e>
7b028af0:	b725      	lw	a3,7b028b84 <fsel_dir_next+0xd0>
7b028af2:	b223      	lw	v0,7b028b7c <fsel_dir_next+0xc8>
7b028af4:	afa0      	lhu	a1,0(a3)
7b028af6:	b320      	lw	v1,7b028b74 <fsel_dir_next+0xc0>
7b028af8:	4581      	addiu	a0,a1,1
7b028afa:	abc0      	lhu	a2,0(v1)
7b028afc:	aaa0      	lhu	a1,0(v0)
7b028afe:	cf80      	sh	a0,0(a3)
7b028b00:	edce      	xor	a1,a2
7b028b02:	2d32      	bnez	a1,7b028b68 <fsel_dir_next+0xb4>
7b028b04:	b625      	lw	a2,7b028b98 <fsel_dir_next+0xe4>
7b028b06:	ce80      	sh	a0,0(a2)
7b028b08:	210c      	beqz	s1,7b028b22 <fsel_dir_next+0x6e>
7b028b0a:	b021      	lw	s0,7b028b8c <fsel_dir_next+0xd8>
7b028b0c:	6d02      	li	a1,2
7b028b0e:	9880      	lw	a0,0(s0)
7b028b10:	b01e      	lw	s0,7b028b88 <fsel_dir_next+0xd4>
7b028b12:	6e00      	li	a2,0
7b028b14:	b220      	lw	v0,7b028b94 <fsel_dir_next+0xe0>
7b028b16:	d504      	sw	a1,16(sp)
7b028b18:	67e6      	move	a3,a2
7b028b1a:	ea40      	jalr	v0
7b028b1c:	67b0      	move	a1,s0
7b028b1e:	98e0      	lw	a3,0(s0)
7b028b20:	d9e0      	sw	a3,0(s1)
7b028b22:	6a01      	li	v0,1
7b028b24:	6475      	restore	40,ra,s0-s1
7b028b26:	e8a0      	jrc	ra
7b028b28:	b416      	lw	a0,7b028b7c <fsel_dir_next+0xc8>
7b028b2a:	6e01      	li	a2,1
7b028b2c:	6a00      	li	v0,0
7b028b2e:	c4c0      	sb	a2,0(a0)
7b028b30:	6475      	restore	40,ra,s0-s1
7b028b32:	e8a0      	jrc	ra
7b028b34:	1834 8869 	jal	7a0621a4 <fsel_shuffle_next_file>
7b028b38:	6500      	nop
7b028b3a:	6702      	move	s0,v0
7b028b3c:	2a0f      	bnez	v0,7b028b5c <fsel_dir_next+0xa8>
7b028b3e:	b710      	lw	a3,7b028b7c <fsel_dir_next+0xc8>
7b028b40:	1834 8829 	jal	7a0620a4 <fsel_init_shuffle>
7b028b44:	af80      	lhu	a0,0(a3)
7b028b46:	b60f      	lw	a2,7b028b80 <fsel_dir_next+0xcc>
7b028b48:	6b01      	li	v1,1
7b028b4a:	6750      	move	v0,s0
7b028b4c:	c660      	sb	v1,0(a2)
7b028b4e:	6475      	restore	40,ra,s0-s1
7b028b50:	e8a0      	jrc	ra
7b028b52:	b60c      	lw	a2,7b028b80 <fsel_dir_next+0xcc>
7b028b54:	6c06      	li	a0,6
7b028b56:	c680      	sb	a0,0(a2)
7b028b58:	6475      	restore	40,ra,s0-s1
7b028b5a:	e8a0      	jrc	ra
7b028b5c:	6791      	move	a0,s1
7b028b5e:	1874 8830 	jal	7a0e20c0 <fsel_dir_get_byno_all>
7b028b62:	67a2      	move	a1,v0
7b028b64:	6475      	restore	40,ra,s0-s1
7b028b66:	e8a0      	jrc	ra
7b028b68:	b40c      	lw	a0,7b028b94 <fsel_dir_next+0xe0>
7b028b6a:	ac40      	lhu	v0,0(a0)
7b028b6c:	4261      	addiu	v1,v0,1
7b028b6e:	cc60      	sh	v1,0(a0)
7b028b70:	17cb      	b	7b028b08 <fsel_dir_next+0x54>
7b028b72:	0000      	addiu	s0,sp,0
7b028b74:	9772      	lw	a3,456(sp)
7b028b76:	9fc1      	lw	a2,4(a3)
7b028b78:	976e      	lw	a3,440(sp)
7b028b7a:	9fc1      	lw	a2,4(a3)
7b028b7c:	9776      	lw	a3,472(sp)
7b028b7e:	9fc1      	lw	a2,4(a3)
7b028b80:	976c      	lw	a3,432(sp)
7b028b82:	9fc1      	lw	a2,4(a3)
7b028b84:	9770      	lw	a3,448(sp)
7b028b86:	9fc1      	lw	a2,4(a3)
7b028b88:	9778      	lw	a3,480(sp)
7b028b8a:	9fc1      	lw	a2,4(a3)
7b028b8c:	958c      	lw	a1,560(sp)
7b028b8e:	9fc1      	lw	a2,4(a3)
7b028b90:	9764      	lw	a3,400(sp)
7b028b92:	9fc1      	lw	a2,4(a3)
7b028b94:	6015      	bteqz	7b028bc0 <.L39+0x8>
7b028b96:	bfc2      	lwu	a2,8(a3)
7b028b98:	9774      	lw	a3,464(sp)
7b028b9a:	9fc1      	lw	a2,4(a3)

7b028b9c <fsel_dir_next_layer>:
7b028b9c:	f004 64f5 	save	a0,40,ra,s0-s1
7b028ba0:	b14c      	lw	s1,7b028cd0 <.L39+0x118>
7b028ba2:	a900      	lhu	s0,0(s1)
7b028ba4:	2047      	beqz	s0,7b028c34 <.L39+0x7c>
7b028ba6:	1816 a2ad 	jal	7b028ab4 <fsel_dir_next>
7b028baa:	940a      	lw	a0,40(sp)
7b028bac:	6f01      	li	a3,1
7b028bae:	2a32      	bnez	v0,7b028c14 <.L39+0x5c>

7b028bb0 <.L37>:
7b028bb0:	b34b      	lw	v1,7b028cdc <.L39+0x124>
7b028bb2:	a340      	lbu	v0,0(v1)
7b028bb4:	5a08      	sltiu	v0,8
7b028bb6:	6131      	btnez	7b028c1a <.L39+0x62>

7b028bb8 <.L39>:
7b028bb8:	6702      	move	s0,v0
7b028bba:	e811      	zeb	s0
7b028bbc:	2024      	beqz	s0,7b028c06 <.L39+0x4e>
7b028bbe:	b749      	lw	a3,7b028ce0 <.L39+0x128>
7b028bc0:	6900      	li	s1,0
7b028bc2:	9f80      	lw	a0,0(a3)
7b028bc4:	b348      	lw	v1,7b028ce4 <.L39+0x12c>
7b028bc6:	d104      	sw	s1,16(sp)
7b028bc8:	6d7c      	li	a1,124
7b028bca:	67d1      	move	a2,s1
7b028bcc:	eb40      	jalr	v1
7b028bce:	67f1      	move	a3,s1
7b028bd0:	6702      	move	s0,v0
7b028bd2:	e811      	zeb	s0
7b028bd4:	206f      	beqz	s0,7b028cb4 <.L39+0xfc>
7b028bd6:	b642      	lw	a2,7b028cdc <.L39+0x124>
7b028bd8:	b542      	lw	a1,7b028ce0 <.L39+0x128>
7b028bda:	a660      	lbu	v1,0(a2)
7b028bdc:	6a01      	li	v0,1
7b028bde:	438f      	addiu	a0,v1,-1
7b028be0:	c680      	sb	a0,0(a2)
7b028be2:	b041      	lw	s0,7b028ce4 <.L39+0x12c>
7b028be4:	9d80      	lw	a0,0(a1)
7b028be6:	67d1      	move	a2,s1
7b028be8:	d204      	sw	v0,16(sp)
7b028bea:	6d80      	li	a1,128
7b028bec:	e840      	jalr	s0
7b028bee:	67e2      	move	a3,v0
7b028bf0:	221e      	beqz	v0,7b028c2e <.L39+0x76>
7b028bf2:	1816 a280 	jal	7b028a00 <BANK_BACK_ENHANCED_2_ADDR_BASE>
7b028bf6:	6c80      	li	a0,128
7b028bf8:	6702      	move	s0,v0
7b028bfa:	2224      	beqz	v0,7b028c44 <.L39+0x8c>
7b028bfc:	b438      	lw	a0,7b028cdc <.L39+0x124>
7b028bfe:	a440      	lbu	v0,0(a0)
7b028c00:	6702      	move	s0,v0
7b028c02:	e811      	zeb	s0
7b028c04:	28dc      	bnez	s0,7b028bbe <.L39+0x6>
7b028c06:	1814 8780 	jal	7a021e00 <BANK_BACK_ENHANCED_1_ADDR_BASE>
7b028c0a:	6500      	nop
7b028c0c:	6b01      	li	v1,1
7b028c0e:	b737      	lw	a3,7b028ce8 <.L39+0x130>
7b028c10:	c760      	sb	v1,0(a3)
7b028c12:	67f0      	move	a3,s0
7b028c14:	6747      	move	v0,a3
7b028c16:	6475      	restore	40,ra,s0-s1
7b028c18:	e8a0      	jrc	ra
7b028c1a:	b532      	lw	a1,7b028ce0 <.L39+0x128>
7b028c1c:	6801      	li	s0,1
7b028c1e:	9d80      	lw	a0,0(a1)
7b028c20:	b131      	lw	s1,7b028ce4 <.L39+0x12c>
7b028c22:	d004      	sw	s0,16(sp)
7b028c24:	6d82      	li	a1,130
7b028c26:	6e00      	li	a2,0
7b028c28:	e940      	jalr	s1
7b028c2a:	67f0      	move	a3,s0
7b028c2c:	2a29      	bnez	v0,7b028c80 <.L39+0xc8>
7b028c2e:	b02c      	lw	s0,7b028cdc <.L39+0x124>
7b028c30:	a040      	lbu	v0,0(s0)
7b028c32:	17c2      	b	7b028bb8 <.L39>
7b028c34:	b228      	lw	v0,7b028cd4 <.L39+0x11c>
7b028c36:	6790      	move	a0,s0
7b028c38:	ea40      	jalr	v0
7b028c3a:	67b0      	move	a1,s0
7b028c3c:	c940      	sh	v0,0(s1)
7b028c3e:	b227      	lw	v0,7b028cd8 <.L39+0x120>
7b028c40:	ca00      	sh	s0,0(v0)
7b028c42:	17b1      	b	7b028ba6 <fsel_dir_next_layer+0xa>
7b028c44:	b127      	lw	s1,7b028ce0 <.L39+0x128>
7b028c46:	b328      	lw	v1,7b028ce4 <.L39+0x12c>
7b028c48:	9980      	lw	a0,0(s1)
7b028c4a:	6d2f      	li	a1,47
7b028c4c:	67c2      	move	a2,v0
7b028c4e:	67e2      	move	a3,v0
7b028c50:	eb40      	jalr	v1
7b028c52:	d204      	sw	v0,16(sp)
7b028c54:	b722      	lw	a3,7b028cdc <.L39+0x124>
7b028c56:	b220      	lw	v0,7b028cd4 <.L39+0x11c>
7b028c58:	a7c0      	lbu	a2,0(a3)
7b028c5a:	6790      	move	a0,s0
7b028c5c:	46a1      	addiu	a1,a2,1
7b028c5e:	c7a0      	sb	a1,0(a3)
7b028c60:	ea40      	jalr	v0
7b028c62:	67b0      	move	a1,s0
7b028c64:	b11b      	lw	s1,7b028cd0 <.L39+0x118>
7b028c66:	c940      	sh	v0,0(s1)
7b028c68:	b41c      	lw	a0,7b028cd8 <.L39+0x120>
7b028c6a:	6730      	move	s1,s0
7b028c6c:	cc00      	sh	s0,0(a0)
7b028c6e:	22a0      	beqz	v0,7b028bb0 <.L37>
7b028c70:	1816 a2ad 	jal	7b028ab4 <fsel_dir_next>
7b028c74:	940a      	lw	a0,40(sp)
7b028c76:	229c      	beqz	v0,7b028bb0 <.L37>
7b028c78:	b21c      	lw	v0,7b028ce8 <.L39+0x130>
7b028c7a:	6f01      	li	a3,1
7b028c7c:	c200      	sb	s0,0(v0)
7b028c7e:	17ca      	b	7b028c14 <.L39+0x5c>
7b028c80:	1816 a280 	jal	7b028a00 <BANK_BACK_ENHANCED_2_ADDR_BASE>
7b028c84:	6c80      	li	a0,128
7b028c86:	6702      	move	s0,v0
7b028c88:	2ab9      	bnez	v0,7b028bfc <.L39+0x44>
7b028c8a:	b616      	lw	a2,7b028ce0 <.L39+0x128>
7b028c8c:	6d2f      	li	a1,47
7b028c8e:	9e80      	lw	a0,0(a2)
7b028c90:	67e2      	move	a3,v0
7b028c92:	d204      	sw	v0,16(sp)
7b028c94:	e940      	jalr	s1
7b028c96:	67c2      	move	a2,v0
7b028c98:	6722      	move	s1,v0
7b028c9a:	e911      	zeb	s1
7b028c9c:	2110      	beqz	s1,7b028cbe <.L39+0x106>
7b028c9e:	b20e      	lw	v0,7b028cd4 <.L39+0x11c>
7b028ca0:	6790      	move	a0,s0
7b028ca2:	ea40      	jalr	v0
7b028ca4:	67b0      	move	a1,s0
7b028ca6:	b40e      	lw	a0,7b028cdc <.L39+0x124>
7b028ca8:	b30a      	lw	v1,7b028cd0 <.L39+0x118>
7b028caa:	a420      	lbu	s1,0(a0)
7b028cac:	cb40      	sh	v0,0(v1)
7b028cae:	41e1      	addiu	a3,s1,1
7b028cb0:	c4e0      	sb	a3,0(a0)
7b028cb2:	17da      	b	7b028c68 <.L39+0xb0>
7b028cb4:	1814 8780 	jal	7a021e00 <BANK_BACK_ENHANCED_1_ADDR_BASE>
7b028cb8:	6500      	nop
7b028cba:	6b05      	li	v1,5
7b028cbc:	17a8      	b	7b028c0e <.L39+0x56>
7b028cbe:	1814 8780 	jal	7a021e00 <BANK_BACK_ENHANCED_1_ADDR_BASE>
7b028cc2:	6500      	nop
7b028cc4:	b509      	lw	a1,7b028ce8 <.L39+0x130>
7b028cc6:	6e01      	li	a2,1
7b028cc8:	67f1      	move	a3,s1
7b028cca:	c5c0      	sb	a2,0(a1)
7b028ccc:	17a3      	b	7b028c14 <.L39+0x5c>
7b028cce:	0000      	addiu	s0,sp,0
7b028cd0:	9772      	lw	a3,456(sp)
7b028cd2:	9fc1      	lw	a2,4(a3)
7b028cd4:	1e01 7a0e 	jalx	70c1e838 <i2s_mfp_cfg+0x10177e30>
7b028cd8:	9770      	lw	a3,448(sp)
7b028cda:	9fc1      	lw	a2,4(a3)
7b028cdc:	976d      	lw	a3,436(sp)
7b028cde:	9fc1      	lw	a2,4(a3)
7b028ce0:	958c      	lw	a1,560(sp)
7b028ce2:	9fc1      	lw	a2,4(a3)
7b028ce4:	6015      	bteqz	7b028d10 <fsel_dir_get_next+0x24>
7b028ce6:	bfc2      	lwu	a2,8(a3)
7b028ce8:	976c      	lw	a3,432(sp)
7b028cea:	9fc1      	lw	a2,4(a3)

7b028cec <fsel_dir_get_next>:
7b028cec:	64f5      	save	40,ra,s0-s1
7b028cee:	b227      	lw	v0,7b028d88 <fsel_dir_get_next+0x9c>
7b028cf0:	6724      	move	s1,a0
7b028cf2:	a241      	lbu	v0,1(v0)
7b028cf4:	7201      	cmpi	v0,1
7b028cf6:	6015      	bteqz	7b028d22 <fsel_dir_get_next+0x36>
7b028cf8:	5202      	slti	v0,2
7b028cfa:	612d      	btnez	7b028d56 <fsel_dir_get_next+0x6a>
7b028cfc:	7202      	cmpi	v0,2
7b028cfe:	6030      	bteqz	7b028d60 <fsel_dir_get_next+0x74>
7b028d00:	7203      	cmpi	v0,3
7b028d02:	612a      	btnez	7b028d58 <fsel_dir_get_next+0x6c>
7b028d04:	1816 a2e7 	jal	7b028b9c <fsel_dir_next_layer>
7b028d08:	6791      	move	a0,s1
7b028d0a:	6b01      	li	v1,1
7b028d0c:	2a1b      	bnez	v0,7b028d44 <fsel_dir_get_next+0x58>
7b028d0e:	1814 8780 	jal	7a021e00 <BANK_BACK_ENHANCED_1_ADDR_BASE>
7b028d12:	6500      	nop
7b028d14:	1816 a2e7 	jal	7b028b9c <fsel_dir_next_layer>
7b028d18:	6791      	move	a0,s1
7b028d1a:	6762      	move	v1,v0
7b028d1c:	6743      	move	v0,v1
7b028d1e:	6475      	restore	40,ra,s0-s1
7b028d20:	e8a0      	jrc	ra
7b028d22:	b416      	lw	a0,7b028d78 <fsel_dir_get_next+0x8c>
7b028d24:	ac60      	lhu	v1,0(a0)
7b028d26:	2311      	beqz	v1,7b028d4a <fsel_dir_get_next+0x5e>
7b028d28:	210c      	beqz	s1,7b028d42 <fsel_dir_get_next+0x56>
7b028d2a:	b715      	lw	a3,7b028d7c <fsel_dir_get_next+0x90>
7b028d2c:	b015      	lw	s0,7b028d80 <fsel_dir_get_next+0x94>
7b028d2e:	6e02      	li	a2,2
7b028d30:	9f80      	lw	a0,0(a3)
7b028d32:	b215      	lw	v0,7b028d84 <fsel_dir_get_next+0x98>
7b028d34:	d604      	sw	a2,16(sp)
7b028d36:	6e00      	li	a2,0
7b028d38:	67b0      	move	a1,s0
7b028d3a:	ea40      	jalr	v0
7b028d3c:	67e6      	move	a3,a2
7b028d3e:	98a0      	lw	a1,0(s0)
7b028d40:	d9a0      	sw	a1,0(s1)
7b028d42:	6b01      	li	v1,1
7b028d44:	6743      	move	v0,v1
7b028d46:	6475      	restore	40,ra,s0-s1
7b028d48:	e8a0      	jrc	ra
7b028d4a:	6791      	move	a0,s1
7b028d4c:	1874 8876 	jal	7a0e21d8 <fsel_dir_get_byno>
7b028d50:	6d01      	li	a1,1
7b028d52:	6762      	move	v1,v0
7b028d54:	17e3      	b	7b028d1c <fsel_dir_get_next+0x30>
7b028d56:	22d6      	beqz	v0,7b028d04 <fsel_dir_get_next+0x18>
7b028d58:	6b00      	li	v1,0
7b028d5a:	6743      	move	v0,v1
7b028d5c:	6475      	restore	40,ra,s0-s1
7b028d5e:	e8a0      	jrc	ra
7b028d60:	1816 a2ad 	jal	7b028ab4 <fsel_dir_next>
7b028d64:	6500      	nop
7b028d66:	6b01      	li	v1,1
7b028d68:	2aed      	bnez	v0,7b028d44 <fsel_dir_get_next+0x58>
7b028d6a:	b304      	lw	v1,7b028d78 <fsel_dir_get_next+0x8c>
7b028d6c:	6791      	move	a0,s1
7b028d6e:	1816 a2ad 	jal	7b028ab4 <fsel_dir_next>
7b028d72:	cb40      	sh	v0,0(v1)
7b028d74:	6762      	move	v1,v0
7b028d76:	17d2      	b	7b028d1c <fsel_dir_get_next+0x30>
7b028d78:	9770      	lw	a3,448(sp)
7b028d7a:	9fc1      	lw	a2,4(a3)
7b028d7c:	958c      	lw	a1,560(sp)
7b028d7e:	9fc1      	lw	a2,4(a3)
7b028d80:	9778      	lw	a3,480(sp)
7b028d82:	9fc1      	lw	a2,4(a3)
7b028d84:	6015      	bteqz	7b028db0 <fsel_dir_next_dir+0x24>
7b028d86:	bfc2      	lwu	a2,8(a3)
7b028d88:	9764      	lw	a3,400(sp)
7b028d8a:	9fc1      	lw	a2,4(a3)

7b028d8c <fsel_dir_next_dir>:
7b028d8c:	64f5      	save	40,ra,s0-s1
7b028d8e:	6724      	move	s1,a0
7b028d90:	b513      	lw	a1,7b028ddc <fsel_dir_next_dir+0x50>
7b028d92:	b412      	lw	a0,7b028dd8 <fsel_dir_next_dir+0x4c>
7b028d94:	ad60      	lhu	v1,0(a1)
7b028d96:	ac00      	lhu	s0,0(a0)
7b028d98:	b712      	lw	a3,7b028de0 <fsel_dir_next_dir+0x54>
7b028d9a:	e07b      	subu	a2,s0,v1
7b028d9c:	af60      	lhu	v1,0(a3)
7b028d9e:	b012      	lw	s0,7b028de4 <fsel_dir_next_dir+0x58>
7b028da0:	e669      	addu	v0,a2,v1
7b028da2:	cc40      	sh	v0,0(a0)
7b028da4:	cd60      	sh	v1,0(a1)
7b028da6:	1816 a33b 	jal	7b028cec <fsel_dir_get_next>
7b028daa:	6790      	move	a0,s0
7b028dac:	7201      	cmpi	v0,1
7b028dae:	6111      	btnez	7b028dd2 <fsel_dir_next_dir+0x46>
7b028db0:	98a0      	lw	a1,0(s0)
7b028db2:	250f      	beqz	a1,7b028dd2 <fsel_dir_next_dir+0x46>
7b028db4:	210b      	beqz	s1,7b028dcc <fsel_dir_next_dir+0x40>
7b028db6:	b70d      	lw	a3,7b028de8 <fsel_dir_next_dir+0x5c>
7b028db8:	6e02      	li	a2,2
7b028dba:	9f80      	lw	a0,0(a3)
7b028dbc:	b20c      	lw	v0,7b028dec <fsel_dir_next_dir+0x60>
7b028dbe:	d604      	sw	a2,16(sp)
7b028dc0:	6e00      	li	a2,0
7b028dc2:	67b0      	move	a1,s0
7b028dc4:	ea40      	jalr	v0
7b028dc6:	67e6      	move	a3,a2
7b028dc8:	9880      	lw	a0,0(s0)
7b028dca:	d980      	sw	a0,0(s1)
7b028dcc:	6a01      	li	v0,1
7b028dce:	6475      	restore	40,ra,s0-s1
7b028dd0:	e8a0      	jrc	ra
7b028dd2:	6a00      	li	v0,0
7b028dd4:	6475      	restore	40,ra,s0-s1
7b028dd6:	e8a0      	jrc	ra
7b028dd8:	9774      	lw	a3,464(sp)
7b028dda:	9fc1      	lw	a2,4(a3)
7b028ddc:	9770      	lw	a3,448(sp)
7b028dde:	9fc1      	lw	a2,4(a3)
7b028de0:	9772      	lw	a3,456(sp)
7b028de2:	9fc1      	lw	a2,4(a3)
7b028de4:	9778      	lw	a3,480(sp)
7b028de6:	9fc1      	lw	a2,4(a3)
7b028de8:	958c      	lw	a1,560(sp)
7b028dea:	9fc1      	lw	a2,4(a3)
7b028dec:	6015      	bteqz	7b028e18 <fsel_get_dir_name+0x28>
7b028dee:	bfc2      	lwu	a2,8(a3)

7b028df0 <fsel_get_dir_name>:
7b028df0:	64f6      	save	48,ra,s0-s1
7b028df2:	ed11      	zeb	a1
7b028df4:	6800      	li	s0,0
7b028df6:	6724      	move	s1,a0
7b028df8:	d506      	sw	a1,24(sp)
7b028dfa:	6750      	move	v0,s0
7b028dfc:	2420      	beqz	a0,7b028e3e <fsel_get_dir_name+0x4e>
7b028dfe:	a641      	lbu	v0,1(a2)
7b028e00:	2220      	beqz	v0,7b028e42 <fsel_get_dir_name+0x52>
7b028e02:	b71d      	lw	a3,7b028e74 <fsel_get_dir_name+0x84>
7b028e04:	6e03      	li	a2,3
7b028e06:	9f80      	lw	a0,0(a3)
7b028e08:	b51c      	lw	a1,7b028e78 <fsel_get_dir_name+0x88>
7b028e0a:	d604      	sw	a2,16(sp)
7b028e0c:	b31d      	lw	v1,7b028e80 <fsel_get_dir_name+0x90>
7b028e0e:	b61c      	lw	a2,7b028e7c <fsel_get_dir_name+0x8c>
7b028e10:	eb40      	jalr	v1
7b028e12:	67f0      	move	a3,s0
7b028e14:	b518      	lw	a1,7b028e74 <fsel_get_dir_name+0x84>
7b028e16:	b31b      	lw	v1,7b028e80 <fsel_get_dir_name+0x90>
7b028e18:	9d80      	lw	a0,0(a1)
7b028e1a:	67d0      	move	a2,s0
7b028e1c:	d004      	sw	s0,16(sp)
7b028e1e:	6d7c      	li	a1,124
7b028e20:	eb40      	jalr	v1
7b028e22:	67f0      	move	a3,s0
7b028e24:	ea11      	zeb	v0
7b028e26:	7201      	cmpi	v0,1
7b028e28:	6014      	bteqz	7b028e52 <fsel_get_dir_name+0x62>
7b028e2a:	b713      	lw	a3,7b028e74 <fsel_get_dir_name+0x84>
7b028e2c:	6e03      	li	a2,3
7b028e2e:	9f80      	lw	a0,0(a3)
7b028e30:	b512      	lw	a1,7b028e78 <fsel_get_dir_name+0x88>
7b028e32:	d604      	sw	a2,16(sp)
7b028e34:	b313      	lw	v1,7b028e80 <fsel_get_dir_name+0x90>
7b028e36:	b612      	lw	a2,7b028e7c <fsel_get_dir_name+0x8c>
7b028e38:	eb40      	jalr	v1
7b028e3a:	6f01      	li	a3,1
7b028e3c:	6750      	move	v0,s0
7b028e3e:	6476      	restore	48,ra,s0-s1
7b028e40:	e8a0      	jrc	ra
7b028e42:	b50b      	lw	a1,7b028e6c <fsel_get_dir_name+0x7c>
7b028e44:	b20b      	lw	v0,7b028e70 <fsel_get_dir_name+0x80>
7b028e46:	6e05      	li	a2,5
7b028e48:	ea40      	jalr	v0
7b028e4a:	67f0      	move	a3,s0
7b028e4c:	6a01      	li	v0,1
7b028e4e:	6476      	restore	48,ra,s0-s1
7b028e50:	e8a0      	jrc	ra
7b028e52:	b509      	lw	a1,7b028e74 <fsel_get_dir_name+0x84>
7b028e54:	6a02      	li	v0,2
7b028e56:	9d80      	lw	a0,0(a1)
7b028e58:	67f0      	move	a3,s0
7b028e5a:	9606      	lw	a2,24(sp)
7b028e5c:	b009      	lw	s0,7b028e80 <fsel_get_dir_name+0x90>
7b028e5e:	d204      	sw	v0,16(sp)
7b028e60:	e840      	jalr	s0
7b028e62:	67b1      	move	a1,s1
7b028e64:	6702      	move	s0,v0
7b028e66:	e811      	zeb	s0
7b028e68:	17e0      	b	7b028e2a <fsel_get_dir_name+0x3a>
7b028e6a:	0000      	addiu	s0,sp,0
7b028e6c:	8e90      	lh	a0,32(a2)
7b028e6e:	7b02      	sd	s0,16(v1)
7b028e70:	6009      	bteqz	7b028e84 <rec_dir_name>
7b028e72:	bfc2      	lwu	a2,8(a3)
7b028e74:	958c      	lw	a1,560(sp)
7b028e76:	9fc1      	lw	a2,4(a3)
7b028e78:	97d0      	lw	a3,832(sp)
7b028e7a:	9fc1      	lw	a2,4(a3)
7b028e7c:	981c      	lw	s0,112(s0)
7b028e7e:	9fc1      	lw	a2,4(a3)
7b028e80:	6015      	bteqz	7b028eac <root_str+0x1c>
7b028e82:	bfc2      	lwu	a2,8(a3)

7b028e84 <rec_dir_name>:
7b028e84:	4552 4f43 4452 2020 0000 0000               RECORD  ....

7b028e90 <root_str>:
7b028e90:	4f52 544f 0000 0000                         ROOT....
Disassembly of section BANK_ENHANCED_2_1:

7b068a00 <fsel_dir_prev>:
7b068a00:	64f5      	save	40,ra,s0-s1
7b068a02:	b331      	lw	v1,7b068ac4 <fsel_dir_prev+0xc4>
7b068a04:	6724      	move	s1,a0
7b068a06:	ab80      	lhu	a0,0(v1)
7b068a08:	6881      	li	s0,129
7b068a0a:	6744      	move	v0,a0
7b068a0c:	ea31      	zeh	v0
7b068a0e:	67a2      	move	a1,v0
7b068a10:	2237      	beqz	v0,7b068a80 <fsel_dir_prev+0x80>
7b068a12:	b62e      	lw	a2,7b068ac8 <fsel_dir_prev+0xc8>
7b068a14:	a6a0      	lbu	a1,0(a2)
7b068a16:	7501      	cmpi	a1,1
7b068a18:	603d      	bteqz	7b068a94 <fsel_dir_prev+0x94>
7b068a1a:	b62e      	lw	a2,7b068ad0 <fsel_dir_prev+0xd0>
7b068a1c:	ae40      	lhu	v0,0(a2)
7b068a1e:	6762      	move	v1,v0
7b068a20:	eb31      	zeh	v1
7b068a22:	7301      	cmpi	v1,1
7b068a24:	6030      	bteqz	7b068a86 <fsel_dir_prev+0x86>
7b068a26:	2b45      	bnez	v1,7b068ab2 <fsel_dir_prev+0xb2>
7b068a28:	ce80      	sh	a0,0(a2)
7b068a2a:	6883      	li	s0,131
7b068a2c:	b72c      	lw	a3,7b068adc <fsel_dir_prev+0xdc>
7b068a2e:	b32d      	lw	v1,7b068ae0 <fsel_dir_prev+0xe0>
7b068a30:	9f80      	lw	a0,0(a3)
7b068a32:	6d01      	li	a1,1
7b068a34:	9be1      	lw	a3,4(v1)
7b068a36:	b22c      	lw	v0,7b068ae4 <fsel_dir_prev+0xe4>
7b068a38:	d504      	sw	a1,16(sp)
7b068a3a:	6e00      	li	a2,0
7b068a3c:	ea40      	jalr	v0
7b068a3e:	67b0      	move	a1,s0
7b068a40:	b626      	lw	a2,7b068ad8 <fsel_dir_prev+0xd8>
7b068a42:	67a2      	move	a1,v0
7b068a44:	de40      	sw	v0,0(a2)
7b068a46:	2231      	beqz	v0,7b068aaa <fsel_dir_prev+0xaa>
7b068a48:	b028      	lw	s0,7b068ae8 <fsel_dir_prev+0xe8>
7b068a4a:	a880      	lhu	a0,0(s0)
7b068a4c:	5c02      	sltiu	a0,2
7b068a4e:	444f      	addiu	v0,a0,-1
7b068a50:	6008      	bteqz	7b068a62 <fsel_dir_prev+0x62>
7b068a52:	b61f      	lw	a2,7b068acc <fsel_dir_prev+0xcc>
7b068a54:	ae40      	lhu	v0,0(a2)
7b068a56:	2a05      	bnez	v0,7b068a62 <fsel_dir_prev+0x62>
7b068a58:	1874 87fe 	jal	7a0e1ff8 <fsel_get_all_dirs_total_files>
7b068a5c:	6500      	nop
7b068a5e:	b51c      	lw	a1,7b068acc <fsel_dir_prev+0xcc>
7b068a60:	cd40      	sh	v0,0(a1)
7b068a62:	c840      	sh	v0,0(s0)
7b068a64:	210c      	beqz	s1,7b068a7e <fsel_dir_prev+0x7e>
7b068a66:	b01e      	lw	s0,7b068adc <fsel_dir_prev+0xdc>
7b068a68:	6b02      	li	v1,2
7b068a6a:	9880      	lw	a0,0(s0)
7b068a6c:	b01b      	lw	s0,7b068ad8 <fsel_dir_prev+0xd8>
7b068a6e:	6e00      	li	a2,0
7b068a70:	b21d      	lw	v0,7b068ae4 <fsel_dir_prev+0xe4>
7b068a72:	d304      	sw	v1,16(sp)
7b068a74:	67b0      	move	a1,s0
7b068a76:	ea40      	jalr	v0
7b068a78:	67e6      	move	a3,a2
7b068a7a:	9840      	lw	v0,0(s0)
7b068a7c:	d940      	sw	v0,0(s1)
7b068a7e:	6d01      	li	a1,1
7b068a80:	6745      	move	v0,a1
7b068a82:	6475      	restore	40,ra,s0-s1
7b068a84:	e8a0      	jrc	ra
7b068a86:	b414      	lw	a0,7b068ad4 <fsel_dir_prev+0xd4>
7b068a88:	6a01      	li	v0,1
7b068a8a:	6d00      	li	a1,0
7b068a8c:	c440      	sb	v0,0(a0)
7b068a8e:	6745      	move	v0,a1
7b068a90:	6475      	restore	40,ra,s0-s1
7b068a92:	e8a0      	jrc	ra
7b068a94:	1834 8897 	jal	7a06225c <fsel_shuffle_prev_file>
7b068a98:	6500      	nop
7b068a9a:	6702      	move	s0,v0
7b068a9c:	2a0d      	bnez	v0,7b068ab8 <fsel_dir_prev+0xb8>
7b068a9e:	b70c      	lw	a3,7b068acc <fsel_dir_prev+0xcc>
7b068aa0:	1834 8829 	jal	7a0620a4 <fsel_init_shuffle>
7b068aa4:	af80      	lhu	a0,0(a3)
7b068aa6:	67b0      	move	a1,s0
7b068aa8:	17eb      	b	7b068a80 <fsel_dir_prev+0x80>
7b068aaa:	b70b      	lw	a3,7b068ad4 <fsel_dir_prev+0xd4>
7b068aac:	6c06      	li	a0,6
7b068aae:	c780      	sb	a0,0(a3)
7b068ab0:	17e7      	b	7b068a80 <fsel_dir_prev+0x80>
7b068ab2:	426f      	addiu	v1,v0,-1
7b068ab4:	ce60      	sh	v1,0(a2)
7b068ab6:	17ba      	b	7b068a2c <fsel_dir_prev+0x2c>
7b068ab8:	67a2      	move	a1,v0
7b068aba:	1874 8830 	jal	7a0e20c0 <fsel_dir_get_byno_all>
7b068abe:	6791      	move	a0,s1
7b068ac0:	67a2      	move	a1,v0
7b068ac2:	17de      	b	7b068a80 <fsel_dir_prev+0x80>
7b068ac4:	9772      	lw	a3,456(sp)
7b068ac6:	9fc1      	lw	a2,4(a3)
7b068ac8:	976e      	lw	a3,440(sp)
7b068aca:	9fc1      	lw	a2,4(a3)
7b068acc:	9776      	lw	a3,472(sp)
7b068ace:	9fc1      	lw	a2,4(a3)
7b068ad0:	9770      	lw	a3,448(sp)
7b068ad2:	9fc1      	lw	a2,4(a3)
7b068ad4:	976c      	lw	a3,432(sp)
7b068ad6:	9fc1      	lw	a2,4(a3)
7b068ad8:	9778      	lw	a3,480(sp)
7b068ada:	9fc1      	lw	a2,4(a3)
7b068adc:	958c      	lw	a1,560(sp)
7b068ade:	9fc1      	lw	a2,4(a3)
7b068ae0:	9764      	lw	a3,400(sp)
7b068ae2:	9fc1      	lw	a2,4(a3)
7b068ae4:	6015      	bteqz	7b068b10 <fsel_last_dir+0x24>
7b068ae6:	bfc2      	lwu	a2,8(a3)
7b068ae8:	9774      	lw	a3,464(sp)
7b068aea:	9fc1      	lw	a2,4(a3)

7b068aec <fsel_last_dir>:
7b068aec:	64e4      	save	32,ra,s0
7b068aee:	b30f      	lw	v1,7b068b28 <fsel_last_dir+0x3c>
7b068af0:	a340      	lbu	v0,0(v1)
7b068af2:	5a08      	sltiu	v0,8
7b068af4:	6a00      	li	v0,0
7b068af6:	6102      	btnez	7b068afc <fsel_last_dir+0x10>
7b068af8:	6464      	restore	32,ra,s0
7b068afa:	e8a0      	jrc	ra
7b068afc:	b50c      	lw	a1,7b068b28 <fsel_last_dir+0x3c>
7b068afe:	6801      	li	s0,1
7b068b00:	9d80      	lw	a0,0(a1)
7b068b02:	b20c      	lw	v0,7b068b30 <fsel_last_dir+0x44>
7b068b04:	d004      	sw	s0,16(sp)
7b068b06:	6d83      	li	a1,131
7b068b08:	6e00      	li	a2,0
7b068b0a:	ea40      	jalr	v0
7b068b0c:	67f0      	move	a3,s0
7b068b0e:	2a03      	bnez	v0,7b068b16 <fsel_last_dir+0x2a>
7b068b10:	6a00      	li	v0,0
7b068b12:	6464      	restore	32,ra,s0
7b068b14:	e8a0      	jrc	ra
7b068b16:	1816 a280 	jal	7b028a00 <BANK_BACK_ENHANCED_2_ADDR_BASE>
7b068b1a:	6c81      	li	a0,129
7b068b1c:	ea0a      	cmp	v0,s0
7b068b1e:	6750      	move	v0,s0
7b068b20:	61eb      	btnez	7b068af8 <fsel_last_dir+0xc>
7b068b22:	6a00      	li	v0,0
7b068b24:	17f6      	b	7b068b12 <fsel_last_dir+0x26>
7b068b26:	0000      	addiu	s0,sp,0
7b068b28:	976d      	lw	a3,436(sp)
7b068b2a:	9fc1      	lw	a2,4(a3)
7b068b2c:	958c      	lw	a1,560(sp)
7b068b2e:	9fc1      	lw	a2,4(a3)
7b068b30:	6015      	bteqz	7b068b5c <.L27+0x14>
7b068b32:	bfc2      	lwu	a2,8(a3)

7b068b34 <fsel_dir_prev_layer>:
7b068b34:	f004 64f5 	save	a0,40,ra,s0-s1
7b068b38:	b03b      	lw	s0,7b068c24 <.L27+0xdc>
7b068b3a:	a8a0      	lhu	a1,0(s0)
7b068b3c:	2564      	beqz	a1,7b068c06 <.L27+0xbe>
7b068b3e:	1836 a280 	jal	7b068a00 <fsel_dir_prev>
7b068b42:	940a      	lw	a0,40(sp)
7b068b44:	6b01      	li	v1,1
7b068b46:	2a2f      	bnez	v0,7b068ba6 <.L27+0x5e>

7b068b48 <.L27>:
7b068b48:	b339      	lw	v1,7b068c2c <.L27+0xe4>
7b068b4a:	a340      	lbu	v0,0(v1)
7b068b4c:	222b      	beqz	v0,7b068ba4 <.L27+0x5c>
7b068b4e:	b539      	lw	a1,7b068c30 <.L27+0xe8>
7b068b50:	6900      	li	s1,0
7b068b52:	9d80      	lw	a0,0(a1)
7b068b54:	b038      	lw	s0,7b068c34 <.L27+0xec>
7b068b56:	d104      	sw	s1,16(sp)
7b068b58:	6d7c      	li	a1,124
7b068b5a:	67d1      	move	a2,s1
7b068b5c:	e840      	jalr	s0
7b068b5e:	67f1      	move	a3,s1
7b068b60:	6702      	move	s0,v0
7b068b62:	e811      	zeb	s0
7b068b64:	2055      	beqz	s0,7b068c10 <.L27+0xc8>
7b068b66:	b432      	lw	a0,7b068c2c <.L27+0xe4>
7b068b68:	b632      	lw	a2,7b068c30 <.L27+0xe8>
7b068b6a:	a440      	lbu	v0,0(a0)
7b068b6c:	b332      	lw	v1,7b068c34 <.L27+0xec>
7b068b6e:	42ef      	addiu	a3,v0,-1
7b068b70:	c4e0      	sb	a3,0(a0)
7b068b72:	9e80      	lw	a0,0(a2)
7b068b74:	6f01      	li	a3,1
7b068b76:	d704      	sw	a3,16(sp)
7b068b78:	6d81      	li	a1,129
7b068b7a:	eb40      	jalr	v1
7b068b7c:	67d1      	move	a2,s1
7b068b7e:	2205      	beqz	v0,7b068b8a <.L27+0x42>
7b068b80:	1816 a280 	jal	7b028a00 <BANK_BACK_ENHANCED_2_ADDR_BASE>
7b068b84:	6c81      	li	a0,129
7b068b86:	6702      	move	s0,v0
7b068b88:	2211      	beqz	v0,7b068bac <.L27+0x64>
7b068b8a:	6c00      	li	a0,0
7b068b8c:	b227      	lw	v0,7b068c28 <.L27+0xe0>
7b068b8e:	ea40      	jalr	v0
7b068b90:	67a4      	move	a1,a0
7b068b92:	b725      	lw	a3,7b068c24 <.L27+0xdc>
7b068b94:	cf40      	sh	v0,0(a3)
7b068b96:	22d8      	beqz	v0,7b068b48 <.L27>
7b068b98:	b528      	lw	a1,7b068c38 <.L27+0xf0>
7b068b9a:	6b00      	li	v1,0
7b068b9c:	cd60      	sh	v1,0(a1)
7b068b9e:	1836 a280 	jal	7b068a00 <fsel_dir_prev>
7b068ba2:	940a      	lw	a0,40(sp)
7b068ba4:	6762      	move	v1,v0
7b068ba6:	6743      	move	v0,v1
7b068ba8:	6475      	restore	40,ra,s0-s1
7b068baa:	e8a0      	jrc	ra
7b068bac:	b621      	lw	a2,7b068c2c <.L27+0xe4>
7b068bae:	b122      	lw	s1,7b068c34 <.L27+0xec>
7b068bb0:	9e80      	lw	a0,0(a2)
7b068bb2:	6d2f      	li	a1,47
7b068bb4:	d204      	sw	v0,16(sp)
7b068bb6:	67c2      	move	a2,v0
7b068bb8:	e940      	jalr	s1
7b068bba:	67e2      	move	a3,v0
7b068bbc:	b11c      	lw	s1,7b068c2c <.L27+0xe4>
7b068bbe:	a160      	lbu	v1,0(s1)
7b068bc0:	43a1      	addiu	a1,v1,1
7b068bc2:	c1a0      	sb	a1,0(s1)
7b068bc4:	6730      	move	s1,s0
7b068bc6:	1010      	b	7b068be8 <.L27+0xa0>
7b068bc8:	b31a      	lw	v1,7b068c30 <.L27+0xe8>
7b068bca:	b01b      	lw	s0,7b068c34 <.L27+0xec>
7b068bcc:	9b80      	lw	a0,0(v1)
7b068bce:	6d2f      	li	a1,47
7b068bd0:	67f1      	move	a3,s1
7b068bd2:	d104      	sw	s1,16(sp)
7b068bd4:	e840      	jalr	s0
7b068bd6:	67d1      	move	a2,s1
7b068bd8:	b715      	lw	a3,7b068c2c <.L27+0xe4>
7b068bda:	b413      	lw	a0,7b068c24 <.L27+0xdc>
7b068bdc:	a7a0      	lbu	a1,0(a3)
7b068bde:	b017      	lw	s0,7b068c38 <.L27+0xf0>
7b068be0:	4541      	addiu	v0,a1,1
7b068be2:	c740      	sb	v0,0(a3)
7b068be4:	cc20      	sh	s1,0(a0)
7b068be6:	c820      	sh	s1,0(s0)
7b068be8:	1836 a2bb 	jal	7b068aec <fsel_last_dir>
7b068bec:	6500      	nop
7b068bee:	6702      	move	s0,v0
7b068bf0:	2aeb      	bnez	v0,7b068bc8 <.L27+0x80>
7b068bf2:	6782      	move	a0,v0
7b068bf4:	67a2      	move	a1,v0
7b068bf6:	b20d      	lw	v0,7b068c28 <.L27+0xe0>
7b068bf8:	eac0      	jalrc	v0
7b068bfa:	b60b      	lw	a2,7b068c24 <.L27+0xdc>
7b068bfc:	ce40      	sh	v0,0(a2)
7b068bfe:	22a4      	beqz	v0,7b068b48 <.L27>
7b068c00:	b40e      	lw	a0,7b068c38 <.L27+0xf0>
7b068c02:	cc00      	sh	s0,0(a0)
7b068c04:	17cc      	b	7b068b9e <.L27+0x56>
7b068c06:	b209      	lw	v0,7b068c28 <.L27+0xe0>
7b068c08:	ea40      	jalr	v0
7b068c0a:	6785      	move	a0,a1
7b068c0c:	c840      	sh	v0,0(s0)
7b068c0e:	1797      	b	7b068b3e <fsel_dir_prev_layer+0xa>
7b068c10:	1814 8780 	jal	7a021e00 <BANK_BACK_ENHANCED_1_ADDR_BASE>
7b068c14:	6500      	nop
7b068c16:	b60a      	lw	a2,7b068c3c <.L27+0xf4>
7b068c18:	6770      	move	v1,s0
7b068c1a:	6c01      	li	a0,1
7b068c1c:	6743      	move	v0,v1
7b068c1e:	c680      	sb	a0,0(a2)
7b068c20:	6475      	restore	40,ra,s0-s1
7b068c22:	e8a0      	jrc	ra
7b068c24:	9772      	lw	a3,456(sp)
7b068c26:	9fc1      	lw	a2,4(a3)
7b068c28:	1e01 7a0e 	jalx	70c1e838 <i2s_mfp_cfg+0x10177e30>
7b068c2c:	976d      	lw	a3,436(sp)
7b068c2e:	9fc1      	lw	a2,4(a3)
7b068c30:	958c      	lw	a1,560(sp)
7b068c32:	9fc1      	lw	a2,4(a3)
7b068c34:	6015      	bteqz	7b068c60 <fsel_dir_get_prev+0x20>
7b068c36:	bfc2      	lwu	a2,8(a3)
7b068c38:	9770      	lw	a3,448(sp)
7b068c3a:	9fc1      	lw	a2,4(a3)
7b068c3c:	976c      	lw	a3,432(sp)
7b068c3e:	9fc1      	lw	a2,4(a3)

7b068c40 <fsel_dir_get_prev>:
7b068c40:	f004 64f5 	save	a0,40,ra,s0-s1
7b068c44:	b239      	lw	v0,7b068d28 <.L58+0xba>
7b068c46:	a241      	lbu	v0,1(v0)
7b068c48:	7201      	cmpi	v0,1
7b068c4a:	6030      	bteqz	7b068cac <.L58+0x3e>
7b068c4c:	5202      	slti	v0,2
7b068c4e:	6148      	btnez	7b068ce0 <.L58+0x72>
7b068c50:	7202      	cmpi	v0,2
7b068c52:	6051      	bteqz	7b068cf6 <.L58+0x88>
7b068c54:	7203      	cmpi	v0,3
7b068c56:	6145      	btnez	7b068ce2 <.L58+0x74>
7b068c58:	b62f      	lw	a2,7b068d14 <.L58+0xa6>
7b068c5a:	aea0      	lhu	a1,0(a2)
7b068c5c:	2d03      	bnez	a1,7b068c64 <fsel_dir_get_prev+0x24>
7b068c5e:	b432      	lw	a0,7b068d24 <.L58+0xb6>
7b068c60:	a4e0      	lbu	a3,0(a0)
7b068c62:	2705      	beqz	a3,7b068c6e <.L58>
7b068c64:	1836 a2cd 	jal	7b068b34 <fsel_dir_prev_layer>
7b068c68:	940a      	lw	a0,40(sp)
7b068c6a:	6b01      	li	v1,1
7b068c6c:	2a1c      	bnez	v0,7b068ca6 <.L58+0x38>

7b068c6e <.L58>:
7b068c6e:	1814 8780 	jal	7a021e00 <BANK_BACK_ENHANCED_1_ADDR_BASE>
7b068c72:	6800      	li	s0,0
7b068c74:	b12c      	lw	s1,7b068d24 <.L58+0xb6>
7b068c76:	100f      	b	7b068c96 <.L58+0x28>
7b068c78:	b728      	lw	a3,7b068d18 <.L58+0xaa>
7b068c7a:	b22a      	lw	v0,7b068d20 <.L58+0xb2>
7b068c7c:	9f80      	lw	a0,0(a3)
7b068c7e:	6d2f      	li	a1,47
7b068c80:	67d0      	move	a2,s0
7b068c82:	d004      	sw	s0,16(sp)
7b068c84:	ea40      	jalr	v0
7b068c86:	67f0      	move	a3,s0
7b068c88:	a1c0      	lbu	a2,0(s1)
7b068c8a:	b322      	lw	v1,7b068d10 <.L58+0xa2>
7b068c8c:	b222      	lw	v0,7b068d14 <.L58+0xa6>
7b068c8e:	46a1      	addiu	a1,a2,1
7b068c90:	c1a0      	sb	a1,0(s1)
7b068c92:	cb00      	sh	s0,0(v1)
7b068c94:	ca00      	sh	s0,0(v0)
7b068c96:	1836 a2bb 	jal	7b068aec <fsel_last_dir>
7b068c9a:	6500      	nop
7b068c9c:	2aed      	bnez	v0,7b068c78 <.L58+0xa>
7b068c9e:	1836 a2cd 	jal	7b068b34 <fsel_dir_prev_layer>
7b068ca2:	940a      	lw	a0,40(sp)
7b068ca4:	6762      	move	v1,v0
7b068ca6:	6743      	move	v0,v1
7b068ca8:	6475      	restore	40,ra,s0-s1
7b068caa:	e8a0      	jrc	ra
7b068cac:	b319      	lw	v1,7b068d0c <.L58+0x9e>
7b068cae:	ab80      	lhu	a0,0(v1)
7b068cb0:	6764      	move	v1,a0
7b068cb2:	24f9      	beqz	a0,7b068ca6 <.L58+0x38>
7b068cb4:	b618      	lw	a2,7b068d14 <.L58+0xa6>
7b068cb6:	aea0      	lhu	a1,0(a2)
7b068cb8:	2518      	beqz	a1,7b068cea <.L58+0x7c>
7b068cba:	970a      	lw	a3,40(sp)
7b068cbc:	270d      	beqz	a3,7b068cd8 <.L58+0x6a>
7b068cbe:	b017      	lw	s0,7b068d18 <.L58+0xaa>
7b068cc0:	6b02      	li	v1,2
7b068cc2:	9880      	lw	a0,0(s0)
7b068cc4:	b016      	lw	s0,7b068d1c <.L58+0xae>
7b068cc6:	6e00      	li	a2,0
7b068cc8:	b216      	lw	v0,7b068d20 <.L58+0xb2>
7b068cca:	d304      	sw	v1,16(sp)
7b068ccc:	67b0      	move	a1,s0
7b068cce:	ea40      	jalr	v0
7b068cd0:	67e6      	move	a3,a2
7b068cd2:	9840      	lw	v0,0(s0)
7b068cd4:	940a      	lw	a0,40(sp)
7b068cd6:	dc40      	sw	v0,0(a0)
7b068cd8:	6b01      	li	v1,1
7b068cda:	6743      	move	v0,v1
7b068cdc:	6475      	restore	40,ra,s0-s1
7b068cde:	e8a0      	jrc	ra
7b068ce0:	22bb      	beqz	v0,7b068c58 <fsel_dir_get_prev+0x18>
7b068ce2:	6b00      	li	v1,0
7b068ce4:	6743      	move	v0,v1
7b068ce6:	6475      	restore	40,ra,s0-s1
7b068ce8:	e8a0      	jrc	ra
7b068cea:	940a      	lw	a0,40(sp)
7b068cec:	1874 8876 	jal	7a0e21d8 <fsel_dir_get_byno>
7b068cf0:	6d01      	li	a1,1
7b068cf2:	6762      	move	v1,v0
7b068cf4:	17d8      	b	7b068ca6 <.L58+0x38>
7b068cf6:	1836 a280 	jal	7b068a00 <fsel_dir_prev>
7b068cfa:	940a      	lw	a0,40(sp)
7b068cfc:	6b01      	li	v1,1
7b068cfe:	2ad3      	bnez	v0,7b068ca6 <.L58+0x38>
7b068d00:	b305      	lw	v1,7b068d14 <.L58+0xa6>
7b068d02:	940a      	lw	a0,40(sp)
7b068d04:	1836 a280 	jal	7b068a00 <fsel_dir_prev>
7b068d08:	cb40      	sh	v0,0(v1)
7b068d0a:	6762      	move	v1,v0
7b068d0c:	17cc      	b	7b068ca6 <.L58+0x38>
7b068d0e:	0000      	addiu	s0,sp,0
7b068d10:	9772      	lw	a3,456(sp)
7b068d12:	9fc1      	lw	a2,4(a3)
7b068d14:	9770      	lw	a3,448(sp)
7b068d16:	9fc1      	lw	a2,4(a3)
7b068d18:	958c      	lw	a1,560(sp)
7b068d1a:	9fc1      	lw	a2,4(a3)
7b068d1c:	9778      	lw	a3,480(sp)
7b068d1e:	9fc1      	lw	a2,4(a3)
7b068d20:	6015      	bteqz	7b068d4c <fsel_dir_prev_dir+0x20>
7b068d22:	bfc2      	lwu	a2,8(a3)
7b068d24:	976d      	lw	a3,436(sp)
7b068d26:	9fc1      	lw	a2,4(a3)
7b068d28:	9764      	lw	a3,400(sp)
7b068d2a:	9fc1      	lw	a2,4(a3)

7b068d2c <fsel_dir_prev_dir>:
7b068d2c:	64f5      	save	40,ra,s0-s1
7b068d2e:	6724      	move	s1,a0
7b068d30:	b513      	lw	a1,7b068d7c <fsel_dir_prev_dir+0x50>
7b068d32:	b412      	lw	a0,7b068d78 <fsel_dir_prev_dir+0x4c>
7b068d34:	ad00      	lhu	s0,0(a1)
7b068d36:	ace0      	lhu	a3,0(a0)
7b068d38:	6a01      	li	v0,1
7b068d3a:	e71b      	subu	a2,a3,s0
7b068d3c:	b011      	lw	s0,7b068d80 <fsel_dir_prev_dir+0x54>
7b068d3e:	4661      	addiu	v1,a2,1
7b068d40:	cc60      	sh	v1,0(a0)
7b068d42:	cd40      	sh	v0,0(a1)
7b068d44:	1836 a310 	jal	7b068c40 <fsel_dir_get_prev>
7b068d48:	6790      	move	a0,s0
7b068d4a:	7201      	cmpi	v0,1
7b068d4c:	6111      	btnez	7b068d70 <fsel_dir_prev_dir+0x44>
7b068d4e:	98a0      	lw	a1,0(s0)
7b068d50:	250f      	beqz	a1,7b068d70 <fsel_dir_prev_dir+0x44>
7b068d52:	210b      	beqz	s1,7b068d6a <fsel_dir_prev_dir+0x3e>
7b068d54:	b60c      	lw	a2,7b068d84 <fsel_dir_prev_dir+0x58>
7b068d56:	6b02      	li	v1,2
7b068d58:	9e80      	lw	a0,0(a2)
7b068d5a:	b20c      	lw	v0,7b068d88 <fsel_dir_prev_dir+0x5c>
7b068d5c:	6e00      	li	a2,0
7b068d5e:	d304      	sw	v1,16(sp)
7b068d60:	67b0      	move	a1,s0
7b068d62:	ea40      	jalr	v0
7b068d64:	67e6      	move	a3,a2
7b068d66:	9840      	lw	v0,0(s0)
7b068d68:	d940      	sw	v0,0(s1)
7b068d6a:	6a01      	li	v0,1
7b068d6c:	6475      	restore	40,ra,s0-s1
7b068d6e:	e8a0      	jrc	ra
7b068d70:	6a00      	li	v0,0
7b068d72:	6475      	restore	40,ra,s0-s1
7b068d74:	e8a0      	jrc	ra
7b068d76:	0000      	addiu	s0,sp,0
7b068d78:	9774      	lw	a3,464(sp)
7b068d7a:	9fc1      	lw	a2,4(a3)
7b068d7c:	9770      	lw	a3,448(sp)
7b068d7e:	9fc1      	lw	a2,4(a3)
7b068d80:	9778      	lw	a3,480(sp)
7b068d82:	9fc1      	lw	a2,4(a3)
7b068d84:	958c      	lw	a1,560(sp)
7b068d86:	9fc1      	lw	a2,4(a3)
7b068d88:	6015      	bteqz	7b068db4 <fsel_enter_dir+0x28>
7b068d8a:	bfc2      	lwu	a2,8(a3)

7b068d8c <fsel_enter_dir>:
7b068d8c:	f004 64f6 	save	a0,48,ra,s0-s1
7b068d90:	ee11      	zeb	a2
7b068d92:	6705      	move	s0,a1
7b068d94:	1814 8780 	jal	7a021e00 <BANK_BACK_ENHANCED_1_ADDR_BASE>
7b068d98:	d606      	sw	a2,24(sp)
7b068d9a:	b22e      	lw	v0,7b068e50 <fsel_enter_dir+0xc4>
7b068d9c:	6901      	li	s1,1
7b068d9e:	9a80      	lw	a0,0(v0)
7b068da0:	67d0      	move	a2,s0
7b068da2:	b02d      	lw	s0,7b068e54 <fsel_enter_dir+0xc8>
7b068da4:	d104      	sw	s1,16(sp)
7b068da6:	6d82      	li	a1,130
7b068da8:	e840      	jalr	s0
7b068daa:	67f1      	move	a3,s1
7b068dac:	2236      	beqz	v0,7b068e1a <fsel_enter_dir+0x8e>
7b068dae:	7101      	cmpi	s1,1
7b068db0:	6007      	bteqz	7b068dc0 <fsel_enter_dir+0x34>
7b068db2:	2903      	bnez	s1,7b068dba <fsel_enter_dir+0x2e>
7b068db4:	1814 8780 	jal	7a021e00 <BANK_BACK_ENHANCED_1_ADDR_BASE>
7b068db8:	6500      	nop
7b068dba:	6751      	move	v0,s1
7b068dbc:	6476      	restore	48,ra,s0-s1
7b068dbe:	e8a0      	jrc	ra
7b068dc0:	b524      	lw	a1,7b068e4c <fsel_enter_dir+0xc0>
7b068dc2:	6800      	li	s0,0
7b068dc4:	9d80      	lw	a0,0(a1)
7b068dc6:	b324      	lw	v1,7b068e54 <fsel_enter_dir+0xc8>
7b068dc8:	d004      	sw	s0,16(sp)
7b068dca:	6d2f      	li	a1,47
7b068dcc:	67d0      	move	a2,s0
7b068dce:	eb40      	jalr	v1
7b068dd0:	67f0      	move	a3,s0
7b068dd2:	ea11      	zeb	v0
7b068dd4:	222e      	beqz	v0,7b068e32 <fsel_enter_dir+0xa6>
7b068dd6:	b221      	lw	v0,7b068e58 <fsel_enter_dir+0xcc>
7b068dd8:	6790      	move	a0,s0
7b068dda:	ea40      	jalr	v0
7b068ddc:	67b0      	move	a1,s0
7b068dde:	b520      	lw	a1,7b068e5c <fsel_enter_dir+0xd0>
7b068de0:	b71c      	lw	a3,7b068e50 <fsel_enter_dir+0xc4>
7b068de2:	cd40      	sh	v0,0(a1)
7b068de4:	b220      	lw	v0,7b068e64 <fsel_enter_dir+0xd8>
7b068de6:	9f80      	lw	a0,0(a3)
7b068de8:	6e01      	li	a2,1
7b068dea:	9ae1      	lw	a3,4(v0)
7b068dec:	9506      	lw	a1,24(sp)
7b068dee:	b31a      	lw	v1,7b068e54 <fsel_enter_dir+0xc8>
7b068df0:	d604      	sw	a2,16(sp)
7b068df2:	eb40      	jalr	v1
7b068df4:	67d0      	move	a2,s0
7b068df6:	b41b      	lw	a0,7b068e60 <fsel_enter_dir+0xd4>
7b068df8:	dc40      	sw	v0,0(a0)
7b068dfa:	221f      	beqz	v0,7b068e3a <fsel_enter_dir+0xae>
7b068dfc:	9406      	lw	a0,24(sp)
7b068dfe:	7483      	cmpi	a0,131
7b068e00:	6120      	btnez	7b068e42 <fsel_enter_dir+0xb6>
7b068e02:	b517      	lw	a1,7b068e5c <fsel_enter_dir+0xd0>
7b068e04:	b719      	lw	a3,7b068e68 <fsel_enter_dir+0xdc>
7b068e06:	adc0      	lhu	a2,0(a1)
7b068e08:	b319      	lw	v1,7b068e6c <fsel_enter_dir+0xe0>
7b068e0a:	cfc0      	sh	a2,0(a3)
7b068e0c:	cbc0      	sh	a2,0(v1)
7b068e0e:	b514      	lw	a1,7b068e5c <fsel_enter_dir+0xd0>
7b068e10:	b618      	lw	a2,7b068e70 <fsel_enter_dir+0xe4>
7b068e12:	ade0      	lhu	a3,0(a1)
7b068e14:	cee0      	sh	a3,0(a2)
7b068e16:	29d1      	bnez	s1,7b068dba <fsel_enter_dir+0x2e>
7b068e18:	17cd      	b	7b068db4 <fsel_enter_dir+0x28>
7b068e1a:	b30e      	lw	v1,7b068e50 <fsel_enter_dir+0xc4>
7b068e1c:	960c      	lw	a2,48(sp)
7b068e1e:	9b80      	lw	a0,0(v1)
7b068e20:	6d82      	li	a1,130
7b068e22:	d104      	sw	s1,16(sp)
7b068e24:	e840      	jalr	s0
7b068e26:	67f1      	move	a3,s1
7b068e28:	2ac2      	bnez	v0,7b068dae <fsel_enter_dir+0x22>
7b068e2a:	6722      	move	s1,v0
7b068e2c:	7101      	cmpi	s1,1
7b068e2e:	61c1      	btnez	7b068db2 <fsel_enter_dir+0x26>
7b068e30:	17c7      	b	7b068dc0 <fsel_enter_dir+0x34>
7b068e32:	1814 8780 	jal	7a021e00 <BANK_BACK_ENHANCED_1_ADDR_BASE>
7b068e36:	6722      	move	s1,v0
7b068e38:	17c0      	b	7b068dba <fsel_enter_dir+0x2e>
7b068e3a:	1814 8780 	jal	7a021e00 <BANK_BACK_ENHANCED_1_ADDR_BASE>
7b068e3e:	6722      	move	s1,v0
7b068e40:	17bc      	b	7b068dba <fsel_enter_dir+0x2e>
7b068e42:	b30a      	lw	v1,7b068e68 <fsel_enter_dir+0xdc>
7b068e44:	b20a      	lw	v0,7b068e6c <fsel_enter_dir+0xe0>
7b068e46:	6c01      	li	a0,1
7b068e48:	cb80      	sh	a0,0(v1)
7b068e4a:	ca80      	sh	a0,0(v0)
7b068e4c:	17e0      	b	7b068e0e <fsel_enter_dir+0x82>
7b068e4e:	0000      	addiu	s0,sp,0
7b068e50:	958c      	lw	a1,560(sp)
7b068e52:	9fc1      	lw	a2,4(a3)
7b068e54:	6015      	bteqz	7b068e80 <fsel_enter_dir+0xf4>
7b068e56:	bfc2      	lwu	a2,8(a3)
7b068e58:	1e01 7a0e 	jalx	70c1e838 <i2s_mfp_cfg+0x10177e30>
7b068e5c:	9772      	lw	a3,456(sp)
7b068e5e:	9fc1      	lw	a2,4(a3)
7b068e60:	9778      	lw	a3,480(sp)
7b068e62:	9fc1      	lw	a2,4(a3)
7b068e64:	9764      	lw	a3,400(sp)
7b068e66:	9fc1      	lw	a2,4(a3)
7b068e68:	9770      	lw	a3,448(sp)
7b068e6a:	9fc1      	lw	a2,4(a3)
7b068e6c:	9774      	lw	a3,464(sp)
7b068e6e:	9fc1      	lw	a2,4(a3)
7b068e70:	9776      	lw	a3,472(sp)
7b068e72:	9fc1      	lw	a2,4(a3)
Disassembly of section BANK_ENHANCED_2_2:

7b0a8a00 <fsel_list_next>:
7b0a8a00:	64f5      	save	40,ra,s0-s1
7b0a8a02:	b22c      	lw	v0,7b0a8ab0 <fsel_list_next+0xb0>
7b0a8a04:	6724      	move	s1,a0
7b0a8a06:	aa60      	lhu	v1,0(v0)
7b0a8a08:	6743      	move	v0,v1
7b0a8a0a:	232a      	beqz	v1,7b0a8a60 <fsel_list_next+0x60>
7b0a8a0c:	b52a      	lw	a1,7b0a8ab4 <fsel_list_next+0xb4>
7b0a8a0e:	a580      	lbu	a0,0(a1)
7b0a8a10:	7401      	cmpi	a0,1
7b0a8a12:	602e      	bteqz	7b0a8a70 <fsel_list_next+0x70>
7b0a8a14:	b22a      	lw	v0,7b0a8abc <fsel_list_next+0xbc>
7b0a8a16:	aaa0      	lhu	a1,0(v0)
7b0a8a18:	67c5      	move	a2,a1
7b0a8a1a:	ee6e      	xor	a2,v1
7b0a8a1c:	2623      	beqz	a2,7b0a8a64 <fsel_list_next+0x64>
7b0a8a1e:	2d38      	bnez	a1,7b0a8a90 <fsel_list_next+0x90>
7b0a8a20:	b629      	lw	a2,7b0a8ac4 <fsel_list_next+0xc4>
7b0a8a22:	b72a      	lw	a3,7b0a8ac8 <fsel_list_next+0xc8>
7b0a8a24:	b32a      	lw	v1,7b0a8acc <fsel_list_next+0xcc>
7b0a8a26:	681a      	li	s0,26
7b0a8a28:	9e80      	lw	a0,0(a2)
7b0a8a2a:	9fc0      	lw	a2,0(a3)
7b0a8a2c:	9be1      	lw	a3,4(v1)
7b0a8a2e:	d004      	sw	s0,16(sp)
7b0a8a30:	b228      	lw	v0,7b0a8ad0 <fsel_list_next+0xd0>
7b0a8a32:	eac0      	jalrc	v0
7b0a8a34:	b423      	lw	a0,7b0a8abc <fsel_list_next+0xbc>
7b0a8a36:	b023      	lw	s0,7b0a8ac0 <fsel_list_next+0xc0>
7b0a8a38:	dc40      	sw	v0,0(a0)
7b0a8a3a:	98a0      	lw	a1,0(s0)
7b0a8a3c:	2523      	beqz	a1,7b0a8a84 <fsel_list_next+0x84>
7b0a8a3e:	b720      	lw	a3,7b0a8abc <fsel_list_next+0xbc>
7b0a8a40:	afa0      	lhu	a1,0(a3)
7b0a8a42:	45c1      	addiu	a2,a1,1
7b0a8a44:	cfc0      	sh	a2,0(a3)
7b0a8a46:	210b      	beqz	s1,7b0a8a5e <fsel_list_next+0x5e>
7b0a8a48:	b61f      	lw	a2,7b0a8ac4 <fsel_list_next+0xc4>
7b0a8a4a:	6f02      	li	a3,2
7b0a8a4c:	9e80      	lw	a0,0(a2)
7b0a8a4e:	b221      	lw	v0,7b0a8ad0 <fsel_list_next+0xd0>
7b0a8a50:	6e00      	li	a2,0
7b0a8a52:	d704      	sw	a3,16(sp)
7b0a8a54:	67b0      	move	a1,s0
7b0a8a56:	ea40      	jalr	v0
7b0a8a58:	67e6      	move	a3,a2
7b0a8a5a:	9860      	lw	v1,0(s0)
7b0a8a5c:	d960      	sw	v1,0(s1)
7b0a8a5e:	6a01      	li	v0,1
7b0a8a60:	6475      	restore	40,ra,s0-s1
7b0a8a62:	e8a0      	jrc	ra
7b0a8a64:	b415      	lw	a0,7b0a8ab4 <fsel_list_next+0xb4>
7b0a8a66:	6d01      	li	a1,1
7b0a8a68:	6a00      	li	v0,0
7b0a8a6a:	c4a0      	sb	a1,0(a0)
7b0a8a6c:	6475      	restore	40,ra,s0-s1
7b0a8a6e:	e8a0      	jrc	ra
7b0a8a70:	1834 8869 	jal	7a0621a4 <fsel_shuffle_next_file>
7b0a8a74:	6500      	nop
7b0a8a76:	67c2      	move	a2,v0
7b0a8a78:	2a15      	bnez	v0,7b0a8aa4 <fsel_list_next+0xa4>
7b0a8a7a:	b710      	lw	a3,7b0a8ab8 <fsel_list_next+0xb8>
7b0a8a7c:	6b01      	li	v1,1
7b0a8a7e:	c760      	sb	v1,0(a3)
7b0a8a80:	6475      	restore	40,ra,s0-s1
7b0a8a82:	e8a0      	jrc	ra
7b0a8a84:	b40d      	lw	a0,7b0a8ab4 <fsel_list_next+0xb4>
7b0a8a86:	6b06      	li	v1,6
7b0a8a88:	6745      	move	v0,a1
7b0a8a8a:	c460      	sb	v1,0(a0)
7b0a8a8c:	6475      	restore	40,ra,s0-s1
7b0a8a8e:	e8a0      	jrc	ra
7b0a8a90:	b50f      	lw	a1,7b0a8ac8 <fsel_list_next+0xc8>
7b0a8a92:	b30d      	lw	v1,7b0a8ac4 <fsel_list_next+0xc4>
7b0a8a94:	b00d      	lw	s0,7b0a8ac8 <fsel_list_next+0xc8>
7b0a8a96:	9de1      	lw	a3,4(a1)
7b0a8a98:	9b80      	lw	a0,0(v1)
7b0a8a9a:	98c0      	lw	a2,0(s0)
7b0a8a9c:	6a1a      	li	v0,26
7b0a8a9e:	6d01      	li	a1,1
7b0a8aa0:	d204      	sw	v0,16(sp)
7b0a8aa2:	17c6      	b	7b0a8a30 <fsel_list_next+0x30>
7b0a8aa4:	6791      	move	a0,s1
7b0a8aa6:	18b6 a280 	jal	7b168a00 <fsel_list_get_byno_all>
7b0a8aaa:	67a2      	move	a1,v0
7b0a8aac:	6475      	restore	40,ra,s0-s1
7b0a8aae:	e8a0      	jrc	ra
7b0a8ab0:	9772      	lw	a3,456(sp)
7b0a8ab2:	9fc1      	lw	a2,4(a3)
7b0a8ab4:	976e      	lw	a3,440(sp)
7b0a8ab6:	9fc1      	lw	a2,4(a3)
7b0a8ab8:	976c      	lw	a3,432(sp)
7b0a8aba:	9fc1      	lw	a2,4(a3)
7b0a8abc:	9770      	lw	a3,448(sp)
7b0a8abe:	9fc1      	lw	a2,4(a3)
7b0a8ac0:	9778      	lw	a3,480(sp)
7b0a8ac2:	9fc1      	lw	a2,4(a3)
7b0a8ac4:	958c      	lw	a1,560(sp)
7b0a8ac6:	9fc1      	lw	a2,4(a3)
7b0a8ac8:	9894      	lw	a0,80(s0)
7b0a8aca:	9fc1      	lw	a2,4(a3)
7b0a8acc:	9764      	lw	a3,400(sp)
7b0a8ace:	9fc1      	lw	a2,4(a3)
7b0a8ad0:	6015      	bteqz	7b0a8afc <fsel_list_next_layer+0x28>
7b0a8ad2:	bfc2      	lwu	a2,8(a3)

7b0a8ad4 <fsel_list_next_layer>:
7b0a8ad4:	64f6      	save	48,ra,s0-s1
7b0a8ad6:	b024      	lw	s0,7b0a8b64 <fsel_list_next_layer+0x90>
7b0a8ad8:	d406      	sw	a0,24(sp)
7b0a8ada:	1856 a280 	jal	7b0a8a00 <fsel_list_next>
7b0a8ade:	9820      	lw	s1,0(s0)
7b0a8ae0:	6782      	move	a0,v0
7b0a8ae2:	d207      	sw	v0,28(sp)
7b0a8ae4:	2a22      	bnez	v0,7b0a8b2a <fsel_list_next_layer+0x56>
7b0a8ae6:	b321      	lw	v1,7b0a8b68 <fsel_list_next_layer+0x94>
7b0a8ae8:	a340      	lbu	v0,0(v1)
7b0a8aea:	7201      	cmpi	v0,1
7b0a8aec:	6744      	move	v0,a0
7b0a8aee:	600a      	bteqz	7b0a8b04 <fsel_list_next_layer+0x30>
7b0a8af0:	b51f      	lw	a1,7b0a8b6c <fsel_list_next_layer+0x98>
7b0a8af2:	b620      	lw	a2,7b0a8b70 <fsel_list_next_layer+0x9c>
7b0a8af4:	9d60      	lw	v1,0(a1)
7b0a8af6:	aea0      	lhu	a1,0(a2)
7b0a8af8:	abe1      	lhu	a3,2(v1)
7b0a8afa:	6745      	move	v0,a1
7b0a8afc:	ea31      	zeh	v0
7b0a8afe:	eae3      	sltu	v0,a3
7b0a8b00:	6744      	move	v0,a0
7b0a8b02:	6102      	btnez	7b0a8b08 <fsel_list_next_layer+0x34>
7b0a8b04:	6476      	restore	48,ra,s0-s1
7b0a8b06:	e8a0      	jrc	ra
7b0a8b08:	4581      	addiu	a0,a1,1
7b0a8b0a:	ce80      	sh	a0,0(a2)
7b0a8b0c:	b31a      	lw	v1,7b0a8b74 <fsel_list_next_layer+0xa0>
7b0a8b0e:	98c0      	lw	a2,0(s0)
7b0a8b10:	9b80      	lw	a0,0(v1)
7b0a8b12:	4e14      	addiu	a2,20
7b0a8b14:	6f1b      	li	a3,27
7b0a8b16:	b219      	lw	v0,7b0a8b78 <fsel_list_next_layer+0xa4>
7b0a8b18:	d8c0      	sw	a2,0(s0)
7b0a8b1a:	6d01      	li	a1,1
7b0a8b1c:	d704      	sw	a3,16(sp)
7b0a8b1e:	ea40      	jalr	v0
7b0a8b20:	67f1      	move	a3,s1
7b0a8b22:	6782      	move	a0,v0
7b0a8b24:	ec11      	zeb	a0
7b0a8b26:	7401      	cmpi	a0,1
7b0a8b28:	6003      	bteqz	7b0a8b30 <fsel_list_next_layer+0x5c>
7b0a8b2a:	6744      	move	v0,a0
7b0a8b2c:	6476      	restore	48,ra,s0-s1
7b0a8b2e:	e8a0      	jrc	ra
7b0a8b30:	1854 8780 	jal	7a0a1e00 <fsel_total_file_curdir>
7b0a8b34:	6500      	nop
7b0a8b36:	b012      	lw	s0,7b0a8b7c <fsel_list_next_layer+0xa8>
7b0a8b38:	67fd      	move	a3,sp
7b0a8b3a:	c840      	sh	v0,0(s0)
7b0a8b3c:	b611      	lw	a2,7b0a8b80 <fsel_list_next_layer+0xac>
7b0a8b3e:	af0e      	lhu	s0,28(a3)
7b0a8b40:	ce00      	sh	s0,0(a2)
7b0a8b42:	2a06      	bnez	v0,7b0a8b50 <fsel_list_next_layer+0x7c>
7b0a8b44:	b410      	lw	a0,7b0a8b84 <fsel_list_next_layer+0xb0>
7b0a8b46:	6b05      	li	v1,5
7b0a8b48:	6a00      	li	v0,0
7b0a8b4a:	c460      	sb	v1,0(a0)
7b0a8b4c:	6476      	restore	48,ra,s0-s1
7b0a8b4e:	e8a0      	jrc	ra
7b0a8b50:	1856 a280 	jal	7b0a8a00 <fsel_list_next>
7b0a8b54:	9406      	lw	a0,24(sp)
7b0a8b56:	22f6      	beqz	v0,7b0a8b44 <fsel_list_next_layer+0x70>
7b0a8b58:	b20b      	lw	v0,7b0a8b84 <fsel_list_next_layer+0xb0>
7b0a8b5a:	c200      	sb	s0,0(v0)
7b0a8b5c:	6a01      	li	v0,1
7b0a8b5e:	6476      	restore	48,ra,s0-s1
7b0a8b60:	e8a0      	jrc	ra
7b0a8b62:	0000      	addiu	s0,sp,0
7b0a8b64:	9894      	lw	a0,80(s0)
7b0a8b66:	9fc1      	lw	a2,4(a3)
7b0a8b68:	976e      	lw	a3,440(sp)
7b0a8b6a:	9fc1      	lw	a2,4(a3)
7b0a8b6c:	98a4      	lw	a1,16(s0)
7b0a8b6e:	9fc1      	lw	a2,4(a3)
7b0a8b70:	9584      	lw	a1,528(sp)
7b0a8b72:	9fc1      	lw	a2,4(a3)
7b0a8b74:	958c      	lw	a1,560(sp)
7b0a8b76:	9fc1      	lw	a2,4(a3)
7b0a8b78:	6015      	bteqz	7b0a8ba4 <fsel_first_list_entry+0x1c>
7b0a8b7a:	bfc2      	lwu	a2,8(a3)
7b0a8b7c:	9772      	lw	a3,456(sp)
7b0a8b7e:	9fc1      	lw	a2,4(a3)
7b0a8b80:	9770      	lw	a3,448(sp)
7b0a8b82:	9fc1      	lw	a2,4(a3)
7b0a8b84:	976c      	lw	a3,432(sp)
7b0a8b86:	9fc1      	lw	a2,4(a3)

7b0a8b88 <fsel_first_list_entry>:
7b0a8b88:	64f5      	save	40,ra,s0-s1
7b0a8b8a:	b512      	lw	a1,7b0a8bd0 <fsel_first_list_entry+0x48>
7b0a8b8c:	b00f      	lw	s0,7b0a8bc8 <fsel_first_list_entry+0x40>
7b0a8b8e:	9d40      	lw	v0,0(a1)
7b0a8b90:	b60f      	lw	a2,7b0a8bcc <fsel_first_list_entry+0x44>
7b0a8b92:	6c01      	li	a0,1
7b0a8b94:	4a0c      	addiu	v0,12
7b0a8b96:	9820      	lw	s1,0(s0)
7b0a8b98:	ce80      	sh	a0,0(a2)
7b0a8b9a:	1854 8780 	jal	7a0a1e00 <fsel_total_file_curdir>
7b0a8b9e:	d840      	sw	v0,0(s0)
7b0a8ba0:	b30d      	lw	v1,7b0a8bd4 <fsel_first_list_entry+0x4c>
7b0a8ba2:	b40e      	lw	a0,7b0a8bd8 <fsel_first_list_entry+0x50>
7b0a8ba4:	b60f      	lw	a2,7b0a8be0 <fsel_first_list_entry+0x58>
7b0a8ba6:	6f00      	li	a3,0
7b0a8ba8:	6d1b      	li	a1,27
7b0a8baa:	cb40      	sh	v0,0(v1)
7b0a8bac:	cce0      	sh	a3,0(a0)
7b0a8bae:	b20f      	lw	v0,7b0a8be8 <fsel_first_list_entry+0x60>
7b0a8bb0:	9e80      	lw	a0,0(a2)
7b0a8bb2:	98c0      	lw	a2,0(s0)
7b0a8bb4:	d504      	sw	a1,16(sp)
7b0a8bb6:	b50c      	lw	a1,7b0a8be4 <fsel_first_list_entry+0x5c>
7b0a8bb8:	ea40      	jalr	v0
7b0a8bba:	67f1      	move	a3,s1
7b0a8bbc:	b308      	lw	v1,7b0a8bdc <fsel_first_list_entry+0x54>
7b0a8bbe:	ea11      	zeb	v0
7b0a8bc0:	db40      	sw	v0,0(v1)
7b0a8bc2:	6a01      	li	v0,1
7b0a8bc4:	6475      	restore	40,ra,s0-s1
7b0a8bc6:	e8a0      	jrc	ra
7b0a8bc8:	9894      	lw	a0,80(s0)
7b0a8bca:	9fc1      	lw	a2,4(a3)
7b0a8bcc:	9584      	lw	a1,528(sp)
7b0a8bce:	9fc1      	lw	a2,4(a3)
7b0a8bd0:	9588      	lw	a1,544(sp)
7b0a8bd2:	9fc1      	lw	a2,4(a3)
7b0a8bd4:	9772      	lw	a3,456(sp)
7b0a8bd6:	9fc1      	lw	a2,4(a3)
7b0a8bd8:	9770      	lw	a3,448(sp)
7b0a8bda:	9fc1      	lw	a2,4(a3)
7b0a8bdc:	9778      	lw	a3,480(sp)
7b0a8bde:	9fc1      	lw	a2,4(a3)
7b0a8be0:	958c      	lw	a1,560(sp)
7b0a8be2:	9fc1      	lw	a2,4(a3)
7b0a8be4:	0000      	addiu	s0,sp,0
7b0a8be6:	8000      	lb	s0,0(s0)
7b0a8be8:	6015      	bteqz	7b0a8c14 <fsel_list_get_next+0x28>
7b0a8bea:	bfc2      	lwu	a2,8(a3)

7b0a8bec <fsel_list_get_next>:
7b0a8bec:	64f5      	save	40,ra,s0-s1
7b0a8bee:	b23d      	lw	v0,7b0a8ce0 <fsel_list_get_next+0xf4>
7b0a8bf0:	6724      	move	s1,a0
7b0a8bf2:	a241      	lbu	v0,1(v0)
7b0a8bf4:	7201      	cmpi	v0,1
7b0a8bf6:	6022      	bteqz	7b0a8c3c <fsel_list_get_next+0x50>
7b0a8bf8:	5202      	slti	v0,2
7b0a8bfa:	6144      	btnez	7b0a8c84 <fsel_list_get_next+0x98>
7b0a8bfc:	7202      	cmpi	v0,2
7b0a8bfe:	6050      	bteqz	7b0a8ca0 <fsel_list_get_next+0xb4>
7b0a8c00:	7203      	cmpi	v0,3
7b0a8c02:	6141      	btnez	7b0a8c86 <fsel_list_get_next+0x9a>
7b0a8c04:	1856 a2b5 	jal	7b0a8ad4 <fsel_list_next_layer>
7b0a8c08:	6791      	move	a0,s1
7b0a8c0a:	6702      	move	s0,v0
7b0a8c0c:	2a27      	bnez	v0,7b0a8c5c <fsel_list_get_next+0x70>
7b0a8c0e:	b332      	lw	v1,7b0a8cd4 <fsel_list_get_next+0xe8>
7b0a8c10:	a380      	lbu	a0,0(v1)
7b0a8c12:	7401      	cmpi	a0,1
7b0a8c14:	6050      	bteqz	7b0a8cb6 <fsel_list_get_next+0xca>
7b0a8c16:	1856 a2e2 	jal	7b0a8b88 <fsel_first_list_entry>
7b0a8c1a:	6500      	nop
7b0a8c1c:	1856 a2b5 	jal	7b0a8ad4 <fsel_list_next_layer>
7b0a8c20:	6791      	move	a0,s1
7b0a8c22:	6782      	move	a0,v0
7b0a8c24:	b530      	lw	a1,7b0a8ce4 <fsel_list_get_next+0xf8>
7b0a8c26:	b72e      	lw	a3,7b0a8cdc <fsel_list_get_next+0xf0>
7b0a8c28:	9d60      	lw	v1,0(a1)
7b0a8c2a:	afc0      	lhu	a2,0(a3)
7b0a8c2c:	ab40      	lhu	v0,0(v1)
7b0a8c2e:	b726      	lw	a3,7b0a8cc4 <fsel_list_get_next+0xd8>
7b0a8c30:	e2d5      	addu	a1,v0,a2
7b0a8c32:	456f      	addiu	v1,a1,-1
7b0a8c34:	6744      	move	v0,a0
7b0a8c36:	cf60      	sh	v1,0(a3)
7b0a8c38:	6475      	restore	40,ra,s0-s1
7b0a8c3a:	e8a0      	jrc	ra
7b0a8c3c:	b322      	lw	v1,7b0a8cc0 <fsel_list_get_next+0xd4>
7b0a8c3e:	ab80      	lhu	a0,0(v1)
7b0a8c40:	241a      	beqz	a0,7b0a8c76 <fsel_list_get_next+0x8a>
7b0a8c42:	210c      	beqz	s1,7b0a8c5c <fsel_list_get_next+0x70>
7b0a8c44:	b721      	lw	a3,7b0a8cc8 <fsel_list_get_next+0xdc>
7b0a8c46:	b022      	lw	s0,7b0a8ccc <fsel_list_get_next+0xe0>
7b0a8c48:	6e02      	li	a2,2
7b0a8c4a:	9f80      	lw	a0,0(a3)
7b0a8c4c:	b221      	lw	v0,7b0a8cd0 <fsel_list_get_next+0xe4>
7b0a8c4e:	d604      	sw	a2,16(sp)
7b0a8c50:	6e00      	li	a2,0
7b0a8c52:	67b0      	move	a1,s0
7b0a8c54:	ea40      	jalr	v0
7b0a8c56:	67e6      	move	a3,a2
7b0a8c58:	98a0      	lw	a1,0(s0)
7b0a8c5a:	d9a0      	sw	a1,0(s1)
7b0a8c5c:	b522      	lw	a1,7b0a8ce4 <fsel_list_get_next+0xf8>
7b0a8c5e:	b720      	lw	a3,7b0a8cdc <fsel_list_get_next+0xf0>
7b0a8c60:	9d60      	lw	v1,0(a1)
7b0a8c62:	afc0      	lhu	a2,0(a3)
7b0a8c64:	ab40      	lhu	v0,0(v1)
7b0a8c66:	6c01      	li	a0,1
7b0a8c68:	e2d5      	addu	a1,v0,a2
7b0a8c6a:	b717      	lw	a3,7b0a8cc4 <fsel_list_get_next+0xd8>
7b0a8c6c:	456f      	addiu	v1,a1,-1
7b0a8c6e:	6744      	move	v0,a0
7b0a8c70:	cf60      	sh	v1,0(a3)
7b0a8c72:	6475      	restore	40,ra,s0-s1
7b0a8c74:	e8a0      	jrc	ra
7b0a8c76:	6d01      	li	a1,1
7b0a8c78:	6791      	move	a0,s1
7b0a8c7a:	18b6 a280 	jal	7b168a00 <fsel_list_get_byno_all>
7b0a8c7e:	67c5      	move	a2,a1
7b0a8c80:	6782      	move	a0,v0
7b0a8c82:	17d0      	b	7b0a8c24 <fsel_list_get_next+0x38>
7b0a8c84:	22bf      	beqz	v0,7b0a8c04 <fsel_list_get_next+0x18>
7b0a8c86:	b518      	lw	a1,7b0a8ce4 <fsel_list_get_next+0xf8>
7b0a8c88:	b715      	lw	a3,7b0a8cdc <fsel_list_get_next+0xf0>
7b0a8c8a:	9d60      	lw	v1,0(a1)
7b0a8c8c:	afc0      	lhu	a2,0(a3)
7b0a8c8e:	ab40      	lhu	v0,0(v1)
7b0a8c90:	6c00      	li	a0,0
7b0a8c92:	e2d5      	addu	a1,v0,a2
7b0a8c94:	b70c      	lw	a3,7b0a8cc4 <fsel_list_get_next+0xd8>
7b0a8c96:	456f      	addiu	v1,a1,-1
7b0a8c98:	6744      	move	v0,a0
7b0a8c9a:	cf60      	sh	v1,0(a3)
7b0a8c9c:	6475      	restore	40,ra,s0-s1
7b0a8c9e:	e8a0      	jrc	ra
7b0a8ca0:	1856 a280 	jal	7b0a8a00 <fsel_list_next>
7b0a8ca4:	6500      	nop
7b0a8ca6:	2ada      	bnez	v0,7b0a8c5c <fsel_list_get_next+0x70>
7b0a8ca8:	b60d      	lw	a2,7b0a8cdc <fsel_list_get_next+0xf0>
7b0a8caa:	6791      	move	a0,s1
7b0a8cac:	1856 a280 	jal	7b0a8a00 <fsel_list_next>
7b0a8cb0:	ce40      	sh	v0,0(a2)
7b0a8cb2:	6782      	move	a0,v0
7b0a8cb4:	17b7      	b	7b0a8c24 <fsel_list_get_next+0x38>
7b0a8cb6:	b209      	lw	v0,7b0a8cd8 <fsel_list_get_next+0xec>
7b0a8cb8:	1834 8829 	jal	7a0620a4 <fsel_init_shuffle>
7b0a8cbc:	aa80      	lhu	a0,0(v0)
7b0a8cbe:	b502      	lw	a1,7b0a8cc4 <fsel_list_get_next+0xd8>
7b0a8cc0:	cd00      	sh	s0,0(a1)
7b0a8cc2:	17a9      	b	7b0a8c16 <fsel_list_get_next+0x2a>
7b0a8cc4:	9774      	lw	a3,464(sp)
7b0a8cc6:	9fc1      	lw	a2,4(a3)
7b0a8cc8:	958c      	lw	a1,560(sp)
7b0a8cca:	9fc1      	lw	a2,4(a3)
7b0a8ccc:	9778      	lw	a3,480(sp)
7b0a8cce:	9fc1      	lw	a2,4(a3)
7b0a8cd0:	6015      	bteqz	7b0a8cfc <fsel_list_get_next+0x110>
7b0a8cd2:	bfc2      	lwu	a2,8(a3)
7b0a8cd4:	976e      	lw	a3,440(sp)
7b0a8cd6:	9fc1      	lw	a2,4(a3)
7b0a8cd8:	9776      	lw	a3,472(sp)
7b0a8cda:	9fc1      	lw	a2,4(a3)
7b0a8cdc:	9770      	lw	a3,448(sp)
7b0a8cde:	9fc1      	lw	a2,4(a3)
7b0a8ce0:	9764      	lw	a3,400(sp)
7b0a8ce2:	9fc1      	lw	a2,4(a3)
7b0a8ce4:	9894      	lw	a0,80(s0)
7b0a8ce6:	9fc1      	lw	a2,4(a3)
Disassembly of section BANK_ENHANCED_2_4:

7b128a00 <fsel_sortlsit_vram_read>:
7b128a00:	64f4      	save	32,ra,s0-s1
7b128a02:	6724      	move	s1,a0
7b128a04:	b00f      	lw	s0,7b128a40 <fsel_sortlsit_vram_read+0x40>
7b128a06:	b40d      	lw	a0,7b128a38 <fsel_sortlsit_vram_read+0x38>
7b128a08:	b50d      	lw	a1,7b128a3c <fsel_sortlsit_vram_read+0x3c>
7b128a0a:	f002 6e00 	li	a2,4096
7b128a0e:	e840      	jalr	s0
7b128a10:	6f12      	li	a3,18
7b128a12:	6d00      	li	a1,0
7b128a14:	e931      	zeh	s1
7b128a16:	0c04      	la	a0,7b128a24 <fsel_sortlsit_vram_read+0x24>
7b128a18:	67c5      	move	a2,a1
7b128a1a:	e840      	jalr	s0
7b128a1c:	6f4b      	li	a3,75
7b128a1e:	6751      	move	v0,s1
7b128a20:	6474      	restore	32,ra,s0-s1
7b128a22:	e8a0      	jrc	ra
7b128a24:	2323      	beqz	v1,7b128a6c <fsel_sortlist_get_byno_all+0x28>
7b128a26:	2323      	beqz	v1,7b128a6e <fsel_sortlist_get_byno_all+0x2a>
7b128a28:	2323      	beqz	v1,7b128a70 <fsel_sortlist_get_byno_all+0x2c>
7b128a2a:	756e      	cmpi	a1,110
7b128a2c:	206d      	beqz	s0,7b128b08 <fsel_sortlist_get_location>
7b128a2e:	6863      	li	s0,99
7b128a30:	6e61      	li	a2,97
7b128a32:	6567      	move	v1,a3
7b128a34:	0000      	addiu	s0,sp,0
7b128a36:	0000      	addiu	s0,sp,0
7b128a38:	e000      	daddu	s0,s0
7b128a3a:	9fc2      	lw	a2,8(a3)
7b128a3c:	0000      	addiu	s0,sp,0
7b128a3e:	0020      	addiu	s0,sp,128
7b128a40:	6011      	bteqz	7b128a64 <fsel_sortlist_get_byno_all+0x20>
7b128a42:	bfc2      	lwu	a2,8(a3)

7b128a44 <fsel_sortlist_get_byno_all>:
7b128a44:	64f4      	save	32,ra,s0-s1
7b128a46:	b30b      	lw	v1,7b128a70 <fsel_sortlist_get_byno_all+0x2c>
7b128a48:	6705      	move	s0,a1
7b128a4a:	ab40      	lhu	v0,0(v1)
7b128a4c:	e831      	zeh	s0
7b128a4e:	ea03      	sltu	v0,s0
7b128a50:	6724      	move	s1,a0
7b128a52:	6a00      	li	v0,0
7b128a54:	6002      	bteqz	7b128a5a <fsel_sortlist_get_byno_all+0x16>
7b128a56:	6474      	restore	32,ra,s0-s1
7b128a58:	e8a0      	jrc	ra
7b128a5a:	1896 a280 	jal	7b128a00 <fsel_sortlsit_vram_read>
7b128a5e:	6790      	move	a0,s0
7b128a60:	67a2      	move	a1,v0
7b128a62:	6791      	move	a0,s1
7b128a64:	18b6 a280 	jal	7b168a00 <fsel_list_get_byno_all>
7b128a68:	67d0      	move	a2,s0
7b128a6a:	6474      	restore	32,ra,s0-s1
7b128a6c:	e8a0      	jrc	ra
7b128a6e:	0000      	addiu	s0,sp,0
7b128a70:	9776      	lw	a3,472(sp)
7b128a72:	9fc1      	lw	a2,4(a3)

7b128a74 <fsel_list_get_location>:
7b128a74:	64f5      	save	40,ra,s0-s1
7b128a76:	b71e      	lw	a3,7b128aec <fsel_list_get_location+0x78>
7b128a78:	b01e      	lw	s0,7b128af0 <fsel_list_get_location+0x7c>
7b128a7a:	6e02      	li	a2,2
7b128a7c:	6724      	move	s1,a0
7b128a7e:	b31e      	lw	v1,7b128af4 <fsel_list_get_location+0x80>
7b128a80:	9f80      	lw	a0,0(a3)
7b128a82:	d604      	sw	a2,16(sp)
7b128a84:	6e00      	li	a2,0
7b128a86:	67e6      	move	a3,a2
7b128a88:	eb40      	jalr	v1
7b128a8a:	67b0      	move	a1,s0
7b128a8c:	9880      	lw	a0,0(s0)
7b128a8e:	b518      	lw	a1,7b128aec <fsel_list_get_location+0x78>
7b128a90:	d981      	sw	a0,4(s1)
7b128a92:	9d80      	lw	a0,0(a1)
7b128a94:	6a03      	li	v0,3
7b128a96:	b318      	lw	v1,7b128af4 <fsel_list_get_location+0x80>
7b128a98:	67b1      	move	a1,s1
7b128a9a:	67d1      	move	a2,s1
7b128a9c:	d204      	sw	v0,16(sp)
7b128a9e:	4d10      	addiu	a1,16
7b128aa0:	4e08      	addiu	a2,8
7b128aa2:	eb40      	jalr	v1
7b128aa4:	6f00      	li	a3,0
7b128aa6:	ea11      	zeb	v0
7b128aa8:	6762      	move	v1,v0
7b128aaa:	2211      	beqz	v0,7b128ace <fsel_list_get_location+0x5a>
7b128aac:	b313      	lw	v1,7b128af8 <fsel_list_get_location+0x84>
7b128aae:	b514      	lw	a1,7b128afc <fsel_list_get_location+0x88>
7b128ab0:	a382      	lbu	a0,2(v1)
7b128ab2:	c180      	sb	a0,0(s1)
7b128ab4:	9d40      	lw	v0,0(a1)
7b128ab6:	a202      	lbu	s0,2(v0)
7b128ab8:	c101      	sb	s0,1(s1)
7b128aba:	b012      	lw	s0,7b128b00 <fsel_list_get_location+0x8c>
7b128abc:	a840      	lhu	v0,0(s0)
7b128abe:	220a      	beqz	v0,7b128ad4 <fsel_list_get_location+0x60>
7b128ac0:	b711      	lw	a3,7b128b04 <fsel_list_get_location+0x90>
7b128ac2:	f040 c95c 	sh	v0,92(s1)
7b128ac6:	afc0      	lhu	a2,0(a3)
7b128ac8:	6b01      	li	v1,1
7b128aca:	f040 c9de 	sh	a2,94(s1)
7b128ace:	6743      	move	v0,v1
7b128ad0:	6475      	restore	40,ra,s0-s1
7b128ad2:	e8a0      	jrc	ra
7b128ad4:	1854 878d 	jal	7a0a1e34 <fsel_total_file_alldir>
7b128ad8:	6500      	nop
7b128ada:	b70b      	lw	a3,7b128b04 <fsel_list_get_location+0x90>
7b128adc:	c840      	sh	v0,0(s0)
7b128ade:	f040 c95c 	sh	v0,92(s1)
7b128ae2:	afc0      	lhu	a2,0(a3)
7b128ae4:	6b01      	li	v1,1
7b128ae6:	f040 c9de 	sh	a2,94(s1)
7b128aea:	17f1      	b	7b128ace <fsel_list_get_location+0x5a>
7b128aec:	958c      	lw	a1,560(sp)
7b128aee:	9fc1      	lw	a2,4(a3)
7b128af0:	9778      	lw	a3,480(sp)
7b128af2:	9fc1      	lw	a2,4(a3)
7b128af4:	6015      	bteqz	7b128b20 <fsel_list_set_location>
7b128af6:	bfc2      	lwu	a2,8(a3)
7b128af8:	9764      	lw	a3,400(sp)
7b128afa:	9fc1      	lw	a2,4(a3)
7b128afc:	9894      	lw	a0,80(s0)
7b128afe:	9fc1      	lw	a2,4(a3)
7b128b00:	9776      	lw	a3,472(sp)
7b128b02:	9fc1      	lw	a2,4(a3)
7b128b04:	9774      	lw	a3,464(sp)
7b128b06:	9fc1      	lw	a2,4(a3)

7b128b08 <fsel_sortlist_get_location>:
7b128b08:	64e3      	save	24,ra,s0
7b128b0a:	6704      	move	s0,a0
7b128b0c:	f040 ac9e 	lhu	a0,94(a0)
7b128b10:	1896 a280 	jal	7b128a00 <fsel_sortlsit_vram_read>
7b128b14:	6500      	nop
7b128b16:	1896 a29d 	jal	7b128a74 <fsel_list_get_location>
7b128b1a:	6790      	move	a0,s0
7b128b1c:	6463      	restore	24,ra,s0
7b128b1e:	e8a0      	jrc	ra

7b128b20 <fsel_list_set_location>:
7b128b20:	64f5      	save	40,ra,s0-s1
7b128b22:	6724      	move	s1,a0
7b128b24:	2402      	beqz	a0,7b128b2a <fsel_list_set_location+0xa>
7b128b26:	9c41      	lw	v0,4(a0)
7b128b28:	2a0b      	bnez	v0,7b128b40 <fsel_list_set_location+0x20>
7b128b2a:	1854 8780 	jal	7a0a1e00 <fsel_total_file_curdir>
7b128b2e:	6500      	nop
7b128b30:	b51b      	lw	a1,7b128b9c <fsel_list_set_location+0x7c>
7b128b32:	b41c      	lw	a0,7b128ba0 <fsel_list_set_location+0x80>
7b128b34:	cd40      	sh	v0,0(a1)
7b128b36:	6b00      	li	v1,0
7b128b38:	6a00      	li	v0,0
7b128b3a:	cc60      	sh	v1,0(a0)
7b128b3c:	6475      	restore	40,ra,s0-s1
7b128b3e:	e8a0      	jrc	ra
7b128b40:	b019      	lw	s0,7b128ba0 <fsel_list_set_location+0x80>
7b128b42:	6e03      	li	a2,3
7b128b44:	9880      	lw	a0,0(s0)
7b128b46:	67b1      	move	a1,s1
7b128b48:	d604      	sw	a2,16(sp)
7b128b4a:	b318      	lw	v1,7b128ba8 <fsel_list_set_location+0x88>
7b128b4c:	67d1      	move	a2,s1
7b128b4e:	4d10      	addiu	a1,16
7b128b50:	4e08      	addiu	a2,8
7b128b52:	eb40      	jalr	v1
7b128b54:	6f01      	li	a3,1
7b128b56:	ea11      	zeb	v0
7b128b58:	220d      	beqz	v0,7b128b74 <fsel_list_set_location+0x54>
7b128b5a:	9880      	lw	a0,0(s0)
7b128b5c:	b014      	lw	s0,7b128bac <fsel_list_set_location+0x8c>
7b128b5e:	6d02      	li	a1,2
7b128b60:	6e00      	li	a2,0
7b128b62:	b312      	lw	v1,7b128ba8 <fsel_list_set_location+0x88>
7b128b64:	d504      	sw	a1,16(sp)
7b128b66:	67e6      	move	a3,a2
7b128b68:	eb40      	jalr	v1
7b128b6a:	67b0      	move	a1,s0
7b128b6c:	99e1      	lw	a3,4(s1)
7b128b6e:	9840      	lw	v0,0(s0)
7b128b70:	ef4e      	xor	a3,v0
7b128b72:	270b      	beqz	a3,7b128b8a <fsel_list_set_location+0x6a>
7b128b74:	1814 8780 	jal	7a021e00 <BANK_BACK_ENHANCED_1_ADDR_BASE>
7b128b78:	6500      	nop
7b128b7a:	1854 8780 	jal	7a0a1e00 <fsel_total_file_curdir>
7b128b7e:	6500      	nop
7b128b80:	b307      	lw	v1,7b128b9c <fsel_list_set_location+0x7c>
7b128b82:	cb40      	sh	v0,0(v1)
7b128b84:	6a00      	li	v0,0
7b128b86:	6475      	restore	40,ra,s0-s1
7b128b88:	e8a0      	jrc	ra
7b128b8a:	1854 8780 	jal	7a0a1e00 <fsel_total_file_curdir>
7b128b8e:	6500      	nop
7b128b90:	b703      	lw	a3,7b128b9c <fsel_list_set_location+0x7c>
7b128b92:	b404      	lw	a0,7b128ba0 <fsel_list_set_location+0x80>
7b128b94:	6e00      	li	a2,0
7b128b96:	cf40      	sh	v0,0(a3)
7b128b98:	ccc0      	sh	a2,0(a0)
7b128b9a:	17ec      	b	7b128b74 <fsel_list_set_location+0x54>
7b128b9c:	9772      	lw	a3,456(sp)
7b128b9e:	9fc1      	lw	a2,4(a3)
7b128ba0:	9770      	lw	a3,448(sp)
7b128ba2:	9fc1      	lw	a2,4(a3)
7b128ba4:	958c      	lw	a1,560(sp)
7b128ba6:	9fc1      	lw	a2,4(a3)
7b128ba8:	6015      	bteqz	7b128bd4 <fsel_sortlist_set_location+0x24>
7b128baa:	bfc2      	lwu	a2,8(a3)
7b128bac:	9778      	lw	a3,480(sp)
7b128bae:	9fc1      	lw	a2,4(a3)

7b128bb0 <fsel_sortlist_set_location>:
7b128bb0:	64e3      	save	24,ra,s0
7b128bb2:	6704      	move	s0,a0
7b128bb4:	f040 ac9e 	lhu	a0,94(a0)
7b128bb8:	1896 a280 	jal	7b128a00 <fsel_sortlsit_vram_read>
7b128bbc:	6500      	nop
7b128bbe:	1896 a2c8 	jal	7b128b20 <fsel_list_set_location>
7b128bc2:	6790      	move	a0,s0
7b128bc4:	6463      	restore	24,ra,s0
7b128bc6:	e8a0      	jrc	ra
Disassembly of section BANK_ENHANCED_2_5:

7b168a00 <fsel_list_get_byno_all>:
7b168a00:	f004 64f6 	save	a0,48,ra,s0-s1
7b168a04:	b07d      	lw	s0,7b168bf8 <.LBB15+0x32>
7b168a06:	6a01      	li	v0,1
7b168a08:	d207      	sw	v0,28(sp)
7b168a0a:	a840      	lhu	v0,0(s0)
7b168a0c:	6725      	move	s1,a1
7b168a0e:	ee31      	zeh	a2
7b168a10:	e931      	zeh	s1
7b168a12:	d606      	sw	a2,24(sp)
7b168a14:	220a      	beqz	v0,7b168a2a <fsel_list_get_byno_all+0x2a>
7b168a16:	ea23      	sltu	v0,s1
7b168a18:	6101      	btnez	7b168a1c <fsel_list_get_byno_all+0x1c>
7b168a1a:	290c      	bnez	s1,7b168a34 <fsel_list_get_byno_all+0x34>
7b168a1c:	67bd      	move	a1,sp
7b168a1e:	b478      	lw	a0,7b168bfc <.LBB15+0x36>
7b168a20:	a57c      	lbu	v1,28(a1)
7b168a22:	6a00      	li	v0,0
7b168a24:	c460      	sb	v1,0(a0)
7b168a26:	6476      	restore	48,ra,s0-s1
7b168a28:	e8a0      	jrc	ra
7b168a2a:	1854 878d 	jal	7a0a1e34 <fsel_total_file_alldir>
7b168a2e:	6500      	nop
7b168a30:	c840      	sh	v0,0(s0)
7b168a32:	17f1      	b	7b168a16 <fsel_list_get_byno_all+0x16>
7b168a34:	b773      	lw	a3,7b168c00 <.LBB15+0x3a>
7b168a36:	afc0      	lhu	a2,0(a3)
7b168a38:	6766      	move	v1,a2
7b168a3a:	eb31      	zeh	v1
7b168a3c:	eb23      	sltu	v1,s1
7b168a3e:	653e      	move	t9,a2
7b168a40:	6123      	btnez	7b168a88 <.LBB2+0x40>
7b168a42:	e963      	sltu	s1,v1
7b168a44:	606a      	bteqz	7b168b1a <.LBE4+0x42>
7b168a46:	b571      	lw	a1,7b168c08 <.LBB15+0x42>

7b168a48 <.LBB2>:
7b168a48:	b06f      	lw	s0,7b168c04 <.LBB15+0x3e>
7b168a4a:	9d60      	lw	v1,0(a1)
7b168a4c:	98c0      	lw	a2,0(s0)
7b168a4e:	b770      	lw	a3,7b168c0c <.LBB15+0x46>
7b168a50:	aba1      	lhu	a1,2(v1)
7b168a52:	65fe      	move	ra,a2
7b168a54:	af80      	lhu	a0,0(a3)
7b168a56:	6764      	move	v1,a0
7b168a58:	eb31      	zeh	v1
7b168a5a:	ed6a      	cmp	a1,v1
7b168a5c:	6104      	btnez	7b168a66 <.LBB2+0x1e>
7b168a5e:	ae40      	lhu	v0,0(a2)
7b168a60:	e943      	sltu	s1,v0
7b168a62:	f080 600e 	bteqz	7b168b82 <.LBB11>
7b168a66:	ae40      	lhu	v0,0(a2)
7b168a68:	e943      	sltu	s1,v0
7b168a6a:	6104      	btnez	7b168a74 <.LBB2+0x2c>
7b168a6c:	ae4a      	lhu	v0,20(a2)
7b168a6e:	e943      	sltu	s1,v0
7b168a70:	f080 6107 	btnez	7b168b82 <.LBB11>
7b168a74:	7301      	cmpi	v1,1
7b168a76:	f080 6004 	bteqz	7b168b82 <.LBB11>
7b168a7a:	446f      	addiu	v1,a0,-1
7b168a7c:	6786      	move	a0,a2
7b168a7e:	4cec      	addiu	a0,-20
7b168a80:	67c4      	move	a2,a0
7b168a82:	cf60      	sh	v1,0(a3)
7b168a84:	d880      	sw	a0,0(s0)
7b168a86:	17e6      	b	7b168a54 <.LBB2+0xc>
7b168a88:	b460      	lw	a0,7b168c08 <.LBB15+0x42>

7b168a8a <.LBB4>:
7b168a8a:	b05f      	lw	s0,7b168c04 <.LBB15+0x3e>
7b168a8c:	9c40      	lw	v0,0(a0)
7b168a8e:	98c0      	lw	a2,0(s0)
7b168a90:	b55f      	lw	a1,7b168c0c <.LBB15+0x46>
7b168a92:	aa81      	lhu	a0,2(v0)
7b168a94:	65fe      	move	ra,a2
7b168a96:	67e5      	move	a3,a1
7b168a98:	100c      	b	7b168ab2 <.LBB4+0x28>
7b168a9a:	ae40      	lhu	v0,0(a2)
7b168a9c:	e943      	sltu	s1,v0
7b168a9e:	6103      	btnez	7b168aa6 <.LBB4+0x1c>
7b168aa0:	ae4a      	lhu	v0,20(a2)
7b168aa2:	e943      	sltu	s1,v0
7b168aa4:	610b      	btnez	7b168abc <.LBB4+0x32>
7b168aa6:	4341      	addiu	v0,v1,1
7b168aa8:	6766      	move	v1,a2
7b168aaa:	4b14      	addiu	v1,20
7b168aac:	cf40      	sh	v0,0(a3)
7b168aae:	d860      	sw	v1,0(s0)
7b168ab0:	67c3      	move	a2,v1
7b168ab2:	ad60      	lhu	v1,0(a1)
7b168ab4:	6743      	move	v0,v1
7b168ab6:	ea31      	zeh	v0
7b168ab8:	ea8e      	xor	v0,a0
7b168aba:	2aef      	bnez	v0,7b168a9a <.LBB4+0x10>
7b168abc:	67bf      	move	a1,ra
7b168abe:	eeaa      	cmp	a2,a1
7b168ac0:	6070      	bteqz	7b168ba2 <.LBB13>
7b168ac2:	b354      	lw	v1,7b168c10 <.LBB15+0x4a>
7b168ac4:	6f1b      	li	a3,27
7b168ac6:	9b80      	lw	a0,0(v1)
7b168ac8:	b053      	lw	s0,7b168c14 <.LBB15+0x4e>
7b168aca:	d704      	sw	a3,16(sp)
7b168acc:	67ff      	move	a3,ra
7b168ace:	e840      	jalr	s0
7b168ad0:	6d00      	li	a1,0
7b168ad2:	ea11      	zeb	v0
7b168ad4:	6762      	move	v1,v0
7b168ad6:	2a3a      	bnez	v0,7b168b4c <.LBB7>

7b168ad8 <.LBE4>:
7b168ad8:	eb11      	zeb	v1
7b168ada:	d307      	sw	v1,28(sp)
7b168adc:	b04f      	lw	s0,7b168c18 <.LBB15+0x52>
7b168ade:	9840      	lw	v0,0(s0)
7b168ae0:	2a01      	bnez	v0,7b168ae4 <.LBE4+0xc>
7b168ae2:	d207      	sw	v0,28(sp)
7b168ae4:	9407      	lw	a0,28(sp)
7b168ae6:	7401      	cmpi	a0,1
7b168ae8:	6115      	btnez	7b168b14 <.LBE4+0x3c>
7b168aea:	2214      	beqz	v0,7b168b14 <.LBE4+0x3c>
7b168aec:	67fd      	move	a3,sp
7b168aee:	b550      	lw	a1,7b168c2c <.LBB15+0x66>
7b168af0:	af6c      	lhu	v1,24(a3)
7b168af2:	b244      	lw	v0,7b168c00 <.LBB15+0x3a>
7b168af4:	960c      	lw	a2,48(sp)
7b168af6:	cd60      	sh	v1,0(a1)
7b168af8:	ca20      	sh	s1,0(v0)
7b168afa:	260c      	beqz	a2,7b168b14 <.LBE4+0x3c>
7b168afc:	b345      	lw	v1,7b168c10 <.LBB15+0x4a>
7b168afe:	6e00      	li	a2,0
7b168b00:	9b80      	lw	a0,0(v1)
7b168b02:	6d02      	li	a1,2
7b168b04:	b244      	lw	v0,7b168c14 <.LBB15+0x4e>
7b168b06:	d504      	sw	a1,16(sp)
7b168b08:	67e6      	move	a3,a2
7b168b0a:	ea40      	jalr	v0
7b168b0c:	67b0      	move	a1,s0
7b168b0e:	98c0      	lw	a2,0(s0)
7b168b10:	940c      	lw	a0,48(sp)
7b168b12:	dcc0      	sw	a2,0(a0)
7b168b14:	9207      	lw	v0,28(sp)
7b168b16:	6476      	restore	48,ra,s0-s1
7b168b18:	e8a0      	jrc	ra
7b168b1a:	b53b      	lw	a1,7b168c04 <.LBB15+0x3e>
7b168b1c:	6799      	move	a0,t9
7b168b1e:	9dc0      	lw	a2,0(a1)
7b168b20:	b040      	lw	s0,7b168c20 <.LBB15+0x5a>
7b168b22:	aee0      	lhu	a3,0(a2)
7b168b24:	7301      	cmpi	v1,1
7b168b26:	e4eb      	subu	v0,a0,a3
7b168b28:	42a1      	addiu	a1,v0,1
7b168b2a:	c8a0      	sh	a1,0(s0)
7b168b2c:	61d7      	btnez	7b168adc <.LBE4+0x4>
7b168b2e:	b739      	lw	a3,7b168c10 <.LBB15+0x4a>
7b168b30:	b33b      	lw	v1,7b168c1c <.LBB15+0x56>
7b168b32:	9f80      	lw	a0,0(a3)
7b168b34:	6d1a      	li	a1,26
7b168b36:	9be1      	lw	a3,4(v1)
7b168b38:	b237      	lw	v0,7b168c14 <.LBB15+0x4e>
7b168b3a:	d504      	sw	a1,16(sp)
7b168b3c:	ea40      	jalr	v0
7b168b3e:	6d00      	li	a1,0
7b168b40:	677d      	move	v1,sp
7b168b42:	b736      	lw	a3,7b168c18 <.LBB15+0x52>
7b168b44:	abce      	lhu	a2,28(v1)
7b168b46:	df40      	sw	v0,0(a3)
7b168b48:	c8c0      	sh	a2,0(s0)
7b168b4a:	17c8      	b	7b168adc <.LBE4+0x4>

7b168b4c <.LBB7>:
7b168b4c:	b42e      	lw	a0,7b168c04 <.LBB15+0x3e>
7b168b4e:	9cc0      	lw	a2,0(a0)

7b168b50 <.LBB9>:
7b168b50:	ae80      	lhu	a0,0(a2)
7b168b52:	b730      	lw	a3,7b168c10 <.LBB15+0x4a>
7b168b54:	e183      	subu	s0,s1,a0
7b168b56:	b232      	lw	v0,7b168c1c <.LBB15+0x56>
7b168b58:	4001      	addiu	s0,s0,1
7b168b5a:	9f80      	lw	a0,0(a3)
7b168b5c:	b32e      	lw	v1,7b168c14 <.LBB15+0x4e>
7b168b5e:	9ae1      	lw	a3,4(v0)
7b168b60:	e831      	zeh	s0
7b168b62:	6d1a      	li	a1,26
7b168b64:	d504      	sw	a1,16(sp)
7b168b66:	eb40      	jalr	v1
7b168b68:	67b0      	move	a1,s0
7b168b6a:	b42c      	lw	a0,7b168c18 <.LBB15+0x52>
7b168b6c:	b62d      	lw	a2,7b168c20 <.LBB15+0x5a>
7b168b6e:	dc40      	sw	v0,0(a0)
7b168b70:	1854 8780 	jal	7a0a1e00 <fsel_total_file_curdir>
7b168b74:	ce00      	sh	s0,0(a2)
7b168b76:	b32c      	lw	v1,7b168c24 <.LBB15+0x5e>
7b168b78:	cb40      	sh	v0,0(v1)
7b168b7a:	6b01      	li	v1,1

7b168b7c <.LBE9>:
7b168b7c:	eb11      	zeb	v1
7b168b7e:	d307      	sw	v1,28(sp)
7b168b80:	17ad      	b	7b168adc <.LBE4+0x4>

7b168b82 <.LBB11>:
7b168b82:	67ff      	move	a3,ra
7b168b84:	eeea      	cmp	a2,a3
7b168b86:	6022      	bteqz	7b168bcc <.LBB15+0x6>
7b168b88:	b222      	lw	v0,7b168c10 <.LBB15+0x4a>
7b168b8a:	6d1b      	li	a1,27
7b168b8c:	9a80      	lw	a0,0(v0)
7b168b8e:	b322      	lw	v1,7b168c14 <.LBB15+0x4e>
7b168b90:	d504      	sw	a1,16(sp)
7b168b92:	b526      	lw	a1,7b168c28 <.LBB15+0x62>
7b168b94:	67ff      	move	a3,ra
7b168b96:	ebc0      	jalrc	v1
7b168b98:	ea11      	zeb	v0
7b168b9a:	6762      	move	v1,v0
7b168b9c:	229d      	beqz	v0,7b168ad8 <.LBE4>
7b168b9e:	98c0      	lw	a2,0(s0)
7b168ba0:	17d7      	b	7b168b50 <.LBB9>

7b168ba2 <.LBB13>:
7b168ba2:	b71c      	lw	a3,7b168c10 <.LBB15+0x4a>
7b168ba4:	b21e      	lw	v0,7b168c1c <.LBB15+0x56>
7b168ba6:	6799      	move	a0,t9
7b168ba8:	6b1a      	li	v1,26
7b168baa:	e197      	subu	a1,s1,a0
7b168bac:	9f80      	lw	a0,0(a3)
7b168bae:	9ae1      	lw	a3,4(v0)
7b168bb0:	b219      	lw	v0,7b168c14 <.LBB15+0x4e>
7b168bb2:	d304      	sw	v1,16(sp)
7b168bb4:	ea40      	jalr	v0
7b168bb6:	ed31      	zeh	a1
7b168bb8:	b718      	lw	a3,7b168c18 <.LBB15+0x52>
7b168bba:	98a0      	lw	a1,0(s0)
7b168bbc:	df40      	sw	v0,0(a3)
7b168bbe:	ad40      	lhu	v0,0(a1)
7b168bc0:	b318      	lw	v1,7b168c20 <.LBB15+0x5a>
7b168bc2:	e15b      	subu	a2,s1,v0
7b168bc4:	4641      	addiu	v0,a2,1

7b168bc6 <.LBB15>:
7b168bc6:	cb40      	sh	v0,0(v1)
7b168bc8:	6b01      	li	v1,1
7b168bca:	17d8      	b	7b168b7c <.LBE9>
7b168bcc:	6799      	move	a0,t9
7b168bce:	b711      	lw	a3,7b168c10 <.LBB15+0x4a>
7b168bd0:	b213      	lw	v0,7b168c1c <.LBB15+0x56>
7b168bd2:	e423      	subu	s0,a0,s1
7b168bd4:	b315      	lw	v1,7b168c28 <.LBB15+0x62>
7b168bd6:	e831      	zeh	s0
7b168bd8:	6d1a      	li	a1,26
7b168bda:	9f80      	lw	a0,0(a3)
7b168bdc:	9ae1      	lw	a3,4(v0)
7b168bde:	d504      	sw	a1,16(sp)
7b168be0:	b20d      	lw	v0,7b168c14 <.LBB15+0x4e>
7b168be2:	67b0      	move	a1,s0
7b168be4:	ea40      	jalr	v0
7b168be6:	ed6d      	or	a1,v1
7b168be8:	b30c      	lw	v1,7b168c18 <.LBB15+0x52>
7b168bea:	db40      	sw	v0,0(v1)
7b168bec:	b30d      	lw	v1,7b168c20 <.LBB15+0x5a>
7b168bee:	abc0      	lhu	a2,0(v1)
7b168bf0:	e60b      	subu	v0,a2,s0
7b168bf2:	cb40      	sh	v0,0(v1)
7b168bf4:	6b01      	li	v1,1
7b168bf6:	17c2      	b	7b168b7c <.LBE9>
7b168bf8:	9776      	lw	a3,472(sp)
7b168bfa:	9fc1      	lw	a2,4(a3)
7b168bfc:	976c      	lw	a3,432(sp)
7b168bfe:	9fc1      	lw	a2,4(a3)
7b168c00:	98ba      	lw	a1,104(s0)
7b168c02:	9fc1      	lw	a2,4(a3)
7b168c04:	9894      	lw	a0,80(s0)
7b168c06:	9fc1      	lw	a2,4(a3)
7b168c08:	98a4      	lw	a1,16(s0)
7b168c0a:	9fc1      	lw	a2,4(a3)
7b168c0c:	9584      	lw	a1,528(sp)
7b168c0e:	9fc1      	lw	a2,4(a3)
7b168c10:	958c      	lw	a1,560(sp)
7b168c12:	9fc1      	lw	a2,4(a3)
7b168c14:	6015      	bteqz	7b168c40 <fsel_sortlist_get_next+0x10>
7b168c16:	bfc2      	lwu	a2,8(a3)
7b168c18:	9778      	lw	a3,480(sp)
7b168c1a:	9fc1      	lw	a2,4(a3)
7b168c1c:	9764      	lw	a3,400(sp)
7b168c1e:	9fc1      	lw	a2,4(a3)
7b168c20:	9770      	lw	a3,448(sp)
7b168c22:	9fc1      	lw	a2,4(a3)
7b168c24:	9772      	lw	a3,456(sp)
7b168c26:	9fc1      	lw	a2,4(a3)
7b168c28:	0000      	addiu	s0,sp,0
7b168c2a:	8000      	lb	s0,0(s0)
7b168c2c:	9774      	lw	a3,464(sp)
7b168c2e:	9fc1      	lw	a2,4(a3)

7b168c30 <fsel_sortlist_get_next>:
7b168c30:	f004 64f6 	save	a0,48,ra,s0-s1
7b168c34:	b255      	lw	v0,7b168d88 <fsel_sortlist_get_next+0x158>
7b168c36:	6900      	li	s1,0
7b168c38:	a241      	lbu	v0,1(v0)
7b168c3a:	7201      	cmpi	v0,1
7b168c3c:	d106      	sw	s1,24(sp)
7b168c3e:	6024      	bteqz	7b168c88 <fsel_sortlist_get_next+0x58>
7b168c40:	5202      	slti	v0,2
7b168c42:	f080 6101 	btnez	7b168d48 <fsel_sortlist_get_next+0x118>
7b168c46:	7202      	cmpi	v0,2
7b168c48:	6135      	btnez	7b168cb4 <fsel_sortlist_get_next+0x84>
7b168c4a:	b147      	lw	s1,7b168d64 <fsel_sortlist_get_next+0x134>
7b168c4c:	b24a      	lw	v0,7b168d74 <fsel_sortlist_get_next+0x144>
7b168c4e:	a9e0      	lhu	a3,0(s1)
7b168c50:	aa00      	lhu	s0,0(v0)
7b168c52:	b64a      	lw	a2,7b168d78 <fsel_sortlist_get_next+0x148>
7b168c54:	4781      	addiu	a0,a3,1
7b168c56:	4061      	addiu	v1,s0,1
7b168c58:	6704      	move	s0,a0
7b168c5a:	ae80      	lhu	a0,0(a2)
7b168c5c:	eb31      	zeh	v1
7b168c5e:	67a4      	move	a1,a0
7b168c60:	ed31      	zeh	a1
7b168c62:	ed63      	sltu	a1,v1
7b168c64:	e831      	zeh	s0
7b168c66:	6003      	bteqz	7b168c6e <fsel_sortlist_get_next+0x3e>
7b168c68:	e08f      	subu	v1,s0,a0
7b168c6a:	6703      	move	s0,v1
7b168c6c:	e831      	zeh	s0
7b168c6e:	1896 a280 	jal	7b128a00 <fsel_sortlsit_vram_read>
7b168c72:	6790      	move	a0,s0
7b168c74:	940c      	lw	a0,48(sp)
7b168c76:	67a2      	move	a1,v0
7b168c78:	67d0      	move	a2,s0
7b168c7a:	18b6 a280 	jal	7b168a00 <fsel_list_get_byno_all>
7b168c7e:	6500      	nop
7b168c80:	6722      	move	s1,v0
7b168c82:	6751      	move	v0,s1
7b168c84:	6476      	restore	48,ra,s0-s1
7b168c86:	e8a0      	jrc	ra
7b168c88:	b437      	lw	a0,7b168d60 <fsel_sortlist_get_next+0x130>
7b168c8a:	ac60      	lhu	v1,0(a0)
7b168c8c:	2356      	beqz	v1,7b168d3a <fsel_sortlist_get_next+0x10a>
7b168c8e:	950c      	lw	a1,48(sp)
7b168c90:	250d      	beqz	a1,7b168cac <fsel_sortlist_get_next+0x7c>
7b168c92:	b036      	lw	s0,7b168d68 <fsel_sortlist_get_next+0x138>
7b168c94:	67d1      	move	a2,s1
7b168c96:	9880      	lw	a0,0(s0)
7b168c98:	b035      	lw	s0,7b168d6c <fsel_sortlist_get_next+0x13c>
7b168c9a:	67f1      	move	a3,s1
7b168c9c:	6a02      	li	v0,2
7b168c9e:	b135      	lw	s1,7b168d70 <fsel_sortlist_get_next+0x140>
7b168ca0:	d204      	sw	v0,16(sp)
7b168ca2:	e940      	jalr	s1
7b168ca4:	67b0      	move	a1,s0
7b168ca6:	98e0      	lw	a3,0(s0)
7b168ca8:	960c      	lw	a2,48(sp)
7b168caa:	dee0      	sw	a3,0(a2)
7b168cac:	6901      	li	s1,1
7b168cae:	6751      	move	v0,s1
7b168cb0:	6476      	restore	48,ra,s0-s1
7b168cb2:	e8a0      	jrc	ra
7b168cb4:	7203      	cmpi	v0,3
7b168cb6:	6149      	btnez	7b168d4a <fsel_sortlist_get_next+0x11a>
7b168cb8:	b231      	lw	v0,7b168d7c <fsel_sortlist_get_next+0x14c>
7b168cba:	9706      	lw	a3,24(sp)
7b168cbc:	aa80      	lhu	a0,0(v0)
7b168cbe:	b52a      	lw	a1,7b168d64 <fsel_sortlist_get_next+0x134>
7b168cc0:	67c4      	move	a2,a0
7b168cc2:	ee31      	zeh	a2
7b168cc4:	efc3      	sltu	a3,a2
7b168cc6:	ad60      	lhu	v1,0(a1)
7b168cc8:	60f2      	bteqz	7b168cae <fsel_sortlist_get_next+0x7e>
7b168cca:	b02e      	lw	s0,7b168d80 <fsel_sortlist_get_next+0x150>
7b168ccc:	a020      	lbu	s1,0(s0)
7b168cce:	7101      	cmpi	s1,1
7b168cd0:	602d      	bteqz	7b168d2c <fsel_sortlist_get_next+0xfc>
7b168cd2:	43a1      	addiu	a1,v1,1
7b168cd4:	6705      	move	s0,a1
7b168cd6:	e831      	zeh	s0
7b168cd8:	ec31      	zeh	a0
7b168cda:	ec03      	sltu	a0,s0
7b168cdc:	6101      	btnez	7b168ce0 <fsel_sortlist_get_next+0xb0>
7b168cde:	2805      	bnez	s0,7b168cea <fsel_sortlist_get_next+0xba>
7b168ce0:	b728      	lw	a3,7b168d80 <fsel_sortlist_get_next+0x150>
7b168ce2:	6801      	li	s0,1
7b168ce4:	a7c0      	lbu	a2,0(a3)
7b168ce6:	ee0a      	cmp	a2,s0
7b168ce8:	6034      	bteqz	7b168d52 <fsel_sortlist_get_next+0x122>
7b168cea:	1896 a280 	jal	7b128a00 <fsel_sortlsit_vram_read>
7b168cee:	6790      	move	a0,s0
7b168cf0:	940c      	lw	a0,48(sp)
7b168cf2:	67a2      	move	a1,v0
7b168cf4:	18b6 a280 	jal	7b168a00 <fsel_list_get_byno_all>
7b168cf8:	67d0      	move	a2,s0
7b168cfa:	6722      	move	s1,v0
7b168cfc:	9206      	lw	v0,24(sp)
7b168cfe:	4281      	addiu	a0,v0,1
7b168d00:	ec31      	zeh	a0
7b168d02:	d406      	sw	a0,24(sp)
7b168d04:	29d4      	bnez	s1,7b168cae <fsel_sortlist_get_next+0x7e>
7b168d06:	1856 a2e2 	jal	7b0a8b88 <fsel_first_list_entry>
7b168d0a:	6500      	nop
7b168d0c:	b31e      	lw	v1,7b168d84 <fsel_sortlist_get_next+0x154>
7b168d0e:	b516      	lw	a1,7b168d64 <fsel_sortlist_get_next+0x134>
7b168d10:	cb20      	sh	s1,0(v1)
7b168d12:	cd20      	sh	s1,0(a1)
7b168d14:	6771      	move	v1,s1
7b168d16:	b21a      	lw	v0,7b168d7c <fsel_sortlist_get_next+0x14c>
7b168d18:	aa80      	lhu	a0,0(v0)
7b168d1a:	9706      	lw	a3,24(sp)
7b168d1c:	67c4      	move	a2,a0
7b168d1e:	ee31      	zeh	a2
7b168d20:	efc3      	sltu	a3,a2
7b168d22:	60c5      	bteqz	7b168cae <fsel_sortlist_get_next+0x7e>
7b168d24:	b017      	lw	s0,7b168d80 <fsel_sortlist_get_next+0x150>
7b168d26:	a020      	lbu	s1,0(s0)
7b168d28:	7101      	cmpi	s1,1
7b168d2a:	61d3      	btnez	7b168cd2 <fsel_sortlist_get_next+0xa2>
7b168d2c:	1834 8869 	jal	7a0621a4 <fsel_shuffle_next_file>
7b168d30:	6500      	nop
7b168d32:	b313      	lw	v1,7b168d7c <fsel_sortlist_get_next+0x14c>
7b168d34:	6702      	move	s0,v0
7b168d36:	ab80      	lhu	a0,0(v1)
7b168d38:	17cf      	b	7b168cd8 <fsel_sortlist_get_next+0xa8>
7b168d3a:	1896 a280 	jal	7b128a00 <fsel_sortlsit_vram_read>
7b168d3e:	6791      	move	a0,s1
7b168d40:	940c      	lw	a0,48(sp)
7b168d42:	67a2      	move	a1,v0
7b168d44:	6e01      	li	a2,1
7b168d46:	1799      	b	7b168c7a <fsel_sortlist_get_next+0x4a>
7b168d48:	22b7      	beqz	v0,7b168cb8 <fsel_sortlist_get_next+0x88>
7b168d4a:	6900      	li	s1,0
7b168d4c:	6751      	move	v0,s1
7b168d4e:	6476      	restore	48,ra,s0-s1
7b168d50:	e8a0      	jrc	ra
7b168d52:	1834 8829 	jal	7a0620a4 <fsel_init_shuffle>
7b168d56:	6500      	nop
7b168d58:	1834 8869 	jal	7a0621a4 <fsel_shuffle_next_file>
7b168d5c:	6500      	nop
7b168d5e:	6702      	move	s0,v0
7b168d60:	17c4      	b	7b168cea <fsel_sortlist_get_next+0xba>
7b168d62:	0000      	addiu	s0,sp,0
7b168d64:	9774      	lw	a3,464(sp)
7b168d66:	9fc1      	lw	a2,4(a3)
7b168d68:	958c      	lw	a1,560(sp)
7b168d6a:	9fc1      	lw	a2,4(a3)
7b168d6c:	9778      	lw	a3,480(sp)
7b168d6e:	9fc1      	lw	a2,4(a3)
7b168d70:	6015      	bteqz	7b168d9c <fsel_sortlist_get_prev+0x10>
7b168d72:	bfc2      	lwu	a2,8(a3)
7b168d74:	9770      	lw	a3,448(sp)
7b168d76:	9fc1      	lw	a2,4(a3)
7b168d78:	9772      	lw	a3,456(sp)
7b168d7a:	9fc1      	lw	a2,4(a3)
7b168d7c:	9776      	lw	a3,472(sp)
7b168d7e:	9fc1      	lw	a2,4(a3)
7b168d80:	976e      	lw	a3,440(sp)
7b168d82:	9fc1      	lw	a2,4(a3)
7b168d84:	98ba      	lw	a1,104(s0)
7b168d86:	9fc1      	lw	a2,4(a3)
7b168d88:	9764      	lw	a3,400(sp)
7b168d8a:	9fc1      	lw	a2,4(a3)

7b168d8c <fsel_sortlist_get_prev>:
7b168d8c:	f004 64f6 	save	a0,48,ra,s0-s1
7b168d90:	b255      	lw	v0,7b168ee4 <fsel_sortlist_get_prev+0x158>
7b168d92:	6900      	li	s1,0
7b168d94:	a241      	lbu	v0,1(v0)
7b168d96:	7201      	cmpi	v0,1
7b168d98:	d106      	sw	s1,24(sp)
7b168d9a:	6022      	bteqz	7b168de0 <fsel_sortlist_get_prev+0x54>
7b168d9c:	5202      	slti	v0,2
7b168d9e:	f080 6102 	btnez	7b168ea6 <fsel_sortlist_get_prev+0x11a>
7b168da2:	7202      	cmpi	v0,2
7b168da4:	6133      	btnez	7b168e0c <fsel_sortlist_get_prev+0x80>
7b168da6:	b54b      	lw	a1,7b168ed0 <fsel_sortlist_get_prev+0x144>
7b168da8:	b446      	lw	a0,7b168ec0 <fsel_sortlist_get_prev+0x134>
7b168daa:	ad60      	lhu	v1,0(a1)
7b168dac:	ac00      	lhu	s0,0(a0)
7b168dae:	2306      	beqz	v1,7b168dbc <fsel_sortlist_get_prev+0x30>
7b168db0:	43cf      	addiu	a2,v1,-1
7b168db2:	406f      	addiu	v1,s0,-1
7b168db4:	6703      	move	s0,v1
7b168db6:	ee31      	zeh	a2
7b168db8:	e831      	zeh	s0
7b168dba:	2e05      	bnez	a2,7b168dc6 <fsel_sortlist_get_prev+0x3a>
7b168dbc:	b246      	lw	v0,7b168ed4 <fsel_sortlist_get_prev+0x148>
7b168dbe:	aa20      	lhu	s1,0(v0)
7b168dc0:	e03d      	addu	a3,s0,s1
7b168dc2:	6707      	move	s0,a3
7b168dc4:	e831      	zeh	s0
7b168dc6:	1896 a280 	jal	7b128a00 <fsel_sortlsit_vram_read>
7b168dca:	6790      	move	a0,s0
7b168dcc:	940c      	lw	a0,48(sp)
7b168dce:	67a2      	move	a1,v0
7b168dd0:	67d0      	move	a2,s0
7b168dd2:	18b6 a280 	jal	7b168a00 <fsel_list_get_byno_all>
7b168dd6:	6500      	nop
7b168dd8:	6722      	move	s1,v0
7b168dda:	6751      	move	v0,s1
7b168ddc:	6476      	restore	48,ra,s0-s1
7b168dde:	e8a0      	jrc	ra
7b168de0:	b438      	lw	a0,7b168ebc <fsel_sortlist_get_prev+0x130>
7b168de2:	ac60      	lhu	v1,0(a0)
7b168de4:	2359      	beqz	v1,7b168e98 <fsel_sortlist_get_prev+0x10c>
7b168de6:	950c      	lw	a1,48(sp)
7b168de8:	250d      	beqz	a1,7b168e04 <fsel_sortlist_get_prev+0x78>
7b168dea:	b037      	lw	s0,7b168ec4 <fsel_sortlist_get_prev+0x138>
7b168dec:	67d1      	move	a2,s1
7b168dee:	9880      	lw	a0,0(s0)
7b168df0:	b036      	lw	s0,7b168ec8 <fsel_sortlist_get_prev+0x13c>
7b168df2:	67f1      	move	a3,s1
7b168df4:	6a02      	li	v0,2
7b168df6:	b136      	lw	s1,7b168ecc <fsel_sortlist_get_prev+0x140>
7b168df8:	d204      	sw	v0,16(sp)
7b168dfa:	e940      	jalr	s1
7b168dfc:	67b0      	move	a1,s0
7b168dfe:	98e0      	lw	a3,0(s0)
7b168e00:	960c      	lw	a2,48(sp)
7b168e02:	dee0      	sw	a3,0(a2)
7b168e04:	6901      	li	s1,1
7b168e06:	6751      	move	v0,s1
7b168e08:	6476      	restore	48,ra,s0-s1
7b168e0a:	e8a0      	jrc	ra
7b168e0c:	7203      	cmpi	v0,3
7b168e0e:	614c      	btnez	7b168ea8 <fsel_sortlist_get_prev+0x11c>
7b168e10:	b732      	lw	a3,7b168ed8 <fsel_sortlist_get_prev+0x14c>
7b168e12:	9606      	lw	a2,24(sp)
7b168e14:	af60      	lhu	v1,0(a3)
7b168e16:	b42b      	lw	a0,7b168ec0 <fsel_sortlist_get_prev+0x134>
7b168e18:	67a3      	move	a1,v1
7b168e1a:	ed31      	zeh	a1
7b168e1c:	eea3      	sltu	a2,a1
7b168e1e:	ac00      	lhu	s0,0(a0)
7b168e20:	60f2      	bteqz	7b168e06 <fsel_sortlist_get_prev+0x7a>
7b168e22:	b22f      	lw	v0,7b168edc <fsel_sortlist_get_prev+0x150>
7b168e24:	a220      	lbu	s1,0(v0)
7b168e26:	7101      	cmpi	s1,1
7b168e28:	6030      	bteqz	7b168e8a <fsel_sortlist_get_prev+0xfe>
7b168e2a:	2003      	beqz	s0,7b168e32 <fsel_sortlist_get_prev+0xa6>
7b168e2c:	40af      	addiu	a1,s0,-1
7b168e2e:	6705      	move	s0,a1
7b168e30:	e831      	zeh	s0
7b168e32:	6743      	move	v0,v1
7b168e34:	ea31      	zeh	v0
7b168e36:	ea03      	sltu	v0,s0
7b168e38:	6101      	btnez	7b168e3c <fsel_sortlist_get_prev+0xb0>
7b168e3a:	2805      	bnez	s0,7b168e46 <fsel_sortlist_get_prev+0xba>
7b168e3c:	b328      	lw	v1,7b168edc <fsel_sortlist_get_prev+0x150>
7b168e3e:	6702      	move	s0,v0
7b168e40:	a3c0      	lbu	a2,0(v1)
7b168e42:	7601      	cmpi	a2,1
7b168e44:	6035      	bteqz	7b168eb0 <fsel_sortlist_get_prev+0x124>
7b168e46:	1896 a280 	jal	7b128a00 <fsel_sortlsit_vram_read>
7b168e4a:	6790      	move	a0,s0
7b168e4c:	940c      	lw	a0,48(sp)
7b168e4e:	67a2      	move	a1,v0
7b168e50:	18b6 a280 	jal	7b168a00 <fsel_list_get_byno_all>
7b168e54:	67d0      	move	a2,s0
7b168e56:	6722      	move	s1,v0
7b168e58:	9206      	lw	v0,24(sp)
7b168e5a:	42e1      	addiu	a3,v0,1
7b168e5c:	ef31      	zeh	a3
7b168e5e:	d706      	sw	a3,24(sp)
7b168e60:	29d2      	bnez	s1,7b168e06 <fsel_sortlist_get_prev+0x7a>
7b168e62:	1854 8798 	jal	7a0a1e60 <fsel_last_list_entry>
7b168e66:	6500      	nop
7b168e68:	b01e      	lw	s0,7b168ee0 <fsel_sortlist_get_prev+0x154>
7b168e6a:	b516      	lw	a1,7b168ec0 <fsel_sortlist_get_prev+0x134>
7b168e6c:	6c01      	li	a0,1
7b168e6e:	c880      	sh	a0,0(s0)
7b168e70:	cd80      	sh	a0,0(a1)
7b168e72:	6801      	li	s0,1
7b168e74:	b719      	lw	a3,7b168ed8 <fsel_sortlist_get_prev+0x14c>
7b168e76:	af60      	lhu	v1,0(a3)
7b168e78:	9606      	lw	a2,24(sp)
7b168e7a:	67a3      	move	a1,v1
7b168e7c:	ed31      	zeh	a1
7b168e7e:	eea3      	sltu	a2,a1
7b168e80:	60c2      	bteqz	7b168e06 <fsel_sortlist_get_prev+0x7a>
7b168e82:	b217      	lw	v0,7b168edc <fsel_sortlist_get_prev+0x150>
7b168e84:	a220      	lbu	s1,0(v0)
7b168e86:	7101      	cmpi	s1,1
7b168e88:	61d0      	btnez	7b168e2a <fsel_sortlist_get_prev+0x9e>
7b168e8a:	1834 8869 	jal	7a0621a4 <fsel_shuffle_next_file>
7b168e8e:	6500      	nop
7b168e90:	b412      	lw	a0,7b168ed8 <fsel_sortlist_get_prev+0x14c>
7b168e92:	6702      	move	s0,v0
7b168e94:	ac60      	lhu	v1,0(a0)
7b168e96:	17cd      	b	7b168e32 <fsel_sortlist_get_prev+0xa6>
7b168e98:	1896 a280 	jal	7b128a00 <fsel_sortlsit_vram_read>
7b168e9c:	6791      	move	a0,s1
7b168e9e:	940c      	lw	a0,48(sp)
7b168ea0:	67a2      	move	a1,v0
7b168ea2:	6e01      	li	a2,1
7b168ea4:	1796      	b	7b168dd2 <fsel_sortlist_get_prev+0x46>
7b168ea6:	22b4      	beqz	v0,7b168e10 <fsel_sortlist_get_prev+0x84>
7b168ea8:	6900      	li	s1,0
7b168eaa:	6751      	move	v0,s1
7b168eac:	6476      	restore	48,ra,s0-s1
7b168eae:	e8a0      	jrc	ra
7b168eb0:	1834 8829 	jal	7a0620a4 <fsel_init_shuffle>
7b168eb4:	6782      	move	a0,v0
7b168eb6:	1834 8897 	jal	7a06225c <fsel_shuffle_prev_file>
7b168eba:	6500      	nop
7b168ebc:	6702      	move	s0,v0
7b168ebe:	17c3      	b	7b168e46 <fsel_sortlist_get_prev+0xba>
7b168ec0:	9774      	lw	a3,464(sp)
7b168ec2:	9fc1      	lw	a2,4(a3)
7b168ec4:	958c      	lw	a1,560(sp)
7b168ec6:	9fc1      	lw	a2,4(a3)
7b168ec8:	9778      	lw	a3,480(sp)
7b168eca:	9fc1      	lw	a2,4(a3)
7b168ecc:	6015      	bteqz	7b168ef8 <fsel_sortlist_get_prev+0x16c>
7b168ece:	bfc2      	lwu	a2,8(a3)
7b168ed0:	9770      	lw	a3,448(sp)
7b168ed2:	9fc1      	lw	a2,4(a3)
7b168ed4:	9772      	lw	a3,456(sp)
7b168ed6:	9fc1      	lw	a2,4(a3)
7b168ed8:	9776      	lw	a3,472(sp)
7b168eda:	9fc1      	lw	a2,4(a3)
7b168edc:	976e      	lw	a3,440(sp)
7b168ede:	9fc1      	lw	a2,4(a3)
7b168ee0:	98ba      	lw	a1,104(s0)
7b168ee2:	9fc1      	lw	a2,4(a3)
7b168ee4:	9764      	lw	a3,400(sp)
7b168ee6:	9fc1      	lw	a2,4(a3)
Disassembly of section BANK_ENHANCED_2_6:

7b1a8a00 <fsel_sortlist_next_dir>:
7b1a8a00:	64e3      	save	24,ra,s0
7b1a8a02:	b206      	lw	v0,7b1a8a18 <fsel_sortlist_next_dir+0x18>
7b1a8a04:	6704      	move	s0,a0
7b1a8a06:	1896 a280 	jal	7b128a00 <fsel_sortlsit_vram_read>
7b1a8a0a:	aa80      	lhu	a0,0(v0)
7b1a8a0c:	1854 8805 	jal	7a0a2014 <fsel_list_next_dir>
7b1a8a10:	6790      	move	a0,s0
7b1a8a12:	6463      	restore	24,ra,s0
7b1a8a14:	e8a0      	jrc	ra
7b1a8a16:	0000      	addiu	s0,sp,0
7b1a8a18:	9774      	lw	a3,464(sp)
7b1a8a1a:	9fc1      	lw	a2,4(a3)

7b1a8a1c <fsel_sortlist_prev_dir>:
7b1a8a1c:	64e3      	save	24,ra,s0
7b1a8a1e:	b206      	lw	v0,7b1a8a34 <fsel_sortlist_prev_dir+0x18>
7b1a8a20:	6704      	move	s0,a0
7b1a8a22:	1896 a280 	jal	7b128a00 <fsel_sortlsit_vram_read>
7b1a8a26:	aa80      	lhu	a0,0(v0)
7b1a8a28:	1854 8844 	jal	7a0a2110 <fsel_list_prev_dir>
7b1a8a2c:	6790      	move	a0,s0
7b1a8a2e:	6463      	restore	24,ra,s0
7b1a8a30:	e8a0      	jrc	ra
7b1a8a32:	0000      	addiu	s0,sp,0
7b1a8a34:	9774      	lw	a3,464(sp)
7b1a8a36:	9fc1      	lw	a2,4(a3)

7b1a8a38 <fsel_total_file_sortlist>:
7b1a8a38:	64c3      	save	24,ra
7b1a8a3a:	1896 a280 	jal	7b128a00 <fsel_sortlsit_vram_read>
7b1a8a3e:	6c00      	li	a0,0
7b1a8a40:	1854 878d 	jal	7a0a1e34 <fsel_total_file_alldir>
7b1a8a44:	6500      	nop
7b1a8a46:	6443      	restore	24,ra
7b1a8a48:	e8a0      	jrc	ra
7b1a8a4a:	6500      	nop
Disassembly of section BANK_CONTROL_1_40:

60a26800 <get_engine_type_by_appid>:
60a26800:	b609      	lw	a2,60a26824 <get_engine_type_by_appid+0x24>
60a26802:	ec11      	zeb	a0
60a26804:	6d00      	li	a1,0
60a26806:	37a4      	sll	a3,a1,1
60a26808:	e7cd      	addu	v1,a3,a2
60a2680a:	a340      	lbu	v0,0(v1)
60a2680c:	ea8e      	xor	v0,a0
60a2680e:	2a02      	bnez	v0,60a26814 <get_engine_type_by_appid+0x14>
60a26810:	e820      	jr	ra
60a26812:	a341      	lbu	v0,1(v1)
60a26814:	4561      	addiu	v1,a1,1
60a26816:	67a3      	move	a1,v1
60a26818:	ed11      	zeb	a1
60a2681a:	5d06      	sltiu	a1,6
60a2681c:	61f4      	btnez	60a26806 <get_engine_type_by_appid+0x6>
60a2681e:	e820      	jr	ra
60a26820:	6a00      	li	v0,0
60a26822:	0000      	addiu	s0,sp,0
60a26824:	6854      	li	s0,84
60a26826:	60a2      	bteqz	60a2676c <get_music_decrypt_status+0x7ff930>

60a26828 <get_engine_appid_by_type>:
60a26828:	ec11      	zeb	a0
60a2682a:	6a1b      	li	v0,27
60a2682c:	2c03      	bnez	a0,60a26834 <get_engine_appid_by_type+0xc>
60a2682e:	100f      	b	60a2684e <get_engine_appid_by_type+0x26>
60a26830:	e820      	jr	ra
60a26832:	a340      	lbu	v0,0(v1)
60a26834:	b607      	lw	a2,60a26850 <get_engine_appid_by_type+0x28>
60a26836:	6d00      	li	a1,0
60a26838:	37a4      	sll	a3,a1,1
60a2683a:	e7cd      	addu	v1,a3,a2
60a2683c:	a341      	lbu	v0,1(v1)
60a2683e:	ea8e      	xor	v0,a0
60a26840:	22f7      	beqz	v0,60a26830 <get_engine_appid_by_type+0x8>
60a26842:	4561      	addiu	v1,a1,1
60a26844:	67a3      	move	a1,v1
60a26846:	ed11      	zeb	a1
60a26848:	5d06      	sltiu	a1,6
60a2684a:	61f6      	btnez	60a26838 <get_engine_appid_by_type+0x10>
60a2684c:	6a1b      	li	v0,27
60a2684e:	e8a0      	jrc	ra
60a26850:	6854      	li	s0,84
60a26852:	60a2      	bteqz	60a26798 <get_music_decrypt_status+0x7ff95c>

60a26854 <applib_app2eg_type>:
60a26854:	010e 0212 030f 0410 0511 0613               ............

60a26860 <applib_init>:
60a26860:	64f5      	save	40,ra,s0-s1
60a26862:	ec11      	zeb	a0
60a26864:	6705      	move	s0,a1
60a26866:	5c1b      	sltiu	a0,27
60a26868:	d404      	sw	a0,16(sp)
60a2686a:	e811      	zeb	s0
60a2686c:	6a00      	li	v0,0
60a2686e:	6056      	bteqz	60a2691c <applib_init+0xbc>
60a26870:	6b01      	li	v1,1
60a26872:	eb0e      	xor	v1,s0
60a26874:	5b01      	sltiu	v1,1
60a26876:	6758      	move	v0,t8
60a26878:	d205      	sw	v0,20(sp)
60a2687a:	220a      	beqz	v0,60a26890 <applib_init+0x30>
60a2687c:	b12d      	lw	s1,60a26930 <applib_init+0xd0>
60a2687e:	6c0a      	li	a0,10
60a26880:	6d07      	li	a1,7
60a26882:	6e00      	li	a2,0
60a26884:	e940      	jalr	s1
60a26886:	6f03      	li	a3,3
60a26888:	b42b      	lw	a0,60a26934 <applib_init+0xd4>
60a2688a:	6d00      	li	a1,0
60a2688c:	c4a3      	sb	a1,3(a0)
60a2688e:	1008      	b	60a268a0 <applib_init+0x40>
60a26890:	7002      	cmpi	s0,2
60a26892:	6106      	btnez	60a268a0 <applib_init+0x40>
60a26894:	b227      	lw	v0,60a26930 <applib_init+0xd0>
60a26896:	6c06      	li	a0,6
60a26898:	6d02      	li	a1,2
60a2689a:	6e00      	li	a2,0
60a2689c:	ea40      	jalr	v0
60a2689e:	6f03      	li	a3,3
60a268a0:	b426      	lw	a0,60a26938 <applib_init+0xd8>
60a268a2:	3308      	sll	v1,s0,2
60a268a4:	e385      	addu	s1,v1,a0
60a268a6:	b226      	lw	v0,60a2693c <applib_init+0xdc>
60a268a8:	6c00      	li	a0,0
60a268aa:	67a4      	move	a1,a0
60a268ac:	67c4      	move	a2,a0
60a268ae:	ea40      	jalr	v0
60a268b0:	6f33      	li	a3,51
60a268b2:	b224      	lw	v0,60a26940 <applib_init+0xe0>
60a268b4:	6e04      	li	a2,4
60a268b6:	6f01      	li	a3,1
60a268b8:	6791      	move	a0,s1
60a268ba:	ea40      	jalr	v0
60a268bc:	6d00      	li	a1,0
60a268be:	6a01      	li	v0,1
60a268c0:	c140      	sb	v0,0(s1)
60a268c2:	67fd      	move	a3,sp
60a268c4:	a7d0      	lbu	a2,16(a3)
60a268c6:	c102      	sb	s0,2(s1)
60a268c8:	c1c1      	sb	a2,1(s1)
60a268ca:	2802      	bnez	s0,60a268d0 <applib_init+0x70>
60a268cc:	c103      	sb	s0,3(s1)
60a268ce:	1012      	b	60a268f4 <applib_init+0x94>
60a268d0:	7003      	cmpi	s0,3
60a268d2:	6103      	btnez	60a268da <applib_init+0x7a>
60a268d4:	6803      	li	s0,3
60a268d6:	c103      	sb	s0,3(s1)
60a268d8:	100d      	b	60a268f4 <applib_init+0x94>
60a268da:	9505      	lw	a1,20(sp)
60a268dc:	b016      	lw	s0,60a26934 <applib_init+0xd4>
60a268de:	2504      	beqz	a1,60a268e8 <applib_init+0x88>
60a268e0:	6e00      	li	a2,0
60a268e2:	c143      	sb	v0,3(s1)
60a268e4:	c0c2      	sb	a2,2(s0)
60a268e6:	1006      	b	60a268f4 <applib_init+0x94>
60a268e8:	6f02      	li	a3,2
60a268ea:	c1e3      	sb	a3,3(s1)
60a268ec:	b216      	lw	v0,60a26944 <applib_init+0xe4>
60a268ee:	ea40      	jalr	v0
60a268f0:	9404      	lw	a0,16(sp)
60a268f2:	c040      	sb	v0,0(s0)
60a268f4:	6c00      	li	a0,0
60a268f6:	b012      	lw	s0,60a2693c <applib_init+0xdc>
60a268f8:	67a4      	move	a1,a0
60a268fa:	67c4      	move	a2,a0
60a268fc:	e840      	jalr	s0
60a268fe:	6f34      	li	a3,52
60a26900:	b412      	lw	a0,60a26948 <applib_init+0xe8>
60a26902:	b210      	lw	v0,60a26940 <applib_init+0xe0>
60a26904:	dc20      	sw	s1,0(a0)
60a26906:	b412      	lw	a0,60a2694c <applib_init+0xec>
60a26908:	6d01      	li	a1,1
60a2690a:	6e00      	li	a2,0
60a2690c:	ea40      	jalr	v0
60a2690e:	6f12      	li	a3,18
60a26910:	9504      	lw	a1,16(sp)
60a26912:	0c04      	la	a0,60a26920 <applib_init+0xc0>
60a26914:	6e02      	li	a2,2
60a26916:	e840      	jalr	s0
60a26918:	6f4b      	li	a3,75
60a2691a:	6a01      	li	v0,1
60a2691c:	6475      	restore	40,ra,s0-s1
60a2691e:	e8a0      	jrc	ra
60a26920:	493c      	addiu	s1,60
60a26922:	203e      	beqz	s0,60a269a0 <.LBE2+0x14>
60a26924:	7061      	cmpi	s0,97
60a26926:	2070      	beqz	s0,60a26a08 <.LBE2+0x7c>
60a26928:	6e69      	li	a2,105
60a2692a:	7469      	cmpi	a0,105
60a2692c:	003a      	addiu	s0,sp,232
60a2692e:	0000      	addiu	s0,sp,0
60a26930:	6005      	bteqz	60a2693c <applib_init+0xdc>
60a26932:	bfc2      	lwu	a2,8(a3)
60a26934:	a094      	lbu	a0,20(s0)
60a26936:	9fc1      	lw	a2,4(a3)
60a26938:	a080      	lbu	a0,0(s0)
60a2693a:	9fc1      	lw	a2,4(a3)
60a2693c:	6011      	bteqz	60a26960 <applib_quit+0x10>
60a2693e:	bfc2      	lwu	a2,8(a3)
60a26940:	6009      	bteqz	60a26954 <applib_quit+0x4>
60a26942:	bfc2      	lwu	a2,8(a3)
60a26944:	6801      	li	s0,1
60a26946:	60a2      	bteqz	60a2688c <applib_init+0x2c>
60a26948:	9758      	lw	a3,352(sp)
60a2694a:	9fc1      	lw	a2,4(a3)
60a2694c:	975c      	lw	a3,368(sp)
60a2694e:	9fc1      	lw	a2,4(a3)

60a26950 <applib_quit>:
60a26950:	64f5      	save	40,ra,s0-s1
60a26952:	b02f      	lw	s0,60a26a0c <.LBE2+0x80>
60a26954:	b12f      	lw	s1,60a26a10 <.LBE2+0x84>
60a26956:	9860      	lw	v1,0(s0)
60a26958:	0c29      	la	a0,60a269fc <.LBE2+0x70>
60a2695a:	a3a1      	lbu	a1,1(v1)
60a2695c:	6e02      	li	a2,2
60a2695e:	e940      	jalr	s1
60a26960:	6f4b      	li	a3,75
60a26962:	6d00      	li	a1,0
60a26964:	b42c      	lw	a0,60a26a14 <.LBE2+0x88>
60a26966:	b12d      	lw	s1,60a26a18 <.LBE2+0x8c>
60a26968:	67c5      	move	a2,a1
60a2696a:	e940      	jalr	s1
60a2696c:	6f13      	li	a3,19
60a2696e:	98a0      	lw	a1,0(s0)
60a26970:	a542      	lbu	v0,2(a1)
60a26972:	7202      	cmpi	v0,2
60a26974:	6104      	btnez	60a2697e <applib_quit+0x2e>
60a26976:	b42a      	lw	a0,60a26a1c <.LBE2+0x90>
60a26978:	6e00      	li	a2,0
60a2697a:	c4c0      	sb	a2,0(a0)
60a2697c:	c4c1      	sb	a2,1(a0)
60a2697e:	0404      	addiu	a0,sp,16
60a26980:	6f00      	li	a3,0
60a26982:	e940      	jalr	s1
60a26984:	6e04      	li	a2,4
60a26986:	67fd      	move	a3,sp
60a26988:	6a1b      	li	v0,27

60a2698a <.LBB2>:
60a2698a:	98a0      	lw	a1,0(s0)

60a2698c <.LBE2>:
60a2698c:	c751      	sb	v0,17(a3)
60a2698e:	a581      	lbu	a0,1(a1)
60a26990:	6b00      	li	v1,0
60a26992:	5c1b      	sltiu	a0,27
60a26994:	c770      	sb	v1,16(a3)
60a26996:	6020      	bteqz	60a269d8 <.LBE2+0x4c>
60a26998:	b522      	lw	a1,60a26a20 <.LBE2+0x94>
60a2699a:	6b00      	li	v1,0
60a2699c:	3668      	sll	a2,v1,2
60a2699e:	e6a5      	addu	s1,a2,a1
60a269a0:	a100      	lbu	s0,0(s1)
60a269a2:	7001      	cmpi	s0,1
60a269a4:	6103      	btnez	60a269ac <.LBE2+0x20>
60a269a6:	a1e1      	lbu	a3,1(s1)
60a269a8:	ef8e      	xor	a3,a0
60a269aa:	2705      	beqz	a3,60a269b6 <.LBE2+0x2a>
60a269ac:	4341      	addiu	v0,v1,1
60a269ae:	6762      	move	v1,v0
60a269b0:	eb11      	zeb	v1
60a269b2:	5b04      	sltiu	v1,4
60a269b4:	61f3      	btnez	60a2699c <.LBE2+0x10>
60a269b6:	6c00      	li	a0,0
60a269b8:	b016      	lw	s0,60a26a10 <.LBE2+0x84>
60a269ba:	67a4      	move	a1,a0
60a269bc:	67c4      	move	a2,a0
60a269be:	e840      	jalr	s0
60a269c0:	6f33      	li	a3,51
60a269c2:	b216      	lw	v0,60a26a18 <.LBE2+0x8c>
60a269c4:	6791      	move	a0,s1
60a269c6:	0504      	addiu	a1,sp,16
60a269c8:	6e04      	li	a2,4
60a269ca:	ea40      	jalr	v0
60a269cc:	6f00      	li	a3,0
60a269ce:	6c00      	li	a0,0
60a269d0:	67a4      	move	a1,a0
60a269d2:	67c4      	move	a2,a0
60a269d4:	e840      	jalr	s0
60a269d6:	6f34      	li	a3,52
60a269d8:	b50d      	lw	a1,60a26a0c <.LBE2+0x80>
60a269da:	9d80      	lw	a0,0(a1)
60a269dc:	a442      	lbu	v0,2(a0)
60a269de:	6c0a      	li	a0,10
60a269e0:	7201      	cmpi	v0,1
60a269e2:	6003      	bteqz	60a269ea <.LBE2+0x5e>
60a269e4:	7202      	cmpi	v0,2
60a269e6:	6106      	btnez	60a269f4 <.LBE2+0x68>
60a269e8:	6c06      	li	a0,6
60a269ea:	6d00      	li	a1,0
60a269ec:	b20e      	lw	v0,60a26a24 <.LBE2+0x98>
60a269ee:	67c5      	move	a2,a1
60a269f0:	ea40      	jalr	v0
60a269f2:	6f03      	li	a3,3
60a269f4:	6a01      	li	v0,1
60a269f6:	6475      	restore	40,ra,s0-s1
60a269f8:	e8a0      	jrc	ra
60a269fa:	0000      	addiu	s0,sp,0
60a269fc:	493c      	addiu	s1,60
60a269fe:	203e      	beqz	s0,60a26a7c <__set_timer+0x54>
60a26a00:	7061      	cmpi	s0,97
60a26a02:	2070      	beqz	s0,60a26ae4 <__set_timer+0xbc>
60a26a04:	7571      	cmpi	a1,113
60a26a06:	7469      	cmpi	a0,105
60a26a08:	003a      	addiu	s0,sp,232
60a26a0a:	0000      	addiu	s0,sp,0
60a26a0c:	9758      	lw	a3,352(sp)
60a26a0e:	9fc1      	lw	a2,4(a3)
60a26a10:	6011      	bteqz	60a26a34 <__set_timer+0xc>
60a26a12:	bfc2      	lwu	a2,8(a3)
60a26a14:	975c      	lw	a3,368(sp)
60a26a16:	9fc1      	lw	a2,4(a3)
60a26a18:	6009      	bteqz	60a26a2c <__set_timer+0x4>
60a26a1a:	bfc2      	lwu	a2,8(a3)
60a26a1c:	a094      	lbu	a0,20(s0)
60a26a1e:	9fc1      	lw	a2,4(a3)
60a26a20:	a080      	lbu	a0,0(s0)
60a26a22:	9fc1      	lw	a2,4(a3)
60a26a24:	6005      	bteqz	60a26a30 <__set_timer+0x8>
60a26a26:	bfc2      	lwu	a2,8(a3)

60a26a28 <__set_timer>:
60a26a28:	64f7      	save	56,ra,s0-s1
60a26a2a:	ec11      	zeb	a0
60a26a2c:	d404      	sw	a0,16(sp)
60a26a2e:	9312      	lw	v1,72(sp)
60a26a30:	6c01      	li	a0,1
60a26a32:	ea8b      	neg	v0,a0
60a26a34:	ed11      	zeb	a1
60a26a36:	d505      	sw	a1,20(sp)
60a26a38:	d606      	sw	a2,24(sp)
60a26a3a:	d707      	sw	a3,28(sp)
60a26a3c:	d208      	sw	v0,32(sp)
60a26a3e:	651a      	move	t8,v0
60a26a40:	2346      	beqz	v1,60a26ace <__set_timer+0xa6>
60a26a42:	2f28      	bnez	a3,60a26a94 <__set_timer+0x6c>
60a26a44:	1044      	b	60a26ace <__set_timer+0xa6>
60a26a46:	67fd      	move	a3,sp
60a26a48:	af8e      	lhu	a0,28(a3)
60a26a4a:	b22c      	lw	v0,60a26af8 <__set_timer+0xd0>
60a26a4c:	67a6      	move	a1,a2
60a26a4e:	d308      	sw	v1,32(sp)
60a26a50:	c882      	sh	a0,4(s0)
60a26a52:	6f1c      	li	a3,28
60a26a54:	ea40      	jalr	v0
60a26a56:	6786      	move	a0,a2
60a26a58:	9307      	lw	v1,28(sp)
60a26a5a:	9712      	lw	a3,72(sp)
60a26a5c:	e275      	addu	a1,v0,v1
60a26a5e:	d8e3      	sw	a3,12(s0)
60a26a60:	6a04      	li	v0,4
60a26a62:	a0e0      	lbu	a3,0(s0)
60a26a64:	9604      	lw	a2,16(sp)
60a26a66:	ec4b      	neg	a0,v0
60a26a68:	ef8c      	and	a3,a0
60a26a6a:	d8a2      	sw	a1,8(s0)
60a26a6c:	6c01      	li	a0,1
60a26a6e:	6d0d      	li	a1,13
60a26a70:	ebab      	neg	v1,a1
60a26a72:	ef8d      	or	a3,a0
60a26a74:	e9cc      	and	s1,a2
60a26a76:	9605      	lw	a2,20(sp)
60a26a78:	3228      	sll	v0,s1,2
60a26a7a:	ef6c      	and	a3,v1
60a26a7c:	6d11      	li	a1,17
60a26a7e:	ef4d      	or	a3,v0
60a26a80:	eccc      	and	a0,a2
60a26a82:	ebab      	neg	v1,a1
60a26a84:	3290      	sll	v0,a0,4
60a26a86:	ef6c      	and	a3,v1
60a26a88:	ef4d      	or	a3,v0
60a26a8a:	c0e0      	sb	a3,0(s0)
60a26a8c:	67dd      	move	a2,sp
60a26a8e:	a6b8      	lbu	a1,24(a2)
60a26a90:	c0a1      	sb	a1,1(s0)
60a26a92:	1012      	b	60a26ab8 <__set_timer+0x90>
60a26a94:	b617      	lw	a2,60a26af0 <__set_timer+0xc8>
60a26a96:	6b00      	li	v1,0
60a26a98:	a680      	lbu	a0,0(a2)
60a26a9a:	240e      	beqz	a0,60a26ab8 <__set_timer+0x90>
60a26a9c:	b516      	lw	a1,60a26af4 <__set_timer+0xcc>
60a26a9e:	6903      	li	s1,3
60a26aa0:	9d00      	lw	s0,0(a1)
60a26aa2:	a0c0      	lbu	a2,0(s0)
60a26aa4:	ee2c      	and	a2,s1
60a26aa6:	26cf      	beqz	a2,60a26a46 <__set_timer+0x1e>
60a26aa8:	43e1      	addiu	a3,v1,1
60a26aaa:	6767      	move	v1,a3
60a26aac:	6744      	move	v0,a0
60a26aae:	eb91      	seb	v1
60a26ab0:	ea11      	zeb	v0
60a26ab2:	eb42      	slt	v1,v0
60a26ab4:	4810      	addiu	s0,16
60a26ab6:	61f5      	btnez	60a26aa2 <__set_timer+0x7a>
60a26ab8:	9308      	lw	v1,32(sp)
60a26aba:	ec6f      	not	a0,v1
60a26abc:	651b      	move	t8,v1
60a26abe:	2c07      	bnez	a0,60a26ace <__set_timer+0xa6>
60a26ac0:	6d00      	li	a1,0
60a26ac2:	b00e      	lw	s0,60a26af8 <__set_timer+0xd0>
60a26ac4:	0c04      	la	a0,60a26ad4 <__set_timer+0xac>
60a26ac6:	67c5      	move	a2,a1
60a26ac8:	e840      	jalr	s0
60a26aca:	6f4b      	li	a3,75
60a26acc:	17ff      	b	60a26acc <__set_timer+0xa4>
60a26ace:	6758      	move	v0,t8
60a26ad0:	6477      	restore	56,ra,s0-s1
60a26ad2:	e8a0      	jrc	ra
60a26ad4:	453c      	daddiu	s1,a1,-4
60a26ad6:	203e      	beqz	s0,60a26b54 <modify_app_timer+0x20>
60a26ad8:	6573      	move	s3,v1
60a26ada:	2074      	beqz	s0,60a26bc4 <restart_app_timer+0xc>
60a26adc:	7061      	cmpi	s0,97
60a26ade:	2070      	beqz	s0,60a26bc0 <restart_app_timer+0x8>
60a26ae0:	6974      	li	s1,116
60a26ae2:	656d      	move	t3,a1
60a26ae4:	2072      	beqz	s0,60a26bca <restart_app_timer+0x12>
60a26ae6:	6166      	btnez	60a26bb4 <stop_app_timer+0x34>
60a26ae8:	6c69      	li	a0,105
60a26aea:	2121      	beqz	s1,60a26b2e <set_single_shot_app_timer+0x16>
60a26aec:	0000      	addiu	s0,sp,0
60a26aee:	0000      	addiu	s0,sp,0
60a26af0:	9760      	lw	a3,384(sp)
60a26af2:	9fc1      	lw	a2,4(a3)
60a26af4:	9750      	lw	a3,320(sp)
60a26af6:	9fc1      	lw	a2,4(a3)
60a26af8:	6011      	bteqz	60a26b1c <set_single_shot_app_timer+0x4>
60a26afa:	bfc2      	lwu	a2,8(a3)

60a26afc <set_app_timer>:
60a26afc:	64c4      	save	32,ra
60a26afe:	3282      	srl	v0,a0,8
60a26b00:	d604      	sw	a2,16(sp)
60a26b02:	67e5      	move	a3,a1
60a26b04:	67c2      	move	a2,v0
60a26b06:	ef31      	zeh	a3
60a26b08:	ec11      	zeb	a0
60a26b0a:	6d00      	li	a1,0
60a26b0c:	1901 9a8a 	jal	60a26a28 <__set_timer>
60a26b10:	ee11      	zeb	a2
60a26b12:	6444      	restore	32,ra
60a26b14:	e8a0      	jrc	ra
	...

60a26b18 <set_single_shot_app_timer>:
60a26b18:	64c4      	save	32,ra
60a26b1a:	3282      	srl	v0,a0,8
60a26b1c:	d604      	sw	a2,16(sp)
60a26b1e:	67e5      	move	a3,a1
60a26b20:	67c2      	move	a2,v0
60a26b22:	ef31      	zeh	a3
60a26b24:	ec11      	zeb	a0
60a26b26:	6d01      	li	a1,1
60a26b28:	1901 9a8a 	jal	60a26a28 <__set_timer>
60a26b2c:	ee11      	zeb	a2
60a26b2e:	6444      	restore	32,ra
60a26b30:	e8a0      	jrc	ra
	...

60a26b34 <modify_app_timer>:
60a26b34:	64f4      	save	32,ra,s0-s1
60a26b36:	ec91      	seb	a0
60a26b38:	6705      	move	s0,a1
60a26b3a:	ea8f      	not	v0,a0
60a26b3c:	e831      	zeh	s0
60a26b3e:	2206      	beqz	v0,60a26b4c <modify_app_timer+0x18>
60a26b40:	b60d      	lw	a2,60a26b74 <modify_app_timer+0x40>
60a26b42:	67a4      	move	a1,a0
60a26b44:	a660      	lbu	v1,0(a2)
60a26b46:	ed11      	zeb	a1
60a26b48:	ed63      	sltu	a1,v1
60a26b4a:	6102      	btnez	60a26b50 <modify_app_timer+0x1c>
60a26b4c:	6a00      	li	v0,0
60a26b4e:	1010      	b	60a26b70 <modify_app_timer+0x3c>
60a26b50:	b10a      	lw	s1,60a26b78 <modify_app_timer+0x44>
60a26b52:	3790      	sll	a3,a0,4
60a26b54:	9980      	lw	a0,0(s1)
60a26b56:	6750      	move	v0,s0
60a26b58:	e4e5      	addu	s1,a0,a3
60a26b5a:	200a      	beqz	s0,60a26b70 <modify_app_timer+0x3c>
60a26b5c:	6c00      	li	a0,0
60a26b5e:	b208      	lw	v0,60a26b7c <modify_app_timer+0x48>
60a26b60:	c902      	sh	s0,4(s1)
60a26b62:	67a4      	move	a1,a0
60a26b64:	67c4      	move	a2,a0
60a26b66:	ea40      	jalr	v0
60a26b68:	6f1c      	li	a3,28
60a26b6a:	e209      	addu	v0,s0
60a26b6c:	d942      	sw	v0,8(s1)
60a26b6e:	6a01      	li	v0,1
60a26b70:	6474      	restore	32,ra,s0-s1
60a26b72:	e8a0      	jrc	ra
60a26b74:	9760      	lw	a3,384(sp)
60a26b76:	9fc1      	lw	a2,4(a3)
60a26b78:	9750      	lw	a3,320(sp)
60a26b7a:	9fc1      	lw	a2,4(a3)
60a26b7c:	6011      	bteqz	60a26ba0 <stop_app_timer+0x20>
60a26b7e:	bfc2      	lwu	a2,8(a3)

60a26b80 <stop_app_timer>:
60a26b80:	ec91      	seb	a0
60a26b82:	ea8f      	not	v0,a0
60a26b84:	2206      	beqz	v0,60a26b92 <stop_app_timer+0x12>
60a26b86:	b60b      	lw	a2,60a26bb0 <stop_app_timer+0x30>
60a26b88:	67a4      	move	a1,a0
60a26b8a:	a660      	lbu	v1,0(a2)
60a26b8c:	ed11      	zeb	a1
60a26b8e:	ed63      	sltu	a1,v1
60a26b90:	6102      	btnez	60a26b96 <stop_app_timer+0x16>
60a26b92:	e820      	jr	ra
60a26b94:	6a00      	li	v0,0
60a26b96:	3790      	sll	a3,a0,4
60a26b98:	b407      	lw	a0,60a26bb4 <stop_app_timer+0x34>
60a26b9a:	6d04      	li	a1,4
60a26b9c:	9cc0      	lw	a2,0(a0)
60a26b9e:	ebab      	neg	v1,a1
60a26ba0:	e6f1      	addu	a0,a2,a3
60a26ba2:	a4e0      	lbu	a3,0(a0)
60a26ba4:	4346      	addiu	v0,v1,6
60a26ba6:	ef6c      	and	a3,v1
60a26ba8:	ef4d      	or	a3,v0
60a26baa:	6a01      	li	v0,1
60a26bac:	e820      	jr	ra
60a26bae:	c4e0      	sb	a3,0(a0)
60a26bb0:	9760      	lw	a3,384(sp)
60a26bb2:	9fc1      	lw	a2,4(a3)
60a26bb4:	9750      	lw	a3,320(sp)
60a26bb6:	9fc1      	lw	a2,4(a3)

60a26bb8 <restart_app_timer>:
60a26bb8:	64f4      	save	32,ra,s0-s1
60a26bba:	ec91      	seb	a0
60a26bbc:	ea8f      	not	v0,a0
60a26bbe:	2206      	beqz	v0,60a26bcc <restart_app_timer+0x14>
60a26bc0:	b610      	lw	a2,60a26c00 <restart_app_timer+0x48>
60a26bc2:	67a4      	move	a1,a0
60a26bc4:	a660      	lbu	v1,0(a2)
60a26bc6:	ed11      	zeb	a1
60a26bc8:	ed63      	sltu	a1,v1
60a26bca:	6102      	btnez	60a26bd0 <restart_app_timer+0x18>
60a26bcc:	6a00      	li	v0,0
60a26bce:	1015      	b	60a26bfa <restart_app_timer+0x42>
60a26bd0:	3690      	sll	a2,a0,4
60a26bd2:	b40d      	lw	a0,60a26c04 <restart_app_timer+0x4c>
60a26bd4:	6b04      	li	v1,4
60a26bd6:	9c00      	lw	s0,0(a0)
60a26bd8:	e96b      	neg	s1,v1
60a26bda:	e0c1      	addu	s0,a2
60a26bdc:	a0a0      	lbu	a1,0(s0)
60a26bde:	6c00      	li	a0,0
60a26be0:	ed2c      	and	a1,s1
60a26be2:	6901      	li	s1,1
60a26be4:	ed2d      	or	a1,s1
60a26be6:	b209      	lw	v0,60a26c08 <restart_app_timer+0x50>
60a26be8:	c0a0      	sb	a1,0(s0)
60a26bea:	67c4      	move	a2,a0
60a26bec:	67a4      	move	a1,a0
60a26bee:	ea40      	jalr	v0
60a26bf0:	6f1c      	li	a3,28
60a26bf2:	a8e2      	lhu	a3,4(s0)
60a26bf4:	e2f1      	addu	a0,v0,a3
60a26bf6:	d882      	sw	a0,8(s0)
60a26bf8:	6751      	move	v0,s1
60a26bfa:	6474      	restore	32,ra,s0-s1
60a26bfc:	e8a0      	jrc	ra
60a26bfe:	0000      	addiu	s0,sp,0
60a26c00:	9760      	lw	a3,384(sp)
60a26c02:	9fc1      	lw	a2,4(a3)
60a26c04:	9750      	lw	a3,320(sp)
60a26c06:	9fc1      	lw	a2,4(a3)
60a26c08:	6011      	bteqz	60a26c2c <kill_app_timer+0x20>
60a26c0a:	bfc2      	lwu	a2,8(a3)

60a26c0c <kill_app_timer>:
60a26c0c:	ec91      	seb	a0
60a26c0e:	ea8f      	not	v0,a0
60a26c10:	2206      	beqz	v0,60a26c1e <kill_app_timer+0x12>
60a26c12:	b60a      	lw	a2,60a26c38 <kill_app_timer+0x2c>
60a26c14:	67a4      	move	a1,a0
60a26c16:	a660      	lbu	v1,0(a2)
60a26c18:	ed11      	zeb	a1
60a26c1a:	ed63      	sltu	a1,v1
60a26c1c:	6102      	btnez	60a26c22 <kill_app_timer+0x16>
60a26c1e:	e820      	jr	ra
60a26c20:	6a00      	li	v0,0
60a26c22:	b707      	lw	a3,60a26c3c <kill_app_timer+0x30>
60a26c24:	3690      	sll	a2,a0,4
60a26c26:	9f60      	lw	v1,0(a3)
60a26c28:	6d04      	li	a1,4
60a26c2a:	e3dd      	addu	a3,v1,a2
60a26c2c:	a740      	lbu	v0,0(a3)
60a26c2e:	ecab      	neg	a0,a1
60a26c30:	ea8c      	and	v0,a0
60a26c32:	c740      	sb	v0,0(a3)
60a26c34:	e820      	jr	ra
60a26c36:	6a01      	li	v0,1
60a26c38:	9760      	lw	a3,384(sp)
60a26c3a:	9fc1      	lw	a2,4(a3)
60a26c3c:	9750      	lw	a3,320(sp)
60a26c3e:	9fc1      	lw	a2,4(a3)

60a26c40 <init_app_timers>:
60a26c40:	ed11      	zeb	a1
60a26c42:	6745      	move	v0,a1
60a26c44:	2518      	beqz	a1,60a26c76 <init_app_timers+0x36>
60a26c46:	b70d      	lw	a3,60a26c78 <init_app_timers+0x38>
60a26c48:	b60d      	lw	a2,60a26c7c <init_app_timers+0x3c>
60a26c4a:	df80      	sw	a0,0(a3)
60a26c4c:	c6a0      	sb	a1,0(a2)
60a26c4e:	6c00      	li	a0,0
60a26c50:	250e      	beqz	a1,60a26c6e <init_app_timers+0x2e>
60a26c52:	6d04      	li	a1,4
60a26c54:	edab      	neg	a1
60a26c56:	9f60      	lw	v1,0(a3)
60a26c58:	3290      	sll	v0,a0,4
60a26c5a:	e34d      	addu	v1,v0
60a26c5c:	a340      	lbu	v0,0(v1)
60a26c5e:	eaac      	and	v0,a1
60a26c60:	c340      	sb	v0,0(v1)
60a26c62:	4461      	addiu	v1,a0,1
60a26c64:	6783      	move	a0,v1
60a26c66:	a640      	lbu	v0,0(a2)
60a26c68:	ec11      	zeb	a0
60a26c6a:	ec43      	sltu	a0,v0
60a26c6c:	61f4      	btnez	60a26c56 <init_app_timers+0x16>
60a26c6e:	b405      	lw	a0,60a26c80 <init_app_timers+0x40>
60a26c70:	6e00      	li	a2,0
60a26c72:	c4c0      	sb	a2,0(a0)
60a26c74:	6a01      	li	v0,1
60a26c76:	e8a0      	jrc	ra
60a26c78:	9750      	lw	a3,320(sp)
60a26c7a:	9fc1      	lw	a2,4(a3)
60a26c7c:	9760      	lw	a3,384(sp)
60a26c7e:	9fc1      	lw	a2,4(a3)
60a26c80:	9755      	lw	a3,340(sp)
60a26c82:	9fc1      	lw	a2,4(a3)

60a26c84 <standby_restart_all_app_timer>:
60a26c84:	f004 64f5 	save	a0,40,ra,s0-s1
60a26c88:	ed11      	zeb	a1
60a26c8a:	d504      	sw	a1,16(sp)
60a26c8c:	6900      	li	s1,0
60a26c8e:	2517      	beqz	a1,60a26cbe <standby_restart_all_app_timer+0x3a>
60a26c90:	950a      	lw	a1,40(sp)
60a26c92:	3430      	sll	a0,s1,4
60a26c94:	e581      	addu	s0,a1,a0
60a26c96:	a040      	lbu	v0,0(s0)
60a26c98:	6b03      	li	v1,3
60a26c9a:	ea6c      	and	v0,v1
60a26c9c:	7201      	cmpi	v0,1
60a26c9e:	6109      	btnez	60a26cb2 <standby_restart_all_app_timer+0x2e>
60a26ca0:	6c00      	li	a0,0
60a26ca2:	b209      	lw	v0,60a26cc4 <standby_restart_all_app_timer+0x40>
60a26ca4:	67c4      	move	a2,a0
60a26ca6:	6f1c      	li	a3,28
60a26ca8:	ea40      	jalr	v0
60a26caa:	67a4      	move	a1,a0
60a26cac:	a8e2      	lhu	a3,4(s0)
60a26cae:	e2f9      	addu	a2,v0,a3
60a26cb0:	d8c2      	sw	a2,8(s0)
60a26cb2:	4181      	addiu	a0,s1,1
60a26cb4:	6724      	move	s1,a0
60a26cb6:	9304      	lw	v1,16(sp)
60a26cb8:	e911      	zeb	s1
60a26cba:	e963      	sltu	s1,v1
60a26cbc:	61e9      	btnez	60a26c90 <standby_restart_all_app_timer+0xc>
60a26cbe:	6475      	restore	40,ra,s0-s1
60a26cc0:	e8a0      	jrc	ra
60a26cc2:	0000      	addiu	s0,sp,0
60a26cc4:	6011      	bteqz	60a26ce8 <send_sync_msg_btmanager>
60a26cc6:	bfc2      	lwu	a2,8(a3)

60a26cc8 <applib_message_init>:
60a26cc8:	64c3      	save	24,ra
60a26cca:	b406      	lw	a0,60a26ce0 <applib_message_init+0x18>
60a26ccc:	6d00      	li	a1,0
60a26cce:	9c60      	lw	v1,0(a0)
60a26cd0:	b205      	lw	v0,60a26ce4 <applib_message_init+0x1c>
60a26cd2:	a383      	lbu	a0,3(v1)
60a26cd4:	67c5      	move	a2,a1
60a26cd6:	ea40      	jalr	v0
60a26cd8:	6f1a      	li	a3,26
60a26cda:	6a01      	li	v0,1
60a26cdc:	6443      	restore	24,ra
60a26cde:	e8a0      	jrc	ra
60a26ce0:	9758      	lw	a3,352(sp)
60a26ce2:	9fc1      	lw	a2,4(a3)
60a26ce4:	6011      	bteqz	60a26d08 <send_sync_msg_btmanager+0x20>
60a26ce6:	bfc2      	lwu	a2,8(a3)

60a26ce8 <send_sync_msg_btmanager>:
60a26ce8:	f00e 64f9 	save	a0-a3,72,ra,s0-s1
60a26cec:	b328      	lw	v1,60a26d8c <send_sync_msg_btmanager+0xa4>
60a26cee:	a34c      	lbu	v0,12(v1)
60a26cf0:	6900      	li	s1,0
60a26cf2:	6519      	move	t8,s1
60a26cf4:	2247      	beqz	v0,60a26d84 <send_sync_msg_btmanager+0x9c>
60a26cf6:	b527      	lw	a1,60a26d90 <send_sync_msg_btmanager+0xa8>
60a26cf8:	b027      	lw	s0,60a26d94 <send_sync_msg_btmanager+0xac>
60a26cfa:	9d80      	lw	a0,0(a1)
60a26cfc:	67d1      	move	a2,s1
60a26cfe:	67b1      	move	a1,s1
60a26d00:	e840      	jalr	s0
60a26d02:	6f14      	li	a3,20
60a26d04:	9513      	lw	a1,76(sp)
60a26d06:	0404      	addiu	a0,sp,16
60a26d08:	6e08      	li	a2,8
60a26d0a:	e840      	jalr	s0
60a26d0c:	67f1      	move	a3,s1
60a26d0e:	9212      	lw	v0,72(sp)
60a26d10:	f020 0402 	addiu	a0,sp,34
60a26d14:	2204      	beqz	v0,60a26d1e <send_sync_msg_btmanager+0x36>
60a26d16:	67a2      	move	a1,v0
60a26d18:	6e06      	li	a2,6
60a26d1a:	67f1      	move	a3,s1
60a26d1c:	1003      	b	60a26d24 <send_sync_msg_btmanager+0x3c>
60a26d1e:	67b1      	move	a1,s1
60a26d20:	6e06      	li	a2,6
60a26d22:	6f01      	li	a3,1
60a26d24:	e8c0      	jalrc	s0
60a26d26:	6d00      	li	a1,0
60a26d28:	b01b      	lw	s0,60a26d94 <send_sync_msg_btmanager+0xac>
60a26d2a:	040c      	addiu	a0,sp,48
60a26d2c:	67c5      	move	a2,a1
60a26d2e:	e840      	jalr	s0
60a26d30:	6f12      	li	a3,18
60a26d32:	960c      	lw	a2,48(sp)
60a26d34:	9414      	lw	a0,80(sp)
60a26d36:	d606      	sw	a2,24(sp)
60a26d38:	2c02      	bnez	a0,60a26d3e <send_sync_msg_btmanager+0x56>
60a26d3a:	020a      	addiu	v0,sp,40
60a26d3c:	1001      	b	60a26d40 <send_sync_msg_btmanager+0x58>
60a26d3e:	9214      	lw	v0,80(sp)
60a26d40:	d207      	sw	v0,28(sp)
60a26d42:	b216      	lw	v0,60a26d98 <send_sync_msg_btmanager+0xb0>
60a26d44:	6c03      	li	a0,3
60a26d46:	0504      	addiu	a1,sp,16
60a26d48:	6e00      	li	a2,0
60a26d4a:	ea40      	jalr	v0
60a26d4c:	6f18      	li	a3,24
60a26d4e:	5200      	slti	v0,0
60a26d50:	6002      	bteqz	60a26d56 <send_sync_msg_btmanager+0x6e>
60a26d52:	6902      	li	s1,2
60a26d54:	1009      	b	60a26d68 <send_sync_msg_btmanager+0x80>
60a26d56:	940c      	lw	a0,48(sp)
60a26d58:	9515      	lw	a1,84(sp)
60a26d5a:	b00f      	lw	s0,60a26d94 <send_sync_msg_btmanager+0xac>
60a26d5c:	6e00      	li	a2,0
60a26d5e:	e840      	jalr	s0
60a26d60:	6f14      	li	a3,20
60a26d62:	5200      	slti	v0,0
60a26d64:	6002      	bteqz	60a26d6a <send_sync_msg_btmanager+0x82>
60a26d66:	6904      	li	s1,4
60a26d68:	e92b      	neg	s1
60a26d6a:	6d00      	li	a1,0
60a26d6c:	b00a      	lw	s0,60a26d94 <send_sync_msg_btmanager+0xac>
60a26d6e:	67c5      	move	a2,a1
60a26d70:	040c      	addiu	a0,sp,48
60a26d72:	e840      	jalr	s0
60a26d74:	6f13      	li	a3,19
60a26d76:	b707      	lw	a3,60a26d90 <send_sync_msg_btmanager+0xa8>
60a26d78:	6d00      	li	a1,0
60a26d7a:	9f80      	lw	a0,0(a3)
60a26d7c:	67c5      	move	a2,a1
60a26d7e:	e840      	jalr	s0
60a26d80:	6f16      	li	a3,22
60a26d82:	6519      	move	t8,s1
60a26d84:	6758      	move	v0,t8
60a26d86:	6479      	restore	72,ra,s0-s1
60a26d88:	e8a0      	jrc	ra
60a26d8a:	0000      	addiu	s0,sp,0
60a26d8c:	a080      	lbu	a0,0(s0)
60a26d8e:	9fc1      	lw	a2,4(a3)
60a26d90:	975c      	lw	a3,368(sp)
60a26d92:	9fc1      	lw	a2,4(a3)
60a26d94:	6009      	bteqz	60a26da8 <send_sync_msg_btmanager+0xc0>
60a26d96:	bfc2      	lwu	a2,8(a3)
60a26d98:	6011      	bteqz	60a26dbc <send_sync_msg_btmanager+0xd4>
60a26d9a:	bfc2      	lwu	a2,8(a3)
Disassembly of section BANK_CONTROL_1_41:

60a66800 <com_open_config_file>:
60a66800:	64e5      	save	40,ra,s0
60a66802:	6d00      	li	a1,0
60a66804:	b011      	lw	s0,60a66848 <com_open_config_file+0x48>
60a66806:	67c5      	move	a2,a1
60a66808:	e840      	jalr	s0
60a6680a:	6f0d      	li	a3,13
60a6680c:	6782      	move	a0,v0
60a6680e:	b20e      	lw	v0,60a66844 <com_open_config_file+0x44>
60a66810:	6764      	move	v1,a0
60a66812:	da80      	sw	a0,0(v0)
60a66814:	2413      	beqz	a0,60a6683c <com_open_config_file+0x3c>
60a66816:	0504      	addiu	a1,sp,16
60a66818:	6e10      	li	a2,16
60a6681a:	e840      	jalr	s0
60a6681c:	6f11      	li	a3,17
60a6681e:	ec4f      	not	a0,v0
60a66820:	6b00      	li	v1,0
60a66822:	240c      	beqz	a0,60a6683c <com_open_config_file+0x3c>
60a66824:	677d      	move	v1,sp
60a66826:	a3b0      	lbu	a1,16(v1)
60a66828:	7563      	cmpi	a1,99
60a6682a:	6107      	btnez	60a6683a <com_open_config_file+0x3a>
60a6682c:	a3d1      	lbu	a2,17(v1)
60a6682e:	7666      	cmpi	a2,102
60a66830:	6104      	btnez	60a6683a <com_open_config_file+0x3a>
60a66832:	a3f2      	lbu	a3,18(v1)
60a66834:	6b01      	li	v1,1
60a66836:	7767      	cmpi	a3,103
60a66838:	6001      	bteqz	60a6683c <com_open_config_file+0x3c>
60a6683a:	6b00      	li	v1,0
60a6683c:	6743      	move	v0,v1
60a6683e:	6465      	restore	40,ra,s0
60a66840:	e8a0      	jrc	ra
60a66842:	0000      	addiu	s0,sp,0
60a66844:	a090      	lbu	a0,16(s0)
60a66846:	9fc1      	lw	a2,4(a3)
60a66848:	6011      	bteqz	60a6686c <com_get_config_struct+0x20>
60a6684a:	bfc2      	lwu	a2,8(a3)

60a6684c <com_get_config_struct>:
60a6684c:	f008 64f6 	save	a0-a1,48,ra,s0-s1
60a66850:	67a4      	move	a1,a0
60a66852:	ed31      	zeh	a1
60a66854:	b118      	lw	s1,60a668b4 <com_get_config_struct+0x68>
60a66856:	33ac      	sll	v1,a1,3
60a66858:	ee31      	zeh	a2
60a6685a:	d606      	sw	a2,24(sp)
60a6685c:	9980      	lw	a0,0(s1)
60a6685e:	67c3      	move	a2,v1
60a66860:	b016      	lw	s0,60a668b8 <com_get_config_struct+0x6c>
60a66862:	6d00      	li	a1,0
60a66864:	4e10      	addiu	a2,16
60a66866:	e840      	jalr	s0
60a66868:	6f0f      	li	a3,15
60a6686a:	ea4f      	not	v0
60a6686c:	6b00      	li	v1,0
60a6686e:	221f      	beqz	v0,60a668ae <com_get_config_struct+0x62>
60a66870:	9980      	lw	a0,0(s1)
60a66872:	0504      	addiu	a1,sp,16
60a66874:	6e08      	li	a2,8
60a66876:	e840      	jalr	s0
60a66878:	6f11      	li	a3,17
60a6687a:	ec4f      	not	a0,v0
60a6687c:	6b00      	li	v1,0
60a6687e:	2417      	beqz	a0,60a668ae <com_get_config_struct+0x62>
60a66880:	9604      	lw	a2,16(sp)
60a66882:	9980      	lw	a0,0(s1)
60a66884:	67a3      	move	a1,v1
60a66886:	e840      	jalr	s0
60a66888:	6f0f      	li	a3,15
60a6688a:	ee4f      	not	a2,v0
60a6688c:	6b00      	li	v1,0
60a6688e:	260f      	beqz	a2,60a668ae <com_get_config_struct+0x62>
60a66890:	9605      	lw	a2,20(sp)
60a66892:	9206      	lw	v0,24(sp)
60a66894:	9980      	lw	a0,0(s1)
60a66896:	eac3      	sltu	v0,a2
60a66898:	6003      	bteqz	60a668a0 <com_get_config_struct+0x54>
60a6689a:	950d      	lw	a1,52(sp)
60a6689c:	67c2      	move	a2,v0
60a6689e:	1001      	b	60a668a2 <com_get_config_struct+0x56>
60a668a0:	950d      	lw	a1,52(sp)
60a668a2:	e840      	jalr	s0
60a668a4:	6f11      	li	a3,17
60a668a6:	ef4f      	not	a3,v0
60a668a8:	6b00      	li	v1,0
60a668aa:	2701      	beqz	a3,60a668ae <com_get_config_struct+0x62>
60a668ac:	6b01      	li	v1,1
60a668ae:	6743      	move	v0,v1
60a668b0:	6476      	restore	48,ra,s0-s1
60a668b2:	e8a0      	jrc	ra
60a668b4:	a090      	lbu	a0,16(s0)
60a668b6:	9fc1      	lw	a2,4(a3)
60a668b8:	6011      	bteqz	60a668dc <com_get_config_default+0x20>
60a668ba:	bfc2      	lwu	a2,8(a3)

60a668bc <com_get_config_default>:
60a668bc:	64f6      	save	48,ra,s0-s1
60a668be:	67c4      	move	a2,a0
60a668c0:	b115      	lw	s1,60a66914 <com_get_config_default+0x58>
60a668c2:	ee31      	zeh	a2
60a668c4:	36cc      	sll	a2,3
60a668c6:	9980      	lw	a0,0(s1)
60a668c8:	b014      	lw	s0,60a66918 <com_get_config_default+0x5c>
60a668ca:	6d00      	li	a1,0
60a668cc:	4e10      	addiu	a2,16
60a668ce:	e840      	jalr	s0
60a668d0:	6f0f      	li	a3,15
60a668d2:	ea4f      	not	v0
60a668d4:	6b00      	li	v1,0
60a668d6:	221a      	beqz	v0,60a6690c <com_get_config_default+0x50>
60a668d8:	9980      	lw	a0,0(s1)
60a668da:	0504      	addiu	a1,sp,16
60a668dc:	6e08      	li	a2,8
60a668de:	e840      	jalr	s0
60a668e0:	6f11      	li	a3,17
60a668e2:	ec4f      	not	a0,v0
60a668e4:	6b00      	li	v1,0
60a668e6:	2412      	beqz	a0,60a6690c <com_get_config_default+0x50>
60a668e8:	9980      	lw	a0,0(s1)
60a668ea:	9604      	lw	a2,16(sp)
60a668ec:	67a3      	move	a1,v1
60a668ee:	e840      	jalr	s0
60a668f0:	6f0f      	li	a3,15
60a668f2:	ed4f      	not	a1,v0
60a668f4:	6b00      	li	v1,0
60a668f6:	250a      	beqz	a1,60a6690c <com_get_config_default+0x50>
60a668f8:	9980      	lw	a0,0(s1)
60a668fa:	6f11      	li	a3,17
60a668fc:	0506      	addiu	a1,sp,24
60a668fe:	e840      	jalr	s0
60a66900:	6e02      	li	a2,2
60a66902:	ef4f      	not	a3,v0
60a66904:	6b00      	li	v1,0
60a66906:	2702      	beqz	a3,60a6690c <com_get_config_default+0x50>
60a66908:	675d      	move	v0,sp
60a6690a:	aa6c      	lhu	v1,24(v0)
60a6690c:	6743      	move	v0,v1
60a6690e:	6476      	restore	48,ra,s0-s1
60a66910:	e8a0      	jrc	ra
60a66912:	0000      	addiu	s0,sp,0
60a66914:	a090      	lbu	a0,16(s0)
60a66916:	9fc1      	lw	a2,4(a3)
60a66918:	6011      	bteqz	60a6693c <.LBE2+0x1c>
60a6691a:	bfc2      	lwu	a2,8(a3)

60a6691c <com_set_sound_out>:
60a6691c:	b202      	lw	v0,60a66924 <.LBE2+0x4>
60a6691e:	c287      	sb	a0,7(v0)

60a66920 <.LBE2>:
60a66920:	e820      	jr	ra
60a66922:	6a01      	li	v0,1
60a66924:	a094      	lbu	a0,20(s0)
60a66926:	9fc1      	lw	a2,4(a3)
Disassembly of section BANK_CONTROL_1_42:

60aa6800 <smart_tws_sync_cmd_send>:
60aa6800:	64e4      	save	32,ra,s0
60aa6802:	6d00      	li	a1,0
60aa6804:	b20c      	lw	v0,60aa6834 <.LBE2+0x6>
60aa6806:	6704      	move	s0,a0
60aa6808:	67c5      	move	a2,a1
60aa680a:	6c01      	li	a0,1
60aa680c:	ea40      	jalr	v0
60aa680e:	6f49      	li	a3,73
60aa6810:	f020 a25a 	lbu	v0,58(v0)
60aa6814:	e811      	zeb	s0
60aa6816:	220b      	beqz	v0,60aa682e <.LBE2>

60aa6818 <.LBB2>:
60aa6818:	f0a1 6c0c 	li	a0,2220
60aa681c:	d404      	sw	a0,16(sp)
60aa681e:	677d      	move	v1,sp
60aa6820:	6c00      	li	a0,0
60aa6822:	b206      	lw	v0,60aa6838 <.LBE2+0xa>
60aa6824:	c314      	sb	s0,20(v1)
60aa6826:	0504      	addiu	a1,sp,16
60aa6828:	67c4      	move	a2,a0
60aa682a:	ea40      	jalr	v0
60aa682c:	67e4      	move	a3,a0

60aa682e <.LBE2>:
60aa682e:	6464      	restore	32,ra,s0
60aa6830:	e8a0      	jrc	ra
60aa6832:	0000      	addiu	s0,sp,0
60aa6834:	6011      	bteqz	60aa6858 <smart_set_ainout_param+0x1c>
60aa6836:	bfc2      	lwu	a2,8(a3)
60aa6838:	6ce9      	li	a0,233
60aa683a:	60a2      	bteqz	60aa6780 <.LBE2+0x3fe60>

60aa683c <smart_set_ainout_param>:
60aa683c:	64f4      	save	32,ra,s0-s1
60aa683e:	6b00      	li	v1,0
60aa6840:	b216      	lw	v0,60aa6898 <smart_set_ainout_param+0x5c>
60aa6842:	6724      	move	s1,a0
60aa6844:	dc60      	sw	v1,0(a0)
60aa6846:	6c2a      	li	a0,42
60aa6848:	ea40      	jalr	v0
60aa684a:	6705      	move	s0,a1
60aa684c:	e811      	zeb	s0
60aa684e:	6782      	move	a0,v0
60aa6850:	ec11      	zeb	a0
60aa6852:	7003      	cmpi	s0,3
60aa6854:	d986      	sw	a0,24(s1)
60aa6856:	6107      	btnez	60aa6866 <smart_set_ainout_param+0x2a>
60aa6858:	6c00      	li	a0,0
60aa685a:	6b10      	li	v1,16
60aa685c:	4441      	addiu	v0,a0,1
60aa685e:	d961      	sw	v1,4(s1)
60aa6860:	d962      	sw	v1,8(s1)
60aa6862:	d983      	sw	a0,12(s1)
60aa6864:	100a      	b	60aa687a <smart_set_ainout_param+0x3e>
60aa6866:	6d17      	li	a1,23
60aa6868:	d9a1      	sw	a1,4(s1)
60aa686a:	6b10      	li	v1,16
60aa686c:	4dea      	addiu	a1,-22
60aa686e:	7405      	cmpi	a0,5
60aa6870:	d962      	sw	v1,8(s1)
60aa6872:	d9a3      	sw	a1,12(s1)
60aa6874:	4542      	addiu	v0,a1,2
60aa6876:	6001      	bteqz	60aa687a <smart_set_ainout_param+0x3e>
60aa6878:	6a02      	li	v0,2
60aa687a:	6f07      	li	a3,7
60aa687c:	d944      	sw	v0,16(s1)
60aa687e:	47ca      	addiu	a2,a3,-6
60aa6880:	b206      	lw	v0,60aa6898 <smart_set_ainout_param+0x5c>
60aa6882:	d965      	sw	v1,20(s1)
60aa6884:	d9e8      	sw	a3,32(s1)
60aa6886:	f1a0 6c0a 	li	a0,426
60aa688a:	ea40      	jalr	v0
60aa688c:	d9c7      	sw	a2,28(s1)
60aa688e:	ea11      	zeb	v0
60aa6890:	d949      	sw	v0,36(s1)
60aa6892:	6474      	restore	32,ra,s0-s1
60aa6894:	e8a0      	jrc	ra
60aa6896:	0000      	addiu	s0,sp,0
60aa6898:	68bd      	li	s0,189
60aa689a:	60a6      	bteqz	60aa67e8 <.LBE2+0x3fec8>

60aa689c <smart_enter_speech_mode>:
60aa689c:	2402      	beqz	a0,60aa68a2 <smart_enter_speech_mode+0x6>
60aa689e:	6a01      	li	v0,1
60aa68a0:	c440      	sb	v0,0(a0)
60aa68a2:	e8a0      	jrc	ra

60aa68a4 <smart_exit_speech_mode>:
60aa68a4:	2402      	beqz	a0,60aa68aa <smart_exit_speech_mode+0x6>
60aa68a6:	6a00      	li	v0,0
60aa68a8:	c440      	sb	v0,0(a0)
60aa68aa:	e8a0      	jrc	ra

60aa68ac <smart_process_message_deal>:
60aa68ac:	f00c 64f9 	save	a0-a2,72,ra,s0-s1
60aa68b0:	9c40      	lw	v0,0(a0)
60aa68b2:	6724      	move	s1,a0
60aa68b4:	f201 7202 	cmpi	v0,2562
60aa68b8:	6707      	move	s0,a3
60aa68ba:	604c      	bteqz	60aa6954 <.LBE7+0x2>
60aa68bc:	f201 5a03 	sltiu	v0,2563
60aa68c0:	6004      	bteqz	60aa68ca <smart_process_message_deal+0x1e>
60aa68c2:	f201 7201 	cmpi	v0,2561
60aa68c6:	602f      	bteqz	60aa6926 <.LBE5+0x2>
60aa68c8:	1065      	b	60aa6994 <.LBE8>
60aa68ca:	f201 7204 	cmpi	v0,2564
60aa68ce:	6004      	bteqz	60aa68d8 <smart_process_message_deal+0x2c>
60aa68d0:	f201 7205 	cmpi	v0,2565
60aa68d4:	6019      	bteqz	60aa6908 <.LBE3+0x1e>
60aa68d6:	105e      	b	60aa6994 <.LBE8>
60aa68d8:	6d00      	li	a1,0
60aa68da:	b249      	lw	v0,60aa69fc <.LBE8+0x68>
60aa68dc:	0c30      	la	a0,60aa699c <.LBE8+0x8>
60aa68de:	67c5      	move	a2,a1
60aa68e0:	ea40      	jalr	v0
60aa68e2:	6f4b      	li	a3,75

60aa68e4 <.LBB3>:
60aa68e4:	2002      	beqz	s0,60aa68ea <.LBE3>
60aa68e6:	6b01      	li	v1,1
60aa68e8:	c060      	sb	v1,0(s0)

60aa68ea <.LBE3>:
60aa68ea:	9413      	lw	a0,76(sp)
60aa68ec:	9314      	lw	v1,80(sp)
60aa68ee:	6d84      	li	a1,132
60aa68f0:	eb40      	jalr	v1
60aa68f2:	6e00      	li	a2,0
60aa68f4:	9983      	lw	a0,12(s1)
60aa68f6:	2a02      	bnez	v0,60aa68fc <.LBE3+0x12>
60aa68f8:	6a01      	li	v0,1
60aa68fa:	1001      	b	60aa68fe <.LBE3+0x14>
60aa68fc:	6a02      	li	v0,2
60aa68fe:	c440      	sb	v0,0(a0)
60aa6900:	1941 9a00 	jal	60aa6800 <smart_tws_sync_cmd_send>
60aa6904:	6c05      	li	a0,5
60aa6906:	1046      	b	60aa6994 <.LBE8>
60aa6908:	6d00      	li	a1,0
60aa690a:	b23d      	lw	v0,60aa69fc <.LBE8+0x68>
60aa690c:	67c5      	move	a2,a1
60aa690e:	0c2b      	la	a0,60aa69b8 <.LBE8+0x24>
60aa6910:	ea40      	jalr	v0
60aa6912:	6f4b      	li	a3,75
60aa6914:	9413      	lw	a0,76(sp)
60aa6916:	9314      	lw	v1,80(sp)
60aa6918:	6d85      	li	a1,133
60aa691a:	eb40      	jalr	v1
60aa691c:	6e00      	li	a2,0

60aa691e <.LBB5>:
60aa691e:	203a      	beqz	s0,60aa6994 <.LBE8>
60aa6920:	6c00      	li	a0,0
60aa6922:	c080      	sb	a0,0(s0)

60aa6924 <.LBE5>:
60aa6924:	1037      	b	60aa6994 <.LBE8>
60aa6926:	6d00      	li	a1,0
60aa6928:	b235      	lw	v0,60aa69fc <.LBE8+0x68>
60aa692a:	67c5      	move	a2,a1
60aa692c:	0c2a      	la	a0,60aa69d4 <.LBE8+0x40>
60aa692e:	ea40      	jalr	v0
60aa6930:	6f4b      	li	a3,75

60aa6932 <.LBB7>:
60aa6932:	a1a4      	lbu	a1,4(s1)
60aa6934:	1941 9a0f 	jal	60aa683c <smart_set_ainout_param>
60aa6938:	0404      	addiu	a0,sp,16
60aa693a:	950a      	lw	a1,40(sp)
60aa693c:	a1c5      	lbu	a2,5(s1)
60aa693e:	7505      	cmpi	a1,5
60aa6940:	d60d      	sw	a2,52(sp)
60aa6942:	6102      	btnez	60aa6948 <.LBB7+0x16>
60aa6944:	b32f      	lw	v1,60aa6a00 <.LBE8+0x6c>
60aa6946:	ebc0      	jalrc	v1
60aa6948:	9413      	lw	a0,76(sp)
60aa694a:	9314      	lw	v1,80(sp)
60aa694c:	6d81      	li	a1,129
60aa694e:	eb40      	jalr	v1
60aa6950:	0604      	addiu	a2,sp,16

60aa6952 <.LBE7>:
60aa6952:	1020      	b	60aa6994 <.LBE8>
60aa6954:	6d00      	li	a1,0
60aa6956:	b02a      	lw	s0,60aa69fc <.LBE8+0x68>
60aa6958:	6f4b      	li	a3,75
60aa695a:	0c24      	la	a0,60aa69e8 <.LBE8+0x54>
60aa695c:	e840      	jalr	s0
60aa695e:	67c5      	move	a2,a1

60aa6960 <.LBB8>:
60aa6960:	a1e4      	lbu	a3,4(s1)
60aa6962:	6802      	li	s0,2
60aa6964:	7703      	cmpi	a3,3
60aa6966:	6008      	bteqz	60aa6978 <.LBB8+0x18>
60aa6968:	b227      	lw	v0,60aa6a04 <.LBE8+0x70>
60aa696a:	ea40      	jalr	v0
60aa696c:	6c2a      	li	a0,42
60aa696e:	ea11      	zeb	v0
60aa6970:	7205      	cmpi	v0,5
60aa6972:	400e      	addiu	s0,s0,-2
60aa6974:	6101      	btnez	60aa6978 <.LBB8+0x18>
60aa6976:	4001      	addiu	s0,s0,1
60aa6978:	1941 9a00 	jal	60aa6800 <smart_tws_sync_cmd_send>
60aa697c:	6c06      	li	a0,6
60aa697e:	9413      	lw	a0,76(sp)
60aa6980:	9314      	lw	v1,80(sp)
60aa6982:	6d82      	li	a1,130
60aa6984:	eb40      	jalr	v1
60aa6986:	67d0      	move	a2,s0
60aa6988:	9983      	lw	a0,12(s1)
60aa698a:	2a02      	bnez	v0,60aa6990 <.LBB8+0x30>
60aa698c:	6a01      	li	v0,1
60aa698e:	1001      	b	60aa6992 <.LBB8+0x32>
60aa6990:	6a02      	li	v0,2
60aa6992:	c440      	sb	v0,0(a0)

60aa6994 <.LBE8>:
60aa6994:	6a00      	li	v0,0
60aa6996:	6479      	restore	72,ra,s0-s1
60aa6998:	e8a0      	jrc	ra
60aa699a:	0000      	addiu	s0,sp,0
60aa699c:	493c      	addiu	s1,60
60aa699e:	203e      	beqz	s0,60aa6a1c <i2s_mfp_cfg+0x14>
60aa69a0:	6572      	move	s3,v0
60aa69a2:	6f63      	li	a3,99
60aa69a4:	6e67      	li	a2,103
60aa69a6:	7a69      	sd	v1,72(v0)
60aa69a8:	2065      	beqz	s0,60aa6a74 <i2s_mfp_cfg+0x6c>
60aa69aa:	6170      	btnez	60aa6a8c <i2s_mfp_cfg+0x84>
60aa69ac:	7375      	cmpi	v1,117
60aa69ae:	2065      	beqz	s0,60aa6a7a <i2s_mfp_cfg+0x72>
60aa69b0:	756d      	cmpi	a1,109
60aa69b2:	6973      	li	s1,115
60aa69b4:	0063      	addiu	s0,sp,396
60aa69b6:	0000      	addiu	s0,sp,0
60aa69b8:	493c      	addiu	s1,60
60aa69ba:	203e      	beqz	s0,60aa6a38 <i2s_mfp_cfg+0x30>
60aa69bc:	6572      	move	s3,v0
60aa69be:	6f63      	li	a3,99
60aa69c0:	6e67      	li	a2,103
60aa69c2:	7a69      	sd	v1,72(v0)
60aa69c4:	2065      	beqz	s0,60aa6a90 <i2s_mfp_cfg+0x88>
60aa69c6:	6572      	move	s3,v0
60aa69c8:	7573      	cmpi	a1,115
60aa69ca:	656d      	move	t3,a1
60aa69cc:	6d20      	li	a1,32
60aa69ce:	7375      	cmpi	v1,117
60aa69d0:	6369      	addiu	sp,840
60aa69d2:	0000      	addiu	s0,sp,0
60aa69d4:	493c      	addiu	s1,60
60aa69d6:	203e      	beqz	s0,60aa6a54 <i2s_mfp_cfg+0x4c>
60aa69d8:	6572      	move	s3,v0
60aa69da:	6f63      	li	a3,99
60aa69dc:	6e67      	li	a2,103
60aa69de:	7a69      	sd	v1,72(v0)
60aa69e0:	2065      	beqz	s0,60aa6aac <i2s_mfp_cfg+0xa4>
60aa69e2:	7473      	cmpi	a0,115
60aa69e4:	7261      	cmpi	v0,97
60aa69e6:	0074      	addiu	s0,sp,464
60aa69e8:	493c      	addiu	s1,60
60aa69ea:	203e      	beqz	s0,60aa6a68 <i2s_mfp_cfg+0x60>
60aa69ec:	6572      	move	s3,v0
60aa69ee:	6f63      	li	a3,99
60aa69f0:	6e67      	li	a2,103
60aa69f2:	7a69      	sd	v1,72(v0)
60aa69f4:	2065      	beqz	s0,60aa6ac0 <i2s_mfp_cfg+0xb8>
60aa69f6:	7473      	cmpi	a0,115
60aa69f8:	706f      	cmpi	s0,111
60aa69fa:	0000      	addiu	s0,sp,0
60aa69fc:	6011      	bteqz	60aa6a20 <i2s_mfp_cfg+0x18>
60aa69fe:	bfc2      	lwu	a2,8(a3)
60aa6a00:	6a09      	li	v0,9
60aa6a02:	60aa      	bteqz	60aa6958 <.LBE7+0x6>
60aa6a04:	68bd      	li	s0,189
60aa6a06:	60a6      	bteqz	60aa6954 <.LBE7+0x2>

60aa6a08 <i2s_mfp_cfg>:
60aa6a08:	b726      	lw	a3,60aa6aa0 <i2s_mfp_cfg+0x98>
60aa6a0a:	f200 6a01 	li	v0,513
60aa6a0e:	9fc0      	lw	a2,0(a3)
60aa6a10:	ec4b      	neg	a0,v0
60aa6a12:	ee8c      	and	a2,a0
60aa6a14:	dfc0      	sw	a2,0(a3)
60aa6a16:	b624      	lw	a2,60aa6aa4 <i2s_mfp_cfg+0x9c>
60aa6a18:	b325      	lw	v1,60aa6aac <i2s_mfp_cfg+0xa4>
60aa6a1a:	9ea0      	lw	a1,0(a2)
60aa6a1c:	ed8c      	and	a1,a0
60aa6a1e:	dea0      	sw	a1,0(a2)
60aa6a20:	b522      	lw	a1,60aa6aa8 <i2s_mfp_cfg+0xa0>
60aa6a22:	b424      	lw	a0,60aa6ab0 <i2s_mfp_cfg+0xa8>
60aa6a24:	9d40      	lw	v0,0(a1)
60aa6a26:	ea6c      	and	v0,v1
60aa6a28:	dd40      	sw	v0,0(a1)
60aa6a2a:	9d40      	lw	v0,0(a1)
60aa6a2c:	6bff      	li	v1,255
60aa6a2e:	ea8d      	or	v0,a0
60aa6a30:	dd40      	sw	v0,0(a1)
60aa6a32:	9f40      	lw	v0,0(a3)
60aa6a34:	4382      	addiu	a0,v1,2
60aa6a36:	eb8b      	neg	v1,a0
60aa6a38:	ea6c      	and	v0,v1
60aa6a3a:	df40      	sw	v0,0(a3)
60aa6a3c:	9e80      	lw	a0,0(a2)
60aa6a3e:	b21e      	lw	v0,60aa6ab4 <i2s_mfp_cfg+0xac>
60aa6a40:	ec6c      	and	a0,v1
60aa6a42:	de80      	sw	a0,0(a2)
60aa6a44:	9d80      	lw	a0,0(a1)
60aa6a46:	b31d      	lw	v1,60aa6ab8 <i2s_mfp_cfg+0xb0>
60aa6a48:	ec4c      	and	a0,v0
60aa6a4a:	dd80      	sw	a0,0(a1)
60aa6a4c:	9d40      	lw	v0,0(a1)
60aa6a4e:	6c41      	li	a0,65
60aa6a50:	ea6d      	or	v0,v1
60aa6a52:	b31b      	lw	v1,60aa6abc <i2s_mfp_cfg+0xb4>
60aa6a54:	dd40      	sw	v0,0(a1)
60aa6a56:	9b40      	lw	v0,0(v1)
60aa6a58:	ec8b      	neg	a0
60aa6a5a:	ea8c      	and	v0,a0
60aa6a5c:	db40      	sw	v0,0(v1)
60aa6a5e:	b319      	lw	v1,60aa6ac0 <i2s_mfp_cfg+0xb8>
60aa6a60:	9b40      	lw	v0,0(v1)
60aa6a62:	ea8c      	and	v0,a0
60aa6a64:	b418      	lw	a0,60aa6ac4 <i2s_mfp_cfg+0xbc>
60aa6a66:	db40      	sw	v0,0(v1)
60aa6a68:	9c40      	lw	v0,0(a0)
60aa6a6a:	b318      	lw	v1,60aa6ac8 <i2s_mfp_cfg+0xc0>
60aa6a6c:	ea6c      	and	v0,v1
60aa6a6e:	dc40      	sw	v0,0(a0)
60aa6a70:	9c40      	lw	v0,0(a0)
60aa6a72:	b317      	lw	v1,60aa6acc <i2s_mfp_cfg+0xc4>
60aa6a74:	ea6d      	or	v0,v1
60aa6a76:	dc40      	sw	v0,0(a0)
60aa6a78:	6b81      	li	v1,129
60aa6a7a:	9f40      	lw	v0,0(a3)
60aa6a7c:	eb6b      	neg	v1
60aa6a7e:	ea6c      	and	v0,v1
60aa6a80:	df40      	sw	v0,0(a3)
60aa6a82:	9ee0      	lw	a3,0(a2)
60aa6a84:	ef6c      	and	a3,v1
60aa6a86:	dee0      	sw	a3,0(a2)
60aa6a88:	9d80      	lw	a0,0(a1)
60aa6a8a:	f59f 4b00 	addiu	v1,-640
60aa6a8e:	ec6c      	and	a0,v1
60aa6a90:	dd80      	sw	a0,0(a1)
60aa6a92:	9d40      	lw	v0,0(a1)
60aa6a94:	f600 4b01 	addiu	v1,1537
60aa6a98:	ea6d      	or	v0,v1
60aa6a9a:	dd40      	sw	v0,0(a1)
60aa6a9c:	e8a0      	jrc	ra
60aa6a9e:	0000      	addiu	s0,sp,0
60aa6aa0:	0014      	addiu	s0,sp,80
60aa6aa2:	c009      	sb	s0,9(s0)
60aa6aa4:	0018      	addiu	s0,sp,96
60aa6aa6:	c009      	sb	s0,9(s0)
60aa6aa8:	0060      	addiu	s0,sp,384
60aa6aaa:	c009      	sb	s0,9(s0)
60aa6aac:	ffff      	daddiu	a3,sp,124
60aa6aae:	ff3f      	daddiu	s1,sp,124
60aa6ab0:	0000      	addiu	s0,sp,0
60aa6ab2:	0080      	addiu	s0,sp,512
60aa6ab4:	ffff      	daddiu	a3,sp,124
60aa6ab6:	ffcf      	daddiu	a2,sp,60
60aa6ab8:	0000      	addiu	s0,sp,0
60aa6aba:	0020      	addiu	s0,sp,128
60aa6abc:	0000      	addiu	s0,sp,0
60aa6abe:	c009      	sb	s0,9(s0)
60aa6ac0:	0004      	addiu	s0,sp,16
60aa6ac2:	c009      	sb	s0,9(s0)
60aa6ac4:	0058      	addiu	s0,sp,352
60aa6ac6:	c009      	sb	s0,9(s0)
60aa6ac8:	ffff      	daddiu	a3,sp,124
60aa6aca:	fff3      	daddiu	a3,sp,76
60aa6acc:	0000      	addiu	s0,sp,0
60aa6ace:	000c      	addiu	s0,sp,48
