
btplayeg.exe:     file format elf32-tradlittlemips

Disassembly of section .text:

bfc26000 <audio_device_op_entry>:
bfc26000:	6b0a      	li	v1,10
bfc26002:	e805      	break	0

bfc26004 <libc_op_entry>:
bfc26004:	6b10      	li	v1,16
bfc26006:	e805      	break	0

bfc26008 <sys_op_entry>:
bfc26008:	6b0f      	li	v1,15
bfc2600a:	e805      	break	0

bfc2600c <base_op_entry>:
bfc2600c:	6b00      	li	v1,0
bfc2600e:	e805      	break	0

bfc26010 <key_op_entry>:
bfc26010:	6b08      	li	v1,8
bfc26012:	e805      	break	0

bfc26014 <mmm_bp_cmd>:
bfc26014:	6b42      	li	v1,66
bfc26016:	e805      	break	0

bfc26018 <btplay_deal_app_msg>:
bfc26018:	64e5      	save	40,ra,s0
 * \endcode
 * \note
 *******************************************************************************/
app_result_e btplay_deal_app_msg(void)
{
bfc2601a:	6800      	li	s0,0
    private_msg_t cur_msg;
    app_result_e result = RESULT_NULL;
bfc2601c:	b20b      	lw	v0,bfc26048 <btplay_deal_app_msg+0x30>

    //更新共享查询
    g_p_btplay_info = sys_share_query_update(APP_ID_BTPLAYEG);
bfc2601e:	6c10      	li	a0,16
bfc26020:	67b0      	move	a1,s0
bfc26022:	67d0      	move	a2,s0
bfc26024:	ea40      	jalr	v0
bfc26026:	6f46      	li	a3,70
bfc26028:	b307      	lw	v1,bfc26044 <btplay_deal_app_msg+0x2c>
bfc2602a:	db40      	sw	v0,0(v1)
bfc2602c:	b208      	lw	v0,bfc2604c <btplay_deal_app_msg+0x34>

    if(get_app_msg(&cur_msg) == TRUE) {
bfc2602e:	ea40      	jalr	v0
bfc26030:	0404      	addiu	a0,sp,16
bfc26032:	7201      	cmpi	v0,1
bfc26034:	6104      	btnez	bfc2603e <btplay_deal_app_msg+0x26>
bfc26036:	b007      	lw	s0,bfc26050 <btplay_deal_app_msg+0x38>
        result = app_message_deal(&cur_msg);
bfc26038:	e840      	jalr	s0
bfc2603a:	0404      	addiu	a0,sp,16
bfc2603c:	6702      	move	s0,v0
bfc2603e:	6750      	move	v0,s0
    }

    return result;
}
bfc26040:	6465      	restore	40,ra,s0
bfc26042:	e8a0      	jrc	ra
bfc26044:	95f8      	lw	a1,992(sp)
bfc26046:	9fc1      	lw	a2,4(a3)
bfc26048:	6009      	bteqz	bfc2605c <tws_sync_cmd_deal+0x8>
bfc2604a:	bfc2      	lwu	a2,8(a3)
bfc2604c:	6711      	move	s0,s1
bfc2604e:	bfc2      	lwu	a2,8(a3)
bfc26050:	6801      	li	s0,1
bfc26052:	600a      	bteqz	bfc26068 <.LBE2>

bfc26054 <tws_sync_cmd_deal>:
bfc26054:	64e3      	save	24,ra,s0

#ifdef ENABLE_TRUE_WIRELESS_STEREO
//void Tws_clear_filter(void)
//{
//    if(btplay_gl_var.tts_play_flag == FALSE)
//    {
//        btplay_engine_pipe_control(PIPE_OP_UNFILTER );
//
//    }
//}
//void Tws_mode_back(void)
//{
//    g_p_tws_info->pri_full_exit_flag=1;
//}

void tws_sync_cmd_deal(void)
{
bfc26056:	b006      	lw	s0,bfc2606c <.LBE2+0x4>

    if(g_p_tws_info->tws_sync_cmd != 0) {
bfc26058:	9860      	lw	v1,0(s0)
bfc2605a:	a34c      	lbu	v0,12(v1)
bfc2605c:	2205      	beqz	v0,bfc26068 <.LBE2>

bfc2605e <.LBB2>:
bfc2605e:	b205      	lw	v0,bfc26070 <.LBE2+0x8>
        tws_sync_cmd_parase();
bfc26060:	eac0      	jalrc	v0
bfc26062:	9880      	lw	a0,0(s0)
        g_p_tws_info->tws_sync_cmd = 0;
bfc26064:	6d00      	li	a1,0
bfc26066:	c4ac      	sb	a1,12(a0)

bfc26068 <.LBE2>:
bfc26068:	6463      	restore	24,ra,s0
    }

}
bfc2606a:	e8a0      	jrc	ra
bfc2606c:	95ec      	lw	a1,944(sp)
bfc2606e:	9fc1      	lw	a2,4(a3)
bfc26070:	68a1      	li	s0,161
bfc26072:	6006      	bteqz	bfc26080 <check_play_status+0xc>

bfc26074 <check_play_status>:
bfc26074:	64f5      	save	40,ra,s0-s1

#endif
void check_play_status(void)
{
bfc26076:	b68b      	lw	a2,bfc262a0 <check_play_status+0x22c>
    uint16 threshold;

    if(btplay_gl_var.speech_flag == TRUE) {
bfc26078:	a643      	lbu	v0,3(a2)
bfc2607a:	7201      	cmpi	v0,1
bfc2607c:	f100 6002 	bteqz	bfc26284 <check_play_status+0x210>
bfc26080:	b089      	lw	s0,bfc262a4 <check_play_status+0x230>
        return;
    }

    if(g_p_bt_stack_cur_info->rmt_dev[g_p_bt_stack_cur_info->a2dp_active_id].a2dp_attr.play_status_flag == 1) {
bfc26082:	6a18      	li	v0,24
bfc26084:	9880      	lw	a0,0(s0)
bfc26086:	f020 a474 	lbu	v1,52(a0)
bfc2608a:	eb58      	mult	v1,v0
bfc2608c:	6b01      	li	v1,1
bfc2608e:	ef12      	mflo	a3
bfc26090:	e795      	addu	a1,a3,a0
bfc26092:	a54c      	lbu	v0,12(a1)
bfc26094:	ea6c      	and	v0,v1
bfc26096:	f500 4b13 	addiu	v1,1299
        threshold = 1300;
bfc2609a:	d304      	sw	v1,16(sp)
bfc2609c:	2a03      	bnez	v0,bfc260a4 <check_play_status+0x30>
bfc2609e:	f180 4a10 	addiu	v0,400
    } else {
        threshold = 400;
bfc260a2:	d204      	sw	v0,16(sp)
bfc260a4:	f020 a474 	lbu	v1,52(a0)
    }

//   if (g_p_bt_stack_cur_info->rmt_dev[g_p_bt_stack_cur_info->a2dp_active_id].a2dp_status == A2DP_STATUS_PLAY)
    if((g_p_bt_stack_cur_info->rmt_dev[g_p_bt_stack_cur_info->a2dp_active_id].a2dp_status == A2DP_STATUS_PLAY)
bfc260a8:	6d18      	li	a1,24
bfc260aa:	ebb8      	mult	v1,a1
bfc260ac:	ea12      	mflo	v0
bfc260ae:	e29d      	addu	a3,v0,a0
bfc260b0:	a7b2      	lbu	a1,18(a3)
bfc260b2:	7502      	cmpi	a1,2
bfc260b4:	616a      	btnez	bfc2618a <check_play_status+0x116>
bfc260b6:	b77d      	lw	a3,bfc262a8 <check_play_status+0x234>
bfc260b8:	9fa0      	lw	a1,0(a3)
bfc260ba:	a564      	lbu	v1,4(a1)
bfc260bc:	2b66      	bnez	v1,bfc2618a <check_play_status+0x116>
bfc260be:	ae06      	lhu	s0,12(a2)
            && (g_p_tws_info->pri_pause_flag == 0)) {
        if(btplay_gl_var.filter_after_pause > 0) {
bfc260c0:	201b      	beqz	s0,bfc260f8 <check_play_status+0x84>
bfc260c2:	a641      	lbu	v0,1(a2)
            btplay_gl_var.filter_after_pause = 0;
            //libc_print("Q1",0,0);
            if(btplay_gl_var.tts_play_flag == FALSE) {
bfc260c4:	ce66      	sh	v1,12(a2)
bfc260c6:	2a18      	bnez	v0,bfc260f8 <check_play_status+0x84>
bfc260c8:	f020 a4da 	lbu	a2,58(a0)
#ifdef ENABLE_TRUE_WIRELESS_STEREO
                if(g_p_bt_stack_cur_info->dev_role != TWS_MASTER)
bfc260cc:	7601      	cmpi	a2,1
bfc260ce:	6004      	bteqz	bfc260d8 <check_play_status+0x64>
bfc260d0:	b377      	lw	v1,bfc262ac <check_play_status+0x238>
#endif
                {
                    btplay_engine_pipe_control(PIPE_OP_UNFILTER);
bfc260d2:	eb40      	jalr	v1
bfc260d4:	6c02      	li	a0,2
bfc260d6:	1010      	b	bfc260f8 <check_play_status+0x84>
bfc260d8:	a589      	lbu	a0,9(a1)
                }
#ifdef ENABLE_TRUE_WIRELESS_STEREO
                else {
                    // if(g_p_tws_info->sub_quit_bl_flag != 1)
                    if((g_p_tws_info->sub_quit_bl_flag != 1) && (g_p_tws_info->tts_start_flag == 0)) {
bfc260da:	7401      	cmpi	a0,1
bfc260dc:	600d      	bteqz	bfc260f8 <check_play_status+0x84>
bfc260de:	a5c1      	lbu	a2,1(a1)
bfc260e0:	2e0b      	bnez	a2,bfc260f8 <check_play_status+0x84>
bfc260e2:	b274      	lw	v0,bfc262b0 <check_play_status+0x23c>
                        libc_print("Q1", 0, 0);
bfc260e4:	67a6      	move	a1,a2
bfc260e6:	0c69      	la	a0,bfc26288 <check_play_status+0x214>
bfc260e8:	ea40      	jalr	v0
bfc260ea:	6f4b      	li	a3,75
bfc260ec:	6dff      	li	a1,255
                        set_single_shot_app_timer(APP_TIMER_ATTRB_CONTROL,
bfc260ee:	b672      	lw	a2,bfc262b4 <check_play_status+0x240>
bfc260f0:	b072      	lw	s0,bfc262b8 <check_play_status+0x244>
bfc260f2:	6c01      	li	a0,1
bfc260f4:	e840      	jalr	s0
bfc260f6:	4d2d      	addiu	a1,45
bfc260f8:	b071      	lw	s0,bfc262bc <check_play_status+0x248>
                                                  300, Tws_clear_filter);
                    } else {
                        //libc_print("Q2",0,0);
                    }

                }
#endif
                //btplay_engine_pipe_control(PIPE_OP_UNFILTER);
            }
        }

        if(change_flag == 0) {
bfc260fa:	a0a0      	lbu	a1,0(s0)
bfc260fc:	2d04      	bnez	a1,bfc26106 <check_play_status+0x92>
bfc260fe:	b371      	lw	v1,bfc262c0 <check_play_status+0x24c>
            g_p_btplay_info->status = BTPLAY_PLAY;
bfc26100:	6e02      	li	a2,2
bfc26102:	9be0      	lw	a3,0(v1)
bfc26104:	c7c0      	sb	a2,0(a3)
bfc26106:	b46f      	lw	a0,bfc262c0 <check_play_status+0x24c>
        }

        //没有数据过来
        if(g_p_btplay_info->status == BTPLAY_PLAY) {
bfc26108:	9cc0      	lw	a2,0(a0)
bfc2610a:	a640      	lbu	v0,0(a2)
bfc2610c:	7202      	cmpi	v0,2
bfc2610e:	6127      	btnez	bfc2615e <check_play_status+0xea>
bfc26110:	b265      	lw	v0,bfc262a4 <check_play_status+0x230>
            if(g_p_bt_stack_cur_info->rmt_dev[g_p_bt_stack_cur_info->a2dp_active_id].a2dp_attr.avdtp_data_flag == 0) {
bfc26112:	6d18      	li	a1,24
bfc26114:	9ae0      	lw	a3,0(v0)
bfc26116:	f020 a794 	lbu	a0,52(a3)
bfc2611a:	ecb8      	mult	a0,a1
bfc2611c:	eb12      	mflo	v1
bfc2611e:	e3f5      	addu	a1,v1,a3
bfc26120:	a54c      	lbu	v0,12(a1)
bfc26122:	6f01      	li	a3,1
bfc26124:	344a      	srl	a0,v0,2
bfc26126:	ecec      	and	a0,a3
bfc26128:	b567      	lw	a1,bfc262c4 <check_play_status+0x250>
bfc2612a:	2c16      	bnez	a0,bfc26158 <check_play_status+0xe4>
bfc2612c:	ad40      	lhu	v0,0(a1)
                pause_cnt++;
bfc2612e:	b367      	lw	v1,bfc262c8 <check_play_status+0x254>
                play_cnt = 0;
bfc26130:	4241      	addiu	v0,v0,1
bfc26132:	cd40      	sh	v0,0(a1)
bfc26134:	ea31      	zeh	v0
                if(pause_cnt >= 300) {
bfc26136:	f120 5a0c 	sltiu	v0,300
bfc2613a:	cb80      	sh	a0,0(v1)
bfc2613c:	f0a0 6102 	btnez	bfc26284 <check_play_status+0x210>
bfc26140:	6b03      	li	v1,3
                    g_p_btplay_info->status = BTPLAY_PAUSE;
bfc26142:	cd80      	sh	a0,0(a1)
#ifdef ENABLE_TRUE_WIRELESS_STEREO
#ifndef ENABLE_PLAY_PAUSE_TTS
                    //底层更改成pause状态
                    //会影响超时断开后，蓝牙回连的恢复播放
                    // btplay_engine_pipe_control(PIPE_OP_PAUSE);
#endif
#endif
                    change_flag = 1;
                    pause_cnt = 0;
bfc26144:	b25b      	lw	v0,bfc262b0 <check_play_status+0x23c>
                    PRINT_INFO_INT("eng chg pau:", 300);
bfc26146:	6dff      	li	a1,255
bfc26148:	c660      	sb	v1,0(a2)
bfc2614a:	0c51      	la	a0,bfc2628c <check_play_status+0x218>
bfc2614c:	c0e0      	sb	a3,0(s0)
bfc2614e:	4d2d      	addiu	a1,45
bfc26150:	6e02      	li	a2,2
bfc26152:	ea40      	jalr	v0
bfc26154:	4f4a      	addiu	a3,74
bfc26156:	1096      	b	bfc26284 <check_play_status+0x210>
bfc26158:	6e00      	li	a2,0
                }
            } else {
                pause_cnt = 0;
bfc2615a:	cdc0      	sh	a2,0(a1)
bfc2615c:	1093      	b	bfc26284 <check_play_status+0x210>
bfc2615e:	7203      	cmpi	v0,3
            }
        } else if(g_p_btplay_info->status == BTPLAY_PAUSE) {
bfc26160:	f080 6110 	btnez	bfc26284 <check_play_status+0x210>
bfc26164:	b250      	lw	v0,bfc262a4 <check_play_status+0x230>
            if(g_p_bt_stack_cur_info->rmt_dev[g_p_bt_stack_cur_info->a2dp_active_id].a2dp_attr.avdtp_data_flag == 1) {
bfc26166:	6d18      	li	a1,24
bfc26168:	9ae0      	lw	a3,0(v0)
bfc2616a:	f020 a794 	lbu	a0,52(a3)
bfc2616e:	ecb8      	mult	a0,a1
bfc26170:	6d01      	li	a1,1
bfc26172:	eb12      	mflo	v1
bfc26174:	e3e9      	addu	v0,v1,a3
bfc26176:	a28c      	lbu	a0,12(v0)
bfc26178:	378a      	srl	a3,a0,2
bfc2617a:	efac      	and	a3,a1
bfc2617c:	f080 2702 	beqz	a3,bfc26284 <check_play_status+0x210>
bfc26180:	6f02      	li	a3,2
                g_p_btplay_info->status = BTPLAY_PLAY;
bfc26182:	c6e0      	sb	a3,0(a2)
bfc26184:	6e00      	li	a2,0
                change_flag = 0;
bfc26186:	c0c0      	sb	a2,0(s0)
bfc26188:	107d      	b	bfc26284 <check_play_status+0x210>
bfc2618a:	b148      	lw	s1,bfc262a8 <check_play_status+0x234>
            }
        } else {
            ; //do nothing
        }
    }
    // else if (g_p_bt_stack_cur_info->rmt_dev[g_p_bt_stack_cur_info->a2dp_active_id].a2dp_status == A2DP_STATUS_PAUSE)
    else if((g_p_tws_info->pri_pause_flag == 3)
bfc2618c:	99e0      	lw	a3,0(s1)
bfc2618e:	a764      	lbu	v1,4(a3)
bfc26190:	7303      	cmpi	v1,3
bfc26192:	6014      	bteqz	bfc261bc <check_play_status+0x148>
bfc26194:	f020 a454 	lbu	v0,52(a0)
bfc26198:	6d18      	li	a1,24
bfc2619a:	eab8      	mult	v0,a1
bfc2619c:	eb12      	mflo	v1
bfc2619e:	e389      	addu	v0,v1,a0
bfc261a0:	a292      	lbu	a0,18(v0)
bfc261a2:	7403      	cmpi	a0,3
bfc261a4:	616f      	btnez	bfc26284 <check_play_status+0x210>
bfc261a6:	9880      	lw	a0,0(s0)
            || (g_p_bt_stack_cur_info->rmt_dev[g_p_bt_stack_cur_info->a2dp_active_id].a2dp_status == A2DP_STATUS_PAUSE)) {
        //过滤AVRCP PAUSE后还送过来1-3秒声音
        //    if (g_p_bt_stack_cur_info->rmt_dev[g_p_bt_stack_cur_info->a2dp_active_id].a2dp_attr.avrcp_pause_flag == 1)
        if((g_p_tws_info->pri_pause_flag == 3)
bfc261a8:	f020 a474 	lbu	v1,52(a0)
bfc261ac:	ebb8      	mult	v1,a1
bfc261ae:	ed12      	mflo	a1
bfc261b0:	e589      	addu	v0,a1,a0
bfc261b2:	a26c      	lbu	v1,12(v0)
bfc261b4:	6c01      	li	a0,1
bfc261b6:	3566      	srl	a1,v1,1
bfc261b8:	ed8c      	and	a1,a0
bfc261ba:	250d      	beqz	a1,bfc261d6 <check_play_status+0x162>
bfc261bc:	b441      	lw	a0,bfc262c0 <check_play_status+0x24c>
                || (g_p_bt_stack_cur_info->rmt_dev[g_p_bt_stack_cur_info->a2dp_active_id].a2dp_attr.avrcp_pause_flag == 1)) {
            if(g_p_btplay_info->status != BTPLAY_PAUSE) {
bfc261be:	9c60      	lw	v1,0(a0)
bfc261c0:	a340      	lbu	v0,0(v1)
bfc261c2:	7203      	cmpi	v0,3
bfc261c4:	6008      	bteqz	bfc261d6 <check_play_status+0x162>
bfc261c6:	6d03      	li	a1,3
#ifdef ENABLE_TRUE_WIRELESS_STEREO
#ifdef ENABLE_PLAY_PAUSE_TTS
                btplay_engine_pipe_control(PIPE_OP_FILTER | PIPE_OP_CLEAR_PAUSE);
                //卸载BTPLAY中间件和DSP解码库
                if(btplay_gl_var.codec_flag == TRUE) {
                    //libc_print("G3", 0, 0);
                    a2dp_decode_quit();
                }
                btplay_engine_pipe_control(PIPE_OP_FLUSH);
#else
                //libc_print("G3", 0, 0);
#endif
#else
                btplay_engine_pipe_control(PIPE_OP_FILTER | PIPE_OP_CLEAR_PAUSE);
                //卸载BTPLAY中间件和DSP解码库
                if(btplay_gl_var.codec_flag == TRUE) {
                    //libc_print("G3", 0, 0);
                    a2dp_decode_quit();
                }
                btplay_engine_pipe_control(PIPE_OP_FLUSH);

#endif
                g_p_btplay_info->status = BTPLAY_PAUSE;
bfc261c8:	9404      	lw	a0,16(sp)
                btplay_gl_var.filter_after_pause = threshold - 2; //先于 TAG1 条件解除过滤
bfc261ca:	c3a0      	sb	a1,0(v1)
bfc261cc:	b53f      	lw	a1,bfc262c8 <check_play_status+0x254>
                play_cnt = 0;
bfc261ce:	444e      	addiu	v0,a0,-2
bfc261d0:	6b00      	li	v1,0
bfc261d2:	ce46      	sh	v0,12(a2)
bfc261d4:	cd60      	sh	v1,0(a1)
bfc261d6:	ae46      	lhu	v0,12(a2)
            }
        }

        if(btplay_gl_var.filter_after_pause > 0) {
bfc261d8:	2211      	beqz	v0,bfc261fc <check_play_status+0x188>
bfc261da:	424f      	addiu	v0,v0,-1
            btplay_gl_var.filter_after_pause--;
bfc261dc:	ce46      	sh	v0,12(a2)
bfc261de:	ea31      	zeh	v0
            if(btplay_gl_var.filter_after_pause == 0) {
bfc261e0:	2a0d      	bnez	v0,bfc261fc <check_play_status+0x188>
bfc261e2:	c744      	sb	v0,4(a3)
                g_p_tws_info->pri_pause_flag = 0;
bfc261e4:	a6e1      	lbu	a3,1(a2)
                if(btplay_gl_var.tts_play_flag == FALSE) {
bfc261e6:	2f0a      	bnez	a3,bfc261fc <check_play_status+0x188>
bfc261e8:	9960      	lw	v1,0(s1)
                    // if(g_p_tws_info->sub_quit_bl_flag==1)
                    if((g_p_tws_info->sub_quit_bl_flag == 1) || (g_p_tws_info->tts_start_flag == 1)) {
bfc261ea:	a3c9      	lbu	a2,9(v1)
bfc261ec:	7601      	cmpi	a2,1
bfc261ee:	6006      	bteqz	bfc261fc <check_play_status+0x188>
bfc261f0:	a341      	lbu	v0,1(v1)
bfc261f2:	7201      	cmpi	v0,1
bfc261f4:	6003      	bteqz	bfc261fc <check_play_status+0x188>
bfc261f6:	b32e      	lw	v1,bfc262ac <check_play_status+0x238>
                        ////libc_print("U2",0,0);
                    } else {
                        btplay_engine_pipe_control(PIPE_OP_UNFILTER);
bfc261f8:	eb40      	jalr	v1
bfc261fa:	6c02      	li	a0,2
bfc261fc:	b530      	lw	a1,bfc262bc <check_play_status+0x248>
                    }
                }
            }
        }

        if(change_flag == 0) {
bfc261fe:	a580      	lbu	a0,0(a1)
bfc26200:	2c04      	bnez	a0,bfc2620a <check_play_status+0x196>
bfc26202:	b230      	lw	v0,bfc262c0 <check_play_status+0x24c>
            g_p_btplay_info->status = BTPLAY_PAUSE;
bfc26204:	6e03      	li	a2,3
bfc26206:	9ae0      	lw	a3,0(v0)
bfc26208:	c7c0      	sb	a2,0(a3)
bfc2620a:	b32e      	lw	v1,bfc262c0 <check_play_status+0x24c>
        }

        //有数据过来
        if(g_p_btplay_info->status == BTPLAY_PAUSE) {
bfc2620c:	9ba0      	lw	a1,0(v1)
bfc2620e:	a540      	lbu	v0,0(a1)
bfc26210:	7203      	cmpi	v0,3
bfc26212:	6125      	btnez	bfc2625e <check_play_status+0x1ea>
bfc26214:	b724      	lw	a3,bfc262a4 <check_play_status+0x230>
            if(g_p_bt_stack_cur_info->rmt_dev[g_p_bt_stack_cur_info->a2dp_active_id].a2dp_attr.avdtp_data_flag == 1) {
bfc26216:	6818      	li	s0,24
bfc26218:	9f40      	lw	v0,0(a3)
bfc2621a:	f020 a294 	lbu	a0,52(v0)
bfc2621e:	ec18      	mult	a0,s0
bfc26220:	6801      	li	s0,1
bfc26222:	eb12      	mflo	v1
bfc26224:	e359      	addu	a2,v1,v0
bfc26226:	a6ec      	lbu	a3,12(a2)
bfc26228:	34ea      	srl	a0,a3,2
bfc2622a:	ec0c      	and	a0,s0
bfc2622c:	b027      	lw	s0,bfc262c8 <check_play_status+0x254>
bfc2622e:	2414      	beqz	a0,bfc26258 <check_play_status+0x1e4>
bfc26230:	a820      	lhu	s1,0(s0)
                play_cnt++;
bfc26232:	9604      	lw	a2,16(sp)
                pause_cnt = 0;
                if(play_cnt >= threshold) { //TAG1
bfc26234:	4141      	addiu	v0,s1,1
bfc26236:	c840      	sh	v0,0(s0)
bfc26238:	b323      	lw	v1,bfc262c4 <check_play_status+0x250>
bfc2623a:	ea31      	zeh	v0
bfc2623c:	6900      	li	s1,0
bfc2623e:	eac3      	sltu	v0,a2
bfc26240:	cb20      	sh	s1,0(v1)
bfc26242:	6120      	btnez	bfc26284 <check_play_status+0x210>
bfc26244:	6f02      	li	a3,2
                    g_p_btplay_info->status = BTPLAY_PLAY;
bfc26246:	b21a      	lw	v0,bfc262ac <check_play_status+0x238>
#ifdef ENABLE_TRUE_WIRELESS_STEREO
#ifndef ENABLE_PLAY_PAUSE_TTS
                    //更改底层状态，主要是为了交叉按键保证前台状态能够正常
                    btplay_engine_pipe_control(PIPE_OP_PLAY);
bfc26248:	c5e0      	sb	a3,0(a1)
bfc2624a:	ea40      	jalr	v0
bfc2624c:	6c20      	li	a0,32
bfc2624e:	b51c      	lw	a1,bfc262bc <check_play_status+0x248>
#endif
#endif
                    change_flag = 1;
bfc26250:	6c01      	li	a0,1
bfc26252:	c580      	sb	a0,0(a1)
bfc26254:	c820      	sh	s1,0(s0)
                    play_cnt = 0;
bfc26256:	1016      	b	bfc26284 <check_play_status+0x210>
bfc26258:	6e00      	li	a2,0
                    //    PRINT_INFO_INT("eng chg ply:", (uint32) threshold);
                }
            } else {
                play_cnt = 0;
bfc2625a:	c8c0      	sh	a2,0(s0)
bfc2625c:	1013      	b	bfc26284 <check_play_status+0x210>
bfc2625e:	7202      	cmpi	v0,2
            }
        } else if(g_p_btplay_info->status == BTPLAY_PLAY) {
bfc26260:	6111      	btnez	bfc26284 <check_play_status+0x210>
bfc26262:	b211      	lw	v0,bfc262a4 <check_play_status+0x230>
            if(g_p_bt_stack_cur_info->rmt_dev[g_p_bt_stack_cur_info->a2dp_active_id].a2dp_attr.avdtp_data_flag == 0) {
bfc26264:	6f18      	li	a3,24
bfc26266:	9ac0      	lw	a2,0(v0)
bfc26268:	f020 a694 	lbu	a0,52(a2)
bfc2626c:	ecf8      	mult	a0,a3
bfc2626e:	6c01      	li	a0,1
bfc26270:	eb12      	mflo	v1
bfc26272:	e3dd      	addu	a3,v1,a2
bfc26274:	a74c      	lbu	v0,12(a3)
bfc26276:	334a      	srl	v1,v0,2
bfc26278:	eb8c      	and	v1,a0
bfc2627a:	2b04      	bnez	v1,bfc26284 <check_play_status+0x210>
bfc2627c:	6e03      	li	a2,3
                g_p_btplay_info->status = BTPLAY_PAUSE;
bfc2627e:	c5c0      	sb	a2,0(a1)
bfc26280:	b50f      	lw	a1,bfc262bc <check_play_status+0x248>
                change_flag = 0;
bfc26282:	c560      	sb	v1,0(a1)
bfc26284:	6475      	restore	40,ra,s0-s1
            }
        } else {
            ; //do nothing
        }
    } else {
        ; //do nothing
    }
}
bfc26286:	e8a0      	jrc	ra
bfc26288:	3151      	dsll	s1,v0,4
bfc2628a:	0000      	addiu	s0,sp,0
bfc2628c:	493c      	addiu	s1,60
bfc2628e:	203e      	beqz	s0,bfc2630c <btplay_player_status_deal+0x40>
bfc26290:	6e65      	li	a2,101
bfc26292:	2067      	beqz	s0,bfc26362 <btplay_player_status_deal+0x96>
bfc26294:	6863      	li	s0,99
bfc26296:	2067      	beqz	s0,bfc26366 <btplay_player_status_deal+0x9a>
bfc26298:	6170      	btnez	bfc2637a <btplay_player_status_deal+0xae>
bfc2629a:	3a75      	ld	v1,168(v0)
bfc2629c:	0000      	addiu	s0,sp,0
bfc2629e:	0000      	addiu	s0,sp,0
bfc262a0:	9604      	lw	a2,16(sp)
bfc262a2:	9fc1      	lw	a2,4(a3)
bfc262a4:	95e8      	lw	a1,928(sp)
bfc262a6:	9fc1      	lw	a2,4(a3)
bfc262a8:	95ec      	lw	a1,944(sp)
bfc262aa:	9fc1      	lw	a2,4(a3)
bfc262ac:	6881      	li	s0,129
bfc262ae:	6006      	bteqz	bfc262bc <check_play_status+0x248>
bfc262b0:	6009      	bteqz	bfc262c4 <check_play_status+0x250>
bfc262b2:	bfc2      	lwu	a2,8(a3)
bfc262b4:	6d89      	li	a1,137
bfc262b6:	6006      	bteqz	bfc262c4 <check_play_status+0x250>
bfc262b8:	6b19      	li	v1,25
bfc262ba:	60a2      	bteqz	bfc26200 <check_play_status+0x18c>
bfc262bc:	95fc      	lw	a1,1008(sp)
bfc262be:	9fc1      	lw	a2,4(a3)
bfc262c0:	95f8      	lw	a1,992(sp)
bfc262c2:	9fc1      	lw	a2,4(a3)
bfc262c4:	9600      	lw	a2,0(sp)
bfc262c6:	9fc1      	lw	a2,4(a3)
bfc262c8:	95fe      	lw	a1,1016(sp)
bfc262ca:	9fc1      	lw	a2,4(a3)

bfc262cc <btplay_player_status_deal>:
bfc262cc:	64e3      	save	24,ra,s0

void __section__(".bank") btplay_eg_status_change_deal(a2dp_status_e *last_a2dp_status)
{
    switch(g_p_bt_stack_cur_info->rmt_dev[g_p_bt_stack_cur_info->a2dp_active_id].a2dp_status) {
        case A2DP_STATUS_NONE:
            g_p_btplay_info->status = BTPLAY_IDLE;
            change_flag = 0;
            break;

        default:
            if(*last_a2dp_status == A2DP_STATUS_NONE) {
                g_p_btplay_info->status = BTPLAY_STOP;
            }
            break;
    }

    *last_a2dp_status = g_p_bt_stack_cur_info->rmt_dev[g_p_bt_stack_cur_info->a2dp_active_id].a2dp_status;
}
#ifdef ENABLE_TRUE_WIRELESS_STEREO
void __section__(".bank") tws_decode_end_deal(void)
{
    //libc_print("phc:",g_p_bt_stack_cur_info->tws_master_phonecon,2);
    btplay_engine_pipe_control(PIPE_OP_FILTER);
    a2dp_decode_quit();
    //libc_print("G1",0,0);
    if((g_p_bt_stack_cur_info->dev_role == 1) && ((g_p_tws_info->pri_exit_mmm == 1) || (g_p_tws_info->pri_full_exit_flag)
            || (g_p_tws_info->pri_empty_exit_mmm == 1))) {
        //   //libc_print("EE",0,0);
        //保证主箱加载前，副箱已经卸载完
        //1s后再去清除丢数标志
        clear_filter_timer_id = set_single_shot_app_timer(APP_TIMER_ATTRB_CONTROL,
                                500, Tws_clear_filter);
        btplay_engine_pipe_control(PIPE_OP_FLUSH);

    } else if((g_p_bt_stack_cur_info->dev_role == 1) && (g_p_tws_info->tts_start_flag == 1)) //对方tts播完才能清除丢数的标志

    {
        btplay_engine_pipe_control(PIPE_OP_FLUSH);
        //g_p_tws_info->tts_start_flag=0;
    }
#ifndef ENABLE_PLAY_PAUSE_TTS
    else if((g_p_bt_stack_cur_info->dev_role == TWS_MASTER)
            && (g_p_tws_info->sub_quit_bl_flag == 1)) { //由于去掉了G3的分支，因此从箱切应用会走G1分支
        btplay_engine_pipe_control(PIPE_OP_FLUSH);
    }
#endif
    else {
        btplay_engine_pipe_control(PIPE_OP_UNFILTER | PIPE_OP_FLUSH);
    }
    //  second_empty_flag=0;

}
#endif

void btplay_player_status_deal(void)
{
bfc262ce:	b366      	lw	v1,bfc26464 <btplay_player_status_deal+0x198>
    uint32 media_type;

    //加载BTPLAY中间件和DSP解码库
#ifdef ENABLE_TRUE_WIRELESS_STEREO

    tws_sync_cmd_deal();
bfc262d0:	ebc0      	jalrc	v1
bfc262d2:	b466      	lw	a0,bfc26468 <btplay_player_status_deal+0x19c>

    if(btplay_gl_var.speech_flag == TRUE) {
bfc262d4:	a443      	lbu	v0,3(a0)
bfc262d6:	7201      	cmpi	v0,1
bfc262d8:	f0a0 601e 	bteqz	bfc26458 <btplay_player_status_deal+0x18c>
bfc262dc:	b764      	lw	a3,bfc2646c <btplay_player_status_deal+0x1a0>
        return;
    }

    if(g_p_bt_stack_cur_info->dev_role == TWS_MASTER) {
bfc262de:	9fc0      	lw	a2,0(a3)
bfc262e0:	f020 a6ba 	lbu	a1,58(a2)
bfc262e4:	7501      	cmpi	a1,1
bfc262e6:	6111      	btnez	bfc2630a <btplay_player_status_deal+0x3e>
bfc262e8:	b262      	lw	v0,bfc26470 <btplay_player_status_deal+0x1a4>
        if(g_p_tws_info->sub_quit_bl_flag == 1) {
bfc262ea:	9a60      	lw	v1,0(v0)
bfc262ec:	a309      	lbu	s0,9(v1)
bfc262ee:	7001      	cmpi	s0,1
bfc262f0:	6102      	btnez	bfc262f6 <btplay_player_status_deal+0x2a>
bfc262f2:	6c01      	li	a0,1
            btplay_engine_pipe_control(PIPE_OP_FILTER);
bfc262f4:	1008      	b	bfc26306 <btplay_player_status_deal+0x3a>
bfc262f6:	a3a8      	lbu	a1,8(v1)
        } else if(g_p_tws_info->sub_back_bl_flag == 1) {
bfc262f8:	7501      	cmpi	a1,1
bfc262fa:	6107      	btnez	bfc2630a <btplay_player_status_deal+0x3e>
bfc262fc:	6e00      	li	a2,0
            g_p_tws_info->sub_back_bl_flag = 0;
bfc262fe:	c3c8      	sb	a2,8(v1)
bfc26300:	ac60      	lhu	v1,0(a0)
            if((btplay_gl_var.codec_flag == FALSE) && (btplay_gl_var.tts_play_flag == FALSE)) {
bfc26302:	2b03      	bnez	v1,bfc2630a <btplay_player_status_deal+0x3e>
bfc26304:	6c02      	li	a0,2
                btplay_engine_pipe_control(PIPE_OP_UNFILTER);
bfc26306:	b05c      	lw	s0,bfc26474 <btplay_player_status_deal+0x1a8>
bfc26308:	e8c0      	jalrc	s0
bfc2630a:	b559      	lw	a1,bfc2646c <btplay_player_status_deal+0x1a0>
            }
        }
    }

    if(g_p_bt_stack_cur_info->dev_role == NORMAL_DEV) {
bfc2630c:	9d80      	lw	a0,0(a1)
bfc2630e:	f020 a47a 	lbu	v1,58(a0)
bfc26312:	2b03      	bnez	v1,bfc2631a <btplay_player_status_deal+0x4e>
bfc26314:	b257      	lw	v0,bfc26470 <btplay_player_status_deal+0x1a4>
        g_p_tws_info->sub_quit_bl_flag = 0;
bfc26316:	9ae0      	lw	a3,0(v0)
bfc26318:	c769      	sb	v1,9(a3)
bfc2631a:	b654      	lw	a2,bfc26468 <btplay_player_status_deal+0x19c>
    }
    if((btplay_gl_var.codec_flag == FALSE) && ((g_p_bt_stack_cur_info->play_and_pause == 1)
bfc2631c:	a680      	lbu	a0,0(a2)
bfc2631e:	2c0d      	bnez	a0,bfc2633a <btplay_player_status_deal+0x6e>
bfc26320:	9d60      	lw	v1,0(a1)
bfc26322:	f040 a300 	lbu	s0,64(v1)
bfc26326:	7001      	cmpi	s0,1
bfc26328:	6003      	bteqz	bfc26330 <btplay_player_status_deal+0x64>
bfc2632a:	f040 a3e1 	lbu	a3,65(v1)
bfc2632e:	2f05      	bnez	a3,bfc2633a <btplay_player_status_deal+0x6e>
bfc26330:	b250      	lw	v0,bfc26470 <btplay_player_status_deal+0x1a4>
            || (g_p_bt_stack_cur_info->tws_master_phonecon == 0))) {
        g_p_tws_info->tts_stop_flag = 0;
bfc26332:	9a00      	lw	s0,0(v0)
bfc26334:	c082      	sb	a0,2(s0)
bfc26336:	9a60      	lw	v1,0(v0)
        g_p_tws_info->tts_start_flag = 0;
bfc26338:	c381      	sb	a0,1(v1)
bfc2633a:	ae00      	lhu	s0,0(a2)
        ////libc_print("U3",0,0);
    }

    if((btplay_gl_var.codec_flag == FALSE) && (btplay_gl_var.tts_play_flag == FALSE)
bfc2633c:	2838      	bnez	s0,bfc263ae <btplay_player_status_deal+0xe2>
bfc2633e:	b74f      	lw	a3,bfc26478 <btplay_player_status_deal+0x1ac>
bfc26340:	9f80      	lw	a0,0(a3)
bfc26342:	acc3      	lhu	a2,6(a0)
bfc26344:	2634      	beqz	a2,bfc263ae <btplay_player_status_deal+0xe2>
bfc26346:	9d80      	lw	a0,0(a1)
bfc26348:	6e18      	li	a2,24
bfc2634a:	f020 a474 	lbu	v1,52(a0)
bfc2634e:	ebd8      	mult	v1,a2
bfc26350:	ea12      	mflo	v0
bfc26352:	e28d      	addu	v1,v0,a0
bfc26354:	a3b2      	lbu	a1,18(v1)
bfc26356:	252b      	beqz	a1,bfc263ae <btplay_player_status_deal+0xe2>
bfc26358:	a3eb      	lbu	a3,11(v1)
bfc2635a:	77ff      	cmpi	a3,255
bfc2635c:	6028      	bteqz	bfc263ae <btplay_player_status_deal+0xe2>
bfc2635e:	a4a2      	lbu	a1,2(a0)
bfc26360:	7501      	cmpi	a1,1
bfc26362:	6025      	bteqz	bfc263ae <btplay_player_status_deal+0xe2>
bfc26364:	f020 a45a 	lbu	v0,58(a0)
            && (g_p_play_pipe->length > 0)
            && (g_p_bt_stack_cur_info->rmt_dev[g_p_bt_stack_cur_info->a2dp_active_id].a2dp_status
                != A2DP_STATUS_NONE)
            && (g_p_bt_stack_cur_info->rmt_dev[g_p_bt_stack_cur_info->a2dp_active_id].a2dp_attr.media_type
                != A2DP_CODEC_NONA2DP) && (g_p_bt_stack_cur_info->controller_status != BT_CONTROLLER_STATUS_IDLE))
#else
    if((btplay_gl_var.codec_flag == FALSE) && (btplay_gl_var.tts_play_flag == FALSE)
            && (g_p_play_pipe->length > 0)
            && (g_p_bt_stack_cur_info->rmt_dev[g_p_bt_stack_cur_info->a2dp_active_id].a2dp_status
                != A2DP_STATUS_NONE)
            && (g_p_bt_stack_cur_info->rmt_dev[g_p_bt_stack_cur_info->a2dp_active_id].a2dp_attr.media_type
                != A2DP_CODEC_NONA2DP))
#endif
    {
#ifdef ENABLE_TRUE_WIRELESS_STEREO
        if(g_p_bt_stack_cur_info->dev_role == 1) {
bfc26368:	7201      	cmpi	v0,1
bfc2636a:	6103      	btnez	bfc26372 <btplay_player_status_deal+0xa6>
bfc2636c:	b342      	lw	v1,bfc26474 <btplay_player_status_deal+0x1a8>
            btplay_engine_pipe_control(PIPE_OP_FILTER | PIPE_OP_MMM_FILTER);
bfc2636e:	eb40      	jalr	v1
bfc26370:	6c09      	li	a0,9
bfc26372:	b440      	lw	a0,bfc26470 <btplay_player_status_deal+0x1a4>
        }
#endif

        //避免加载起来中间件后又会去卸载掉
        if((g_p_tws_info->pri_exit_mmm == 1) || (g_p_tws_info->sub_exit_mmm == 1)) {
bfc26374:	9c60      	lw	v1,0(a0)
bfc26376:	a3c5      	lbu	a2,5(v1)
bfc26378:	7601      	cmpi	a2,1
bfc2637a:	6003      	bteqz	bfc26382 <btplay_player_status_deal+0xb6>
bfc2637c:	a3e6      	lbu	a3,6(v1)
bfc2637e:	7701      	cmpi	a3,1
bfc26380:	6103      	btnez	bfc26388 <btplay_player_status_deal+0xbc>
bfc26382:	c305      	sb	s0,5(v1)
            g_p_tws_info->pri_exit_mmm = 0;
bfc26384:	9ca0      	lw	a1,0(a0)
            g_p_tws_info->sub_exit_mmm = 0;
bfc26386:	c506      	sb	s0,6(a1)
bfc26388:	b039      	lw	s0,bfc2646c <btplay_player_status_deal+0x1a0>

        }

        a2dp_decode_init(g_p_bt_stack_cur_info->rmt_dev[g_p_bt_stack_cur_info->a2dp_active_id].a2dp_attr.media_type);
bfc2638a:	6a18      	li	v0,24
bfc2638c:	98e0      	lw	a3,0(s0)
bfc2638e:	b33c      	lw	v1,bfc2647c <btplay_player_status_deal+0x1b0>
bfc26390:	f020 a794 	lbu	a0,52(a3)
bfc26394:	ec58      	mult	a0,v0
bfc26396:	ed12      	mflo	a1
bfc26398:	e5f9      	addu	a2,a1,a3
bfc2639a:	eb40      	jalr	v1
bfc2639c:	a68b      	lbu	a0,11(a2)
bfc2639e:	9840      	lw	v0,0(s0)
#ifdef ENABLE_TRUE_WIRELESS_STEREO
        if(g_p_bt_stack_cur_info->dev_role == 1) {
bfc263a0:	f020 a29a 	lbu	a0,58(v0)
bfc263a4:	7401      	cmpi	a0,1
bfc263a6:	6103      	btnez	bfc263ae <btplay_player_status_deal+0xe2>
bfc263a8:	b333      	lw	v1,bfc26474 <btplay_player_status_deal+0x1a8>
            btplay_engine_pipe_control(PIPE_OP_UNFILTER);
bfc263aa:	eb40      	jalr	v1
bfc263ac:	6c02      	li	a0,2
bfc263ae:	b235      	lw	v0,bfc26480 <btplay_player_status_deal+0x1b4>
        }
#endif
    }

#ifdef ENABLE_TRUE_WIRELESS_STEREO

    send_mmm_exit_cmd();
bfc263b0:	eac0      	jalrc	v0
bfc263b2:	b72e      	lw	a3,bfc26468 <btplay_player_status_deal+0x19c>
    //卸载BTPLAY中间件和DSP解码库
#if 0
    if((btplay_gl_var.codec_flag == TRUE)
            && ((g_p_bt_stack_cur_info->controller_status == BT_CONTROLLER_STATUS_IDLE)
                || (g_p_bt_stack_cur_info->rmt_dev[g_p_bt_stack_cur_info->a2dp_active_id].a2dp_status
                    == A2DP_STATUS_NONE)
                || (g_p_tws_info->pri_exit_mmm == 1)
                || (g_p_tws_info->sub_exit_mmm == 1)
                || (second_empty_flag != 0)
                || (g_p_tws_info->tts_start_flag == 1)
                || ((tws_or_notws_flag != g_p_bt_stack_cur_info->dev_role) && (g_app_info_state_all.g_no_support_tts_flag == 1))
                || ((g_p_bt_stack_cur_info->dev_role == 2) && (g_p_bt_stack_cur_info->tws_master_phonecon == 0))))
#else
    if((btplay_gl_var.codec_flag == TRUE)
bfc263b4:	a7c0      	lbu	a2,0(a3)
bfc263b6:	7601      	cmpi	a2,1
bfc263b8:	612a      	btnez	bfc2640e <btplay_player_status_deal+0x142>
bfc263ba:	b42e      	lw	a0,bfc26470 <btplay_player_status_deal+0x1a4>
bfc263bc:	9c60      	lw	v1,0(a0)
bfc263be:	a3a5      	lbu	a1,5(v1)
bfc263c0:	7501      	cmpi	a1,1
bfc263c2:	6015      	bteqz	bfc263ee <btplay_player_status_deal+0x122>
bfc263c4:	a3c6      	lbu	a2,6(v1)
bfc263c6:	7601      	cmpi	a2,1
bfc263c8:	6012      	bteqz	bfc263ee <btplay_player_status_deal+0x122>
bfc263ca:	b22f      	lw	v0,bfc26484 <btplay_player_status_deal+0x1b8>
bfc263cc:	a2e0      	lbu	a3,0(v0)
bfc263ce:	2f0f      	bnez	a3,bfc263ee <btplay_player_status_deal+0x122>
bfc263d0:	a3a1      	lbu	a1,1(v1)
bfc263d2:	7501      	cmpi	a1,1
bfc263d4:	600c      	bteqz	bfc263ee <btplay_player_status_deal+0x122>
bfc263d6:	b226      	lw	v0,bfc2646c <btplay_player_status_deal+0x1a0>
bfc263d8:	b72c      	lw	a3,bfc26488 <btplay_player_status_deal+0x1bc>
bfc263da:	9ac0      	lw	a2,0(v0)
bfc263dc:	a780      	lbu	a0,0(a3)
bfc263de:	f020 a67a 	lbu	v1,58(a2)
bfc263e2:	ec6e      	xor	a0,v1
bfc263e4:	2414      	beqz	a0,bfc2640e <btplay_player_status_deal+0x142>
bfc263e6:	b42a      	lw	a0,bfc2648c <btplay_player_status_deal+0x1c0>
bfc263e8:	a4a4      	lbu	a1,4(a0)
bfc263ea:	7501      	cmpi	a1,1
bfc263ec:	6110      	btnez	bfc2640e <btplay_player_status_deal+0x142>
bfc263ee:	b026      	lw	s0,bfc26484 <btplay_player_status_deal+0x1b8>
            && ((g_p_tws_info->pri_exit_mmm == 1)
                || (g_p_tws_info->sub_exit_mmm == 1)
                || (second_empty_flag != 0)
                || (g_p_tws_info->tts_start_flag == 1)
                || ((tws_or_notws_flag != g_p_bt_stack_cur_info->dev_role) && (g_app_info_state_all.g_no_support_tts_flag == 1))
                /*||((g_p_bt_stack_cur_info->dev_role==2)&&(g_p_bt_stack_cur_info->tws_master_phonecon == 0))*/))

#endif
    {
        libc_print("sef", second_empty_flag, 2);
bfc263f0:	0c1b      	la	a0,bfc2645c <btplay_player_status_deal+0x190>
bfc263f2:	a0a0      	lbu	a1,0(s0)
bfc263f4:	b027      	lw	s0,bfc26490 <btplay_player_status_deal+0x1c4>
bfc263f6:	6e02      	li	a2,2
bfc263f8:	e840      	jalr	s0
bfc263fa:	6f4b      	li	a3,75
bfc263fc:	b71d      	lw	a3,bfc26470 <btplay_player_status_deal+0x1a4>
        libc_print("tts", g_p_tws_info->tts_start_flag, 2);
bfc263fe:	0c19      	la	a0,bfc26460 <btplay_player_status_deal+0x194>
bfc26400:	9fc0      	lw	a2,0(a3)
bfc26402:	6f4b      	li	a3,75
bfc26404:	a6a1      	lbu	a1,1(a2)
bfc26406:	e840      	jalr	s0
bfc26408:	6e02      	li	a2,2
bfc2640a:	b323      	lw	v1,bfc26494 <btplay_player_status_deal+0x1c8>
        tws_decode_end_deal();
bfc2640c:	ebc0      	jalrc	v1
bfc2640e:	b718      	lw	a3,bfc2646c <btplay_player_status_deal+0x1a0>
    }
    tws_or_notws_flag = g_p_bt_stack_cur_info->dev_role;
bfc26410:	b61e      	lw	a2,bfc26488 <btplay_player_status_deal+0x1bc>
bfc26412:	9f80      	lw	a0,0(a3)
bfc26414:	b717      	lw	a3,bfc26470 <btplay_player_status_deal+0x1a4>
    second_empty_flag = 0;

    //对方tts播完清除丢数标志
    if((g_p_tws_info->tts_stop_flag == 1) && (g_p_tws_info->tts_start_flag == 1)) {
bfc26416:	f020 a47a 	lbu	v1,58(a0)
bfc2641a:	b21b      	lw	v0,bfc26484 <btplay_player_status_deal+0x1b8>
bfc2641c:	c660      	sb	v1,0(a2)
bfc2641e:	6d00      	li	a1,0
bfc26420:	9fc0      	lw	a2,0(a3)
bfc26422:	c2a0      	sb	a1,0(v0)
bfc26424:	9e40      	lw	v0,0(a2)
bfc26426:	b31d      	lw	v1,bfc26498 <btplay_player_status_deal+0x1cc>
bfc26428:	b51d      	lw	a1,bfc2649c <btplay_player_status_deal+0x1d0>
bfc2642a:	ea6c      	and	v0,v1
bfc2642c:	eaae      	xor	v0,a1
bfc2642e:	2a14      	bnez	v0,bfc26458 <btplay_player_status_deal+0x18c>
bfc26430:	f020 a45a 	lbu	v0,58(a0)
        //btplay_engine_pipe_control(PIPE_OP_UNFILTER);
        if(g_p_bt_stack_cur_info->dev_role == 1) {
bfc26434:	7201      	cmpi	v0,1
bfc26436:	6107      	btnez	bfc26446 <btplay_player_status_deal+0x17a>
bfc26438:	b61a      	lw	a2,bfc264a0 <btplay_player_status_deal+0x1d4>
            set_single_shot_app_timer(APP_TIMER_ATTRB_CONTROL,
bfc2643a:	b21b      	lw	v0,bfc264a4 <btplay_player_status_deal+0x1d8>
bfc2643c:	f1e0 6d14 	li	a1,500
bfc26440:	ea40      	jalr	v0
bfc26442:	6c01      	li	a0,1
bfc26444:	1003      	b	bfc2644c <btplay_player_status_deal+0x180>
bfc26446:	b30c      	lw	v1,bfc26474 <btplay_player_status_deal+0x1a8>
                                      500, Tws_clear_filter);
        } else {
            btplay_engine_pipe_control(PIPE_OP_UNFILTER | PIPE_OP_FLUSH);
bfc26448:	eb40      	jalr	v1
bfc2644a:	6c82      	li	a0,130
bfc2644c:	b409      	lw	a0,bfc26470 <btplay_player_status_deal+0x1a4>
//             libc_print("flush", 0, 0);
        }
        g_p_tws_info->tts_stop_flag = 0;
bfc2644e:	6e00      	li	a2,0
bfc26450:	9ce0      	lw	a3,0(a0)
bfc26452:	c7c2      	sb	a2,2(a3)
bfc26454:	9ca0      	lw	a1,0(a0)
        g_p_tws_info->tts_start_flag = 0;
bfc26456:	c5c1      	sb	a2,1(a1)
bfc26458:	6463      	restore	24,ra,s0
    }
#else
    if((btplay_gl_var.codec_flag == TRUE) && ((g_p_bt_stack_cur_info->controller_status
            == BT_CONTROLLER_STATUS_IDLE)
            || (g_p_bt_stack_cur_info->rmt_dev[g_p_bt_stack_cur_info->a2dp_active_id].a2dp_status
                == A2DP_STATUS_NONE))) {
        btplay_engine_pipe_control(PIPE_OP_FILTER);
        a2dp_decode_quit();
        btplay_engine_pipe_control(PIPE_OP_UNFILTER | PIPE_OP_FLUSH);

    }
#endif

}
bfc2645a:	e8a0      	jrc	ra
bfc2645c:	6573      	move	s3,v1
bfc2645e:	0066      	addiu	s0,sp,408
bfc26460:	7474      	cmpi	a0,116
bfc26462:	0073      	addiu	s0,sp,460
bfc26464:	6055      	bteqz	bfc26510 <.LBE3+0x1a>
bfc26466:	bfc2      	lwu	a2,8(a3)
bfc26468:	9604      	lw	a2,16(sp)
bfc2646a:	9fc1      	lw	a2,4(a3)
bfc2646c:	95e8      	lw	a1,928(sp)
bfc2646e:	9fc1      	lw	a2,4(a3)
bfc26470:	95ec      	lw	a1,944(sp)
bfc26472:	9fc1      	lw	a2,4(a3)
bfc26474:	6881      	li	s0,129
bfc26476:	6006      	bteqz	bfc26484 <btplay_player_status_deal+0x1b8>
bfc26478:	95e4      	lw	a1,912(sp)
bfc2647a:	9fc1      	lw	a2,4(a3)
bfc2647c:	6a1d      	li	v0,29
bfc2647e:	6006      	bteqz	bfc2648c <btplay_player_status_deal+0x1c0>
bfc26480:	6575      	move	s3,a1
bfc26482:	bfc2      	lwu	a2,8(a3)
bfc26484:	95aa      	lw	a1,680(sp)
bfc26486:	9fc1      	lw	a2,4(a3)
bfc26488:	95a8      	lw	a1,672(sp)
bfc2648a:	9fc1      	lw	a2,4(a3)
bfc2648c:	a094      	lbu	a0,20(s0)
bfc2648e:	9fc1      	lw	a2,4(a3)
bfc26490:	6009      	bteqz	bfc264a4 <btplay_player_status_deal+0x1d8>
bfc26492:	bfc2      	lwu	a2,8(a3)
bfc26494:	6991      	li	s1,145
bfc26496:	6006      	bteqz	bfc264a4 <btplay_player_status_deal+0x1d8>
bfc26498:	ff00      	daddiu	s0,sp,0
bfc2649a:	00ff      	addiu	s0,sp,1020
bfc2649c:	0100      	addiu	s1,sp,0
bfc2649e:	0001      	addiu	s0,sp,4
bfc264a0:	6d89      	li	a1,137
bfc264a2:	6006      	bteqz	bfc264b0 <get_message_loop+0x8>
bfc264a4:	6b19      	li	v1,25
bfc264a6:	60a2      	bteqz	bfc263ec <btplay_player_status_deal+0x120>

bfc264a8 <get_message_loop>:
bfc264a8:	64f5      	save	40,ra,s0-s1

/******************************************************************************/
/*!
 * \par  Description:
 *      MainMenu 应用的入口函数和场景管理器模块
 * \param[in]    PARAM_FROM_XXX
 * \param[out]   none
 * \return       the result
 * \retval       0 sucess
 * \retval       1 failed
 * \ingroup      module name
 * \par          exmaple code
 * \code
 *               list example code in here
 * \endcode
 * \note
 *******************************************************************************/
app_result_e get_message_loop(void)
{
bfc264aa:	b227      	lw	v0,bfc26544 <.LBE6+0x28>
    app_result_e result = RESULT_NULL;
    a2dp_status_e last_a2dp_status = A2DP_STATUS_NONE;

    count_free_dsp_timer_id = -1;
bfc264ac:	6d00      	li	a1,0
bfc264ae:	679d      	move	a0,sp
bfc264b0:	6b01      	li	v1,1
bfc264b2:	eb6b      	neg	v1
bfc264b4:	c4b0      	sb	a1,16(a0)
bfc264b6:	c260      	sb	v1,0(v0)
bfc264b8:	b124      	lw	s1,bfc26548 <.LBE6+0x2c>

    while(1) {
        if(g_p_bt_stack_cur_info->rmt_dev[g_p_bt_stack_cur_info->a2dp_active_id].a2dp_status != last_a2dp_status) {
bfc264ba:	6e18      	li	a2,24
bfc264bc:	99a0      	lw	a1,0(s1)
bfc264be:	671d      	move	s0,sp
bfc264c0:	f020 a594 	lbu	a0,52(a1)
bfc264c4:	a0f0      	lbu	a3,16(s0)
bfc264c6:	ecd8      	mult	a0,a2
bfc264c8:	eb12      	mflo	v1
bfc264ca:	e3a9      	addu	v0,v1,a1
bfc264cc:	a2d2      	lbu	a2,18(v0)
bfc264ce:	eeee      	xor	a2,a3
bfc264d0:	2603      	beqz	a2,bfc264d8 <get_message_loop+0x30>
bfc264d2:	b01f      	lw	s0,bfc2654c <.LBE6+0x30>
            btplay_eg_status_change_deal(&last_a2dp_status);
bfc264d4:	e840      	jalr	s0
bfc264d6:	0404      	addiu	a0,sp,16
bfc264d8:	b31e      	lw	v1,bfc26550 <.LBE6+0x34>
        }

        btplay_player_status_deal();
bfc264da:	ebc0      	jalrc	v1
bfc264dc:	b21e      	lw	v0,bfc26550 <.LBE6+0x34>

        //处理当前应用的私有消息
        result = btplay_deal_app_msg();
bfc264de:	eac0      	jalrc	v0
bfc264e0:	6702      	move	s0,v0
bfc264e2:	2a23      	bnez	v0,bfc2652a <.LBE6+0xe>
        if(result != RESULT_NULL) {
bfc264e4:	b01d      	lw	s0,bfc26558 <.LBE6+0x3c>
            break;
        }
        check_play_status();
bfc264e6:	e8c0      	jalrc	s0
bfc264e8:	b61d      	lw	a2,bfc26558 <.LBE6+0x3c>

        /*when wait_paired, and no connect_request, and not bt_front, release more os_time.*/
        if(g_p_btplay_info->status == BTPLAY_PLAY) {
bfc264ea:	b31e      	lw	v1,bfc26560 <.LBE6+0x44>
bfc264ec:	9ea0      	lw	a1,0(a2)
bfc264ee:	a5e0      	lbu	a3,0(a1)
bfc264f0:	7702      	cmpi	a3,2
bfc264f2:	6112      	btnez	bfc26518 <.LBB6>

bfc264f4 <.LBB3>:
bfc264f4:	6c01      	li	a0,1

bfc264f6 <.LBE3>:
}

///修改后台引擎状态
static inline void change_engine_state(engine_state_e engine_state)
{
bfc264f6:	9940      	lw	v0,0(s1)
            change_engine_state(ENGINE_STATE_PLAYING);

            if(g_p_bt_stack_cur_info->dev_role == TWS_SLAVE && count_free_dsp_timer_id == -1) { //多次加卸载DSP断开再回连
bfc264f8:	c381      	sb	a0,1(v1)

///修改后台引擎状态
static inline void change_engine_state(engine_state_e engine_state)
{
    g_app_info_state_all.engine_state = engine_state;
bfc264fa:	f020 a23a 	lbu	s1,58(v0)
bfc264fe:	7102      	cmpi	s1,2
bfc26500:	610d      	btnez	bfc2651c <.LBE6>
bfc26502:	b011      	lw	s0,bfc26544 <.LBE6+0x28>
bfc26504:	80e0      	lb	a3,0(s0)
bfc26506:	ebef      	not	v1,a3
bfc26508:	2b09      	bnez	v1,bfc2651c <.LBE6>
bfc2650a:	b617      	lw	a2,bfc26564 <.LBE6+0x48>
//              libc_print("free dsp deal",0,0);
                count_free_dsp_timer_id = set_app_timer(APP_TIMER_ATTRB_CONTROL, 60000, count_free_dsp_deal);
bfc2650c:	b117      	lw	s1,bfc26568 <.LBE6+0x4c>
bfc2650e:	f27d 6d00 	li	a1,60000
bfc26512:	e9c0      	jalrc	s1
bfc26514:	c040      	sb	v0,0(s0)
bfc26516:	1002      	b	bfc2651c <.LBE6>

bfc26518 <.LBB6>:
bfc26518:	6c02      	li	a0,2
}

///修改后台引擎状态
static inline void change_engine_state(engine_state_e engine_state)
{
bfc2651a:	c381      	sb	a0,1(v1)

bfc2651c <.LBE6>:
    g_app_info_state_all.engine_state = engine_state;
bfc2651c:	6d00      	li	a1,0
            }
        } else {
            change_engine_state(ENGINE_STATE_PAUSE);
        }
        //挂起10ms，多任务调度
        sys_os_time_dly(1);
bfc2651e:	b014      	lw	s0,bfc2656c <.LBE6+0x50>
bfc26520:	6c01      	li	a0,1
bfc26522:	67c5      	move	a2,a1
bfc26524:	e840      	jalr	s0
bfc26526:	6f31      	li	a3,49
bfc26528:	17c7      	b	bfc264b8 <get_message_loop+0x10>
bfc2652a:	b107      	lw	s1,bfc26544 <.LBE6+0x28>
    }

    if(count_free_dsp_timer_id != -1) {
bfc2652c:	8180      	lb	a0,0(s1)
bfc2652e:	ed8f      	not	a1,a0
bfc26530:	2505      	beqz	a1,bfc2653c <.LBE6+0x20>
bfc26532:	b210      	lw	v0,bfc26570 <.LBE6+0x54>
        kill_app_timer(count_free_dsp_timer_id);
bfc26534:	eac0      	jalrc	v0
bfc26536:	6a01      	li	v0,1
bfc26538:	ee4b      	neg	a2,v0
bfc2653a:	c1c0      	sb	a2,0(s1)
        count_free_dsp_timer_id = -1;
bfc2653c:	6750      	move	v0,s0
    }

    return result;
}
bfc2653e:	6475      	restore	40,ra,s0-s1
bfc26540:	e8a0      	jrc	ra
bfc26542:	0000      	addiu	s0,sp,0
bfc26544:	9584      	lw	a1,528(sp)
bfc26546:	9fc1      	lw	a2,4(a3)
bfc26548:	95e8      	lw	a1,928(sp)
bfc2654a:	9fc1      	lw	a2,4(a3)
bfc2654c:	6945      	li	s1,69
bfc2654e:	6006      	bteqz	bfc2655c <.LBE6+0x40>
bfc26550:	62cd      	sw	ra,820(sp)
bfc26552:	bfc2      	lwu	a2,8(a3)
bfc26554:	6019      	bteqz	bfc26588 <send_mmm_exit_cmd+0x14>
bfc26556:	bfc2      	lwu	a2,8(a3)
bfc26558:	6075      	bteqz	bfc26644 <handle_timers+0x30>
bfc2655a:	bfc2      	lwu	a2,8(a3)
bfc2655c:	95f8      	lw	a1,992(sp)
bfc2655e:	9fc1      	lw	a2,4(a3)
bfc26560:	a094      	lbu	a0,20(s0)
bfc26562:	9fc1      	lw	a2,4(a3)
bfc26564:	6801      	li	s0,1
bfc26566:	6006      	bteqz	bfc26574 <send_mmm_exit_cmd>
bfc26568:	6afd      	li	v0,253
bfc2656a:	60a2      	bteqz	bfc264b0 <get_message_loop+0x8>
bfc2656c:	6009      	bteqz	bfc26580 <send_mmm_exit_cmd+0xc>
bfc2656e:	bfc2      	lwu	a2,8(a3)
bfc26570:	6c0d      	li	a0,13
bfc26572:	60a2      	bteqz	bfc264b8 <get_message_loop+0x10>

bfc26574 <send_mmm_exit_cmd>:
bfc26574:	64e3      	save	24,ra,s0
    send_sync_msg_btmanager(NULL, &msg, NULL, 0);
}

void __section__(".text.bank2")send_mmm_exit_cmd(void)
{
bfc26576:	b521      	lw	a1,bfc265f8 <send_mmm_exit_cmd+0x84>
    if((g_p_bt_stack_cur_info->dev_role == 2) && (g_p_tws_info->sub_quit_bl_flag == 1)) {
bfc26578:	9d60      	lw	v1,0(a1)
bfc2657a:	f020 a35a 	lbu	v0,58(v1)
bfc2657e:	7202      	cmpi	v0,2
bfc26580:	610a      	btnez	bfc26596 <send_mmm_exit_cmd+0x22>
bfc26582:	b71f      	lw	a3,bfc265fc <send_mmm_exit_cmd+0x88>
bfc26584:	9f80      	lw	a0,0(a3)
bfc26586:	a4c9      	lbu	a2,9(a0)
bfc26588:	7601      	cmpi	a2,1
bfc2658a:	6105      	btnez	bfc26596 <send_mmm_exit_cmd+0x22>
bfc2658c:	b31d      	lw	v1,bfc26600 <send_mmm_exit_cmd+0x8c>
        second_empty_flag = 2;
bfc2658e:	6e02      	li	a2,2
bfc26590:	6a00      	li	v0,0
        g_p_tws_info->sub_quit_bl_flag = 0;
bfc26592:	c3c0      	sb	a2,0(v1)
bfc26594:	c449      	sb	v0,9(a0)
bfc26596:	9de0      	lw	a3,0(a1)
    }
    //主要管理从给主发卸载命令并保证接收到主卸载完中间件的命令才可以加载
    //副箱full
    if((g_p_bt_stack_cur_info->dev_role != 0)
bfc26598:	f020 a79a 	lbu	a0,58(a3)
bfc2659c:	240e      	beqz	a0,bfc265ba <send_mmm_exit_cmd+0x46>
bfc2659e:	b218      	lw	v0,bfc265fc <send_mmm_exit_cmd+0x88>
bfc265a0:	9a60      	lw	v1,0(v0)
bfc265a2:	a3a7      	lbu	a1,7(v1)
bfc265a4:	7501      	cmpi	a1,1
bfc265a6:	6006      	bteqz	bfc265b4 <send_mmm_exit_cmd+0x40>
bfc265a8:	a3ca      	lbu	a2,10(v1)
bfc265aa:	7601      	cmpi	a2,1
bfc265ac:	6003      	bteqz	bfc265b4 <send_mmm_exit_cmd+0x40>
bfc265ae:	a38b      	lbu	a0,11(v1)
bfc265b0:	7401      	cmpi	a0,1
bfc265b2:	6103      	btnez	bfc265ba <send_mmm_exit_cmd+0x46>
bfc265b4:	b713      	lw	a3,bfc26600 <send_mmm_exit_cmd+0x8c>
            && ((g_p_tws_info->sub_full_exit_flag == 1)
                || (g_p_tws_info->pri_full_exit_flag == 1)
                || (g_p_tws_info->pri_empty_exit_mmm == 1))) {

        //标志需要卸载自己的中间件命令
        second_empty_flag = 1;
bfc265b6:	6b01      	li	v1,1
bfc265b8:	c760      	sb	v1,0(a3)
bfc265ba:	b212      	lw	v0,bfc26600 <send_mmm_exit_cmd+0x8c>
    }
    //给主箱发命令
    if((second_empty_flag == 1) && (send_once_cmd == 0)) {
bfc265bc:	a2a0      	lbu	a1,0(v0)
bfc265be:	7501      	cmpi	a1,1
bfc265c0:	6109      	btnez	bfc265d4 <send_mmm_exit_cmd+0x60>
bfc265c2:	b011      	lw	s0,bfc26604 <send_mmm_exit_cmd+0x90>
bfc265c4:	a0c0      	lbu	a2,0(s0)
bfc265c6:	2e06      	bnez	a2,bfc265d4 <send_mmm_exit_cmd+0x60>
bfc265c8:	b310      	lw	v1,bfc26608 <send_mmm_exit_cmd+0x94>
        send_exit_mmm_to_other(1);
bfc265ca:	eb40      	jalr	v1
bfc265cc:	6c01      	li	a0,1
bfc265ce:	a0e0      	lbu	a3,0(s0)
        send_once_cmd++;
bfc265d0:	4781      	addiu	a0,a3,1
bfc265d2:	c080      	sb	a0,0(s0)
bfc265d4:	b50b      	lw	a1,bfc26600 <send_mmm_exit_cmd+0x8c>
        //libc_print("FF",0,0);
    }
    //保证每次只发生一个start命令给stack
    if(second_empty_flag == 0) {
bfc265d6:	a560      	lbu	v1,0(a1)
bfc265d8:	2b02      	bnez	v1,bfc265de <send_mmm_exit_cmd+0x6a>
bfc265da:	b20b      	lw	v0,bfc26604 <send_mmm_exit_cmd+0x90>
        send_once_cmd = 0;
bfc265dc:	c260      	sb	v1,0(v0)
bfc265de:	b30c      	lw	v1,bfc2660c <send_mmm_exit_cmd+0x98>
    }
    //去掉tts播报后主箱暂停通知副箱
    if(g_app_info_state_all.g_send_exit_mmm_tts == 2) {
bfc265e0:	a3c5      	lbu	a2,5(v1)
bfc265e2:	7602      	cmpi	a2,2
bfc265e4:	6107      	btnez	bfc265f4 <send_mmm_exit_cmd+0x80>
bfc265e6:	6800      	li	s0,0
        g_app_info_state_all.g_send_exit_mmm_tts = 0;
bfc265e8:	c305      	sb	s0,5(v1)
bfc265ea:	b30a      	lw	v1,bfc26610 <send_mmm_exit_cmd+0x9c>
        send_mmm_exit_cmd2(1);
bfc265ec:	eb40      	jalr	v1
bfc265ee:	6c01      	li	a0,1
bfc265f0:	b405      	lw	a0,bfc26604 <send_mmm_exit_cmd+0x90>
        send_once_cmd = 0;
bfc265f2:	c400      	sb	s0,0(a0)
bfc265f4:	6463      	restore	24,ra,s0
    }

}
bfc265f6:	e8a0      	jrc	ra
bfc265f8:	95e8      	lw	a1,928(sp)
bfc265fa:	9fc1      	lw	a2,4(a3)
bfc265fc:	95ec      	lw	a1,944(sp)
bfc265fe:	9fc1      	lw	a2,4(a3)
bfc26600:	95aa      	lw	a1,680(sp)
bfc26602:	9fc1      	lw	a2,4(a3)
bfc26604:	95ab      	lw	a1,684(sp)
bfc26606:	9fc1      	lw	a2,4(a3)
bfc26608:	6da5      	li	a1,165
bfc2660a:	6006      	bteqz	bfc26618 <handle_timers+0x4>
bfc2660c:	a094      	lbu	a0,20(s0)
bfc2660e:	9fc1      	lw	a2,4(a3)
bfc26610:	6dc5      	li	a1,197
bfc26612:	6006      	bteqz	bfc26620 <handle_timers+0xc>

bfc26614 <handle_timers>:
bfc26614:	f004 64f5 	save	a0,40,ra,s0-s1
bfc26618:	ed11      	zeb	a1
bfc2661a:	6c00      	li	a0,0
bfc2661c:	b23a      	lw	v0,bfc26704 <handle_timers+0xf0>
bfc2661e:	d504      	sw	a1,16(sp)
bfc26620:	6f1c      	li	a3,28
bfc26622:	67a4      	move	a1,a0
bfc26624:	ea40      	jalr	v0
bfc26626:	67c4      	move	a2,a0
bfc26628:	9304      	lw	v1,16(sp)
bfc2662a:	67e2      	move	a3,v0
bfc2662c:	6a00      	li	v0,0
bfc2662e:	d205      	sw	v0,20(sp)
bfc26630:	2366      	beqz	v1,bfc266fe <handle_timers+0xea>
bfc26632:	9405      	lw	a0,20(sp)
bfc26634:	930a      	lw	v1,40(sp)
bfc26636:	3290      	sll	v0,a0,4
bfc26638:	e351      	addu	a0,v1,v0
bfc2663a:	a4a0      	lbu	a1,0(a0)
bfc2663c:	6e03      	li	a2,3
bfc2663e:	edcc      	and	a1,a2
bfc26640:	7501      	cmpi	a1,1
bfc26642:	6156      	btnez	bfc266f0 <handle_timers+0xdc>
bfc26644:	b631      	lw	a2,bfc26708 <handle_timers+0xf4>
bfc26646:	a461      	lbu	v1,1(a0)
bfc26648:	a6a0      	lbu	a1,0(a2)
bfc2664a:	ed6e      	xor	a1,v1
bfc2664c:	2502      	beqz	a1,bfc26652 <handle_timers+0x3e>
bfc2664e:	73ff      	cmpi	v1,255
bfc26650:	614f      	btnez	bfc266f0 <handle_timers+0xdc>
bfc26652:	677d      	move	v1,sp
bfc26654:	a354      	lbu	v0,20(v1)
bfc26656:	b12e      	lw	s1,bfc2670c <handle_timers+0xf8>
bfc26658:	6860      	li	s0,96
bfc2665a:	c140      	sb	v0,0(s1)
bfc2665c:	a460      	lbu	v1,0(a0)
bfc2665e:	acc2      	lhu	a2,4(a0)
bfc26660:	e86c      	and	s0,v1
bfc26662:	7020      	cmpi	s0,32
bfc26664:	653e      	move	t9,a2
bfc26666:	6101      	btnez	bfc2666a <handle_timers+0x56>
bfc26668:	acc3      	lhu	a2,6(a0)
bfc2666a:	9ca2      	lw	a1,8(a0)
bfc2666c:	e7c1      	addu	s0,a3,a2
bfc2666e:	efa3      	sltu	a3,a1
bfc26670:	6900      	li	s1,0
bfc26672:	612e      	btnez	bfc266d0 <handle_timers+0xbc>
bfc26674:	6910      	li	s1,16
bfc26676:	e96c      	and	s1,v1
bfc26678:	2104      	beqz	s1,bfc26682 <handle_timers+0x6e>
bfc2667a:	6904      	li	s1,4
bfc2667c:	ea2b      	neg	v0,s1
bfc2667e:	eb4c      	and	v1,v0
bfc26680:	c460      	sb	v1,0(a0)
bfc26682:	e7af      	subu	v1,a3,a1
bfc26684:	67f9      	move	a3,t9
bfc26686:	ebe3      	sltu	v1,a3
bfc26688:	6901      	li	s1,1
bfc2668a:	6003      	bteqz	bfc26692 <handle_timers+0x7e>
bfc2668c:	e5c9      	addu	v0,a1,a2
bfc2668e:	dc42      	sw	v0,8(a0)
bfc26690:	1001      	b	bfc26694 <handle_timers+0x80>
bfc26692:	dc02      	sw	s0,8(a0)
bfc26694:	a460      	lbu	v1,0(a0)
bfc26696:	6d20      	li	a1,32
bfc26698:	ed6c      	and	a1,v1
bfc2669a:	251a      	beqz	a1,bfc266d0 <handle_timers+0xbc>
bfc2669c:	6d40      	li	a1,64
bfc2669e:	67c3      	move	a2,v1
bfc266a0:	eeac      	and	a2,a1
bfc266a2:	2605      	beqz	a2,bfc266ae <handle_timers+0x9a>
bfc266a4:	6a41      	li	v0,65
bfc266a6:	ef4b      	neg	a3,v0
bfc266a8:	ebec      	and	v1,a3
bfc266aa:	c460      	sb	v1,0(a0)
bfc266ac:	1011      	b	bfc266d0 <handle_timers+0xbc>
bfc266ae:	ebad      	or	v1,a1
bfc266b0:	c460      	sb	v1,0(a0)
bfc266b2:	a462      	lbu	v1,2(a0)
bfc266b4:	67a3      	move	a1,v1
bfc266b6:	ed11      	zeb	a1
bfc266b8:	75ff      	cmpi	a1,255
bfc266ba:	6002      	bteqz	bfc266c0 <handle_timers+0xac>
bfc266bc:	43cf      	addiu	a2,v1,-1
bfc266be:	c4c2      	sb	a2,2(a0)
bfc266c0:	a4a2      	lbu	a1,2(a0)
bfc266c2:	2d06      	bnez	a1,bfc266d0 <handle_timers+0xbc>
bfc266c4:	a420      	lbu	s1,0(a0)
bfc266c6:	6f04      	li	a3,4
bfc266c8:	ebeb      	neg	v1,a3
bfc266ca:	e96c      	and	s1,v1
bfc266cc:	c420      	sb	s1,0(a0)
bfc266ce:	6725      	move	s1,a1
bfc266d0:	9c42      	lw	v0,8(a0)
bfc266d2:	ea03      	sltu	v0,s0
bfc266d4:	6101      	btnez	bfc266d8 <handle_timers+0xc4>
bfc266d6:	dc02      	sw	s0,8(a0)
bfc266d8:	7101      	cmpi	s1,1
bfc266da:	6103      	btnez	bfc266e2 <handle_timers+0xce>
bfc266dc:	9c43      	lw	v0,12(a0)
bfc266de:	2201      	beqz	v0,bfc266e2 <handle_timers+0xce>
bfc266e0:	eac0      	jalrc	v0
bfc266e2:	6c00      	li	a0,0
bfc266e4:	b208      	lw	v0,bfc26704 <handle_timers+0xf0>
bfc266e6:	6f1c      	li	a3,28
bfc266e8:	67a4      	move	a1,a0
bfc266ea:	ea40      	jalr	v0
bfc266ec:	67c4      	move	a2,a0
bfc266ee:	67e2      	move	a3,v0
bfc266f0:	9605      	lw	a2,20(sp)
bfc266f2:	9404      	lw	a0,16(sp)
bfc266f4:	46a1      	addiu	a1,a2,1
bfc266f6:	ed11      	zeb	a1
bfc266f8:	ed83      	sltu	a1,a0
bfc266fa:	d505      	sw	a1,20(sp)
bfc266fc:	619a      	btnez	bfc26632 <handle_timers+0x1e>
bfc266fe:	6475      	restore	40,ra,s0-s1
bfc26700:	e8a0      	jrc	ra
bfc26702:	0000      	addiu	s0,sp,0
bfc26704:	6009      	bteqz	bfc26718 <get_app_msg+0x8>
bfc26706:	bfc2      	lwu	a2,8(a3)
bfc26708:	9599      	lw	a1,612(sp)
bfc2670a:	9fc1      	lw	a2,4(a3)
bfc2670c:	9598      	lw	a1,608(sp)
bfc2670e:	9fc1      	lw	a2,4(a3)

bfc26710 <get_app_msg>:
bfc26710:	64e3      	save	24,ra,s0
bfc26712:	b20b      	lw	v0,bfc2673c <get_app_msg+0x2c>
bfc26714:	6704      	move	s0,a0
bfc26716:	a2a0      	lbu	a1,0(v0)
bfc26718:	2504      	beqz	a1,bfc26722 <get_app_msg+0x12>
bfc2671a:	b60a      	lw	a2,bfc26740 <get_app_msg+0x30>
bfc2671c:	b30a      	lw	v1,bfc26744 <get_app_msg+0x34>
bfc2671e:	eb40      	jalr	v1
bfc26720:	9e80      	lw	a0,0(a2)
bfc26722:	b40a      	lw	a0,bfc26748 <get_app_msg+0x38>
bfc26724:	b20a      	lw	v0,bfc2674c <get_app_msg+0x3c>
bfc26726:	9ca0      	lw	a1,0(a0)
bfc26728:	6e00      	li	a2,0
bfc2672a:	a583      	lbu	a0,3(a1)
bfc2672c:	6f19      	li	a3,25
bfc2672e:	ea40      	jalr	v0
bfc26730:	67b0      	move	a1,s0
bfc26732:	5a01      	sltiu	v0,1
bfc26734:	6758      	move	v0,t8
bfc26736:	6463      	restore	24,ra,s0
bfc26738:	e8a0      	jrc	ra
bfc2673a:	0000      	addiu	s0,sp,0
bfc2673c:	95a4      	lw	a1,656(sp)
bfc2673e:	9fc1      	lw	a2,4(a3)
bfc26740:	9594      	lw	a1,592(sp)
bfc26742:	9fc1      	lw	a2,4(a3)
bfc26744:	6615      	0x6615
bfc26746:	bfc2      	lwu	a2,8(a3)
bfc26748:	959c      	lw	a1,624(sp)
bfc2674a:	9fc1      	lw	a2,4(a3)
bfc2674c:	6009      	bteqz	bfc26760 <get_app_msg+0x50>
bfc2674e:	bfc2      	lwu	a2,8(a3)
Disassembly of section BANK_CONTROL_1_0:

60026800 <process_start>:
60026800:	64d4      	save	32,ra,s1
60026802:	0104      	addiu	s1,sp,16
60026804:	d984      	sw	a0,16(s1)
60026806:	9944      	lw	v0,16(s1)
60026808:	6782      	move	a0,v0
6002680a:	6d00      	li	a1,0
6002680c:	b207      	lw	v0,60026828 <BANK_CONTROL_1_ADDR_BASE+0x28>
6002680e:	eac0      	jalrc	v0
60026810:	c140      	sb	v0,0(s1)
60026812:	8140      	lb	v0,0(s1)
60026814:	6782      	move	a0,v0
60026816:	6d00      	li	a1,0
60026818:	6e00      	li	a2,0
6002681a:	6f0e      	li	a3,14
6002681c:	b204      	lw	v0,6002682c <BANK_CONTROL_1_ADDR_BASE+0x2c>
6002681e:	eac0      	jalrc	v0
60026820:	6a00      	li	v0,0
60026822:	65b9      	move	sp,s1
60026824:	6452      	restore	16,ra,s1
60026826:	e8a0      	jrc	ra
60026828:	68cd      	li	s0,205
6002682a:	6002      	bteqz	60026830 <__start>
6002682c:	6005      	bteqz	60026838 <__start+0x8>
6002682e:	bfc2      	lwu	a2,8(a3)

60026830 <__start>:
60026830:	64d6      	save	48,ra,s1
60026832:	0104      	addiu	s1,sp,16
60026834:	d988      	sw	a0,32(s1)
60026836:	d9a9      	sw	a1,36(s1)
60026838:	6c00      	li	a0,0
6002683a:	6d00      	li	a1,0
6002683c:	6e00      	li	a2,0
6002683e:	6f10      	li	a3,16
60026840:	b220      	lw	v0,600268c0 <__start+0x90>
60026842:	eac0      	jalrc	v0
60026844:	c150      	sb	v0,16(s1)
60026846:	8170      	lb	v1,16(s1)
60026848:	6a01      	li	v0,1
6002684a:	ea4b      	neg	v0
6002684c:	ea6e      	xor	v0,v1
6002684e:	5a01      	sltiu	v0,1
60026850:	6004      	bteqz	6002685a <__start+0x2a>
60026852:	6a01      	li	v0,1
60026854:	ea4b      	neg	v0
60026856:	d945      	sw	v0,20(s1)
60026858:	102e      	b	600268b6 <__start+0x86>
6002685a:	b21b      	lw	v0,600268c4 <__start+0x94>
6002685c:	d940      	sw	v0,0(s1)
6002685e:	9948      	lw	v0,32(s1)
60026860:	d941      	sw	v0,4(s1)
60026862:	9949      	lw	v0,36(s1)
60026864:	9a41      	lw	v0,4(v0)
60026866:	d942      	sw	v0,8(s1)
60026868:	9949      	lw	v0,36(s1)
6002686a:	aa41      	lhu	v0,2(v0)
6002686c:	c946      	sh	v0,12(s1)
6002686e:	6c00      	li	a0,0
60026870:	6d00      	li	a1,0
60026872:	6e00      	li	a2,0
60026874:	6f33      	li	a3,51
60026876:	b215      	lw	v0,600268c8 <__start+0x98>
60026878:	eac0      	jalrc	v0
6002687a:	9949      	lw	v0,36(s1)
6002687c:	aa40      	lhu	v0,0(v0)
6002687e:	8170      	lb	v1,16(s1)
60026880:	6791      	move	a0,s1
60026882:	67a2      	move	a1,v0
60026884:	67c3      	move	a2,v1
60026886:	6f4a      	li	a3,74
60026888:	b210      	lw	v0,600268c8 <__start+0x98>
6002688a:	eac0      	jalrc	v0
6002688c:	5200      	slti	v0,0
6002688e:	6011      	bteqz	600268b2 <__start+0x82>
60026890:	8150      	lb	v0,16(s1)
60026892:	6782      	move	a0,v0
60026894:	6d00      	li	a1,0
60026896:	6e00      	li	a2,0
60026898:	6f11      	li	a3,17
6002689a:	b20a      	lw	v0,600268c0 <__start+0x90>
6002689c:	eac0      	jalrc	v0
6002689e:	6c00      	li	a0,0
600268a0:	6d00      	li	a1,0
600268a2:	6e00      	li	a2,0
600268a4:	6f34      	li	a3,52
600268a6:	b209      	lw	v0,600268c8 <__start+0x98>
600268a8:	eac0      	jalrc	v0
600268aa:	6a01      	li	v0,1
600268ac:	ea4b      	neg	v0
600268ae:	d945      	sw	v0,20(s1)
600268b0:	1002      	b	600268b6 <__start+0x86>
600268b2:	6a00      	li	v0,0
600268b4:	d945      	sw	v0,20(s1)
600268b6:	9945      	lw	v0,20(s1)
600268b8:	65b9      	move	sp,s1
600268ba:	6454      	restore	32,ra,s1
600268bc:	e8a0      	jrc	ra
600268be:	0000      	addiu	s0,sp,0
600268c0:	6005      	bteqz	600268cc <main>
600268c2:	bfc2      	lwu	a2,8(a3)
600268c4:	6801      	li	s0,1
600268c6:	6002      	bteqz	600268cc <main>
600268c8:	6009      	bteqz	600268dc <.LBB2+0xe>
600268ca:	bfc2      	lwu	a2,8(a3)

600268cc <main>:
600268cc:	64f4      	save	32,ra,s0-s1

600268ce <.LBB2>:
 * \endcode
 * \note
 *******************************************************************************/
int main(int argc, const char *argv[])
{
600268ce:	b085      	lw	s0,60026ae0 <.LBE12+0xb0>
600268d0:	6c00      	li	a0,0
600268d2:	6b01      	li	v1,1
600268d4:	eb6b      	neg	v1
600268d6:	b184      	lw	s1,60026ae4 <.LBE12+0xb4>
600268d8:	c080      	sb	a0,0(s0)
600268da:	c081      	sb	a0,1(s0)
600268dc:	6cff      	li	a0,255
600268de:	c064      	sb	v1,4(s0)
600268e0:	e940      	jalr	s1
600268e2:	4c61      	addiu	a0,97
600268e4:	6cff      	li	a0,255
600268e6:	c045      	sb	v0,5(s0)
600268e8:	e940      	jalr	s1
600268ea:	4c62      	addiu	a0,98
600268ec:	6cff      	li	a0,255
600268ee:	c046      	sb	v0,6(s0)
600268f0:	e940      	jalr	s1
600268f2:	4c63      	addiu	a0,99
600268f4:	6cff      	li	a0,255
600268f6:	c047      	sb	v0,7(s0)
600268f8:	e940      	jalr	s1
600268fa:	4c64      	addiu	a0,100
600268fc:	f1a0 6c07 	li	a0,423
60026900:	e940      	jalr	s1
60026902:	c048      	sb	v0,8(s0)
60026904:	6cff      	li	a0,255
60026906:	c049      	sb	v0,9(s0)
60026908:	e940      	jalr	s1
6002690a:	4c65      	addiu	a0,101
6002690c:	6cff      	li	a0,255
6002690e:	c04a      	sb	v0,10(s0)
60026910:	e940      	jalr	s1
60026912:	4c66      	addiu	a0,102
60026914:	c04b      	sb	v0,11(s0)
60026916:	6c00      	li	a0,0
60026918:	b075      	lw	s0,60026aec <.LBE12+0xbc>
6002691a:	67c4      	move	a2,a0
6002691c:	67a4      	move	a1,a0
6002691e:	e840      	jalr	s0
60026920:	6f49      	li	a3,73
60026922:	67c2      	move	a2,v0
60026924:	b271      	lw	v0,60026ae8 <.LBE12+0xb8>
60026926:	dac0      	sw	a2,0(v0)
60026928:	2e05      	bnez	a2,60026934 <.LBB2+0x66>
6002692a:	0c44      	la	a0,60026a38 <.LBE12+0x8>
6002692c:	67a6      	move	a1,a2
6002692e:	e840      	jalr	s0
60026930:	6f4b      	li	a3,75
60026932:	17ff      	b	60026932 <.LBB2+0x64>
60026934:	6d00      	li	a1,0
60026936:	b06e      	lw	s0,60026aec <.LBE12+0xbc>
60026938:	67c5      	move	a2,a1
6002693a:	6c01      	li	a0,1
6002693c:	e840      	jalr	s0
6002693e:	6f49      	li	a3,73
60026940:	b66c      	lw	a2,60026af0 <.LBE12+0xc0>
60026942:	6d00      	li	a1,0
60026944:	de40      	sw	v0,0(a2)
60026946:	6c06      	li	a0,6
60026948:	67c5      	move	a2,a1
6002694a:	e840      	jalr	s0
6002694c:	6f49      	li	a3,73
6002694e:	b56a      	lw	a1,60026af4 <.LBE12+0xc4>
60026950:	67c2      	move	a2,v0
60026952:	dd40      	sw	v0,0(a1)
60026954:	2a05      	bnez	v0,60026960 <.LBB2+0x92>
60026956:	0c41      	la	a0,60026a58 <.LBE12+0x28>
60026958:	67a2      	move	a1,v0
6002695a:	e840      	jalr	s0
6002695c:	6f4b      	li	a3,75
6002695e:	17ff      	b	6002695e <.LBB2+0x90>
60026960:	b764      	lw	a3,60026af0 <.LBE12+0xc0>
60026962:	9fc0      	lw	a2,0(a3)
60026964:	2e06      	bnez	a2,60026972 <.LBB2+0xa4>
60026966:	b262      	lw	v0,60026aec <.LBE12+0xbc>
60026968:	0c44      	la	a0,60026a78 <.LBE12+0x48>
6002696a:	67a6      	move	a1,a2
6002696c:	ea40      	jalr	v0
6002696e:	6f4b      	li	a3,75
60026970:	17ff      	b	60026970 <.LBB2+0xa2>
60026972:	b062      	lw	s0,60026af8 <.LBE12+0xc8>
60026974:	b462      	lw	a0,60026afc <.LBE12+0xcc>
60026976:	6d18      	li	a1,24
60026978:	d880      	sw	a0,0(s0)
6002697a:	f020 a6f4 	lbu	a3,52(a2)
6002697e:	efb8      	mult	a3,a1
60026980:	eb12      	mflo	v1
60026982:	e3c5      	addu	s1,v1,a2
60026984:	a152      	lbu	v0,18(s1)
60026986:	2201      	beqz	v0,6002698a <.LBB2+0xbc>
60026988:	6a01      	li	v0,1
6002698a:	98a0      	lw	a1,0(s0)
6002698c:	b158      	lw	s1,60026aec <.LBE12+0xbc>
6002698e:	c440      	sb	v0,0(a0)
60026990:	6e04      	li	a2,4
60026992:	6c10      	li	a0,16
60026994:	e940      	jalr	s1
60026996:	6f43      	li	a3,67
60026998:	d840      	sw	v0,0(s0)
6002699a:	2a06      	bnez	v0,600269a8 <.LBB2+0xda>
6002699c:	0c40      	la	a0,60026a9c <.LBE12+0x6c>
6002699e:	67a2      	move	a1,v0
600269a0:	67c2      	move	a2,v0
600269a2:	e940      	jalr	s1
600269a4:	6f4b      	li	a3,75
600269a6:	17ff      	b	600269a6 <.LBB2+0xd8>
600269a8:	6d00      	li	a1,0
600269aa:	b051      	lw	s0,60026aec <.LBE12+0xbc>
600269ac:	6c03      	li	a0,3
600269ae:	67c5      	move	a2,a1
600269b0:	e840      	jalr	s0
600269b2:	6f49      	li	a3,73
600269b4:	b453      	lw	a0,60026b00 <.LBE12+0xd0>
600269b6:	67c2      	move	a2,v0
600269b8:	dc41      	sw	v0,4(a0)
600269ba:	2a05      	bnez	v0,600269c6 <.LBE4>
600269bc:	0c42      	la	a0,60026ac4 <.LBE12+0x94>
600269be:	67a2      	move	a1,v0
600269c0:	e840      	jalr	s0
600269c2:	6f4b      	li	a3,75
600269c4:	17ff      	b	600269c4 <.LBB2+0xf6>

600269c6 <.LBE4>:
600269c6:	b050      	lw	s0,60026b04 <.LBE12+0xd4>
600269c8:	6c10      	li	a0,16
600269ca:	e840      	jalr	s0
600269cc:	6d02      	li	a1,2
600269ce:	b44d      	lw	a0,60026b00 <.LBE12+0xd0>
600269d0:	b24e      	lw	v0,60026b08 <.LBE12+0xd8>
600269d2:	6d03      	li	a1,3
600269d4:	ea40      	jalr	v0
600269d6:	4c08      	addiu	a0,8
600269d8:	b04d      	lw	s0,60026b0c <.LBE12+0xdc>
600269da:	e8c0      	jalrc	s0
600269dc:	b04d      	lw	s0,60026b0c <.LBE12+0xdc>
600269de:	e840      	jalr	s0
600269e0:	6c80      	li	a0,128

600269e2 <.LBB6>:
600269e2:	b54d      	lw	a1,60026b14 <.LBE12+0xe4>

600269e4 <.LBE2>:

///修改后台引擎状态
static inline void change_engine_state(engine_state_e engine_state)
{
    g_app_info_state_all.engine_state = engine_state;
600269e4:	b243      	lw	v0,60026af0 <.LBE12+0xc0>
    app_result_e result = RESULT_NULL;

    /*ap初始化*/
    _app_init();

    //解除过滤
#ifdef ENABLE_TRUE_WIRELESS_STEREO
    if((g_p_bt_stack_cur_info->dev_role == TWS_MASTER) && ((g_p_bt_stack_cur_info->tws_master_phonecon == 0)
600269e6:	6b02      	li	v1,2
}

///修改后台引擎状态
static inline void change_engine_state(engine_state_e engine_state)
{
600269e8:	c561      	sb	v1,1(a1)
    g_app_info_state_all.engine_state = engine_state;
600269ea:	9a60      	lw	v1,0(v0)
600269ec:	f020 a3da 	lbu	a2,58(v1)
600269f0:	7601      	cmpi	a2,1
600269f2:	6108      	btnez	60026a04 <.LBE2+0x20>
600269f4:	f040 a3e1 	lbu	a3,65(v1)
600269f8:	2707      	beqz	a3,60026a08 <.LBE2+0x24>
600269fa:	b53f      	lw	a1,60026af4 <.LBE12+0xc4>
600269fc:	9dc0      	lw	a2,0(a1)
600269fe:	a689      	lbu	a0,9(a2)
60026a00:	7401      	cmpi	a0,1
60026a02:	6002      	bteqz	60026a08 <.LBE2+0x24>
60026a04:	e840      	jalr	s0
            || (g_p_tws_info->sub_quit_bl_flag == 1))) {
        //当切应用回连，保证丢数
    } else
#endif
    {
        btplay_engine_pipe_control(PIPE_OP_UNFILTER | PIPE_OP_FLUSH);
60026a06:	6c82      	li	a0,130
60026a08:	b044      	lw	s0,60026b18 <.LBE12+0xe8>
    }

    result = get_message_loop();
60026a0a:	e8c0      	jalrc	s0
60026a0c:	b63a      	lw	a2,60026af0 <.LBE12+0xc0>

#ifdef ENABLE_TRUE_WIRELESS_STEREO
    g_p_tws_info->pri_pause_flag = 0;
60026a0e:	6c00      	li	a0,0
60026a10:	9ee0      	lw	a3,0(a2)
60026a12:	6d00      	li	a1,0
#endif

    //销毁共享查询
    if(sys_share_query_destroy(APP_ID_BTPLAYEG) == -1) {
60026a14:	6702      	move	s0,v0
60026a16:	b236      	lw	v0,60026aec <.LBE12+0xbc>
60026a18:	c784      	sb	a0,4(a3)
60026a1a:	67c5      	move	a2,a1
60026a1c:	6c10      	li	a0,16
60026a1e:	ea40      	jalr	v0
60026a20:	6f44      	li	a3,68
60026a22:	eb4f      	not	v1,v0
60026a24:	2b01      	bnez	v1,60026a28 <.LBB12>
60026a26:	17ff      	b	60026a26 <.LBE2+0x42>

60026a28 <.LBB12>:
        // PRINT_ERR("btcall share query destroy fail!!");
        while(1) {
60026a28:	b23d      	lw	v0,60026b1c <.LBE12+0xec>
60026a2a:	eac0      	jalrc	v0

60026a2c <.LBB14>:
60026a2c:	b53a      	lw	a1,60026b10 <.LBE12+0xe0>

///修改后台引擎状态
static inline void change_engine_state(engine_state_e engine_state)
{
    g_app_info_state_all.engine_state = engine_state;
60026a2e:	6b02      	li	v1,2

60026a30 <.LBE12>:
60026a30:	6750      	move	v0,s0
            ; //nothing for QAC
        }
    }


    _app_exit();
    return result;
}
60026a32:	c561      	sb	v1,1(a1)

///修改后台引擎状态
static inline void change_engine_state(engine_state_e engine_state)
{
    g_app_info_state_all.engine_state = engine_state;
60026a34:	6474      	restore	32,ra,s0-s1
60026a36:	e8a0      	jrc	ra
60026a38:	453c      	daddiu	s1,a1,-4
60026a3a:	203e      	beqz	s0,60026ab8 <.LBE12+0x88>
60026a3c:	7462      	cmpi	a0,98
60026a3e:	6c70      	li	a0,112
60026a40:	7961      	sd	v1,8(s1)
60026a42:	7020      	cmpi	s0,32
60026a44:	7069      	cmpi	s0,105
60026a46:	2065      	beqz	s0,60026b12 <.LBE12+0xe2>
60026a48:	6873      	li	s0,115
60026a4a:	206d      	beqz	s0,60026b26 <.LBE12+0xf6>
60026a4c:	6f6e      	li	a3,110
60026a4e:	2074      	beqz	s0,60026b38 <.LBE12+0x108>
60026a50:	7865      	sd	v1,40(s0)
60026a52:	7369      	cmpi	v1,105
60026a54:	2174      	beqz	s1,60026b3e <.LBE12+0x10e>
60026a56:	0021      	addiu	s0,sp,132
60026a58:	453c      	daddiu	s1,a1,-4
60026a5a:	203e      	beqz	s0,60026ad8 <.LBE12+0xa8>
60026a5c:	7774      	cmpi	a3,116
60026a5e:	5f73      	sltiu	a3,115
60026a60:	6e69      	li	a2,105
60026a62:	6f66      	li	a3,102
60026a64:	7320      	cmpi	v1,32
60026a66:	6d68      	li	a1,104
60026a68:	6e20      	li	a2,32
60026a6a:	746f      	cmpi	a0,111
60026a6c:	6520      	move	at,s0
60026a6e:	6978      	li	s1,120
60026a70:	7473      	cmpi	a0,115
60026a72:	2121      	beqz	s1,60026ab6 <.LBE12+0x86>
60026a74:	0000      	addiu	s0,sp,0
60026a76:	0000      	addiu	s0,sp,0
60026a78:	453c      	daddiu	s1,a1,-4
60026a7a:	203e      	beqz	s0,60026af8 <.LBE12+0xc8>
60026a7c:	7462      	cmpi	a0,98
60026a7e:	7473      	cmpi	a0,115
60026a80:	6361      	addiu	sp,776
60026a82:	206b      	beqz	s0,60026b5a <.LBE12+0x12a>
60026a84:	7473      	cmpi	a0,115
60026a86:	7461      	cmpi	a0,97
60026a88:	7375      	cmpi	v1,117
60026a8a:	7320      	cmpi	v1,32
60026a8c:	6d68      	li	a1,104
60026a8e:	6e20      	li	a2,32
60026a90:	746f      	cmpi	a0,111
60026a92:	6520      	move	at,s0
60026a94:	6978      	li	s1,120
60026a96:	7473      	cmpi	a0,115
60026a98:	2121      	beqz	s1,60026adc <.LBE12+0xac>
60026a9a:	0000      	addiu	s0,sp,0
60026a9c:	453c      	daddiu	s1,a1,-4
60026a9e:	203e      	beqz	s0,60026b1c <.LBE12+0xec>
60026aa0:	7462      	cmpi	a0,98
60026aa2:	6c70      	li	a0,112
60026aa4:	7961      	sd	v1,8(s1)
60026aa6:	7320      	cmpi	v1,32
60026aa8:	6168      	btnez	60026b7a <.LBE12+0x14a>
60026aaa:	6572      	move	s3,v0
60026aac:	7120      	cmpi	s1,32
60026aae:	6575      	move	s3,a1
60026ab0:	7972      	sd	v1,144(s1)
60026ab2:	6320      	addiu	sp,256
60026ab4:	6572      	move	s3,v0
60026ab6:	7461      	cmpi	a0,97
60026ab8:	2065      	beqz	s0,60026b84 <.LBE12+0x154>
60026aba:	6166      	btnez	60026b88 <.LBE12+0x158>
60026abc:	6c69      	li	a0,105
60026abe:	2121      	beqz	s1,60026b02 <.LBE12+0xd2>
60026ac0:	0000      	addiu	s0,sp,0
60026ac2:	0000      	addiu	s0,sp,0
60026ac4:	453c      	daddiu	s1,a1,-4
60026ac6:	203e      	beqz	s0,60026b44 <.LBE12+0x114>
60026ac8:	6164      	btnez	60026b92 <.LBE12+0x162>
60026aca:	5f65      	sltiu	a3,101
60026acc:	6663      	0x6663
60026ace:	2067      	beqz	s0,60026b9e <.LBE12+0x16e>
60026ad0:	6873      	li	s0,115
60026ad2:	206d      	beqz	s0,60026bae <.LBE12+0x17e>
60026ad4:	6f6e      	li	a3,110
60026ad6:	2074      	beqz	s0,60026bc0 <.LBE12+0x190>
60026ad8:	7865      	sd	v1,40(s0)
60026ada:	7369      	cmpi	v1,105
60026adc:	2174      	beqz	s1,60026bc6 <.LBE12+0x196>
60026ade:	0021      	addiu	s0,sp,132
60026ae0:	9604      	lw	a2,16(sp)
60026ae2:	9fc1      	lw	a2,4(a3)
60026ae4:	68bd      	li	s0,189
60026ae6:	60a6      	bteqz	60026a34 <.LBE12+0x4>
60026ae8:	95e4      	lw	a1,912(sp)
60026aea:	9fc1      	lw	a2,4(a3)
60026aec:	6009      	bteqz	60026b00 <.LBE12+0xd0>
60026aee:	bfc2      	lwu	a2,8(a3)
60026af0:	95e8      	lw	a1,928(sp)
60026af2:	9fc1      	lw	a2,4(a3)
60026af4:	95ec      	lw	a1,944(sp)
60026af6:	9fc1      	lw	a2,4(a3)
60026af8:	95f8      	lw	a1,992(sp)
60026afa:	9fc1      	lw	a2,4(a3)
60026afc:	95f0      	lw	a1,960(sp)
60026afe:	9fc1      	lw	a2,4(a3)
60026b00:	95a8      	lw	a1,672(sp)
60026b02:	9fc1      	lw	a2,4(a3)
60026b04:	6861      	li	s0,97
60026b06:	60a2      	bteqz	60026a4c <.LBE12+0x1c>
60026b08:	6c41      	li	a0,65
60026b0a:	60a2      	bteqz	60026a50 <.LBE12+0x20>
60026b0c:	6cc9      	li	a0,201
60026b0e:	60a2      	bteqz	60026a54 <.LBE12+0x24>
60026b10:	6881      	li	s0,129
60026b12:	6006      	bteqz	60026b20 <.LBE12+0xf0>
60026b14:	a094      	lbu	a0,20(s0)
60026b16:	9fc1      	lw	a2,4(a3)
60026b18:	64a9      	save	72,s0
60026b1a:	bfc2      	lwu	a2,8(a3)
60026b1c:	6951      	li	s1,81
60026b1e:	60a2      	bteqz	60026a64 <.LBE12+0x34>
Disassembly of section BANK_CONTROL_1_1:

60066800 <count_free_dsp_deal>:
60066800:	64e7      	save	56,ra,s0

static uint8 count_free_dsp_timer = 0;

void count_free_dsp_deal(void)
{
60066802:	b31b      	lw	v1,6006686c <count_free_dsp_deal+0x6c>
    uint16 dec_slow_times, dsp_free_times;
    msg_apps_t msg;
    btstack_event_t tmp_ev;
    int times = 0;
    int ret;

    //两分钟进入一次统计分析dsp卸载次数和出现dsp dec slow次数
    count_free_dsp_timer++;
60066804:	6800      	li	s0,0
60066806:	d00a      	sw	s0,40(sp)
60066808:	a380      	lbu	a0,0(v1)
6006680a:	4441      	addiu	v0,a0,1
6006680c:	c340      	sb	v0,0(v1)
6006680e:	ea11      	zeb	v0
    if(count_free_dsp_timer < 2) {
60066810:	5a02      	sltiu	v0,2
60066812:	6123      	btnez	6006685a <count_free_dsp_deal+0x5a>
60066814:	c300      	sb	s0,0(v1)
        return;
    } else {
        count_free_dsp_timer = 0;
60066816:	b317      	lw	v1,60066870 <count_free_dsp_deal+0x70>
    }

    if(mp_handle == NULL) {
60066818:	9b80      	lw	a0,0(v1)
6006681a:	241f      	beqz	a0,6006685a <count_free_dsp_deal+0x5a>
6006681c:	b216      	lw	v0,60066874 <count_free_dsp_deal+0x74>
        return;
    }

    mmm_bp_cmd(mp_handle, MMM_BP_GET_ERRORNO, (unsigned int) &times);
6006681e:	6d0a      	li	a1,10
60066820:	ea40      	jalr	v0
60066822:	060a      	addiu	a2,sp,40
60066824:	950a      	lw	a1,40(sp)
    libc_print("free times:", times, 2);
60066826:	b215      	lw	v0,60066878 <count_free_dsp_deal+0x78>
60066828:	0c0e      	la	a0,60066860 <count_free_dsp_deal+0x60>
6006682a:	6e02      	li	a2,2
6006682c:	ea40      	jalr	v0
6006682e:	6f4b      	li	a3,75
60066830:	970a      	lw	a3,40(sp)
    dsp_free_times = times & 0xffff;
60066832:	6787      	move	a0,a3
60066834:	ec31      	zeh	a0
60066836:	36e2      	srl	a2,a3,8
    dec_slow_times = (times >> 16) & 0xffff;
60066838:	33c2      	srl	v1,a2,8
6006683a:	3584      	sll	a1,a0,1

    if((dec_slow_times > (dsp_free_times * 2)) && (dec_slow_times >= DEC_SLOW_TIMES_DEFAULT)
6006683c:	ed62      	slt	a1,v1
6006683e:	600d      	bteqz	6006685a <count_free_dsp_deal+0x5a>
60066840:	5b0f      	sltiu	v1,15
60066842:	610b      	btnez	6006685a <count_free_dsp_deal+0x5a>
60066844:	5c06      	sltiu	a0,6
60066846:	6109      	btnez	6006685a <count_free_dsp_deal+0x5a>
60066848:	f001 6c17 	li	a0,2071
            && (dsp_free_times >= DSP_FREE_TIMES_DEFAULT)) {
        //消息类型(即消息名称)
        msg.type = MSG_ENGINE_FORCE_UNLINK;
6006684c:	b20c      	lw	v0,6006687c <count_free_dsp_deal+0x7c>
        //发送同步消息
        send_sync_msg_btmanager(NULL, &msg, NULL, 0);
6006684e:	d404      	sw	a0,16(sp)
60066850:	0504      	addiu	a1,sp,16
60066852:	6790      	move	a0,s0
60066854:	67d0      	move	a2,s0
60066856:	ea40      	jalr	v0
60066858:	67f0      	move	a3,s0
6006685a:	6467      	restore	56,ra,s0
    } else {
        return;
    }
}
6006685c:	e8a0      	jrc	ra
6006685e:	0000      	addiu	s0,sp,0
60066860:	7266      	cmpi	v0,102
60066862:	6565      	move	v1,a1
60066864:	7420      	cmpi	a0,32
60066866:	6d69      	li	a1,105
60066868:	7365      	cmpi	v1,101
6006686a:	003a      	addiu	s0,sp,232
6006686c:	9618      	lw	a2,96(sp)
6006686e:	9fc1      	lw	a2,4(a3)
60066870:	9614      	lw	a2,80(sp)
60066872:	9fc1      	lw	a2,4(a3)
60066874:	6015      	bteqz	600668a0 <tws_sync_cmd_parase>
60066876:	bfc2      	lwu	a2,8(a3)
60066878:	6009      	bteqz	6006688c <btplay_engine_pipe_control+0xc>
6006687a:	bfc2      	lwu	a2,8(a3)
6006687c:	6ce9      	li	a0,233
6006687e:	60a2      	bteqz	600667c4 <.LBE12+0x3fd94>

60066880 <btplay_engine_pipe_control>:
60066880:	64c4      	save	32,ra

void btplay_engine_pipe_control(uint8 op)
{
60066882:	67bd      	move	a1,sp
    msg_apps_t msg;
    msg.content.data[0] = op;
60066884:	c594      	sb	a0,20(a1)
60066886:	f001 6b0e 	li	v1,2062
    //消息类型(即消息名称)
    msg.type = MSG_BTSTACK_PLAY_PIPE_CTRL_SYNC;
6006688a:	6c00      	li	a0,0

    //发送同步消息
    send_sync_msg_btmanager(NULL, &msg, NULL, 0);
6006688c:	b204      	lw	v0,6006689c <btplay_engine_pipe_control+0x1c>
6006688e:	d304      	sw	v1,16(sp)
60066890:	0504      	addiu	a1,sp,16
60066892:	67c4      	move	a2,a0
60066894:	ea40      	jalr	v0
60066896:	67e4      	move	a3,a0
60066898:	6444      	restore	32,ra
6006689a:	e8a0      	jrc	ra
6006689c:	6ce9      	li	a0,233
6006689e:	60a2      	bteqz	600667e4 <.LBE12+0x3fdb4>

600668a0 <tws_sync_cmd_parase>:
600668a0:	64e3      	save	24,ra,s0
}

void tws_sync_cmd_parase(void)
{
600668a2:	b411      	lw	a0,600668e4 <tws_sync_cmd_parase+0x44>
    switch(g_p_tws_info->tws_sync_cmd) {
600668a4:	9c60      	lw	v1,0(a0)
600668a6:	a34c      	lbu	v0,12(v1)
600668a8:	7205      	cmpi	v0,5
600668aa:	6112      	btnez	600668d0 <tws_sync_cmd_parase+0x30>
600668ac:	b00a      	lw	s0,600668d4 <tws_sync_cmd_parase+0x34>
        case TWS_MASTER_SMART_MODE :
            //libc_print("slave exit play", 0, 0);
            btplay_engine_pipe_control(PIPE_OP_FLUSH | PIPE_OP_FILTER);
600668ae:	e840      	jalr	s0
600668b0:	6c81      	li	a0,129
600668b2:	b30a      	lw	v1,600668d8 <tws_sync_cmd_parase+0x38>
            a2dp_decode_quit();
600668b4:	ebc0      	jalrc	v1
600668b6:	b20a      	lw	v0,600668dc <tws_sync_cmd_parase+0x3c>
            //btplayeg_enter_speech_mode();
            //smart_enter_speech_mode(&btplay_gl_var.speech_flag);
            a2dp_decode_init(g_p_bt_stack_cur_info->rmt_dev[g_p_bt_stack_cur_info->a2dp_active_id].a2dp_attr.media_type);
600668b8:	6b18      	li	v1,24
600668ba:	9ac0      	lw	a2,0(v0)
600668bc:	b209      	lw	v0,600668e0 <tws_sync_cmd_parase+0x40>
600668be:	f020 a694 	lbu	a0,52(a2)
600668c2:	ec78      	mult	a0,v1
600668c4:	ef12      	mflo	a3
600668c6:	e7d5      	addu	a1,a3,a2
600668c8:	ea40      	jalr	v0
600668ca:	a58b      	lbu	a0,11(a1)
600668cc:	e840      	jalr	s0
            btplay_engine_pipe_control(PIPE_OP_UNFILTER);
600668ce:	6c02      	li	a0,2
600668d0:	6463      	restore	24,ra,s0
            //btplayeg_exit_speech_mode();
            //smart_exit_speech_mode(&btplay_gl_var.speech_flag);
            break;

        case TWS_MASTER_EXIT_SMART_MODE:
            //libc_print("slave enter play", 0, 0);
            //a2dp_decode_init();
            //btplay_engine_pipe_control(PIPE_OP_UNFILTER);
            //btplayeg_exit_speech_mode();
            //smart_exit_speech_mode(&btplay_gl_var.speech_flag);
            break;

        default:
            break;
    }
}
600668d2:	e8a0      	jrc	ra
600668d4:	6881      	li	s0,129
600668d6:	6006      	bteqz	600668e4 <tws_sync_cmd_parase+0x44>
600668d8:	6c81      	li	a0,129
600668da:	6006      	bteqz	600668e8 <btplay_reply_msg>
600668dc:	95e8      	lw	a1,928(sp)
600668de:	9fc1      	lw	a2,4(a3)
600668e0:	6a1d      	li	v0,29
600668e2:	6006      	bteqz	600668f0 <btplay_reply_msg+0x8>
600668e4:	95ec      	lw	a1,944(sp)
600668e6:	9fc1      	lw	a2,4(a3)

600668e8 <btplay_reply_msg>:
600668e8:	64c3      	save	24,ra

/******************************************************************************/
/*!
 * \par  Description:
 * \app_result_e btplay_reply_msg(void* msg_ptr, bool ret_vals)
 * \回复同步消息
 * \param[in]    void  msg_ptr 消息结构体
 * \param[in]    bool  ret_vals 相关事件处理结果 TRUE 成功 FALSE 失败
 * \param[out]   none
 * \return       app_result_E
 * \retval       RESULT_IGNOR 忽略
 * \ingroup      mengine_control.c
 * \note  回复消息时，根据ret_vals的结果，设置应答成功或失败
 */
/*******************************************************************************/
void btplay_reply_msg(void *msg_ptr, bool ret_vals)
{
600668ea:	ed11      	zeb	a1
600668ec:	7501      	cmpi	a1,1
    //消息指针
    private_msg_t *data_ptr = (private_msg_t *) msg_ptr;

    if(ret_vals == TRUE) {
600668ee:	9c63      	lw	v1,12(a0)
600668f0:	6a01      	li	v0,1
        data_ptr->reply->type = MSG_REPLY_SUCCESS;
600668f2:	6001      	bteqz	600668f6 <btplay_reply_msg+0xe>
600668f4:	6a02      	li	v0,2
    } else {
        data_ptr->reply->type = MSG_REPLY_FAILED;
600668f6:	c340      	sb	v0,0(v1)
600668f8:	6d00      	li	a1,0
    }

    //回复同步消息(发送信号量)
    libc_sem_post(data_ptr->sem);
600668fa:	9c82      	lw	a0,8(a0)
600668fc:	b203      	lw	v0,60066908 <btplay_reply_msg+0x20>
600668fe:	67c5      	move	a2,a1
60066900:	ea40      	jalr	v0
60066902:	6f16      	li	a3,22
60066904:	6443      	restore	24,ra

    return;
60066906:	e8a0      	jrc	ra
60066908:	6005      	bteqz	60066914 <app_msg_deal_app_quit+0x8>
6006690a:	bfc2      	lwu	a2,8(a3)

6006690c <app_msg_deal_app_quit>:
6006690c:	64e3      	save	24,ra,s0
}

app_result_e app_msg_deal_app_quit(void)
{
6006690e:	b00a      	lw	s0,60066934 <app_msg_deal_app_quit+0x28>
    // libc_print("G3",0,0);
    btplay_engine_pipe_control(PIPE_OP_FILTER | PIPE_OP_CLEAR_PAUSE);
60066910:	e840      	jalr	s0
60066912:	6c41      	li	a0,65
60066914:	b309      	lw	v1,60066938 <app_msg_deal_app_quit+0x2c>

    if(btplay_gl_var.codec_flag == TRUE) {
60066916:	a340      	lbu	v0,0(v1)
60066918:	7201      	cmpi	v0,1
6006691a:	6106      	btnez	60066928 <app_msg_deal_app_quit+0x1c>
6006691c:	b208      	lw	v0,6006693c <app_msg_deal_app_quit+0x30>
        a2dp_decode_quit();
6006691e:	eac0      	jalrc	v0
60066920:	b608      	lw	a2,6006693c <app_msg_deal_app_quit+0x30>
        g_p_btplay_info->status = BTPLAY_STOP;
60066922:	6d01      	li	a1,1
60066924:	9e80      	lw	a0,0(a2)
60066926:	c4a0      	sb	a1,0(a0)
60066928:	e840      	jalr	s0
    }
    btplay_engine_pipe_control(PIPE_OP_FLUSH);
6006692a:	6c80      	li	a0,128
6006692c:	6fff      	li	a3,255

    return RESULT_APP_QUIT;
}
6006692e:	4741      	addiu	v0,a3,1
60066930:	6463      	restore	24,ra,s0
60066932:	e8a0      	jrc	ra
60066934:	6881      	li	s0,129
60066936:	6006      	bteqz	60066944 <btplay_eg_status_change_deal>
60066938:	9604      	lw	a2,16(sp)
6006693a:	9fc1      	lw	a2,4(a3)
6006693c:	6c81      	li	a0,129
6006693e:	6006      	bteqz	6006694c <btplay_eg_status_change_deal+0x8>
60066940:	95f8      	lw	a1,992(sp)
60066942:	9fc1      	lw	a2,4(a3)

60066944 <btplay_eg_status_change_deal>:
60066944:	b212      	lw	v0,6006698c <btplay_eg_status_change_deal+0x48>
60066946:	6e18      	li	a2,24
60066948:	9aa0      	lw	a1,0(v0)
6006694a:	f020 a5f4 	lbu	a3,52(a1)
6006694e:	efd8      	mult	a3,a2
60066950:	eb12      	mflo	v1
60066952:	e3a9      	addu	v0,v1,a1
60066954:	a272      	lbu	v1,18(v0)
60066956:	2b06      	bnez	v1,60066964 <btplay_eg_status_change_deal+0x20>
60066958:	b20b      	lw	v0,60066984 <btplay_eg_status_change_deal+0x40>
6006695a:	b60c      	lw	a2,60066988 <btplay_eg_status_change_deal+0x44>
6006695c:	9ae0      	lw	a3,0(v0)
6006695e:	c760      	sb	v1,0(a3)
60066960:	c660      	sb	v1,0(a2)
60066962:	1006      	b	60066970 <btplay_eg_status_change_deal+0x2c>
60066964:	a460      	lbu	v1,0(a0)
60066966:	2b04      	bnez	v1,60066970 <btplay_eg_status_change_deal+0x2c>
60066968:	b207      	lw	v0,60066984 <btplay_eg_status_change_deal+0x40>
6006696a:	6f01      	li	a3,1
6006696c:	9ac0      	lw	a2,0(v0)
6006696e:	c6e0      	sb	a3,0(a2)
60066970:	f020 a554 	lbu	v0,52(a1)
60066974:	6f18      	li	a3,24
60066976:	eaf8      	mult	v0,a3
60066978:	eb12      	mflo	v1
6006697a:	e3b9      	addu	a2,v1,a1
6006697c:	a6b2      	lbu	a1,18(a2)
6006697e:	e820      	jr	ra
60066980:	c4a0      	sb	a1,0(a0)
60066982:	0000      	addiu	s0,sp,0
60066984:	95f8      	lw	a1,992(sp)
60066986:	9fc1      	lw	a2,4(a3)
60066988:	95fc      	lw	a1,1008(sp)
6006698a:	9fc1      	lw	a2,4(a3)
6006698c:	95e8      	lw	a1,928(sp)
6006698e:	9fc1      	lw	a2,4(a3)

60066990 <tws_decode_end_deal>:
60066990:	64c3      	save	24,ra
60066992:	b31c      	lw	v1,60066a00 <tws_decode_end_deal+0x70>
60066994:	eb40      	jalr	v1
60066996:	6c01      	li	a0,1
60066998:	b21b      	lw	v0,60066a04 <tws_decode_end_deal+0x74>
6006699a:	eac0      	jalrc	v0
6006699c:	b31b      	lw	v1,60066a04 <tws_decode_end_deal+0x74>
6006699e:	9b80      	lw	a0,0(v1)
600669a0:	f020 a45a 	lbu	v0,58(a0)
600669a4:	7201      	cmpi	v0,1
600669a6:	6113      	btnez	600669ce <tws_decode_end_deal+0x3e>
600669a8:	b619      	lw	a2,60066a0c <tws_decode_end_deal+0x7c>
600669aa:	9e60      	lw	v1,0(a2)
600669ac:	a3a5      	lbu	a1,5(v1)
600669ae:	7501      	cmpi	a1,1
600669b0:	6005      	bteqz	600669bc <tws_decode_end_deal+0x2c>
600669b2:	a3ea      	lbu	a3,10(v1)
600669b4:	2f03      	bnez	a3,600669bc <tws_decode_end_deal+0x2c>
600669b6:	a34b      	lbu	v0,11(v1)
600669b8:	7201      	cmpi	v0,1
600669ba:	6109      	btnez	600669ce <tws_decode_end_deal+0x3e>
600669bc:	b615      	lw	a2,60066a10 <tws_decode_end_deal+0x80>
600669be:	b216      	lw	v0,60066a14 <tws_decode_end_deal+0x84>
600669c0:	f1e0 6d14 	li	a1,500
600669c4:	ea40      	jalr	v0
600669c6:	6c01      	li	a0,1
600669c8:	b414      	lw	a0,60066a18 <tws_decode_end_deal+0x88>
600669ca:	c440      	sb	v0,0(a0)
600669cc:	1012      	b	600669f2 <tws_decode_end_deal+0x62>
600669ce:	f020 a47a 	lbu	v1,58(a0)
600669d2:	7301      	cmpi	v1,1
600669d4:	6105      	btnez	600669e0 <tws_decode_end_deal+0x50>
600669d6:	b70e      	lw	a3,60066a0c <tws_decode_end_deal+0x7c>
600669d8:	9fc0      	lw	a2,0(a3)
600669da:	a6a1      	lbu	a1,1(a2)
600669dc:	7501      	cmpi	a1,1
600669de:	6009      	bteqz	600669f2 <tws_decode_end_deal+0x62>
600669e0:	f020 a45a 	lbu	v0,58(a0)
600669e4:	7201      	cmpi	v0,1
600669e6:	6107      	btnez	600669f6 <tws_decode_end_deal+0x66>
600669e8:	b509      	lw	a1,60066a0c <tws_decode_end_deal+0x7c>
600669ea:	9d60      	lw	v1,0(a1)
600669ec:	a389      	lbu	a0,9(v1)
600669ee:	7401      	cmpi	a0,1
600669f0:	6102      	btnez	600669f6 <tws_decode_end_deal+0x66>
600669f2:	6c80      	li	a0,128
600669f4:	1001      	b	600669f8 <tws_decode_end_deal+0x68>
600669f6:	6c82      	li	a0,130
600669f8:	b202      	lw	v0,60066a00 <tws_decode_end_deal+0x70>
600669fa:	eac0      	jalrc	v0
600669fc:	6443      	restore	24,ra
600669fe:	e8a0      	jrc	ra
60066a00:	6881      	li	s0,129
60066a02:	6006      	bteqz	60066a10 <tws_decode_end_deal+0x80>
60066a04:	6c81      	li	a0,129
60066a06:	6006      	bteqz	60066a14 <tws_decode_end_deal+0x84>
60066a08:	95e8      	lw	a1,928(sp)
60066a0a:	9fc1      	lw	a2,4(a3)
60066a0c:	95ec      	lw	a1,944(sp)
60066a0e:	9fc1      	lw	a2,4(a3)
60066a10:	6d89      	li	a1,137
60066a12:	6006      	bteqz	60066a20 <a2dp_decode_init+0x4>
60066a14:	6b19      	li	v1,25
60066a16:	60a2      	bteqz	6006695c <btplay_eg_status_change_deal+0x18>
60066a18:	9586      	lw	a1,536(sp)
60066a1a:	9fc1      	lw	a2,4(a3)

60066a1c <a2dp_decode_init>:
60066a1c:	64f7      	save	56,ra,s0-s1
    OUTPUT_CHANNEL_L_R_ALL_R, //左右声道都输出右声道 L = R = R0
};

void a2dp_decode_init(uint8 media_type)
{
60066a1e:	6a0d      	li	v0,13
    int mmm_init_ret;
    int result;
    mmm_bp_set_type_param_t type_pram;
    mmm_bp_aout_setting_t mmm_bp_aout_param;
    char *mmm_name =
    { "mmm_bp.al" };

    btplay_gl_var.media_type = media_type;
    {
        mmm_bp_aout_param.asrc_index = K_OUT0_U0;
60066a20:	b38c      	lw	v1,60066c50 <.LBE2+0x6a>
60066a22:	ec11      	zeb	a0
60066a24:	d206      	sw	v0,24(sp)
60066a26:	6e00      	li	a2,0
        mmm_bp_aout_param.asrc_mode_sel = 2;
        mmm_bp_aout_param.dac_chanel = DAF0_EN;
60066a28:	4af5      	addiu	v0,-11
60066a2a:	c384      	sb	a0,4(v1)
60066a2c:	d208      	sw	v0,32(sp)
60066a2e:	d607      	sw	a2,28(sp)
60066a30:	2c0c      	bnez	a0,60066a4a <a2dp_decode_init+0x2e>
    }

    if(media_type == A2DP_CODEC_SBC) {
60066a32:	b689      	lw	a2,60066c54 <.LBE2+0x6e>
        type_pram.music_type = TYPE_SBC;

#ifdef ENABLE_TRUE_WIRELESS_STEREO
        type_pram.work_mode = g_p_bt_stack_cur_info->dev_role;
60066a34:	67fd      	move	a3,sp
60066a36:	c790      	sb	a0,16(a3)
60066a38:	9e80      	lw	a0,0(a2)
60066a3a:	a347      	lbu	v0,7(v1)
#else
        type_pram.work_mode = 0;
#endif
        type_pram.play_delay_start = btplay_gl_var.sbc_delay_start;
60066a3c:	f020 a4ba 	lbu	a1,58(a0)
60066a40:	679d      	move	a0,sp
60066a42:	c451      	sb	v0,17(a0)
60066a44:	a348      	lbu	v0,8(v1)
        type_pram.play_delay_lowest = btplay_gl_var.sbc_delay_lowest;
60066a46:	c4b3      	sb	a1,19(a0)
60066a48:	1008      	b	60066a5a <a2dp_decode_init+0x3e>
60066a4a:	7402      	cmpi	a0,2
    } else if(media_type == A2DP_CODEC_AAC) {
60066a4c:	6108      	btnez	60066a5e <a2dp_decode_init+0x42>
60066a4e:	a305      	lbu	s0,5(v1)
        type_pram.music_type = TYPE_AAC;
        type_pram.play_delay_start = btplay_gl_var.aac_delay_start;
60066a50:	679d      	move	a0,sp
60066a52:	6901      	li	s1,1
60066a54:	a346      	lbu	v0,6(v1)
        type_pram.play_delay_lowest = btplay_gl_var.aac_delay_lowest;
60066a56:	c430      	sb	s1,16(a0)
60066a58:	c411      	sb	s0,17(a0)
60066a5a:	c452      	sb	v0,18(a0)
60066a5c:	100f      	b	60066a7c <a2dp_decode_init+0x60>
60066a5e:	7401      	cmpi	a0,1
    } else if(media_type == A2DP_CODEC_MPEG12) {
60066a60:	6107      	btnez	60066a70 <a2dp_decode_init+0x54>
60066a62:	677d      	move	v1,sp
        type_pram.music_type = TYPE_MP3;
60066a64:	c350      	sb	v0,16(v1)
60066a66:	6a5f      	li	v0,95
        type_pram.play_delay_start = 161;
60066a68:	ea4b      	neg	v0
60066a6a:	c351      	sb	v0,17(v1)
60066a6c:	c352      	sb	v0,18(v1)
        type_pram.play_delay_lowest = 161;
60066a6e:	1006      	b	60066a7c <a2dp_decode_init+0x60>
60066a70:	b07a      	lw	s0,60066c58 <.LBE2+0x72>
    } else {
        PRINT_ERR("btplay engine error media type!!");
60066a72:	0c5f      	la	a0,60066bec <.LBE2+0x6>
60066a74:	67a6      	move	a1,a2
60066a76:	e840      	jalr	s0
60066a78:	6f4b      	li	a3,75
60066a7a:	17ff      	b	60066a7a <a2dp_decode_init+0x5e>
        while(1) {
60066a7c:	b178      	lw	s1,60066c5c <.LBE2+0x76>
            ; //nothing for QAC
        }
    }

    com_set_sound_out(SOUND_OUT_START);
60066a7e:	e940      	jalr	s1
60066a80:	6c01      	li	a0,1
60066a82:	b378      	lw	v1,60066c60 <.LBE2+0x7a>

    btplay_gl_var.codec_flag = TRUE;
    g_p_btplay_info->status = BTPLAY_PAUSE;
60066a84:	b273      	lw	v0,60066c50 <.LBE2+0x6a>
60066a86:	9be0      	lw	a3,0(v1)
60066a88:	6801      	li	s0,1
60066a8a:	6903      	li	s1,3
60066a8c:	c200      	sb	s0,0(v0)
60066a8e:	c720      	sb	s1,0(a3)
60066a90:	b175      	lw	s1,60066c64 <.LBE2+0x7e>
    adjust_freq_set_level(AP_BACK_LOW_PRIO, FREQ_LEVEL2, FREQ_NULL);
60066a92:	6c06      	li	a0,6
60066a94:	6d02      	li	a1,2
60066a96:	6e00      	li	a2,0
60066a98:	e940      	jalr	s1
60066a9a:	6f03      	li	a3,3
60066a9c:	b66e      	lw	a2,60066c54 <.LBE2+0x6e>
#ifdef ENABLE_TRUE_WIRELESS_STEREO
    if(g_p_bt_stack_cur_info->dev_role != 0) {
60066a9e:	67bd      	move	a1,sp
60066aa0:	9e80      	lw	a0,0(a2)
60066aa2:	a510      	lbu	s0,16(a1)
60066aa4:	f020 a4da 	lbu	a2,58(a0)
60066aa8:	2613      	beqz	a2,60066ad0 <a2dp_decode_init+0xb4>
60066aaa:	280d      	bnez	s0,60066ac6 <a2dp_decode_init+0xaa>
        if(type_pram.music_type == TYPE_SBC) {
60066aac:	6c03      	li	a0,3
            adjust_freq_set_level(AP_BACK_HIGH_PRIO, FREQ_LEVEL8, FREQ_LEVEL6);
60066aae:	67d0      	move	a2,s0
60066ab0:	f600 6d08 	li	a1,1544
60066ab4:	e940      	jalr	s1
60066ab6:	67e4      	move	a3,a0
60066ab8:	b268      	lw	v0,60066c58 <.LBE2+0x72>
            PRINT_INFO("level8:");
60066aba:	0c57      	la	a0,60066c14 <.LBE2+0x2e>
60066abc:	67b0      	move	a1,s0
60066abe:	67d0      	move	a2,s0
60066ac0:	ea40      	jalr	v0
60066ac2:	6f4b      	li	a3,75
60066ac4:	1010      	b	60066ae6 <a2dp_decode_init+0xca>
60066ac6:	6c03      	li	a0,3
        } else if(type_pram.music_type == TYPE_AAC) {
            adjust_freq_set_level(AP_BACK_HIGH_PRIO, FREQ_LEVEL8, FREQ_LEVEL3);
        } else //TYPE_MP3

        {
            adjust_freq_set_level(AP_BACK_HIGH_PRIO, FREQ_LEVEL8, FREQ_LEVEL3);
60066ac8:	f300 6d08 	li	a1,776
60066acc:	6e00      	li	a2,0
60066ace:	1009      	b	60066ae2 <a2dp_decode_init+0xc6>
60066ad0:	2805      	bnez	s0,60066adc <a2dp_decode_init+0xc0>
        }
    } else
#endif
    {
        if(type_pram.music_type == TYPE_SBC) {
60066ad2:	6c03      	li	a0,3
            adjust_freq_set_level(AP_BACK_HIGH_PRIO, FREQ_LEVEL5, FREQ_LEVEL3);
60066ad4:	f300 6d05 	li	a1,773
60066ad8:	67d0      	move	a2,s0
60066ada:	1003      	b	60066ae2 <a2dp_decode_init+0xc6>
60066adc:	6c03      	li	a0,3
        } else if(type_pram.music_type == TYPE_AAC) {
            adjust_freq_set_level(AP_BACK_HIGH_PRIO, FREQ_LEVEL5, FREQ_LEVEL3);
        } else { //TYPE_MP3
            adjust_freq_set_level(AP_BACK_HIGH_PRIO, FREQ_LEVEL5, FREQ_LEVEL3);
60066ade:	f300 6d05 	li	a1,773
60066ae2:	e940      	jalr	s1
60066ae4:	67e4      	move	a3,a0
60066ae6:	b561      	lw	a1,60066c68 <.LBE2+0x82>
        }
    }

    adjust_freq_add_value(0, g_dae_cfg_shm->run_freq);
60066ae8:	b25f      	lw	v0,60066c64 <.LBE2+0x7e>
60066aea:	9dc0      	lw	a2,0(a1)
60066aec:	6c00      	li	a0,0
60066aee:	a6b6      	lbu	a1,22(a2)
60066af0:	6f03      	li	a3,3
60066af2:	ea40      	jalr	v0
60066af4:	6e01      	li	a2,1
60066af6:	b159      	lw	s1,60066c58 <.LBE2+0x72>

    //加载中间件驱动
    sys_load_mmm(mmm_name, TRUE);
60066af8:	0c4a      	la	a0,60066c20 <.LBE2+0x3a>
60066afa:	6d01      	li	a1,1
60066afc:	6e00      	li	a2,0
60066afe:	e940      	jalr	s1
60066b00:	6f02      	li	a3,2
60066b02:	b15b      	lw	s1,60066c6c <.LBE2+0x86>

    //初始化中间件库
    mmm_init_ret = mmm_bp_cmd(&mp_handle, MMM_BP_OPEN, (unsigned int) NULL);
60066b04:	6d00      	li	a1,0
60066b06:	b35b      	lw	v1,60066c70 <.LBE2+0x8a>
60066b08:	67c5      	move	a2,a1
60066b0a:	eb40      	jalr	v1
60066b0c:	6791      	move	a0,s1
60066b0e:	67c2      	move	a2,v0
60066b10:	2a6a      	bnez	v0,60066be6 <.LBE2>
    if(mmm_init_ret == 0) {
60066b12:	b759      	lw	a3,60066c74 <.LBE2+0x8e>
        if(1 == g_app_info_state_all.fix_sample_rate_flag) {
60066b14:	a788      	lbu	a0,8(a3)
60066b16:	7401      	cmpi	a0,1
60066b18:	6104      	btnez	60066b22 <a2dp_decode_init+0x106>
60066b1a:	9980      	lw	a0,0(s1)
            mmm_bp_cmd(mp_handle, MMM_BP_FIX_SAMPLE_RATE, (unsigned int) NULL);
60066b1c:	b355      	lw	v1,60066c70 <.LBE2+0x8a>
60066b1e:	eb40      	jalr	v1
60066b20:	6d12      	li	a1,18
60066b22:	9980      	lw	a0,0(s1)
        }

        mmm_bp_cmd(mp_handle, MMM_BP_AOUT_OPEN, (unsigned int) &mmm_bp_aout_param);
60066b24:	b353      	lw	v1,60066c70 <.LBE2+0x8a>
60066b26:	6d02      	li	a1,2
60066b28:	eb40      	jalr	v1
60066b2a:	0606      	addiu	a2,sp,24
60066b2c:	9980      	lw	a0,0(s1)

        mmm_bp_cmd(mp_handle, MMM_BP_SET_MUSIC_TYPE, (unsigned int) &type_pram);
60066b2e:	b351      	lw	v1,60066c70 <.LBE2+0x8a>
60066b30:	6d0c      	li	a1,12
60066b32:	eb40      	jalr	v1
60066b34:	0604      	addiu	a2,sp,16
60066b36:	b747      	lw	a3,60066c50 <.LBE2+0x6a>

        //输出声道处理选择
        //#define OUTPUT_CHANNEL_NORMAL      0 //正常，中间件会初始化为正常
        //#define OUTPUT_CHANNEL_L_R_SWITCH  1 //左右声道互换 L = R0, R = L0
        //#define OUTPUT_CHANNEL_L_R_MERGE   2 //左右声道合并后输出到左声道和右声道 L = R = (L0 + R0) / 2
        //#define OUTPUT_CHANNEL_L_R_ALL_L   3 //左右声道都输出左声道 L = R = L0
        //#define OUTPUT_CHANNEL_L_R_ALL_R   4 //左右声道都输出右声道 L = R = R0
        //mmm_bp_cmd(mp_handle, MMM_BP_SET_OUTPUT_CHANNEL, (unsigned int) OUTPUT_CHANNEL_NORMAL);

        mmm_bp_cmd(mp_handle, MMM_BP_SET_OUTPUT_CHANNEL, btplay_gl_var.output_channel_config);
60066b38:	9980      	lw	a0,0(s1)
60066b3a:	a7c9      	lbu	a2,9(a3)
60066b3c:	b34d      	lw	v1,60066c70 <.LBE2+0x8a>
60066b3e:	eb40      	jalr	v1
60066b40:	6d0f      	li	a1,15
60066b42:	b645      	lw	a2,60066c54 <.LBE2+0x6e>

#ifdef ENABLE_TRUE_WIRELESS_STEREO
        //临时这样处理
        if(g_p_bt_stack_cur_info->dev_role == 1) {
60066b44:	9e40      	lw	v0,0(a2)
60066b46:	f020 a25a 	lbu	v0,58(v0)
60066b4a:	7201      	cmpi	v0,1
60066b4c:	610c      	btnez	60066b66 <a2dp_decode_init+0x14a>
60066b4e:	b441      	lw	a0,60066c50 <.LBE2+0x6a>
            //左声道
            mmm_bp_cmd(mp_handle, MMM_BP_SET_OUTPUT_CHANNEL,
60066b50:	b04a      	lw	s0,60066c78 <.LBE2+0x92>
60066b52:	a4aa      	lbu	a1,10(a0)
60066b54:	b347      	lw	v1,60066c70 <.LBE2+0x8a>
60066b56:	e509      	addu	v0,a1,s0
60066b58:	9980      	lw	a0,0(s1)
60066b5a:	a2c0      	lbu	a2,0(v0)
60066b5c:	eb40      	jalr	v1
60066b5e:	6d0f      	li	a1,15
60066b60:	b13c      	lw	s1,60066c50 <.LBE2+0x6a>
                       (unsigned int) s_output_channel[btplay_gl_var.tws_m_output_channel]);

            PRINT_INFO_INT("channel:", s_output_channel[btplay_gl_var.tws_m_output_channel]);
60066b62:	a14a      	lbu	v0,10(s1)
60066b64:	100d      	b	60066b80 <a2dp_decode_init+0x164>
60066b66:	7202      	cmpi	v0,2
        } else if(g_p_bt_stack_cur_info->dev_role == 2) {
60066b68:	6112      	btnez	60066b8e <a2dp_decode_init+0x172>
60066b6a:	b23a      	lw	v0,60066c50 <.LBE2+0x6a>
            //右声道
            mmm_bp_cmd(mp_handle, MMM_BP_SET_OUTPUT_CHANNEL,
60066b6c:	b043      	lw	s0,60066c78 <.LBE2+0x92>
60066b6e:	a26b      	lbu	v1,11(v0)
60066b70:	9980      	lw	a0,0(s1)
60066b72:	e31d      	addu	a3,v1,s0
60066b74:	a7c0      	lbu	a2,0(a3)
60066b76:	b13f      	lw	s1,60066c70 <.LBE2+0x8a>
60066b78:	e940      	jalr	s1
60066b7a:	6d0f      	li	a1,15
60066b7c:	b635      	lw	a2,60066c50 <.LBE2+0x6a>
                       (unsigned int) s_output_channel[btplay_gl_var.tws_s_output_channel]);

            PRINT_INFO_INT("channel:", s_output_channel[btplay_gl_var.tws_s_output_channel]);
60066b7e:	a64b      	lbu	v0,11(a2)
60066b80:	e219      	addu	a2,v0,s0
60066b82:	a6a0      	lbu	a1,0(a2)
60066b84:	b135      	lw	s1,60066c58 <.LBE2+0x72>
60066b86:	0c2a      	la	a0,60066c2c <.LBE2+0x46>
60066b88:	6e02      	li	a2,2
60066b8a:	e940      	jalr	s1
60066b8c:	6f4b      	li	a3,75
60066b8e:	b738      	lw	a3,60066c6c <.LBE2+0x86>
        } else {
            ;// do nothing
        }
#endif
        //SBC编解码时是否抑制噪声
        result = mmm_bp_cmd(mp_handle, MMM_BP_RESTRAIN_NOISE, TRUE);
60066b90:	b138      	lw	s1,60066c70 <.LBE2+0x8a>
60066b92:	9f80      	lw	a0,0(a3)
60066b94:	6d13      	li	a1,19
60066b96:	e940      	jalr	s1
60066b98:	6e01      	li	a2,1
60066b9a:	b535      	lw	a1,60066c6c <.LBE2+0x86>

#ifdef WAVES_ASET_TOOLS
        //发送播放命令
        g_waves.bin_number = g_app_info_state_all.bin_number;
        result = mmm_bp_cmd(mp_handle, MMM_BP_PLAY, (unsigned int) &g_waves);
#else
        //发送播放命令
        result = mmm_bp_cmd(mp_handle, MMM_BP_PLAY, (unsigned int) NULL);
60066b9c:	b335      	lw	v1,60066c70 <.LBE2+0x8a>
60066b9e:	9d80      	lw	a0,0(a1)
60066ba0:	6e00      	li	a2,0
60066ba2:	eb40      	jalr	v1
60066ba4:	6d07      	li	a1,7
60066ba6:	6722      	move	s1,v0
60066ba8:	2a1e      	bnez	v0,60066be6 <.LBE2>

60066baa <.LBB2>:
#endif

        if(result == 0) {
60066baa:	b02c      	lw	s0,60066c58 <.LBE2+0x72>
            PRINT_INFO("btplay mmm init");
60066bac:	0c24      	la	a0,60066c3c <.LBE2+0x56>
60066bae:	67a2      	move	a1,v0
60066bb0:	67c2      	move	a2,v0
60066bb2:	e840      	jalr	s0
60066bb4:	6f4b      	li	a3,75
60066bb6:	6791      	move	a0,s1
#ifdef ENABLE_TRUE_WIRELESS_STEREO
            uint32 temp_flag;
            temp_flag = sys_local_irq_save();
60066bb8:	67b1      	move	a1,s1
60066bba:	67d1      	move	a2,s1
60066bbc:	e840      	jalr	s0
60066bbe:	6f2d      	li	a3,45
60066bc0:	b72f      	lw	a3,60066c7c <.LBE2+0x96>
            g_p_tws_info->mmm_init_flag = 1;
60066bc2:	6d01      	li	a1,1
60066bc4:	9fc0      	lw	a2,0(a3)
60066bc6:	6782      	move	a0,v0
            sys_local_irq_restore(temp_flag);
60066bc8:	c6a3      	sb	a1,3(a2)
60066bca:	6f2e      	li	a3,46
60066bcc:	67b1      	move	a1,s1
60066bce:	e840      	jalr	s0
60066bd0:	67d1      	move	a2,s1
60066bd2:	b029      	lw	s0,60066c74 <.LBE2+0x8e>
#endif
            mmm_bp_cmd(mp_handle, MMM_BP_GET_ENERGY_INFO, (unsigned int) & (g_app_info_state_all.p_energy_value));
60066bd4:	b226      	lw	v0,60066c6c <.LBE2+0x86>
60066bd6:	67d0      	move	a2,s0
60066bd8:	9a80      	lw	a0,0(v0)
60066bda:	b326      	lw	v1,60066c70 <.LBE2+0x8a>
60066bdc:	6d0e      	li	a1,14
60066bde:	eb40      	jalr	v1
60066be0:	4e0c      	addiu	a2,12
60066be2:	6c01      	li	a0,1
            g_app_info_state_all.energy_available_flag = TRUE;
60066be4:	c08a      	sb	a0,10(s0)

60066be6 <.LBE2>:
60066be6:	6477      	restore	56,ra,s0-s1
        }
    }
}
60066be8:	e8a0      	jrc	ra
60066bea:	0000      	addiu	s0,sp,0
60066bec:	453c      	daddiu	s1,a1,-4
60066bee:	203e      	beqz	s0,60066c6c <.LBE2+0x86>
60066bf0:	7462      	cmpi	a0,98
60066bf2:	6c70      	li	a0,112
60066bf4:	7961      	sd	v1,8(s1)
60066bf6:	6520      	move	at,s0
60066bf8:	676e      	move	v1,t6
60066bfa:	6e69      	li	a2,105
60066bfc:	2065      	beqz	s0,60066cc8 <a2dp_decode_quit+0x48>
60066bfe:	7265      	cmpi	v0,101
60066c00:	6f72      	li	a3,114
60066c02:	2072      	beqz	s0,60066ce8 <a2dp_decode_quit+0x68>
60066c04:	656d      	move	t3,a1
60066c06:	6964      	li	s1,100
60066c08:	2061      	beqz	s0,60066ccc <a2dp_decode_quit+0x4c>
60066c0a:	7974      	sd	v1,160(s1)
60066c0c:	6570      	move	s3,s0
60066c0e:	2121      	beqz	s1,60066c52 <.LBE2+0x6c>
60066c10:	0000      	addiu	s0,sp,0
60066c12:	0000      	addiu	s0,sp,0
60066c14:	493c      	addiu	s1,60
60066c16:	203e      	beqz	s0,60066c94 <a2dp_decode_quit+0x14>
60066c18:	656c      	move	t3,a0
60066c1a:	6576      	move	s3,a2
60066c1c:	386c      	ld	v1,96(s0)
60066c1e:	003a      	addiu	s0,sp,232
60066c20:	6d6d      	li	a1,109
60066c22:	5f6d      	sltiu	a3,109
60066c24:	7062      	cmpi	s0,98
60066c26:	612e      	btnez	60066c84 <a2dp_decode_quit+0x4>
60066c28:	006c      	addiu	s0,sp,432
60066c2a:	0000      	addiu	s0,sp,0
60066c2c:	493c      	addiu	s1,60
60066c2e:	203e      	beqz	s0,60066cac <a2dp_decode_quit+0x2c>
60066c30:	6863      	li	s0,99
60066c32:	6e61      	li	a2,97
60066c34:	656e      	move	t3,a2
60066c36:	3a6c      	ld	v1,96(v0)
60066c38:	0000      	addiu	s0,sp,0
60066c3a:	0000      	addiu	s0,sp,0
60066c3c:	493c      	addiu	s1,60
60066c3e:	203e      	beqz	s0,60066cbc <a2dp_decode_quit+0x3c>
60066c40:	7462      	cmpi	a0,98
60066c42:	6c70      	li	a0,112
60066c44:	7961      	sd	v1,8(s1)
60066c46:	6d20      	li	a1,32
60066c48:	6d6d      	li	a1,109
60066c4a:	6920      	li	s1,32
60066c4c:	696e      	li	s1,110
60066c4e:	0074      	addiu	s0,sp,464
60066c50:	9604      	lw	a2,16(sp)
60066c52:	9fc1      	lw	a2,4(a3)
60066c54:	95e8      	lw	a1,928(sp)
60066c56:	9fc1      	lw	a2,4(a3)
60066c58:	6009      	bteqz	60066c6c <.LBE2+0x86>
60066c5a:	bfc2      	lwu	a2,8(a3)
60066c5c:	691d      	li	s1,29
60066c5e:	60a6      	bteqz	60066bac <.LBB2+0x2>
60066c60:	95f8      	lw	a1,992(sp)
60066c62:	9fc1      	lw	a2,4(a3)
60066c64:	6011      	bteqz	60066c88 <a2dp_decode_quit+0x8>
60066c66:	bfc2      	lwu	a2,8(a3)
60066c68:	95ac      	lw	a1,688(sp)
60066c6a:	9fc1      	lw	a2,4(a3)
60066c6c:	9614      	lw	a2,80(sp)
60066c6e:	9fc1      	lw	a2,4(a3)
60066c70:	6015      	bteqz	60066c9c <a2dp_decode_quit+0x1c>
60066c72:	bfc2      	lwu	a2,8(a3)
60066c74:	a094      	lbu	a0,20(s0)
60066c76:	9fc1      	lw	a2,4(a3)
60066c78:	6d80      	li	a1,128
60066c7a:	6006      	bteqz	60066c88 <a2dp_decode_quit+0x8>
60066c7c:	95ec      	lw	a1,944(sp)
60066c7e:	9fc1      	lw	a2,4(a3)

60066c80 <a2dp_decode_quit>:
60066c80:	64f4      	save	32,ra,s0-s1

void a2dp_decode_quit(void)
{
60066c82:	b134      	lw	s1,60066d50 <a2dp_decode_quit+0xd0>
    uint32 temp_flag;

    if(mp_handle != NULL) {
60066c84:	9940      	lw	v0,0(s1)
60066c86:	223c      	beqz	v0,60066d00 <a2dp_decode_quit+0x80>
60066c88:	b533      	lw	a1,60066d54 <a2dp_decode_quit+0xd4>
#ifdef ENABLE_TRUE_WIRELESS_STEREO
        //卸载中间件,提前关闭bt wake host中断
        if(g_p_bt_stack_cur_info->dev_role != 0) {
60066c8a:	9d80      	lw	a0,0(a1)
60066c8c:	f020 a47a 	lbu	v1,58(a0)
60066c90:	231f      	beqz	v1,60066cd0 <a2dp_decode_quit+0x50>
60066c92:	6c00      	li	a0,0
            temp_flag = sys_local_irq_save();
60066c94:	b031      	lw	s0,60066d58 <a2dp_decode_quit+0xd8>
60066c96:	67a4      	move	a1,a0
60066c98:	67c4      	move	a2,a0
60066c9a:	e840      	jalr	s0
60066c9c:	6f2d      	li	a3,45
60066c9e:	b530      	lw	a1,60066d5c <a2dp_decode_quit+0xdc>

            act_writel(act_readl(INTC_MSK) & 0xfffffffe, INTC_MSK);
60066ca0:	6f02      	li	a3,2
60066ca2:	9dc0      	lw	a2,0(a1)
60066ca4:	eceb      	neg	a0,a3
60066ca6:	ee8c      	and	a2,a0
60066ca8:	b72e      	lw	a3,60066d60 <a2dp_decode_quit+0xe0>
            act_writel(act_readl(BIAS_CTL) & 0xfffffffb, BIAS_CTL);
60066caa:	ddc0      	sw	a2,0(a1)
60066cac:	9f60      	lw	v1,0(a3)
60066cae:	44cd      	addiu	a2,a0,-3
60066cb0:	b42e      	lw	a0,60066d68 <a2dp_decode_quit+0xe8>
            act_writel(0x00000005, WAKE_PD); //clear bt onoff pending
            g_p_tws_info->mmm_init_flag = 0;
60066cb2:	ebcc      	and	v1,a2
60066cb4:	df60      	sw	v1,0(a3)
60066cb6:	b52c      	lw	a1,60066d64 <a2dp_decode_quit+0xe4>
60066cb8:	9c60      	lw	v1,0(a0)
60066cba:	6f00      	li	a3,0
60066cbc:	4e0a      	addiu	a2,10
60066cbe:	ddc0      	sw	a2,0(a1)
60066cc0:	c3e3      	sb	a3,3(v1)
60066cc2:	9cc0      	lw	a2,0(a0)
            g_p_tws_info->start_flag = 0;
60066cc4:	6d00      	li	a1,0
            sys_local_irq_restore(temp_flag);
60066cc6:	c6e0      	sb	a3,0(a2)
60066cc8:	6782      	move	a0,v0
60066cca:	67c5      	move	a2,a1
60066ccc:	e840      	jalr	s0
60066cce:	6f2e      	li	a3,46
60066cd0:	b427      	lw	a0,60066d6c <a2dp_decode_quit+0xec>
        }
#endif
        g_app_info_state_all.energy_available_flag = FALSE;
60066cd2:	6b00      	li	v1,0
60066cd4:	c46a      	sb	v1,10(a0)
60066cd6:	b027      	lw	s0,60066d70 <a2dp_decode_quit+0xf0>
#ifdef WAVES_ASET_TOOLS
        mmm_bp_cmd(mp_handle, MMM_BP_STOP, (unsigned int) &g_waves);
#else
        mmm_bp_cmd(mp_handle, MMM_BP_STOP, (unsigned int) NULL);
60066cd8:	9980      	lw	a0,0(s1)
60066cda:	6d08      	li	a1,8
60066cdc:	e840      	jalr	s0
60066cde:	6e00      	li	a2,0
60066ce0:	9980      	lw	a0,0(s1)
#endif
        mmm_bp_cmd(mp_handle, MMM_BP_AOUT_CLOSE, (unsigned int) NULL);
60066ce2:	6d03      	li	a1,3
60066ce4:	e840      	jalr	s0
60066ce6:	6e00      	li	a2,0
60066ce8:	9980      	lw	a0,0(s1)
        //关闭中间件设备
        mmm_bp_cmd(mp_handle, MMM_BP_CLOSE, (unsigned int) NULL);
60066cea:	6d01      	li	a1,1
60066cec:	e840      	jalr	s0
60066cee:	6e00      	li	a2,0
60066cf0:	6d00      	li	a1,0

        //卸载解码驱动
        sys_free_mmm(TRUE);
60066cf2:	b01a      	lw	s0,60066d58 <a2dp_decode_quit+0xd8>
60066cf4:	6c01      	li	a0,1
60066cf6:	67c5      	move	a2,a1
60066cf8:	e840      	jalr	s0
60066cfa:	6f06      	li	a3,6
60066cfc:	6a00      	li	v0,0
        mp_handle = NULL;
60066cfe:	d940      	sw	v0,0(s1)
60066d00:	b51d      	lw	a1,60066d74 <a2dp_decode_quit+0xf4>
#ifdef ENABLE_TRUE_WIRELESS_STEREO
#if 0
        temp_flag = sys_local_irq_save();
        g_p_tws_info->tws_send_buf_base = 0x9fc38000;
        sys_local_irq_restore(temp_flag);
#endif
#endif
    }
    btplay_gl_var.codec_flag = FALSE;
60066d02:	6e00      	li	a2,0
60066d04:	c5c0      	sb	a2,0(a1)
60066d06:	b015      	lw	s0,60066d58 <a2dp_decode_quit+0xd8>
    PRINT_INFO("btplay mmm exit");
60066d08:	6d00      	li	a1,0
60066d0a:	67c5      	move	a2,a1
60066d0c:	0c0c      	la	a0,60066d3c <a2dp_decode_quit+0xbc>
60066d0e:	e840      	jalr	s0
60066d10:	6f4b      	li	a3,75
60066d12:	b01a      	lw	s0,60066d78 <a2dp_decode_quit+0xf8>

    adjust_freq_add_value(0, 0);
60066d14:	6c00      	li	a0,0
60066d16:	67a4      	move	a1,a0
60066d18:	6e01      	li	a2,1
60066d1a:	e840      	jalr	s0
60066d1c:	6f03      	li	a3,3
60066d1e:	6c03      	li	a0,3

    adjust_freq_set_level(AP_BACK_HIGH_PRIO, FREQ_NULL, FREQ_NULL);
60066d20:	6d00      	li	a1,0
60066d22:	67c5      	move	a2,a1
60066d24:	e840      	jalr	s0
60066d26:	67e4      	move	a3,a0
60066d28:	6d02      	li	a1,2
    adjust_freq_set_level(AP_BACK_LOW_PRIO, FREQ_LEVEL2, FREQ_NULL);
60066d2a:	6e00      	li	a2,0
60066d2c:	6f03      	li	a3,3
60066d2e:	e840      	jalr	s0
60066d30:	6c06      	li	a0,6
60066d32:	b213      	lw	v0,60066d7c <a2dp_decode_quit+0xfc>

    com_set_sound_out(SOUND_OUT_STOP);
60066d34:	ea40      	jalr	v0
60066d36:	6c00      	li	a0,0
60066d38:	6474      	restore	32,ra,s0-s1
60066d3a:	e8a0      	jrc	ra
60066d3c:	493c      	addiu	s1,60
60066d3e:	203e      	beqz	s0,60066dbc <send_exit_mmm_to_other+0x18>
60066d40:	7462      	cmpi	a0,98
60066d42:	6c70      	li	a0,112
60066d44:	7961      	sd	v1,8(s1)
60066d46:	6d20      	li	a1,32
60066d48:	6d6d      	li	a1,109
60066d4a:	6520      	move	at,s0
60066d4c:	6978      	li	s1,120
60066d4e:	0074      	addiu	s0,sp,464
60066d50:	9614      	lw	a2,80(sp)
60066d52:	9fc1      	lw	a2,4(a3)
60066d54:	95e8      	lw	a1,928(sp)
60066d56:	9fc1      	lw	a2,4(a3)
60066d58:	6009      	bteqz	60066d6c <a2dp_decode_quit+0xec>
60066d5a:	bfc2      	lwu	a2,8(a3)
60066d5c:	0004      	addiu	s0,sp,16
60066d5e:	c00b      	sb	s0,11(s0)
60066d60:	0058      	addiu	s0,sp,352
60066d62:	c002      	sb	s0,2(s0)
60066d64:	0050      	addiu	s0,sp,320
60066d66:	c002      	sb	s0,2(s0)
60066d68:	95ec      	lw	a1,944(sp)
60066d6a:	9fc1      	lw	a2,4(a3)
60066d6c:	a094      	lbu	a0,20(s0)
60066d6e:	9fc1      	lw	a2,4(a3)
60066d70:	6015      	bteqz	60066d9c <Tws_clear_filter+0x14>
60066d72:	bfc2      	lwu	a2,8(a3)
60066d74:	9604      	lw	a2,16(sp)
60066d76:	9fc1      	lw	a2,4(a3)
60066d78:	6011      	bteqz	60066d9c <Tws_clear_filter+0x14>
60066d7a:	bfc2      	lwu	a2,8(a3)
60066d7c:	691d      	li	s1,29
60066d7e:	60a6      	bteqz	60066ccc <a2dp_decode_quit+0x4c>

60066d80 <s_output_channel>:
60066d80:	0100 0302 0004 0000                         ........

60066d88 <Tws_clear_filter>:
60066d88:	64c3      	save	24,ra
60066d8a:	b305      	lw	v1,60066d9c <Tws_clear_filter+0x14>
60066d8c:	a341      	lbu	v0,1(v1)
60066d8e:	2a03      	bnez	v0,60066d96 <Tws_clear_filter+0xe>
60066d90:	b204      	lw	v0,60066da0 <Tws_clear_filter+0x18>
60066d92:	ea40      	jalr	v0
60066d94:	6c02      	li	a0,2
60066d96:	6443      	restore	24,ra
60066d98:	e8a0      	jrc	ra
60066d9a:	0000      	addiu	s0,sp,0
60066d9c:	9604      	lw	a2,16(sp)
60066d9e:	9fc1      	lw	a2,4(a3)
60066da0:	6881      	li	s0,129
60066da2:	6006      	bteqz	60066db0 <send_exit_mmm_to_other+0xc>

60066da4 <send_exit_mmm_to_other>:
60066da4:	64c4      	save	32,ra
60066da6:	67bd      	move	a1,sp
60066da8:	c594      	sb	a0,20(a1)
60066daa:	f001 6b14 	li	v1,2068
60066dae:	6c00      	li	a0,0
60066db0:	b204      	lw	v0,60066dc0 <send_exit_mmm_to_other+0x1c>
60066db2:	d304      	sw	v1,16(sp)
60066db4:	0504      	addiu	a1,sp,16
60066db6:	67c4      	move	a2,a0
60066db8:	ea40      	jalr	v0
60066dba:	67e4      	move	a3,a0
60066dbc:	6444      	restore	32,ra
60066dbe:	e8a0      	jrc	ra
60066dc0:	6ce9      	li	a0,233
60066dc2:	60a2      	bteqz	60066d08 <a2dp_decode_quit+0x88>

60066dc4 <send_mmm_exit_cmd2>:
60066dc4:	64e3      	save	24,ra,s0

void send_mmm_exit_cmd2(uint8 op)
{
60066dc6:	b006      	lw	s0,60066ddc <send_mmm_exit_cmd2+0x18>
    if(send_once_cmd == 0) {
60066dc8:	ec11      	zeb	a0
60066dca:	a040      	lbu	v0,0(s0)
60066dcc:	2a05      	bnez	v0,60066dd8 <send_mmm_exit_cmd2+0x14>
60066dce:	b205      	lw	v0,60066de0 <send_mmm_exit_cmd2+0x1c>
        send_exit_mmm_to_other(op);
60066dd0:	eac0      	jalrc	v0
60066dd2:	a080      	lbu	a0,0(s0)
        send_once_cmd++;
60066dd4:	4461      	addiu	v1,a0,1
60066dd6:	c060      	sb	v1,0(s0)
60066dd8:	6463      	restore	24,ra,s0
    }
}
60066dda:	e8a0      	jrc	ra
60066ddc:	95ab      	lw	a1,684(sp)
60066dde:	9fc1      	lw	a2,4(a3)
60066de0:	6da5      	li	a1,165
60066de2:	6006      	bteqz	60066df0 <send_tts_stop_cmd+0xc>

60066de4 <send_tts_stop_cmd>:
60066de4:	64e3      	save	24,ra,s0

void send_tts_stop_cmd(void)
{
60066de6:	b307      	lw	v1,60066e00 <send_tts_stop_cmd+0x1c>
    //tts播报结束 清除丢数标志
    if(g_app_info_state_all.g_send_exit_mmm_tts == 1) {
60066de8:	a345      	lbu	v0,5(v1)
60066dea:	7201      	cmpi	v0,1
60066dec:	6107      	btnez	60066dfc <send_tts_stop_cmd+0x18>
60066dee:	6800      	li	s0,0
        g_app_info_state_all.g_send_exit_mmm_tts = 0;
60066df0:	b205      	lw	v0,60066e04 <send_tts_stop_cmd+0x20>
        //libc_print("G5",0,0);
        send_mmm_exit_cmd2(3);
60066df2:	c305      	sb	s0,5(v1)
60066df4:	ea40      	jalr	v0
60066df6:	6c03      	li	a0,3
60066df8:	b304      	lw	v1,60066e08 <send_tts_stop_cmd+0x24>
        send_once_cmd = 0;
60066dfa:	c300      	sb	s0,0(v1)
60066dfc:	6463      	restore	24,ra,s0
    } else {
        //do nothing
    }
}
60066dfe:	e8a0      	jrc	ra
60066e00:	a094      	lbu	a0,20(s0)
60066e02:	9fc1      	lw	a2,4(a3)
60066e04:	6dc5      	li	a1,197
60066e06:	6006      	bteqz	60066e14 <send_tts_start_cmd+0x8>
60066e08:	95ab      	lw	a1,684(sp)
60066e0a:	9fc1      	lw	a2,4(a3)

60066e0c <send_tts_start_cmd>:
60066e0c:	64c3      	save	24,ra

void send_tts_start_cmd(void)
{
60066e0e:	b307      	lw	v1,60066e28 <send_tts_start_cmd+0x1c>
    if(g_app_info_state_all.g_send_exit_mmm_tts == 1) {
60066e10:	a345      	lbu	v0,5(v1)
60066e12:	7201      	cmpi	v0,1
60066e14:	6106      	btnez	60066e22 <send_tts_start_cmd+0x16>
60066e16:	b206      	lw	v0,60066e2c <send_tts_start_cmd+0x20>
        //g_app_info_state_all.g_send_exit_mmm_tts= 0;
        //libc_print("G2",0,0);
        send_mmm_exit_cmd2(2);
60066e18:	ea40      	jalr	v0
60066e1a:	6c02      	li	a0,2
60066e1c:	b405      	lw	a0,60066e30 <send_tts_start_cmd+0x24>
        send_once_cmd = 0;
60066e1e:	6d00      	li	a1,0
60066e20:	c4a0      	sb	a1,0(a0)
60066e22:	6443      	restore	24,ra
    } else {

    }
}
60066e24:	e8a0      	jrc	ra
60066e26:	0000      	addiu	s0,sp,0
60066e28:	a094      	lbu	a0,20(s0)
60066e2a:	9fc1      	lw	a2,4(a3)
60066e2c:	6dc5      	li	a1,197
60066e2e:	6006      	bteqz	60066e3c <send_tts_start_cmd+0x30>
60066e30:	95ab      	lw	a1,684(sp)
60066e32:	9fc1      	lw	a2,4(a3)
Disassembly of section BANK_CONTROL_1_2:

600a6800 <app_message_deal>:
600a6800:	f004 64f5 	save	a0,40,ra,s0-s1

//实际的AVRCP控制由前台代理，引擎不再需要处理
app_result_e __section__(".text.bank4")app_message_deal(private_msg_t *pri_msg)
{
600a6804:	9c80      	lw	a0,0(a0)
    app_result_e app_ret;
    bool ret_val;

    app_ret = RESULT_NULL;

    switch(pri_msg->msg.type) {
600a6806:	6a00      	li	v0,0
600a6808:	f70f 446f 	addiu	v1,a0,-241
600a680c:	5b0a      	sltiu	v1,10
600a680e:	d204      	sw	v0,16(sp)
600a6810:	f080 6003 	bteqz	600a691a <.LBE3+0x16>
600a6814:	0e03      	la	a2,600a6820 <app_message_deal+0x20>
600a6816:	3264      	sll	v0,v1,1
600a6818:	e2dd      	addu	a3,v0,a2
600a681a:	8fa0      	lh	a1,0(a3)
600a681c:	e5cd      	addu	v1,a1,a2
600a681e:	eb80      	jrc	v1
600a6820:	00e7      	addiu	s0,sp,924
600a6822:	0037      	addiu	s0,sp,220
600a6824:	005d      	addiu	s0,sp,372
600a6826:	0037      	addiu	s0,sp,220
600a6828:	005d      	addiu	s0,sp,372
600a682a:	0015      	addiu	s0,sp,84
600a682c:	00fb      	addiu	s0,sp,1004
600a682e:	00fb      	addiu	s0,sp,1004
600a6830:	00fb      	addiu	s0,sp,1004
600a6832:	00c1      	addiu	s0,sp,772

600a6834 <.LBB2>:
600a6834:	b050      	lw	s0,600a6974 <.LBE2+0x16>

        case MSG_SET_DAE_CFG_SYNC: //设置DAE
            if(mp_handle != NULL) {
600a6836:	9880      	lw	a0,0(s0)
600a6838:	241d      	beqz	a0,600a6874 <.LBB2+0x40>
600a683a:	b550      	lw	a1,600a6978 <.LBE2+0x1a>
                adjust_freq_add_value(0, g_dae_cfg_shm->run_freq);
600a683c:	b250      	lw	v0,600a697c <.LBE2+0x1e>
600a683e:	9d60      	lw	v1,0(a1)
600a6840:	6c00      	li	a0,0
600a6842:	a3b6      	lbu	a1,22(v1)
600a6844:	6e01      	li	a2,1
600a6846:	ea40      	jalr	v0
600a6848:	6f03      	li	a3,3
600a684a:	9880      	lw	a0,0(s0)

                mmm_bp_cmd(mp_handle, MMM_BP_SET_EQ, (unsigned int) NULL);
600a684c:	b24d      	lw	v0,600a6980 <.LBE2+0x22>
600a684e:	6d0b      	li	a1,11
600a6850:	ea40      	jalr	v0
600a6852:	6e00      	li	a2,0
600a6854:	100f      	b	600a6874 <.LBB2+0x40>
600a6856:	b04d      	lw	s0,600a6988 <.LBE2+0x2a>
            }
            btplay_reply_msg(pri_msg, TRUE);
            break;

        case MSG_TTS_START_SYNC: //准备进入TTS播报
        case MSG_SWITCH_AOUT_START_SYNC: //准备切换音频输出
            //临时停止播歌，该消息等同于STOP消息
        {

            btplay_engine_pipe_control(PIPE_OP_FILTER);
600a6858:	e840      	jalr	s0
600a685a:	6c01      	li	a0,1
600a685c:	b14c      	lw	s1,600a698c <.LBE2+0x2e>
            if(btplay_gl_var.codec_flag == TRUE) {
600a685e:	a1c0      	lbu	a2,0(s1)
600a6860:	7601      	cmpi	a2,1
600a6862:	6102      	btnez	600a6868 <.LBB2+0x34>
600a6864:	b24b      	lw	v0,600a6990 <.LBE2+0x32>

                a2dp_decode_quit();
600a6866:	eac0      	jalrc	v0
600a6868:	b34b      	lw	v1,600a6990 <.LBE2+0x32>
                ret_val = TRUE;
            } else {
                ret_val = TRUE;
            }
#ifdef ENABLE_TRUE_WIRELESS_STEREO
            send_tts_start_cmd();
600a686a:	ebc0      	jalrc	v1
600a686c:	e840      	jalr	s0
#endif
            btplay_engine_pipe_control(PIPE_OP_FLUSH);
600a686e:	6c80      	li	a0,128
600a6870:	6f01      	li	a3,1

            btplay_gl_var.tts_play_flag = TRUE;
600a6872:	c1e1      	sb	a3,1(s1)
600a6874:	940a      	lw	a0,40(sp)
            btplay_reply_msg(pri_msg, ret_val);
600a6876:	b244      	lw	v0,600a6984 <.LBE2+0x26>
600a6878:	6d01      	li	a1,1
600a687a:	1043      	b	600a6902 <.LBB3+0x22>
600a687c:	b044      	lw	s0,600a698c <.LBE2+0x2e>
        }
        break;

        case MSG_TTS_STOP_SYNC: //TTS播报完成
        case MSG_SWITCH_AOUT_STOP_SYNC: //完成切换音频输出
            //恢复播歌，该消息等同于PLAY消息
        {
            btplay_gl_var.tts_play_flag = FALSE;
600a687e:	6d00      	li	a1,0
600a6880:	b246      	lw	v0,600a6998 <.LBE2+0x3a>
#ifdef ENABLE_TRUE_WIRELESS_STEREO
            send_tts_stop_cmd();
600a6882:	ea40      	jalr	v0
600a6884:	c0a1      	sb	a1,1(s0)
600a6886:	a886      	lhu	a0,12(s0)
#endif
            if(btplay_gl_var.filter_after_pause == 0) {
600a6888:	2cf5      	bnez	a0,600a6874 <.LBB2+0x40>
600a688a:	b445      	lw	a0,600a699c <.LBE2+0x3e>
#ifdef ENABLE_TRUE_WIRELESS_STEREO
                if((g_p_bt_stack_cur_info->dev_role == 1) && (g_p_bt_stack_cur_info->tws_master_phonecon == 0)) {
600a688c:	6e01      	li	a2,1
600a688e:	9c60      	lw	v1,0(a0)
600a6890:	f020 a3fa 	lbu	a3,58(v1)
600a6894:	efce      	xor	a3,a2
600a6896:	efc3      	sltu	a3,a2
600a6898:	6798      	move	a0,t8
600a689a:	2403      	beqz	a0,600a68a2 <.LBB2+0x6e>
600a689c:	f040 a341 	lbu	v0,65(v1)
600a68a0:	22e9      	beqz	v0,600a6874 <.LBB2+0x40>
600a68a2:	b740      	lw	a3,600a69a0 <.LBE2+0x42>
                    //tts 播放完成后不要接收数据
                } else {
                    if(g_p_tws_info->sub_quit_bl_flag == 1) {
600a68a4:	9fc0      	lw	a2,0(a3)
600a68a6:	a6a9      	lbu	a1,9(a2)
600a68a8:	7501      	cmpi	a1,1
600a68aa:	60e4      	bteqz	600a6874 <.LBB2+0x40>
600a68ac:	2415      	beqz	a0,600a68d8 <.LBB2+0xa4>
                        //do no
                    } else {
                        if((g_p_bt_stack_cur_info->dev_role == 1) && (g_p_bt_stack_cur_info->tws_master_phonecon == 1)) {
600a68ae:	f040 a381 	lbu	a0,65(v1)
600a68b2:	7401      	cmpi	a0,1
600a68b4:	6111      	btnez	600a68d8 <.LBB2+0xa4>
600a68b6:	b03c      	lw	s0,600a69a4 <.LBE2+0x46>
                            if(clear_tts_filter_timer_id != -1) {
600a68b8:	8080      	lb	a0,0(s0)
600a68ba:	eb8f      	not	v1,a0
600a68bc:	2305      	beqz	v1,600a68c8 <.LBB2+0x94>
600a68be:	b23b      	lw	v0,600a69a8 <.LBE2+0x4a>
                                kill_app_timer(clear_tts_filter_timer_id);
600a68c0:	eac0      	jalrc	v0
600a68c2:	6d01      	li	a1,1
600a68c4:	eaab      	neg	v0,a1
600a68c6:	c040      	sb	v0,0(s0)
                                clear_tts_filter_timer_id = -1;
600a68c8:	b639      	lw	a2,600a69ac <.LBE2+0x4e>
                            }
                            clear_tts_filter_timer_id = set_single_shot_app_timer(APP_TIMER_ATTRB_CONTROL,
600a68ca:	b23a      	lw	v0,600a69b0 <.LBE2+0x52>
600a68cc:	f1e0 6d14 	li	a1,500
600a68d0:	ea40      	jalr	v0
600a68d2:	6c01      	li	a0,1
600a68d4:	c040      	sb	v0,0(s0)
600a68d6:	17ce      	b	600a6874 <.LBB2+0x40>
600a68d8:	b32c      	lw	v1,600a6988 <.LBE2+0x2a>
                                                        500, Tws_clear_filter);
                        } else {
                            btplay_engine_pipe_control(PIPE_OP_UNFILTER);
600a68da:	eb40      	jalr	v1
600a68dc:	6c02      	li	a0,2
600a68de:	17ca      	b	600a6874 <.LBB2+0x40>

600a68e0 <.LBB3>:
600a68e0:	950a      	lw	a1,40(sp)
                        }
                    }


                }
#else
                btplay_engine_pipe_control(PIPE_OP_UNFILTER);

#endif

            }

            btplay_reply_msg(pri_msg, TRUE);
        }
        break;

        case MSG_ENGINE_STANDBY_SYNC: {
            os_event_t *standby_sem = (os_event_t *)(pri_msg->msg.content.addr);
600a68e2:	b329      	lw	v1,600a6984 <.LBE2+0x26>

            //备份现场，准备进入睡眠模式
            //     PRINT_INFO("eng stdby en");

            //回复前台，然后接着跑就会睡眠
            btplay_reply_msg(pri_msg, TRUE);
600a68e4:	9d01      	lw	s0,4(a1)
600a68e6:	6785      	move	a0,a1
600a68e8:	eb40      	jalr	v1
600a68ea:	6d01      	li	a1,1
600a68ec:	6d00      	li	a1,0

            libc_sem_wait(standby_sem, 0);
600a68ee:	b232      	lw	v0,600a69b4 <.LBE2+0x56>
600a68f0:	67c5      	move	a2,a1
600a68f2:	6790      	move	a0,s0
600a68f4:	ea40      	jalr	v0
600a68f6:	6f14      	li	a3,20
600a68f8:	b730      	lw	a3,600a69b8 <.LBE2+0x5a>

            //从睡眠模式回来，恢复现场
            // PRINT_INFO("eng stdby exit");
            standby_restart_all_app_timer(g_app_timer_vector, g_app_timer_count);
600a68fa:	b631      	lw	a2,600a69bc <.LBE2+0x5e>
600a68fc:	9f80      	lw	a0,0(a3)
600a68fe:	a6a0      	lbu	a1,0(a2)
600a6900:	b230      	lw	v0,600a69c0 <.LBE2+0x62>
600a6902:	eac0      	jalrc	v0

600a6904 <.LBE3>:
600a6904:	102c      	b	600a695e <.LBE2>
        }
        break;
600a6906:	6d00      	li	a1,0


        case MSG_APP_QUIT: //退出引擎
            PRINT_INFO("btplay quit");
600a6908:	b22f      	lw	v0,600a69c4 <.LBE2+0x66>
600a690a:	0c17      	la	a0,600a6964 <.LBE2+0x6>
600a690c:	67c5      	move	a2,a1
600a690e:	ea40      	jalr	v0
600a6910:	6f4b      	li	a3,75
600a6912:	b22e      	lw	v0,600a69c8 <.LBE2+0x6a>
            if((pri_msg->msg.content.data[0] & 0x01) != 0) {
                //  PRINT_INFO("eg enter s3bt");
            }
            app_ret = app_msg_deal_app_quit();
600a6914:	eac0      	jalrc	v0
600a6916:	d204      	sw	v0,16(sp)
600a6918:	1022      	b	600a695e <.LBE2>
            break;
600a691a:	f201 7404 	cmpi	a0,2564

        default:
            //if(pri_msg->msg.type == MSG_PLAYEREG_RECOGNIZE_START)
            if(pri_msg->msg.type == MSG_PLAYEREG_RECOGNIZE_PAUSE_MUSIC) {
600a691e:	610e      	btnez	600a693c <.LBE3+0x38>
600a6920:	b61b      	lw	a2,600a698c <.LBE2+0x2e>
                if(btplay_gl_var.codec_flag == FALSE) {
600a6922:	a680      	lbu	a0,0(a2)
600a6924:	2c0b      	bnez	a0,600a693c <.LBE3+0x38>
600a6926:	b21e      	lw	v0,600a699c <.LBE2+0x3e>
                    a2dp_decode_init(g_p_bt_stack_cur_info->rmt_dev[g_p_bt_stack_cur_info->a2dp_active_id].a2dp_attr.media_type);
600a6928:	6e18      	li	a2,24
600a692a:	9aa0      	lw	a1,0(v0)
600a692c:	f020 a574 	lbu	v1,52(a1)
600a6930:	ebd8      	mult	v1,a2
600a6932:	b327      	lw	v1,600a69cc <.LBE2+0x6e>
600a6934:	ec12      	mflo	a0
600a6936:	e4bd      	addu	a3,a0,a1
600a6938:	eb40      	jalr	v1
600a693a:	a78b      	lbu	a0,11(a3)
600a693c:	b60e      	lw	a2,600a6974 <.LBE2+0x16>
                }
            }
            app_ret = smart_process_message_deal(pri_msg, mp_handle, mmm_bp_cmd, &btplay_gl_var.speech_flag);
600a693e:	b314      	lw	v1,600a698c <.LBE2+0x2e>
600a6940:	9ea0      	lw	a1,0(a2)
600a6942:	940a      	lw	a0,40(sp)
600a6944:	b60f      	lw	a2,600a6980 <.LBE2+0x22>
600a6946:	b223      	lw	v0,600a69d0 <.LBE2+0x72>
600a6948:	ea40      	jalr	v0
600a694a:	43e3      	addiu	a3,v1,3
600a694c:	970a      	lw	a3,40(sp)
//      btplay_reply_msg(pri_msg, TRUE);
            libc_sem_post(pri_msg->sem);
600a694e:	ea31      	zeh	v0
600a6950:	d204      	sw	v0,16(sp)
600a6952:	9f82      	lw	a0,8(a3)
600a6954:	6d00      	li	a1,0
600a6956:	b218      	lw	v0,600a69b4 <.LBE2+0x56>
600a6958:	67c5      	move	a2,a1
600a695a:	ea40      	jalr	v0
600a695c:	6f16      	li	a3,22

600a695e <.LBE2>:
600a695e:	9204      	lw	v0,16(sp)
            break;
    }

    return app_ret;
}
600a6960:	6475      	restore	40,ra,s0-s1
600a6962:	e8a0      	jrc	ra
600a6964:	493c      	addiu	s1,60
600a6966:	203e      	beqz	s0,600a69e4 <.LBE2+0x86>
600a6968:	7462      	cmpi	a0,98
600a696a:	6c70      	li	a0,112
600a696c:	7961      	sd	v1,8(s1)
600a696e:	7120      	cmpi	s1,32
600a6970:	6975      	li	s1,117
600a6972:	0074      	addiu	s0,sp,464
600a6974:	9614      	lw	a2,80(sp)
600a6976:	9fc1      	lw	a2,4(a3)
600a6978:	95ac      	lw	a1,688(sp)
600a697a:	9fc1      	lw	a2,4(a3)
600a697c:	6011      	bteqz	600a69a0 <.LBE2+0x42>
600a697e:	bfc2      	lwu	a2,8(a3)
600a6980:	6015      	bteqz	600a69ac <.LBE2+0x4e>
600a6982:	bfc2      	lwu	a2,8(a3)
600a6984:	68e9      	li	s0,233
600a6986:	6006      	bteqz	600a6994 <.LBE2+0x36>
600a6988:	6881      	li	s0,129
600a698a:	6006      	bteqz	600a6998 <.LBE2+0x3a>
600a698c:	9604      	lw	a2,16(sp)
600a698e:	9fc1      	lw	a2,4(a3)
600a6990:	6c81      	li	a0,129
600a6992:	6006      	bteqz	600a69a0 <.LBE2+0x42>
600a6994:	6e0d      	li	a2,13
600a6996:	6006      	bteqz	600a69a4 <.LBE2+0x46>
600a6998:	6de5      	li	a1,229
600a699a:	6006      	bteqz	600a69a8 <.LBE2+0x4a>
600a699c:	95e8      	lw	a1,928(sp)
600a699e:	9fc1      	lw	a2,4(a3)
600a69a0:	95ec      	lw	a1,944(sp)
600a69a2:	9fc1      	lw	a2,4(a3)
600a69a4:	9585      	lw	a1,532(sp)
600a69a6:	9fc1      	lw	a2,4(a3)
600a69a8:	6c0d      	li	a0,13
600a69aa:	60a2      	bteqz	600a68f0 <.LBB3+0x10>
600a69ac:	6d89      	li	a1,137
600a69ae:	6006      	bteqz	600a69bc <.LBE2+0x5e>
600a69b0:	6b19      	li	v1,25
600a69b2:	60a2      	bteqz	600a68f8 <.LBB3+0x18>
600a69b4:	6005      	bteqz	600a69c0 <.LBE2+0x62>
600a69b6:	bfc2      	lwu	a2,8(a3)
600a69b8:	9594      	lw	a1,592(sp)
600a69ba:	9fc1      	lw	a2,4(a3)
600a69bc:	95a4      	lw	a1,656(sp)
600a69be:	9fc1      	lw	a2,4(a3)
600a69c0:	6c85      	li	a0,133
600a69c2:	60a2      	bteqz	600a6908 <.LBE3+0x4>
600a69c4:	6009      	bteqz	600a69d8 <.LBE2+0x7a>
600a69c6:	bfc2      	lwu	a2,8(a3)
600a69c8:	690d      	li	s1,13
600a69ca:	6006      	bteqz	600a69d8 <.LBE2+0x7a>
600a69cc:	6a1d      	li	v0,29
600a69ce:	6006      	bteqz	600a69dc <.LBE2+0x7e>
600a69d0:	68ad      	li	s0,173
600a69d2:	60aa      	bteqz	600a6928 <.LBE3+0x24>
Disassembly of section BANK_CONTROL_1_40:

60a26800 <get_engine_type_by_appid>:
60a26800:	b609      	lw	a2,60a26824 <get_engine_type_by_appid+0x24>
60a26802:	ec11      	zeb	a0
60a26804:	6d00      	li	a1,0
60a26806:	37a4      	sll	a3,a1,1
60a26808:	e7cd      	addu	v1,a3,a2
60a2680a:	a340      	lbu	v0,0(v1)
60a2680c:	ea8e      	xor	v0,a0
60a2680e:	2a02      	bnez	v0,60a26814 <get_engine_type_by_appid+0x14>
60a26810:	e820      	jr	ra
60a26812:	a341      	lbu	v0,1(v1)
60a26814:	4561      	addiu	v1,a1,1
60a26816:	67a3      	move	a1,v1
60a26818:	ed11      	zeb	a1
60a2681a:	5d06      	sltiu	a1,6
60a2681c:	61f4      	btnez	60a26806 <get_engine_type_by_appid+0x6>
60a2681e:	e820      	jr	ra
60a26820:	6a00      	li	v0,0
60a26822:	0000      	addiu	s0,sp,0
60a26824:	6854      	li	s0,84
60a26826:	60a2      	bteqz	60a2676c <.LBE2+0x97fe0e>

60a26828 <get_engine_appid_by_type>:
60a26828:	ec11      	zeb	a0
60a2682a:	6a1b      	li	v0,27
60a2682c:	2c03      	bnez	a0,60a26834 <get_engine_appid_by_type+0xc>
60a2682e:	100f      	b	60a2684e <get_engine_appid_by_type+0x26>
60a26830:	e820      	jr	ra
60a26832:	a340      	lbu	v0,0(v1)
60a26834:	b607      	lw	a2,60a26850 <get_engine_appid_by_type+0x28>
60a26836:	6d00      	li	a1,0
60a26838:	37a4      	sll	a3,a1,1
60a2683a:	e7cd      	addu	v1,a3,a2
60a2683c:	a341      	lbu	v0,1(v1)
60a2683e:	ea8e      	xor	v0,a0
60a26840:	22f7      	beqz	v0,60a26830 <get_engine_appid_by_type+0x8>
60a26842:	4561      	addiu	v1,a1,1
60a26844:	67a3      	move	a1,v1
60a26846:	ed11      	zeb	a1
60a26848:	5d06      	sltiu	a1,6
60a2684a:	61f6      	btnez	60a26838 <get_engine_appid_by_type+0x10>
60a2684c:	6a1b      	li	v0,27
60a2684e:	e8a0      	jrc	ra
60a26850:	6854      	li	s0,84
60a26852:	60a2      	bteqz	60a26798 <.LBE2+0x97fe3a>

60a26854 <applib_app2eg_type>:
60a26854:	010e 0212 030f 0410 0511 0613               ............

60a26860 <applib_init>:
60a26860:	64f5      	save	40,ra,s0-s1
60a26862:	ec11      	zeb	a0
60a26864:	6705      	move	s0,a1
60a26866:	5c1b      	sltiu	a0,27
60a26868:	d404      	sw	a0,16(sp)
60a2686a:	e811      	zeb	s0
60a2686c:	6a00      	li	v0,0
60a2686e:	6056      	bteqz	60a2691c <applib_init+0xbc>
60a26870:	6b01      	li	v1,1
60a26872:	eb0e      	xor	v1,s0
60a26874:	5b01      	sltiu	v1,1
60a26876:	6758      	move	v0,t8
60a26878:	d205      	sw	v0,20(sp)
60a2687a:	220a      	beqz	v0,60a26890 <applib_init+0x30>
60a2687c:	b12d      	lw	s1,60a26930 <applib_init+0xd0>
60a2687e:	6c0a      	li	a0,10
60a26880:	6d07      	li	a1,7
60a26882:	6e00      	li	a2,0
60a26884:	e940      	jalr	s1
60a26886:	6f03      	li	a3,3
60a26888:	b42b      	lw	a0,60a26934 <applib_init+0xd4>
60a2688a:	6d00      	li	a1,0
60a2688c:	c4a3      	sb	a1,3(a0)
60a2688e:	1008      	b	60a268a0 <applib_init+0x40>
60a26890:	7002      	cmpi	s0,2
60a26892:	6106      	btnez	60a268a0 <applib_init+0x40>
60a26894:	b227      	lw	v0,60a26930 <applib_init+0xd0>
60a26896:	6c06      	li	a0,6
60a26898:	6d02      	li	a1,2
60a2689a:	6e00      	li	a2,0
60a2689c:	ea40      	jalr	v0
60a2689e:	6f03      	li	a3,3
60a268a0:	b426      	lw	a0,60a26938 <applib_init+0xd8>
60a268a2:	3308      	sll	v1,s0,2
60a268a4:	e385      	addu	s1,v1,a0
60a268a6:	b226      	lw	v0,60a2693c <applib_init+0xdc>
60a268a8:	6c00      	li	a0,0
60a268aa:	67a4      	move	a1,a0
60a268ac:	67c4      	move	a2,a0
60a268ae:	ea40      	jalr	v0
60a268b0:	6f33      	li	a3,51
60a268b2:	b224      	lw	v0,60a26940 <applib_init+0xe0>
60a268b4:	6e04      	li	a2,4
60a268b6:	6f01      	li	a3,1
60a268b8:	6791      	move	a0,s1
60a268ba:	ea40      	jalr	v0
60a268bc:	6d00      	li	a1,0
60a268be:	6a01      	li	v0,1
60a268c0:	c140      	sb	v0,0(s1)
60a268c2:	67fd      	move	a3,sp
60a268c4:	a7d0      	lbu	a2,16(a3)
60a268c6:	c102      	sb	s0,2(s1)
60a268c8:	c1c1      	sb	a2,1(s1)
60a268ca:	2802      	bnez	s0,60a268d0 <applib_init+0x70>
60a268cc:	c103      	sb	s0,3(s1)
60a268ce:	1012      	b	60a268f4 <applib_init+0x94>
60a268d0:	7003      	cmpi	s0,3
60a268d2:	6103      	btnez	60a268da <applib_init+0x7a>
60a268d4:	6803      	li	s0,3
60a268d6:	c103      	sb	s0,3(s1)
60a268d8:	100d      	b	60a268f4 <applib_init+0x94>
60a268da:	9505      	lw	a1,20(sp)
60a268dc:	b016      	lw	s0,60a26934 <applib_init+0xd4>
60a268de:	2504      	beqz	a1,60a268e8 <applib_init+0x88>
60a268e0:	6e00      	li	a2,0
60a268e2:	c143      	sb	v0,3(s1)
60a268e4:	c0c2      	sb	a2,2(s0)
60a268e6:	1006      	b	60a268f4 <applib_init+0x94>
60a268e8:	6f02      	li	a3,2
60a268ea:	c1e3      	sb	a3,3(s1)
60a268ec:	b216      	lw	v0,60a26944 <applib_init+0xe4>
60a268ee:	ea40      	jalr	v0
60a268f0:	9404      	lw	a0,16(sp)
60a268f2:	c040      	sb	v0,0(s0)
60a268f4:	6c00      	li	a0,0
60a268f6:	b012      	lw	s0,60a2693c <applib_init+0xdc>
60a268f8:	67a4      	move	a1,a0
60a268fa:	67c4      	move	a2,a0
60a268fc:	e840      	jalr	s0
60a268fe:	6f34      	li	a3,52
60a26900:	b412      	lw	a0,60a26948 <applib_init+0xe8>
60a26902:	b210      	lw	v0,60a26940 <applib_init+0xe0>
60a26904:	dc20      	sw	s1,0(a0)
60a26906:	b412      	lw	a0,60a2694c <applib_init+0xec>
60a26908:	6d01      	li	a1,1
60a2690a:	6e00      	li	a2,0
60a2690c:	ea40      	jalr	v0
60a2690e:	6f12      	li	a3,18
60a26910:	9504      	lw	a1,16(sp)
60a26912:	0c04      	la	a0,60a26920 <applib_init+0xc0>
60a26914:	6e02      	li	a2,2
60a26916:	e840      	jalr	s0
60a26918:	6f4b      	li	a3,75
60a2691a:	6a01      	li	v0,1
60a2691c:	6475      	restore	40,ra,s0-s1
60a2691e:	e8a0      	jrc	ra
60a26920:	493c      	addiu	s1,60
60a26922:	203e      	beqz	s0,60a269a0 <.LBE2+0x14>
60a26924:	7061      	cmpi	s0,97
60a26926:	2070      	beqz	s0,60a26a08 <.LBE2+0x7c>
60a26928:	6e69      	li	a2,105
60a2692a:	7469      	cmpi	a0,105
60a2692c:	003a      	addiu	s0,sp,232
60a2692e:	0000      	addiu	s0,sp,0
60a26930:	6011      	bteqz	60a26954 <applib_quit+0x4>
60a26932:	bfc2      	lwu	a2,8(a3)
60a26934:	a094      	lbu	a0,20(s0)
60a26936:	9fc1      	lw	a2,4(a3)
60a26938:	a080      	lbu	a0,0(s0)
60a2693a:	9fc1      	lw	a2,4(a3)
60a2693c:	6009      	bteqz	60a26950 <applib_quit>
60a2693e:	bfc2      	lwu	a2,8(a3)
60a26940:	6005      	bteqz	60a2694c <applib_init+0xec>
60a26942:	bfc2      	lwu	a2,8(a3)
60a26944:	6801      	li	s0,1
60a26946:	60a2      	bteqz	60a2688c <applib_init+0x2c>
60a26948:	959c      	lw	a1,624(sp)
60a2694a:	9fc1      	lw	a2,4(a3)
60a2694c:	95a0      	lw	a1,640(sp)
60a2694e:	9fc1      	lw	a2,4(a3)

60a26950 <applib_quit>:
60a26950:	64f5      	save	40,ra,s0-s1
60a26952:	b02f      	lw	s0,60a26a0c <.LBE2+0x80>
60a26954:	b12f      	lw	s1,60a26a10 <.LBE2+0x84>
60a26956:	9860      	lw	v1,0(s0)
60a26958:	0c29      	la	a0,60a269fc <.LBE2+0x70>
60a2695a:	a3a1      	lbu	a1,1(v1)
60a2695c:	6e02      	li	a2,2
60a2695e:	e940      	jalr	s1
60a26960:	6f4b      	li	a3,75
60a26962:	6d00      	li	a1,0
60a26964:	b42c      	lw	a0,60a26a14 <.LBE2+0x88>
60a26966:	b12d      	lw	s1,60a26a18 <.LBE2+0x8c>
60a26968:	67c5      	move	a2,a1
60a2696a:	e940      	jalr	s1
60a2696c:	6f13      	li	a3,19
60a2696e:	98a0      	lw	a1,0(s0)
60a26970:	a542      	lbu	v0,2(a1)
60a26972:	7202      	cmpi	v0,2
60a26974:	6104      	btnez	60a2697e <applib_quit+0x2e>
60a26976:	b42a      	lw	a0,60a26a1c <.LBE2+0x90>
60a26978:	6e00      	li	a2,0
60a2697a:	c4c0      	sb	a2,0(a0)
60a2697c:	c4c1      	sb	a2,1(a0)
60a2697e:	0404      	addiu	a0,sp,16
60a26980:	6f00      	li	a3,0
60a26982:	e940      	jalr	s1
60a26984:	6e04      	li	a2,4
60a26986:	67fd      	move	a3,sp
60a26988:	6a1b      	li	v0,27

60a2698a <.LBB2>:
60a2698a:	98a0      	lw	a1,0(s0)

60a2698c <.LBE2>:
60a2698c:	c751      	sb	v0,17(a3)
60a2698e:	a581      	lbu	a0,1(a1)
60a26990:	6b00      	li	v1,0
60a26992:	5c1b      	sltiu	a0,27
60a26994:	c770      	sb	v1,16(a3)
60a26996:	6020      	bteqz	60a269d8 <.LBE2+0x4c>
60a26998:	b522      	lw	a1,60a26a20 <.LBE2+0x94>
60a2699a:	6b00      	li	v1,0
60a2699c:	3668      	sll	a2,v1,2
60a2699e:	e6a5      	addu	s1,a2,a1
60a269a0:	a100      	lbu	s0,0(s1)
60a269a2:	7001      	cmpi	s0,1
60a269a4:	6103      	btnez	60a269ac <.LBE2+0x20>
60a269a6:	a1e1      	lbu	a3,1(s1)
60a269a8:	ef8e      	xor	a3,a0
60a269aa:	2705      	beqz	a3,60a269b6 <.LBE2+0x2a>
60a269ac:	4341      	addiu	v0,v1,1
60a269ae:	6762      	move	v1,v0
60a269b0:	eb11      	zeb	v1
60a269b2:	5b04      	sltiu	v1,4
60a269b4:	61f3      	btnez	60a2699c <.LBE2+0x10>
60a269b6:	6c00      	li	a0,0
60a269b8:	b016      	lw	s0,60a26a10 <.LBE2+0x84>
60a269ba:	67a4      	move	a1,a0
60a269bc:	67c4      	move	a2,a0
60a269be:	e840      	jalr	s0
60a269c0:	6f33      	li	a3,51
60a269c2:	b216      	lw	v0,60a26a18 <.LBE2+0x8c>
60a269c4:	6791      	move	a0,s1
60a269c6:	0504      	addiu	a1,sp,16
60a269c8:	6e04      	li	a2,4
60a269ca:	ea40      	jalr	v0
60a269cc:	6f00      	li	a3,0
60a269ce:	6c00      	li	a0,0
60a269d0:	67a4      	move	a1,a0
60a269d2:	67c4      	move	a2,a0
60a269d4:	e840      	jalr	s0
60a269d6:	6f34      	li	a3,52
60a269d8:	b50d      	lw	a1,60a26a0c <.LBE2+0x80>
60a269da:	9d80      	lw	a0,0(a1)
60a269dc:	a442      	lbu	v0,2(a0)
60a269de:	6c0a      	li	a0,10
60a269e0:	7201      	cmpi	v0,1
60a269e2:	6003      	bteqz	60a269ea <.LBE2+0x5e>
60a269e4:	7202      	cmpi	v0,2
60a269e6:	6106      	btnez	60a269f4 <.LBE2+0x68>
60a269e8:	6c06      	li	a0,6
60a269ea:	6d00      	li	a1,0
60a269ec:	b20e      	lw	v0,60a26a24 <.LBE2+0x98>
60a269ee:	67c5      	move	a2,a1
60a269f0:	ea40      	jalr	v0
60a269f2:	6f03      	li	a3,3
60a269f4:	6a01      	li	v0,1
60a269f6:	6475      	restore	40,ra,s0-s1
60a269f8:	e8a0      	jrc	ra
60a269fa:	0000      	addiu	s0,sp,0
60a269fc:	493c      	addiu	s1,60
60a269fe:	203e      	beqz	s0,60a26a7c <__set_timer+0x54>
60a26a00:	7061      	cmpi	s0,97
60a26a02:	2070      	beqz	s0,60a26ae4 <__set_timer+0xbc>
60a26a04:	7571      	cmpi	a1,113
60a26a06:	7469      	cmpi	a0,105
60a26a08:	003a      	addiu	s0,sp,232
60a26a0a:	0000      	addiu	s0,sp,0
60a26a0c:	959c      	lw	a1,624(sp)
60a26a0e:	9fc1      	lw	a2,4(a3)
60a26a10:	6009      	bteqz	60a26a24 <.LBE2+0x98>
60a26a12:	bfc2      	lwu	a2,8(a3)
60a26a14:	95a0      	lw	a1,640(sp)
60a26a16:	9fc1      	lw	a2,4(a3)
60a26a18:	6005      	bteqz	60a26a24 <.LBE2+0x98>
60a26a1a:	bfc2      	lwu	a2,8(a3)
60a26a1c:	a094      	lbu	a0,20(s0)
60a26a1e:	9fc1      	lw	a2,4(a3)
60a26a20:	a080      	lbu	a0,0(s0)
60a26a22:	9fc1      	lw	a2,4(a3)
60a26a24:	6011      	bteqz	60a26a48 <__set_timer+0x20>
60a26a26:	bfc2      	lwu	a2,8(a3)

60a26a28 <__set_timer>:
60a26a28:	64f7      	save	56,ra,s0-s1
60a26a2a:	ec11      	zeb	a0
60a26a2c:	d404      	sw	a0,16(sp)
60a26a2e:	9312      	lw	v1,72(sp)
60a26a30:	6c01      	li	a0,1
60a26a32:	ea8b      	neg	v0,a0
60a26a34:	ed11      	zeb	a1
60a26a36:	d505      	sw	a1,20(sp)
60a26a38:	d606      	sw	a2,24(sp)
60a26a3a:	d707      	sw	a3,28(sp)
60a26a3c:	d208      	sw	v0,32(sp)
60a26a3e:	651a      	move	t8,v0
60a26a40:	2346      	beqz	v1,60a26ace <__set_timer+0xa6>
60a26a42:	2f28      	bnez	a3,60a26a94 <__set_timer+0x6c>
60a26a44:	1044      	b	60a26ace <__set_timer+0xa6>
60a26a46:	67fd      	move	a3,sp
60a26a48:	af8e      	lhu	a0,28(a3)
60a26a4a:	b22c      	lw	v0,60a26af8 <__set_timer+0xd0>
60a26a4c:	67a6      	move	a1,a2
60a26a4e:	d308      	sw	v1,32(sp)
60a26a50:	c882      	sh	a0,4(s0)
60a26a52:	6f1c      	li	a3,28
60a26a54:	ea40      	jalr	v0
60a26a56:	6786      	move	a0,a2
60a26a58:	9307      	lw	v1,28(sp)
60a26a5a:	9712      	lw	a3,72(sp)
60a26a5c:	e275      	addu	a1,v0,v1
60a26a5e:	d8e3      	sw	a3,12(s0)
60a26a60:	6a04      	li	v0,4
60a26a62:	a0e0      	lbu	a3,0(s0)
60a26a64:	9604      	lw	a2,16(sp)
60a26a66:	ec4b      	neg	a0,v0
60a26a68:	ef8c      	and	a3,a0
60a26a6a:	d8a2      	sw	a1,8(s0)
60a26a6c:	6c01      	li	a0,1
60a26a6e:	6d0d      	li	a1,13
60a26a70:	ebab      	neg	v1,a1
60a26a72:	ef8d      	or	a3,a0
60a26a74:	e9cc      	and	s1,a2
60a26a76:	9605      	lw	a2,20(sp)
60a26a78:	3228      	sll	v0,s1,2
60a26a7a:	ef6c      	and	a3,v1
60a26a7c:	6d11      	li	a1,17
60a26a7e:	ef4d      	or	a3,v0
60a26a80:	eccc      	and	a0,a2
60a26a82:	ebab      	neg	v1,a1
60a26a84:	3290      	sll	v0,a0,4
60a26a86:	ef6c      	and	a3,v1
60a26a88:	ef4d      	or	a3,v0
60a26a8a:	c0e0      	sb	a3,0(s0)
60a26a8c:	67dd      	move	a2,sp
60a26a8e:	a6b8      	lbu	a1,24(a2)
60a26a90:	c0a1      	sb	a1,1(s0)
60a26a92:	1012      	b	60a26ab8 <__set_timer+0x90>
60a26a94:	b617      	lw	a2,60a26af0 <__set_timer+0xc8>
60a26a96:	6b00      	li	v1,0
60a26a98:	a680      	lbu	a0,0(a2)
60a26a9a:	240e      	beqz	a0,60a26ab8 <__set_timer+0x90>
60a26a9c:	b516      	lw	a1,60a26af4 <__set_timer+0xcc>
60a26a9e:	6903      	li	s1,3
60a26aa0:	9d00      	lw	s0,0(a1)
60a26aa2:	a0c0      	lbu	a2,0(s0)
60a26aa4:	ee2c      	and	a2,s1
60a26aa6:	26cf      	beqz	a2,60a26a46 <__set_timer+0x1e>
60a26aa8:	43e1      	addiu	a3,v1,1
60a26aaa:	6767      	move	v1,a3
60a26aac:	6744      	move	v0,a0
60a26aae:	eb91      	seb	v1
60a26ab0:	ea11      	zeb	v0
60a26ab2:	eb42      	slt	v1,v0
60a26ab4:	4810      	addiu	s0,16
60a26ab6:	61f5      	btnez	60a26aa2 <__set_timer+0x7a>
60a26ab8:	9308      	lw	v1,32(sp)
60a26aba:	ec6f      	not	a0,v1
60a26abc:	651b      	move	t8,v1
60a26abe:	2c07      	bnez	a0,60a26ace <__set_timer+0xa6>
60a26ac0:	6d00      	li	a1,0
60a26ac2:	b00e      	lw	s0,60a26af8 <__set_timer+0xd0>
60a26ac4:	0c04      	la	a0,60a26ad4 <__set_timer+0xac>
60a26ac6:	67c5      	move	a2,a1
60a26ac8:	e840      	jalr	s0
60a26aca:	6f4b      	li	a3,75
60a26acc:	17ff      	b	60a26acc <__set_timer+0xa4>
60a26ace:	6758      	move	v0,t8
60a26ad0:	6477      	restore	56,ra,s0-s1
60a26ad2:	e8a0      	jrc	ra
60a26ad4:	453c      	daddiu	s1,a1,-4
60a26ad6:	203e      	beqz	s0,60a26b54 <modify_app_timer+0x20>
60a26ad8:	6573      	move	s3,v1
60a26ada:	2074      	beqz	s0,60a26bc4 <restart_app_timer+0xc>
60a26adc:	7061      	cmpi	s0,97
60a26ade:	2070      	beqz	s0,60a26bc0 <restart_app_timer+0x8>
60a26ae0:	6974      	li	s1,116
60a26ae2:	656d      	move	t3,a1
60a26ae4:	2072      	beqz	s0,60a26bca <restart_app_timer+0x12>
60a26ae6:	6166      	btnez	60a26bb4 <stop_app_timer+0x34>
60a26ae8:	6c69      	li	a0,105
60a26aea:	2121      	beqz	s1,60a26b2e <set_single_shot_app_timer+0x16>
60a26aec:	0000      	addiu	s0,sp,0
60a26aee:	0000      	addiu	s0,sp,0
60a26af0:	95a4      	lw	a1,656(sp)
60a26af2:	9fc1      	lw	a2,4(a3)
60a26af4:	9594      	lw	a1,592(sp)
60a26af6:	9fc1      	lw	a2,4(a3)
60a26af8:	6009      	bteqz	60a26b0c <set_app_timer+0x10>
60a26afa:	bfc2      	lwu	a2,8(a3)

60a26afc <set_app_timer>:
60a26afc:	64c4      	save	32,ra
60a26afe:	3282      	srl	v0,a0,8
60a26b00:	d604      	sw	a2,16(sp)
60a26b02:	67e5      	move	a3,a1
60a26b04:	67c2      	move	a2,v0
60a26b06:	ef31      	zeh	a3
60a26b08:	ec11      	zeb	a0
60a26b0a:	6d00      	li	a1,0
60a26b0c:	1901 9a8a 	jal	60a26a28 <__set_timer>
60a26b10:	ee11      	zeb	a2
60a26b12:	6444      	restore	32,ra
60a26b14:	e8a0      	jrc	ra
	...

60a26b18 <set_single_shot_app_timer>:
60a26b18:	64c4      	save	32,ra
60a26b1a:	3282      	srl	v0,a0,8
60a26b1c:	d604      	sw	a2,16(sp)
60a26b1e:	67e5      	move	a3,a1
60a26b20:	67c2      	move	a2,v0
60a26b22:	ef31      	zeh	a3
60a26b24:	ec11      	zeb	a0
60a26b26:	6d01      	li	a1,1
60a26b28:	1901 9a8a 	jal	60a26a28 <__set_timer>
60a26b2c:	ee11      	zeb	a2
60a26b2e:	6444      	restore	32,ra
60a26b30:	e8a0      	jrc	ra
	...

60a26b34 <modify_app_timer>:
60a26b34:	64f4      	save	32,ra,s0-s1
60a26b36:	ec91      	seb	a0
60a26b38:	6705      	move	s0,a1
60a26b3a:	ea8f      	not	v0,a0
60a26b3c:	e831      	zeh	s0
60a26b3e:	2206      	beqz	v0,60a26b4c <modify_app_timer+0x18>
60a26b40:	b60d      	lw	a2,60a26b74 <modify_app_timer+0x40>
60a26b42:	67a4      	move	a1,a0
60a26b44:	a660      	lbu	v1,0(a2)
60a26b46:	ed11      	zeb	a1
60a26b48:	ed63      	sltu	a1,v1
60a26b4a:	6102      	btnez	60a26b50 <modify_app_timer+0x1c>
60a26b4c:	6a00      	li	v0,0
60a26b4e:	1010      	b	60a26b70 <modify_app_timer+0x3c>
60a26b50:	b10a      	lw	s1,60a26b78 <modify_app_timer+0x44>
60a26b52:	3790      	sll	a3,a0,4
60a26b54:	9980      	lw	a0,0(s1)
60a26b56:	6750      	move	v0,s0
60a26b58:	e4e5      	addu	s1,a0,a3
60a26b5a:	200a      	beqz	s0,60a26b70 <modify_app_timer+0x3c>
60a26b5c:	6c00      	li	a0,0
60a26b5e:	b208      	lw	v0,60a26b7c <modify_app_timer+0x48>
60a26b60:	c902      	sh	s0,4(s1)
60a26b62:	67a4      	move	a1,a0
60a26b64:	67c4      	move	a2,a0
60a26b66:	ea40      	jalr	v0
60a26b68:	6f1c      	li	a3,28
60a26b6a:	e209      	addu	v0,s0
60a26b6c:	d942      	sw	v0,8(s1)
60a26b6e:	6a01      	li	v0,1
60a26b70:	6474      	restore	32,ra,s0-s1
60a26b72:	e8a0      	jrc	ra
60a26b74:	95a4      	lw	a1,656(sp)
60a26b76:	9fc1      	lw	a2,4(a3)
60a26b78:	9594      	lw	a1,592(sp)
60a26b7a:	9fc1      	lw	a2,4(a3)
60a26b7c:	6009      	bteqz	60a26b90 <stop_app_timer+0x10>
60a26b7e:	bfc2      	lwu	a2,8(a3)

60a26b80 <stop_app_timer>:
60a26b80:	ec91      	seb	a0
60a26b82:	ea8f      	not	v0,a0
60a26b84:	2206      	beqz	v0,60a26b92 <stop_app_timer+0x12>
60a26b86:	b60b      	lw	a2,60a26bb0 <stop_app_timer+0x30>
60a26b88:	67a4      	move	a1,a0
60a26b8a:	a660      	lbu	v1,0(a2)
60a26b8c:	ed11      	zeb	a1
60a26b8e:	ed63      	sltu	a1,v1
60a26b90:	6102      	btnez	60a26b96 <stop_app_timer+0x16>
60a26b92:	e820      	jr	ra
60a26b94:	6a00      	li	v0,0
60a26b96:	3790      	sll	a3,a0,4
60a26b98:	b407      	lw	a0,60a26bb4 <stop_app_timer+0x34>
60a26b9a:	6d04      	li	a1,4
60a26b9c:	9cc0      	lw	a2,0(a0)
60a26b9e:	ebab      	neg	v1,a1
60a26ba0:	e6f1      	addu	a0,a2,a3
60a26ba2:	a4e0      	lbu	a3,0(a0)
60a26ba4:	4346      	addiu	v0,v1,6
60a26ba6:	ef6c      	and	a3,v1
60a26ba8:	ef4d      	or	a3,v0
60a26baa:	6a01      	li	v0,1
60a26bac:	e820      	jr	ra
60a26bae:	c4e0      	sb	a3,0(a0)
60a26bb0:	95a4      	lw	a1,656(sp)
60a26bb2:	9fc1      	lw	a2,4(a3)
60a26bb4:	9594      	lw	a1,592(sp)
60a26bb6:	9fc1      	lw	a2,4(a3)

60a26bb8 <restart_app_timer>:
60a26bb8:	64f4      	save	32,ra,s0-s1
60a26bba:	ec91      	seb	a0
60a26bbc:	ea8f      	not	v0,a0
60a26bbe:	2206      	beqz	v0,60a26bcc <restart_app_timer+0x14>
60a26bc0:	b610      	lw	a2,60a26c00 <restart_app_timer+0x48>
60a26bc2:	67a4      	move	a1,a0
60a26bc4:	a660      	lbu	v1,0(a2)
60a26bc6:	ed11      	zeb	a1
60a26bc8:	ed63      	sltu	a1,v1
60a26bca:	6102      	btnez	60a26bd0 <restart_app_timer+0x18>
60a26bcc:	6a00      	li	v0,0
60a26bce:	1015      	b	60a26bfa <restart_app_timer+0x42>
60a26bd0:	3690      	sll	a2,a0,4
60a26bd2:	b40d      	lw	a0,60a26c04 <restart_app_timer+0x4c>
60a26bd4:	6b04      	li	v1,4
60a26bd6:	9c00      	lw	s0,0(a0)
60a26bd8:	e96b      	neg	s1,v1
60a26bda:	e0c1      	addu	s0,a2
60a26bdc:	a0a0      	lbu	a1,0(s0)
60a26bde:	6c00      	li	a0,0
60a26be0:	ed2c      	and	a1,s1
60a26be2:	6901      	li	s1,1
60a26be4:	ed2d      	or	a1,s1
60a26be6:	b209      	lw	v0,60a26c08 <restart_app_timer+0x50>
60a26be8:	c0a0      	sb	a1,0(s0)
60a26bea:	67c4      	move	a2,a0
60a26bec:	67a4      	move	a1,a0
60a26bee:	ea40      	jalr	v0
60a26bf0:	6f1c      	li	a3,28
60a26bf2:	a8e2      	lhu	a3,4(s0)
60a26bf4:	e2f1      	addu	a0,v0,a3
60a26bf6:	d882      	sw	a0,8(s0)
60a26bf8:	6751      	move	v0,s1
60a26bfa:	6474      	restore	32,ra,s0-s1
60a26bfc:	e8a0      	jrc	ra
60a26bfe:	0000      	addiu	s0,sp,0
60a26c00:	95a4      	lw	a1,656(sp)
60a26c02:	9fc1      	lw	a2,4(a3)
60a26c04:	9594      	lw	a1,592(sp)
60a26c06:	9fc1      	lw	a2,4(a3)
60a26c08:	6009      	bteqz	60a26c1c <kill_app_timer+0x10>
60a26c0a:	bfc2      	lwu	a2,8(a3)

60a26c0c <kill_app_timer>:
60a26c0c:	ec91      	seb	a0
60a26c0e:	ea8f      	not	v0,a0
60a26c10:	2206      	beqz	v0,60a26c1e <kill_app_timer+0x12>
60a26c12:	b60a      	lw	a2,60a26c38 <kill_app_timer+0x2c>
60a26c14:	67a4      	move	a1,a0
60a26c16:	a660      	lbu	v1,0(a2)
60a26c18:	ed11      	zeb	a1
60a26c1a:	ed63      	sltu	a1,v1
60a26c1c:	6102      	btnez	60a26c22 <kill_app_timer+0x16>
60a26c1e:	e820      	jr	ra
60a26c20:	6a00      	li	v0,0
60a26c22:	b707      	lw	a3,60a26c3c <kill_app_timer+0x30>
60a26c24:	3690      	sll	a2,a0,4
60a26c26:	9f60      	lw	v1,0(a3)
60a26c28:	6d04      	li	a1,4
60a26c2a:	e3dd      	addu	a3,v1,a2
60a26c2c:	a740      	lbu	v0,0(a3)
60a26c2e:	ecab      	neg	a0,a1
60a26c30:	ea8c      	and	v0,a0
60a26c32:	c740      	sb	v0,0(a3)
60a26c34:	e820      	jr	ra
60a26c36:	6a01      	li	v0,1
60a26c38:	95a4      	lw	a1,656(sp)
60a26c3a:	9fc1      	lw	a2,4(a3)
60a26c3c:	9594      	lw	a1,592(sp)
60a26c3e:	9fc1      	lw	a2,4(a3)

60a26c40 <init_app_timers>:
60a26c40:	ed11      	zeb	a1
60a26c42:	6745      	move	v0,a1
60a26c44:	2518      	beqz	a1,60a26c76 <init_app_timers+0x36>
60a26c46:	b70d      	lw	a3,60a26c78 <init_app_timers+0x38>
60a26c48:	b60d      	lw	a2,60a26c7c <init_app_timers+0x3c>
60a26c4a:	df80      	sw	a0,0(a3)
60a26c4c:	c6a0      	sb	a1,0(a2)
60a26c4e:	6c00      	li	a0,0
60a26c50:	250e      	beqz	a1,60a26c6e <init_app_timers+0x2e>
60a26c52:	6d04      	li	a1,4
60a26c54:	edab      	neg	a1
60a26c56:	9f60      	lw	v1,0(a3)
60a26c58:	3290      	sll	v0,a0,4
60a26c5a:	e34d      	addu	v1,v0
60a26c5c:	a340      	lbu	v0,0(v1)
60a26c5e:	eaac      	and	v0,a1
60a26c60:	c340      	sb	v0,0(v1)
60a26c62:	4461      	addiu	v1,a0,1
60a26c64:	6783      	move	a0,v1
60a26c66:	a640      	lbu	v0,0(a2)
60a26c68:	ec11      	zeb	a0
60a26c6a:	ec43      	sltu	a0,v0
60a26c6c:	61f4      	btnez	60a26c56 <init_app_timers+0x16>
60a26c6e:	b405      	lw	a0,60a26c80 <init_app_timers+0x40>
60a26c70:	6e00      	li	a2,0
60a26c72:	c4c0      	sb	a2,0(a0)
60a26c74:	6a01      	li	v0,1
60a26c76:	e8a0      	jrc	ra
60a26c78:	9594      	lw	a1,592(sp)
60a26c7a:	9fc1      	lw	a2,4(a3)
60a26c7c:	95a4      	lw	a1,656(sp)
60a26c7e:	9fc1      	lw	a2,4(a3)
60a26c80:	9599      	lw	a1,612(sp)
60a26c82:	9fc1      	lw	a2,4(a3)

60a26c84 <standby_restart_all_app_timer>:
60a26c84:	f004 64f5 	save	a0,40,ra,s0-s1
60a26c88:	ed11      	zeb	a1
60a26c8a:	d504      	sw	a1,16(sp)
60a26c8c:	6900      	li	s1,0
60a26c8e:	2517      	beqz	a1,60a26cbe <standby_restart_all_app_timer+0x3a>
60a26c90:	950a      	lw	a1,40(sp)
60a26c92:	3430      	sll	a0,s1,4
60a26c94:	e581      	addu	s0,a1,a0
60a26c96:	a040      	lbu	v0,0(s0)
60a26c98:	6b03      	li	v1,3
60a26c9a:	ea6c      	and	v0,v1
60a26c9c:	7201      	cmpi	v0,1
60a26c9e:	6109      	btnez	60a26cb2 <standby_restart_all_app_timer+0x2e>
60a26ca0:	6c00      	li	a0,0
60a26ca2:	b209      	lw	v0,60a26cc4 <standby_restart_all_app_timer+0x40>
60a26ca4:	67c4      	move	a2,a0
60a26ca6:	6f1c      	li	a3,28
60a26ca8:	ea40      	jalr	v0
60a26caa:	67a4      	move	a1,a0
60a26cac:	a8e2      	lhu	a3,4(s0)
60a26cae:	e2f9      	addu	a2,v0,a3
60a26cb0:	d8c2      	sw	a2,8(s0)
60a26cb2:	4181      	addiu	a0,s1,1
60a26cb4:	6724      	move	s1,a0
60a26cb6:	9304      	lw	v1,16(sp)
60a26cb8:	e911      	zeb	s1
60a26cba:	e963      	sltu	s1,v1
60a26cbc:	61e9      	btnez	60a26c90 <standby_restart_all_app_timer+0xc>
60a26cbe:	6475      	restore	40,ra,s0-s1
60a26cc0:	e8a0      	jrc	ra
60a26cc2:	0000      	addiu	s0,sp,0
60a26cc4:	6009      	bteqz	60a26cd8 <applib_message_init+0x10>
60a26cc6:	bfc2      	lwu	a2,8(a3)

60a26cc8 <applib_message_init>:
60a26cc8:	64c3      	save	24,ra
60a26cca:	b406      	lw	a0,60a26ce0 <applib_message_init+0x18>
60a26ccc:	6d00      	li	a1,0
60a26cce:	9c60      	lw	v1,0(a0)
60a26cd0:	b205      	lw	v0,60a26ce4 <applib_message_init+0x1c>
60a26cd2:	a383      	lbu	a0,3(v1)
60a26cd4:	67c5      	move	a2,a1
60a26cd6:	ea40      	jalr	v0
60a26cd8:	6f1a      	li	a3,26
60a26cda:	6a01      	li	v0,1
60a26cdc:	6443      	restore	24,ra
60a26cde:	e8a0      	jrc	ra
60a26ce0:	959c      	lw	a1,624(sp)
60a26ce2:	9fc1      	lw	a2,4(a3)
60a26ce4:	6009      	bteqz	60a26cf8 <send_sync_msg_btmanager+0x10>
60a26ce6:	bfc2      	lwu	a2,8(a3)

60a26ce8 <send_sync_msg_btmanager>:
60a26ce8:	f00e 64f9 	save	a0-a3,72,ra,s0-s1
60a26cec:	b328      	lw	v1,60a26d8c <send_sync_msg_btmanager+0xa4>
60a26cee:	a34c      	lbu	v0,12(v1)
60a26cf0:	6900      	li	s1,0
60a26cf2:	6519      	move	t8,s1
60a26cf4:	2247      	beqz	v0,60a26d84 <send_sync_msg_btmanager+0x9c>
60a26cf6:	b527      	lw	a1,60a26d90 <send_sync_msg_btmanager+0xa8>
60a26cf8:	b027      	lw	s0,60a26d94 <send_sync_msg_btmanager+0xac>
60a26cfa:	9d80      	lw	a0,0(a1)
60a26cfc:	67d1      	move	a2,s1
60a26cfe:	67b1      	move	a1,s1
60a26d00:	e840      	jalr	s0
60a26d02:	6f14      	li	a3,20
60a26d04:	9513      	lw	a1,76(sp)
60a26d06:	0404      	addiu	a0,sp,16
60a26d08:	6e08      	li	a2,8
60a26d0a:	e840      	jalr	s0
60a26d0c:	67f1      	move	a3,s1
60a26d0e:	9212      	lw	v0,72(sp)
60a26d10:	f020 0402 	addiu	a0,sp,34
60a26d14:	2204      	beqz	v0,60a26d1e <send_sync_msg_btmanager+0x36>
60a26d16:	67a2      	move	a1,v0
60a26d18:	6e06      	li	a2,6
60a26d1a:	67f1      	move	a3,s1
60a26d1c:	1003      	b	60a26d24 <send_sync_msg_btmanager+0x3c>
60a26d1e:	67b1      	move	a1,s1
60a26d20:	6e06      	li	a2,6
60a26d22:	6f01      	li	a3,1
60a26d24:	e8c0      	jalrc	s0
60a26d26:	6d00      	li	a1,0
60a26d28:	b01b      	lw	s0,60a26d94 <send_sync_msg_btmanager+0xac>
60a26d2a:	040c      	addiu	a0,sp,48
60a26d2c:	67c5      	move	a2,a1
60a26d2e:	e840      	jalr	s0
60a26d30:	6f12      	li	a3,18
60a26d32:	960c      	lw	a2,48(sp)
60a26d34:	9414      	lw	a0,80(sp)
60a26d36:	d606      	sw	a2,24(sp)
60a26d38:	2c02      	bnez	a0,60a26d3e <send_sync_msg_btmanager+0x56>
60a26d3a:	020a      	addiu	v0,sp,40
60a26d3c:	1001      	b	60a26d40 <send_sync_msg_btmanager+0x58>
60a26d3e:	9214      	lw	v0,80(sp)
60a26d40:	d207      	sw	v0,28(sp)
60a26d42:	b216      	lw	v0,60a26d98 <send_sync_msg_btmanager+0xb0>
60a26d44:	6c03      	li	a0,3
60a26d46:	0504      	addiu	a1,sp,16
60a26d48:	6e00      	li	a2,0
60a26d4a:	ea40      	jalr	v0
60a26d4c:	6f18      	li	a3,24
60a26d4e:	5200      	slti	v0,0
60a26d50:	6002      	bteqz	60a26d56 <send_sync_msg_btmanager+0x6e>
60a26d52:	6902      	li	s1,2
60a26d54:	1009      	b	60a26d68 <send_sync_msg_btmanager+0x80>
60a26d56:	940c      	lw	a0,48(sp)
60a26d58:	9515      	lw	a1,84(sp)
60a26d5a:	b00f      	lw	s0,60a26d94 <send_sync_msg_btmanager+0xac>
60a26d5c:	6e00      	li	a2,0
60a26d5e:	e840      	jalr	s0
60a26d60:	6f14      	li	a3,20
60a26d62:	5200      	slti	v0,0
60a26d64:	6002      	bteqz	60a26d6a <send_sync_msg_btmanager+0x82>
60a26d66:	6904      	li	s1,4
60a26d68:	e92b      	neg	s1
60a26d6a:	6d00      	li	a1,0
60a26d6c:	b00a      	lw	s0,60a26d94 <send_sync_msg_btmanager+0xac>
60a26d6e:	67c5      	move	a2,a1
60a26d70:	040c      	addiu	a0,sp,48
60a26d72:	e840      	jalr	s0
60a26d74:	6f13      	li	a3,19
60a26d76:	b707      	lw	a3,60a26d90 <send_sync_msg_btmanager+0xa8>
60a26d78:	6d00      	li	a1,0
60a26d7a:	9f80      	lw	a0,0(a3)
60a26d7c:	67c5      	move	a2,a1
60a26d7e:	e840      	jalr	s0
60a26d80:	6f16      	li	a3,22
60a26d82:	6519      	move	t8,s1
60a26d84:	6758      	move	v0,t8
60a26d86:	6479      	restore	72,ra,s0-s1
60a26d88:	e8a0      	jrc	ra
60a26d8a:	0000      	addiu	s0,sp,0
60a26d8c:	a080      	lbu	a0,0(s0)
60a26d8e:	9fc1      	lw	a2,4(a3)
60a26d90:	95a0      	lw	a1,640(sp)
60a26d92:	9fc1      	lw	a2,4(a3)
60a26d94:	6005      	bteqz	60a26da0 <send_sync_msg_btmanager+0xb8>
60a26d96:	bfc2      	lwu	a2,8(a3)
60a26d98:	6009      	bteqz	60a26dac <send_sync_msg_btmanager+0xc4>
60a26d9a:	bfc2      	lwu	a2,8(a3)
Disassembly of section BANK_CONTROL_1_41:

60a66800 <com_open_config_file>:
60a66800:	64e5      	save	40,ra,s0
60a66802:	6d00      	li	a1,0
60a66804:	b011      	lw	s0,60a66848 <com_open_config_file+0x48>
60a66806:	67c5      	move	a2,a1
60a66808:	e840      	jalr	s0
60a6680a:	6f0d      	li	a3,13
60a6680c:	6782      	move	a0,v0
60a6680e:	b20e      	lw	v0,60a66844 <com_open_config_file+0x44>
60a66810:	6764      	move	v1,a0
60a66812:	da80      	sw	a0,0(v0)
60a66814:	2413      	beqz	a0,60a6683c <com_open_config_file+0x3c>
60a66816:	0504      	addiu	a1,sp,16
60a66818:	6e10      	li	a2,16
60a6681a:	e840      	jalr	s0
60a6681c:	6f11      	li	a3,17
60a6681e:	ec4f      	not	a0,v0
60a66820:	6b00      	li	v1,0
60a66822:	240c      	beqz	a0,60a6683c <com_open_config_file+0x3c>
60a66824:	677d      	move	v1,sp
60a66826:	a3b0      	lbu	a1,16(v1)
60a66828:	7563      	cmpi	a1,99
60a6682a:	6107      	btnez	60a6683a <com_open_config_file+0x3a>
60a6682c:	a3d1      	lbu	a2,17(v1)
60a6682e:	7666      	cmpi	a2,102
60a66830:	6104      	btnez	60a6683a <com_open_config_file+0x3a>
60a66832:	a3f2      	lbu	a3,18(v1)
60a66834:	6b01      	li	v1,1
60a66836:	7767      	cmpi	a3,103
60a66838:	6001      	bteqz	60a6683c <com_open_config_file+0x3c>
60a6683a:	6b00      	li	v1,0
60a6683c:	6743      	move	v0,v1
60a6683e:	6465      	restore	40,ra,s0
60a66840:	e8a0      	jrc	ra
60a66842:	0000      	addiu	s0,sp,0
60a66844:	a090      	lbu	a0,16(s0)
60a66846:	9fc1      	lw	a2,4(a3)
60a66848:	6009      	bteqz	60a6685c <com_get_config_struct+0x10>
60a6684a:	bfc2      	lwu	a2,8(a3)

60a6684c <com_get_config_struct>:
60a6684c:	f008 64f6 	save	a0-a1,48,ra,s0-s1
60a66850:	67a4      	move	a1,a0
60a66852:	ed31      	zeh	a1
60a66854:	b118      	lw	s1,60a668b4 <com_get_config_struct+0x68>
60a66856:	33ac      	sll	v1,a1,3
60a66858:	ee31      	zeh	a2
60a6685a:	d606      	sw	a2,24(sp)
60a6685c:	9980      	lw	a0,0(s1)
60a6685e:	67c3      	move	a2,v1
60a66860:	b016      	lw	s0,60a668b8 <com_get_config_struct+0x6c>
60a66862:	6d00      	li	a1,0
60a66864:	4e10      	addiu	a2,16
60a66866:	e840      	jalr	s0
60a66868:	6f0f      	li	a3,15
60a6686a:	ea4f      	not	v0
60a6686c:	6b00      	li	v1,0
60a6686e:	221f      	beqz	v0,60a668ae <com_get_config_struct+0x62>
60a66870:	9980      	lw	a0,0(s1)
60a66872:	0504      	addiu	a1,sp,16
60a66874:	6e08      	li	a2,8
60a66876:	e840      	jalr	s0
60a66878:	6f11      	li	a3,17
60a6687a:	ec4f      	not	a0,v0
60a6687c:	6b00      	li	v1,0
60a6687e:	2417      	beqz	a0,60a668ae <com_get_config_struct+0x62>
60a66880:	9604      	lw	a2,16(sp)
60a66882:	9980      	lw	a0,0(s1)
60a66884:	67a3      	move	a1,v1
60a66886:	e840      	jalr	s0
60a66888:	6f0f      	li	a3,15
60a6688a:	ee4f      	not	a2,v0
60a6688c:	6b00      	li	v1,0
60a6688e:	260f      	beqz	a2,60a668ae <com_get_config_struct+0x62>
60a66890:	9605      	lw	a2,20(sp)
60a66892:	9206      	lw	v0,24(sp)
60a66894:	9980      	lw	a0,0(s1)
60a66896:	eac3      	sltu	v0,a2
60a66898:	6003      	bteqz	60a668a0 <com_get_config_struct+0x54>
60a6689a:	950d      	lw	a1,52(sp)
60a6689c:	67c2      	move	a2,v0
60a6689e:	1001      	b	60a668a2 <com_get_config_struct+0x56>
60a668a0:	950d      	lw	a1,52(sp)
60a668a2:	e840      	jalr	s0
60a668a4:	6f11      	li	a3,17
60a668a6:	ef4f      	not	a3,v0
60a668a8:	6b00      	li	v1,0
60a668aa:	2701      	beqz	a3,60a668ae <com_get_config_struct+0x62>
60a668ac:	6b01      	li	v1,1
60a668ae:	6743      	move	v0,v1
60a668b0:	6476      	restore	48,ra,s0-s1
60a668b2:	e8a0      	jrc	ra
60a668b4:	a090      	lbu	a0,16(s0)
60a668b6:	9fc1      	lw	a2,4(a3)
60a668b8:	6009      	bteqz	60a668cc <com_get_config_default+0x10>
60a668ba:	bfc2      	lwu	a2,8(a3)

60a668bc <com_get_config_default>:
60a668bc:	64f6      	save	48,ra,s0-s1
60a668be:	67c4      	move	a2,a0
60a668c0:	b115      	lw	s1,60a66914 <com_get_config_default+0x58>
60a668c2:	ee31      	zeh	a2
60a668c4:	36cc      	sll	a2,3
60a668c6:	9980      	lw	a0,0(s1)
60a668c8:	b014      	lw	s0,60a66918 <com_get_config_default+0x5c>
60a668ca:	6d00      	li	a1,0
60a668cc:	4e10      	addiu	a2,16
60a668ce:	e840      	jalr	s0
60a668d0:	6f0f      	li	a3,15
60a668d2:	ea4f      	not	v0
60a668d4:	6b00      	li	v1,0
60a668d6:	221a      	beqz	v0,60a6690c <com_get_config_default+0x50>
60a668d8:	9980      	lw	a0,0(s1)
60a668da:	0504      	addiu	a1,sp,16
60a668dc:	6e08      	li	a2,8
60a668de:	e840      	jalr	s0
60a668e0:	6f11      	li	a3,17
60a668e2:	ec4f      	not	a0,v0
60a668e4:	6b00      	li	v1,0
60a668e6:	2412      	beqz	a0,60a6690c <com_get_config_default+0x50>
60a668e8:	9980      	lw	a0,0(s1)
60a668ea:	9604      	lw	a2,16(sp)
60a668ec:	67a3      	move	a1,v1
60a668ee:	e840      	jalr	s0
60a668f0:	6f0f      	li	a3,15
60a668f2:	ed4f      	not	a1,v0
60a668f4:	6b00      	li	v1,0
60a668f6:	250a      	beqz	a1,60a6690c <com_get_config_default+0x50>
60a668f8:	9980      	lw	a0,0(s1)
60a668fa:	6f11      	li	a3,17
60a668fc:	0506      	addiu	a1,sp,24
60a668fe:	e840      	jalr	s0
60a66900:	6e02      	li	a2,2
60a66902:	ef4f      	not	a3,v0
60a66904:	6b00      	li	v1,0
60a66906:	2702      	beqz	a3,60a6690c <com_get_config_default+0x50>
60a66908:	675d      	move	v0,sp
60a6690a:	aa6c      	lhu	v1,24(v0)
60a6690c:	6743      	move	v0,v1
60a6690e:	6476      	restore	48,ra,s0-s1
60a66910:	e8a0      	jrc	ra
60a66912:	0000      	addiu	s0,sp,0
60a66914:	a090      	lbu	a0,16(s0)
60a66916:	9fc1      	lw	a2,4(a3)
60a66918:	6009      	bteqz	60a6692c <.LBE2+0xc>
60a6691a:	bfc2      	lwu	a2,8(a3)

60a6691c <com_set_sound_out>:
60a6691c:	b202      	lw	v0,60a66924 <.LBE2+0x4>
60a6691e:	c287      	sb	a0,7(v0)

60a66920 <.LBE2>:
60a66920:	e820      	jr	ra
60a66922:	6a01      	li	v0,1
60a66924:	a094      	lbu	a0,20(s0)
60a66926:	9fc1      	lw	a2,4(a3)
Disassembly of section BANK_CONTROL_1_42:

60aa6800 <smart_tws_sync_cmd_send>:
60aa6800:	64e4      	save	32,ra,s0
60aa6802:	6d00      	li	a1,0
60aa6804:	b20c      	lw	v0,60aa6834 <.LBE2+0x6>
60aa6806:	6704      	move	s0,a0
60aa6808:	67c5      	move	a2,a1
60aa680a:	6c01      	li	a0,1
60aa680c:	ea40      	jalr	v0
60aa680e:	6f49      	li	a3,73
60aa6810:	f020 a25a 	lbu	v0,58(v0)
60aa6814:	e811      	zeb	s0
60aa6816:	220b      	beqz	v0,60aa682e <.LBE2>

60aa6818 <.LBB2>:
60aa6818:	f0a1 6c0c 	li	a0,2220
60aa681c:	d404      	sw	a0,16(sp)
60aa681e:	677d      	move	v1,sp
60aa6820:	6c00      	li	a0,0
60aa6822:	b206      	lw	v0,60aa6838 <.LBE2+0xa>
60aa6824:	c314      	sb	s0,20(v1)
60aa6826:	0504      	addiu	a1,sp,16
60aa6828:	67c4      	move	a2,a0
60aa682a:	ea40      	jalr	v0
60aa682c:	67e4      	move	a3,a0

60aa682e <.LBE2>:
60aa682e:	6464      	restore	32,ra,s0
60aa6830:	e8a0      	jrc	ra
60aa6832:	0000      	addiu	s0,sp,0
60aa6834:	6009      	bteqz	60aa6848 <smart_set_ainout_param+0xc>
60aa6836:	bfc2      	lwu	a2,8(a3)
60aa6838:	6ce9      	li	a0,233
60aa683a:	60a2      	bteqz	60aa6780 <.LBE2+0x3fe60>

60aa683c <smart_set_ainout_param>:
60aa683c:	64f4      	save	32,ra,s0-s1
60aa683e:	6b00      	li	v1,0
60aa6840:	b216      	lw	v0,60aa6898 <smart_set_ainout_param+0x5c>
60aa6842:	6724      	move	s1,a0
60aa6844:	dc60      	sw	v1,0(a0)
60aa6846:	6c2a      	li	a0,42
60aa6848:	ea40      	jalr	v0
60aa684a:	6705      	move	s0,a1
60aa684c:	e811      	zeb	s0
60aa684e:	6782      	move	a0,v0
60aa6850:	ec11      	zeb	a0
60aa6852:	7003      	cmpi	s0,3
60aa6854:	d986      	sw	a0,24(s1)
60aa6856:	6107      	btnez	60aa6866 <smart_set_ainout_param+0x2a>
60aa6858:	6c00      	li	a0,0
60aa685a:	6b10      	li	v1,16
60aa685c:	4441      	addiu	v0,a0,1
60aa685e:	d961      	sw	v1,4(s1)
60aa6860:	d962      	sw	v1,8(s1)
60aa6862:	d983      	sw	a0,12(s1)
60aa6864:	100a      	b	60aa687a <smart_set_ainout_param+0x3e>
60aa6866:	6d17      	li	a1,23
60aa6868:	d9a1      	sw	a1,4(s1)
60aa686a:	6b10      	li	v1,16
60aa686c:	4dea      	addiu	a1,-22
60aa686e:	7405      	cmpi	a0,5
60aa6870:	d962      	sw	v1,8(s1)
60aa6872:	d9a3      	sw	a1,12(s1)
60aa6874:	4542      	addiu	v0,a1,2
60aa6876:	6001      	bteqz	60aa687a <smart_set_ainout_param+0x3e>
60aa6878:	6a02      	li	v0,2
60aa687a:	6f07      	li	a3,7
60aa687c:	d944      	sw	v0,16(s1)
60aa687e:	47ca      	addiu	a2,a3,-6
60aa6880:	b206      	lw	v0,60aa6898 <smart_set_ainout_param+0x5c>
60aa6882:	d965      	sw	v1,20(s1)
60aa6884:	d9e8      	sw	a3,32(s1)
60aa6886:	f1a0 6c0a 	li	a0,426
60aa688a:	ea40      	jalr	v0
60aa688c:	d9c7      	sw	a2,28(s1)
60aa688e:	ea11      	zeb	v0
60aa6890:	d949      	sw	v0,36(s1)
60aa6892:	6474      	restore	32,ra,s0-s1
60aa6894:	e8a0      	jrc	ra
60aa6896:	0000      	addiu	s0,sp,0
60aa6898:	68bd      	li	s0,189
60aa689a:	60a6      	bteqz	60aa67e8 <.LBE2+0x3fec8>

60aa689c <smart_enter_speech_mode>:
60aa689c:	2402      	beqz	a0,60aa68a2 <smart_enter_speech_mode+0x6>
60aa689e:	6a01      	li	v0,1
60aa68a0:	c440      	sb	v0,0(a0)
60aa68a2:	e8a0      	jrc	ra

60aa68a4 <smart_exit_speech_mode>:
60aa68a4:	2402      	beqz	a0,60aa68aa <smart_exit_speech_mode+0x6>
60aa68a6:	6a00      	li	v0,0
60aa68a8:	c440      	sb	v0,0(a0)
60aa68aa:	e8a0      	jrc	ra

60aa68ac <smart_process_message_deal>:
60aa68ac:	f00c 64f9 	save	a0-a2,72,ra,s0-s1
60aa68b0:	9c40      	lw	v0,0(a0)
60aa68b2:	6724      	move	s1,a0
60aa68b4:	f201 7202 	cmpi	v0,2562
60aa68b8:	6707      	move	s0,a3
60aa68ba:	604c      	bteqz	60aa6954 <.LBE7+0x2>
60aa68bc:	f201 5a03 	sltiu	v0,2563
60aa68c0:	6004      	bteqz	60aa68ca <smart_process_message_deal+0x1e>
60aa68c2:	f201 7201 	cmpi	v0,2561
60aa68c6:	602f      	bteqz	60aa6926 <.LBE5+0x2>
60aa68c8:	1065      	b	60aa6994 <.LBE8>
60aa68ca:	f201 7204 	cmpi	v0,2564
60aa68ce:	6004      	bteqz	60aa68d8 <smart_process_message_deal+0x2c>
60aa68d0:	f201 7205 	cmpi	v0,2565
60aa68d4:	6019      	bteqz	60aa6908 <.LBE3+0x1e>
60aa68d6:	105e      	b	60aa6994 <.LBE8>
60aa68d8:	6d00      	li	a1,0
60aa68da:	b249      	lw	v0,60aa69fc <.LBE8+0x68>
60aa68dc:	0c30      	la	a0,60aa699c <.LBE8+0x8>
60aa68de:	67c5      	move	a2,a1
60aa68e0:	ea40      	jalr	v0
60aa68e2:	6f4b      	li	a3,75

60aa68e4 <.LBB3>:
60aa68e4:	2002      	beqz	s0,60aa68ea <.LBE3>
60aa68e6:	6b01      	li	v1,1
60aa68e8:	c060      	sb	v1,0(s0)

60aa68ea <.LBE3>:
60aa68ea:	9413      	lw	a0,76(sp)
60aa68ec:	9314      	lw	v1,80(sp)
60aa68ee:	6d84      	li	a1,132
60aa68f0:	eb40      	jalr	v1
60aa68f2:	6e00      	li	a2,0
60aa68f4:	9983      	lw	a0,12(s1)
60aa68f6:	2a02      	bnez	v0,60aa68fc <.LBE3+0x12>
60aa68f8:	6a01      	li	v0,1
60aa68fa:	1001      	b	60aa68fe <.LBE3+0x14>
60aa68fc:	6a02      	li	v0,2
60aa68fe:	c440      	sb	v0,0(a0)
60aa6900:	1941 9a00 	jal	60aa6800 <smart_tws_sync_cmd_send>
60aa6904:	6c05      	li	a0,5
60aa6906:	1046      	b	60aa6994 <.LBE8>
60aa6908:	6d00      	li	a1,0
60aa690a:	b23d      	lw	v0,60aa69fc <.LBE8+0x68>
60aa690c:	67c5      	move	a2,a1
60aa690e:	0c2b      	la	a0,60aa69b8 <.LBE8+0x24>
60aa6910:	ea40      	jalr	v0
60aa6912:	6f4b      	li	a3,75
60aa6914:	9413      	lw	a0,76(sp)
60aa6916:	9314      	lw	v1,80(sp)
60aa6918:	6d85      	li	a1,133
60aa691a:	eb40      	jalr	v1
60aa691c:	6e00      	li	a2,0

60aa691e <.LBB5>:
60aa691e:	203a      	beqz	s0,60aa6994 <.LBE8>
60aa6920:	6c00      	li	a0,0
60aa6922:	c080      	sb	a0,0(s0)

60aa6924 <.LBE5>:
60aa6924:	1037      	b	60aa6994 <.LBE8>
60aa6926:	6d00      	li	a1,0
60aa6928:	b235      	lw	v0,60aa69fc <.LBE8+0x68>
60aa692a:	67c5      	move	a2,a1
60aa692c:	0c2a      	la	a0,60aa69d4 <.LBE8+0x40>
60aa692e:	ea40      	jalr	v0
60aa6930:	6f4b      	li	a3,75

60aa6932 <.LBB7>:
60aa6932:	a1a4      	lbu	a1,4(s1)
60aa6934:	1941 9a0f 	jal	60aa683c <smart_set_ainout_param>
60aa6938:	0404      	addiu	a0,sp,16
60aa693a:	950a      	lw	a1,40(sp)
60aa693c:	a1c5      	lbu	a2,5(s1)
60aa693e:	7505      	cmpi	a1,5
60aa6940:	d60d      	sw	a2,52(sp)
60aa6942:	6102      	btnez	60aa6948 <.LBB7+0x16>
60aa6944:	b32f      	lw	v1,60aa6a00 <.LBE8+0x6c>
60aa6946:	ebc0      	jalrc	v1
60aa6948:	9413      	lw	a0,76(sp)
60aa694a:	9314      	lw	v1,80(sp)
60aa694c:	6d81      	li	a1,129
60aa694e:	eb40      	jalr	v1
60aa6950:	0604      	addiu	a2,sp,16

60aa6952 <.LBE7>:
60aa6952:	1020      	b	60aa6994 <.LBE8>
60aa6954:	6d00      	li	a1,0
60aa6956:	b02a      	lw	s0,60aa69fc <.LBE8+0x68>
60aa6958:	6f4b      	li	a3,75
60aa695a:	0c24      	la	a0,60aa69e8 <.LBE8+0x54>
60aa695c:	e840      	jalr	s0
60aa695e:	67c5      	move	a2,a1

60aa6960 <.LBB8>:
60aa6960:	a1e4      	lbu	a3,4(s1)
60aa6962:	6802      	li	s0,2
60aa6964:	7703      	cmpi	a3,3
60aa6966:	6008      	bteqz	60aa6978 <.LBB8+0x18>
60aa6968:	b227      	lw	v0,60aa6a04 <.LBE8+0x70>
60aa696a:	ea40      	jalr	v0
60aa696c:	6c2a      	li	a0,42
60aa696e:	ea11      	zeb	v0
60aa6970:	7205      	cmpi	v0,5
60aa6972:	400e      	addiu	s0,s0,-2
60aa6974:	6101      	btnez	60aa6978 <.LBB8+0x18>
60aa6976:	4001      	addiu	s0,s0,1
60aa6978:	1941 9a00 	jal	60aa6800 <smart_tws_sync_cmd_send>
60aa697c:	6c06      	li	a0,6
60aa697e:	9413      	lw	a0,76(sp)
60aa6980:	9314      	lw	v1,80(sp)
60aa6982:	6d82      	li	a1,130
60aa6984:	eb40      	jalr	v1
60aa6986:	67d0      	move	a2,s0
60aa6988:	9983      	lw	a0,12(s1)
60aa698a:	2a02      	bnez	v0,60aa6990 <.LBB8+0x30>
60aa698c:	6a01      	li	v0,1
60aa698e:	1001      	b	60aa6992 <.LBB8+0x32>
60aa6990:	6a02      	li	v0,2
60aa6992:	c440      	sb	v0,0(a0)

60aa6994 <.LBE8>:
60aa6994:	6a00      	li	v0,0
60aa6996:	6479      	restore	72,ra,s0-s1
60aa6998:	e8a0      	jrc	ra
60aa699a:	0000      	addiu	s0,sp,0
60aa699c:	493c      	addiu	s1,60
60aa699e:	203e      	beqz	s0,60aa6a1c <i2s_mfp_cfg+0x14>
60aa69a0:	6572      	move	s3,v0
60aa69a2:	6f63      	li	a3,99
60aa69a4:	6e67      	li	a2,103
60aa69a6:	7a69      	sd	v1,72(v0)
60aa69a8:	2065      	beqz	s0,60aa6a74 <i2s_mfp_cfg+0x6c>
60aa69aa:	6170      	btnez	60aa6a8c <i2s_mfp_cfg+0x84>
60aa69ac:	7375      	cmpi	v1,117
60aa69ae:	2065      	beqz	s0,60aa6a7a <i2s_mfp_cfg+0x72>
60aa69b0:	756d      	cmpi	a1,109
60aa69b2:	6973      	li	s1,115
60aa69b4:	0063      	addiu	s0,sp,396
60aa69b6:	0000      	addiu	s0,sp,0
60aa69b8:	493c      	addiu	s1,60
60aa69ba:	203e      	beqz	s0,60aa6a38 <i2s_mfp_cfg+0x30>
60aa69bc:	6572      	move	s3,v0
60aa69be:	6f63      	li	a3,99
60aa69c0:	6e67      	li	a2,103
60aa69c2:	7a69      	sd	v1,72(v0)
60aa69c4:	2065      	beqz	s0,60aa6a90 <i2s_mfp_cfg+0x88>
60aa69c6:	6572      	move	s3,v0
60aa69c8:	7573      	cmpi	a1,115
60aa69ca:	656d      	move	t3,a1
60aa69cc:	6d20      	li	a1,32
60aa69ce:	7375      	cmpi	v1,117
60aa69d0:	6369      	addiu	sp,840
60aa69d2:	0000      	addiu	s0,sp,0
60aa69d4:	493c      	addiu	s1,60
60aa69d6:	203e      	beqz	s0,60aa6a54 <i2s_mfp_cfg+0x4c>
60aa69d8:	6572      	move	s3,v0
60aa69da:	6f63      	li	a3,99
60aa69dc:	6e67      	li	a2,103
60aa69de:	7a69      	sd	v1,72(v0)
60aa69e0:	2065      	beqz	s0,60aa6aac <i2s_mfp_cfg+0xa4>
60aa69e2:	7473      	cmpi	a0,115
60aa69e4:	7261      	cmpi	v0,97
60aa69e6:	0074      	addiu	s0,sp,464
60aa69e8:	493c      	addiu	s1,60
60aa69ea:	203e      	beqz	s0,60aa6a68 <i2s_mfp_cfg+0x60>
60aa69ec:	6572      	move	s3,v0
60aa69ee:	6f63      	li	a3,99
60aa69f0:	6e67      	li	a2,103
60aa69f2:	7a69      	sd	v1,72(v0)
60aa69f4:	2065      	beqz	s0,60aa6ac0 <i2s_mfp_cfg+0xb8>
60aa69f6:	7473      	cmpi	a0,115
60aa69f8:	706f      	cmpi	s0,111
60aa69fa:	0000      	addiu	s0,sp,0
60aa69fc:	6009      	bteqz	60aa6a10 <i2s_mfp_cfg+0x8>
60aa69fe:	bfc2      	lwu	a2,8(a3)
60aa6a00:	6a09      	li	v0,9
60aa6a02:	60aa      	bteqz	60aa6958 <.LBE7+0x6>
60aa6a04:	68bd      	li	s0,189
60aa6a06:	60a6      	bteqz	60aa6954 <.LBE7+0x2>

60aa6a08 <i2s_mfp_cfg>:
60aa6a08:	b726      	lw	a3,60aa6aa0 <i2s_mfp_cfg+0x98>
60aa6a0a:	f200 6a01 	li	v0,513
60aa6a0e:	9fc0      	lw	a2,0(a3)
60aa6a10:	ec4b      	neg	a0,v0
60aa6a12:	ee8c      	and	a2,a0
60aa6a14:	dfc0      	sw	a2,0(a3)
60aa6a16:	b624      	lw	a2,60aa6aa4 <i2s_mfp_cfg+0x9c>
60aa6a18:	b325      	lw	v1,60aa6aac <i2s_mfp_cfg+0xa4>
60aa6a1a:	9ea0      	lw	a1,0(a2)
60aa6a1c:	ed8c      	and	a1,a0
60aa6a1e:	dea0      	sw	a1,0(a2)
60aa6a20:	b522      	lw	a1,60aa6aa8 <i2s_mfp_cfg+0xa0>
60aa6a22:	b424      	lw	a0,60aa6ab0 <i2s_mfp_cfg+0xa8>
60aa6a24:	9d40      	lw	v0,0(a1)
60aa6a26:	ea6c      	and	v0,v1
60aa6a28:	dd40      	sw	v0,0(a1)
60aa6a2a:	9d40      	lw	v0,0(a1)
60aa6a2c:	6bff      	li	v1,255
60aa6a2e:	ea8d      	or	v0,a0
60aa6a30:	dd40      	sw	v0,0(a1)
60aa6a32:	9f40      	lw	v0,0(a3)
60aa6a34:	4382      	addiu	a0,v1,2
60aa6a36:	eb8b      	neg	v1,a0
60aa6a38:	ea6c      	and	v0,v1
60aa6a3a:	df40      	sw	v0,0(a3)
60aa6a3c:	9e80      	lw	a0,0(a2)
60aa6a3e:	b21e      	lw	v0,60aa6ab4 <i2s_mfp_cfg+0xac>
60aa6a40:	ec6c      	and	a0,v1
60aa6a42:	de80      	sw	a0,0(a2)
60aa6a44:	9d80      	lw	a0,0(a1)
60aa6a46:	b31d      	lw	v1,60aa6ab8 <i2s_mfp_cfg+0xb0>
60aa6a48:	ec4c      	and	a0,v0
60aa6a4a:	dd80      	sw	a0,0(a1)
60aa6a4c:	9d40      	lw	v0,0(a1)
60aa6a4e:	6c41      	li	a0,65
60aa6a50:	ea6d      	or	v0,v1
60aa6a52:	b31b      	lw	v1,60aa6abc <i2s_mfp_cfg+0xb4>
60aa6a54:	dd40      	sw	v0,0(a1)
60aa6a56:	9b40      	lw	v0,0(v1)
60aa6a58:	ec8b      	neg	a0
60aa6a5a:	ea8c      	and	v0,a0
60aa6a5c:	db40      	sw	v0,0(v1)
60aa6a5e:	b319      	lw	v1,60aa6ac0 <i2s_mfp_cfg+0xb8>
60aa6a60:	9b40      	lw	v0,0(v1)
60aa6a62:	ea8c      	and	v0,a0
60aa6a64:	b418      	lw	a0,60aa6ac4 <i2s_mfp_cfg+0xbc>
60aa6a66:	db40      	sw	v0,0(v1)
60aa6a68:	9c40      	lw	v0,0(a0)
60aa6a6a:	b318      	lw	v1,60aa6ac8 <i2s_mfp_cfg+0xc0>
60aa6a6c:	ea6c      	and	v0,v1
60aa6a6e:	dc40      	sw	v0,0(a0)
60aa6a70:	9c40      	lw	v0,0(a0)
60aa6a72:	b317      	lw	v1,60aa6acc <i2s_mfp_cfg+0xc4>
60aa6a74:	ea6d      	or	v0,v1
60aa6a76:	dc40      	sw	v0,0(a0)
60aa6a78:	6b81      	li	v1,129
60aa6a7a:	9f40      	lw	v0,0(a3)
60aa6a7c:	eb6b      	neg	v1
60aa6a7e:	ea6c      	and	v0,v1
60aa6a80:	df40      	sw	v0,0(a3)
60aa6a82:	9ee0      	lw	a3,0(a2)
60aa6a84:	ef6c      	and	a3,v1
60aa6a86:	dee0      	sw	a3,0(a2)
60aa6a88:	9d80      	lw	a0,0(a1)
60aa6a8a:	f59f 4b00 	addiu	v1,-640
60aa6a8e:	ec6c      	and	a0,v1
60aa6a90:	dd80      	sw	a0,0(a1)
60aa6a92:	9d40      	lw	v0,0(a1)
60aa6a94:	f600 4b01 	addiu	v1,1537
60aa6a98:	ea6d      	or	v0,v1
60aa6a9a:	dd40      	sw	v0,0(a1)
60aa6a9c:	e8a0      	jrc	ra
60aa6a9e:	0000      	addiu	s0,sp,0
60aa6aa0:	0014      	addiu	s0,sp,80
60aa6aa2:	c009      	sb	s0,9(s0)
60aa6aa4:	0018      	addiu	s0,sp,96
60aa6aa6:	c009      	sb	s0,9(s0)
60aa6aa8:	0060      	addiu	s0,sp,384
60aa6aaa:	c009      	sb	s0,9(s0)
60aa6aac:	ffff      	daddiu	a3,sp,124
60aa6aae:	ff3f      	daddiu	s1,sp,124
60aa6ab0:	0000      	addiu	s0,sp,0
60aa6ab2:	0080      	addiu	s0,sp,512
60aa6ab4:	ffff      	daddiu	a3,sp,124
60aa6ab6:	ffcf      	daddiu	a2,sp,60
60aa6ab8:	0000      	addiu	s0,sp,0
60aa6aba:	0020      	addiu	s0,sp,128
60aa6abc:	0000      	addiu	s0,sp,0
60aa6abe:	c009      	sb	s0,9(s0)
60aa6ac0:	0004      	addiu	s0,sp,16
60aa6ac2:	c009      	sb	s0,9(s0)
60aa6ac4:	0058      	addiu	s0,sp,352
60aa6ac6:	c009      	sb	s0,9(s0)
60aa6ac8:	ffff      	daddiu	a3,sp,124
60aa6aca:	fff3      	daddiu	a3,sp,76
60aa6acc:	0000      	addiu	s0,sp,0
60aa6ace:	000c      	addiu	s0,sp,48
