
sbc_enc.exe:     file format elf32-tradlittlemips

Disassembly of section .text:

bfc3f800 <libc_op_entry>:
bfc3f800:	6b10      	li	v1,16
bfc3f802:	e805      	break	0

bfc3f804 <sys_op_entry>:
bfc3f804:	6b0f      	li	v1,15
bfc3f806:	e805      	break	0

bfc3f808 <sbc_crc8>:
bfc3f808:	64b1      	save	8,s0-s1
bfc3f80a:	37ae      	srl	a3,a1,3
bfc3f80c:	6724      	move	s1,a0
bfc3f80e:	680f      	li	s0,15
bfc3f810:	6a00      	li	v0,0
bfc3f812:	270b      	beqz	a3,bfc3f82a <sbc_crc8+0x22>
bfc3f814:	b413      	lw	a0,bfc3f860 <.LBE3+0x8>
bfc3f816:	67d1      	move	a2,s1
bfc3f818:	6767      	move	v1,a3
bfc3f81a:	a640      	lbu	v0,0(a2)
bfc3f81c:	436f      	addiu	v1,v1,-1
bfc3f81e:	ea0e      	xor	v0,s0
bfc3f820:	e289      	addu	v0,a0
bfc3f822:	a200      	lbu	s0,0(v0)
bfc3f824:	46c1      	addiu	a2,a2,1
bfc3f826:	2bf9      	bnez	v1,bfc3f81a <sbc_crc8+0x12>
bfc3f828:	6747      	move	v0,a3
bfc3f82a:	e14d      	addu	v1,s1,v0
bfc3f82c:	6a07      	li	v0,7
bfc3f82e:	eaac      	and	v0,a1
bfc3f830:	a380      	lbu	a0,0(v1)
bfc3f832:	2212      	beqz	v0,bfc3f858 <.LBE3>
bfc3f834:	67a2      	move	a1,v0

bfc3f836 <.LBB2>:
bfc3f836:	6a80      	li	v0,128
bfc3f838:	67c4      	move	a2,a0
bfc3f83a:	42ef      	addiu	a3,v0,-1
bfc3f83c:	ee0e      	xor	a2,s0
bfc3f83e:	e8ec      	and	s0,a3
bfc3f840:	3304      	sll	v1,s0,1
bfc3f842:	ee4c      	and	a2,v0
bfc3f844:	681d      	li	s0,29
bfc3f846:	e86e      	xor	s0,v1
bfc3f848:	2e02      	bnez	a2,bfc3f84e <.LBB2+0x18>
bfc3f84a:	6703      	move	s0,v1
bfc3f84c:	e811      	zeb	s0
bfc3f84e:	3384      	sll	v1,a0,1
bfc3f850:	6783      	move	a0,v1

bfc3f852 <.LBE2>:
bfc3f852:	45af      	addiu	a1,a1,-1

bfc3f854 <.LBB3>:
bfc3f854:	ec11      	zeb	a0
bfc3f856:	2def      	bnez	a1,bfc3f836 <.LBB2>

bfc3f858 <.LBE3>:
bfc3f858:	6750      	move	v0,s0
bfc3f85a:	6431      	restore	8,s0-s1
bfc3f85c:	e8a0      	jrc	ra
bfc3f85e:	0000      	addiu	s0,sp,0
bfc3f860:	fe40      	dla	v0,bfc3f860 <.LBE3+0x8>
bfc3f862:	bfc0      	lwu	a2,0(a3)

bfc3f864 <sbc_calculate_bits>:
bfc3f864:	64c3      	save	24,ra
bfc3f866:	a447      	lbu	v0,7(a0)
bfc3f868:	6e04      	li	a2,4
bfc3f86a:	7204      	cmpi	v0,4
bfc3f86c:	6001      	bteqz	bfc3f870 <sbc_calculate_bits+0xc>
bfc3f86e:	6e08      	li	a2,8
bfc3f870:	1e1f f5ff 	jalx	bfc3d7fc <sbc_calculate_bits_internal>
bfc3f874:	6500      	nop
bfc3f876:	6443      	restore	24,ra
bfc3f878:	e8a0      	jrc	ra
	...

bfc3f87c <sbc_analyze_audio>:
bfc3f87c:	f004 64f6 	save	a0,48,ra,s0-s1
bfc3f880:	a547      	lbu	v0,7(a1)
bfc3f882:	6725      	move	s1,a1
bfc3f884:	7204      	cmpi	v0,4
bfc3f886:	6003      	bteqz	bfc3f88e <sbc_analyze_audio+0x12>
bfc3f888:	7208      	cmpi	v0,8
bfc3f88a:	6004      	bteqz	bfc3f894 <sbc_analyze_audio+0x18>
bfc3f88c:	1031      	b	bfc3f8f0 <sbc_analyze_audio+0x74>
bfc3f88e:	a542      	lbu	v0,2(a1)
bfc3f890:	3248      	sll	v0,2
bfc3f892:	1030      	b	bfc3f8f4 <sbc_analyze_audio+0x78>
bfc3f894:	a564      	lbu	v1,4(a1)
bfc3f896:	6f00      	li	a3,0
bfc3f898:	2328      	beqz	v1,bfc3f8ea <sbc_analyze_audio+0x6e>
bfc3f89a:	d704      	sw	a3,16(sp)
bfc3f89c:	9504      	lw	a1,16(sp)
bfc3f89e:	a1c2      	lbu	a2,2(s1)
bfc3f8a0:	e5cd      	addu	v1,a1,a2
bfc3f8a2:	950c      	lw	a1,48(sp)
bfc3f8a4:	326c      	sll	v0,v1,3
bfc3f8a6:	9d80      	lw	a0,0(a1)
bfc3f8a8:	6b00      	li	v1,0
bfc3f8aa:	e281      	addu	s0,v0,a0
bfc3f8ac:	3404      	sll	a0,s0,1
bfc3f8ae:	e4a1      	addu	s0,a0,a1
bfc3f8b0:	48c4      	addiu	s0,-60
bfc3f8b2:	2614      	beqz	a2,bfc3f8dc <sbc_analyze_audio+0x60>
bfc3f8b4:	3278      	sll	v0,v1,6
bfc3f8b6:	940c      	lw	a0,48(sp)
bfc3f8b8:	36f4      	sll	a2,a3,5
bfc3f8ba:	e155      	addu	a1,s1,v0
bfc3f8bc:	e5d5      	addu	a1,a2
bfc3f8be:	f520 9c48 	lw	v0,1320(a0)
bfc3f8c2:	6e10      	li	a2,16
bfc3f8c4:	6790      	move	a0,s0
bfc3f8c6:	d306      	sw	v1,24(sp)
bfc3f8c8:	d707      	sw	a3,28(sp)
bfc3f8ca:	ea40      	jalr	v0
bfc3f8cc:	4d50      	addiu	a1,80
bfc3f8ce:	9606      	lw	a2,24(sp)
bfc3f8d0:	a1e2      	lbu	a3,2(s1)
bfc3f8d2:	4664      	addiu	v1,a2,4
bfc3f8d4:	ebe2      	slt	v1,a3
bfc3f8d6:	48c0      	addiu	s0,-64
bfc3f8d8:	9707      	lw	a3,28(sp)
bfc3f8da:	61ec      	btnez	bfc3f8b4 <sbc_analyze_audio+0x38>
bfc3f8dc:	9404      	lw	a0,16(sp)
bfc3f8de:	47e1      	addiu	a3,a3,1
bfc3f8e0:	4c29      	addiu	a0,41
bfc3f8e2:	d404      	sw	a0,16(sp)
bfc3f8e4:	a164      	lbu	v1,4(s1)
bfc3f8e6:	ef62      	slt	a3,v1
bfc3f8e8:	61d9      	btnez	bfc3f89c <sbc_analyze_audio+0x20>
bfc3f8ea:	a1e2      	lbu	a3,2(s1)
bfc3f8ec:	32ec      	sll	v0,a3,3
bfc3f8ee:	1002      	b	bfc3f8f4 <sbc_analyze_audio+0x78>
bfc3f8f0:	6d05      	li	a1,5
bfc3f8f2:	eaab      	neg	v0,a1
bfc3f8f4:	6476      	restore	48,ra,s0-s1
bfc3f8f6:	e8a0      	jrc	ra

bfc3f8f8 <sbc_pack_frame>:
bfc3f8f8:	64c4      	save	32,ra
bfc3f8fa:	a547      	lbu	v0,7(a1)
bfc3f8fc:	7204      	cmpi	v0,4
bfc3f8fe:	a544      	lbu	v0,4(a1)
bfc3f900:	6109      	btnez	bfc3f914 <sbc_pack_frame+0x1c>
bfc3f902:	ea11      	zeb	v0
bfc3f904:	7201      	cmpi	v0,1
bfc3f906:	6a01      	li	v0,1
bfc3f908:	6001      	bteqz	bfc3f90c <sbc_pack_frame+0x14>
bfc3f90a:	6a02      	li	v0,2
bfc3f90c:	d705      	sw	a3,20(sp)
bfc3f90e:	6f04      	li	a3,4
bfc3f910:	d204      	sw	v0,16(sp)
bfc3f912:	1008      	b	bfc3f924 <sbc_pack_frame+0x2c>
bfc3f914:	ea11      	zeb	v0
bfc3f916:	7201      	cmpi	v0,1
bfc3f918:	6a01      	li	v0,1
bfc3f91a:	6001      	bteqz	bfc3f91e <sbc_pack_frame+0x26>
bfc3f91c:	6a02      	li	v0,2
bfc3f91e:	d705      	sw	a3,20(sp)
bfc3f920:	d204      	sw	v0,16(sp)
bfc3f922:	6f08      	li	a3,8
bfc3f924:	1e1f f6c6 	jalx	bfc3db18 <sbc_pack_frame_internal>
bfc3f928:	6500      	nop
bfc3f92a:	6444      	restore	32,ra
bfc3f92c:	e8a0      	jrc	ra
	...

bfc3f930 <sbc_init_primitives>:
bfc3f930:	b611      	lw	a2,bfc3f974 <sbc_init_primitives+0x44>
bfc3f932:	b512      	lw	a1,bfc3f978 <sbc_init_primitives+0x48>
bfc3f934:	b312      	lw	v1,bfc3f97c <sbc_init_primitives+0x4c>
bfc3f936:	b213      	lw	v0,bfc3f980 <sbc_init_primitives+0x50>
bfc3f938:	f520 dcc4 	sw	a2,1316(a0)
bfc3f93c:	f520 dca8 	sw	a1,1320(a0)
bfc3f940:	f520 dc6c 	sw	v1,1324(a0)
bfc3f944:	b710      	lw	a3,bfc3f984 <sbc_init_primitives+0x54>
bfc3f946:	b611      	lw	a2,bfc3f988 <sbc_init_primitives+0x58>
bfc3f948:	b511      	lw	a1,bfc3f98c <sbc_init_primitives+0x5c>
bfc3f94a:	b312      	lw	v1,bfc3f990 <sbc_init_primitives+0x60>
bfc3f94c:	f520 dc50 	sw	v0,1328(a0)
bfc3f950:	0a06      	la	v0,bfc3f968 <sbc_init_primitives+0x38>
bfc3f952:	f520 dcf4 	sw	a3,1332(a0)
bfc3f956:	f520 dcd8 	sw	a2,1336(a0)
bfc3f95a:	f520 dcbc 	sw	a1,1340(a0)
bfc3f95e:	f540 dc60 	sw	v1,1344(a0)
bfc3f962:	f540 dc44 	sw	v0,1348(a0)
bfc3f966:	e8a0      	jrc	ra
bfc3f968:	6547      	move	v0,a3
bfc3f96a:	656e      	move	t3,a2
bfc3f96c:	6972      	li	s1,114
bfc3f96e:	2063      	beqz	s0,bfc3fa36 <sbc_get_frame_length+0x32>
bfc3f970:	0043      	addiu	s0,sp,268
bfc3f972:	0000      	addiu	s0,sp,0
bfc3f974:	d275      	sw	v0,468(sp)
bfc3f976:	bfc3      	lwu	a2,12(a3)
bfc3f978:	d279      	sw	v0,484(sp)
bfc3f97a:	bfc3      	lwu	a2,12(a3)
bfc3f97c:	d7cd      	sw	a3,820(sp)
bfc3f97e:	bfc3      	lwu	a2,12(a3)
bfc3f980:	d7d1      	sw	a3,836(sp)
bfc3f982:	bfc3      	lwu	a2,12(a3)
bfc3f984:	d7d5      	sw	a3,852(sp)
bfc3f986:	bfc3      	lwu	a2,12(a3)
bfc3f988:	d7f5      	sw	a3,980(sp)
bfc3f98a:	bfc3      	lwu	a2,12(a3)
bfc3f98c:	d7f9      	sw	a3,996(sp)
bfc3f98e:	bfc3      	lwu	a2,12(a3)
bfc3f990:	fb8d      	daddiu	sp,-920
bfc3f992:	bfc3      	lwu	a2,12(a3)

bfc3f994 <sbc_encoder_init>:
bfc3f994:	64f4      	save	32,ra,s0-s1
bfc3f996:	b20d      	lw	v0,bfc3f9c8 <sbc_encoder_init+0x34>
bfc3f998:	6704      	move	s0,a0
bfc3f99a:	6725      	move	s1,a1
bfc3f99c:	4484      	addiu	a0,a0,4
bfc3f99e:	6d00      	li	a1,0
bfc3f9a0:	f520 6e00 	li	a2,1312
bfc3f9a4:	ea40      	jalr	v0
bfc3f9a6:	6f01      	li	a3,1
bfc3f9a8:	a147      	lbu	v0,7(s1)
bfc3f9aa:	6dff      	li	a1,255
bfc3f9ac:	374c      	sll	a3,v0,3
bfc3f9ae:	e759      	addu	a2,a3,v0
bfc3f9b0:	4d49      	addiu	a1,73
bfc3f9b2:	6c08      	li	a0,8
bfc3f9b4:	eb8b      	neg	v1,a0
bfc3f9b6:	e5cb      	subu	v0,a1,a2
bfc3f9b8:	ea6c      	and	v0,v1
bfc3f9ba:	d840      	sw	v0,0(s0)
bfc3f9bc:	1a1f fe4c 	jal	bfc3f930 <sbc_init_primitives>
bfc3f9c0:	6790      	move	a0,s0
bfc3f9c2:	6474      	restore	32,ra,s0-s1
bfc3f9c4:	e8a0      	jrc	ra
bfc3f9c6:	0000      	addiu	s0,sp,0
bfc3f9c8:	f801      	ld	s0,8(sp)
bfc3f9ca:	bfc3      	lwu	a2,12(a3)

bfc3f9cc <sbc_get_codesize>:
bfc3f9cc:	6764      	move	v1,a0
bfc3f9ce:	9c83      	lw	a0,12(a0)
bfc3f9d0:	9c40      	lw	v0,0(a0)
bfc3f9d2:	2a0d      	bnez	v0,bfc3f9ee <sbc_get_codesize+0x22>
bfc3f9d4:	a386      	lbu	a0,6(v1)
bfc3f9d6:	6f08      	li	a3,8
bfc3f9d8:	2c01      	bnez	a0,bfc3f9dc <sbc_get_codesize+0x10>
bfc3f9da:	47ec      	addiu	a3,a3,-4
bfc3f9dc:	a3c5      	lbu	a2,5(v1)
bfc3f9de:	a387      	lbu	a0,7(v1)
bfc3f9e0:	32c8      	sll	v0,a2,2
bfc3f9e2:	42c4      	addiu	a2,v0,4
bfc3f9e4:	ea8b      	neg	v0,a0
bfc3f9e6:	f7c0 3342 	srl	v1,v0,31
bfc3f9ea:	4341      	addiu	v0,v1,1
bfc3f9ec:	1003      	b	bfc3f9f4 <sbc_get_codesize+0x28>
bfc3f9ee:	a4eb      	lbu	a3,11(a0)
bfc3f9f0:	a4c6      	lbu	a2,6(a0)
bfc3f9f2:	a448      	lbu	v0,8(a0)
bfc3f9f4:	efd8      	mult	a3,a2
bfc3f9f6:	37ae      	srl	a3,a1,3
bfc3f9f8:	ec12      	mflo	a0
bfc3f9fa:	ec58      	mult	a0,v0
bfc3f9fc:	eb12      	mflo	v1
bfc3f9fe:	ebf8      	mult	v1,a3
bfc3fa00:	e820      	jr	ra
bfc3fa02:	ea12      	mflo	v0

bfc3fa04 <sbc_get_frame_length>:
bfc3fa04:	64a1      	save	8,s0
bfc3fa06:	9ca3      	lw	a1,12(a0)
bfc3fa08:	9d40      	lw	v0,0(a1)
bfc3fa0a:	2206      	beqz	v0,bfc3fa18 <sbc_get_frame_length+0x14>
bfc3fa0c:	a5cc      	lbu	a2,12(a1)
bfc3fa0e:	a469      	lbu	v1,9(a0)
bfc3fa10:	ee6e      	xor	a2,v1
bfc3fa12:	2e02      	bnez	a2,bfc3fa18 <sbc_get_frame_length+0x14>
bfc3fa14:	a550      	lbu	v0,16(a1)
bfc3fa16:	1027      	b	bfc3fa66 <sbc_get_frame_length+0x62>
bfc3fa18:	a4a6      	lbu	a1,6(a0)
bfc3fa1a:	6f08      	li	a3,8
bfc3fa1c:	2d01      	bnez	a1,bfc3fa20 <sbc_get_frame_length+0x1c>
bfc3fa1e:	47ec      	addiu	a3,a3,-4
bfc3fa20:	a445      	lbu	v0,5(a0)
bfc3fa22:	3648      	sll	a2,v0,2
bfc3fa24:	4664      	addiu	v1,a2,4
bfc3fa26:	67c3      	move	a2,v1
bfc3fa28:	a467      	lbu	v1,7(a0)
bfc3fa2a:	6a03      	li	v0,3
bfc3fa2c:	ed6b      	neg	a1,v1
bfc3fa2e:	f7c0 30a2 	srl	s0,a1,31
bfc3fa32:	40a1      	addiu	a1,s0,1
bfc3fa34:	efb8      	mult	a3,a1
bfc3fa36:	eb4e      	xor	v1,v0
bfc3fa38:	e812      	mflo	s0
bfc3fa3a:	5b01      	sltiu	v1,1
bfc3fa3c:	6778      	move	v1,t8
bfc3fa3e:	3207      	sra	v0,s0,1
bfc3fa40:	7501      	cmpi	a1,1
bfc3fa42:	ee11      	zeb	a2
bfc3fa44:	a489      	lbu	a0,9(a0)
bfc3fa46:	4204      	addiu	s0,v0,4
bfc3fa48:	6106      	btnez	bfc3fa56 <sbc_get_frame_length+0x52>
bfc3fa4a:	eeb8      	mult	a2,a1
bfc3fa4c:	ef12      	mflo	a3
bfc3fa4e:	ef98      	mult	a3,a0
bfc3fa50:	ec12      	mflo	a0
bfc3fa52:	4447      	addiu	v0,a0,7
bfc3fa54:	1006      	b	bfc3fa62 <sbc_get_frame_length+0x5e>
bfc3fa56:	ee98      	mult	a2,a0
bfc3fa58:	ea12      	mflo	v0
bfc3fa5a:	6500      	nop
bfc3fa5c:	2301      	beqz	v1,bfc3fa60 <sbc_get_frame_length+0x5c>
bfc3fa5e:	e749      	addu	v0,a3,v0
bfc3fa60:	4247      	addiu	v0,v0,7
bfc3fa62:	354f      	sra	a1,v0,3
bfc3fa64:	e0a9      	addu	v0,s0,a1
bfc3fa66:	6421      	restore	8,s0
bfc3fa68:	e8a0      	jrc	ra
	...

bfc3fa6c <sbc_encode>:
bfc3fa6c:	f00e 64f6 	save	a0-a3,48,ra,s0-s1
bfc3fa70:	6724      	move	s1,a0
bfc3fa72:	2401      	beqz	a0,bfc3fa76 <sbc_encode+0xa>
bfc3fa74:	2d02      	bnez	a1,bfc3fa7a <sbc_encode+0xe>
bfc3fa76:	6a05      	li	v0,5
bfc3fa78:	104a      	b	bfc3fb0e <sbc_encode+0xa2>
bfc3fa7a:	9213      	lw	v0,76(sp)
bfc3fa7c:	9c03      	lw	s0,12(a0)
bfc3fa7e:	2203      	beqz	v0,bfc3fa86 <sbc_encode+0x1a>
bfc3fa80:	9313      	lw	v1,76(sp)
bfc3fa82:	6c00      	li	a0,0
bfc3fa84:	db80      	sw	a0,0(v1)
bfc3fa86:	98a0      	lw	a1,0(s0)
bfc3fa88:	2d2c      	bnez	a1,bfc3fae2 <sbc_encode+0x76>
bfc3fa8a:	a144      	lbu	v0,4(s1)
bfc3fa8c:	c044      	sb	v0,4(s0)
bfc3fa8e:	a1e7      	lbu	a3,7(s1)
bfc3fa90:	c0e7      	sb	a3,7(s0)
bfc3fa92:	a1c7      	lbu	a2,7(s1)
bfc3fa94:	edcb      	neg	a1,a2
bfc3fa96:	f7c0 34a2 	srl	a0,a1,31
bfc3fa9a:	4461      	addiu	v1,a0,1
bfc3fa9c:	c068      	sb	v1,8(s0)
bfc3fa9e:	a148      	lbu	v0,8(s1)
bfc3faa0:	6b08      	li	v1,8
bfc3faa2:	c049      	sb	v0,9(s0)
bfc3faa4:	a1e6      	lbu	a3,6(s1)
bfc3faa6:	c0ea      	sb	a3,10(s0)
bfc3faa8:	a1c6      	lbu	a2,6(s1)
bfc3faaa:	2e01      	bnez	a2,bfc3faae <sbc_encode+0x42>
bfc3faac:	6b04      	li	v1,4
bfc3faae:	c06b      	sb	v1,11(s0)
bfc3fab0:	a145      	lbu	v0,5(s1)
bfc3fab2:	c045      	sb	v0,5(s0)
bfc3fab4:	a1e5      	lbu	a3,5(s1)
bfc3fab6:	36e8      	sll	a2,a3,2
bfc3fab8:	46a4      	addiu	a1,a2,4
bfc3faba:	c0a6      	sb	a1,6(s0)
bfc3fabc:	a189      	lbu	a0,9(s1)
bfc3fabe:	c08c      	sb	a0,12(s0)
bfc3fac0:	950f      	lw	a1,60(sp)
bfc3fac2:	1a1f fe73 	jal	bfc3f9cc <sbc_get_codesize>
bfc3fac6:	6791      	move	a0,s1
bfc3fac8:	c847      	sh	v0,14(s0)
bfc3faca:	1a1f fe81 	jal	bfc3fa04 <sbc_get_frame_length>
bfc3face:	6791      	move	a0,s1
bfc3fad0:	c050      	sb	v0,16(s0)
bfc3fad2:	f450 4084 	addiu	a0,s0,1108
bfc3fad6:	1a1f fe65 	jal	bfc3f994 <sbc_encoder_init>
bfc3fada:	40a4      	addiu	a1,s0,4
bfc3fadc:	6b01      	li	v1,1
bfc3fade:	d860      	sw	v1,0(s0)
bfc3fae0:	100a      	b	bfc3faf6 <sbc_encode+0x8a>
bfc3fae2:	a08c      	lbu	a0,12(s0)
bfc3fae4:	a169      	lbu	v1,9(s1)
bfc3fae6:	ec6e      	xor	a0,v1
bfc3fae8:	2406      	beqz	a0,bfc3faf6 <sbc_encode+0x8a>
bfc3faea:	1a1f fe81 	jal	bfc3fa04 <sbc_get_frame_length>
bfc3faee:	6791      	move	a0,s1
bfc3faf0:	c050      	sb	v0,16(s0)
bfc3faf2:	a1a9      	lbu	a1,9(s1)
bfc3faf4:	c0ac      	sb	a1,12(s0)
bfc3faf6:	a8c7      	lhu	a2,14(s0)
bfc3faf8:	970e      	lw	a3,56(sp)
bfc3fafa:	6a00      	li	v0,0
bfc3fafc:	efc3      	sltu	a3,a2
bfc3fafe:	6144      	btnez	bfc3fb88 <.LBE4+0x18>
bfc3fb00:	9211      	lw	v0,68(sp)
bfc3fb02:	2204      	beqz	v0,bfc3fb0c <sbc_encode+0xa0>
bfc3fb04:	a090      	lbu	a0,16(s0)
bfc3fb06:	9312      	lw	v1,72(sp)
bfc3fb08:	eb83      	sltu	v1,a0
bfc3fb0a:	6003      	bteqz	bfc3fb12 <sbc_encode+0xa6>
bfc3fb0c:	6a1c      	li	v0,28
bfc3fb0e:	ea4b      	neg	v0
bfc3fb10:	103b      	b	bfc3fb88 <.LBE4+0x18>
bfc3fb12:	a02b      	lbu	s1,11(s0)
bfc3fb14:	7108      	cmpi	s1,8
bfc3fb16:	6103      	btnez	bfc3fb1e <sbc_encode+0xb2>
bfc3fb18:	f181 9868 	lw	v1,2440(s0)
bfc3fb1c:	1002      	b	bfc3fb22 <sbc_encode+0xb6>
bfc3fb1e:	f181 9860 	lw	v1,2432(s0)
bfc3fb22:	a0e6      	lbu	a3,6(s0)
bfc3fb24:	a0c8      	lbu	a2,8(s0)
bfc3fb26:	e9f8      	mult	s1,a3
bfc3fb28:	f440 9894 	lw	a0,1108(s0)
bfc3fb2c:	950d      	lw	a1,52(sp)
bfc3fb2e:	d604      	sw	a2,16(sp)
bfc3fb30:	f450 40c8 	addiu	a2,s0,1112
bfc3fb34:	eb40      	jalr	v1
bfc3fb36:	ef12      	mflo	a3
bfc3fb38:	4024      	addiu	s1,s0,4
bfc3fb3a:	f440 d854 	sw	v0,1108(s0)
bfc3fb3e:	f450 4084 	addiu	a0,s0,1108
bfc3fb42:	1a1f fe1f 	jal	bfc3f87c <sbc_analyze_audio>
bfc3fb46:	67b1      	move	a1,s1
bfc3fb48:	a0a7      	lbu	a1,7(s0)
bfc3fb4a:	d206      	sw	v0,24(sp)
bfc3fb4c:	7503      	cmpi	a1,3
bfc3fb4e:	6110      	btnez	bfc3fb70 <.LBE4>

bfc3fb50 <.LBB4>:
bfc3fb50:	a0c6      	lbu	a2,6(s0)
bfc3fb52:	a0eb      	lbu	a3,11(s0)
bfc3fb54:	f181 9854 	lw	v0,2452(s0)
bfc3fb58:	6790      	move	a0,s0
bfc3fb5a:	67b0      	move	a1,s0
bfc3fb5c:	4c54      	addiu	a0,84
bfc3fb5e:	ea40      	jalr	v0
bfc3fb60:	4d14      	addiu	a1,20
bfc3fb62:	9411      	lw	a0,68(sp)
bfc3fb64:	9612      	lw	a2,72(sp)
bfc3fb66:	67b1      	move	a1,s1
bfc3fb68:	1a1f fe3e 	jal	bfc3f8f8 <sbc_pack_frame>
bfc3fb6c:	67e2      	move	a3,v0
bfc3fb6e:	d207      	sw	v0,28(sp)

bfc3fb70 <.LBE4>:
bfc3fb70:	9213      	lw	v0,76(sp)
bfc3fb72:	2202      	beqz	v0,bfc3fb78 <.LBE4+0x8>
bfc3fb74:	9407      	lw	a0,28(sp)
bfc3fb76:	da80      	sw	a0,0(v0)
bfc3fb78:	a048      	lbu	v0,8(s0)
bfc3fb7a:	9406      	lw	a0,24(sp)
bfc3fb7c:	970f      	lw	a3,60(sp)
bfc3fb7e:	ec58      	mult	a0,v0
bfc3fb80:	35ee      	srl	a1,a3,3
bfc3fb82:	eb12      	mflo	v1
bfc3fb84:	ebb8      	mult	v1,a1
bfc3fb86:	ea12      	mflo	v0
bfc3fb88:	6476      	restore	48,ra,s0-s1
bfc3fb8a:	e8a0      	jrc	ra

bfc3fb8c <sbc_calc_scalefactors_j>:
bfc3fb8c:	f01e 64f8 	save	a0-a3,192,ra,s0-s1
bfc3fb90:	6a00      	li	v0,0
bfc3fb92:	476f      	addiu	v1,a3,-1
bfc3fb94:	eac2      	slt	v0,a2
bfc3fb96:	f010 6f00 	li	a3,32768
bfc3fb9a:	d224      	sw	v0,144(sp)
bfc3fb9c:	d325      	sw	v1,148(sp)
bfc3fb9e:	6787      	move	a0,a3
bfc3fba0:	6014      	bteqz	bfc3fbca <sbc_calc_scalefactors_j+0x3e>
bfc3fba2:	3068      	sll	s0,v1,2
bfc3fba4:	9330      	lw	v1,192(sp)
bfc3fba6:	e075      	addu	a1,s0,v1
bfc3fba8:	9d40      	lw	v0,0(a1)
bfc3fbaa:	5200      	slti	v0,0
bfc3fbac:	6001      	bteqz	bfc3fbb0 <sbc_calc_scalefactors_j+0x24>
bfc3fbae:	ea4b      	neg	v0
bfc3fbb0:	9d68      	lw	v1,32(a1)
bfc3fbb2:	5300      	slti	v1,0
bfc3fbb4:	6001      	bteqz	bfc3fbb8 <sbc_calc_scalefactors_j+0x2c>
bfc3fbb6:	eb6b      	neg	v1
bfc3fbb8:	2202      	beqz	v0,bfc3fbbe <sbc_calc_scalefactors_j+0x32>
bfc3fbba:	422f      	addiu	s1,v0,-1
bfc3fbbc:	ec2d      	or	a0,s1
bfc3fbbe:	2302      	beqz	v1,bfc3fbc4 <sbc_calc_scalefactors_j+0x38>
bfc3fbc0:	434f      	addiu	v0,v1,-1
bfc3fbc2:	ef4d      	or	a3,v0
bfc3fbc4:	46cf      	addiu	a2,a2,-1
bfc3fbc6:	4d40      	addiu	a1,64
bfc3fbc8:	2eef      	bnez	a2,bfc3fba8 <sbc_calc_scalefactors_j+0x1c>
bfc3fbca:	9325      	lw	v1,148(sp)
bfc3fbcc:	9631      	lw	a2,196(sp)
bfc3fbce:	3268      	sll	v0,v1,2
bfc3fbd0:	e2c5      	addu	s1,v0,a2
bfc3fbd2:	d72b      	sw	a3,172(sp)
bfc3fbd4:	1a1f ff49 	jal	bfc3fd24 <sbc_clz>
bfc3fbd8:	6810      	li	s0,16
bfc3fbda:	972b      	lw	a3,172(sp)
bfc3fbdc:	e057      	subu	a1,s0,v0
bfc3fbde:	6787      	move	a0,a3
bfc3fbe0:	1a1f ff49 	jal	bfc3fd24 <sbc_clz>
bfc3fbe4:	d9a0      	sw	a1,0(s1)
bfc3fbe6:	9425      	lw	a0,148(sp)
bfc3fbe8:	e043      	subu	s0,v0
bfc3fbea:	448f      	addiu	a0,a0,-1
bfc3fbec:	5400      	slti	a0,0
bfc3fbee:	d908      	sw	s0,32(s1)
bfc3fbf0:	d427      	sw	a0,156(sp)
bfc3fbf2:	f080 6113 	btnez	bfc3fd1c <.LBE135+0x14>
bfc3fbf6:	3088      	sll	s0,a0,2
bfc3fbf8:	9431      	lw	a0,196(sp)
bfc3fbfa:	d026      	sw	s0,152(sp)
bfc3fbfc:	e085      	addu	s1,s0,a0

bfc3fbfe <.LBB135>:
bfc3fbfe:	9732      	lw	a3,200(sp)
bfc3fc00:	6d00      	li	a1,0
bfc3fc02:	f010 6e00 	li	a2,32768
bfc3fc06:	ede2      	slt	a1,a3
bfc3fc08:	d628      	sw	a2,160(sp)
bfc3fc0a:	65fe      	move	ra,a2
bfc3fc0c:	653d      	move	t9,a1
bfc3fc0e:	6026      	bteqz	bfc3fc5c <.LBB135+0x5e>
bfc3fc10:	9326      	lw	v1,152(sp)
bfc3fc12:	9230      	lw	v0,192(sp)
bfc3fc14:	e341      	addu	s0,v1,v0
bfc3fc16:	98c0      	lw	a2,0(s0)
bfc3fc18:	98e8      	lw	a3,32(s0)
bfc3fc1a:	67b9      	move	a1,t9
bfc3fc1c:	34ac      	sll	a0,a1,3
bfc3fc1e:	0204      	addiu	v0,sp,16
bfc3fc20:	e451      	addu	a0,v0
bfc3fc22:	35e7      	sra	a1,a3,1
bfc3fc24:	32c7      	sra	v0,a2,1
bfc3fc26:	e2ad      	addu	v1,v0,a1
bfc3fc28:	5600      	slti	a2,0
bfc3fc2a:	e2ab      	subu	v0,a1
bfc3fc2c:	dc60      	sw	v1,0(a0)
bfc3fc2e:	dc41      	sw	v0,4(a0)
bfc3fc30:	6001      	bteqz	bfc3fc34 <.LBB135+0x36>
bfc3fc32:	eecb      	neg	a2
bfc3fc34:	5700      	slti	a3,0
bfc3fc36:	6001      	bteqz	bfc3fc3a <.LBB135+0x3c>
bfc3fc38:	efeb      	neg	a3
bfc3fc3a:	2604      	beqz	a2,bfc3fc44 <.LBB135+0x46>
bfc3fc3c:	466f      	addiu	v1,a2,-1
bfc3fc3e:	67df      	move	a2,ra
bfc3fc40:	ee6d      	or	a2,v1
bfc3fc42:	65fe      	move	ra,a2
bfc3fc44:	2704      	beqz	a3,bfc3fc4e <.LBB135+0x50>
bfc3fc46:	478f      	addiu	a0,a3,-1
bfc3fc48:	9728      	lw	a3,160(sp)
bfc3fc4a:	ef8d      	or	a3,a0
bfc3fc4c:	d728      	sw	a3,160(sp)
bfc3fc4e:	67d9      	move	a2,t9
bfc3fc50:	9232      	lw	v0,200(sp)
bfc3fc52:	46a1      	addiu	a1,a2,1
bfc3fc54:	ed42      	slt	a1,v0
bfc3fc56:	653d      	move	t9,a1
bfc3fc58:	4840      	addiu	s0,64
bfc3fc5a:	61dd      	btnez	bfc3fc16 <.LBB135+0x18>
bfc3fc5c:	679f      	move	a0,ra
bfc3fc5e:	1a1f ff49 	jal	bfc3fd24 <sbc_clz>
bfc3fc62:	6810      	li	s0,16
bfc3fc64:	e05f      	subu	a3,s0,v0
bfc3fc66:	9428      	lw	a0,160(sp)
bfc3fc68:	1a1f ff49 	jal	bfc3fd24 <sbc_clz>
bfc3fc6c:	d9e0      	sw	a3,0(s1)
bfc3fc6e:	e04f      	subu	v1,s0,v0
bfc3fc70:	d968      	sw	v1,32(s1)
bfc3fc72:	9032      	lw	s0,200(sp)
bfc3fc74:	f010 6e00 	li	a2,32768
bfc3fc78:	6d00      	li	a1,0
bfc3fc7a:	6786      	move	a0,a2
bfc3fc7c:	ed02      	slt	a1,s0
bfc3fc7e:	6015      	bteqz	bfc3fcaa <.LBB135+0xac>
bfc3fc80:	32ac      	sll	v0,a1,3
bfc3fc82:	0304      	addiu	v1,sp,16
bfc3fc84:	e26d      	addu	v1,v0,v1
bfc3fc86:	9b40      	lw	v0,0(v1)
bfc3fc88:	5200      	slti	v0,0
bfc3fc8a:	6001      	bteqz	bfc3fc8e <.LBB135+0x90>
bfc3fc8c:	ea4b      	neg	v0
bfc3fc8e:	9b61      	lw	v1,4(v1)
bfc3fc90:	5300      	slti	v1,0
bfc3fc92:	6001      	bteqz	bfc3fc96 <.LBB135+0x98>
bfc3fc94:	eb6b      	neg	v1
bfc3fc96:	2202      	beqz	v0,bfc3fc9c <.LBB135+0x9e>
bfc3fc98:	420f      	addiu	s0,v0,-1
bfc3fc9a:	ec0d      	or	a0,s0
bfc3fc9c:	2302      	beqz	v1,bfc3fca2 <.LBB135+0xa4>
bfc3fc9e:	43ef      	addiu	a3,v1,-1
bfc3fca0:	eeed      	or	a2,a3
bfc3fca2:	9332      	lw	v1,200(sp)
bfc3fca4:	45a1      	addiu	a1,a1,1
bfc3fca6:	ed62      	slt	a1,v1
bfc3fca8:	17ea      	b	bfc3fc7e <.LBB135+0x80>
bfc3fcaa:	1a1f ff49 	jal	bfc3fd24 <sbc_clz>
bfc3fcae:	d62a      	sw	a2,168(sp)
bfc3fcb0:	932a      	lw	v1,168(sp)
bfc3fcb2:	6810      	li	s0,16
bfc3fcb4:	e057      	subu	a1,s0,v0
bfc3fcb6:	6783      	move	a0,v1
bfc3fcb8:	1a1f ff49 	jal	bfc3fd24 <sbc_clz>
bfc3fcbc:	d529      	sw	a1,164(sp)
bfc3fcbe:	e043      	subu	s0,v0
bfc3fcc0:	99e8      	lw	a3,32(s1)
bfc3fcc2:	9940      	lw	v0,0(s1)
bfc3fcc4:	9429      	lw	a0,164(sp)
bfc3fcc6:	e2f5      	addu	a1,v0,a3
bfc3fcc8:	e419      	addu	a2,a0,s0
bfc3fcca:	eea3      	sltu	a2,a1
bfc3fccc:	601d      	bteqz	bfc3fd08 <.LBE135>
bfc3fcce:	9233      	lw	v0,204(sp)
bfc3fcd0:	9427      	lw	a0,156(sp)
bfc3fcd2:	d908      	sw	s0,32(s1)
bfc3fcd4:	e29b      	subu	a2,v0,a0
bfc3fcd6:	9229      	lw	v0,164(sp)
bfc3fcd8:	466f      	addiu	v1,a2,-1
bfc3fcda:	d940      	sw	v0,0(s1)
bfc3fcdc:	9724      	lw	a3,144(sp)
bfc3fcde:	6d01      	li	a1,1
bfc3fce0:	9632      	lw	a2,200(sp)
bfc3fce2:	eba4      	sllv	a1,v1
bfc3fce4:	6c00      	li	a0,0
bfc3fce6:	efad      	or	a3,a1
bfc3fce8:	ecc2      	slt	a0,a2
bfc3fcea:	d724      	sw	a3,144(sp)
bfc3fcec:	600d      	bteqz	bfc3fd08 <.LBE135>
bfc3fcee:	9626      	lw	a2,152(sp)
bfc3fcf0:	9730      	lw	a3,192(sp)
bfc3fcf2:	9432      	lw	a0,200(sp)
bfc3fcf4:	0504      	addiu	a1,sp,16
bfc3fcf6:	e6ed      	addu	v1,a2,a3
bfc3fcf8:	9de0      	lw	a3,0(a1)
bfc3fcfa:	448f      	addiu	a0,a0,-1
bfc3fcfc:	dbe0      	sw	a3,0(v1)
bfc3fcfe:	9d41      	lw	v0,4(a1)
bfc3fd00:	4d08      	addiu	a1,8
bfc3fd02:	db48      	sw	v0,32(v1)
bfc3fd04:	4b40      	addiu	v1,64
bfc3fd06:	2cf8      	bnez	a0,bfc3fcf8 <.LBB135+0xfa>

bfc3fd08 <.LBE135>:
bfc3fd08:	9327      	lw	v1,156(sp)
bfc3fd0a:	9626      	lw	a2,152(sp)
bfc3fd0c:	43af      	addiu	a1,v1,-1
bfc3fd0e:	468c      	addiu	a0,a2,-4
bfc3fd10:	5500      	slti	a1,0
bfc3fd12:	d527      	sw	a1,156(sp)
bfc3fd14:	d426      	sw	a0,152(sp)
bfc3fd16:	412c      	addiu	s1,s1,-4
bfc3fd18:	f77f 6011 	bteqz	bfc3fbfe <.LBB135>
bfc3fd1c:	9224      	lw	v0,144(sp)
bfc3fd1e:	f010 6478 	restore	192,ra,s0-s1
bfc3fd22:	e8a0      	jrc	ra

bfc3fd24 <sbc_clz>:
bfc3fd24:	6b00      	li	v1,0
bfc3fd26:	2403      	beqz	a0,bfc3fd2e <sbc_clz+0xa>
bfc3fd28:	4361      	addiu	v1,v1,1
bfc3fd2a:	3486      	srl	a0,1
bfc3fd2c:	17fc      	b	bfc3fd26 <sbc_clz+0x2>
bfc3fd2e:	6a20      	li	v0,32
bfc3fd30:	e820      	jr	ra
bfc3fd32:	e26b      	subu	v0,v1

bfc3fd34 <sbc_encode_entry>:
bfc3fd34:	64e5      	save	40,ra,s0
bfc3fd36:	9d43      	lw	v0,12(a1)
bfc3fd38:	9d01      	lw	s0,4(a1)
bfc3fd3a:	9d60      	lw	v1,0(a1)
bfc3fd3c:	9de2      	lw	a3,8(a1)
bfc3fd3e:	d204      	sw	v0,16(sp)
bfc3fd40:	9d44      	lw	v0,16(a1)
bfc3fd42:	d205      	sw	v0,20(sp)
bfc3fd44:	9d45      	lw	v0,20(a1)
bfc3fd46:	d607      	sw	a2,28(sp)
bfc3fd48:	67a3      	move	a1,v1
bfc3fd4a:	67d0      	move	a2,s0
bfc3fd4c:	1a1f fe9b 	jal	bfc3fa6c <sbc_encode>
bfc3fd50:	d206      	sw	v0,24(sp)
bfc3fd52:	6465      	restore	40,ra,s0
bfc3fd54:	e8a0      	jrc	ra
bfc3fd56:	6500      	nop
Disassembly of section .data:

bfc3fd58 <blk_op>:
bfc3fd58:	12009001 	beqz	s0,bfc23d60 <crc_table+0x13f20>
bfc3fd5c:	12009085 	beqz	s0,bfc23f74 <crc_table+0x14134>
bfc3fd60:	bfc3fd35 	cache	0x3,-715(s8)
Disassembly of section .bss:

bfc3fd64 <.bss>:
	...
Disassembly of section .text1:

bfc0fc00 <analysis_consts_fixed8_simd_even>:
bfc0fc00:	01700000 	0x1700000
bfc0fc04:	011c0019 	multu	t0,gp
bfc0fc08:	010f003f 	0x10f003f
bfc0fc0c:	00ed0073 	tltu	a3,t5,0x1
bfc0fc10:	0000ff77 	0xff77
bfc0fc14:	022c014f 	0x22c014f
bfc0fc18:	012f016e 	0x12f016e
bfc0fc1c:	00250150 	0x250150
bfc0fc20:	093e040b 	j	b4f8102c <RDATA_HCI_UART_RX_ADDR+0x1536372c>
bfc0fc24:	098404fd 	j	b61013f4 <RDATA_HCI_UART_RX_ADDR+0x164e3af4>
bfc0fc28:	0ba20780 	j	be881e00 <RDATA_HCI_UART_RX_ADDR+0x1ec64500>
bfc0fc2c:	0ce90a59 	jal	b3a42964 <RDATA_HCI_UART_RX_ADDR+0x13e25064>
bfc0fc30:	0000f67b 	0xf67b
bfc0fc34:	210c0581 	addi	t4,t0,1409
bfc0fc38:	1c060219 	0x1c060219
bfc0fc3c:	1532fc02 	bne	t1,s2,bfc0ec48 <RCODE_ADDR_BASE+0xec48>
bfc0fc40:	68fc3094 	0x68fc3094
bfc0fc44:	5a55338f 	0x5a55338f
bfc0fc48:	64f345fb 	0x64f345fb
bfc0fc4c:	6c2f5a45 	0x6c2f5a45
bfc0fc50:	0000afeb 	0xafeb
bfc0fc54:	cc715a55 	pref	0x11,23125(v1)
bfc0fc58:	ba0564f3 	swr	a1,25843(s0)
bfc0fc5c:	a5bb6c2f 	sh	k1,27695(t5)
bfc0fc60:	093ecf6c 	j	b4fb3db0 <RDATA_HCI_UART_RX_ADDR+0x153964b0>
bfc0fc64:	0581def4 	bgez	t4,bfc07838 <RCODE_ADDR_BASE+0x7838>
bfc0fc68:	0219e3fa 	0x219e3fa
bfc0fc6c:	fc02eace 	sdc3	$2,-5426(zero)
bfc0fc70:	00000983 	sra	at,zero,0x6
bfc0fc74:	fb030984 	sdc2	$3,2436(t8)
bfc0fc78:	f8800ba2 	sdc2	$0,2978(a0)
bfc0fc7c:	f5a70ce9 	sdc1	$f7,3305(t5)
bfc0fc80:	0170fbf5 	0x170fbf5
bfc0fc84:	014ffdd4 	0x14ffdd4
bfc0fc88:	016efed1 	0x16efed1
bfc0fc8c:	0150ffdb 	0x150ffdb
bfc0fc90:	0000ff6a 	0xff6a
bfc0fc94:	ffe7011c 	sdc3	$7,284(ra)
bfc0fc98:	ffc1010f 	sdc3	$1,271(s8)
bfc0fc9c:	ff8d00ed 	sdc3	$13,237(gp)
bfc0fca0:	2bda206f 	slti	k0,s8,8303
bfc0fca4:	f5b6df91 	sdc1	$f22,-8303(t5)
bfc0fca8:	cc46df91 	pref	0x6,-8303(v0)
bfc0fcac:	e2b3206f 	sc	s3,8303(s5)
bfc0fcb0:	1d4d206f 	0x1d4d206f
bfc0fcb4:	33badf91 	andi	k0,sp,0xdf91
bfc0fcb8:	0a4adf91 	j	b92b7e44 <RDATA_HCI_UART_RX_ADDR+0x1969a544>
bfc0fcbc:	d426206f 	ldc1	$f6,8303(at)
bfc0fcc0:	27972a36 	addiu	s7,gp,10806
bfc0fcc4:	2190117c 	addi	s0,t4,4476
bfc0fcc8:	166dee84 	bne	s3,t5,bfc0b6dc <RCODE_ADDR_BASE+0xb6dc>
bfc0fccc:	07e0d5ca 	bltz	ra,bfc053f8 <RCODE_ADDR_BASE+0x53f8>
bfc0fcd0:	f820d5ca 	sdc2	$0,-10806(at)
bfc0fcd4:	e993ee84 	swc2	$19,-4476(t4)
bfc0fcd8:	de70117c 	ldc3	$16,4476(s3)
bfc0fcdc:	d8692a36 	ldc2	$9,10806(v1)
bfc0fce0:	1d4dcd90 	0x1d4dcd90
bfc0fce4:	cc46cd90 	pref	0x6,-12912(v0)
bfc0fce8:	0a4acd90 	j	b92b3640 <RDATA_HCI_UART_RX_ADDR+0x19695d40>
bfc0fcec:	2bdacd90 	slti	k0,s8,-12912
bfc0fcf0:	d426cd90 	ldc1	$f6,-12912(at)
bfc0fcf4:	f5b6cd90 	sdc1	$f22,-12912(t5)
bfc0fcf8:	33bacd90 	andi	k0,sp,0xcd90
bfc0fcfc:	e2b3cd90 	sc	s3,-12912(s5)
bfc0fd00:	07e0117c 	bltz	ra,bfc142f4 <crc_table+0x44b4>
bfc0fd04:	e993d5ca 	swc2	$19,-10806(t4)
bfc0fd08:	21902a36 	addi	s0,t4,10806
bfc0fd0c:	d869ee84 	ldc2	$9,-4476(v1)
bfc0fd10:	2797ee84 	addiu	s7,gp,-4476
bfc0fd14:	de702a36 	ldc3	$16,10806(s3)
bfc0fd18:	166dd5ca 	bne	s3,t5,bfc05444 <RCODE_ADDR_BASE+0x5444>
bfc0fd1c:	f820117c 	sdc2	$0,4476(at)

bfc0fd20 <analysis_consts_fixed8_simd_odd>:
bfc0fd20:	ff770000 	sdc3	$23,0(k1)
bfc0fd24:	011c0019 	multu	t0,gp
bfc0fd28:	010f003f 	0x10f003f
bfc0fd2c:	00ed0073 	tltu	a3,t5,0x1
bfc0fd30:	040b0170 	tltiu	zero,368
bfc0fd34:	022c014f 	0x22c014f
bfc0fd38:	012f016e 	0x12f016e
bfc0fd3c:	00250150 	0x250150
bfc0fd40:	f67b0000 	sdc1	$f27,0(s3)
bfc0fd44:	098404fd 	j	b61013f4 <RDATA_HCI_UART_RX_ADDR+0x164e3af4>
bfc0fd48:	0ba20780 	j	be881e00 <RDATA_HCI_UART_RX_ADDR+0x1ec64500>
bfc0fd4c:	0ce90a59 	jal	b3a42964 <RDATA_HCI_UART_RX_ADDR+0x13e25064>
bfc0fd50:	3094093e 	andi	s4,a0,0x93e
bfc0fd54:	210c0581 	addi	t4,t0,1409
bfc0fd58:	1c060219 	0x1c060219
bfc0fd5c:	1532fc02 	bne	t1,s2,bfc0ed68 <RCODE_ADDR_BASE+0xed68>
bfc0fd60:	afeb0000 	sw	t3,0(ra)
bfc0fd64:	5a55338f 	0x5a55338f
bfc0fd68:	64f345fb 	0x64f345fb
bfc0fd6c:	6c2f5a45 	0x6c2f5a45
bfc0fd70:	cf6c68fc 	pref	0xc,26876(k1)
bfc0fd74:	cc715a55 	pref	0x11,23125(v1)
bfc0fd78:	ba0564f3 	swr	a1,25843(s0)
bfc0fd7c:	a5bb6c2f 	sh	k1,27695(t5)
bfc0fd80:	09830000 	j	b60c0000 <RDATA_HCI_UART_RX_ADDR+0x164a2700>
bfc0fd84:	0581def4 	bgez	t4,bfc07958 <RCODE_ADDR_BASE+0x7958>
bfc0fd88:	0219e3fa 	0x219e3fa
bfc0fd8c:	fc02eace 	sdc3	$2,-5426(zero)
bfc0fd90:	fbf5093e 	sdc2	$21,2366(ra)
bfc0fd94:	fb030984 	sdc2	$3,2436(t8)
bfc0fd98:	f8800ba2 	sdc2	$0,2978(a0)
bfc0fd9c:	f5a70ce9 	sdc1	$f7,3305(t5)
bfc0fda0:	ff6a0000 	sdc3	$10,0(k1)
bfc0fda4:	014ffdd4 	0x14ffdd4
bfc0fda8:	016efed1 	0x16efed1
bfc0fdac:	0150ffdb 	0x150ffdb
bfc0fdb0:	00000170 	tge	zero,zero,0x5
bfc0fdb4:	ffe7011c 	sdc3	$7,284(ra)
bfc0fdb8:	ffc1010f 	sdc3	$1,271(s8)
bfc0fdbc:	ff8d00ed 	sdc3	$13,237(gp)
bfc0fdc0:	2bdacd90 	slti	k0,s8,-12912
bfc0fdc4:	f5b6cd90 	sdc1	$f22,-12912(t5)
bfc0fdc8:	cc46cd90 	pref	0x6,-12912(v0)
bfc0fdcc:	e2b3cd90 	sc	s3,-12912(s5)
bfc0fdd0:	1d4dcd90 	0x1d4dcd90
bfc0fdd4:	33bacd90 	andi	k0,sp,0xcd90
bfc0fdd8:	0a4acd90 	j	b92b3640 <RDATA_HCI_UART_RX_ADDR+0x19695d40>
bfc0fddc:	d426cd90 	ldc1	$f6,-12912(at)
bfc0fde0:	27972a36 	addiu	s7,gp,10806
bfc0fde4:	2190117c 	addi	s0,t4,4476
bfc0fde8:	166dee84 	bne	s3,t5,bfc0b7fc <RCODE_ADDR_BASE+0xb7fc>
bfc0fdec:	07e0d5ca 	bltz	ra,bfc05518 <RCODE_ADDR_BASE+0x5518>
bfc0fdf0:	f820d5ca 	sdc2	$0,-10806(at)
bfc0fdf4:	e993ee84 	swc2	$19,-4476(t4)
bfc0fdf8:	de70117c 	ldc3	$16,4476(s3)
bfc0fdfc:	d8692a36 	ldc2	$9,10806(v1)
bfc0fe00:	1d4d206f 	0x1d4d206f
bfc0fe04:	cc46df91 	pref	0x6,-8303(v0)
bfc0fe08:	0a4adf91 	j	b92b7e44 <RDATA_HCI_UART_RX_ADDR+0x1969a544>
bfc0fe0c:	2bda206f 	slti	k0,s8,8303
bfc0fe10:	d426206f 	ldc1	$f6,8303(at)
bfc0fe14:	f5b6df91 	sdc1	$f22,-8303(t5)
bfc0fe18:	33badf91 	andi	k0,sp,0xdf91
bfc0fe1c:	e2b3206f 	sc	s3,8303(s5)
bfc0fe20:	07e0117c 	bltz	ra,bfc14414 <crc_table+0x45d4>
bfc0fe24:	e993d5ca 	swc2	$19,-10806(t4)
bfc0fe28:	21902a36 	addi	s0,t4,10806
bfc0fe2c:	d869ee84 	ldc2	$9,-4476(v1)
bfc0fe30:	2797ee84 	addiu	s7,gp,-4476
bfc0fe34:	de702a36 	ldc3	$16,10806(s3)
bfc0fe38:	166dd5ca 	bne	s3,t5,bfc05564 <RCODE_ADDR_BASE+0x5564>
bfc0fe3c:	f820117c 	sdc2	$0,4476(at)

bfc0fe40 <crc_table>:
bfc0fe40:	273a1d00 	addiu	k0,t9,7424
bfc0fe44:	534e6974 	beql	k0,t6,bfc2a418 <crc_table+0x1a5d8>
bfc0fe48:	cfd2f5e8 	pref	0x12,-2584(s8)
bfc0fe4c:	bba6819c 	swr	a2,-32356(sp)
bfc0fe50:	eaf7d0cd 	swc2	$23,-12083(s7)
bfc0fe54:	9e83a4b9 	0x9e83a4b9
bfc0fe58:	021f3825 	or	a3,s0,ra
bfc0fe5c:	766b4c51 	jalx	b9ad3144 <RDATA_HCI_UART_RX_ADDR+0x19eb5844>
bfc0fe60:	a0bd9a87 	sb	sp,-25977(a1)
bfc0fe64:	d4c9eef3 	ldc1	$f9,-4365(a2)
bfc0fe68:	4855726f 	0x4855726f
bfc0fe6c:	3c21061b 	0x3c21061b
bfc0fe70:	6d70574a 	0x6d70574a
bfc0fe74:	1904233e 	0x1904233e
bfc0fe78:	8598bfa2 	lh	t8,-16478(t4)
bfc0fe7c:	f1eccbd6 	0xf1eccbd6
bfc0fe80:	34290e13 	ori	t1,at,0xe13
bfc0fe84:	405d7a67 	0x405d7a67
bfc0fe88:	dcc1e6fb 	ldc3	$1,-6405(a2)
bfc0fe8c:	a8b5928f 	swl	s5,-28017(a1)
bfc0fe90:	f9e4c3de 	sdc2	$4,-15394(t7)
bfc0fe94:	8d90b7aa 	lw	s0,-18518(t4)
bfc0fe98:	110c2b36 	beq	t0,t4,bfc1ab74 <crc_table+0xad34>
bfc0fe9c:	65785f42 	0x65785f42
bfc0fea0:	b3ae8994 	0xb3ae8994
bfc0fea4:	c7dafde0 	lwc1	$f26,-544(s8)
bfc0fea8:	5b46617c 	0x5b46617c
bfc0feac:	2f321508 	sltiu	s2,t9,5384
bfc0feb0:	7e634459 	0x7e634459
bfc0feb4:	0a17302d 	j	b85cc0b4 <RDATA_HCI_UART_RX_ADDR+0x189ae7b4>
bfc0feb8:	968bacb1 	lhu	t3,-21327(s4)
bfc0febc:	e2ffd8c5 	sc	ra,-10043(s7)
bfc0fec0:	011c3b26 	0x11c3b26
bfc0fec4:	75684f52 	jalx	b5a13d48 <RDATA_HCI_UART_RX_ADDR+0x15df6448>
bfc0fec8:	e9f4d3ce 	swc2	$20,-11314(t7)
bfc0fecc:	9d80a7ba 	0x9d80a7ba
bfc0fed0:	ccd1f6eb 	pref	0x11,-2325(a2)
bfc0fed4:	b8a5829f 	swr	a1,-32097(a1)
bfc0fed8:	24391e03 	addiu	t9,at,7683
bfc0fedc:	504d6a77 	beql	v0,t5,bfc2a8bc <crc_table+0x1aa7c>
bfc0fee0:	869bbca1 	lh	k1,-17247(s4)
bfc0fee4:	f2efc8d5 	0xf2efc8d5
bfc0fee8:	6e735449 	0x6e735449
bfc0feec:	1a07203d 	0x1a07203d
bfc0fef0:	4b56716c 	c2	0x156716c
bfc0fef4:	3f220518 	0x3f220518
bfc0fef8:	a3be9984 	sb	s8,-26236(sp)
bfc0fefc:	d7caedf0 	ldc1	$f10,-4624(s8)
bfc0ff00:	120f2835 	beq	s0,t7,bfc19fd8 <crc_table+0xa198>
bfc0ff04:	667b5c41 	0x667b5c41
bfc0ff08:	fae7c0dd 	sdc2	$7,-16163(s7)
bfc0ff0c:	8e93b4a9 	lw	s3,-19287(s4)
bfc0ff10:	dfc2e5f8 	ldc3	$2,-6664(s8)
bfc0ff14:	abb6918c 	swl	s6,-28276(sp)
bfc0ff18:	372a0d10 	ori	t2,t9,0xd10
bfc0ff1c:	435e7964 	c0	0x15e7964
bfc0ff20:	9588afb2 	lhu	t0,-20558(t4)
bfc0ff24:	e1fcdbc6 	sc	gp,-9274(t7)
bfc0ff28:	7d60475a 	0x7d60475a
bfc0ff2c:	0914332e 	j	b450ccb8 <RDATA_HCI_UART_RX_ADDR+0x148ef3b8>
bfc0ff30:	5845627f 	0x5845627f
bfc0ff34:	2c31160b 	sltiu	s1,at,5643
bfc0ff38:	b0ad8a97 	0xb0ad8a97
bfc0ff3c:	c4d9fee3 	lwc1	$f25,-285(a2)
Disassembly of section .text2:

bfc3d000 <sbc_analyze_eight_simd>:
bfc3d000:	f00c 64bd 	save	a0-a2,104,s0-s1
bfc3d004:	f010 6a00 	li	v0,32768
bfc3d008:	6b00      	li	v1,0
bfc3d00a:	d207      	sw	v0,28(sp)
bfc3d00c:	d206      	sw	v0,24(sp)
bfc3d00e:	d205      	sw	v0,20(sp)
bfc3d010:	d204      	sw	v0,16(sp)
bfc3d012:	d203      	sw	v0,12(sp)
bfc3d014:	d202      	sw	v0,8(sp)
bfc3d016:	d201      	sw	v0,4(sp)
bfc3d018:	d200      	sw	v0,0(sp)
bfc3d01a:	653b      	move	t9,v1
bfc3d01c:	67e2      	move	a3,v0
bfc3d01e:	d212      	sw	v0,72(sp)
bfc3d020:	6702      	move	s0,v0
bfc3d022:	d213      	sw	v0,76(sp)
bfc3d024:	6722      	move	s1,v0
bfc3d026:	d214      	sw	v0,80(sp)
bfc3d028:	d216      	sw	v0,88(sp)
bfc3d02a:	d215      	sw	v0,84(sp)
bfc3d02c:	6799      	move	a0,t9
bfc3d02e:	961a      	lw	a2,104(sp)
bfc3d030:	921c      	lw	v0,112(sp)
bfc3d032:	3384      	sll	v1,a0,1
bfc3d034:	e3d1      	addu	a0,v1,a2
bfc3d036:	e34d      	addu	v1,v0
bfc3d038:	8ca0      	lh	a1,0(a0)
bfc3d03a:	8bc0      	lh	a2,0(v1)
bfc3d03c:	9212      	lw	v0,72(sp)
bfc3d03e:	edd8      	mult	a1,a2
bfc3d040:	ed12      	mflo	a1
bfc3d042:	e2b9      	addu	a2,v0,a1
bfc3d044:	8ca1      	lh	a1,2(a0)
bfc3d046:	8b41      	lh	v0,2(v1)
bfc3d048:	ed58      	mult	a1,v0
bfc3d04a:	ed12      	mflo	a1
bfc3d04c:	e6a9      	addu	v0,a2,a1
bfc3d04e:	8ca2      	lh	a1,4(a0)
bfc3d050:	8bc2      	lh	a2,4(v1)
bfc3d052:	d212      	sw	v0,72(sp)
bfc3d054:	edd8      	mult	a1,a2
bfc3d056:	8ca3      	lh	a1,6(a0)
bfc3d058:	ea12      	mflo	v0
bfc3d05a:	e759      	addu	a2,a3,v0
bfc3d05c:	8be3      	lh	a3,6(v1)
bfc3d05e:	edf8      	mult	a1,a3
bfc3d060:	8ca4      	lh	a1,8(a0)
bfc3d062:	ea12      	mflo	v0
bfc3d064:	e65d      	addu	a3,a2,v0
bfc3d066:	8bc4      	lh	a2,8(v1)
bfc3d068:	9213      	lw	v0,76(sp)
bfc3d06a:	edd8      	mult	a1,a2
bfc3d06c:	ed12      	mflo	a1
bfc3d06e:	e2b9      	addu	a2,v0,a1
bfc3d070:	8ca5      	lh	a1,10(a0)
bfc3d072:	8b45      	lh	v0,10(v1)
bfc3d074:	ed58      	mult	a1,v0
bfc3d076:	ed12      	mflo	a1
bfc3d078:	e6a9      	addu	v0,a2,a1
bfc3d07a:	8ca6      	lh	a1,12(a0)
bfc3d07c:	8bc6      	lh	a2,12(v1)
bfc3d07e:	d213      	sw	v0,76(sp)
bfc3d080:	edd8      	mult	a1,a2
bfc3d082:	8ca7      	lh	a1,14(a0)
bfc3d084:	ea12      	mflo	v0
bfc3d086:	e059      	addu	a2,s0,v0
bfc3d088:	8b07      	lh	s0,14(v1)
bfc3d08a:	ed18      	mult	a1,s0
bfc3d08c:	8ca8      	lh	a1,16(a0)
bfc3d08e:	ea12      	mflo	v0
bfc3d090:	e641      	addu	s0,a2,v0
bfc3d092:	8bc8      	lh	a2,16(v1)
bfc3d094:	9214      	lw	v0,80(sp)
bfc3d096:	edd8      	mult	a1,a2
bfc3d098:	ed12      	mflo	a1
bfc3d09a:	e2b9      	addu	a2,v0,a1
bfc3d09c:	8ca9      	lh	a1,18(a0)
bfc3d09e:	8b49      	lh	v0,18(v1)
bfc3d0a0:	ed58      	mult	a1,v0
bfc3d0a2:	ed12      	mflo	a1
bfc3d0a4:	e6a9      	addu	v0,a2,a1
bfc3d0a6:	8caa      	lh	a1,20(a0)
bfc3d0a8:	8bca      	lh	a2,20(v1)
bfc3d0aa:	d214      	sw	v0,80(sp)
bfc3d0ac:	edd8      	mult	a1,a2
bfc3d0ae:	8cab      	lh	a1,22(a0)
bfc3d0b0:	ea12      	mflo	v0
bfc3d0b2:	e159      	addu	a2,s1,v0
bfc3d0b4:	8b2b      	lh	s1,22(v1)
bfc3d0b6:	ed38      	mult	a1,s1
bfc3d0b8:	8cac      	lh	a1,24(a0)
bfc3d0ba:	ea12      	mflo	v0
bfc3d0bc:	e645      	addu	s1,a2,v0
bfc3d0be:	8bcc      	lh	a2,24(v1)
bfc3d0c0:	9215      	lw	v0,84(sp)
bfc3d0c2:	edd8      	mult	a1,a2
bfc3d0c4:	ed12      	mflo	a1
bfc3d0c6:	e2b9      	addu	a2,v0,a1
bfc3d0c8:	8cad      	lh	a1,26(a0)
bfc3d0ca:	8b4d      	lh	v0,26(v1)
bfc3d0cc:	ed58      	mult	a1,v0
bfc3d0ce:	ed12      	mflo	a1
bfc3d0d0:	e6a9      	addu	v0,a2,a1
bfc3d0d2:	d215      	sw	v0,84(sp)
bfc3d0d4:	8cae      	lh	a1,28(a0)
bfc3d0d6:	8bce      	lh	a2,28(v1)
bfc3d0d8:	9216      	lw	v0,88(sp)
bfc3d0da:	edd8      	mult	a1,a2
bfc3d0dc:	8c8f      	lh	a0,30(a0)
bfc3d0de:	ee12      	mflo	a2
bfc3d0e0:	e2d5      	addu	a1,v0,a2
bfc3d0e2:	8bcf      	lh	a2,30(v1)
bfc3d0e4:	ecd8      	mult	a0,a2
bfc3d0e6:	6799      	move	a0,t9
bfc3d0e8:	ea12      	mflo	v0
bfc3d0ea:	4c10      	addiu	a0,16
bfc3d0ec:	e559      	addu	a2,a1,v0
bfc3d0ee:	5450      	slti	a0,80
bfc3d0f0:	d616      	sw	a2,88(sp)
bfc3d0f2:	653c      	move	t9,a0
bfc3d0f4:	619b      	btnez	bfc3d02c <RCODE_TEXT2_ADDR+0x2c>
bfc3d0f6:	9312      	lw	v1,72(sp)
bfc3d0f8:	35e3      	sra	a1,a3,8
bfc3d0fa:	3663      	sra	a2,v1,8
bfc3d0fc:	9313      	lw	v1,76(sp)
bfc3d0fe:	32c3      	sra	v0,a2,8
bfc3d100:	67dd      	move	a2,sp
bfc3d102:	ce50      	sh	v0,32(a2)
bfc3d104:	3263      	sra	v0,v1,8
bfc3d106:	34a3      	sra	a0,a1,8
bfc3d108:	3543      	sra	a1,v0,8
bfc3d10a:	9214      	lw	v0,80(sp)
bfc3d10c:	3703      	sra	a3,s0,8
bfc3d10e:	9015      	lw	s0,84(sp)
bfc3d110:	3343      	sra	v1,v0,8
bfc3d112:	ce91      	sh	a0,34(a2)
bfc3d114:	9216      	lw	v0,88(sp)
bfc3d116:	34e3      	sra	a0,a3,8
bfc3d118:	3723      	sra	a3,s1,8
bfc3d11a:	31e3      	sra	s1,a3,8
bfc3d11c:	ceb2      	sh	a1,36(a2)
bfc3d11e:	ce93      	sh	a0,38(a2)
bfc3d120:	3563      	sra	a1,v1,8
bfc3d122:	3403      	sra	a0,s0,8
bfc3d124:	67fd      	move	a3,sp
bfc3d126:	ceb4      	sh	a1,40(a2)
bfc3d128:	ce35      	sh	s1,42(a2)
bfc3d12a:	3343      	sra	v1,v0,8
bfc3d12c:	6900      	li	s1,0
bfc3d12e:	3683      	sra	a2,a0,8
bfc3d130:	cfd6      	sh	a2,44(a3)
bfc3d132:	6711      	move	s0,s1
bfc3d134:	3563      	sra	a1,v1,8
bfc3d136:	961c      	lw	a2,112(sp)
bfc3d138:	cfb7      	sh	a1,46(a3)
bfc3d13a:	d107      	sw	s1,28(sp)
bfc3d13c:	d106      	sw	s1,24(sp)
bfc3d13e:	d105      	sw	s1,20(sp)
bfc3d140:	d104      	sw	s1,16(sp)
bfc3d142:	d103      	sw	s1,12(sp)
bfc3d144:	d102      	sw	s1,8(sp)
bfc3d146:	d101      	sw	s1,4(sp)
bfc3d148:	d100      	sw	s1,0(sp)
bfc3d14a:	67f1      	move	a3,s1
bfc3d14c:	d10c      	sw	s1,48(sp)
bfc3d14e:	d10d      	sw	s1,52(sp)
bfc3d150:	d10e      	sw	s1,56(sp)
bfc3d152:	d10f      	sw	s1,60(sp)
bfc3d154:	d110      	sw	s1,64(sp)
bfc3d156:	d111      	sw	s1,68(sp)
bfc3d158:	6539      	move	t9,s1
bfc3d15a:	4003      	addiu	s0,s0,3
bfc3d15c:	673d      	move	s1,sp
bfc3d15e:	89b0      	lh	a1,32(s1)
bfc3d160:	f0a0 8e40 	lh	v0,160(a2)
bfc3d164:	400f      	addiu	s0,s0,-1
bfc3d166:	ed58      	mult	a1,v0
bfc3d168:	ec12      	mflo	a0
bfc3d16a:	e78d      	addu	v1,a3,a0
bfc3d16c:	8991      	lh	a0,34(s1)
bfc3d16e:	f0a0 8ee2 	lh	a3,162(a2)
bfc3d172:	4124      	addiu	s1,s1,4
bfc3d174:	ecf8      	mult	a0,a3
bfc3d176:	ea12      	mflo	v0
bfc3d178:	e35d      	addu	a3,v1,v0
bfc3d17a:	f0a0 8e44 	lh	v0,164(a2)
bfc3d17e:	ed58      	mult	a1,v0
bfc3d180:	920c      	lw	v0,48(sp)
bfc3d182:	eb12      	mflo	v1
bfc3d184:	e269      	addu	v0,v1
bfc3d186:	651a      	move	t8,v0
bfc3d188:	f0a0 8e46 	lh	v0,166(a2)
bfc3d18c:	ec58      	mult	a0,v0
bfc3d18e:	6758      	move	v0,t8
bfc3d190:	eb12      	mflo	v1
bfc3d192:	e269      	addu	v0,v1
bfc3d194:	d20c      	sw	v0,48(sp)
bfc3d196:	f0a0 8e48 	lh	v0,168(a2)
bfc3d19a:	ed58      	mult	a1,v0
bfc3d19c:	920d      	lw	v0,52(sp)
bfc3d19e:	eb12      	mflo	v1
bfc3d1a0:	e269      	addu	v0,v1
bfc3d1a2:	651a      	move	t8,v0
bfc3d1a4:	f0a0 8e4a 	lh	v0,170(a2)
bfc3d1a8:	ec58      	mult	a0,v0
bfc3d1aa:	6758      	move	v0,t8
bfc3d1ac:	eb12      	mflo	v1
bfc3d1ae:	e269      	addu	v0,v1
bfc3d1b0:	d20d      	sw	v0,52(sp)
bfc3d1b2:	f0a0 8e4c 	lh	v0,172(a2)
bfc3d1b6:	ed58      	mult	a1,v0
bfc3d1b8:	920e      	lw	v0,56(sp)
bfc3d1ba:	eb12      	mflo	v1
bfc3d1bc:	e269      	addu	v0,v1
bfc3d1be:	651a      	move	t8,v0
bfc3d1c0:	f0a0 8e4e 	lh	v0,174(a2)
bfc3d1c4:	ec58      	mult	a0,v0
bfc3d1c6:	6758      	move	v0,t8
bfc3d1c8:	eb12      	mflo	v1
bfc3d1ca:	e269      	addu	v0,v1
bfc3d1cc:	d20e      	sw	v0,56(sp)
bfc3d1ce:	f0a0 8e50 	lh	v0,176(a2)
bfc3d1d2:	ed58      	mult	a1,v0
bfc3d1d4:	920f      	lw	v0,60(sp)
bfc3d1d6:	eb12      	mflo	v1
bfc3d1d8:	e269      	addu	v0,v1
bfc3d1da:	651a      	move	t8,v0
bfc3d1dc:	f0a0 8e52 	lh	v0,178(a2)
bfc3d1e0:	ec58      	mult	a0,v0
bfc3d1e2:	6758      	move	v0,t8
bfc3d1e4:	eb12      	mflo	v1
bfc3d1e6:	e269      	addu	v0,v1
bfc3d1e8:	d20f      	sw	v0,60(sp)
bfc3d1ea:	f0a0 8e54 	lh	v0,180(a2)
bfc3d1ee:	ed58      	mult	a1,v0
bfc3d1f0:	9210      	lw	v0,64(sp)
bfc3d1f2:	eb12      	mflo	v1
bfc3d1f4:	e269      	addu	v0,v1
bfc3d1f6:	651a      	move	t8,v0
bfc3d1f8:	f0a0 8e56 	lh	v0,182(a2)
bfc3d1fc:	ec58      	mult	a0,v0
bfc3d1fe:	6758      	move	v0,t8
bfc3d200:	eb12      	mflo	v1
bfc3d202:	e269      	addu	v0,v1
bfc3d204:	d210      	sw	v0,64(sp)
bfc3d206:	f0a0 8e58 	lh	v0,184(a2)
bfc3d20a:	ed58      	mult	a1,v0
bfc3d20c:	9211      	lw	v0,68(sp)
bfc3d20e:	eb12      	mflo	v1
bfc3d210:	e269      	addu	v0,v1
bfc3d212:	651a      	move	t8,v0
bfc3d214:	f0a0 8e5a 	lh	v0,186(a2)
bfc3d218:	ec58      	mult	a0,v0
bfc3d21a:	6758      	move	v0,t8
bfc3d21c:	eb12      	mflo	v1
bfc3d21e:	5000      	slti	s0,0
bfc3d220:	e269      	addu	v0,v1
bfc3d222:	f0a0 8e7c 	lh	v1,188(a2)
bfc3d226:	d211      	sw	v0,68(sp)
bfc3d228:	ed78      	mult	a1,v1
bfc3d22a:	6759      	move	v0,t9
bfc3d22c:	ed12      	mflo	a1
bfc3d22e:	e2ad      	addu	v1,v0,a1
bfc3d230:	f0a0 8ebe 	lh	a1,190(a2)
bfc3d234:	4e20      	addiu	a2,32
bfc3d236:	ecb8      	mult	a0,a1
bfc3d238:	ec12      	mflo	a0
bfc3d23a:	e389      	addu	v0,v1,a0
bfc3d23c:	653a      	move	t9,v0
bfc3d23e:	608f      	bteqz	bfc3d15e <RCODE_TEXT2_ADDR+0x15e>
bfc3d240:	9611      	lw	a2,68(sp)
bfc3d242:	950d      	lw	a1,52(sp)
bfc3d244:	940f      	lw	a0,60(sp)
bfc3d246:	930e      	lw	v1,56(sp)
bfc3d248:	d207      	sw	v0,28(sp)
bfc3d24a:	d606      	sw	a2,24(sp)
bfc3d24c:	9210      	lw	v0,64(sp)
bfc3d24e:	960c      	lw	a2,48(sp)
bfc3d250:	d502      	sw	a1,8(sp)
bfc3d252:	951b      	lw	a1,108(sp)
bfc3d254:	d404      	sw	a0,16(sp)
bfc3d256:	d303      	sw	v1,12(sp)
bfc3d258:	d205      	sw	v0,20(sp)
bfc3d25a:	d601      	sw	a2,4(sp)
bfc3d25c:	d700      	sw	a3,0(sp)
bfc3d25e:	679d      	move	a0,sp
bfc3d260:	6b07      	li	v1,7
bfc3d262:	9ce0      	lw	a3,0(a0)
bfc3d264:	436f      	addiu	v1,v1,-1
bfc3d266:	5300      	slti	v1,0
bfc3d268:	dde0      	sw	a3,0(a1)
bfc3d26a:	4484      	addiu	a0,a0,4
bfc3d26c:	45a4      	addiu	a1,a1,4
bfc3d26e:	60f9      	bteqz	bfc3d262 <RCODE_TEXT2_ADDR+0x262>
bfc3d270:	643d      	restore	104,s0-s1
bfc3d272:	e8a0      	jrc	ra

bfc3d274 <sbc_analyze_4b_4s_simd>:
bfc3d274:	e8a0      	jrc	ra
	...

bfc3d278 <sbc_analyze_4b_8s_simd>:
bfc3d278:	f004 64f4 	save	a0,32,ra,s0-s1
bfc3d27c:	6726      	move	s1,a2
bfc3d27e:	b60e      	lw	a2,bfc3d2b4 <sbc_analyze_4b_8s_simd+0x3c>
bfc3d280:	4c30      	addiu	a0,48
bfc3d282:	3128      	sll	s1,2
bfc3d284:	1a1f f400 	jal	bfc3d000 <RCODE_TEXT2_ADDR>
bfc3d288:	6705      	move	s0,a1
bfc3d28a:	9408      	lw	a0,32(sp)
bfc3d28c:	e021      	addu	s0,s1
bfc3d28e:	b60b      	lw	a2,bfc3d2b8 <sbc_analyze_4b_8s_simd+0x40>
bfc3d290:	67b0      	move	a1,s0
bfc3d292:	1a1f f400 	jal	bfc3d000 <RCODE_TEXT2_ADDR>
bfc3d296:	4c20      	addiu	a0,32
bfc3d298:	9408      	lw	a0,32(sp)
bfc3d29a:	e021      	addu	s0,s1
bfc3d29c:	b606      	lw	a2,bfc3d2b4 <sbc_analyze_4b_8s_simd+0x3c>
bfc3d29e:	67b0      	move	a1,s0
bfc3d2a0:	1a1f f400 	jal	bfc3d000 <RCODE_TEXT2_ADDR>
bfc3d2a4:	4c10      	addiu	a0,16
bfc3d2a6:	9408      	lw	a0,32(sp)
bfc3d2a8:	b604      	lw	a2,bfc3d2b8 <sbc_analyze_4b_8s_simd+0x40>
bfc3d2aa:	1a1f f400 	jal	bfc3d000 <RCODE_TEXT2_ADDR>
bfc3d2ae:	e035      	addu	a1,s0,s1
bfc3d2b0:	6474      	restore	32,ra,s0-s1
bfc3d2b2:	e8a0      	jrc	ra
bfc3d2b4:	fd20      	daddiu	s1,0
bfc3d2b6:	bfc0      	lwu	a2,0(a3)
bfc3d2b8:	fc00      	ld	s0,bfc3d2b8 <sbc_analyze_4b_8s_simd+0x40>
bfc3d2ba:	bfc0      	lwu	a2,0(a3)

bfc3d2bc <sbc_encoder_process_input_s8_internal>:
bfc3d2bc:	f00e 64f5 	save	a0-a3,40,ra,s0-s1
bfc3d2c0:	ece2      	slt	a0,a3
bfc3d2c2:	6705      	move	s0,a1
bfc3d2c4:	910e      	lw	s1,56(sp)
bfc3d2c6:	601f      	bteqz	bfc3d306 <sbc_encoder_process_input_s8_internal+0x4a>
bfc3d2c8:	5101      	slti	s1,1
bfc3d2ca:	610a      	btnez	bfc3d2e0 <sbc_encoder_process_input_s8_internal+0x24>
bfc3d2cc:	3584      	sll	a1,a0,1
bfc3d2ce:	f4e0 b21c 	lw	v0,bfc3d7c8 <.LBE70+0x16>
bfc3d2d2:	6786      	move	a0,a2
bfc3d2d4:	e6b5      	addu	a1,a2,a1
bfc3d2d6:	f200 4c00 	addiu	a0,512
bfc3d2da:	6e90      	li	a2,144
bfc3d2dc:	ea40      	jalr	v0
bfc3d2de:	6f00      	li	a3,0
bfc3d2e0:	5102      	slti	s1,2
bfc3d2e2:	610e      	btnez	bfc3d300 <sbc_encoder_process_input_s8_internal+0x44>
bfc3d2e4:	970a      	lw	a3,40(sp)
bfc3d2e6:	960c      	lw	a2,48(sp)
bfc3d2e8:	34e4      	sll	a0,a3,1
bfc3d2ea:	e695      	addu	a1,a2,a0
bfc3d2ec:	f4c0 b21c 	lw	v0,bfc3d7c8 <.LBE70+0x16>
bfc3d2f0:	6786      	move	a0,a2
bfc3d2f2:	f480 4c10 	addiu	a0,1168
bfc3d2f6:	f280 4d10 	addiu	a1,656
bfc3d2fa:	6e90      	li	a2,144
bfc3d2fc:	ea40      	jalr	v0
bfc3d2fe:	6f00      	li	a3,0
bfc3d300:	6bff      	li	v1,255
bfc3d302:	43a1      	addiu	a1,v1,1
bfc3d304:	d50a      	sw	a1,40(sp)
bfc3d306:	920d      	lw	v0,52(sp)
bfc3d308:	4af0      	addiu	v0,-16
bfc3d30a:	5200      	slti	v0,0
bfc3d30c:	d204      	sw	v0,16(sp)
bfc3d30e:	f240 6118 	btnez	bfc3d7c2 <.LBE70+0x10>
bfc3d312:	6c1e      	li	a0,30
bfc3d314:	e998      	mult	s1,a0
bfc3d316:	930a      	lw	v1,40(sp)
bfc3d318:	950c      	lw	a1,48(sp)
bfc3d31a:	6c0e      	li	a0,14
bfc3d31c:	ea12      	mflo	v0
bfc3d31e:	3664      	sll	a2,v1,1
bfc3d320:	e998      	mult	s1,a0
bfc3d322:	e6bd      	addu	a3,a2,a1
bfc3d324:	f290 47c0 	addiu	a2,a3,656
bfc3d328:	67a7      	move	a1,a3
bfc3d32a:	ef12      	mflo	a3
bfc3d32c:	653a      	move	t9,v0
bfc3d32e:	930a      	lw	v1,40(sp)
bfc3d330:	5101      	slti	s1,1
bfc3d332:	4bf0      	addiu	v1,-16
bfc3d334:	d30a      	sw	v1,40(sp)
bfc3d336:	4de0      	addiu	a1,-32
bfc3d338:	4ee0      	addiu	a2,-32
bfc3d33a:	f100 610e 	btnez	bfc3d55a <.LBE5>

bfc3d33e <.LBB5>:
bfc3d33e:	920f      	lw	v0,60(sp)
bfc3d340:	2206      	beqz	v0,bfc3d34e <.LBB8>

bfc3d342 <.LBB6>:
bfc3d342:	6759      	move	v0,t9
bfc3d344:	e051      	addu	a0,s0,v0
bfc3d346:	a460      	lbu	v1,0(a0)
bfc3d348:	a441      	lbu	v0,1(a0)
bfc3d34a:	3360      	sll	v1,8
bfc3d34c:	1005      	b	bfc3d358 <.LBE8>

bfc3d34e <.LBB8>:
bfc3d34e:	6759      	move	v0,t9
bfc3d350:	e051      	addu	a0,s0,v0
bfc3d352:	a461      	lbu	v1,1(a0)
bfc3d354:	a440      	lbu	v0,0(a0)
bfc3d356:	3360      	sll	v1,8

bfc3d358 <.LBE8>:
bfc3d358:	940f      	lw	a0,60(sp)
bfc3d35a:	ea6d      	or	v0,v1
bfc3d35c:	cd40      	sh	v0,0(a1)
bfc3d35e:	2405      	beqz	a0,bfc3d36a <.LBB12>

bfc3d360 <.LBB10>:
bfc3d360:	e0e9      	addu	v0,s0,a3
bfc3d362:	a260      	lbu	v1,0(v0)
bfc3d364:	a241      	lbu	v0,1(v0)
bfc3d366:	3360      	sll	v1,8
bfc3d368:	1004      	b	bfc3d372 <.LBE12>

bfc3d36a <.LBB12>:
bfc3d36a:	e0f1      	addu	a0,s0,a3
bfc3d36c:	a441      	lbu	v0,1(a0)
bfc3d36e:	3340      	sll	v1,v0,8
bfc3d370:	a440      	lbu	v0,0(a0)

bfc3d372 <.LBE12>:
bfc3d372:	ea6d      	or	v0,v1
bfc3d374:	930f      	lw	v1,60(sp)
bfc3d376:	cd41      	sh	v0,2(a1)
bfc3d378:	2308      	beqz	v1,bfc3d38a <.LBB16>

bfc3d37a <.LBB14>:
bfc3d37a:	6c1c      	li	a0,28
bfc3d37c:	e998      	mult	s1,a0
bfc3d37e:	eb12      	mflo	v1
bfc3d380:	e071      	addu	a0,s0,v1
bfc3d382:	a440      	lbu	v0,0(a0)
bfc3d384:	a461      	lbu	v1,1(a0)
bfc3d386:	3240      	sll	v0,8
bfc3d388:	1007      	b	bfc3d398 <.LBE16>

bfc3d38a <.LBB16>:
bfc3d38a:	6b1c      	li	v1,28
bfc3d38c:	e978      	mult	s1,v1
bfc3d38e:	ec12      	mflo	a0
bfc3d390:	e08d      	addu	v1,s0,a0
bfc3d392:	a341      	lbu	v0,1(v1)
bfc3d394:	a360      	lbu	v1,0(v1)
bfc3d396:	3240      	sll	v0,8

bfc3d398 <.LBE16>:
bfc3d398:	940f      	lw	a0,60(sp)
bfc3d39a:	eb4d      	or	v1,v0
bfc3d39c:	cd62      	sh	v1,4(a1)
bfc3d39e:	3230      	sll	v0,s1,4
bfc3d3a0:	2405      	beqz	a0,bfc3d3ac <.LBB20>

bfc3d3a2 <.LBB18>:
bfc3d3a2:	e049      	addu	v0,s0,v0
bfc3d3a4:	a260      	lbu	v1,0(v0)
bfc3d3a6:	a241      	lbu	v0,1(v0)
bfc3d3a8:	3360      	sll	v1,8
bfc3d3aa:	1004      	b	bfc3d3b4 <.LBE20>

bfc3d3ac <.LBB20>:
bfc3d3ac:	e051      	addu	a0,s0,v0
bfc3d3ae:	a461      	lbu	v1,1(a0)
bfc3d3b0:	a440      	lbu	v0,0(a0)
bfc3d3b2:	3360      	sll	v1,8

bfc3d3b4 <.LBE20>:
bfc3d3b4:	ea6d      	or	v0,v1
bfc3d3b6:	cd43      	sh	v0,6(a1)
bfc3d3b8:	920f      	lw	v0,60(sp)
bfc3d3ba:	2208      	beqz	v0,bfc3d3cc <.LBB24>

bfc3d3bc <.LBB22>:
bfc3d3bc:	6c1a      	li	a0,26
bfc3d3be:	e998      	mult	s1,a0
bfc3d3c0:	ea12      	mflo	v0
bfc3d3c2:	e051      	addu	a0,s0,v0
bfc3d3c4:	a460      	lbu	v1,0(a0)
bfc3d3c6:	3260      	sll	v0,v1,8
bfc3d3c8:	a461      	lbu	v1,1(a0)
bfc3d3ca:	1007      	b	bfc3d3da <.LBE24>

bfc3d3cc <.LBB24>:
bfc3d3cc:	6b1a      	li	v1,26
bfc3d3ce:	e978      	mult	s1,v1
bfc3d3d0:	ec12      	mflo	a0
bfc3d3d2:	e08d      	addu	v1,s0,a0
bfc3d3d4:	a341      	lbu	v0,1(v1)
bfc3d3d6:	a360      	lbu	v1,0(v1)
bfc3d3d8:	3240      	sll	v0,8

bfc3d3da <.LBE24>:
bfc3d3da:	eb4d      	or	v1,v0
bfc3d3dc:	920f      	lw	v0,60(sp)
bfc3d3de:	cd64      	sh	v1,8(a1)
bfc3d3e0:	2208      	beqz	v0,bfc3d3f2 <.LBB28>

bfc3d3e2 <.LBB26>:
bfc3d3e2:	6c12      	li	a0,18
bfc3d3e4:	e998      	mult	s1,a0
bfc3d3e6:	ea12      	mflo	v0
bfc3d3e8:	e051      	addu	a0,s0,v0
bfc3d3ea:	a460      	lbu	v1,0(a0)
bfc3d3ec:	3260      	sll	v0,v1,8
bfc3d3ee:	a461      	lbu	v1,1(a0)
bfc3d3f0:	1007      	b	bfc3d400 <.LBE28>

bfc3d3f2 <.LBB28>:
bfc3d3f2:	6b12      	li	v1,18
bfc3d3f4:	e978      	mult	s1,v1
bfc3d3f6:	ec12      	mflo	a0
bfc3d3f8:	e08d      	addu	v1,s0,a0
bfc3d3fa:	a341      	lbu	v0,1(v1)
bfc3d3fc:	a360      	lbu	v1,0(v1)
bfc3d3fe:	3240      	sll	v0,8

bfc3d400 <.LBE28>:
bfc3d400:	eb4d      	or	v1,v0
bfc3d402:	920f      	lw	v0,60(sp)
bfc3d404:	cd65      	sh	v1,10(a1)
bfc3d406:	2208      	beqz	v0,bfc3d418 <.LBB32>

bfc3d408 <.LBB30>:
bfc3d408:	6c18      	li	a0,24
bfc3d40a:	e998      	mult	s1,a0
bfc3d40c:	ea12      	mflo	v0
bfc3d40e:	e051      	addu	a0,s0,v0
bfc3d410:	a460      	lbu	v1,0(a0)
bfc3d412:	3260      	sll	v0,v1,8
bfc3d414:	a461      	lbu	v1,1(a0)
bfc3d416:	1007      	b	bfc3d426 <.LBE32>

bfc3d418 <.LBB32>:
bfc3d418:	6b18      	li	v1,24
bfc3d41a:	e978      	mult	s1,v1
bfc3d41c:	ec12      	mflo	a0
bfc3d41e:	e08d      	addu	v1,s0,a0
bfc3d420:	a341      	lbu	v0,1(v1)
bfc3d422:	a360      	lbu	v1,0(v1)
bfc3d424:	3240      	sll	v0,8

bfc3d426 <.LBE32>:
bfc3d426:	eb4d      	or	v1,v0
bfc3d428:	920f      	lw	v0,60(sp)
bfc3d42a:	cd66      	sh	v1,12(a1)
bfc3d42c:	2208      	beqz	v0,bfc3d43e <.LBB36>

bfc3d42e <.LBB34>:
bfc3d42e:	6c14      	li	a0,20
bfc3d430:	e998      	mult	s1,a0
bfc3d432:	ea12      	mflo	v0
bfc3d434:	e051      	addu	a0,s0,v0
bfc3d436:	a460      	lbu	v1,0(a0)
bfc3d438:	3260      	sll	v0,v1,8
bfc3d43a:	a461      	lbu	v1,1(a0)
bfc3d43c:	1007      	b	bfc3d44c <.LBE36>

bfc3d43e <.LBB36>:
bfc3d43e:	6b14      	li	v1,20
bfc3d440:	e978      	mult	s1,v1
bfc3d442:	ec12      	mflo	a0
bfc3d444:	e08d      	addu	v1,s0,a0
bfc3d446:	a341      	lbu	v0,1(v1)
bfc3d448:	a360      	lbu	v1,0(v1)
bfc3d44a:	3240      	sll	v0,8

bfc3d44c <.LBE36>:
bfc3d44c:	eb4d      	or	v1,v0
bfc3d44e:	920f      	lw	v0,60(sp)
bfc3d450:	cd67      	sh	v1,14(a1)
bfc3d452:	2208      	beqz	v0,bfc3d464 <.LBB40>

bfc3d454 <.LBB38>:
bfc3d454:	6c16      	li	a0,22
bfc3d456:	e998      	mult	s1,a0
bfc3d458:	ea12      	mflo	v0
bfc3d45a:	e051      	addu	a0,s0,v0
bfc3d45c:	a460      	lbu	v1,0(a0)
bfc3d45e:	3260      	sll	v0,v1,8
bfc3d460:	a461      	lbu	v1,1(a0)
bfc3d462:	1007      	b	bfc3d472 <.LBE40>

bfc3d464 <.LBB40>:
bfc3d464:	6b16      	li	v1,22
bfc3d466:	e978      	mult	s1,v1
bfc3d468:	ec12      	mflo	a0
bfc3d46a:	e08d      	addu	v1,s0,a0
bfc3d46c:	a341      	lbu	v0,1(v1)
bfc3d46e:	a360      	lbu	v1,0(v1)
bfc3d470:	3240      	sll	v0,8

bfc3d472 <.LBE40>:
bfc3d472:	eb4d      	or	v1,v0
bfc3d474:	920f      	lw	v0,60(sp)
bfc3d476:	cd68      	sh	v1,16(a1)
bfc3d478:	2208      	beqz	v0,bfc3d48a <.LBB44>

bfc3d47a <.LBB42>:
bfc3d47a:	6c06      	li	a0,6
bfc3d47c:	e998      	mult	s1,a0
bfc3d47e:	ea12      	mflo	v0
bfc3d480:	e051      	addu	a0,s0,v0
bfc3d482:	a460      	lbu	v1,0(a0)
bfc3d484:	3260      	sll	v0,v1,8
bfc3d486:	a461      	lbu	v1,1(a0)
bfc3d488:	1007      	b	bfc3d498 <.LBE44>

bfc3d48a <.LBB44>:
bfc3d48a:	6b06      	li	v1,6
bfc3d48c:	e978      	mult	s1,v1
bfc3d48e:	ec12      	mflo	a0
bfc3d490:	e08d      	addu	v1,s0,a0
bfc3d492:	a341      	lbu	v0,1(v1)
bfc3d494:	a360      	lbu	v1,0(v1)
bfc3d496:	3240      	sll	v0,8

bfc3d498 <.LBE44>:
bfc3d498:	eb4d      	or	v1,v0
bfc3d49a:	920f      	lw	v0,60(sp)
bfc3d49c:	cd69      	sh	v1,18(a1)
bfc3d49e:	2208      	beqz	v0,bfc3d4b0 <.LBB48>

bfc3d4a0 <.LBB46>:
bfc3d4a0:	6c0c      	li	a0,12
bfc3d4a2:	e998      	mult	s1,a0
bfc3d4a4:	ea12      	mflo	v0
bfc3d4a6:	e051      	addu	a0,s0,v0
bfc3d4a8:	a460      	lbu	v1,0(a0)
bfc3d4aa:	3260      	sll	v0,v1,8
bfc3d4ac:	a461      	lbu	v1,1(a0)
bfc3d4ae:	1007      	b	bfc3d4be <.LBE48>

bfc3d4b0 <.LBB48>:
bfc3d4b0:	6b0c      	li	v1,12
bfc3d4b2:	e978      	mult	s1,v1
bfc3d4b4:	ec12      	mflo	a0
bfc3d4b6:	e08d      	addu	v1,s0,a0
bfc3d4b8:	a341      	lbu	v0,1(v1)
bfc3d4ba:	a360      	lbu	v1,0(v1)
bfc3d4bc:	3240      	sll	v0,8

bfc3d4be <.LBE48>:
bfc3d4be:	eb4d      	or	v1,v0
bfc3d4c0:	920f      	lw	v0,60(sp)
bfc3d4c2:	cd6a      	sh	v1,20(a1)
bfc3d4c4:	a080      	lbu	a0,0(s0)
bfc3d4c6:	a061      	lbu	v1,1(s0)
bfc3d4c8:	2204      	beqz	v0,bfc3d4d2 <.LBB52>

bfc3d4ca <.LBB50>:
bfc3d4ca:	6744      	move	v0,a0
bfc3d4cc:	ea11      	zeb	v0
bfc3d4ce:	3240      	sll	v0,8
bfc3d4d0:	1004      	b	bfc3d4da <.LBB52+0x8>

bfc3d4d2 <.LBB52>:
bfc3d4d2:	6743      	move	v0,v1
bfc3d4d4:	ea11      	zeb	v0
bfc3d4d6:	3240      	sll	v0,8
bfc3d4d8:	6764      	move	v1,a0
bfc3d4da:	eb11      	zeb	v1

bfc3d4dc <.LBE52>:
bfc3d4dc:	940f      	lw	a0,60(sp)
bfc3d4de:	eb4d      	or	v1,v0
bfc3d4e0:	cd6b      	sh	v1,22(a1)
bfc3d4e2:	2408      	beqz	a0,bfc3d4f4 <.LBB56>

bfc3d4e4 <.LBB54>:
bfc3d4e4:	6b0a      	li	v1,10
bfc3d4e6:	e978      	mult	s1,v1
bfc3d4e8:	ec12      	mflo	a0
bfc3d4ea:	e08d      	addu	v1,s0,a0
bfc3d4ec:	a340      	lbu	v0,0(v1)
bfc3d4ee:	a361      	lbu	v1,1(v1)
bfc3d4f0:	3240      	sll	v0,8
bfc3d4f2:	1007      	b	bfc3d502 <.LBE56>

bfc3d4f4 <.LBB56>:
bfc3d4f4:	6c0a      	li	a0,10
bfc3d4f6:	e998      	mult	s1,a0
bfc3d4f8:	eb12      	mflo	v1
bfc3d4fa:	e071      	addu	a0,s0,v1
bfc3d4fc:	a441      	lbu	v0,1(a0)
bfc3d4fe:	a460      	lbu	v1,0(a0)
bfc3d500:	3240      	sll	v0,8

bfc3d502 <.LBE56>:
bfc3d502:	eb4d      	or	v1,v0
bfc3d504:	cd6c      	sh	v1,24(a1)
bfc3d506:	930f      	lw	v1,60(sp)
bfc3d508:	3224      	sll	v0,s1,1
bfc3d50a:	2305      	beqz	v1,bfc3d516 <.LBB60>

bfc3d50c <.LBB58>:
bfc3d50c:	e049      	addu	v0,s0,v0
bfc3d50e:	a280      	lbu	a0,0(v0)
bfc3d510:	a241      	lbu	v0,1(v0)
bfc3d512:	3380      	sll	v1,a0,8
bfc3d514:	1004      	b	bfc3d51e <.LBE60>

bfc3d516 <.LBB60>:
bfc3d516:	e049      	addu	v0,s0,v0
bfc3d518:	a261      	lbu	v1,1(v0)
bfc3d51a:	a240      	lbu	v0,0(v0)
bfc3d51c:	3360      	sll	v1,8

bfc3d51e <.LBE60>:
bfc3d51e:	940f      	lw	a0,60(sp)
bfc3d520:	ea6d      	or	v0,v1
bfc3d522:	cd4d      	sh	v0,26(a1)
bfc3d524:	322c      	sll	v0,s1,3
bfc3d526:	2405      	beqz	a0,bfc3d532 <.LBB64>

bfc3d528 <.LBB62>:
bfc3d528:	e049      	addu	v0,s0,v0
bfc3d52a:	a260      	lbu	v1,0(v0)
bfc3d52c:	a241      	lbu	v0,1(v0)
bfc3d52e:	3360      	sll	v1,8
bfc3d530:	1004      	b	bfc3d53a <.LBE64>

bfc3d532 <.LBB64>:
bfc3d532:	e051      	addu	a0,s0,v0
bfc3d534:	a461      	lbu	v1,1(a0)
bfc3d536:	a440      	lbu	v0,0(a0)
bfc3d538:	3360      	sll	v1,8

bfc3d53a <.LBE64>:
bfc3d53a:	940f      	lw	a0,60(sp)
bfc3d53c:	ea6d      	or	v0,v1
bfc3d53e:	cd4e      	sh	v0,28(a1)
bfc3d540:	3228      	sll	v0,s1,2
bfc3d542:	2405      	beqz	a0,bfc3d54e <.LBB68>

bfc3d544 <.LBB66>:
bfc3d544:	e049      	addu	v0,s0,v0
bfc3d546:	a260      	lbu	v1,0(v0)
bfc3d548:	a241      	lbu	v0,1(v0)
bfc3d54a:	3360      	sll	v1,8
bfc3d54c:	1004      	b	bfc3d556 <.LBE68>

bfc3d54e <.LBB68>:
bfc3d54e:	e051      	addu	a0,s0,v0
bfc3d550:	a461      	lbu	v1,1(a0)
bfc3d552:	a440      	lbu	v0,0(a0)
bfc3d554:	3360      	sll	v1,8

bfc3d556 <.LBE68>:
bfc3d556:	ea6d      	or	v0,v1
bfc3d558:	cd4f      	sh	v0,30(a1)

bfc3d55a <.LBE5>:
bfc3d55a:	5102      	slti	s1,2
bfc3d55c:	f120 6109 	btnez	bfc3d7b2 <.LBE70>

bfc3d560 <.LBB70>:
bfc3d560:	920f      	lw	v0,60(sp)
bfc3d562:	2207      	beqz	v0,bfc3d572 <.LBB73>

bfc3d564 <.LBB71>:
bfc3d564:	6799      	move	a0,t9
bfc3d566:	e089      	addu	v0,s0,a0
bfc3d568:	4282      	addiu	a0,v0,2
bfc3d56a:	a460      	lbu	v1,0(a0)
bfc3d56c:	a441      	lbu	v0,1(a0)
bfc3d56e:	3360      	sll	v1,8
bfc3d570:	1006      	b	bfc3d57e <.LBE73>

bfc3d572 <.LBB73>:
bfc3d572:	6759      	move	v0,t9
bfc3d574:	e051      	addu	a0,s0,v0
bfc3d576:	4442      	addiu	v0,a0,2
bfc3d578:	a261      	lbu	v1,1(v0)
bfc3d57a:	a240      	lbu	v0,0(v0)
bfc3d57c:	3360      	sll	v1,8

bfc3d57e <.LBE73>:
bfc3d57e:	ea6d      	or	v0,v1
bfc3d580:	930f      	lw	v1,60(sp)
bfc3d582:	ce40      	sh	v0,0(a2)
bfc3d584:	2306      	beqz	v1,bfc3d592 <.LBB77>

bfc3d586 <.LBB75>:
bfc3d586:	e0e9      	addu	v0,s0,a3
bfc3d588:	4282      	addiu	a0,v0,2
bfc3d58a:	a460      	lbu	v1,0(a0)
bfc3d58c:	a441      	lbu	v0,1(a0)
bfc3d58e:	3360      	sll	v1,8
bfc3d590:	1005      	b	bfc3d59c <.LBE77>

bfc3d592 <.LBB77>:
bfc3d592:	e0e9      	addu	v0,s0,a3
bfc3d594:	4282      	addiu	a0,v0,2
bfc3d596:	a461      	lbu	v1,1(a0)
bfc3d598:	a440      	lbu	v0,0(a0)
bfc3d59a:	3360      	sll	v1,8

bfc3d59c <.LBE77>:
bfc3d59c:	940f      	lw	a0,60(sp)
bfc3d59e:	ea6d      	or	v0,v1
bfc3d5a0:	ce41      	sh	v0,2(a2)
bfc3d5a2:	2409      	beqz	a0,bfc3d5b6 <.LBB81>

bfc3d5a4 <.LBB79>:
bfc3d5a4:	6a1c      	li	v0,28
bfc3d5a6:	e958      	mult	s1,v0
bfc3d5a8:	eb12      	mflo	v1
bfc3d5aa:	e071      	addu	a0,s0,v1
bfc3d5ac:	4462      	addiu	v1,a0,2
bfc3d5ae:	a340      	lbu	v0,0(v1)
bfc3d5b0:	a361      	lbu	v1,1(v1)
bfc3d5b2:	3240      	sll	v0,8
bfc3d5b4:	1008      	b	bfc3d5c6 <.LBE81>

bfc3d5b6 <.LBB81>:
bfc3d5b6:	6a1c      	li	v0,28
bfc3d5b8:	e958      	mult	s1,v0
bfc3d5ba:	ec12      	mflo	a0
bfc3d5bc:	e08d      	addu	v1,s0,a0
bfc3d5be:	4382      	addiu	a0,v1,2
bfc3d5c0:	a441      	lbu	v0,1(a0)
bfc3d5c2:	a460      	lbu	v1,0(a0)
bfc3d5c4:	3240      	sll	v0,8

bfc3d5c6 <.LBE81>:
bfc3d5c6:	eb4d      	or	v1,v0
bfc3d5c8:	ce62      	sh	v1,4(a2)
bfc3d5ca:	930f      	lw	v1,60(sp)
bfc3d5cc:	3230      	sll	v0,s1,4
bfc3d5ce:	2306      	beqz	v1,bfc3d5dc <.LBB85>

bfc3d5d0 <.LBB83>:
bfc3d5d0:	e049      	addu	v0,s0,v0
bfc3d5d2:	4282      	addiu	a0,v0,2
bfc3d5d4:	a460      	lbu	v1,0(a0)
bfc3d5d6:	a441      	lbu	v0,1(a0)
bfc3d5d8:	3360      	sll	v1,8
bfc3d5da:	1005      	b	bfc3d5e6 <.LBE85>

bfc3d5dc <.LBB85>:
bfc3d5dc:	e049      	addu	v0,s0,v0
bfc3d5de:	4282      	addiu	a0,v0,2
bfc3d5e0:	a461      	lbu	v1,1(a0)
bfc3d5e2:	a440      	lbu	v0,0(a0)
bfc3d5e4:	3360      	sll	v1,8

bfc3d5e6 <.LBE85>:
bfc3d5e6:	940f      	lw	a0,60(sp)
bfc3d5e8:	ea6d      	or	v0,v1
bfc3d5ea:	ce43      	sh	v0,6(a2)
bfc3d5ec:	2409      	beqz	a0,bfc3d600 <.LBB89>

bfc3d5ee <.LBB87>:
bfc3d5ee:	6a1a      	li	v0,26
bfc3d5f0:	e958      	mult	s1,v0
bfc3d5f2:	eb12      	mflo	v1
bfc3d5f4:	e071      	addu	a0,s0,v1
bfc3d5f6:	4462      	addiu	v1,a0,2
bfc3d5f8:	a340      	lbu	v0,0(v1)
bfc3d5fa:	a361      	lbu	v1,1(v1)
bfc3d5fc:	3240      	sll	v0,8
bfc3d5fe:	1008      	b	bfc3d610 <.LBE89>

bfc3d600 <.LBB89>:
bfc3d600:	6a1a      	li	v0,26
bfc3d602:	e958      	mult	s1,v0
bfc3d604:	ec12      	mflo	a0
bfc3d606:	e08d      	addu	v1,s0,a0
bfc3d608:	4382      	addiu	a0,v1,2
bfc3d60a:	a441      	lbu	v0,1(a0)
bfc3d60c:	a460      	lbu	v1,0(a0)
bfc3d60e:	3240      	sll	v0,8

bfc3d610 <.LBE89>:
bfc3d610:	eb4d      	or	v1,v0
bfc3d612:	ce64      	sh	v1,8(a2)
bfc3d614:	930f      	lw	v1,60(sp)
bfc3d616:	2309      	beqz	v1,bfc3d62a <.LBB93>

bfc3d618 <.LBB91>:
bfc3d618:	6a12      	li	v0,18
bfc3d61a:	e958      	mult	s1,v0
bfc3d61c:	ec12      	mflo	a0
bfc3d61e:	e08d      	addu	v1,s0,a0
bfc3d620:	4382      	addiu	a0,v1,2
bfc3d622:	a440      	lbu	v0,0(a0)
bfc3d624:	a461      	lbu	v1,1(a0)
bfc3d626:	3240      	sll	v0,8
bfc3d628:	1008      	b	bfc3d63a <.LBE93>

bfc3d62a <.LBB93>:
bfc3d62a:	6c12      	li	a0,18
bfc3d62c:	e998      	mult	s1,a0
bfc3d62e:	ea12      	mflo	v0
bfc3d630:	e04d      	addu	v1,s0,v0
bfc3d632:	4362      	addiu	v1,v1,2
bfc3d634:	a381      	lbu	a0,1(v1)
bfc3d636:	a360      	lbu	v1,0(v1)
bfc3d638:	3280      	sll	v0,a0,8

bfc3d63a <.LBE93>:
bfc3d63a:	eb4d      	or	v1,v0
bfc3d63c:	ce65      	sh	v1,10(a2)
bfc3d63e:	930f      	lw	v1,60(sp)
bfc3d640:	2309      	beqz	v1,bfc3d654 <.LBB97>

bfc3d642 <.LBB95>:
bfc3d642:	6a18      	li	v0,24
bfc3d644:	e958      	mult	s1,v0
bfc3d646:	ec12      	mflo	a0
bfc3d648:	e08d      	addu	v1,s0,a0
bfc3d64a:	4382      	addiu	a0,v1,2
bfc3d64c:	a440      	lbu	v0,0(a0)
bfc3d64e:	a461      	lbu	v1,1(a0)
bfc3d650:	3240      	sll	v0,8
bfc3d652:	1008      	b	bfc3d664 <.LBE97>

bfc3d654 <.LBB97>:
bfc3d654:	6c18      	li	a0,24
bfc3d656:	e998      	mult	s1,a0
bfc3d658:	ea12      	mflo	v0
bfc3d65a:	e04d      	addu	v1,s0,v0
bfc3d65c:	4362      	addiu	v1,v1,2
bfc3d65e:	a381      	lbu	a0,1(v1)
bfc3d660:	a360      	lbu	v1,0(v1)
bfc3d662:	3280      	sll	v0,a0,8

bfc3d664 <.LBE97>:
bfc3d664:	eb4d      	or	v1,v0
bfc3d666:	ce66      	sh	v1,12(a2)
bfc3d668:	930f      	lw	v1,60(sp)
bfc3d66a:	2309      	beqz	v1,bfc3d67e <.LBB101>

bfc3d66c <.LBB99>:
bfc3d66c:	6a14      	li	v0,20
bfc3d66e:	e958      	mult	s1,v0
bfc3d670:	ec12      	mflo	a0
bfc3d672:	e08d      	addu	v1,s0,a0
bfc3d674:	4382      	addiu	a0,v1,2
bfc3d676:	a440      	lbu	v0,0(a0)
bfc3d678:	a461      	lbu	v1,1(a0)
bfc3d67a:	3240      	sll	v0,8
bfc3d67c:	1008      	b	bfc3d68e <.LBE101>

bfc3d67e <.LBB101>:
bfc3d67e:	6c14      	li	a0,20
bfc3d680:	e998      	mult	s1,a0
bfc3d682:	ea12      	mflo	v0
bfc3d684:	e04d      	addu	v1,s0,v0
bfc3d686:	4362      	addiu	v1,v1,2
bfc3d688:	a381      	lbu	a0,1(v1)
bfc3d68a:	a360      	lbu	v1,0(v1)
bfc3d68c:	3280      	sll	v0,a0,8

bfc3d68e <.LBE101>:
bfc3d68e:	eb4d      	or	v1,v0
bfc3d690:	ce67      	sh	v1,14(a2)
bfc3d692:	930f      	lw	v1,60(sp)
bfc3d694:	2309      	beqz	v1,bfc3d6a8 <.LBB105>

bfc3d696 <.LBB103>:
bfc3d696:	6a16      	li	v0,22
bfc3d698:	e958      	mult	s1,v0
bfc3d69a:	ec12      	mflo	a0
bfc3d69c:	e08d      	addu	v1,s0,a0
bfc3d69e:	4382      	addiu	a0,v1,2
bfc3d6a0:	a440      	lbu	v0,0(a0)
bfc3d6a2:	a461      	lbu	v1,1(a0)
bfc3d6a4:	3240      	sll	v0,8
bfc3d6a6:	1008      	b	bfc3d6b8 <.LBE105>

bfc3d6a8 <.LBB105>:
bfc3d6a8:	6c16      	li	a0,22
bfc3d6aa:	e998      	mult	s1,a0
bfc3d6ac:	ea12      	mflo	v0
bfc3d6ae:	e04d      	addu	v1,s0,v0
bfc3d6b0:	4362      	addiu	v1,v1,2
bfc3d6b2:	a381      	lbu	a0,1(v1)
bfc3d6b4:	a360      	lbu	v1,0(v1)
bfc3d6b6:	3280      	sll	v0,a0,8

bfc3d6b8 <.LBE105>:
bfc3d6b8:	eb4d      	or	v1,v0
bfc3d6ba:	ce68      	sh	v1,16(a2)
bfc3d6bc:	930f      	lw	v1,60(sp)
bfc3d6be:	2309      	beqz	v1,bfc3d6d2 <.LBB109>

bfc3d6c0 <.LBB107>:
bfc3d6c0:	6a06      	li	v0,6
bfc3d6c2:	e958      	mult	s1,v0
bfc3d6c4:	ec12      	mflo	a0
bfc3d6c6:	e08d      	addu	v1,s0,a0
bfc3d6c8:	4382      	addiu	a0,v1,2
bfc3d6ca:	a440      	lbu	v0,0(a0)
bfc3d6cc:	a461      	lbu	v1,1(a0)
bfc3d6ce:	3240      	sll	v0,8
bfc3d6d0:	1008      	b	bfc3d6e2 <.LBE109>

bfc3d6d2 <.LBB109>:
bfc3d6d2:	6c06      	li	a0,6
bfc3d6d4:	e998      	mult	s1,a0
bfc3d6d6:	ea12      	mflo	v0
bfc3d6d8:	e04d      	addu	v1,s0,v0
bfc3d6da:	4362      	addiu	v1,v1,2
bfc3d6dc:	a381      	lbu	a0,1(v1)
bfc3d6de:	a360      	lbu	v1,0(v1)
bfc3d6e0:	3280      	sll	v0,a0,8

bfc3d6e2 <.LBE109>:
bfc3d6e2:	eb4d      	or	v1,v0
bfc3d6e4:	ce69      	sh	v1,18(a2)
bfc3d6e6:	930f      	lw	v1,60(sp)
bfc3d6e8:	2309      	beqz	v1,bfc3d6fc <.LBB113>

bfc3d6ea <.LBB111>:
bfc3d6ea:	6a0c      	li	v0,12
bfc3d6ec:	e958      	mult	s1,v0
bfc3d6ee:	ec12      	mflo	a0
bfc3d6f0:	e08d      	addu	v1,s0,a0
bfc3d6f2:	4382      	addiu	a0,v1,2
bfc3d6f4:	a440      	lbu	v0,0(a0)
bfc3d6f6:	a461      	lbu	v1,1(a0)
bfc3d6f8:	3240      	sll	v0,8
bfc3d6fa:	1008      	b	bfc3d70c <.LBE113>

bfc3d6fc <.LBB113>:
bfc3d6fc:	6c0c      	li	a0,12
bfc3d6fe:	e998      	mult	s1,a0
bfc3d700:	ea12      	mflo	v0
bfc3d702:	e04d      	addu	v1,s0,v0
bfc3d704:	4362      	addiu	v1,v1,2
bfc3d706:	a381      	lbu	a0,1(v1)
bfc3d708:	a360      	lbu	v1,0(v1)
bfc3d70a:	3280      	sll	v0,a0,8

bfc3d70c <.LBE113>:
bfc3d70c:	eb4d      	or	v1,v0
bfc3d70e:	920f      	lw	v0,60(sp)
bfc3d710:	ce6a      	sh	v1,20(a2)
bfc3d712:	4062      	addiu	v1,s0,2
bfc3d714:	2204      	beqz	v0,bfc3d71e <.LBB117>

bfc3d716 <.LBB115>:
bfc3d716:	a380      	lbu	a0,0(v1)
bfc3d718:	a361      	lbu	v1,1(v1)
bfc3d71a:	3280      	sll	v0,a0,8
bfc3d71c:	1003      	b	bfc3d724 <.LBE117>

bfc3d71e <.LBB117>:
bfc3d71e:	a341      	lbu	v0,1(v1)
bfc3d720:	a360      	lbu	v1,0(v1)
bfc3d722:	3240      	sll	v0,8

bfc3d724 <.LBE117>:
bfc3d724:	eb4d      	or	v1,v0
bfc3d726:	ce6b      	sh	v1,22(a2)
bfc3d728:	930f      	lw	v1,60(sp)
bfc3d72a:	2309      	beqz	v1,bfc3d73e <.LBB121>

bfc3d72c <.LBB119>:
bfc3d72c:	6a0a      	li	v0,10
bfc3d72e:	e958      	mult	s1,v0
bfc3d730:	ec12      	mflo	a0
bfc3d732:	e08d      	addu	v1,s0,a0
bfc3d734:	4382      	addiu	a0,v1,2
bfc3d736:	a440      	lbu	v0,0(a0)
bfc3d738:	a461      	lbu	v1,1(a0)
bfc3d73a:	3240      	sll	v0,8
bfc3d73c:	1008      	b	bfc3d74e <.LBE121>

bfc3d73e <.LBB121>:
bfc3d73e:	6c0a      	li	a0,10
bfc3d740:	e998      	mult	s1,a0
bfc3d742:	ea12      	mflo	v0
bfc3d744:	e04d      	addu	v1,s0,v0
bfc3d746:	4362      	addiu	v1,v1,2
bfc3d748:	a381      	lbu	a0,1(v1)
bfc3d74a:	a360      	lbu	v1,0(v1)
bfc3d74c:	3280      	sll	v0,a0,8

bfc3d74e <.LBE121>:
bfc3d74e:	eb4d      	or	v1,v0
bfc3d750:	ce6c      	sh	v1,24(a2)
bfc3d752:	930f      	lw	v1,60(sp)
bfc3d754:	3224      	sll	v0,s1,1
bfc3d756:	2306      	beqz	v1,bfc3d764 <.LBB125>

bfc3d758 <.LBB123>:
bfc3d758:	e04d      	addu	v1,s0,v0
bfc3d75a:	4342      	addiu	v0,v1,2
bfc3d75c:	a280      	lbu	a0,0(v0)
bfc3d75e:	a241      	lbu	v0,1(v0)
bfc3d760:	3380      	sll	v1,a0,8
bfc3d762:	1005      	b	bfc3d76e <.LBE125>

bfc3d764 <.LBB125>:
bfc3d764:	e04d      	addu	v1,s0,v0
bfc3d766:	4342      	addiu	v0,v1,2
bfc3d768:	a281      	lbu	a0,1(v0)
bfc3d76a:	a240      	lbu	v0,0(v0)
bfc3d76c:	3380      	sll	v1,a0,8

bfc3d76e <.LBE125>:
bfc3d76e:	940f      	lw	a0,60(sp)
bfc3d770:	ea6d      	or	v0,v1
bfc3d772:	ce4d      	sh	v0,26(a2)
bfc3d774:	322c      	sll	v0,s1,3
bfc3d776:	2406      	beqz	a0,bfc3d784 <.LBB129>

bfc3d778 <.LBB127>:
bfc3d778:	e051      	addu	a0,s0,v0
bfc3d77a:	4442      	addiu	v0,a0,2
bfc3d77c:	a260      	lbu	v1,0(v0)
bfc3d77e:	a241      	lbu	v0,1(v0)
bfc3d780:	3360      	sll	v1,8
bfc3d782:	1005      	b	bfc3d78e <.LBE129>

bfc3d784 <.LBB129>:
bfc3d784:	e051      	addu	a0,s0,v0
bfc3d786:	4442      	addiu	v0,a0,2
bfc3d788:	a261      	lbu	v1,1(v0)
bfc3d78a:	a240      	lbu	v0,0(v0)
bfc3d78c:	3360      	sll	v1,8

bfc3d78e <.LBE129>:
bfc3d78e:	ea6d      	or	v0,v1
bfc3d790:	930f      	lw	v1,60(sp)
bfc3d792:	ce4e      	sh	v0,28(a2)
bfc3d794:	3228      	sll	v0,s1,2
bfc3d796:	2306      	beqz	v1,bfc3d7a4 <.LBB133>

bfc3d798 <.LBB131>:
bfc3d798:	e04d      	addu	v1,s0,v0
bfc3d79a:	4342      	addiu	v0,v1,2
bfc3d79c:	a280      	lbu	a0,0(v0)
bfc3d79e:	a241      	lbu	v0,1(v0)
bfc3d7a0:	3380      	sll	v1,a0,8
bfc3d7a2:	1005      	b	bfc3d7ae <.LBE133>

bfc3d7a4 <.LBB133>:
bfc3d7a4:	e04d      	addu	v1,s0,v0
bfc3d7a6:	4342      	addiu	v0,v1,2
bfc3d7a8:	a281      	lbu	a0,1(v0)
bfc3d7aa:	a240      	lbu	v0,0(v0)
bfc3d7ac:	3380      	sll	v1,a0,8

bfc3d7ae <.LBE133>:
bfc3d7ae:	ea6d      	or	v0,v1
bfc3d7b0:	ce4f      	sh	v0,30(a2)

bfc3d7b2 <.LBE70>:
bfc3d7b2:	9204      	lw	v0,16(sp)
bfc3d7b4:	3434      	sll	a0,s1,5
bfc3d7b6:	4af0      	addiu	v0,-16
bfc3d7b8:	5200      	slti	v0,0
bfc3d7ba:	e081      	addu	s0,a0
bfc3d7bc:	d204      	sw	v0,16(sp)
bfc3d7be:	f5bf 6016 	bteqz	bfc3d32e <sbc_encoder_process_input_s8_internal+0x72>
bfc3d7c2:	920a      	lw	v0,40(sp)
bfc3d7c4:	6475      	restore	40,ra,s0-s1
bfc3d7c6:	e8a0      	jrc	ra
bfc3d7c8:	f801      	ld	s0,8(sp)
bfc3d7ca:	bfc3      	lwu	a2,12(a3)

bfc3d7cc <sbc_enc_process_input_4s_le>:
bfc3d7cc:	e820      	jr	ra
bfc3d7ce:	6a00      	li	v0,0

bfc3d7d0 <sbc_enc_process_input_4s_be>:
bfc3d7d0:	e820      	jr	ra
bfc3d7d2:	6a00      	li	v0,0

bfc3d7d4 <sbc_enc_process_input_8s_le>:
bfc3d7d4:	64c4      	save	32,ra
bfc3d7d6:	920c      	lw	v0,48(sp)
bfc3d7d8:	5202      	slti	v0,2
bfc3d7da:	6104      	btnez	bfc3d7e4 <sbc_enc_process_input_8s_le+0x10>
bfc3d7dc:	6b02      	li	v1,2
bfc3d7de:	434e      	addiu	v0,v1,-2
bfc3d7e0:	d304      	sw	v1,16(sp)
bfc3d7e2:	1003      	b	bfc3d7ea <sbc_enc_process_input_8s_le+0x16>
bfc3d7e4:	6a01      	li	v0,1
bfc3d7e6:	d204      	sw	v0,16(sp)
bfc3d7e8:	424f      	addiu	v0,v0,-1
bfc3d7ea:	1a1f f4af 	jal	bfc3d2bc <sbc_encoder_process_input_s8_internal>
bfc3d7ee:	d205      	sw	v0,20(sp)
bfc3d7f0:	6444      	restore	32,ra
bfc3d7f2:	e8a0      	jrc	ra

bfc3d7f4 <sbc_enc_process_input_8s_be>:
bfc3d7f4:	e820      	jr	ra
bfc3d7f6:	6a00      	li	v0,0

bfc3d7f8 <sbc_calc_scalefactors>:
bfc3d7f8:	e8a0      	jrc	ra
bfc3d7fa:	6500      	nop

bfc3d7fc <sbc_calculate_bits_internal>:
bfc3d7fc:	27bdffb8 	addiu	sp,sp,-72
bfc3d800:	afb10044 	sw	s1,68(sp)
bfc3d804:	afb00040 	sw	s0,64(sp)
bfc3d808:	90870003 	lbu	a3,3(a0)
bfc3d80c:	0080c021 	move	t8,a0
bfc3d810:	24e4fffe 	addiu	a0,a3,-2
bfc3d814:	308300ff 	andi	v1,a0,0xff
bfc3d818:	2c620002 	sltiu	v0,v1,2
bfc3d81c:	00a08821 	move	s1,a1
bfc3d820:	104000b9 	beqz	v0,bfc3db08 <sbc_calculate_bits_internal+0x30c>
bfc3d824:	930f0000 	lbu	t7,0(t8)
bfc3d828:	00006021 	move	t4,zero
bfc3d82c:	00007021 	move	t6,zero
bfc3d830:	0006c82a 	slt	t9,zero,a2
bfc3d834:	00005821 	move	t3,zero
bfc3d838:	13200025 	beqz	t9,bfc3d8d0 <sbc_calculate_bits_internal+0xd4>
bfc3d83c:	00006821 	move	t5,zero
bfc3d840:	3c0abfc4 	lui	t2,0xbfc4
bfc3d844:	3c09bfc4 	lui	t1,0xbfc4
bfc3d848:	000f4100 	sll	t0,t7,0x4
bfc3d84c:	2550df04 	addiu	s0,t2,-8444
bfc3d850:	2525df84 	addiu	a1,t1,-8316
bfc3d854:	000f1940 	sll	v1,t7,0x5
bfc3d858:	01054821 	addu	t1,t0,a1
bfc3d85c:	00705021 	addu	t2,v1,s0
bfc3d860:	24050004 	li	a1,4
bfc3d864:	2410fffb 	li	s0,-5
bfc3d868:	017d3821 	addu	a3,t3,sp
bfc3d86c:	01784021 	addu	t0,t3,t8
bfc3d870:	8d030010 	lw	v1,16(t0)
bfc3d874:	14600003 	bnez	v1,bfc3d884 <sbc_calculate_bits_internal+0x88>
bfc3d878:	00000000 	nop
bfc3d87c:	1000000a 	b	bfc3d8a8 <sbc_calculate_bits_internal+0xac>
bfc3d880:	acf00000 	sw	s0,0(a3)
bfc3d884:	54c50002 	bnel	a2,a1,bfc3d890 <sbc_calculate_bits_internal+0x94>
bfc3d888:	8d420000 	lw	v0,0(t2)
bfc3d88c:	8d220000 	lw	v0,0(t1)
bfc3d890:	00621023 	subu	v0,v1,v0
bfc3d894:	18400003 	blez	v0,bfc3d8a4 <sbc_calculate_bits_internal+0xa8>
bfc3d898:	00021843 	sra	v1,v0,0x1
bfc3d89c:	10000002 	b	bfc3d8a8 <sbc_calculate_bits_internal+0xac>
bfc3d8a0:	ace30000 	sw	v1,0(a3)
bfc3d8a4:	ace20000 	sw	v0,0(a3)
bfc3d8a8:	8ce40000 	lw	a0,0(a3)
bfc3d8ac:	25ad0001 	addiu	t5,t5,1
bfc3d8b0:	0184102a 	slt	v0,t4,a0
bfc3d8b4:	01a6182a 	slt	v1,t5,a2
bfc3d8b8:	25290004 	addiu	t1,t1,4
bfc3d8bc:	254a0004 	addiu	t2,t2,4
bfc3d8c0:	25080004 	addiu	t0,t0,4
bfc3d8c4:	24e70004 	addiu	a3,a3,4
bfc3d8c8:	1460ffe9 	bnez	v1,bfc3d870 <sbc_calculate_bits_internal+0x74>
bfc3d8cc:	0082600b 	movn	t4,a0,v0
bfc3d8d0:	25ce0001 	addiu	t6,t6,1
bfc3d8d4:	29cd0002 	slti	t5,t6,2
bfc3d8d8:	15a0ffd7 	bnez	t5,bfc3d838 <sbc_calculate_bits_internal+0x3c>
bfc3d8dc:	256b0020 	addiu	t3,t3,32
bfc3d8e0:	25880001 	addiu	t0,t4,1
bfc3d8e4:	00005021 	move	t2,zero
bfc3d8e8:	00005821 	move	t3,zero
bfc3d8ec:	014b5021 	addu	t2,t2,t3
bfc3d8f0:	2508ffff 	addiu	t0,t0,-1
bfc3d8f4:	00005821 	move	t3,zero
bfc3d8f8:	00007021 	move	t6,zero
bfc3d8fc:	00006821 	move	t5,zero
bfc3d900:	13200013 	beqz	t9,bfc3d950 <sbc_calculate_bits_internal+0x154>
bfc3d904:	250c0001 	addiu	t4,t0,1
bfc3d908:	250f0010 	addiu	t7,t0,16
bfc3d90c:	01bd1821 	addu	v1,t5,sp
bfc3d910:	00c03821 	move	a3,a2
bfc3d914:	8c700000 	lw	s0,0(v1)
bfc3d918:	25690002 	addiu	t1,t3,2
bfc3d91c:	0190282a 	slt	a1,t4,s0
bfc3d920:	10a00005 	beqz	a1,bfc3d938 <sbc_calculate_bits_internal+0x13c>
bfc3d924:	020f202a 	slt	a0,s0,t7
bfc3d928:	50800004 	beqzl	a0,bfc3d93c <sbc_calculate_bits_internal+0x140>
bfc3d92c:	8c620000 	lw	v0,0(v1)
bfc3d930:	10000004 	b	bfc3d944 <sbc_calculate_bits_internal+0x148>
bfc3d934:	256b0001 	addiu	t3,t3,1
bfc3d938:	8c620000 	lw	v0,0(v1)
bfc3d93c:	004c2026 	xor	a0,v0,t4
bfc3d940:	0124580a 	movz	t3,t1,a0
bfc3d944:	24e7ffff 	addiu	a3,a3,-1
bfc3d948:	14e0fff2 	bnez	a3,bfc3d914 <sbc_calculate_bits_internal+0x118>
bfc3d94c:	24630004 	addiu	v1,v1,4
bfc3d950:	25ce0001 	addiu	t6,t6,1
bfc3d954:	29cc0002 	slti	t4,t6,2
bfc3d958:	1580ffe9 	bnez	t4,bfc3d900 <sbc_calculate_bits_internal+0x104>
bfc3d95c:	25ad0020 	addiu	t5,t5,32
bfc3d960:	93040008 	lbu	a0,8(t8)
bfc3d964:	014b1821 	addu	v1,t2,t3
bfc3d968:	0064702a 	slt	t6,v1,a0
bfc3d96c:	55c0ffe0 	bnezl	t6,bfc3d8f0 <sbc_calculate_bits_internal+0xf4>
bfc3d970:	014b5021 	addu	t2,t2,t3
bfc3d974:	14640003 	bne	v1,a0,bfc3d984 <sbc_calculate_bits_internal+0x188>
bfc3d978:	00005821 	move	t3,zero
bfc3d97c:	00605021 	move	t2,v1
bfc3d980:	2508ffff 	addiu	t0,t0,-1
bfc3d984:	13200016 	beqz	t9,bfc3d9e0 <sbc_calculate_bits_internal+0x1e4>
bfc3d988:	00004821 	move	t1,zero
bfc3d98c:	000b68c0 	sll	t5,t3,0x3
bfc3d990:	250c0002 	addiu	t4,t0,2
bfc3d994:	240e0010 	li	t6,16
bfc3d998:	01a98021 	addu	s0,t5,t1
bfc3d99c:	00103880 	sll	a3,s0,0x2
bfc3d9a0:	00fd2821 	addu	a1,a3,sp
bfc3d9a4:	8ca30000 	lw	v1,0(a1)
bfc3d9a8:	00f11021 	addu	v0,a3,s1
bfc3d9ac:	00682023 	subu	a0,v1,t0
bfc3d9b0:	006c782a 	slt	t7,v1,t4
bfc3d9b4:	28870011 	slti	a3,a0,17
bfc3d9b8:	11e00003 	beqz	t7,bfc3d9c8 <sbc_calculate_bits_internal+0x1cc>
bfc3d9bc:	25290001 	addiu	t1,t1,1
bfc3d9c0:	10000004 	b	bfc3d9d4 <sbc_calculate_bits_internal+0x1d8>
bfc3d9c4:	ac400000 	sw	zero,0(v0)
bfc3d9c8:	14e00002 	bnez	a3,bfc3d9d4 <sbc_calculate_bits_internal+0x1d8>
bfc3d9cc:	ac440000 	sw	a0,0(v0)
bfc3d9d0:	ac4e0000 	sw	t6,0(v0)
bfc3d9d4:	0126202a 	slt	a0,t1,a2
bfc3d9d8:	1480fff0 	bnez	a0,bfc3d99c <sbc_calculate_bits_internal+0x1a0>
bfc3d9dc:	01a98021 	addu	s0,t5,t1
bfc3d9e0:	256b0001 	addiu	t3,t3,1
bfc3d9e4:	29690002 	slti	t1,t3,2
bfc3d9e8:	1520ffe6 	bnez	t1,bfc3d984 <sbc_calculate_bits_internal+0x188>
bfc3d9ec:	00000000 	nop
bfc3d9f0:	930d0008 	lbu	t5,8(t8)
bfc3d9f4:	00005821 	move	t3,zero
bfc3d9f8:	014dc82a 	slt	t9,t2,t5
bfc3d9fc:	13200026 	beqz	t9,bfc3da98 <sbc_calculate_bits_internal+0x29c>
bfc3da00:	00004821 	move	t1,zero
bfc3da04:	25080001 	addiu	t0,t0,1
bfc3da08:	240d0002 	li	t5,2
bfc3da0c:	240c0001 	li	t4,1
bfc3da10:	000b28c0 	sll	a1,t3,0x3
bfc3da14:	00a93821 	addu	a3,a1,t1
bfc3da18:	00071880 	sll	v1,a3,0x2
bfc3da1c:	00712021 	addu	a0,v1,s1
bfc3da20:	8c8e0000 	lw	t6,0(a0)
bfc3da24:	007d3821 	addu	a3,v1,sp
bfc3da28:	25cffffe 	addiu	t7,t6,-2
bfc3da2c:	2de2000e 	sltiu	v0,t7,14
bfc3da30:	10400004 	beqz	v0,bfc3da44 <sbc_calculate_bits_internal+0x248>
bfc3da34:	25c30001 	addiu	v1,t6,1
bfc3da38:	254a0001 	addiu	t2,t2,1
bfc3da3c:	1000000a 	b	bfc3da68 <sbc_calculate_bits_internal+0x26c>
bfc3da40:	ac830000 	sw	v1,0(a0)
bfc3da44:	8cf00000 	lw	s0,0(a3)
bfc3da48:	16080007 	bne	s0,t0,bfc3da68 <sbc_calculate_bits_internal+0x26c>
bfc3da4c:	25430001 	addiu	v1,t2,1
bfc3da50:	93020008 	lbu	v0,8(t8)
bfc3da54:	0062c82a 	slt	t9,v1,v0
bfc3da58:	13200003 	beqz	t9,bfc3da68 <sbc_calculate_bits_internal+0x26c>
bfc3da5c:	00000000 	nop
bfc3da60:	ac8d0000 	sw	t5,0(a0)
bfc3da64:	254a0002 	addiu	t2,t2,2
bfc3da68:	156c0007 	bne	t3,t4,bfc3da88 <sbc_calculate_bits_internal+0x28c>
bfc3da6c:	240b0001 	li	t3,1
bfc3da70:	25290001 	addiu	t1,t1,1
bfc3da74:	0126202a 	slt	a0,t1,a2
bfc3da78:	14800003 	bnez	a0,bfc3da88 <sbc_calculate_bits_internal+0x28c>
bfc3da7c:	00005821 	move	t3,zero
bfc3da80:	10000006 	b	bfc3da9c <sbc_calculate_bits_internal+0x2a0>
bfc3da84:	930c0008 	lbu	t4,8(t8)
bfc3da88:	930f0008 	lbu	t7,8(t8)
bfc3da8c:	014f702a 	slt	t6,t2,t7
bfc3da90:	15c0ffe0 	bnez	t6,bfc3da14 <sbc_calculate_bits_internal+0x218>
bfc3da94:	000b28c0 	sll	a1,t3,0x3
bfc3da98:	930c0008 	lbu	t4,8(t8)
bfc3da9c:	00004021 	move	t0,zero
bfc3daa0:	014c582a 	slt	t3,t2,t4
bfc3daa4:	11600018 	beqz	t3,bfc3db08 <sbc_calculate_bits_internal+0x30c>
bfc3daa8:	00003821 	move	a3,zero
bfc3daac:	24090001 	li	t1,1
bfc3dab0:	0008c8c0 	sll	t9,t0,0x3
bfc3dab4:	03271821 	addu	v1,t9,a3
bfc3dab8:	00038080 	sll	s0,v1,0x2
bfc3dabc:	02111821 	addu	v1,s0,s1
bfc3dac0:	8c650000 	lw	a1,0(v1)
bfc3dac4:	28ad0010 	slti	t5,a1,16
bfc3dac8:	11a00003 	beqz	t5,bfc3dad8 <sbc_calculate_bits_internal+0x2dc>
bfc3dacc:	24a40001 	addiu	a0,a1,1
bfc3dad0:	ac640000 	sw	a0,0(v1)
bfc3dad4:	254a0001 	addiu	t2,t2,1
bfc3dad8:	15090007 	bne	t0,t1,bfc3daf8 <sbc_calculate_bits_internal+0x2fc>
bfc3dadc:	24080001 	li	t0,1
bfc3dae0:	24e70001 	addiu	a3,a3,1
bfc3dae4:	00e6102a 	slt	v0,a3,a2
bfc3dae8:	14400003 	bnez	v0,bfc3daf8 <sbc_calculate_bits_internal+0x2fc>
bfc3daec:	00004021 	move	t0,zero
bfc3daf0:	10000006 	b	bfc3db0c <sbc_calculate_bits_internal+0x310>
bfc3daf4:	8fb10044 	lw	s1,68(sp)
bfc3daf8:	930e0008 	lbu	t6,8(t8)
bfc3dafc:	014e202a 	slt	a0,t2,t6
bfc3db00:	1480ffec 	bnez	a0,bfc3dab4 <sbc_calculate_bits_internal+0x2b8>
bfc3db04:	0008c8c0 	sll	t9,t0,0x3
bfc3db08:	8fb10044 	lw	s1,68(sp)
bfc3db0c:	8fb00040 	lw	s0,64(sp)
bfc3db10:	03e00008 	jr	ra
bfc3db14:	27bd0048 	addiu	sp,sp,72

bfc3db18 <sbc_pack_frame_internal>:
bfc3db18:	27bdfef8 	addiu	sp,sp,-264
bfc3db1c:	afb100e4 	sw	s1,228(sp)
bfc3db20:	2411ff9c 	li	s1,-100
bfc3db24:	a0910000 	sb	s1,0(a0)
bfc3db28:	afb700fc 	sw	s7,252(sp)
bfc3db2c:	afb500f4 	sw	s5,244(sp)
bfc3db30:	afb400f0 	sw	s4,240(sp)
bfc3db34:	afb300ec 	sw	s3,236(sp)
bfc3db38:	afb200e8 	sw	s2,232(sp)
bfc3db3c:	afbf0100 	sw	ra,256(sp)
bfc3db40:	afb600f8 	sw	s6,248(sp)
bfc3db44:	afb000e0 	sw	s0,224(sp)
bfc3db48:	90b00000 	lbu	s0,0(a1)
bfc3db4c:	00e0a021 	move	s4,a3
bfc3db50:	320f0003 	andi	t7,s0,0x3
bfc3db54:	000f5980 	sll	t3,t7,0x6
bfc3db58:	a08b0001 	sb	t3,1(a0)
bfc3db5c:	90ae0001 	lbu	t6,1(a1)
bfc3db60:	00a09821 	move	s3,a1
bfc3db64:	31cd0003 	andi	t5,t6,0x3
bfc3db68:	000d6100 	sll	t4,t5,0x4
bfc3db6c:	016c3825 	or	a3,t3,t4
bfc3db70:	a0870001 	sb	a3,1(a0)
bfc3db74:	90aa0003 	lbu	t2,3(a1)
bfc3db78:	afa00010 	sw	zero,16(sp)
bfc3db7c:	31490003 	andi	t1,t2,0x3
bfc3db80:	00094080 	sll	t0,t1,0x2
bfc3db84:	00e81825 	or	v1,a3,t0
bfc3db88:	a0830001 	sb	v1,1(a0)
bfc3db8c:	90a60005 	lbu	a2,5(a1)
bfc3db90:	0080a821 	move	s5,a0
bfc3db94:	30c50001 	andi	a1,a2,0x1
bfc3db98:	00052040 	sll	a0,a1,0x1
bfc3db9c:	00641825 	or	v1,v1,a0
bfc3dba0:	afa00014 	sw	zero,20(sp)
bfc3dba4:	a7a00018 	sh	zero,24(sp)
bfc3dba8:	a3a0001a 	sb	zero,26(sp)
bfc3dbac:	24020004 	li	v0,4
bfc3dbb0:	a2a30001 	sb	v1,1(s5)
bfc3dbb4:	8fb70118 	lw	s7,280(sp)
bfc3dbb8:	26b00004 	addiu	s0,s5,4
bfc3dbbc:	00009021 	move	s2,zero
bfc3dbc0:	12820006 	beq	s4,v0,bfc3dbdc <sbc_pack_frame_internal+0xc4>
bfc3dbc4:	00008821 	move	s1,zero
bfc3dbc8:	24160008 	li	s6,8
bfc3dbcc:	169600c1 	bne	s4,s6,bfc3ded4 <sbc_pack_frame_internal+0x3bc>
bfc3dbd0:	2405fffc 	li	a1,-4
bfc3dbd4:	34780001 	ori	t8,v1,0x1
bfc3dbd8:	a2b80001 	sb	t8,1(s5)
bfc3dbdc:	92630008 	lbu	v1,8(s3)
bfc3dbe0:	a2a30002 	sb	v1,2(s5)
bfc3dbe4:	92640003 	lbu	a0,3(s3)
bfc3dbe8:	2482fffe 	addiu	v0,a0,-2
bfc3dbec:	305f00ff 	andi	ra,v0,0xff
bfc3dbf0:	2ff90002 	sltiu	t9,ra,2
bfc3dbf4:	53200007 	beqzl	t9,bfc3dc14 <sbc_pack_frame_internal+0xfc>
bfc3dbf8:	92aa0001 	lbu	t2,1(s5)
bfc3dbfc:	92670008 	lbu	a3,8(s3)
bfc3dc00:	00142940 	sll	a1,s4,0x5
bfc3dc04:	00a7302a 	slt	a2,a1,a3
bfc3dc08:	14c000b2 	bnez	a2,bfc3ded4 <sbc_pack_frame_internal+0x3bc>
bfc3dc0c:	2405fffb 	li	a1,-5
bfc3dc10:	92aa0001 	lbu	t2,1(s5)
bfc3dc14:	92a90002 	lbu	t1,2(s5)
bfc3dc18:	308400ff 	andi	a0,a0,0xff
bfc3dc1c:	24080003 	li	t0,3
bfc3dc20:	a3aa0010 	sb	t2,16(sp)
bfc3dc24:	a3a90011 	sb	t1,17(sp)
bfc3dc28:	1488000e 	bne	a0,t0,bfc3dc64 <sbc_pack_frame_internal+0x14c>
bfc3dc2c:	24070010 	li	a3,16
bfc3dc30:	2e8b0010 	sltiu	t3,s4,16
bfc3dc34:	02808821 	move	s1,s4
bfc3dc38:	15600008 	bnez	t3,bfc3dc5c <sbc_pack_frame_internal+0x144>
bfc3dc3c:	8fb2011c 	lw	s2,284(sp)
bfc3dc40:	268efff8 	addiu	t6,s4,-8
bfc3dc44:	2691fff0 	addiu	s1,s4,-16
bfc3dc48:	01d26806 	srlv	t5,s2,t6
bfc3dc4c:	02326006 	srlv	t4,s2,s1
bfc3dc50:	a20d0000 	sb	t5,0(s0)
bfc3dc54:	a20c0001 	sb	t4,1(s0)
bfc3dc58:	26100002 	addiu	s0,s0,2
bfc3dc5c:	a3b20012 	sb	s2,18(sp)
bfc3dc60:	26870010 	addiu	a3,s4,16
bfc3dc64:	0017b02a 	slt	s6,zero,s7
bfc3dc68:	12c00025 	beqz	s6,bfc3dd00 <sbc_pack_frame_internal+0x1e8>
bfc3dc6c:	00005821 	move	t3,zero
bfc3dc70:	0014602a 	slt	t4,zero,s4
bfc3dc74:	00005021 	move	t2,zero
bfc3dc78:	1180001d 	beqz	t4,bfc3dcf0 <sbc_pack_frame_internal+0x1d8>
bfc3dc7c:	01533021 	addu	a2,t2,s3
bfc3dc80:	27ad0010 	addiu	t5,sp,16
bfc3dc84:	02804021 	move	t0,s4
bfc3dc88:	8cc20010 	lw	v0,16(a2)
bfc3dc8c:	26310004 	addiu	s1,s1,4
bfc3dc90:	305f000f 	andi	ra,v0,0xf
bfc3dc94:	0012c900 	sll	t9,s2,0x4
bfc3dc98:	000718c3 	sra	v1,a3,0x3
bfc3dc9c:	2638fff8 	addiu	t8,s1,-8
bfc3dca0:	03f99025 	or	s2,ra,t9
bfc3dca4:	2e2f0010 	sltiu	t7,s1,16
bfc3dca8:	01a34821 	addu	t1,t5,v1
bfc3dcac:	2508ffff 	addiu	t0,t0,-1
bfc3dcb0:	24e70004 	addiu	a3,a3,4
bfc3dcb4:	15e00006 	bnez	t7,bfc3dcd0 <sbc_pack_frame_internal+0x1b8>
bfc3dcb8:	03121806 	srlv	v1,s2,t8
bfc3dcbc:	2631fff0 	addiu	s1,s1,-16
bfc3dcc0:	02322806 	srlv	a1,s2,s1
bfc3dcc4:	a2030000 	sb	v1,0(s0)
bfc3dcc8:	a2050001 	sb	a1,1(s0)
bfc3dccc:	26100002 	addiu	s0,s0,2
bfc3dcd0:	8cd80010 	lw	t8,16(a2)
bfc3dcd4:	91390000 	lbu	t9,0(t1)
bfc3dcd8:	330f000f 	andi	t7,t8,0xf
bfc3dcdc:	00197100 	sll	t6,t9,0x4
bfc3dce0:	01cf2025 	or	a0,t6,t7
bfc3dce4:	24c60004 	addiu	a2,a2,4
bfc3dce8:	1500ffe7 	bnez	t0,bfc3dc88 <sbc_pack_frame_internal+0x170>
bfc3dcec:	a1240000 	sb	a0,0(t1)
bfc3dcf0:	256b0001 	addiu	t3,t3,1
bfc3dcf4:	0177302a 	slt	a2,t3,s7
bfc3dcf8:	14c0ffdf 	bnez	a2,bfc3dc78 <sbc_pack_frame_internal+0x160>
bfc3dcfc:	254a0020 	addiu	t2,t2,32
bfc3dd00:	30e80007 	andi	t0,a3,0x7
bfc3dd04:	51000010 	beqzl	t0,bfc3dd48 <sbc_pack_frame_internal+0x230>
bfc3dd08:	00e02821 	move	a1,a3
bfc3dd0c:	24ee0007 	addiu	t6,a3,7
bfc3dd10:	28ef0000 	slti	t7,a3,0
bfc3dd14:	00ef700a 	movz	t6,a3,t7
bfc3dd18:	000e18c3 	sra	v1,t6,0x3
bfc3dd1c:	000720c3 	sra	a0,a3,0x3
bfc3dd20:	27a50010 	addiu	a1,sp,16
bfc3dd24:	00a44821 	addu	t1,a1,a0
bfc3dd28:	000310c0 	sll	v0,v1,0x3
bfc3dd2c:	912b0000 	lbu	t3,0(t1)
bfc3dd30:	00e2f823 	subu	ra,a3,v0
bfc3dd34:	240d0008 	li	t5,8
bfc3dd38:	01bf6023 	subu	t4,t5,ra
bfc3dd3c:	018b5004 	sllv	t2,t3,t4
bfc3dd40:	a12a0000 	sb	t2,0(t1)
bfc3dd44:	00e02821 	move	a1,a3
bfc3dd48:	77f0fe02 	jalx	bfc3f808 <sbc_crc8>
bfc3dd4c:	27a40010 	addiu	a0,sp,16
bfc3dd50:	a2a20003 	sb	v0,3(s5)
bfc3dd54:	02602021 	move	a0,s3
bfc3dd58:	77f0fe19 	jalx	bfc3f864 <sbc_calculate_bits>
bfc3dd5c:	27a50020 	addiu	a1,sp,32
bfc3dd60:	12c0001d 	beqz	s6,bfc3ddd8 <sbc_pack_frame_internal+0x2c0>
bfc3dd64:	00005021 	move	t2,zero
bfc3dd68:	0014602a 	slt	t4,zero,s4
bfc3dd6c:	00004821 	move	t1,zero
bfc3dd70:	11800015 	beqz	t4,bfc3ddc8 <sbc_pack_frame_internal+0x2b0>
bfc3dd74:	01203821 	move	a3,t1
bfc3dd78:	27ae0010 	addiu	t6,sp,16
bfc3dd7c:	240b0001 	li	t3,1
bfc3dd80:	240d000f 	li	t5,15
bfc3dd84:	01334021 	addu	t0,t1,s3
bfc3dd88:	02803021 	move	a2,s4
bfc3dd8c:	00eec021 	addu	t8,a3,t6
bfc3dd90:	8f190010 	lw	t9,16(t8)
bfc3dd94:	8d040010 	lw	a0,16(t0)
bfc3dd98:	032b7804 	sllv	t7,t3,t9
bfc3dd9c:	25e2ffff 	addiu	v0,t7,-1
bfc3dda0:	24850010 	addiu	a1,a0,16
bfc3dda4:	01a41823 	subu	v1,t5,a0
bfc3dda8:	0062c804 	sllv	t9,v0,v1
bfc3ddac:	00abf804 	sllv	ra,t3,a1
bfc3ddb0:	24c6ffff 	addiu	a2,a2,-1
bfc3ddb4:	af1f0090 	sw	ra,144(t8)
bfc3ddb8:	af190050 	sw	t9,80(t8)
bfc3ddbc:	24e70004 	addiu	a3,a3,4
bfc3ddc0:	14c0fff2 	bnez	a2,bfc3dd8c <sbc_pack_frame_internal+0x274>
bfc3ddc4:	25080004 	addiu	t0,t0,4
bfc3ddc8:	254a0001 	addiu	t2,t2,1
bfc3ddcc:	0157382a 	slt	a3,t2,s7
bfc3ddd0:	14e0ffe7 	bnez	a3,bfc3dd70 <sbc_pack_frame_internal+0x258>
bfc3ddd4:	25290020 	addiu	t1,t1,32
bfc3ddd8:	92620002 	lbu	v0,2(s3)
bfc3dddc:	00006821 	move	t5,zero
bfc3dde0:	5040002c 	beqzl	v0,bfc3de94 <sbc_pack_frame_internal+0x37c>
bfc3dde4:	2e330008 	sltiu	s3,s1,8
bfc3dde8:	12c00026 	beqz	s6,bfc3de84 <sbc_pack_frame_internal+0x36c>
bfc3ddec:	00007821 	move	t7,zero
bfc3ddf0:	0014c02a 	slt	t8,zero,s4
bfc3ddf4:	03a07021 	move	t6,sp
bfc3ddf8:	000d5980 	sll	t3,t5,0x6
bfc3ddfc:	1300001c 	beqz	t8,bfc3de70 <sbc_pack_frame_internal+0x358>
bfc3de00:	25c80010 	addiu	t0,t6,16
bfc3de04:	01735021 	addu	t2,t3,s3
bfc3de08:	02804821 	move	t1,s4
bfc3de0c:	8d030010 	lw	v1,16(t0)
bfc3de10:	2529ffff 	addiu	t1,t1,-1
bfc3de14:	10600013 	beqz	v1,bfc3de64 <sbc_pack_frame_internal+0x34c>
bfc3de18:	00726004 	sllv	t4,s2,v1
bfc3de1c:	8d590050 	lw	t9,80(t2)
bfc3de20:	8d040090 	lw	a0,144(t0)
bfc3de24:	8d020050 	lw	v0,80(t0)
bfc3de28:	02238821 	addu	s1,s1,v1
bfc3de2c:	00991821 	addu	v1,a0,t9
bfc3de30:	00430019 	multu	v0,v1
bfc3de34:	2626fff8 	addiu	a2,s1,-8
bfc3de38:	00009010 	mfhi	s2
bfc3de3c:	2e3f0010 	sltiu	ra,s1,16
bfc3de40:	00122802 	srl	a1,s2,0x0
bfc3de44:	01859025 	or	s2,t4,a1
bfc3de48:	17e00006 	bnez	ra,bfc3de64 <sbc_pack_frame_internal+0x34c>
bfc3de4c:	00d21806 	srlv	v1,s2,a2
bfc3de50:	2631fff0 	addiu	s1,s1,-16
bfc3de54:	02326006 	srlv	t4,s2,s1
bfc3de58:	a2030000 	sb	v1,0(s0)
bfc3de5c:	a20c0001 	sb	t4,1(s0)
bfc3de60:	26100002 	addiu	s0,s0,2
bfc3de64:	25080004 	addiu	t0,t0,4
bfc3de68:	1520ffe8 	bnez	t1,bfc3de0c <sbc_pack_frame_internal+0x2f4>
bfc3de6c:	254a0004 	addiu	t2,t2,4
bfc3de70:	25ef0001 	addiu	t7,t7,1
bfc3de74:	01f7402a 	slt	t0,t7,s7
bfc3de78:	256b0020 	addiu	t3,t3,32
bfc3de7c:	1500ffdf 	bnez	t0,bfc3ddfc <sbc_pack_frame_internal+0x2e4>
bfc3de80:	25ce0020 	addiu	t6,t6,32
bfc3de84:	92690002 	lbu	t1,2(s3)
bfc3de88:	25ad0001 	addiu	t5,t5,1
bfc3de8c:	1000ffd4 	b	bfc3dde0 <sbc_pack_frame_internal+0x2c8>
bfc3de90:	01a9102a 	slt	v0,t5,t1
bfc3de94:	16600007 	bnez	s3,bfc3deb4 <sbc_pack_frame_internal+0x39c>
bfc3de98:	00000000 	nop
bfc3de9c:	2631fff8 	addiu	s1,s1,-8
bfc3dea0:	0232b806 	srlv	s7,s2,s1
bfc3dea4:	2e340008 	sltiu	s4,s1,8
bfc3dea8:	a2170000 	sb	s7,0(s0)
bfc3deac:	1280fffb 	beqz	s4,bfc3de9c <sbc_pack_frame_internal+0x384>
bfc3deb0:	26100001 	addiu	s0,s0,1
bfc3deb4:	12200007 	beqz	s1,bfc3ded4 <sbc_pack_frame_internal+0x3bc>
bfc3deb8:	02152823 	subu	a1,s0,s5
bfc3debc:	240a0008 	li	t2,8
bfc3dec0:	0151b023 	subu	s6,t2,s1
bfc3dec4:	02d28804 	sllv	s1,s2,s6
bfc3dec8:	a2110000 	sb	s1,0(s0)
bfc3decc:	26100001 	addiu	s0,s0,1
bfc3ded0:	02152823 	subu	a1,s0,s5
bfc3ded4:	8fbf0100 	lw	ra,256(sp)
bfc3ded8:	8fb700fc 	lw	s7,252(sp)
bfc3dedc:	8fb600f8 	lw	s6,248(sp)
bfc3dee0:	8fb500f4 	lw	s5,244(sp)
bfc3dee4:	8fb400f0 	lw	s4,240(sp)
bfc3dee8:	8fb300ec 	lw	s3,236(sp)
bfc3deec:	8fb200e8 	lw	s2,232(sp)
bfc3def0:	8fb100e4 	lw	s1,228(sp)
bfc3def4:	8fb000e0 	lw	s0,224(sp)
bfc3def8:	00a01021 	move	v0,a1
bfc3defc:	03e00008 	jr	ra
bfc3df00:	27bd0108 	addiu	sp,sp,264

bfc3df04 <sbc_offset8>:
bfc3df04:	fffffffe 	sdc3	$31,-2(ra)
	...
bfc3df20:	00000001 	movf	zero,zero,$fcc0
bfc3df24:	fffffffd 	sdc3	$31,-3(ra)
	...
bfc3df3c:	00000001 	movf	zero,zero,$fcc0
bfc3df40:	00000002 	srl	zero,zero,0x0
bfc3df44:	fffffffc 	sdc3	$31,-4(ra)
	...
bfc3df5c:	00000001 	movf	zero,zero,$fcc0
bfc3df60:	00000002 	srl	zero,zero,0x0
bfc3df64:	fffffffc 	sdc3	$31,-4(ra)
	...
bfc3df7c:	00000001 	movf	zero,zero,$fcc0
bfc3df80:	00000002 	srl	zero,zero,0x0

bfc3df84 <sbc_offset4>:
bfc3df84:	ffffffff 	sdc3	$31,-1(ra)
	...
bfc3df94:	fffffffe 	sdc3	$31,-2(ra)
	...
bfc3dfa0:	00000001 	movf	zero,zero,$fcc0
bfc3dfa4:	fffffffe 	sdc3	$31,-2(ra)
	...
bfc3dfb0:	00000001 	movf	zero,zero,$fcc0
bfc3dfb4:	fffffffe 	sdc3	$31,-2(ra)
	...
bfc3dfc0:	00000001 	movf	zero,zero,$fcc0
Disassembly of section BANK_A_0:

12009000 <sbc_init>:
12009000:	64f4      	save	32,ra,s0-s1
12009002:	6b01      	li	v1,1
12009004:	6724      	move	s1,a0
12009006:	eb6b      	neg	v1
12009008:	242f      	beqz	a0,12009068 <.LBE2+0x2>
1200900a:	6d00      	li	a1,0
1200900c:	b01c      	lw	s0,1200907c <.LBE2+0x16>
1200900e:	67c5      	move	a2,a1
12009010:	0c18      	la	a0,12009070 <.LBE2+0xa>
12009012:	e840      	jalr	s0
12009014:	6f4b      	li	a3,75
12009016:	b31b      	lw	v1,12009080 <.LBE2+0x1a>
12009018:	6791      	move	a0,s1
1200901a:	6d00      	li	a1,0
1200901c:	6e14      	li	a2,20
1200901e:	eb40      	jalr	v1
12009020:	6f01      	li	a3,1
12009022:	f201 6c00 	li	a0,2560
12009026:	6d20      	li	a1,32
12009028:	6e00      	li	a2,0
1200902a:	e840      	jalr	s0
1200902c:	6f16      	li	a3,22
1200902e:	6c02      	li	a0,2
12009030:	d944      	sw	v0,16(s1)
12009032:	eb8b      	neg	v1,a0
12009034:	2219      	beqz	v0,12009068 <.LBE2+0x2>
12009036:	6782      	move	a0,v0
12009038:	6d10      	li	a1,16
1200903a:	eaab      	neg	v0,a1
1200903c:	4c0f      	addiu	a0,15
1200903e:	ec4c      	and	a0,v0
12009040:	b310      	lw	v1,12009080 <.LBE2+0x1a>
12009042:	d983      	sw	a0,12(s1)
12009044:	6d00      	li	a1,0
12009046:	f181 6e1c 	li	a2,2460
1200904a:	eb40      	jalr	v1
1200904c:	6f01      	li	a3,1

1200904e <.LBB2>:
1200904e:	6e03      	li	a2,3
12009050:	6a00      	li	v0,0
12009052:	6c02      	li	a0,2
12009054:	6f01      	li	a3,1
12009056:	6d35      	li	a1,53
12009058:	c184      	sb	a0,4(s1)
1200905a:	c1c7      	sb	a2,7(s1)
1200905c:	c1e6      	sb	a3,6(s1)
1200905e:	c1c5      	sb	a2,5(s1)
12009060:	c1a9      	sb	a1,9(s1)
12009062:	c148      	sb	v0,8(s1)
12009064:	c14a      	sb	v0,10(s1)

12009066 <.LBE2>:
12009066:	6b00      	li	v1,0
12009068:	6743      	move	v0,v1
1200906a:	6474      	restore	32,ra,s0-s1
1200906c:	e8a0      	jrc	ra
1200906e:	0000      	addiu	s0,sp,0
12009070:	4040      	addiu	v0,s0,0
12009072:	7340      	cmpi	v1,64
12009074:	6362      	addiu	sp,784
12009076:	695f      	li	s1,95
12009078:	696e      	li	s1,110
1200907a:	0074      	addiu	s0,sp,464
1200907c:	f805      	ld	s0,40(sp)
1200907e:	bfc3      	lwu	a2,12(a3)
12009080:	f801      	ld	s0,8(sp)
12009082:	bfc3      	lwu	a2,12(a3)

12009084 <sbc_finish>:
12009084:	64e3      	save	24,ra,s0
12009086:	6704      	move	s0,a0
12009088:	240c      	beqz	a0,120090a2 <sbc_finish+0x1e>
1200908a:	9c84      	lw	a0,16(a0)
1200908c:	b207      	lw	v0,120090a8 <sbc_finish+0x24>
1200908e:	6d20      	li	a1,32
12009090:	6e00      	li	a2,0
12009092:	ea40      	jalr	v0
12009094:	6f17      	li	a3,23
12009096:	b206      	lw	v0,120090ac <sbc_finish+0x28>
12009098:	6790      	move	a0,s0
1200909a:	6d00      	li	a1,0
1200909c:	6e14      	li	a2,20
1200909e:	ea40      	jalr	v0
120090a0:	6f01      	li	a3,1
120090a2:	6463      	restore	24,ra,s0
120090a4:	e8a0      	jrc	ra
120090a6:	0000      	addiu	s0,sp,0
120090a8:	f805      	ld	s0,40(sp)
120090aa:	bfc3      	lwu	a2,12(a3)
120090ac:	f801      	ld	s0,8(sp)
120090ae:	bfc3      	lwu	a2,12(a3)
Disassembly of section BANK_B_0:

22009400 <init_module>:
22009400:	64c3      	save	24,ra
22009402:	6d00      	li	a1,0
22009404:	b209      	lw	v0,22009428 <KERNEL_BANK_B_ADDR_BASE+0x28>
22009406:	0c04      	la	a0,22009414 <KERNEL_BANK_B_ADDR_BASE+0x14>
22009408:	67c5      	move	a2,a1
2200940a:	ea40      	jalr	v0
2200940c:	6f4b      	li	a3,75
2200940e:	6a00      	li	v0,0
22009410:	6443      	restore	24,ra
22009412:	e8a0      	jrc	ra
22009414:	4040      	addiu	v0,s0,0
22009416:	7340      	cmpi	v1,64
22009418:	6362      	addiu	sp,784
2200941a:	655f      	move	k0,a3
2200941c:	636e      	addiu	sp,880
2200941e:	646f      	restore	120,ra,s0
22009420:	2065      	beqz	s0,220094ec <cleanup_module+0xc0>
22009422:	6b6f      	li	v1,111
22009424:	0000      	addiu	s0,sp,0
22009426:	0000      	addiu	s0,sp,0
22009428:	f805      	ld	s0,40(sp)
2200942a:	bfc3      	lwu	a2,12(a3)

2200942c <cleanup_module>:
2200942c:	e820      	jr	ra
2200942e:	6a00      	li	v0,0
Disassembly of section .reginfo:

00000000 <.reginfo>:
   0:	a30300ff 	sb	v1,255(t8)
	...
Disassembly of section .pdr:

00000000 <.pdr>:
   0:	bfc3f809 	cache	0x3,-2039(s8)
   4:	00030000 	sll	zero,v1,0x0
   8:	fffffffc 	sdc3	$31,-4(ra)
	...
  14:	00000008 	jr	zero
  18:	0000001d 	0x1d
  1c:	0000001f 	0x1f
  20:	bfc3f865 	cache	0x3,-1947(s8)
  24:	80000000 	lb	zero,0(zero)
  28:	fffffffc 	sdc3	$31,-4(ra)
	...
  34:	00000018 	mult	zero,zero
  38:	0000001d 	0x1d
  3c:	0000001f 	0x1f
  40:	bfc3f87d 	cache	0x3,-1923(s8)
  44:	80030000 	lb	v1,0(zero)
  48:	fffffffc 	sdc3	$31,-4(ra)
	...
  54:	00000030 	tge	zero,zero
  58:	0000001d 	0x1d
  5c:	0000001f 	0x1f
  60:	bfc3f8f9 	cache	0x3,-1799(s8)
  64:	80000000 	lb	zero,0(zero)
  68:	fffffffc 	sdc3	$31,-4(ra)
	...
  74:	00000020 	add	zero,zero,zero
  78:	0000001d 	0x1d
  7c:	0000001f 	0x1f
  80:	bfc3f931 	cache	0x3,-1743(s8)
	...
  98:	0000001d 	0x1d
  9c:	0000001f 	0x1f
  a0:	bfc3f995 	cache	0x3,-1643(s8)
  a4:	80030000 	lb	v1,0(zero)
  a8:	fffffffc 	sdc3	$31,-4(ra)
	...
  b4:	00000020 	add	zero,zero,zero
  b8:	0000001d 	0x1d
  bc:	0000001f 	0x1f
  c0:	bfc3f9cd 	cache	0x3,-1587(s8)
	...
  d8:	0000001d 	0x1d
  dc:	0000001f 	0x1f
  e0:	bfc3fa05 	cache	0x3,-1531(s8)
  e4:	00010000 	sll	zero,at,0x0
  e8:	fffffffc 	sdc3	$31,-4(ra)
	...
  f4:	00000008 	jr	zero
  f8:	0000001d 	0x1d
  fc:	0000001f 	0x1f
 100:	bfc3fa6d 	cache	0x3,-1427(s8)
 104:	80030000 	lb	v1,0(zero)
 108:	fffffffc 	sdc3	$31,-4(ra)
	...
 114:	00000030 	tge	zero,zero
 118:	0000001d 	0x1d
 11c:	0000001f 	0x1f
 120:	bfc3d001 	cache	0x3,-12287(s8)
 124:	00030000 	sll	zero,v1,0x0
 128:	fffffffc 	sdc3	$31,-4(ra)
	...
 134:	00000068 	0x68
 138:	0000001d 	0x1d
 13c:	0000001f 	0x1f
 140:	bfc3d275 	cache	0x3,-11659(s8)
	...
 158:	0000001d 	0x1d
 15c:	0000001f 	0x1f
 160:	bfc3d279 	cache	0x3,-11655(s8)
 164:	80030000 	lb	v1,0(zero)
 168:	fffffffc 	sdc3	$31,-4(ra)
	...
 174:	00000020 	add	zero,zero,zero
 178:	0000001d 	0x1d
 17c:	0000001f 	0x1f
 180:	bfc3d2bd 	cache	0x3,-11587(s8)
 184:	80030000 	lb	v1,0(zero)
 188:	fffffffc 	sdc3	$31,-4(ra)
	...
 194:	00000028 	0x28
 198:	0000001d 	0x1d
 19c:	0000001f 	0x1f
 1a0:	bfc3d7cd 	cache	0x3,-10291(s8)
	...
 1b8:	0000001d 	0x1d
 1bc:	0000001f 	0x1f
 1c0:	bfc3d7d1 	cache	0x3,-10287(s8)
	...
 1d8:	0000001d 	0x1d
 1dc:	0000001f 	0x1f
 1e0:	bfc3d7d5 	cache	0x3,-10283(s8)
 1e4:	80000000 	lb	zero,0(zero)
 1e8:	fffffffc 	sdc3	$31,-4(ra)
	...
 1f4:	00000020 	add	zero,zero,zero
 1f8:	0000001d 	0x1d
 1fc:	0000001f 	0x1f
 200:	bfc3d7f5 	cache	0x3,-10251(s8)
	...
 218:	0000001d 	0x1d
 21c:	0000001f 	0x1f
 220:	bfc3d7f9 	cache	0x3,-10247(s8)
	...
 238:	0000001d 	0x1d
 23c:	0000001f 	0x1f
 240:	bfc3fb8d 	cache	0x3,-1139(s8)
 244:	80030000 	lb	v1,0(zero)
 248:	fffffffc 	sdc3	$31,-4(ra)
	...
 254:	000000c0 	ehb
 258:	0000001d 	0x1d
 25c:	0000001f 	0x1f
 260:	bfc3fd25 	cache	0x3,-731(s8)
	...
 278:	0000001d 	0x1d
 27c:	0000001f 	0x1f
 280:	12009001 	beqz	s0,fffe4288 <blk_op+0x403a4530>
 284:	80030000 	lb	v1,0(zero)
 288:	fffffffc 	sdc3	$31,-4(ra)
	...
 294:	00000020 	add	zero,zero,zero
 298:	0000001d 	0x1d
 29c:	0000001f 	0x1f
 2a0:	12009085 	beqz	s0,fffe44b8 <blk_op+0x403a4760>
 2a4:	80010000 	lb	at,0(zero)
 2a8:	fffffffc 	sdc3	$31,-4(ra)
	...
 2b4:	00000018 	mult	zero,zero
 2b8:	0000001d 	0x1d
 2bc:	0000001f 	0x1f
 2c0:	bfc3fd35 	cache	0x3,-715(s8)
 2c4:	80010000 	lb	at,0(zero)
 2c8:	fffffffc 	sdc3	$31,-4(ra)
	...
 2d4:	00000028 	0x28
 2d8:	0000001d 	0x1d
 2dc:	0000001f 	0x1f
 2e0:	2200942d 	addi	zero,s0,-27603
	...
 2f8:	0000001d 	0x1d
 2fc:	0000001f 	0x1f
 300:	22009401 	addi	zero,s0,-27647
 304:	80000000 	lb	zero,0(zero)
 308:	fffffffc 	sdc3	$31,-4(ra)
	...
 314:	00000018 	mult	zero,zero
 318:	0000001d 	0x1d
 31c:	0000001f 	0x1f
 320:	bfc3d7fc 	cache	0x3,-10244(s8)
 324:	00030000 	sll	zero,v1,0x0
 328:	fffffffc 	sdc3	$31,-4(ra)
	...
 334:	00000048 	0x48
 338:	0000001d 	0x1d
 33c:	0000001f 	0x1f
 340:	bfc3db18 	cache	0x3,-9448(s8)
 344:	80ff0000 	lb	ra,0(a3)
 348:	fffffff8 	sdc3	$31,-8(ra)
	...
 354:	00000108 	0x108
 358:	0000001d 	0x1d
 35c:	0000001f 	0x1f
 360:	bfc3f801 	cache	0x3,-2047(s8)
	...
 378:	0000001d 	0x1d
 37c:	0000001f 	0x1f
 380:	bfc3f805 	cache	0x3,-2043(s8)
	...
 398:	0000001d 	0x1d
 39c:	0000001f 	0x1f
Disassembly of section .debug_abbrev:

00000000 <.debug_abbrev>:
   0:	10011101 	beq	zero,at,4408 <SRAM_AP_BANK_BACK_AL_1_SIZE+0x408>
   4:	25015206 	addiu	at,t0,20998
   8:	030b130e 	0x30b130e
   c:	000e1b0e 	0xe1b0e
  10:	00240200 	0x240200
  14:	0b0b0e03 	j	c2c380c <BANK_SPACE+0xc28380c>
  18:	00000b3e 	0xb3e
  1c:	03002403 	0x3002403
  20:	3e0b0b08 	0x3e0b0b08
  24:	0400000b 	bltz	zero,54 <AP_BANK_FRONT_BASAL+0x4>
  28:	0b0b000f 	j	c2c003c <BANK_SPACE+0xc28003c>
  2c:	16050000 	bne	s0,a1,30 <SRAM_CARD_GLOBAL_DATA_SIZE+0x20>
  30:	3a080300 	xori	t0,s0,0x300
  34:	490b3b0b 	bc2tl	$cc2,ec64 <SRAM_ASRC_BUF_0_ADDR+0xc64>
  38:	06000013 	bltz	s0,88 <SRAM_CARD_DATA_SIZE+0x8>
  3c:	0e030016 	jal	80c0058 <BANK_SPACE+0x8080058>
  40:	0b3b0b3a 	j	cec2ce8 <BANK_SPACE+0xce82ce8>
  44:	00001349 	0x1349
  48:	01011307 	0x1011307
  4c:	0b0e0313 	j	c380c4c <BANK_SPACE+0xc340c4c>
  50:	3b0b3a0b 	xori	t3,t8,0x3a0b
  54:	0800000b 	j	2c <SRAM_CARD_GLOBAL_DATA_SIZE+0x1c>
  58:	0e03000d 	jal	80c0034 <BANK_SPACE+0x8080034>
  5c:	0b3b0b3a 	j	cec2ce8 <BANK_SPACE+0xce82ce8>
  60:	0a381349 	j	8e04d24 <BANK_SPACE+0x8dc4d24>
  64:	13090000 	beq	t8,t1,68 <AP_BANK_BACK_BASAL>
  68:	03130101 	0x3130101
  6c:	3a050b0e 	xori	a1,s0,0xb0e
  70:	000b3b0b 	0xb3b0b
  74:	000d0a00 	sll	at,t5,0x8
  78:	0b3a0803 	j	ce8200c <BANK_SPACE+0xce4200c>
  7c:	13490b3b 	beq	k0,t1,2d6c <SRAM_BTSTACK_AVDTP_DATA_SIZE+0x3ec>
  80:	00000a38 	0xa38
  84:	0101010b 	0x101010b
  88:	00134913 	0x134913
  8c:	00210c00 	0x210c00
  90:	0b2f1349 	j	cbc4d24 <BANK_SPACE+0xcb84d24>
  94:	210d0000 	addi	t5,t0,0
  98:	2f134900 	sltiu	s3,t8,18688
  9c:	0e000005 	jal	8000014 <BANK_SPACE+0x7fc0014>
  a0:	13010115 	beq	t8,at,4f8 <KERNEL_BANK_A_SIZE+0xf8>
  a4:	00000c27 	0xc27
  a8:	4900050f 	bc2f	14e8 <SRAM_BTCALL_CALLRING_BUF_SIZE+0x4e8>
  ac:	10000013 	b	fc <SRAM_RAM2_RESEVER_SIZE+0x1c>
  b0:	0b0b000f 	j	c2c003c <BANK_SPACE+0xc28003c>
  b4:	00001349 	0x1349
  b8:	01011511 	0x1011511
  bc:	490c2713 	bc2f	$cc3,9d0c <SRAM_UI_RCODE_ADDR+0x10c>
  c0:	12000013 	beqz	s0,110 <SRAM_AP_MANAGER_RCODE_SIZE+0x10>
  c4:	13490026 	beq	k0,t1,160 <SRAM_BTMANAGER_DATA_SIZE+0x20>
  c8:	04130000 	bgezall	zero,cc <SRAM_CARD_DATA_SIZE+0x4c>
  cc:	0b130101 	j	c4c0404 <BANK_SPACE+0xc480404>
  d0:	3b0b3a0b 	xori	t3,t8,0x3a0b
  d4:	1400000b 	bnez	zero,104 <SRAM_AP_MANAGER_RCODE_SIZE+0x4>
  d8:	0e030028 	jal	80c00a0 <BANK_SPACE+0x80800a0>
  dc:	00000d1c 	0xd1c
  e0:	03002815 	0x3002815
  e4:	000d1c08 	0xd1c08
  e8:	012e1600 	0x12e1600
  ec:	0c3f1301 	jal	fc4c04 <BANK_SPACE+0xf84c04>
  f0:	0b3a0e03 	j	ce8380c <BANK_SPACE+0xce4380c>
  f4:	0c270b3b 	jal	9c2cec <BANK_SPACE+0x982cec>
  f8:	01111349 	0x1111349
  fc:	0a400112 	j	9000448 <BANK_SPACE+0x8fc0448>
 100:	05170000 	0x5170000
 104:	3a0e0300 	xori	t6,s0,0x300
 108:	490b3b0b 	bc2tl	$cc2,ed38 <SRAM_ASRC_BUF_0_ADDR+0xd38>
 10c:	000a0213 	0xa0213
 110:	00051800 	sll	v1,a1,0x0
 114:	0b3a0803 	j	ce8200c <BANK_SPACE+0xce4200c>
 118:	13490b3b 	beq	k0,t1,2e08 <SRAM_BTSTACK_AVDTP_DATA_SIZE+0x488>
 11c:	00000a02 	srl	at,zero,0x8
 120:	03003419 	0x3003419
 124:	3b0b3a08 	xori	t3,t8,0x3a08
 128:	0213490b 	0x213490b
 12c:	1a00000a 	blez	s0,158 <SRAM_BTMANAGER_DATA_SIZE+0x18>
 130:	0e030034 	jal	80c00d0 <BANK_SPACE+0x80800d0>
 134:	0b3b0b3a 	j	cec2ce8 <BANK_SPACE+0xce82ce8>
 138:	0a021349 	j	8084d24 <BANK_SPACE+0x8044d24>
 13c:	0b1b0000 	j	c6c0000 <BANK_SPACE+0xc680000>
 140:	00065501 	0x65501
 144:	00341c00 	0x341c00
 148:	0b3a0803 	j	ce8200c <BANK_SPACE+0xce4200c>
 14c:	13490b3b 	beq	k0,t1,2e3c <SRAM_BTSTACK_AVDTP_DATA_SIZE+0x4bc>
 150:	2e1d0000 	sltiu	sp,s0,0
 154:	3f130101 	0x3f130101
 158:	3a0e030c 	xori	t6,s0,0x30c
 15c:	27053b0b 	addiu	a1,t8,15115
 160:	1201110c 	beq	s0,at,4594 <SRAM_AP_BANK_BACK_AL_1_SIZE+0x594>
 164:	000a4001 	0xa4001
 168:	00051e00 	sll	v1,a1,0x18
 16c:	0b3a0e03 	j	ce8380c <BANK_SPACE+0xce4380c>
 170:	1349053b 	beq	k0,t1,1660 <SRAM_BTCALL_CALLRING_BUF_SIZE+0x660>
 174:	00000a02 	srl	at,zero,0x8
 178:	01012e1f 	0x1012e1f
 17c:	030c3f13 	0x30c3f13
 180:	3b0b3a0e 	xori	t3,t8,0x3a0e
 184:	490c2705 	bc2f	$cc3,9d9c <SRAM_UI_RCODE_ADDR+0x19c>
 188:	12011113 	beq	s0,at,45d8 <SRAM_AP_BANK_BACK_AL_1_SIZE+0x5d8>
 18c:	000a4001 	0xa4001
 190:	00342000 	0x342000
 194:	0b3a0803 	j	ce8200c <BANK_SPACE+0xce4200c>
 198:	1349053b 	beq	k0,t1,1688 <SRAM_BTCALL_CALLRING_BUF_SIZE+0x688>
 19c:	00000a02 	srl	at,zero,0x8
 1a0:	03000521 	0x3000521
 1a4:	3b0b3a08 	xori	t3,t8,0x3a08
 1a8:	02134905 	0x2134905
 1ac:	2200000a 	addi	zero,s0,10
 1b0:	0e030034 	jal	80c00d0 <BANK_SPACE+0x80800d0>
 1b4:	053b0b3a 	0x53b0b3a
 1b8:	0a021349 	j	8084d24 <BANK_SPACE+0x8044d24>
 1bc:	34230000 	ori	v1,at,0x0
 1c0:	3a0e0300 	xori	t6,s0,0x300
 1c4:	49053b0b 	bc2t	$cc1,edf4 <SRAM_ASRC_BUF_0_ADDR+0xdf4>
 1c8:	24000013 	li	zero,19
 1cc:	08030034 	j	c00d0 <BANK_SPACE+0x800d0>
 1d0:	053b0b3a 	0x53b0b3a
 1d4:	00001349 	0x1349
 1d8:	11010b25 	beq	t0,at,2e70 <SRAM_BTSTACK_AVDTP_DATA_SIZE+0x4f0>
 1dc:	00011201 	0x11201
 1e0:	00262600 	0x262600
 1e4:	2e270000 	sltiu	a3,s1,0
 1e8:	03130101 	0x3130101
 1ec:	3b0b3a0e 	xori	t3,t8,0x3a0e
 1f0:	110c2705 	beq	t0,t4,9e08 <SRAM_UI_RCODE_ADDR+0x208>
 1f4:	40011201 	0x40011201
 1f8:	2800000a 	slti	zero,zero,10
 1fc:	1301012e 	beq	t8,at,6b8 <SRAM_OS_HEAP_SIZE+0x38>
 200:	0b3a0e03 	j	ce8380c <BANK_SPACE+0xce4380c>
 204:	0c27053b 	jal	9c14ec <BANK_SPACE+0x9814ec>
 208:	01111349 	0x1111349
 20c:	0a400112 	j	9000448 <BANK_SPACE+0x8fc0448>
 210:	0b290000 	j	ca40000 <BANK_SPACE+0xca00000>
 214:	11130101 	beq	t0,s3,61c <SRAM_AP_BACK_BASAL_RCODE_SIZE+0x1c>
 218:	00011201 	0x11201
 21c:	011d2a00 	0x11d2a00
 220:	13311301 	beq	t9,s1,4e28 <SRAM_AP_BANK_BACK_AL_1_SIZE+0xe28>
 224:	01120111 	0x1120111
 228:	052b0000 	tltiu	t1,0
 22c:	02133100 	0x2133100
 230:	2c00000a 	sltiu	zero,zero,10
 234:	13310005 	beq	t9,s1,24c <SRAM_AP_RCP_COMMAND_BUFFER_SIZE+0x2c>
 238:	1d2d0000 	0x1d2d0000
 23c:	11133101 	beq	t0,s3,c644 <SROM_FS_ADDR+0x644>
 240:	00011201 	0x11201
 244:	012e2e00 	0x12e2e00
 248:	0e031301 	jal	80c4c04 <BANK_SPACE+0x8084c04>
 24c:	053b0b3a 	0x53b0b3a
 250:	13490c27 	beq	k0,t1,32f0 <SROM_TWI_ADDR+0xf0>
 254:	00000b20 	0xb20
 258:	0300052f 	0x300052f
 25c:	3b0b3a08 	xori	t3,t8,0x3a08
 260:	00134905 	0x134905
 264:	00343000 	0x343000
 268:	0b3a0e03 	j	ce8380c <BANK_SPACE+0xce4380c>
 26c:	13490b3b 	beq	k0,t1,2f5c <SRAM_BTSTACK_AVDTP_DATA_SIZE+0x5dc>
 270:	01000000 	0x1000000
 274:	06100111 	bltzal	s0,6bc <SRAM_OS_HEAP_SIZE+0x3c>
 278:	01110112 	0x1110112
 27c:	0b130e25 	j	c4c3894 <BANK_SPACE+0xc483894>
 280:	0e1b0e03 	jal	86c380c <BANK_SPACE+0x868380c>
 284:	24020000 	li	v0,0
 288:	0b0e0300 	j	c380c00 <BANK_SPACE+0xc340c00>
 28c:	000b3e0b 	0xb3e0b
 290:	00240300 	0x240300
 294:	0b0b0803 	j	c2c200c <BANK_SPACE+0xc28200c>
 298:	00000b3e 	0xb3e
 29c:	03001604 	0x3001604
 2a0:	3b0b3a0e 	xori	t3,t8,0x3a0e
 2a4:	0013490b 	0x13490b
 2a8:	012e0500 	0x12e0500
 2ac:	0c3f1301 	jal	fc4c04 <BANK_SPACE+0xf84c04>
 2b0:	0b3a0e03 	j	ce8380c <BANK_SPACE+0xce4380c>
 2b4:	0c270b3b 	jal	9c2cec <BANK_SPACE+0x982cec>
 2b8:	01111349 	0x1111349
 2bc:	0a400112 	j	9000448 <BANK_SPACE+0x8fc0448>
 2c0:	05060000 	0x5060000
 2c4:	3a080300 	xori	t0,s0,0x300
 2c8:	490b3b0b 	bc2tl	$cc2,eef8 <SRAM_ASRC_BUF_0_ADDR+0xef8>
 2cc:	000a0213 	0xa0213
 2d0:	00340700 	0x340700
 2d4:	0b3a0803 	j	ce8200c <BANK_SPACE+0xce4200c>
 2d8:	13490b3b 	beq	k0,t1,2fc8 <SRAM_BTSTACK_AVDTP_DATA_SIZE+0x648>
 2dc:	00000a02 	srl	at,zero,0x8
 2e0:	01010108 	0x1010108
 2e4:	00134913 	0x134913
 2e8:	00210900 	0x210900
 2ec:	0b2f1349 	j	cbc4d24 <BANK_SPACE+0xcb84d24>
 2f0:	260a0000 	addiu	t2,s0,0
 2f4:	00134900 	sll	t1,s3,0x4
 2f8:	00340b00 	0x340b00
 2fc:	0b3a0e03 	j	ce8380c <BANK_SPACE+0xce4380c>
 300:	13490b3b 	beq	k0,t1,2ff0 <SRAM_BTSTACK_AVDTP_DATA_SIZE+0x670>
 304:	340c0000 	li	t4,0x0
 308:	3a0e0300 	xori	t6,s0,0x300
 30c:	49053b0b 	bc2t	$cc1,ef3c <SRAM_ASRC_BUF_0_ADDR+0xf3c>
 310:	00000013 	mtlo	zero
 314:	10011101 	beq	zero,at,471c <SRAM_AP_BANK_BACK_AL_1_SIZE+0x71c>
 318:	11011206 	beq	t0,at,4b34 <SRAM_AP_BANK_BACK_AL_1_SIZE+0xb34>
 31c:	130e2501 	beq	t8,t6,9724 <OFFSET+0x324>
 320:	1b0e030b 	0x1b0e030b
 324:	0200000e 	0x200000e
 328:	0e030024 	jal	80c0090 <BANK_SPACE+0x8080090>
 32c:	0b3e0b0b 	j	cf82c2c <BANK_SPACE+0xcf42c2c>
 330:	24030000 	li	v1,0
 334:	0b080300 	j	c200c00 <BANK_SPACE+0xc1c0c00>
 338:	000b3e0b 	0xb3e0b
 33c:	000f0400 	sll	zero,t7,0x10
 340:	00000b0b 	0xb0b
 344:	03001605 	0x3001605
 348:	3b0b3a0e 	xori	t3,t8,0x3a0e
 34c:	0013490b 	0x13490b
 350:	01130600 	0x1130600
 354:	0e031301 	jal	80c4c04 <BANK_SPACE+0x8084c04>
 358:	0b3a0b0b 	j	ce82c2c <BANK_SPACE+0xce42c2c>
 35c:	00000b3b 	0xb3b
 360:	03000d07 	0x3000d07
 364:	3b0b3a0e 	xori	t3,t8,0x3a0e
 368:	3813490b 	xori	s3,zero,0x490b
 36c:	0800000a 	j	28 <SRAM_CARD_GLOBAL_DATA_SIZE+0x18>
 370:	1301012e 	beq	t8,at,82c <KERNEL_BANK_B_SIZE+0x2c>
 374:	0e030c3f 	jal	80c30fc <BANK_SPACE+0x80830fc>
 378:	0b3b0b3a 	j	cec2ce8 <BANK_SPACE+0xce82ce8>
 37c:	13490c27 	beq	k0,t1,341c <SRAM_BT_HEAD_SIZE+0x1c>
 380:	01120111 	0x1120111
 384:	00000a40 	sll	at,zero,0x9
 388:	03000509 	0x3000509
 38c:	3b0b3a08 	xori	t3,t8,0x3a08
 390:	0213490b 	0x213490b
 394:	0a00000a 	j	8000028 <BANK_SPACE+0x7fc0028>
 398:	0e030005 	jal	80c0014 <BANK_SPACE+0x8080014>
 39c:	0b3b0b3a 	j	cec2ce8 <BANK_SPACE+0xce82ce8>
 3a0:	0a021349 	j	8084d24 <BANK_SPACE+0x8044d24>
 3a4:	1d0b0000 	0x1d0b0000
 3a8:	11133101 	beq	t0,s3,c7b0 <SROM_FS_ADDR+0x7b0>
 3ac:	00011201 	0x11201
 3b0:	00050c00 	sll	at,a1,0x10
 3b4:	00001331 	tgeu	zero,zero,0x4c
 3b8:	0b000f0d 	j	c003c34 <BANK_SPACE+0xbfc3c34>
 3bc:	0013490b 	0x13490b
 3c0:	012e0e00 	0x12e0e00
 3c4:	0e031301 	jal	80c4c04 <BANK_SPACE+0x8084c04>
 3c8:	0b3b0b3a 	j	cec2ce8 <BANK_SPACE+0xce82ce8>
 3cc:	0b200c27 	j	c80309c <BANK_SPACE+0xc7c309c>
 3d0:	050f0000 	0x50f0000
 3d4:	3a080300 	xori	t0,s0,0x300
 3d8:	490b3b0b 	bc2tl	$cc2,f008 <SRAM_ASRC_BUF_1_ADDR+0x8>
 3dc:	10000013 	b	42c <KERNEL_BANK_A_SIZE+0x2c>
 3e0:	0e030005 	jal	80c0014 <BANK_SPACE+0x8080014>
 3e4:	0b3b0b3a 	j	cec2ce8 <BANK_SPACE+0xce82ce8>
 3e8:	00001349 	0x1349
 3ec:	01012e11 	0x1012e11
 3f0:	030c3f13 	0x30c3f13
 3f4:	3b0b3a0e 	xori	t3,t8,0x3a0e
 3f8:	110c270b 	beq	t0,t4,a028 <SRAM_BT_LIB1_BANK_ADDR+0x28>
 3fc:	40011201 	0x40011201
 400:	1200000a 	beqz	s0,42c <KERNEL_BANK_A_SIZE+0x2c>
 404:	13010101 	beq	t8,at,80c <KERNEL_BANK_B_SIZE+0xc>
 408:	00001349 	0x1349
 40c:	49002113 	bc2f	885c <SRAM_OS_RCODE_ADDR+0x85c>
 410:	000b2f13 	0xb2f13
 414:	00261400 	0x261400
 418:	00001349 	0x1349
 41c:	03003415 	0x3003415
 420:	3b0b3a0e 	xori	t3,t8,0x3a0e
 424:	0013490b 	0x13490b
 428:	00341600 	0x341600
 42c:	0b3a0e03 	j	ce8380c <BANK_SPACE+0xce4380c>
 430:	1349053b 	beq	k0,t1,1920 <SRAM_BTCALL_CALLRING_BUF_SIZE+0x920>
 434:	01000000 	0x1000000
 438:	06100111 	bltzal	s0,880 <SRAM_OS_DATA_SIZE>
 43c:	01110112 	0x1110112
 440:	0b130e25 	j	c4c3894 <BANK_SPACE+0xc483894>
 444:	0e1b0e03 	jal	86c380c <BANK_SPACE+0x868380c>
 448:	24020000 	li	v0,0
 44c:	0b0e0300 	j	c380c00 <BANK_SPACE+0xc340c00>
 450:	000b3e0b 	0xb3e0b
 454:	00240300 	0x240300
 458:	0b0b0803 	j	c2c200c <BANK_SPACE+0xc28200c>
 45c:	00000b3e 	0xb3e
 460:	0b000f04 	j	c003c10 <BANK_SPACE+0xbfc3c10>
 464:	0500000b 	bltz	t0,494 <KERNEL_BANK_A_SIZE+0x94>
 468:	13010113 	beq	t8,at,8b8 <SRAM_OS_DATA_SIZE+0x38>
 46c:	0b3a0b0b 	j	ce82c2c <BANK_SPACE+0xce42c2c>
 470:	00000b3b 	0xb3b
 474:	03000d06 	0x3000d06
 478:	3b0b3a0e 	xori	t3,t8,0x3a0e
 47c:	3813490b 	xori	s3,zero,0x490b
 480:	0700000a 	bltz	t8,4ac <KERNEL_BANK_A_SIZE+0xac>
 484:	0e030016 	jal	80c0058 <BANK_SPACE+0x8080058>
 488:	0b3b0b3a 	j	cec2ce8 <BANK_SPACE+0xce82ce8>
 48c:	00001349 	0x1349
 490:	01011308 	0x1011308
 494:	0b0e0313 	j	c380c4c <BANK_SPACE+0xc340c4c>
 498:	3b0b3a0b 	xori	t3,t8,0x3a0b
 49c:	0900000b 	j	400002c <BANK_SPACE+0x3fc002c>
 4a0:	1301012e 	beq	t8,at,95c <SRAM_OS_DATA_SIZE+0xdc>
 4a4:	0e030c3f 	jal	80c30fc <BANK_SPACE+0x80830fc>
 4a8:	0b3b0b3a 	j	cec2ce8 <BANK_SPACE+0xce82ce8>
 4ac:	13490c27 	beq	k0,t1,354c <SRAM_BT_HEAD_SIZE+0x14c>
 4b0:	01120111 	0x1120111
 4b4:	00000a40 	sll	at,zero,0x9
 4b8:	0300050a 	0x300050a
 4bc:	3b0b3a08 	xori	t3,t8,0x3a08
 4c0:	0213490b 	0x213490b
 4c4:	0b00000a 	j	c000028 <BANK_SPACE+0xbfc0028>
 4c8:	0e030005 	jal	80c0014 <BANK_SPACE+0x8080014>
 4cc:	0b3b0b3a 	j	cec2ce8 <BANK_SPACE+0xce82ce8>
 4d0:	0a021349 	j	8084d24 <BANK_SPACE+0x8044d24>
 4d4:	340c0000 	li	t4,0x0
 4d8:	3a0e0300 	xori	t6,s0,0x300
 4dc:	490b3b0b 	bc2tl	$cc2,f10c <SRAM_ASRC_BUF_1_ADDR+0x10c>
 4e0:	0d000013 	jal	400004c <BANK_SPACE+0x3fc004c>
 4e4:	0b0b000f 	j	c2c003c <BANK_SPACE+0xc28003c>
 4e8:	00001349 	0x1349
 4ec:	01110100 	0x1110100
 4f0:	01120610 	0x1120610
 4f4:	0e250111 	jal	8940444 <BANK_SPACE+0x8900444>
 4f8:	0e030b13 	jal	80c2c4c <BANK_SPACE+0x8082c4c>
 4fc:	00000e1b 	0xe1b
 500:	03002402 	0x3002402
 504:	3e0b0b0e 	0x3e0b0b0e
 508:	0300000b 	movn	zero,t8,zero
 50c:	08030024 	j	c0090 <BANK_SPACE+0x80090>
 510:	0b3e0b0b 	j	cf82c2c <BANK_SPACE+0xcf42c2c>
 514:	2e040000 	sltiu	a0,s0,0
 518:	030c3f00 	0x30c3f00
 51c:	3b0b3a0e 	xori	t3,t8,0x3a0e
 520:	490c270b 	bc2f	$cc3,a150 <SRAM_BT_LIB1_BANK_ADDR+0x150>
 524:	12011113 	beq	s0,at,4974 <SRAM_AP_BANK_BACK_AL_1_SIZE+0x974>
 528:	000a4001 	0xa4001
 52c:	11010000 	beq	t0,at,530 <SRAM_BT_CONTROLLER_RCODE_SIZE+0x30>
 530:	12061001 	beq	s0,a2,4538 <SRAM_AP_BANK_BACK_AL_1_SIZE+0x538>
 534:	25011101 	addiu	at,t0,4353
 538:	030b130e 	0x30b130e
 53c:	000e1b0e 	0xe1b0e
 540:	00240200 	0x240200
 544:	0b0b0e03 	j	c2c380c <BANK_SPACE+0xc28380c>
 548:	00000b3e 	0xb3e
 54c:	03002403 	0x3002403
 550:	3e0b0b08 	0x3e0b0b08
 554:	0400000b 	bltz	zero,584 <SRAM_BT_CONTROLLER_RCODE_SIZE+0x84>
 558:	0c3f002e 	jal	fc00b8 <BANK_SPACE+0xf800b8>
 55c:	0b3a0e03 	j	ce8380c <BANK_SPACE+0xce4380c>
 560:	0c270b3b 	jal	9c2cec <BANK_SPACE+0x982cec>
 564:	01111349 	0x1111349
 568:	0a400112 	j	9000448 <BANK_SPACE+0x8fc0448>
 56c:	01000000 	0x1000000
 570:	06100111 	bltzal	s0,9b8 <SRAM_OS_DATA_SIZE+0x138>
 574:	01110112 	0x1110112
 578:	0b130e25 	j	c4c3894 <BANK_SPACE+0xc483894>
 57c:	0e1b0e03 	jal	86c380c <BANK_SPACE+0x868380c>
 580:	24020000 	li	v0,0
 584:	0b0e0300 	j	c380c00 <BANK_SPACE+0xc340c00>
 588:	000b3e0b 	0xb3e0b
 58c:	00240300 	0x240300
 590:	0b0b0803 	j	c2c200c <BANK_SPACE+0xc28200c>
 594:	00000b3e 	0xb3e
 598:	0b000f04 	j	c003c10 <BANK_SPACE+0xbfc3c10>
 59c:	0500000b 	bltz	t0,5cc <SRAM_BT_CONTROLLER_RCODE_SIZE+0xcc>
 5a0:	0b0b000f 	j	c2c003c <BANK_SPACE+0xc28003c>
 5a4:	00001349 	0x1349
 5a8:	01011506 	0x1011506
 5ac:	490c2713 	bc2f	$cc3,a1fc <SRAM_BT_LIB1_BANK_ADDR+0x1fc>
 5b0:	07000013 	bltz	t8,600 <SRAM_AP_BACK_BASAL_RCODE_SIZE>
 5b4:	13490005 	beq	k0,t1,5cc <SRAM_BT_CONTROLLER_RCODE_SIZE+0xcc>
 5b8:	16080000 	bne	s0,t0,5bc <SRAM_BT_CONTROLLER_RCODE_SIZE+0xbc>
 5bc:	3a0e0300 	xori	t6,s0,0x300
 5c0:	490b3b0b 	bc2tl	$cc2,f1f0 <SRAM_ASRC_BUF_1_ADDR+0x1f0>
 5c4:	09000013 	j	400004c <BANK_SPACE+0x3fc004c>
 5c8:	13010113 	beq	t8,at,a18 <SRAM_AP_BACK_CODEC_RCODE_SIZE+0x18>
 5cc:	0b3a0b0b 	j	ce82c2c <BANK_SPACE+0xce42c2c>
 5d0:	00000b3b 	0xb3b
 5d4:	03000d0a 	0x3000d0a
 5d8:	3b0b3a0e 	xori	t3,t8,0x3a0e
 5dc:	3813490b 	xori	s3,zero,0x490b
 5e0:	0b00000a 	j	c000028 <BANK_SPACE+0xbfc0028>
 5e4:	0e030034 	jal	80c00d0 <BANK_SPACE+0x80800d0>
 5e8:	0b3b0b3a 	j	cec2ce8 <BANK_SPACE+0xce82ce8>
 5ec:	0c3f1349 	jal	fc4d24 <BANK_SPACE+0xf84d24>
 5f0:	00000a02 	srl	at,zero,0x8
 5f4:	01110100 	0x1110100
 5f8:	01120610 	0x1120610
 5fc:	0e250111 	jal	8940444 <BANK_SPACE+0x8900444>
 600:	0e030b13 	jal	80c2c4c <BANK_SPACE+0x8082c4c>
 604:	00000e1b 	0xe1b
 608:	03002402 	0x3002402
 60c:	3e0b0b0e 	0x3e0b0b0e
 610:	0300000b 	movn	zero,t8,zero
 614:	08030024 	j	c0090 <BANK_SPACE+0x80090>
 618:	0b3e0b0b 	j	cf82c2c <BANK_SPACE+0xcf42c2c>
 61c:	16040000 	bne	s0,a0,620 <SRAM_AP_BACK_BASAL_RCODE_SIZE+0x20>
 620:	3a080300 	xori	t0,s0,0x300
 624:	490b3b0b 	bc2tl	$cc2,f254 <SRAM_ASRC_BUF_1_ADDR+0x254>
 628:	05000013 	bltz	t0,678 <SRAM_AP_BACK_BASAL_RCODE_SIZE+0x78>
 62c:	0e030016 	jal	80c0058 <BANK_SPACE+0x8080058>
 630:	0b3b0b3a 	j	cec2ce8 <BANK_SPACE+0xce82ce8>
 634:	00001349 	0x1349
 638:	01010406 	0x1010406
 63c:	3a0b0b13 	xori	t3,s0,0xb13
 640:	000b3b0b 	0xb3b0b
 644:	00280700 	0x280700
 648:	0d1c0e03 	jal	470380c <BANK_SPACE+0x46c380c>
 64c:	28080000 	slti	t0,zero,0
 650:	1c080300 	0x1c080300
 654:	0900000d 	j	4000034 <BANK_SPACE+0x3fc0034>
 658:	13010113 	beq	t8,at,aa8 <SRAM_AP_BACK_CODEC_RCODE_SIZE+0xa8>
 65c:	050b0e03 	tltiu	t0,3587
 660:	0b3b0b3a 	j	cec2ce8 <BANK_SPACE+0xce82ce8>
 664:	0d0a0000 	jal	4280000 <BANK_SPACE+0x4240000>
 668:	3a0e0300 	xori	t6,s0,0x300
 66c:	490b3b0b 	bc2tl	$cc2,f29c <SRAM_ASRC_BUF_1_ADDR+0x29c>
 670:	000a3813 	0xa3813
 674:	01010b00 	0x1010b00
 678:	13491301 	beq	k0,t1,5280 <SRAM_AP_BANK_BACK_AL_1_SIZE+0x1280>
 67c:	210c0000 	addi	t4,t0,0
 680:	2f134900 	sltiu	s3,t8,18688
 684:	0d00000b 	jal	400002c <BANK_SPACE+0x3fc002c>
 688:	1301012e 	beq	t8,at,b44 <SRAM_COMMON_BT_MANAGER_SIZE+0x44>
 68c:	0e030c3f 	jal	80c30fc <BANK_SPACE+0x80830fc>
 690:	0b3b0b3a 	j	cec2ce8 <BANK_SPACE+0xce82ce8>
 694:	01110c27 	0x1110c27
 698:	0a400112 	j	9000448 <BANK_SPACE+0x8fc0448>
 69c:	050e0000 	tnei	t0,0
 6a0:	3a0e0300 	xori	t6,s0,0x300
 6a4:	490b3b0b 	bc2tl	$cc2,f2d4 <SRAM_ASRC_BUF_1_ADDR+0x2d4>
 6a8:	000a0213 	0xa0213
 6ac:	00340f00 	0x340f00
 6b0:	0b3a0803 	j	ce8200c <BANK_SPACE+0xce4200c>
 6b4:	13490b3b 	beq	k0,t1,33a4 <SROM_TWI_ADDR+0x1a4>
 6b8:	00000a02 	srl	at,zero,0x8
 6bc:	11010b10 	beq	t0,at,3300 <SROM_TWI_ADDR+0x100>
 6c0:	00011201 	0x11201
 6c4:	00341100 	0x341100
 6c8:	0b3a0e03 	j	ce8380c <BANK_SPACE+0xce4380c>
 6cc:	13490b3b 	beq	k0,t1,33bc <SROM_TWI_ADDR+0x1bc>
 6d0:	00000a02 	srl	at,zero,0x8
 6d4:	0b000f12 	j	c003c48 <BANK_SPACE+0xbfc3c48>
 6d8:	0013490b 	0x13490b
 6dc:	00261300 	0x261300
 6e0:	00001349 	0x1349
 6e4:	01012e14 	0x1012e14
 6e8:	030c3f13 	0x30c3f13
 6ec:	3b0b3a0e 	xori	t3,t8,0x3a0e
 6f0:	490c2705 	bc2f	$cc3,a308 <SRAM_BT_LIB1_BANK_ADDR+0x308>
 6f4:	12011113 	beq	s0,at,4b44 <SRAM_AP_BANK_BACK_AL_1_SIZE+0xb44>
 6f8:	000a4001 	0xa4001
 6fc:	00051500 	sll	v0,a1,0x14
 700:	0b3a0803 	j	ce8200c <BANK_SPACE+0xce4200c>
 704:	13490b3b 	beq	k0,t1,33f4 <SROM_TWI_ADDR+0x1f4>
 708:	00000a02 	srl	at,zero,0x8
 70c:	03000516 	0x3000516
 710:	3b0b3a0e 	xori	t3,t8,0x3a0e
 714:	02134905 	0x2134905
 718:	1700000a 	bnez	t8,744 <SRAM_AP_FRONT_DATA_SIZE+0x44>
 71c:	0e030034 	jal	80c00d0 <BANK_SPACE+0x80800d0>
 720:	053b0b3a 	0x53b0b3a
 724:	0a021349 	j	8084d24 <BANK_SPACE+0x8044d24>
 728:	34180000 	li	t8,0x0
 72c:	3a0e0300 	xori	t6,s0,0x300
 730:	49053b0b 	bc2t	$cc1,f360 <SRAM_ASRC_BUF_1_ADDR+0x360>
 734:	19000013 	blez	t0,784 <SRAM_AP_FRONT_DATA_SIZE+0x84>
 738:	08030034 	j	c00d0 <BANK_SPACE+0x800d0>
 73c:	053b0b3a 	0x53b0b3a
 740:	0a021349 	j	8084d24 <BANK_SPACE+0x8044d24>
 744:	2e1a0000 	sltiu	k0,s0,0
 748:	3f130101 	0x3f130101
 74c:	3a0e030c 	xori	t6,s0,0x30c
 750:	49053b0b 	bc2t	$cc1,f380 <SRAM_ASRC_BUF_1_ADDR+0x380>
 754:	000c3c13 	0xc3c13
 758:	00181b00 	sll	v1,t8,0xc
 75c:	2e1c0000 	sltiu	gp,s0,0
 760:	030c3f01 	0x30c3f01
 764:	3b0b3a0e 	xori	t3,t8,0x3a0e
 768:	3c134905 	lui	s3,0x4905
 76c:	1d00000c 	bgtz	t0,7a0 <SRAM_AP_FRONT_DATA_SIZE+0xa0>
 770:	0e030034 	jal	80c00d0 <BANK_SPACE+0x80800d0>
 774:	0b3b0b3a 	j	cec2ce8 <BANK_SPACE+0xce82ce8>
 778:	00001349 	0x1349
	...
Disassembly of section .debug_info:

00000000 <.debug_info>:
       0:	000015ed 	0x15ed
       4:	00000002 	srl	zero,zero,0x0
       8:	01040000 	0x1040000
	...
      14:	00000580 	sll	zero,zero,0x16
      18:	00054401 	0x54401
      1c:	0002d300 	sll	k0,v0,0xc
      20:	01410200 	0x1410200
      24:	08010000 	j	40000 <BANK_SPACE>
      28:	00014302 	srl	t0,at,0xc
      2c:	02060100 	0x2060100
      30:	0000050c 	syscall	0x14
      34:	4b020702 	c2	0x1020702
      38:	02000004 	sllv	zero,zero,s0
      3c:	039b0205 	0x39b0205
      40:	07040000 	0x7040000
      44:	00031102 	srl	v0,v1,0x4
      48:	02050400 	0x2050400
      4c:	0000054e 	0x54e
      50:	00020404 	0x20404
      54:	08000002 	j	8 <DRV_GROUP_KEY>
      58:	03960204 	0x3960204
      5c:	07080000 	tgei	t8,0
      60:	00030c02 	srl	at,v1,0x10
      64:	02050800 	0x2050800
      68:	000003a0 	0x3a0
      6c:	69030704 	0x69030704
      70:	0400746e 	bltz	zero,1d22c <SRAM_OS_TASK_STACK_ADDR+0x1c2c>
      74:	014a0205 	0x14a0205
      78:	06010000 	bgez	s0,7c <AP_BANK_BTENGINE_EXTEND_4>
      7c:	00039b02 	srl	s3,v1,0xc
      80:	04070400 	0x4070400
      84:	33750504 	andi	s5,k1,0x504
      88:	12030032 	beq	s0,v1,154 <SRAM_BTMANAGER_DATA_SIZE+0x14>
      8c:	00000067 	0x67
      90:	00008106 	0x8106
      94:	852e0300 	lh	t6,768(t1)
      98:	06000000 	bltz	s0,9c <SRAM_CARD_DATA_SIZE+0x1c>
      9c:	0000051f 	0x51f
      a0:	00671a02 	0x671a02
      a4:	59060000 	0x59060000
      a8:	02000001 	movf	zero,s0,$fcc0
      ac:	00002f1b 	0x2f1b
      b0:	03ad0600 	0x3ad0600
      b4:	1c020000 	0x1c020000
      b8:	00000021 	move	zero,zero
      bc:	00052006 	srlv	a0,a1,zero
      c0:	6e1d0200 	0x6e1d0200
      c4:	06000000 	bltz	s0,c8 <SRAM_CARD_DATA_SIZE+0x48>
      c8:	00000080 	sll	zero,zero,0x2
      cc:	006e2202 	0x6e2202
      d0:	6b070000 	0x6b070000
      d4:	b9000001 	swr	zero,1(t0)
      d8:	14000000 	bnez	zero,dc <SRAM_CARD_DATA_SIZE+0x5c>
      dc:	c2084504 	ll	t0,17668(s0)
      e0:	04000001 	bltz	zero,e8 <SRAM_RAM2_RESEVER_SIZE+0x8>
      e4:	00003d46 	0x3d46
      e8:	00230200 	0x230200
      ec:	00041b08 	0x41b08
      f0:	b1480400 	0xb1480400
      f4:	02000000 	0x2000000
      f8:	8d080423 	lw	t0,1059(t0)
      fc:	04000004 	bltz	zero,110 <SRAM_AP_MANAGER_RCODE_SIZE+0x10>
     100:	0000b149 	0xb149
     104:	05230200 	bgezl	t1,908 <SRAM_OS_DATA_SIZE+0x88>
     108:	0006ec08 	0x6ec08
     10c:	b14a0400 	0xb14a0400
     110:	02000000 	0x2000000
     114:	a2080623 	sb	t0,1571(s0)
     118:	04000000 	bltz	zero,11c <SRAM_AP_MANAGER_RCODE_SIZE+0x1c>
     11c:	0000b14b 	0xb14b
     120:	07230200 	bgezl	t9,924 <SRAM_OS_DATA_SIZE+0xa4>
     124:	00012408 	0x12408
     128:	b14c0400 	0xb14c0400
     12c:	02000000 	0x2000000
     130:	4d080823 	0x4d080823
     134:	04000002 	bltz	zero,140 <SRAM_BTMANAGER_DATA_SIZE>
     138:	0000b14d 	break	0x0,0x2c5
     13c:	09230200 	j	48c0800 <BANK_SPACE+0x4880800>
     140:	00044408 	0x44408
     144:	b14e0400 	0xb14e0400
     148:	02000000 	0x2000000
     14c:	14080a23 	bne	zero,t0,29dc <SRAM_BTSTACK_AVDTP_DATA_SIZE+0x5c>
     150:	04000001 	bltz	zero,158 <SRAM_BTMANAGER_DATA_SIZE+0x18>
     154:	00008350 	0x8350
     158:	0c230200 	jal	8c0800 <BANK_SPACE+0x880800>
     15c:	0003b508 	0x3b508
     160:	83510400 	lb	s1,1024(k0)
     164:	02000000 	0x2000000
     168:	09001023 	j	400408c <BANK_SPACE+0x3fc408c>
     16c:	0000021a 	0x21a
     170:	000002a6 	0x2a6
     174:	6c040548 	0x6c040548
     178:	00033308 	0x33308
     17c:	6e6d0400 	0x6e6d0400
     180:	02000000 	0x2000000
     184:	580a0023 	0x580a0023
     188:	1a6e0400 	0x1a6e0400
     18c:	02000002 	0x2000002
     190:	32080423 	andi	t0,s0,0x423
     194:	04000005 	bltz	zero,1ac <SRAM_BTMANAGER_DATA_SIZE+0x6c>
     198:	00025371 	tgeu	zero,v0,0x14d
     19c:	a4230300 	sh	v1,768(at)
     1a0:	0017080a 	movz	at,zero,s7
     1a4:	74040000 	jalx	100000 <BANK_SPACE+0xc0000>
     1a8:	00000253 	0x253
     1ac:	0aa82303 	j	aa08c0c <BANK_SPACE+0xa9c8c0c>
     1b0:	00004a08 	0x4a08
     1b4:	9f790400 	0x9f790400
     1b8:	03000002 	0x3000002
     1bc:	080aac23 	j	2ab08c <BANK_SPACE+0x26b08c>
     1c0:	000003f5 	0x3f5
     1c4:	029f7c04 	0x29f7c04
     1c8:	23030000 	addi	v1,t8,0
     1cc:	69080ab0 	0x69080ab0
     1d0:	04000002 	bltz	zero,1dc <SRAM_BTMANAGER_DATA_SIZE+0x9c>
     1d4:	00029f7f 	0x29f7f
     1d8:	b4230300 	0xb4230300
     1dc:	01d9080a 	movz	at,t6,t9
     1e0:	82040000 	lb	a0,0(s0)
     1e4:	0000029f 	0x29f
     1e8:	0ab82303 	j	ae08c0c <BANK_SPACE+0xadc8c0c>
     1ec:	0003d608 	0x3d608
     1f0:	f7860400 	sdc1	$f6,1024(gp)
     1f4:	03000002 	0x3000002
     1f8:	080abc23 	j	2af08c <BANK_SPACE+0x26f08c>
     1fc:	000000f8 	0xf8
     200:	031c8a04 	0x31c8a04
     204:	23030000 	addi	v1,t8,0
     208:	1a080ac0 	0x1a080ac0
     20c:	04000003 	bltz	zero,21c <SRAM_APPLIB_DATA_SIZE+0x1c>
     210:	0003228b 	0x3228b
     214:	c4230300 	lwc1	$f3,768(at)
     218:	310b000a 	andi	t3,t0,0xa
     21c:	36000002 	ori	zero,s0,0x2
     220:	0c000000 	jal	0 <DRV_GROUP_STG_BASE>
     224:	0000007c 	0x7c
     228:	007c0d01 	0x7c0d01
     22c:	01470000 	0x1470000
     230:	02470e00 	0x2470e00
     234:	0f010000 	jal	c040000 <BANK_SPACE+0xc000000>
     238:	00000247 	0x247
     23c:	00024d0f 	0x24d0f
     240:	006e0f00 	0x6e0f00
     244:	10000000 	b	248 <SRAM_AP_RCP_COMMAND_BUFFER_SIZE+0x28>
     248:	00003604 	0x3604
     24c:	bc041000 	cache	0x4,4096(zero)
     250:	10000000 	b	254 <SRAM_AP_RCP_COMMAND_BUFFER_SIZE+0x34>
     254:	00023104 	0x23104
     258:	027d1100 	0x27d1100
     25c:	6e010000 	0x6e010000
     260:	0f000000 	jal	c000000 <BANK_SPACE+0xbfc0000>
     264:	0000006e 	0x6e
     268:	00027d0f 	0x27d0f
     26c:	02880f00 	0x2880f00
     270:	6e0f0000 	0x6e0f0000
     274:	0f000000 	jal	c000000 <BANK_SPACE+0xbfc0000>
     278:	0000006e 	0x6e
     27c:	83041000 	lb	a0,4096(t8)
     280:	12000002 	beqz	s0,28c <SRAM_AP_RCP_COMMAND_BUFFER_SIZE+0x6c>
     284:	000000b1 	tgeu	zero,zero,0x2
     288:	028e0410 	0x28e0410
     28c:	9f0b0000 	0x9f0b0000
     290:	36000002 	ori	zero,s0,0x2
     294:	0d000000 	jal	4000000 <BANK_SPACE+0x3fc0000>
     298:	0000007c 	0x7c
     29c:	10000147 	b	7bc <SRAM_AP_FRONT_DATA_SIZE+0xbc>
     2a0:	00025904 	0x25904
     2a4:	02c50e00 	0x2c50e00
     2a8:	0f010000 	jal	c040000 <BANK_SPACE+0xc000000>
     2ac:	000002c5 	0x2c5
     2b0:	0002e10f 	0x2e10f
     2b4:	006e0f00 	0x6e0f00
     2b8:	6e0f0000 	0x6e0f0000
     2bc:	0f000000 	jal	c000000 <BANK_SPACE+0xbfc0000>
     2c0:	0000006e 	0x6e
     2c4:	cb041000 	lwc2	$4,4096(t8)
     2c8:	0b000002 	j	c000008 <BANK_SPACE+0xbfc0008>
     2cc:	000002e1 	0x2e1
     2d0:	000000bc 	0xbc
     2d4:	00007c0c 	syscall	0x1f0
     2d8:	7c0c0100 	ext	t4,zero,0x4,0x1
     2dc:	07000000 	bltz	t8,2e0 <SRAM_AP_RCP_COMMAND_BUFFER_SIZE+0xc0>
     2e0:	e7041000 	swc1	$f4,4096(t8)
     2e4:	0b000002 	j	c000008 <BANK_SPACE+0xbfc0008>
     2e8:	000002f7 	0x2f7
     2ec:	0000009b 	0x9b
     2f0:	00007c0c 	syscall	0x1f0
     2f4:	10000700 	b	1ef8 <SRAM_OS_TASK_STACK_SIZE+0xf8>
     2f8:	0002a504 	0x2a504
     2fc:	031c1100 	0x31c1100
     300:	6e010000 	0x6e010000
     304:	0f000000 	jal	c000000 <BANK_SPACE+0xbfc0000>
     308:	000002c5 	0x2c5
     30c:	0002e10f 	0x2e10f
     310:	006e0f00 	0x6e0f00
     314:	6e0f0000 	0x6e0f0000
     318:	00000000 	nop
     31c:	02fd0410 	0x2fd0410
     320:	04100000 	bltzal	zero,324 <SRAM_FS_DATA_SIZE+0x24>
     324:	00000328 	0x328
     328:	00007512 	0x7512
     32c:	034e1300 	0x34e1300
     330:	04010000 	b	334 <SRAM_FS_DATA_SIZE+0x34>
     334:	02ce1495 	0x2ce1495
     338:	14000000 	bnez	zero,33c <SRAM_FS_DATA_SIZE+0x3c>
     33c:	00000213 	0x213
     340:	038f1401 	0x38f1401
     344:	14020000 	bne	zero,v0,348 <SRAM_FS_DATA_SIZE+0x48>
     348:	00000389 	0x389
     34c:	63130003 	0x63130003
     350:	01000003 	0x1000003
     354:	62149c04 	0x62149c04
     358:	00000001 	movf	zero,zero,$fcc0
     35c:	524e5315 	beql	s2,t6,14fb4 <SRAM_BT_EXT5_BANK_ADDR+0x9b4>
     360:	09000100 	j	4000400 <BANK_SPACE+0x3fc0400>
     364:	00000435 	0x435
     368:	00000029 	0x29
     36c:	91040450 	lbu	a0,1104(t0)
     370:	00041b08 	0x41b08
     374:	b1920400 	0xb1920400
     378:	02000000 	0x2000000
     37c:	f5080023 	sdc1	$f8,35(t0)
     380:	04000001 	bltz	zero,388 <SRAM_FS_DATA_SIZE+0x88>
     384:	0000b193 	0xb193
     388:	01230200 	0x1230200
     38c:	00048d08 	0x48d08
     390:	b1940400 	0xb1940400
     394:	02000000 	0x2000000
     398:	a2080223 	sb	t0,547(s0)
     39c:	04000000 	bltz	zero,3a0 <SRAM_FS_DATA_SIZE+0xa0>
     3a0:	00032d9a 	0x32d9a
     3a4:	03230200 	0x3230200
     3a8:	0007cc08 	0x7cc08
     3ac:	b19b0400 	0xb19b0400
     3b0:	02000000 	0x2000000
     3b4:	24080423 	li	t0,1059
     3b8:	04000001 	bltz	zero,3c0 <SRAM_FS_DATA_SIZE+0xc0>
     3bc:	00034e9f 	0x34e9f
     3c0:	05230200 	bgezl	t1,bc4 <SRAM_COMMON_BT_MANAGER_SIZE+0xc4>
     3c4:	00009a08 	0x9a08
     3c8:	b1a00400 	0xb1a00400
     3cc:	02000000 	0x2000000
     3d0:	ec080623 	swc3	$8,1571(zero)
     3d4:	04000006 	bltz	zero,3f0 <SRAM_FS_DATA_SIZE+0xf0>
     3d8:	0000b1a1 	0xb1a1
     3dc:	07230200 	bgezl	t9,be0 <SRAM_COMMON_BT_MANAGER_SIZE+0xe0>
     3e0:	00024d08 	0x24d08
     3e4:	b1a20400 	0xb1a20400
     3e8:	02000000 	0x2000000
     3ec:	77080823 	jalx	c20208c <BANK_SPACE+0xc1c208c>
     3f0:	04000000 	bltz	zero,3f4 <SRAM_FS_DATA_SIZE+0xf4>
     3f4:	0000a6a3 	0xa6a3
     3f8:	0a230200 	j	88c0800 <BANK_SPACE+0x8880800>
     3fc:	0004c208 	0x4c208
     400:	b1a40400 	0xb1a40400
     404:	02000000 	0x2000000
     408:	00080c23 	0x80c23
     40c:	04000000 	bltz	zero,410 <KERNEL_BANK_A_SIZE+0x10>
     410:	0000b1a7 	0xb1a7
     414:	0d230200 	jal	48c0800 <BANK_SPACE+0x4880800>
     418:	00022008 	0x22008
     41c:	35aa0400 	ori	t2,t5,0x400
     420:	02000004 	sllv	zero,zero,s0
     424:	cf081023 	pref	0x8,4131(t8)
     428:	04000004 	bltz	zero,43c <KERNEL_BANK_A_SIZE+0x3c>
     42c:	00044bad 	0x44bad
     430:	50230200 	beql	at,v1,c34 <SRAM_ASRC_BUF_1_SIZE+0x34>
     434:	044b0b00 	tltiu	v0,2816
     438:	009b0000 	0x9b0000
     43c:	7c0c0000 	ext	t4,zero,0x0,0x1
     440:	01000000 	0x1000000
     444:	00007c0c 	syscall	0x1f0
     448:	0b000700 	j	c001c00 <BANK_SPACE+0xbfc1c00>
     44c:	00000467 	0x467
     450:	000000bc 	0xbc
     454:	00007c0c 	syscall	0x1f0
     458:	7c0c0f00 	ext	t4,zero,0x1c,0x2
     45c:	01000000 	0x1000000
     460:	00007c0c 	syscall	0x1f0
     464:	09000700 	j	4001c00 <BANK_SPACE+0x3fc1c00>
     468:	000004a0 	0x4a0
     46c:	00000110 	0x110
     470:	b704099c 	0xb704099c
     474:	0006cd08 	0x6cd08
     478:	6eb80400 	0x6eb80400
     47c:	02000000 	0x2000000
     480:	2d080023 	sltiu	t0,t0,35
     484:	04000000 	bltz	zero,488 <KERNEL_BANK_A_SIZE+0x88>
     488:	000363b9 	0x363b9
     48c:	04230200 	bgezl	at,c90 <SRAM_ASRC_BUF_1_SIZE+0x90>
     490:	0001c808 	0x1c808
     494:	6bba0400 	0x6bba0400
     498:	03000001 	movf	zero,t8,$fcc0
     49c:	0008d423 	0x8d423
     4a0:	00033c06 	0x33c06
     4a4:	d2be0400 	0xd2be0400
     4a8:	16000000 	bnez	s0,4ac <KERNEL_BANK_A_SIZE+0xac>
     4ac:	00000517 	0x517
     4b0:	00022d01 	0x22d01
     4b4:	01520100 	0x1520100
     4b8:	000000b1 	tgeu	zero,zero,0x2
     4bc:	bfc3f809 	cache	0x3,-2039(s8)
     4c0:	bfc3f860 	cache	0x3,-1952(s8)
     4c4:	6f176d01 	0x6f176d01
     4c8:	01000005 	0x1000005
     4cc:	00027d51 	0x27d51
     4d0:	18610100 	0x18610100
     4d4:	006e656c 	0x6e656c
     4d8:	00905101 	0x905101
     4dc:	55010000 	bnel	t0,at,4e0 <KERNEL_BANK_A_SIZE+0xe0>
     4e0:	63726319 	0x63726319
     4e4:	b1530100 	0xb1530100
     4e8:	01000000 	0x1000000
     4ec:	00691960 	0x691960
     4f0:	00905401 	0x905401
     4f4:	52010000 	beql	s0,at,4f8 <KERNEL_BANK_A_SIZE+0xf8>
     4f8:	0004751a 	0x4751a
     4fc:	b1550100 	0xb1550100
     500:	01000000 	0x1000000
     504:	00001b54 	0x1b54
     508:	621c0000 	0x621c0000
     50c:	01007469 	0x1007469
     510:	0000755c 	0x755c
     514:	1d000000 	bgtz	t0,518 <SRAM_BT_CONTROLLER_RCODE_SIZE+0x18>
     518:	0000054c 	syscall	0x15
     51c:	0000c401 	0xc401
     520:	01320100 	0x1320100
     524:	c3f86501 	ll	t8,25857(ra)
     528:	c3f87cbf 	ll	t8,31935(ra)
     52c:	1e6d01bf 	0x1e6d01bf
     530:	0000002d 	0x2d
     534:	4c013101 	0x4c013101
     538:	01000005 	0x1000005
     53c:	00d21e54 	0xd21e54
     540:	31010000 	andi	at,t0,0x0
     544:	00056701 	0x56701
     548:	00550100 	0x550100
     54c:	05520410 	bltzall	t2,1590 <SRAM_BTCALL_CALLRING_BUF_SIZE+0x590>
     550:	63120000 	0x63120000
     554:	0b000003 	j	c00000c <BANK_SPACE+0xbfc000c>
     558:	00000567 	0x567
     55c:	0000006e 	0x6e
     560:	00007c0c 	syscall	0x1f0
     564:	10000700 	b	2168 <SRAM_AP_BACK_AL_RCODE_2_SIZE+0x168>
     568:	00055704 	0x55704
     56c:	05ce1f00 	tnei	t6,7936
     570:	a7010000 	sh	at,0(t8)
     574:	01000000 	0x1000000
     578:	6e010147 	0x6e010147
     57c:	7d000000 	ext	zero,t0,0x0,0x1
     580:	f8bfc3f8 	sdc2	$31,-15368(a1)
     584:	01bfc3f8 	0x1bfc3f8
     588:	01cc1e6d 	0x1cc1e6d
     58c:	45010000 	bc1t	590 <SRAM_BT_CONTROLLER_RCODE_SIZE+0x90>
     590:	0005ce01 	0x5ce01
     594:	30910200 	andi	s1,a0,0x200
     598:	00002d1e 	0x2d1e
     59c:	01460100 	0x1460100
     5a0:	000005d4 	0x5d4
     5a4:	63206101 	0x63206101
     5a8:	48010068 	0x48010068
     5ac:	00006e01 	0x6e01
     5b0:	20570100 	addi	s7,v0,256
     5b4:	006b6c62 	0x6b6c62
     5b8:	6e014801 	0x6e014801
     5bc:	01000000 	0x1000000
     5c0:	00782053 	0x782053
     5c4:	47014901 	c1	0x1014901
     5c8:	01000002 	0x1000002
     5cc:	04100060 	bltzal	zero,750 <SRAM_AP_FRONT_DATA_SIZE+0x50>
     5d0:	0000016b 	0x16b
     5d4:	03630410 	0x3630410
     5d8:	2f1f0000 	sltiu	ra,t8,0
     5dc:	01000006 	srlv	zero,zero,t0
     5e0:	00000431 	tgeu	zero,zero,0x10
     5e4:	01021501 	0x1021501
     5e8:	000000c7 	0xc7
     5ec:	bfc3f8f9 	cache	0x3,-1799(s8)
     5f0:	bfc3f930 	cache	0x3,-1744(s8)
     5f4:	6f1e6d01 	0x6f1e6d01
     5f8:	01000005 	0x1000005
     5fc:	062f0213 	0x62f0213
     600:	54010000 	bnel	zero,at,604 <SRAM_AP_BACK_BASAL_RCODE_SIZE+0x4>
     604:	00002d1e 	0x2d1e
     608:	02130100 	0x2130100
     60c:	000005d4 	0x5d4
     610:	6c215501 	0x6c215501
     614:	01006e65 	0x1006e65
     618:	00900213 	0x900213
     61c:	56010000 	bnel	s0,at,620 <SRAM_AP_BACK_BASAL_RCODE_SIZE+0x20>
     620:	0000001e 	0x1e
     624:	02140100 	0x2140100
     628:	0000006e 	0x6e
     62c:	10005701 	b	16234 <SRAM_BT_EXT5_BANK_ADDR+0x1c34>
     630:	0000b104 	0xb104
     634:	065c1d00 	0x65c1d00
     638:	55010000 	bnel	t0,at,63c <SRAM_AP_BACK_BASAL_RCODE_SIZE+0x3c>
     63c:	01000002 	0x1000002
     640:	31010495 	andi	at,t0,0x495
     644:	68bfc3f9 	0x68bfc3f9
     648:	01bfc3f9 	0x1bfc3f9
     64c:	01cc1e6d 	0x1cc1e6d
     650:	94010000 	lhu	at,0(zero)
     654:	0005ce04 	0x5ce04
     658:	00540100 	0x540100
     65c:	0006911d 	0x6911d
     660:	05540100 	0x5540100
     664:	29010000 	slti	at,t0,0
     668:	f9950102 	sdc2	$21,258(t4)
     66c:	f9c8bfc3 	sdc2	$8,-16445(t6)
     670:	6d01bfc3 	0x6d01bfc3
     674:	0001cc1e 	0x1cc1e
     678:	02270100 	0x2270100
     67c:	000005ce 	0x5ce
     680:	2d1e6001 	sltiu	s8,t0,24577
     684:	01000000 	0x1000000
     688:	054c0228 	teqi	t2,552
     68c:	61010000 	0x61010000
     690:	07001f00 	bltz	t8,8294 <SRAM_OS_RCODE_ADDR+0x294>
     694:	6f010000 	0x6f010000
     698:	01000000 	0x1000000
     69c:	900104d3 	lbu	at,1235(zero)
     6a0:	cd000000 	pref	0x0,0(t0)
     6a4:	04bfc3f9 	synci	-15367(a1)
     6a8:	01bfc3fa 	0x1bfc3fa
     6ac:	6273216d 	0x6273216d
     6b0:	d2010063 	0xd2010063
     6b4:	00070004 	sllv	zero,a3,zero
     6b8:	1e530100 	0x1e530100
     6bc:	0000014f 	0x14f
     6c0:	9004d201 	lbu	a0,-11775(zero)
     6c4:	01000000 	0x1000000
     6c8:	06ec2255 	teqi	s7,8789
     6cc:	d4010000 	ldc1	$f1,0(zero)
     6d0:	0000a604 	0xa604
     6d4:	23570100 	addi	s7,k0,256
     6d8:	000007cc 	syscall	0x1f
     6dc:	a604d401 	sh	a0,-11263(s0)
     6e0:	22000000 	addi	zero,s0,0
     6e4:	0000048d 	break	0x0,0x12
     6e8:	a604d401 	sh	a0,-11263(s0)
     6ec:	01000000 	0x1000000
     6f0:	01142256 	0x1142256
     6f4:	d5010000 	ldc1	$f1,0(t0)
     6f8:	00070604 	0x70604
     6fc:	00540100 	0x540100
     700:	04a00410 	bltz	a1,1744 <SRAM_BTCALL_CALLRING_BUF_SIZE+0x744>
     704:	04100000 	bltzal	zero,708 <SRAM_AP_FRONT_DATA_SIZE+0x8>
     708:	00000467 	0x467
     70c:	0007971f 	0x7971f
     710:	04b40100 	0x4b40100
     714:	b7010000 	0xb7010000
     718:	00900104 	0x900104
     71c:	fa050000 	sdc2	$5,0(s0)
     720:	fa6cbfc3 	sdc2	$12,-16445(s3)
     724:	6d01bfc3 	0x6d01bfc3
     728:	63627321 	0x63627321
     72c:	04b60100 	0x4b60100
     730:	00000700 	sll	zero,zero,0x1c
     734:	72205401 	0x72205401
     738:	01007465 	0x1007465
     73c:	006e04b8 	0x6e04b8
     740:	60010000 	0x60010000
     744:	0006ec22 	0x6ec22
     748:	04b90100 	0x4b90100
     74c:	000000b1 	tgeu	zero,zero,0x2
     750:	cc235701 	pref	0x3,22273(at)
     754:	01000007 	srav	zero,zero,t0
     758:	00b104b9 	0xb104b9
     75c:	8d220000 	lw	v0,0(t1)
     760:	01000004 	sllv	zero,zero,t0
     764:	00b104b9 	0xb104b9
     768:	56010000 	bnel	s0,at,76c <SRAM_AP_FRONT_DATA_SIZE+0x6c>
     76c:	00000022 	neg	zero,zero
     770:	04b90100 	0x4b90100
     774:	000000b1 	tgeu	zero,zero,0x2
     778:	4d225301 	0x4d225301
     77c:	01000002 	0x1000002
     780:	00b104b9 	0xb104b9
     784:	54010000 	bnel	zero,at,788 <SRAM_AP_FRONT_DATA_SIZE+0x88>
     788:	00011422 	0x11422
     78c:	04ba0100 	0x4ba0100
     790:	00000706 	0x706
     794:	1f005501 	bgtz	t8,15b9c <SRAM_BT_EXT5_BANK_ADDR+0x159c>
     798:	0000089f 	0x89f
     79c:	00030101 	0x30101
     7a0:	02330100 	0x2330100
     7a4:	0000c701 	0xc701
     7a8:	c3fa6d00 	ll	k0,27904(ra)
     7ac:	c3fb8cbf 	ll	k1,-29505(ra)
     7b0:	216d01bf 	addi	t5,t3,447
     7b4:	00636273 	tltu	v1,v1,0x189
     7b8:	00023101 	0x23101
     7bc:	01000007 	srav	zero,zero,t0
     7c0:	02c81e61 	0x2c81e61
     7c4:	31010000 	andi	at,t0,0x0
     7c8:	00089f02 	srl	s3,t0,0x1c
     7cc:	34910200 	ori	s1,a0,0x200
     7d0:	0005651e 	0x5651e
     7d4:	02310100 	0x2310100
     7d8:	00000090 	0x90
     7dc:	1e389102 	0x1e389102
     7e0:	0000014f 	0x14f
     7e4:	90023101 	lbu	v0,12545(zero)
     7e8:	02000000 	0x2000000
     7ec:	2e1e3c91 	sltiu	s8,s0,15505
     7f0:	01000003 	0x1000003
     7f4:	00900231 	tgeu	a0,s0,0x8
     7f8:	91030000 	lbu	v1,0(t0)
     7fc:	881e00c0 	lwl	s8,192(zero)
     800:	01000000 	0x1000000
     804:	00830232 	tlt	a0,v1,0x8
     808:	91030000 	lbu	v1,0(t0)
     80c:	191e00c4 	0x191e00c4
     810:	01000001 	movf	zero,t0,$fcc0
     814:	00900232 	tlt	a0,s0,0x8
     818:	91030000 	lbu	v1,0(t0)
     81c:	041e00c8 	0x41e00c8
     820:	01000005 	0x1000005
     824:	08a60232 	j	29808c8 <BANK_SPACE+0x29408c8>
     828:	91030000 	lbu	v1,0(t0)
     82c:	142200cc 	bne	at,v0,b60 <SRAM_COMMON_BT_MANAGER_SIZE+0x60>
     830:	01000001 	movf	zero,t0,$fcc0
     834:	07060234 	0x7060234
     838:	60010000 	0x60010000
     83c:	0003ed22 	0x3ed22
     840:	02350100 	0x2350100
     844:	0000006e 	0x6e
     848:	24189102 	li	t8,-28414
     84c:	36010069 	ori	at,s0,0x69
     850:	00009002 	srl	s2,zero,0x0
     854:	04c92300 	tgeiu	a2,8960
     858:	37010000 	ori	at,t8,0x0
     85c:	0008ac02 	srl	s5,t0,0x10
     860:	00062300 	sll	a0,a2,0xc
     864:	38010000 	xori	at,zero,0x0
     868:	00024702 	srl	t0,v0,0x1c
     86c:	00662200 	0x662200
     870:	39010000 	xori	at,t0,0x0
     874:	0000c702 	srl	t8,zero,0x1c
     878:	1c910200 	0x1c910200
     87c:	0002b822 	neg	s7,v0
     880:	023c0100 	0x23c0100
     884:	0000029f 	0x29f
     888:	51255301 	beql	t1,a1,15490 <SRAM_BT_EXT5_BANK_ADDR+0xe90>
     88c:	71bfc3fb 	0x71bfc3fb
     890:	24bfc3fb 	addiu	ra,a1,-15365
     894:	8d01006a 	lw	at,106(t0)
     898:	00006e02 	srl	t5,zero,0x18
     89c:	10000000 	b	8a0 <SRAM_OS_DATA_SIZE+0x20>
     8a0:	0008a504 	0x8a504
     8a4:	04102600 	bltzal	zero,a0a8 <SRAM_BT_LIB1_BANK_ADDR+0xa8>
     8a8:	000000c7 	0xc7
     8ac:	006e0410 	0x6e0410
     8b0:	2f270000 	sltiu	a3,t9,0
     8b4:	ed000009 	swc3	$0,9(t0)
     8b8:	01000004 	sllv	zero,zero,t0
     8bc:	010102f2 	tlt	t0,at,0xb
     8c0:	74bfc3d0 	jalx	2ff0f40 <BANK_SPACE+0x2fb0f40>
     8c4:	01bfc3d2 	0x1bfc3d2
     8c8:	6e69216d 	0x6e69216d
     8cc:	02f00100 	0x2f00100
     8d0:	0000092f 	0x92f
     8d4:	00e89103 	0xe89103
     8d8:	74756f21 	jalx	1d5bc84 <BANK_SPACE+0x1d1bc84>
     8dc:	02f00100 	0x2f00100
     8e0:	0000024d 	break	0x0,0x9
     8e4:	00ec9103 	0xec9103
     8e8:	0001d21e 	0x1d21e
     8ec:	02f10100 	0x2f10100
     8f0:	0000092f 	0x92f
     8f4:	00f09103 	0xf09103
     8f8:	00317420 	0x317420
     8fc:	3a02f301 	xori	v0,s0,0xf301
     900:	02000009 	jalr	zero,s0
     904:	74200091 	jalx	800244 <BANK_SPACE+0x7c0244>
     908:	f4010032 	sdc1	$f1,50(zero)
     90c:	00094a02 	srl	t1,t1,0x8
     910:	20910200 	addi	s1,a0,512
     914:	01006920 	0x1006920
     918:	006e02f5 	0x6e02f5
     91c:	60010000 	0x60010000
     920:	706f6820 	clz	t5 or t7,v1
     924:	02f50100 	0x2f50100
     928:	0000006e 	0x6e
     92c:	10006901 	b	1ad34 <SRAM_OS_HEAP_ADDR+0xb4>
     930:	00093504 	0x93504
     934:	00361200 	0x361200
     938:	4a0b0000 	c2	0xb0000
     93c:	bc000009 	cache	0x0,9(zero)
     940:	0c000000 	jal	0 <DRV_GROUP_STG_BASE>
     944:	0000007c 	0x7c
     948:	5a0b0007 	0x5a0b0007
     94c:	36000009 	ori	zero,s0,0x9
     950:	0c000000 	jal	0 <DRV_GROUP_STG_BASE>
     954:	0000007c 	0x7c
     958:	9a270007 	lwr	a3,7(s1)
     95c:	36000009 	ori	zero,s0,0x9
     960:	01000002 	0x1000002
     964:	75010338 	jalx	4040ce0 <BANK_SPACE+0x4000ce0>
     968:	78bfc3d2 	0x78bfc3d2
     96c:	01bfc3d2 	0x1bfc3d2
     970:	0078216d 	0x78216d
     974:	47033601 	c1	0x1033601
     978:	01000002 	0x1000002
     97c:	756f2154 	jalx	5bc8550 <BANK_SPACE+0x5b88550>
     980:	37010074 	ori	at,t8,0x74
     984:	00024d03 	sra	t1,v0,0x14
     988:	1e550100 	0x1e550100
     98c:	00000342 	srl	zero,zero,0xd
     990:	6e033701 	0x6e033701
     994:	01000000 	0x1000000
     998:	db270056 	ldc2	$7,86(t9)
     99c:	33000009 	andi	zero,t8,0x9
     9a0:	01000000 	0x1000000
     9a4:	79010347 	0x79010347
     9a8:	b4bfc3d2 	0xb4bfc3d2
     9ac:	01bfc3d2 	0x1bfc3d2
     9b0:	0078216d 	0x78216d
     9b4:	47034501 	c1	0x1034501
     9b8:	02000002 	0x2000002
     9bc:	6f212091 	0x6f212091
     9c0:	01007475 	0x1007475
     9c4:	024d0346 	0x24d0346
     9c8:	60010000 	0x60010000
     9cc:	0003421e 	0x3421e
     9d0:	03460100 	0x3460100
     9d4:	0000006e 	0x6e
     9d8:	28006101 	slti	zero,zero,24833
     9dc:	000010a9 	0x10a9
     9e0:	0000018b 	0x18b
     9e4:	01039f01 	0x1039f01
     9e8:	0000006e 	0x6e
     9ec:	bfc3d2bd 	cache	0x3,-11587(s8)
     9f0:	bfc3d7c8 	cache	0x3,-10296(s8)
     9f4:	331e6d01 	andi	s8,t8,0x6d01
     9f8:	01000003 	0x1000003
     9fc:	006e039c 	0x6e039c
     a00:	91020000 	lbu	v0,0(t0)
     a04:	63702128 	0x63702128
     a08:	9d01006d 	0x9d01006d
     a0c:	00027d03 	sra	t7,v0,0x14
     a10:	21600100 	addi	zero,t3,256
     a14:	9d010058 	0x9d010058
     a18:	00028803 	sra	s1,v0,0x0
     a1c:	30910200 	andi	s1,a0,0x200
     a20:	0003ec1e 	0x3ec1e
     a24:	039e0100 	0x39e0100
     a28:	0000006e 	0x6e
     a2c:	1e349102 	0x1e349102
     a30:	00000528 	0x528
     a34:	6e039e01 	0x6e039e01
     a38:	01000000 	0x1000000
     a3c:	04401e61 	bltz	v0,83c4 <SRAM_OS_RCODE_ADDR+0x3c4>
     a40:	9e010000 	0x9e010000
     a44:	00006e03 	sra	t5,zero,0x18
     a48:	3c910200 	0x3c910200
     a4c:	000d7c29 	0xd7c29
     a50:	c3d33f00 	ll	s3,16128(s8)
     a54:	c3d55bbf 	ll	s5,23487(s8)
     a58:	007824bf 	0x7824bf
     a5c:	4703b201 	c1	0x103b201
     a60:	2a000002 	slti	zero,s0,2
     a64:	00000a7c 	0xa7c
     a68:	000010a9 	0x10a9
     a6c:	bfc3d343 	cache	0x3,-11453(s8)
     a70:	bfc3d34f 	cache	0x3,-11441(s8)
     a74:	0010bb2b 	0x10bb2b
     a78:	00520100 	0x520100
     a7c:	000a952a 	0xa952a
     a80:	0010c800 	sll	t9,s0,0x0
     a84:	c3d34f00 	ll	s3,20224(s8)
     a88:	c3d359bf 	ll	s3,22975(s8)
     a8c:	10da2bbf 	beq	a2,k0,b98c <SRAM_AP_BANK_FRONT_BASAL_ADDR+0x98c>
     a90:	52010000 	beql	s0,at,a94 <SRAM_AP_BACK_CODEC_RCODE_SIZE+0x94>
     a94:	0aae2a00 	j	ab8a800 <BANK_SPACE+0xab4a800>
     a98:	10a90000 	beq	a1,t1,a9c <SRAM_AP_BACK_CODEC_RCODE_SIZE+0x9c>
     a9c:	d3610000 	0xd3610000
     aa0:	d36bbfc3 	0xd36bbfc3
     aa4:	bb2bbfc3 	swr	t3,-16445(t9)
     aa8:	01000010 	0x1000010
     aac:	c72a0052 	lwc1	$f10,82(t9)
     ab0:	c800000a 	lwc2	$0,10(zero)
     ab4:	6b000010 	0x6b000010
     ab8:	73bfc3d3 	udi3	sp,ra,t8,0xf
     abc:	2bbfc3d3 	slti	ra,sp,-15405
     ac0:	000010da 	0x10da
     ac4:	2a005201 	slti	zero,s0,20993
     ac8:	00000ae0 	0xae0
     acc:	000010a9 	0x10a9
     ad0:	bfc3d37b 	cache	0x3,-11397(s8)
     ad4:	bfc3d38b 	cache	0x3,-11381(s8)
     ad8:	0010bb2b 	0x10bb2b
     adc:	00530100 	0x530100
     ae0:	000af92a 	0xaf92a
     ae4:	0010c800 	sll	t9,s0,0x0
     ae8:	c3d38b00 	ll	s3,-29952(s8)
     aec:	c3d399bf 	ll	s3,-26177(s8)
     af0:	10da2bbf 	beq	a2,k0,b9f0 <SRAM_AP_BANK_FRONT_BASAL_ADDR+0x9f0>
     af4:	53010000 	beql	t8,at,af8 <SRAM_AP_BACK_CODEC_RCODE_SIZE+0xf8>
     af8:	0b122a00 	j	c48a800 <BANK_SPACE+0xc44a800>
     afc:	10a90000 	beq	a1,t1,b00 <SRAM_COMMON_BT_MANAGER_SIZE>
     b00:	d3a30000 	0xd3a30000
     b04:	d3adbfc3 	0xd3adbfc3
     b08:	bb2bbfc3 	swr	t3,-16445(t9)
     b0c:	01000010 	0x1000010
     b10:	2b2a0052 	slti	t2,t9,82
     b14:	c800000b 	lwc2	$0,11(zero)
     b18:	ad000010 	sw	zero,16(t0)
     b1c:	b5bfc3d3 	0xb5bfc3d3
     b20:	2bbfc3d3 	slti	ra,sp,-15405
     b24:	000010da 	0x10da
     b28:	2a005201 	slti	zero,s0,20993
     b2c:	00000b44 	0xb44
     b30:	000010a9 	0x10a9
     b34:	bfc3d3bd 	cache	0x3,-11331(s8)
     b38:	bfc3d3cd 	cache	0x3,-11315(s8)
     b3c:	0010bb2b 	0x10bb2b
     b40:	00530100 	0x530100
     b44:	000b5d2a 	0xb5d2a
     b48:	0010c800 	sll	t9,s0,0x0
     b4c:	c3d3cd00 	ll	s3,-13056(s8)
     b50:	c3d3dbbf 	ll	s3,-9281(s8)
     b54:	10da2bbf 	beq	a2,k0,ba54 <SRAM_AP_BANK_FRONT_BASAL_ADDR+0xa54>
     b58:	53010000 	beql	t8,at,b5c <SRAM_COMMON_BT_MANAGER_SIZE+0x5c>
     b5c:	0b762a00 	j	dd8a800 <BANK_SPACE+0xdd4a800>
     b60:	10a90000 	beq	a1,t1,b64 <SRAM_COMMON_BT_MANAGER_SIZE+0x64>
     b64:	d3e30000 	0xd3e30000
     b68:	d3f3bfc3 	0xd3f3bfc3
     b6c:	bb2bbfc3 	swr	t3,-16445(t9)
     b70:	01000010 	0x1000010
     b74:	8f2a0053 	lw	t2,83(t9)
     b78:	c800000b 	lwc2	$0,11(zero)
     b7c:	f3000010 	0xf3000010
     b80:	01bfc3d3 	0x1bfc3d3
     b84:	2bbfc3d4 	slti	ra,sp,-15404
     b88:	000010da 	0x10da
     b8c:	2a005301 	slti	zero,s0,21249
     b90:	00000ba8 	0xba8
     b94:	000010a9 	0x10a9
     b98:	bfc3d409 	cache	0x3,-11255(s8)
     b9c:	bfc3d419 	cache	0x3,-11239(s8)
     ba0:	0010bb2b 	0x10bb2b
     ba4:	00530100 	0x530100
     ba8:	000bc12a 	0xbc12a
     bac:	0010c800 	sll	t9,s0,0x0
     bb0:	c3d41900 	ll	s4,6400(s8)
     bb4:	c3d427bf 	ll	s4,10175(s8)
     bb8:	10da2bbf 	beq	a2,k0,bab8 <SRAM_AP_BANK_FRONT_BASAL_ADDR+0xab8>
     bbc:	53010000 	beql	t8,at,bc0 <SRAM_COMMON_BT_MANAGER_SIZE+0xc0>
     bc0:	0bda2a00 	j	f68a800 <BANK_SPACE+0xf64a800>
     bc4:	10a90000 	beq	a1,t1,bc8 <SRAM_COMMON_BT_MANAGER_SIZE+0xc8>
     bc8:	d42f0000 	ldc1	$f15,0(at)
     bcc:	d43fbfc3 	ldc1	$f31,-16445(at)
     bd0:	bb2bbfc3 	swr	t3,-16445(t9)
     bd4:	01000010 	0x1000010
     bd8:	f32a0053 	0xf32a0053
     bdc:	c800000b 	lwc2	$0,11(zero)
     be0:	3f000010 	0x3f000010
     be4:	4dbfc3d4 	0x4dbfc3d4
     be8:	2bbfc3d4 	slti	ra,sp,-15404
     bec:	000010da 	0x10da
     bf0:	2a005301 	slti	zero,s0,21249
     bf4:	00000c0c 	syscall	0x30
     bf8:	000010a9 	0x10a9
     bfc:	bfc3d455 	cache	0x3,-11179(s8)
     c00:	bfc3d465 	cache	0x3,-11163(s8)
     c04:	0010bb2b 	0x10bb2b
     c08:	00530100 	0x530100
     c0c:	000c252a 	0xc252a
     c10:	0010c800 	sll	t9,s0,0x0
     c14:	c3d46500 	ll	s4,25856(s8)
     c18:	c3d473bf 	ll	s4,29631(s8)
     c1c:	10da2bbf 	beq	a2,k0,bb1c <SRAM_AP_BANK_FRONT_BASAL_ADDR+0xb1c>
     c20:	53010000 	beql	t8,at,c24 <SRAM_ASRC_BUF_1_SIZE+0x24>
     c24:	0c3e2a00 	jal	f8a800 <BANK_SPACE+0xf4a800>
     c28:	10a90000 	beq	a1,t1,c2c <SRAM_ASRC_BUF_1_SIZE+0x2c>
     c2c:	d47b0000 	ldc1	$f27,0(v1)
     c30:	d48bbfc3 	ldc1	$f11,-16445(a0)
     c34:	bb2bbfc3 	swr	t3,-16445(t9)
     c38:	01000010 	0x1000010
     c3c:	572a0053 	bnel	t9,t2,d8c <SRAM_BT_EXT3_BANK_SIZE+0x8c>
     c40:	c800000c 	lwc2	$0,12(zero)
     c44:	8b000010 	lwl	zero,16(t8)
     c48:	99bfc3d4 	lwr	ra,-15404(t5)
     c4c:	2bbfc3d4 	slti	ra,sp,-15404
     c50:	000010da 	0x10da
     c54:	2a005301 	slti	zero,s0,21249
     c58:	00000c70 	tge	zero,zero,0x31
     c5c:	000010a9 	0x10a9
     c60:	bfc3d4a1 	cache	0x3,-11103(s8)
     c64:	bfc3d4b1 	cache	0x3,-11087(s8)
     c68:	0010bb2b 	0x10bb2b
     c6c:	00530100 	0x530100
     c70:	000c892a 	0xc892a
     c74:	0010c800 	sll	t9,s0,0x0
     c78:	c3d4b100 	ll	s4,-20224(s8)
     c7c:	c3d4bfbf 	ll	s4,-16449(s8)
     c80:	10da2bbf 	beq	a2,k0,bb80 <SRAM_AP_BANK_FRONT_BASAL_ADDR+0xb80>
     c84:	53010000 	beql	t8,at,c88 <SRAM_ASRC_BUF_1_SIZE+0x88>
     c88:	0ca02a00 	jal	280a800 <BANK_SPACE+0x27ca800>
     c8c:	10a90000 	beq	a1,t1,c90 <SRAM_ASRC_BUF_1_SIZE+0x90>
     c90:	d4cb0000 	ldc1	$f11,0(a2)
     c94:	d4d3bfc3 	ldc1	$f19,-16445(a2)
     c98:	bb2cbfc3 	swr	t4,-16445(t9)
     c9c:	00000010 	mfhi	zero
     ca0:	000cb72a 	0xcb72a
     ca4:	0010c800 	sll	t9,s0,0x0
     ca8:	c3d4d300 	ll	s4,-11520(s8)
     cac:	c3d4ddbf 	ll	s4,-8769(s8)
     cb0:	10da2cbf 	beq	a2,k0,bfb0 <SRAM_UI_DATA_ADDR+0xb0>
     cb4:	2a000000 	slti	zero,s0,0
     cb8:	00000cd0 	0xcd0
     cbc:	000010a9 	0x10a9
     cc0:	bfc3d4e5 	cache	0x3,-11035(s8)
     cc4:	bfc3d4f5 	cache	0x3,-11019(s8)
     cc8:	0010bb2b 	0x10bb2b
     ccc:	00530100 	0x530100
     cd0:	000ce92a 	0xce92a
     cd4:	0010c800 	sll	t9,s0,0x0
     cd8:	c3d4f500 	ll	s4,-2816(s8)
     cdc:	c3d503bf 	ll	s5,959(s8)
     ce0:	10da2bbf 	beq	a2,k0,bbe0 <SRAM_AP_BANK_FRONT_BASAL_ADDR+0xbe0>
     ce4:	53010000 	beql	t8,at,ce8 <SRAM_ASRC_BUF_1_SIZE+0xe8>
     ce8:	0d022a00 	jal	408a800 <BANK_SPACE+0x404a800>
     cec:	10a90000 	beq	a1,t1,cf0 <SRAM_ASRC_BUF_1_SIZE+0xf0>
     cf0:	d50d0000 	ldc1	$f13,0(t0)
     cf4:	d517bfc3 	ldc1	$f23,-16445(t0)
     cf8:	bb2bbfc3 	swr	t3,-16445(t9)
     cfc:	01000010 	0x1000010
     d00:	1b2a0052 	0x1b2a0052
     d04:	c800000d 	lwc2	$0,13(zero)
     d08:	17000010 	bnez	t8,d4c <SRAM_BT_EXT3_BANK_SIZE+0x4c>
     d0c:	1fbfc3d5 	0x1fbfc3d5
     d10:	2bbfc3d5 	slti	ra,sp,-15403
     d14:	000010da 	0x10da
     d18:	2a005201 	slti	zero,s0,20993
     d1c:	00000d34 	teq	zero,zero,0x34
     d20:	000010a9 	0x10a9
     d24:	bfc3d529 	cache	0x3,-10967(s8)
     d28:	bfc3d533 	cache	0x3,-10957(s8)
     d2c:	0010bb2b 	0x10bb2b
     d30:	00520100 	0x520100
     d34:	000d4d2a 	0xd4d2a
     d38:	0010c800 	sll	t9,s0,0x0
     d3c:	c3d53300 	ll	s5,13056(s8)
     d40:	c3d53bbf 	ll	s5,15295(s8)
     d44:	10da2bbf 	beq	a2,k0,bc44 <SRAM_AP_BANK_FRONT_BASAL_ADDR+0xc44>
     d48:	52010000 	beql	s0,at,d4c <SRAM_BT_EXT3_BANK_SIZE+0x4c>
     d4c:	0d662a00 	jal	598a800 <BANK_SPACE+0x594a800>
     d50:	10a90000 	beq	a1,t1,d54 <SRAM_BT_EXT3_BANK_SIZE+0x54>
     d54:	d5450000 	ldc1	$f5,0(t2)
     d58:	d54fbfc3 	ldc1	$f15,-16445(t2)
     d5c:	bb2bbfc3 	swr	t3,-16445(t9)
     d60:	01000010 	0x1000010
     d64:	c82d0052 	lwc2	$13,82(at)
     d68:	4f000010 	c3	0x1000010
     d6c:	57bfc3d5 	bnel	sp,ra,ffff1cc4 <blk_op+0x403b1f6c>
     d70:	2bbfc3d5 	slti	ra,sp,-15403
     d74:	000010da 	0x10da
     d78:	00005201 	0x5201
     d7c:	c3d56125 	ll	s5,24869(s8)
     d80:	c3d7b3bf 	ll	s7,-19521(s8)
     d84:	007824bf 	0x7824bf
     d88:	4703c501 	c1	0x103c501
     d8c:	2a000002 	slti	zero,s0,2
     d90:	00000da8 	0xda8
     d94:	000010a9 	0x10a9
     d98:	bfc3d565 	cache	0x3,-10907(s8)
     d9c:	bfc3d573 	cache	0x3,-10893(s8)
     da0:	0010bb2b 	0x10bb2b
     da4:	00520100 	0x520100
     da8:	000dc12a 	0xdc12a
     dac:	0010c800 	sll	t9,s0,0x0
     db0:	c3d57300 	ll	s5,29440(s8)
     db4:	c3d57fbf 	ll	s5,32703(s8)
     db8:	10da2bbf 	beq	a2,k0,bcb8 <SRAM_AP_BANK_FRONT_BASAL_ADDR+0xcb8>
     dbc:	52010000 	beql	s0,at,dc0 <SRAM_BT_EXT3_BANK_SIZE+0xc0>
     dc0:	0dda2a00 	jal	768a800 <BANK_SPACE+0x764a800>
     dc4:	10a90000 	beq	a1,t1,dc8 <SRAM_BT_EXT3_BANK_SIZE+0xc8>
     dc8:	d5870000 	ldc1	$f7,0(t4)
     dcc:	d593bfc3 	ldc1	$f19,-16445(t4)
     dd0:	bb2bbfc3 	swr	t3,-16445(t9)
     dd4:	01000010 	0x1000010
     dd8:	f32a0052 	0xf32a0052
     ddc:	c800000d 	lwc2	$0,13(zero)
     de0:	93000010 	lbu	zero,16(t8)
     de4:	9dbfc3d5 	0x9dbfc3d5
     de8:	2bbfc3d5 	slti	ra,sp,-15403
     dec:	000010da 	0x10da
     df0:	2a005201 	slti	zero,s0,20993
     df4:	00000e0c 	syscall	0x38
     df8:	000010a9 	0x10a9
     dfc:	bfc3d5a5 	cache	0x3,-10843(s8)
     e00:	bfc3d5b7 	cache	0x3,-10825(s8)
     e04:	0010bb2b 	0x10bb2b
     e08:	00530100 	0x530100
     e0c:	000e252a 	0xe252a
     e10:	0010c800 	sll	t9,s0,0x0
     e14:	c3d5b700 	ll	s5,-18688(s8)
     e18:	c3d5c7bf 	ll	s5,-14401(s8)
     e1c:	10da2bbf 	beq	a2,k0,bd1c <SRAM_AP_BANK_FRONT_BASAL_ADDR+0xd1c>
     e20:	53010000 	beql	t8,at,e24 <SRAM_ASRC_BUF_0_SIZE+0x24>
     e24:	0e3e2a00 	jal	8f8a800 <BANK_SPACE+0x8f4a800>
     e28:	10a90000 	beq	a1,t1,e2c <SRAM_ASRC_BUF_0_SIZE+0x2c>
     e2c:	d5d10000 	ldc1	$f17,0(t6)
     e30:	d5ddbfc3 	ldc1	$f29,-16445(t6)
     e34:	bb2bbfc3 	swr	t3,-16445(t9)
     e38:	01000010 	0x1000010
     e3c:	572a0052 	bnel	t9,t2,f88 <SRAM_ASRC_BUF_0_SIZE+0x188>
     e40:	c800000e 	lwc2	$0,14(zero)
     e44:	dd000010 	ldc3	$0,16(t0)
     e48:	e7bfc3d5 	swc1	$f31,-15403(sp)
     e4c:	2bbfc3d5 	slti	ra,sp,-15403
     e50:	000010da 	0x10da
     e54:	2a005201 	slti	zero,s0,20993
     e58:	00000e70 	tge	zero,zero,0x39
     e5c:	000010a9 	0x10a9
     e60:	bfc3d5ef 	cache	0x3,-10769(s8)
     e64:	bfc3d601 	cache	0x3,-10751(s8)
     e68:	0010bb2b 	0x10bb2b
     e6c:	00530100 	0x530100
     e70:	000e892a 	0xe892a
     e74:	0010c800 	sll	t9,s0,0x0
     e78:	c3d60100 	ll	s6,256(s8)
     e7c:	c3d611bf 	ll	s6,4543(s8)
     e80:	10da2bbf 	beq	a2,k0,bd80 <SRAM_AP_BANK_FRONT_BASAL_ADDR+0xd80>
     e84:	53010000 	beql	t8,at,e88 <SRAM_ASRC_BUF_0_SIZE+0x88>
     e88:	0ea22a00 	jal	a88a800 <BANK_SPACE+0xa84a800>
     e8c:	10a90000 	beq	a1,t1,e90 <SRAM_ASRC_BUF_0_SIZE+0x90>
     e90:	d6190000 	ldc1	$f25,0(s0)
     e94:	d62bbfc3 	ldc1	$f11,-16445(s1)
     e98:	bb2bbfc3 	swr	t3,-16445(t9)
     e9c:	01000010 	0x1000010
     ea0:	bb2a0053 	swr	t2,83(t9)
     ea4:	c800000e 	lwc2	$0,14(zero)
     ea8:	2b000010 	slti	zero,t8,16
     eac:	3bbfc3d6 	xori	ra,sp,0xc3d6
     eb0:	2bbfc3d6 	slti	ra,sp,-15402
     eb4:	000010da 	0x10da
     eb8:	2a005301 	slti	zero,s0,21249
     ebc:	00000ed4 	0xed4
     ec0:	000010a9 	0x10a9
     ec4:	bfc3d643 	cache	0x3,-10685(s8)
     ec8:	bfc3d655 	cache	0x3,-10667(s8)
     ecc:	0010bb2b 	0x10bb2b
     ed0:	00530100 	0x530100
     ed4:	000eed2a 	0xeed2a
     ed8:	0010c800 	sll	t9,s0,0x0
     edc:	c3d65500 	ll	s6,21760(s8)
     ee0:	c3d665bf 	ll	s6,26047(s8)
     ee4:	10da2bbf 	beq	a2,k0,bde4 <SRAM_AP_BANK_FRONT_BASAL_ADDR+0xde4>
     ee8:	53010000 	beql	t8,at,eec <SRAM_ASRC_BUF_0_SIZE+0xec>
     eec:	0f062a00 	jal	c18a800 <BANK_SPACE+0xc14a800>
     ef0:	10a90000 	beq	a1,t1,ef4 <SRAM_ASRC_BUF_0_SIZE+0xf4>
     ef4:	d66d0000 	ldc1	$f13,0(s3)
     ef8:	d67fbfc3 	ldc1	$f31,-16445(s3)
     efc:	bb2bbfc3 	swr	t3,-16445(t9)
     f00:	01000010 	0x1000010
     f04:	1f2a0053 	0x1f2a0053
     f08:	c800000f 	lwc2	$0,15(zero)
     f0c:	7f000010 	addu.qb	zero,t8,zero
     f10:	8fbfc3d6 	lw	ra,-15402(sp)
     f14:	2bbfc3d6 	slti	ra,sp,-15402
     f18:	000010da 	0x10da
     f1c:	2a005301 	slti	zero,s0,21249
     f20:	00000f38 	0xf38
     f24:	000010a9 	0x10a9
     f28:	bfc3d697 	cache	0x3,-10601(s8)
     f2c:	bfc3d6a9 	cache	0x3,-10583(s8)
     f30:	0010bb2b 	0x10bb2b
     f34:	00530100 	0x530100
     f38:	000f512a 	0xf512a
     f3c:	0010c800 	sll	t9,s0,0x0
     f40:	c3d6a900 	ll	s6,-22272(s8)
     f44:	c3d6b9bf 	ll	s6,-17985(s8)
     f48:	10da2bbf 	beq	a2,k0,be48 <SRAM_KEY_MESSAGE_DATA_ADDR+0x48>
     f4c:	53010000 	beql	t8,at,f50 <SRAM_ASRC_BUF_0_SIZE+0x150>
     f50:	0f6a2a00 	jal	da8a800 <BANK_SPACE+0xda4a800>
     f54:	10a90000 	beq	a1,t1,f58 <SRAM_ASRC_BUF_0_SIZE+0x158>
     f58:	d6c10000 	ldc1	$f1,0(s6)
     f5c:	d6d3bfc3 	ldc1	$f19,-16445(s6)
     f60:	bb2bbfc3 	swr	t3,-16445(t9)
     f64:	01000010 	0x1000010
     f68:	832a0053 	lb	t2,83(t9)
     f6c:	c800000f 	lwc2	$0,15(zero)
     f70:	d3000010 	0xd3000010
     f74:	e3bfc3d6 	sc	ra,-15402(sp)
     f78:	2bbfc3d6 	slti	ra,sp,-15402
     f7c:	000010da 	0x10da
     f80:	2a005301 	slti	zero,s0,21249
     f84:	00000f9c 	0xf9c
     f88:	000010a9 	0x10a9
     f8c:	bfc3d6eb 	cache	0x3,-10517(s8)
     f90:	bfc3d6fd 	cache	0x3,-10499(s8)
     f94:	0010bb2b 	0x10bb2b
     f98:	00530100 	0x530100
     f9c:	000fb52a 	0xfb52a
     fa0:	0010c800 	sll	t9,s0,0x0
     fa4:	c3d6fd00 	ll	s6,-768(s8)
     fa8:	c3d70dbf 	ll	s7,3519(s8)
     fac:	10da2bbf 	beq	a2,k0,beac <SRAM_KEY_MESSAGE_DATA_ADDR+0xac>
     fb0:	53010000 	beql	t8,at,fb4 <SRAM_ASRC_BUF_0_SIZE+0x1b4>
     fb4:	0fcc2a00 	jal	f30a800 <BANK_SPACE+0xf2ca800>
     fb8:	10a90000 	beq	a1,t1,fbc <SRAM_ASRC_BUF_0_SIZE+0x1bc>
     fbc:	d7170000 	ldc1	$f23,0(t8)
     fc0:	d71fbfc3 	ldc1	$f31,-16445(t8)
     fc4:	bb2cbfc3 	swr	t4,-16445(t9)
     fc8:	00000010 	mfhi	zero
     fcc:	000fe32a 	0xfe32a
     fd0:	0010c800 	sll	t9,s0,0x0
     fd4:	c3d71f00 	ll	s7,7936(s8)
     fd8:	c3d725bf 	ll	s7,9663(s8)
     fdc:	10da2cbf 	beq	a2,k0,c2dc <SROM_FS_ADDR+0x2dc>
     fe0:	2a000000 	slti	zero,s0,0
     fe4:	00000ffc 	0xffc
     fe8:	000010a9 	0x10a9
     fec:	bfc3d72d 	cache	0x3,-10451(s8)
     ff0:	bfc3d73f 	cache	0x3,-10433(s8)
     ff4:	0010bb2b 	0x10bb2b
     ff8:	00530100 	0x530100
     ffc:	0010152a 	0x10152a
    1000:	0010c800 	sll	t9,s0,0x0
    1004:	c3d73f00 	ll	s7,16128(s8)
    1008:	c3d74fbf 	ll	s7,20415(s8)
    100c:	10da2bbf 	beq	a2,k0,bf0c <SRAM_UI_DATA_ADDR+0xc>
    1010:	53010000 	beql	t8,at,1014 <SRAM_BTCALL_CALLRING_BUF_SIZE+0x14>
    1014:	102e2a00 	beq	at,t6,b818 <SRAM_AP_BANK_FRONT_BASAL_ADDR+0x818>
    1018:	10a90000 	beq	a1,t1,101c <SRAM_BTCALL_CALLRING_BUF_SIZE+0x1c>
    101c:	d7590000 	ldc1	$f25,0(k0)
    1020:	d765bfc3 	ldc1	$f5,-16445(k1)
    1024:	bb2bbfc3 	swr	t3,-16445(t9)
    1028:	01000010 	0x1000010
    102c:	472a0052 	c1	0x12a0052
    1030:	c8000010 	lwc2	$0,16(zero)
    1034:	65000010 	0x65000010
    1038:	6fbfc3d7 	0x6fbfc3d7
    103c:	2bbfc3d7 	slti	ra,sp,-15401
    1040:	000010da 	0x10da
    1044:	2a005201 	slti	zero,s0,20993
    1048:	00001060 	0x1060
    104c:	000010a9 	0x10a9
    1050:	bfc3d779 	cache	0x3,-10375(s8)
    1054:	bfc3d785 	cache	0x3,-10363(s8)
    1058:	0010bb2b 	0x10bb2b
    105c:	00520100 	0x520100
    1060:	0010792a 	0x10792a
    1064:	0010c800 	sll	t9,s0,0x0
    1068:	c3d78500 	ll	s7,-31488(s8)
    106c:	c3d78fbf 	ll	s7,-28737(s8)
    1070:	10da2bbf 	beq	a2,k0,bf70 <SRAM_UI_DATA_ADDR+0x70>
    1074:	52010000 	beql	s0,at,1078 <SRAM_BTCALL_CALLRING_BUF_SIZE+0x78>
    1078:	10922a00 	beq	a0,s2,b87c <SRAM_AP_BANK_FRONT_BASAL_ADDR+0x87c>
    107c:	10a90000 	beq	a1,t1,1080 <SRAM_BTCALL_CALLRING_BUF_SIZE+0x80>
    1080:	d7990000 	ldc1	$f25,0(gp)
    1084:	d7a5bfc3 	ldc1	$f5,-16445(sp)
    1088:	bb2bbfc3 	swr	t3,-16445(t9)
    108c:	01000010 	0x1000010
    1090:	c82d0052 	lwc2	$13,82(at)
    1094:	a5000010 	sh	zero,16(t0)
    1098:	afbfc3d7 	sw	ra,-15401(sp)
    109c:	2bbfc3d7 	slti	ra,sp,-15401
    10a0:	000010da 	0x10da
    10a4:	00005201 	0x5201
    10a8:	10c82e00 	beq	a2,t0,c8ac <SROM_FS_ADDR+0x8ac>
    10ac:	04940000 	0x4940000
    10b0:	55010000 	bnel	t0,at,10b4 <SRAM_BTCALL_CALLRING_BUF_SIZE+0xb4>
    10b4:	00360103 	0x360103
    10b8:	2f010000 	sltiu	at,t8,0
    10bc:	00727470 	tge	v1,s2,0x1d1
    10c0:	7d035401 	0x7d035401
    10c4:	00000002 	srl	zero,zero,0x0
    10c8:	0010e72e 	0x10e72e
    10cc:	00028500 	sll	s0,v0,0x14
    10d0:	035a0100 	0x35a0100
    10d4:	00003601 	0x3601
    10d8:	702f0100 	0x702f0100
    10dc:	01007274 	teq	t0,zero,0x1c9
    10e0:	027d0359 	0x27d0359
    10e4:	28000000 	slti	zero,zero,0
    10e8:	00001148 	0x1148
    10ec:	0000004a 	0x4a
    10f0:	0103ee01 	0x103ee01
    10f4:	0000006e 	0x6e
    10f8:	bfc3d7cd 	cache	0x3,-10291(s8)
    10fc:	bfc3d7d0 	cache	0x3,-10288(s8)
    1100:	331e6d01 	andi	s8,t8,0x6d01
    1104:	01000003 	0x1000003
    1108:	006e03eb 	0x6e03eb
    110c:	54010000 	bnel	zero,at,1110 <SRAM_BTCALL_CALLRING_BUF_SIZE+0x110>
    1110:	6d637021 	0x6d637021
    1114:	03ec0100 	0x3ec0100
    1118:	0000027d 	0x27d
    111c:	58215501 	0x58215501
    1120:	03ec0100 	0x3ec0100
    1124:	00000288 	0x288
    1128:	ec1e5601 	swc3	$30,22017(zero)
    112c:	01000003 	0x1000003
    1130:	006e03ed 	0x6e03ed
    1134:	57010000 	bnel	t8,at,1138 <SRAM_BTCALL_CALLRING_BUF_SIZE+0x138>
    1138:	0005281e 	0x5281e
    113c:	03ed0100 	0x3ed0100
    1140:	0000006e 	0x6e
    1144:	00109102 	srl	s2,s0,0x4
    1148:	0011a928 	0x11a928
    114c:	0003f500 	sll	s8,v1,0x14
    1150:	03fe0100 	0x3fe0100
    1154:	00006e01 	0x6e01
    1158:	c3d7d100 	ll	s7,-12032(s8)
    115c:	c3d7d4bf 	ll	s7,-11073(s8)
    1160:	1e6d01bf 	0x1e6d01bf
    1164:	00000333 	tltu	zero,zero,0xc
    1168:	6e03fb01 	0x6e03fb01
    116c:	01000000 	0x1000000
    1170:	63702154 	0x63702154
    1174:	fc01006d 	sdc3	$1,109(zero)
    1178:	00027d03 	sra	t7,v0,0x14
    117c:	21550100 	addi	s5,t2,256
    1180:	fc010058 	sdc3	$1,88(zero)
    1184:	00028803 	sra	s1,v0,0x0
    1188:	1e560100 	0x1e560100
    118c:	000003ec 	0x3ec
    1190:	6e03fd01 	0x6e03fd01
    1194:	01000000 	0x1000000
    1198:	05281e57 	tgei	t1,7767
    119c:	fd010000 	sdc3	$1,0(t0)
    11a0:	00006e03 	sra	t5,zero,0x18
    11a4:	10910200 	beq	a0,s1,19a8 <SRAM_BTCALL_CALLRING_BUF_SIZE+0x9a8>
    11a8:	12092800 	beq	s0,t1,b1ac <SRAM_AP_BANK_FRONT_BASAL_ADDR+0x1ac>
    11ac:	02690000 	0x2690000
    11b0:	0e010000 	jal	8040000 <BANK_SPACE+0x8000000>
    11b4:	006e0104 	0x6e0104
    11b8:	d7d50000 	ldc1	$f21,0(s8)
    11bc:	d7f4bfc3 	ldc1	$f20,-16445(ra)
    11c0:	6d01bfc3 	0x6d01bfc3
    11c4:	0003331e 	0x3331e
    11c8:	040b0100 	tltiu	zero,256
    11cc:	0000006e 	0x6e
    11d0:	70215401 	0x70215401
    11d4:	01006d63 	0x1006d63
    11d8:	027d040c 	syscall	0x9f410
    11dc:	55010000 	bnel	t0,at,11e0 <SRAM_BTCALL_CALLRING_BUF_SIZE+0x1e0>
    11e0:	01005821 	move	t3,t0
    11e4:	0288040c 	syscall	0xa2010
    11e8:	56010000 	bnel	s0,at,11ec <SRAM_BTCALL_CALLRING_BUF_SIZE+0x1ec>
    11ec:	0003ec1e 	0x3ec1e
    11f0:	040d0100 	0x40d0100
    11f4:	0000006e 	0x6e
    11f8:	281e5701 	slti	s8,zero,22273
    11fc:	01000005 	0x1000005
    1200:	006e040d 	break	0x6e,0x10
    1204:	52010000 	beql	s0,at,1208 <SRAM_BTCALL_CALLRING_BUF_SIZE+0x208>
    1208:	126a2800 	beq	s3,t2,b20c <SRAM_AP_BANK_FRONT_BASAL_ADDR+0x20c>
    120c:	01d90000 	0x1d90000
    1210:	1e010000 	0x1e010000
    1214:	006e0104 	0x6e0104
    1218:	d7f50000 	ldc1	$f21,0(ra)
    121c:	d7f8bfc3 	ldc1	$f24,-16445(ra)
    1220:	6d01bfc3 	0x6d01bfc3
    1224:	0003331e 	0x3331e
    1228:	041b0100 	0x41b0100
    122c:	0000006e 	0x6e
    1230:	70215401 	0x70215401
    1234:	01006d63 	0x1006d63
    1238:	027d041c 	0x27d041c
    123c:	55010000 	bnel	t0,at,1240 <SRAM_BTCALL_CALLRING_BUF_SIZE+0x240>
    1240:	01005821 	move	t3,t0
    1244:	0288041c 	0x288041c
    1248:	56010000 	bnel	s0,at,124c <SRAM_BTCALL_CALLRING_BUF_SIZE+0x24c>
    124c:	0003ec1e 	0x3ec1e
    1250:	041d0100 	0x41d0100
    1254:	0000006e 	0x6e
    1258:	281e5701 	slti	s8,zero,22273
    125c:	01000005 	0x1000005
    1260:	006e041d 	0x6e041d
    1264:	91020000 	lbu	v0,0(t0)
    1268:	c9270010 	lwc2	$7,16(t1)
    126c:	d6000012 	ldc1	$f0,18(s0)
    1270:	01000003 	0x1000003
    1274:	f9010431 	sdc2	$1,1073(t0)
    1278:	fabfc3d7 	sdc2	$31,-15401(s5)
    127c:	01bfc3d7 	0x1bfc3d7
    1280:	04cf1e6d 	0x4cf1e6d
    1284:	2e010000 	sltiu	at,s0,0
    1288:	0002c504 	0x2c504
    128c:	1e540100 	0x1e540100
    1290:	00000220 	0x220
    1294:	e1042f01 	sc	a0,12033(t0)
    1298:	01000002 	0x1000002
    129c:	048d1e55 	0x48d1e55
    12a0:	30010000 	andi	at,zero,0x0
    12a4:	00006e04 	0x6e04
    12a8:	1e560100 	0x1e560100
    12ac:	000007cc 	syscall	0x1f
    12b0:	6e043001 	0x6e043001
    12b4:	01000000 	0x1000000
    12b8:	06ec1e57 	teqi	s7,7767
    12bc:	30010000 	andi	at,zero,0x0
    12c0:	00006e04 	0x6e04
    12c4:	10910200 	beq	a0,s1,1ac8 <SRAM_BTCALL_CALLRING_BUF_SIZE+0xac8>
    12c8:	13a01f00 	beqz	sp,8ecc <SRAM_SPINOR_RCODE_ADDR+0x2cc>
    12cc:	f8010000 	sdc2	$1,0(zero)
    12d0:	01000000 	0x1000000
    12d4:	6e010447 	0x6e010447
    12d8:	8d000000 	lw	zero,0(t0)
    12dc:	24bfc3fb 	addiu	ra,a1,-15365
    12e0:	01bfc3fd 	0x1bfc3fd
    12e4:	04cf1e6d 	0x4cf1e6d
    12e8:	44010000 	mfc1	at,$f0
    12ec:	0002c504 	0x2c504
    12f0:	c0910300 	ll	s1,768(a0)
    12f4:	02201e01 	0x2201e01
    12f8:	45010000 	bc1t	12fc <SRAM_BTCALL_CALLRING_BUF_SIZE+0x2fc>
    12fc:	0002e104 	0x2e104
    1300:	c4910300 	lwc1	$f17,768(a0)
    1304:	048d1e01 	0x48d1e01
    1308:	46010000 	add.s	$f0,$f0,$f1
    130c:	00006e04 	0x6e04
    1310:	c8910300 	lwc2	$17,768(a0)
    1314:	06ec1e01 	teqi	s7,7681
    1318:	46010000 	add.s	$f0,$f0,$f1
    131c:	00006e04 	0x6e04
    1320:	cc910300 	pref	0x11,768(a0)
    1324:	6c622001 	0x6c622001
    1328:	4801006b 	0x4801006b
    132c:	00006e04 	0x6e04
    1330:	22560100 	addi	s6,s2,256
    1334:	00000000 	nop
    1338:	6e044801 	0x6e044801
    133c:	03000000 	0x3000000
    1340:	22019091 	addi	at,s0,-28527
    1344:	0000036e 	0x36e
    1348:	bc044c01 	cache	0x4,19457(zero)
    134c:	01000000 	0x1000000
    1350:	03732252 	0x3732252
    1354:	4c010000 	lwxc1	$f0,at(zero)
    1358:	0000bc04 	0xbc04
    135c:	20530100 	addi	s3,v0,256
    1360:	4d010078 	nmsub.s	$f1,$f8,$f0,$f1
    1364:	00009b04 	0x9b04
    1368:	20540100 	addi	s4,v0,256
    136c:	4d010079 	nmsub.d	$f1,$f8,$f0,$f1
    1370:	00009b04 	0x9b04
    1374:	20570100 	addi	s7,v0,256
    1378:	01006273 	tltu	t0,zero,0x189
    137c:	006e0450 	0x6e0450
    1380:	91030000 	lbu	v1,0(t0)
    1384:	ff250194 	sdc3	$5,404(t9)
    1388:	09bfc3fb 	j	6ff0fec <BANK_SPACE+0x6fb0fec>
    138c:	22bfc3fd 	addi	ra,s5,-15363
    1390:	00000574 	teq	zero,zero,0x15
    1394:	a0046001 	sb	a0,24577(zero)
    1398:	02000013 	mtlo	s0
    139c:	00001091 	0x1091
    13a0:	0013b60b 	0x13b60b
    13a4:	0000bc00 	sll	s7,zero,0x10
    13a8:	007c0c00 	0x7c0c00
    13ac:	0c0f0000 	jal	3c0000 <BANK_SPACE+0x380000>
    13b0:	0000007c 	0x7c
    13b4:	cc0b0001 	pref	0xb,1(zero)
    13b8:	cc000013 	pref	0x0,19(zero)
    13bc:	0c000013 	jal	4c <AP_BANK_FRONT_UI_1+0x4>
    13c0:	0000007c 	0x7c
    13c4:	007c0c03 	0x7c0c03
    13c8:	00030000 	sll	zero,v1,0x0
    13cc:	00006e12 	0x6e12
    13d0:	04253000 	0x4253000
    13d4:	1e050000 	0x1e050000
    13d8:	000013dc 	0x13dc
    13dc:	0013b612 	0x13b612
    13e0:	13f70b00 	beq	ra,s7,3fe4 <SROM_STUB_ADDR_MDY+0x4e4>
    13e4:	13cc0000 	beq	s8,t4,13e8 <SRAM_BTCALL_CALLRING_BUF_SIZE+0x3e8>
    13e8:	7c0c0000 	ext	t4,zero,0x0,0x1
    13ec:	03000000 	0x3000000
    13f0:	00007c0c 	syscall	0x1f0
    13f4:	30000700 	andi	zero,zero,0x700
    13f8:	00000207 	0x207
    13fc:	14022605 	bne	zero,v0,ac14 <SRAM_BT_EXT1_BANK_ADDR+0x414>
    1400:	e1120000 	sc	s2,0(t0)
    1404:	0b000013 	j	c00004c <BANK_SPACE+0xbfc004c>
    1408:	00001417 	0x1417
    140c:	00001417 	0x1417
    1410:	00007c0c 	syscall	0x1f0
    1414:	12001300 	beqz	s0,6018 <SRAM_AP_BANK_BACK_AL_1_SIZE+0x2018>
    1418:	000000bc 	0xbc
    141c:	0003c530 	tge	zero,v1,0x314
    1420:	27350500 	addiu	s5,t9,1280
    1424:	12000014 	beqz	s0,1478 <SRAM_BTCALL_CALLRING_BUF_SIZE+0x478>
    1428:	00001407 	0x1407
    142c:	00143c0b 	0x143c0b
    1430:	00141700 	sll	v0,s4,0x1c
    1434:	007c0c00 	0x7c0c00
    1438:	00130000 	sll	zero,s3,0x0
    143c:	0004a330 	tge	zero,a0,0x28c
    1440:	473d0500 	c1	0x13d0500
    1444:	12000014 	beqz	s0,1498 <SRAM_BTCALL_CALLRING_BUF_SIZE+0x498>
    1448:	0000142c 	0x142c
    144c:	00145c0b 	0x145c0b
    1450:	00141700 	sll	v0,s4,0x1c
    1454:	007c0c00 	0x7c0c00
    1458:	00270000 	0x270000
    145c:	00037830 	tge	zero,v1,0x1e0
    1460:	67450500 	0x67450500
    1464:	12000014 	beqz	s0,14b8 <SRAM_BTCALL_CALLRING_BUF_SIZE+0x4b8>
    1468:	0000144c 	syscall	0x51
    146c:	00147c0b 	0x147c0b
    1470:	00141700 	sll	v0,s4,0x1c
    1474:	007c0c00 	0x7c0c00
    1478:	00270000 	0x270000
    147c:	0001b130 	tge	zero,at,0x2c4
    1480:	87520500 	lh	s2,1280(k0)
    1484:	12000014 	beqz	s0,14d8 <SRAM_BTCALL_CALLRING_BUF_SIZE+0x4d8>
    1488:	0000146c 	0x146c
    148c:	0014a20b 	0x14a20b
    1490:	00141700 	sll	v0,s4,0x1c
    1494:	007c0c00 	0x7c0c00
    1498:	0c070000 	jal	1c0000 <BANK_SPACE+0x180000>
    149c:	0000007c 	0x7c
    14a0:	0c300003 	jal	c0000c <BANK_SPACE+0xbc000c>
    14a4:	05000000 	bltz	t0,14a8 <SRAM_BTCALL_CALLRING_BUF_SIZE+0x4a8>
    14a8:	0014ad5f 	0x14ad5f
    14ac:	148c1200 	bne	a0,t4,5cb0 <SRAM_AP_BANK_BACK_AL_1_SIZE+0x1cb0>
    14b0:	c80b0000 	lwc2	$11,0(zero)
    14b4:	17000014 	bnez	t8,1508 <SRAM_BTCALL_CALLRING_BUF_SIZE+0x508>
    14b8:	0c000014 	jal	50 <AP_BANK_FRONT_BASAL>
    14bc:	0000007c 	0x7c
    14c0:	007c0c0f 	0x7c0c0f
    14c4:	00070000 	sll	zero,a3,0x0
    14c8:	00008f30 	tge	zero,zero,0x23c
    14cc:	d36a0500 	0xd36a0500
    14d0:	12000014 	beqz	s0,1524 <SRAM_BTCALL_CALLRING_BUF_SIZE+0x524>
    14d4:	000014b2 	tlt	zero,zero,0x52
    14d8:	0014e80b 	movn	sp,zero,s4
    14dc:	00093500 	sll	a2,t1,0x14
    14e0:	007c0c00 	0x7c0c00
    14e4:	00270000 	0x270000
    14e8:	00047b30 	tge	zero,a0,0x1ec
    14ec:	f3b70500 	0xf3b70500
    14f0:	12000014 	beqz	s0,1544 <SRAM_BTCALL_CALLRING_BUF_SIZE+0x544>
    14f4:	000014d8 	0x14d8
    14f8:	0015080b 	movn	at,zero,s5
    14fc:	00093500 	sll	a2,t1,0x14
    1500:	007c0c00 	0x7c0c00
    1504:	001f0000 	sll	zero,ra,0x0
    1508:	00012f30 	tge	zero,at,0xbc
    150c:	13e90500 	beq	ra,t1,2910 <SRAM_BT_BACK_RCODE_SIZE+0x10>
    1510:	12000015 	beqz	s0,1568 <SRAM_BTCALL_CALLRING_BUF_SIZE+0x568>
    1514:	000014f8 	0x14f8
    1518:	0015280b 	movn	a1,zero,s5
    151c:	00093500 	sll	a2,t1,0x14
    1520:	007c0c00 	0x7c0c00
    1524:	004f0000 	0x4f0000
    1528:	00029423 	0x29423
    152c:	01050500 	0x1050500
    1530:	00001534 	teq	zero,zero,0x54
    1534:	00151812 	0x151812
    1538:	15490b00 	bne	t2,t1,413c <SRAM_AP_BANK_BACK_AL_1_SIZE+0x13c>
    153c:	09350000 	j	4d40000 <BANK_SPACE+0x4d00000>
    1540:	7c0c0000 	ext	t4,zero,0x0,0x1
    1544:	7f000000 	ext	zero,t8,0x0,0x1
    1548:	04db2300 	0x4db2300
    154c:	4a050000 	c2	0x50000
    1550:	00155501 	0x155501
    1554:	15391200 	bne	t1,t9,5d58 <SRAM_AP_BANK_BACK_AL_1_SIZE+0x1d58>
    1558:	6a0b0000 	0x6a0b0000
    155c:	35000015 	ori	zero,t0,0x15
    1560:	0c000009 	jal	24 <SRAM_CARD_GLOBAL_DATA_SIZE+0x14>
    1564:	0000007c 	0x7c
    1568:	d7230037 	ldc1	$f3,55(t9)
    156c:	05000000 	bltz	t0,1570 <SRAM_BTCALL_CALLRING_BUF_SIZE+0x570>
    1570:	1576018e 	bne	t3,s6,1bac <SRAM_BTCALL_CALLRING_BUF_SIZE+0xbac>
    1574:	5a120000 	0x5a120000
    1578:	23000015 	addi	zero,t8,21
    157c:	0000016b 	0x16b
    1580:	8701bb05 	lh	at,-17659(t8)
    1584:	12000015 	beqz	s0,15dc <SRAM_BTCALL_CALLRING_BUF_SIZE+0x5dc>
    1588:	0000155a 	0x155a
    158c:	00159c0b 	0x159c0b
    1590:	00093500 	sll	a2,t1,0x14
    1594:	007c0c00 	0x7c0c00
    1598:	008f0000 	0x8f0000
    159c:	00034d22 	0x34d22
    15a0:	01e80500 	0x1e80500
    15a4:	000015ae 	0x15ae
    15a8:	fc000305 	sdc3	$0,773(zero)
    15ac:	8c12bfc0 	lw	s2,-16448(zero)
    15b0:	22000015 	addi	zero,s0,21
    15b4:	00000455 	0x455
    15b8:	c5024905 	lwc1	$f2,18693(t0)
    15bc:	05000015 	bltz	t0,1614 <SRAM_BTCALL_CALLRING_BUF_SIZE+0x614>
    15c0:	c0fd2003 	ll	sp,8195(a3)
    15c4:	158c12bf 	bne	t4,t4,60c4 <SRAM_AP_BANK_BACK_AL_1_SIZE+0x20c4>
    15c8:	da0b0000 	ldc2	$11,0(s0)
    15cc:	83000015 	lb	zero,21(t8)
    15d0:	0c000002 	jal	8 <DRV_GROUP_KEY>
    15d4:	0000007c 	0x7c
    15d8:	111a00ff 	beq	t0,k0,19d8 <SRAM_BTCALL_CALLRING_BUF_SIZE+0x9d8>
    15dc:	01000004 	sllv	zero,zero,t0
    15e0:	0015eb2e 	0x15eb2e
    15e4:	40030500 	0x40030500
    15e8:	12bfc0fe 	beq	s5,ra,ffff19e4 <blk_op+0x403b1c8c>
    15ec:	000015ca 	0x15ca
    15f0:	0002db00 	sll	k1,v0,0xc
    15f4:	73000200 	0x73000200
    15f8:	04000002 	bltz	zero,1604 <SRAM_BTCALL_CALLRING_BUF_SIZE+0x604>
    15fc:	0004a501 	0x4a501
    1600:	c3fd3400 	ll	sp,13312(ra)
    1604:	c3fd24bf 	ll	sp,9407(ra)
    1608:	000580bf 	0x580bf
    160c:	05ad0100 	0x5ad0100
    1610:	02d30000 	0x2d30000
    1614:	41020000 	mftc0	zero,c0_entrylo0
    1618:	01000001 	movf	zero,t0,$fcc0
    161c:	01430208 	0x1430208
    1620:	06010000 	bgez	s0,1624 <SRAM_BTCALL_CALLRING_BUF_SIZE+0x624>
    1624:	00050c02 	srl	at,a1,0x10
    1628:	02070200 	0x2070200
    162c:	0000044b 	0x44b
    1630:	9b020502 	lwr	v0,1282(t8)
    1634:	04000003 	bltz	zero,1644 <SRAM_BTCALL_CALLRING_BUF_SIZE+0x644>
    1638:	03110207 	0x3110207
    163c:	05040000 	0x5040000
    1640:	00054e02 	srl	t1,a1,0x18
    1644:	02040400 	0x2040400
    1648:	00000200 	sll	zero,zero,0x8
    164c:	96020408 	lhu	v0,1032(s0)
    1650:	08000003 	j	c <DRV_GROUP_BT>
    1654:	030c0207 	0x30c0207
    1658:	05080000 	tgei	t0,0
    165c:	0003a002 	srl	s4,v1,0x0
    1660:	03070400 	0x3070400
    1664:	00746e69 	0x746e69
    1668:	4a020504 	c2	0x20504
    166c:	01000001 	movf	zero,t0,$fcc0
    1670:	039b0206 	0x39b0206
    1674:	07040000 	0x7040000
    1678:	00051f04 	0x51f04
    167c:	6b1a0200 	0x6b1a0200
    1680:	04000000 	bltz	zero,1684 <SRAM_BTCALL_CALLRING_BUF_SIZE+0x684>
    1684:	00000520 	0x520
    1688:	00721d02 	0x721d02
    168c:	d1050000 	0xd1050000
    1690:	01000000 	0x1000000
    1694:	000005a5 	0x5a5
    1698:	72010901 	0x72010901
    169c:	25000000 	addiu	zero,t0,0
    16a0:	34bfc3fd 	ori	ra,a1,0xc3fd
    16a4:	01bfc3fd 	0x1bfc3fd
    16a8:	0078066d 	0x78066d
    16ac:	00870801 	0x870801
    16b0:	54010000 	bnel	zero,at,16b4 <SRAM_BTCALL_CALLRING_BUF_SIZE+0x6b4>
    16b4:	746e6307 	jalx	1b98c1c <BANK_SPACE+0x1b58c1c>
    16b8:	720f0100 	0x720f0100
    16bc:	01000000 	0x1000000
    16c0:	e7080053 	swc1	$f8,83(t8)
    16c4:	e7000000 	swc1	$f0,0(t8)
    16c8:	09000000 	j	4000000 <BANK_SPACE+0x3fc0000>
    16cc:	00000080 	sll	zero,zero,0x2
    16d0:	00800903 	0x800903
    16d4:	00030000 	sll	zero,v1,0x0
    16d8:	0000720a 	0x720a
    16dc:	04250b00 	0x4250b00
    16e0:	1e030000 	0x1e030000
    16e4:	000000f7 	0xf7
    16e8:	0000d10a 	0xd10a
    16ec:	01120800 	0x1120800
    16f0:	00e70000 	0xe70000
    16f4:	80090000 	lb	t1,0(zero)
    16f8:	03000000 	0x3000000
    16fc:	00008009 	jalr	s0,zero
    1700:	0b000700 	j	c001c00 <BANK_SPACE+0xbfc1c00>
    1704:	00000207 	0x207
    1708:	011d2603 	0x11d2603
    170c:	fc0a0000 	sdc3	$10,0(zero)
    1710:	08000000 	j	0 <DRV_GROUP_STG_BASE>
    1714:	00000132 	tlt	zero,zero,0x4
    1718:	00000132 	tlt	zero,zero,0x4
    171c:	00008009 	jalr	s0,zero
    1720:	0a001300 	j	8004c00 <BANK_SPACE+0x7fc4c00>
    1724:	00000092 	0x92
    1728:	0003c50b 	0x3c50b
    172c:	42350300 	c0	0x350300
    1730:	0a000001 	j	8000004 <BANK_SPACE+0x7fc0004>
    1734:	00000122 	0x122
    1738:	00015708 	0x15708
    173c:	00013200 	sll	a2,at,0x8
    1740:	00800900 	0x800900
    1744:	00130000 	sll	zero,s3,0x0
    1748:	0004a30b 	0x4a30b
    174c:	623d0300 	0x623d0300
    1750:	0a000001 	j	8000004 <BANK_SPACE+0x7fc0004>
    1754:	00000147 	0x147
    1758:	00017708 	0x17708
    175c:	00013200 	sll	a2,at,0x8
    1760:	00800900 	0x800900
    1764:	00270000 	0x270000
    1768:	0003780b 	movn	t7,zero,v1
    176c:	82450300 	lb	a1,768(s2)
    1770:	0a000001 	j	8000004 <BANK_SPACE+0x7fc0004>
    1774:	00000167 	0x167
    1778:	00019708 	0x19708
    177c:	00013200 	sll	a2,at,0x8
    1780:	00800900 	0x800900
    1784:	00270000 	0x270000
    1788:	0001b10b 	0x1b10b
    178c:	a2520300 	sb	s2,768(s2)
    1790:	0a000001 	j	8000004 <BANK_SPACE+0x7fc0004>
    1794:	00000187 	0x187
    1798:	0001bd08 	0x1bd08
    179c:	00013200 	sll	a2,at,0x8
    17a0:	00800900 	0x800900
    17a4:	09070000 	j	41c0000 <BANK_SPACE+0x4180000>
    17a8:	00000080 	sll	zero,zero,0x2
    17ac:	0c0b0003 	jal	2c000c <BANK_SPACE+0x28000c>
    17b0:	03000000 	0x3000000
    17b4:	0001c85f 	0x1c85f
    17b8:	01a70a00 	0x1a70a00
    17bc:	e3080000 	sc	t0,0(t8)
    17c0:	32000001 	andi	zero,s0,0x1
    17c4:	09000001 	j	4000004 <BANK_SPACE+0x3fc0004>
    17c8:	00000080 	sll	zero,zero,0x2
    17cc:	0080090f 	0x80090f
    17d0:	00070000 	sll	zero,a3,0x0
    17d4:	00008f0b 	0x8f0b
    17d8:	ee6a0300 	swc3	$10,768(s3)
    17dc:	0a000001 	j	8000004 <BANK_SPACE+0x7fc0004>
    17e0:	000001cd 	break	0x0,0x7
    17e4:	00020308 	0x20308
    17e8:	00020300 	sll	zero,v0,0xc
    17ec:	00800900 	0x800900
    17f0:	00270000 	0x270000
    17f4:	00003a0a 	0x3a0a
    17f8:	047b0b00 	0x47b0b00
    17fc:	b7030000 	0xb7030000
    1800:	00000213 	0x213
    1804:	0001f30a 	0x1f30a
    1808:	02280800 	0x2280800
    180c:	02030000 	0x2030000
    1810:	80090000 	lb	t1,0(zero)
    1814:	1f000000 	bgtz	t8,1818 <SRAM_BTCALL_CALLRING_BUF_SIZE+0x818>
    1818:	012f0b00 	0x12f0b00
    181c:	e9030000 	swc2	$3,0(t0)
    1820:	00000233 	tltu	zero,zero,0x8
    1824:	0002180a 	movz	v1,zero,v0
    1828:	02480800 	0x2480800
    182c:	02030000 	0x2030000
    1830:	80090000 	lb	t1,0(zero)
    1834:	4f000000 	lwxc1	$f0,zero(t8)
    1838:	02940c00 	0x2940c00
    183c:	05030000 	bgezl	t0,1840 <SRAM_BTCALL_CALLRING_BUF_SIZE+0x840>
    1840:	00025401 	0x25401
    1844:	02380a00 	0x2380a00
    1848:	69080000 	0x69080000
    184c:	03000002 	0x3000002
    1850:	09000002 	j	4000008 <BANK_SPACE+0x3fc0008>
    1854:	00000080 	sll	zero,zero,0x2
    1858:	db0c007f 	ldc2	$12,127(t8)
    185c:	03000004 	sllv	zero,zero,t8
    1860:	0275014a 	0x275014a
    1864:	590a0000 	0x590a0000
    1868:	08000002 	j	8 <DRV_GROUP_KEY>
    186c:	0000028a 	0x28a
    1870:	00000203 	sra	zero,zero,0x8
    1874:	00008009 	jalr	s0,zero
    1878:	0c003700 	jal	dc00 <SROM_SPINOR1_ADDR>
    187c:	000000d7 	0xd7
    1880:	96018e03 	lhu	at,-29181(s0)
    1884:	0a000002 	j	8000008 <BANK_SPACE+0x7fc0008>
    1888:	0000027a 	0x27a
    188c:	00016b0c 	syscall	0x5ac
    1890:	01bb0300 	0x1bb0300
    1894:	000002a7 	0x2a7
    1898:	00027a0a 	0x27a0a
    189c:	02bc0800 	0x2bc0800
    18a0:	02030000 	0x2030000
    18a4:	80090000 	lb	t1,0(zero)
    18a8:	8f000000 	lw	zero,0(t8)
    18ac:	034d0c00 	0x34d0c00
    18b0:	e8030000 	swc2	$3,0(zero)
    18b4:	0002c801 	0x2c801
    18b8:	02ac0a00 	0x2ac0a00
    18bc:	550c0000 	bnel	t0,t4,18c0 <SRAM_BTCALL_CALLRING_BUF_SIZE+0x8c0>
    18c0:	03000004 	sllv	zero,zero,t8
    18c4:	02d90249 	0x2d90249
    18c8:	ac0a0000 	sw	t2,0(zero)
    18cc:	00000002 	srl	zero,zero,0x0
    18d0:	000003ea 	0x3ea
    18d4:	03140002 	0x3140002
    18d8:	01040000 	0x1040000
    18dc:	000004fb 	0x4fb
    18e0:	120090b0 	beqz	s0,fffe5ba4 <blk_op+0x403a5e4c>
    18e4:	12009000 	beqz	s0,fffe58e8 <blk_op+0x403a5b90>
    18e8:	00000580 	sll	zero,zero,0x16
    18ec:	0005b601 	0x5b601
    18f0:	0002d300 	sll	k0,v0,0xc
    18f4:	01410200 	0x1410200
    18f8:	08010000 	j	40000 <BANK_SPACE>
    18fc:	00014302 	srl	t0,at,0xc
    1900:	02060100 	0x2060100
    1904:	0000050c 	syscall	0x14
    1908:	4b020702 	c2	0x1020702
    190c:	02000004 	sllv	zero,zero,s0
    1910:	039b0205 	0x39b0205
    1914:	07040000 	0x7040000
    1918:	00031102 	srl	v0,v1,0x4
    191c:	02050400 	0x2050400
    1920:	0000054e 	0x54e
    1924:	00020404 	0x20404
    1928:	08000002 	j	8 <DRV_GROUP_KEY>
    192c:	03960204 	0x3960204
    1930:	07080000 	tgei	t8,0
    1934:	00030c02 	srl	at,v1,0x10
    1938:	02050800 	0x2050800
    193c:	000003a0 	0x3a0
    1940:	69030704 	0x69030704
    1944:	0400746e 	bltz	zero,1eb00 <SRAM_AP_FRONT_RCODE_ADDR+0x200>
    1948:	014a0205 	0x14a0205
    194c:	06010000 	bgez	s0,1950 <SRAM_BTCALL_CALLRING_BUF_SIZE+0x950>
    1950:	00039b02 	srl	s3,v1,0xc
    1954:	04070400 	0x4070400
    1958:	03ad0504 	0x3ad0504
    195c:	1c030000 	0x1c030000
    1960:	00000025 	move	zero,zero
    1964:	00052005 	0x52005
    1968:	721d0300 	0x721d0300
    196c:	06000000 	bltz	s0,1970 <SRAM_BTCALL_CALLRING_BUF_SIZE+0x970>
    1970:	00000138 	0x138
    1974:	000000b9 	0xb9
    1978:	07450214 	0x7450214
    197c:	000001c2 	srl	zero,zero,0x7
    1980:	00414602 	0x414602
    1984:	23020000 	addi	v0,t8,0
    1988:	041b0700 	0x41b0700
    198c:	48020000 	mfc2	v0,$0
    1990:	00000089 	0x89
    1994:	07042302 	0x7042302
    1998:	0000048d 	break	0x0,0x12
    199c:	00894902 	0x894902
    19a0:	23020000 	addi	v0,t8,0
    19a4:	06ec0705 	teqi	s7,1797
    19a8:	4a020000 	c2	0x20000
    19ac:	00000089 	0x89
    19b0:	07062302 	0x7062302
    19b4:	000000a2 	0xa2
    19b8:	00894b02 	0x894b02
    19bc:	23020000 	addi	v0,t8,0
    19c0:	01240707 	0x1240707
    19c4:	4c020000 	lwxc1	$f0,v0(zero)
    19c8:	00000089 	0x89
    19cc:	07082302 	tgei	t8,8962
    19d0:	0000024d 	break	0x0,0x9
    19d4:	00894d02 	0x894d02
    19d8:	23020000 	addi	v0,t8,0
    19dc:	04440709 	0x4440709
    19e0:	4e020000 	lwxc1	$f0,v0(s0)
    19e4:	00000089 	0x89
    19e8:	070a2302 	tlti	t8,8962
    19ec:	00000114 	0x114
    19f0:	00875002 	0x875002
    19f4:	23020000 	addi	v0,t8,0
    19f8:	03b5070c 	syscall	0xed41c
    19fc:	51020000 	beql	t0,v0,1a00 <SRAM_BTCALL_CALLRING_BUF_SIZE+0xa00>
    1a00:	00000087 	0x87
    1a04:	00102302 	srl	a0,s0,0xc
    1a08:	00033c05 	0x33c05
    1a0c:	9fbe0200 	0x9fbe0200
    1a10:	08000000 	j	0 <DRV_GROUP_STG_BASE>
    1a14:	00000191 	0x191
    1a18:	0006c901 	0x6c901
    1a1c:	01380100 	0x1380100
    1a20:	00000072 	tlt	zero,zero,0x1
    1a24:	12009001 	beqz	s0,fffe5a2c <blk_op+0x403a5cd4>
    1a28:	12009070 	beqz	s0,fffe5bec <blk_op+0x403a5e94>
    1a2c:	73096d01 	0x73096d01
    1a30:	01006362 	0x1006362
    1a34:	00019137 	0x19137
    1a38:	0a610100 	j	9840400 <BANK_SPACE+0x9800400>
    1a3c:	000001c2 	srl	zero,zero,0x7
    1a40:	00413701 	0x413701
    1a44:	55010000 	bnel	t0,at,1a48 <SRAM_BTCALL_CALLRING_BUF_SIZE+0xa48>
    1a48:	0001970b 	0x1970b
    1a4c:	00904f00 	0x904f00
    1a50:	00906712 	0x906712
    1a54:	01a40c12 	0x1a40c12
    1a58:	af0c0000 	sw	t4,0(t8)
    1a5c:	00000001 	movf	zero,zero,$fcc0
    1a60:	38040d00 	xori	a0,zero,0xd00
    1a64:	0e000001 	jal	8000004 <BANK_SPACE+0x7fc0004>
    1a68:	000001bb 	0x1bb
    1a6c:	000005c1 	0x5c1
    1a70:	01012d01 	0x1012d01
    1a74:	6362730f 	0x6362730f
    1a78:	912c0100 	lbu	t4,256(t1)
    1a7c:	10000001 	b	1a84 <SRAM_BTCALL_CALLRING_BUF_SIZE+0xa84>
    1a80:	000001c2 	srl	zero,zero,0x7
    1a84:	00412c01 	0x412c01
    1a88:	11000000 	beqz	t0,1a8c <SRAM_BTCALL_CALLRING_BUF_SIZE+0xa8c>
    1a8c:	000001e0 	0x1e0
    1a90:	00069001 	0x69001
    1a94:	01540100 	0x1540100
    1a98:	12009085 	beqz	s0,fffe5cb0 <blk_op+0x403a5f58>
    1a9c:	120090a8 	beqz	s0,fffe5d40 <blk_op+0x403a5fe8>
    1aa0:	73096d01 	0x73096d01
    1aa4:	01006362 	0x1006362
    1aa8:	00019153 	0x19153
    1aac:	00600100 	0x600100
    1ab0:	0001f612 	0x1f612
    1ab4:	0001f600 	sll	s8,at,0x18
    1ab8:	00801300 	0x801300
    1abc:	13030000 	beq	t8,v1,1ac0 <SRAM_BTCALL_CALLRING_BUF_SIZE+0xac0>
    1ac0:	00000080 	sll	zero,zero,0x2
    1ac4:	72140003 	0x72140003
    1ac8:	15000000 	bnez	t0,1acc <SRAM_BTCALL_CALLRING_BUF_SIZE+0xacc>
    1acc:	00000425 	0x425
    1ad0:	02061e04 	0x2061e04
    1ad4:	e0140000 	sc	s4,0(zero)
    1ad8:	12000001 	beqz	s0,1ae0 <SRAM_BTCALL_CALLRING_BUF_SIZE+0xae0>
    1adc:	00000221 	0x221
    1ae0:	000001f6 	tne	zero,zero,0x7
    1ae4:	00008013 	0x8013
    1ae8:	80130300 	lb	s3,768(zero)
    1aec:	07000000 	bltz	t8,1af0 <SRAM_BTCALL_CALLRING_BUF_SIZE+0xaf0>
    1af0:	02071500 	0x2071500
    1af4:	26040000 	addiu	a0,s0,0
    1af8:	0000022c 	0x22c
    1afc:	00020b14 	0x20b14
    1b00:	02411200 	0x2411200
    1b04:	02410000 	0x2410000
    1b08:	80130000 	lb	s3,0(zero)
    1b0c:	13000000 	beqz	t8,1b10 <SRAM_BTCALL_CALLRING_BUF_SIZE+0xb10>
    1b10:	00941400 	0x941400
    1b14:	c5150000 	lwc1	$f21,0(t0)
    1b18:	04000003 	bltz	zero,1b28 <SRAM_BTCALL_CALLRING_BUF_SIZE+0xb28>
    1b1c:	00025135 	0x25135
    1b20:	02311400 	0x2311400
    1b24:	66120000 	0x66120000
    1b28:	41000002 	mftc0	zero,c0_mvpconf0
    1b2c:	13000002 	beqz	t8,1b38 <SRAM_BTCALL_CALLRING_BUF_SIZE+0xb38>
    1b30:	00000080 	sll	zero,zero,0x2
    1b34:	a3150013 	sb	s5,19(t8)
    1b38:	04000004 	bltz	zero,1b4c <SRAM_BTCALL_CALLRING_BUF_SIZE+0xb4c>
    1b3c:	0002713d 	0x2713d
    1b40:	02561400 	0x2561400
    1b44:	86120000 	lh	s2,0(s0)
    1b48:	41000002 	mftc0	zero,c0_mvpconf0
    1b4c:	13000002 	beqz	t8,1b58 <SRAM_BTCALL_CALLRING_BUF_SIZE+0xb58>
    1b50:	00000080 	sll	zero,zero,0x2
    1b54:	78150027 	0x78150027
    1b58:	04000003 	bltz	zero,1b68 <SRAM_BTCALL_CALLRING_BUF_SIZE+0xb68>
    1b5c:	00029145 	0x29145
    1b60:	02761400 	0x2761400
    1b64:	a6120000 	sh	s2,0(s0)
    1b68:	41000002 	mftc0	zero,c0_mvpconf0
    1b6c:	13000002 	beqz	t8,1b78 <SRAM_BTCALL_CALLRING_BUF_SIZE+0xb78>
    1b70:	00000080 	sll	zero,zero,0x2
    1b74:	b1150027 	0xb1150027
    1b78:	04000001 	bltz	zero,1b80 <SRAM_BTCALL_CALLRING_BUF_SIZE+0xb80>
    1b7c:	0002b152 	0x2b152
    1b80:	02961400 	0x2961400
    1b84:	cc120000 	pref	0x12,0(zero)
    1b88:	41000002 	mftc0	zero,c0_mvpconf0
    1b8c:	13000002 	beqz	t8,1b98 <SRAM_BTCALL_CALLRING_BUF_SIZE+0xb98>
    1b90:	00000080 	sll	zero,zero,0x2
    1b94:	00801307 	0x801307
    1b98:	00030000 	sll	zero,v1,0x0
    1b9c:	00000c15 	0xc15
    1ba0:	d75f0400 	ldc1	$f31,1024(k0)
    1ba4:	14000002 	bnez	zero,1bb0 <SRAM_BTCALL_CALLRING_BUF_SIZE+0xbb0>
    1ba8:	000002b6 	tne	zero,zero,0xa
    1bac:	0002f212 	0x2f212
    1bb0:	00024100 	sll	t0,v0,0x4
    1bb4:	00801300 	0x801300
    1bb8:	130f0000 	beq	t8,t7,1bbc <SRAM_BTCALL_CALLRING_BUF_SIZE+0xbbc>
    1bbc:	00000080 	sll	zero,zero,0x2
    1bc0:	8f150007 	lw	s5,7(t8)
    1bc4:	04000000 	bltz	zero,1bc8 <SRAM_BTCALL_CALLRING_BUF_SIZE+0xbc8>
    1bc8:	0002fd6a 	0x2fd6a
    1bcc:	02dc1400 	0x2dc1400
    1bd0:	12120000 	beq	s0,s2,1bd4 <SRAM_BTCALL_CALLRING_BUF_SIZE+0xbd4>
    1bd4:	12000003 	beqz	s0,1be4 <SRAM_BTCALL_CALLRING_BUF_SIZE+0xbe4>
    1bd8:	13000003 	beqz	t8,1be8 <SRAM_BTCALL_CALLRING_BUF_SIZE+0xbe8>
    1bdc:	00000080 	sll	zero,zero,0x2
    1be0:	3a140027 	xori	s4,s0,0x27
    1be4:	15000000 	bnez	t0,1be8 <SRAM_BTCALL_CALLRING_BUF_SIZE+0xbe8>
    1be8:	0000047b 	0x47b
    1bec:	0322b704 	0x322b704
    1bf0:	02140000 	0x2140000
    1bf4:	12000003 	beqz	s0,1c04 <SROM_FS_SIZE+0x4>
    1bf8:	00000337 	0x337
    1bfc:	00000312 	0x312
    1c00:	00008013 	0x8013
    1c04:	15001f00 	bnez	t0,9808 <OFFSET+0x408>
    1c08:	0000012f 	0x12f
    1c0c:	0342e904 	0x342e904
    1c10:	27140000 	addiu	s4,t8,0
    1c14:	12000003 	beqz	s0,1c24 <SROM_FS_SIZE+0x24>
    1c18:	00000357 	0x357
    1c1c:	00000312 	0x312
    1c20:	00008013 	0x8013
    1c24:	16004f00 	bnez	s0,15828 <SRAM_BT_EXT5_BANK_ADDR+0x1228>
    1c28:	00000294 	0x294
    1c2c:	63010504 	0x63010504
    1c30:	14000003 	bnez	zero,1c40 <SROM_FS_SIZE+0x40>
    1c34:	00000347 	0x347
    1c38:	00037812 	0x37812
    1c3c:	00031200 	sll	v0,v1,0x8
    1c40:	00801300 	0x801300
    1c44:	007f0000 	0x7f0000
    1c48:	0004db16 	0x4db16
    1c4c:	014a0400 	0x14a0400
    1c50:	00000384 	0x384
    1c54:	00036814 	0x36814
    1c58:	03991200 	0x3991200
    1c5c:	03120000 	0x3120000
    1c60:	80130000 	lb	s3,0(zero)
    1c64:	37000000 	ori	zero,t8,0x0
    1c68:	00d71600 	0xd71600
    1c6c:	8e040000 	lw	a0,0(s0)
    1c70:	0003a501 	0x3a501
    1c74:	03891400 	0x3891400
    1c78:	6b160000 	0x6b160000
    1c7c:	04000001 	bltz	zero,1c84 <SROM_FS_SIZE+0x84>
    1c80:	03b601bb 	0x3b601bb
    1c84:	89140000 	lwl	s4,0(t0)
    1c88:	12000003 	beqz	s0,1c98 <SROM_FS_SIZE+0x98>
    1c8c:	000003cb 	0x3cb
    1c90:	00000312 	0x312
    1c94:	00008013 	0x8013
    1c98:	16008f00 	bnez	s0,fffe589c <blk_op+0x403a5b44>
    1c9c:	0000034d 	break	0x0,0xd
    1ca0:	d701e804 	ldc1	$f1,-6140(t8)
    1ca4:	14000003 	bnez	zero,1cb4 <SROM_FS_SIZE+0xb4>
    1ca8:	000003bb 	0x3bb
    1cac:	00045516 	0x45516
    1cb0:	02490400 	0x2490400
    1cb4:	000003e8 	0x3e8
    1cb8:	0003bb14 	0x3bb14
    1cbc:	02080000 	0x2080000
    1cc0:	00020000 	sll	zero,v0,0x0
    1cc4:	00000437 	0x437
    1cc8:	05860104 	0x5860104
    1ccc:	fd560000 	sdc3	$22,0(t2)
    1cd0:	fd34bfc3 	sdc3	$20,-16445(t1)
    1cd4:	0580bfc3 	bltz	t4,ffff1be4 <blk_op+0x403b1e8c>
    1cd8:	f6010000 	sdc1	$f1,0(s0)
    1cdc:	d3000005 	0xd3000005
    1ce0:	02000002 	0x2000002
    1ce4:	00000141 	0x141
    1ce8:	43020801 	c0	0x1020801
    1cec:	01000001 	movf	zero,t0,$fcc0
    1cf0:	050c0206 	teqi	t0,518
    1cf4:	07020000 	bltzl	t8,1cf8 <SROM_FS_SIZE+0xf8>
    1cf8:	00044b02 	srl	t1,a0,0xc
    1cfc:	02050200 	0x2050200
    1d00:	0000039b 	0x39b
    1d04:	11020704 	beq	t0,v0,3918 <SROM_STUB_ADDR+0x18>
    1d08:	04000003 	bltz	zero,1d18 <SROM_FS_SIZE+0x118>
    1d0c:	054e0205 	tnei	t2,517
    1d10:	04040000 	0x4040000
    1d14:	00020002 	srl	zero,v0,0x0
    1d18:	02040800 	0x2040800
    1d1c:	00000396 	0x396
    1d20:	0c020708 	jal	81c20 <BANK_SPACE+0x41c20>
    1d24:	08000003 	j	c <DRV_GROUP_BT>
    1d28:	03a00205 	0x3a00205
    1d2c:	07040000 	0x7040000
    1d30:	746e6903 	jalx	1b9a40c <BANK_SPACE+0x1b5a40c>
    1d34:	02050400 	0x2050400
    1d38:	0000014a 	0x14a
    1d3c:	9b020601 	lwr	v0,1537(t8)
    1d40:	04000003 	bltz	zero,1d50 <SROM_FS_SIZE+0x150>
    1d44:	05040407 	0x5040407
    1d48:	000000e6 	0xe6
    1d4c:	061a0418 	0x61a0418
    1d50:	00000609 	0x609
    1d54:	00721404 	0x721404
    1d58:	23020000 	addi	v0,t8,0
    1d5c:	05650600 	0x5650600
    1d60:	15040000 	bne	t0,a0,1d64 <SROM_FS_SIZE+0x164>
    1d64:	00000072 	tlt	zero,zero,0x1
    1d68:	06042302 	0x6042302
    1d6c:	0000014f 	0x14f
    1d70:	00721604 	0x721604
    1d74:	23020000 	addi	v0,t8,0
    1d78:	032e0608 	0x32e0608
    1d7c:	17040000 	bne	t8,a0,1d80 <SROM_FS_SIZE+0x180>
    1d80:	00000072 	tlt	zero,zero,0x1
    1d84:	060c2302 	teqi	s0,8962
    1d88:	00000616 	0x616
    1d8c:	00721804 	sllv	v1,s2,v1
    1d90:	23020000 	addi	v0,t8,0
    1d94:	01190610 	0x1190610
    1d98:	19040000 	0x19040000
    1d9c:	00000072 	tlt	zero,zero,0x1
    1da0:	00142302 	srl	a0,s4,0xc
    1da4:	0005d207 	0x5d207
    1da8:	891a0400 	lwl	k0,1024(t0)
    1dac:	07000000 	bltz	t8,1db0 <SROM_FS_SIZE+0x1b0>
    1db0:	000003ad 	0x3ad
    1db4:	00251c03 	0x251c03
    1db8:	80070000 	lb	a3,0(zero)
    1dbc:	03000000 	0x3000000
    1dc0:	00007222 	0x7222
    1dc4:	01a00800 	0x1a00800
    1dc8:	00b90000 	0xb90000
    1dcc:	02140000 	0x2140000
    1dd0:	01c20645 	0x1c20645
    1dd4:	46020000 	add.s	$f0,$f0,$f2
    1dd8:	00000041 	0x41
    1ddc:	06002302 	bltz	s0,a9e8 <SRAM_BT_EXT1_BANK_ADDR+0x1e8>
    1de0:	0000041b 	0x41b
    1de4:	00f14802 	0xf14802
    1de8:	23020000 	addi	v0,t8,0
    1dec:	048d0604 	0x48d0604
    1df0:	49020000 	bc2fl	1df4 <SROM_FS_SIZE+0x1f4>
    1df4:	000000f1 	tgeu	zero,zero,0x3
    1df8:	06052302 	0x6052302
    1dfc:	000006ec 	0x6ec
    1e00:	00f14a02 	0xf14a02
    1e04:	23020000 	addi	v0,t8,0
    1e08:	00a20606 	0xa20606
    1e0c:	4b020000 	c2	0x1020000
    1e10:	000000f1 	tgeu	zero,zero,0x3
    1e14:	06072302 	0x6072302
    1e18:	00000124 	0x124
    1e1c:	00f14c02 	0xf14c02
    1e20:	23020000 	addi	v0,t8,0
    1e24:	024d0608 	0x24d0608
    1e28:	4d020000 	lwxc1	$f0,v0(t0)
    1e2c:	000000f1 	tgeu	zero,zero,0x3
    1e30:	06092302 	tgeiu	s0,8962
    1e34:	00000444 	0x444
    1e38:	00f14e02 	0xf14e02
    1e3c:	23020000 	addi	v0,t8,0
    1e40:	0114060a 	0x114060a
    1e44:	50020000 	beql	zero,v0,1e48 <SRAM_OS_TASK_STACK_SIZE+0x48>
    1e48:	00000087 	0x87
    1e4c:	060c2302 	teqi	s0,8962
    1e50:	000003b5 	0x3b5
    1e54:	00875102 	0x875102
    1e58:	23020000 	addi	v0,t8,0
    1e5c:	3c070010 	lui	a3,0x10
    1e60:	02000003 	0x2000003
    1e64:	000107be 	0x107be
    1e68:	01f90900 	0x1f90900
    1e6c:	e5010000 	swc1	$f1,0(t0)
    1e70:	01000005 	0x1000005
    1e74:	0072010c 	syscall	0x1c804
    1e78:	fd350000 	sdc3	$21,0(t1)
    1e7c:	fd56bfc3 	sdc3	$22,-16445(t2)
    1e80:	6d01bfc3 	0x6d01bfc3
    1e84:	6362730a 	0x6362730a
    1e88:	f90b0100 	sdc2	$11,256(t0)
    1e8c:	01000001 	movf	zero,t0,$fcc0
    1e90:	062f0b54 	0x62f0b54
    1e94:	0b010000 	j	c040000 <BANK_SPACE+0xc000000>
    1e98:	00000087 	0x87
    1e9c:	040b5501 	tltiu	zero,21761
    1ea0:	01000005 	0x1000005
    1ea4:	0001ff0b 	0x1ff0b
    1ea8:	0c560100 	jal	1580400 <BANK_SPACE+0x1540400>
    1eac:	00000624 	0x624
    1eb0:	02050d01 	0x2050d01
    1eb4:	0d000000 	jal	4000000 <BANK_SPACE+0x3fc0000>
    1eb8:	0001a004 	sllv	s4,at,zero
    1ebc:	fc040d00 	sdc3	$4,3328(zero)
    1ec0:	0d000000 	jal	4000000 <BANK_SPACE+0x3fc0000>
    1ec4:	0000e604 	0xe604
    1ec8:	009b0000 	0x9b0000
    1ecc:	00020000 	sll	zero,v0,0x0
    1ed0:	000004ed 	0x4ed
    1ed4:	060e0104 	tnei	s0,260
    1ed8:	94300000 	lhu	s0,0(at)
    1edc:	942c2200 	lhu	t4,8704(at)
    1ee0:	05802200 	bltz	t4,a6e4 <SRAM_BT_LIB1_BANK_ADDR+0x6e4>
    1ee4:	45010000 	bc1t	1ee8 <SRAM_OS_TASK_STACK_SIZE+0xe8>
    1ee8:	d3000006 	0xd3000006
    1eec:	02000002 	0x2000002
    1ef0:	00000141 	0x141
    1ef4:	43020801 	c0	0x1020801
    1ef8:	01000001 	movf	zero,t0,$fcc0
    1efc:	050c0206 	teqi	t0,518
    1f00:	07020000 	bltzl	t8,1f04 <SRAM_OS_TASK_STACK_SIZE+0x104>
    1f04:	00044b02 	srl	t1,a0,0xc
    1f08:	02050200 	0x2050200
    1f0c:	0000039b 	0x39b
    1f10:	11020704 	beq	t0,v0,3b24 <SROM_STUB_ADDR_MDY+0x24>
    1f14:	04000003 	bltz	zero,1f24 <SRAM_OS_TASK_STACK_SIZE+0x124>
    1f18:	054e0205 	tnei	t2,517
    1f1c:	04040000 	0x4040000
    1f20:	00020002 	srl	zero,v0,0x0
    1f24:	02040800 	0x2040800
    1f28:	00000396 	0x396
    1f2c:	0c020708 	jal	81c20 <BANK_SPACE+0x41c20>
    1f30:	08000003 	j	c <DRV_GROUP_BT>
    1f34:	03a00205 	0x3a00205
    1f38:	07040000 	0x7040000
    1f3c:	746e6903 	jalx	1b9a40c <BANK_SPACE+0x1b5a40c>
    1f40:	02050400 	0x2050400
    1f44:	0000014a 	0x14a
    1f48:	9b020601 	lwr	v0,1537(t8)
    1f4c:	04000003 	bltz	zero,1f5c <SRAM_OS_TASK_STACK_SIZE+0x15c>
    1f50:	35010407 	ori	at,t0,0x407
    1f54:	01000006 	srlv	zero,zero,t0
    1f58:	0072011b 	0x72011b
    1f5c:	942d0000 	lhu	t5,0(at)
    1f60:	94302200 	lhu	s0,8704(at)
    1f64:	6d012200 	0x6d012200
    1f68:	00009b00 	sll	s3,zero,0xc
    1f6c:	2e000200 	sltiu	zero,s0,512
    1f70:	04000005 	bltz	zero,1f88 <SRAM_OS_TASK_STACK_SIZE+0x188>
    1f74:	00064c01 	0x64c01
    1f78:	00942c00 	0x942c00
    1f7c:	00940022 	sub	zero,a0,s4
    1f80:	00058022 	neg	s0,a1
    1f84:	06570100 	0x6570100
    1f88:	02d30000 	0x2d30000
    1f8c:	41020000 	mftc0	zero,c0_entrylo0
    1f90:	01000001 	movf	zero,t0,$fcc0
    1f94:	01430208 	0x1430208
    1f98:	06010000 	bgez	s0,1f9c <SRAM_OS_TASK_STACK_SIZE+0x19c>
    1f9c:	00050c02 	srl	at,a1,0x10
    1fa0:	02070200 	0x2070200
    1fa4:	0000044b 	0x44b
    1fa8:	9b020502 	lwr	v0,1282(t8)
    1fac:	04000003 	bltz	zero,1fbc <SRAM_OS_TASK_STACK_SIZE+0x1bc>
    1fb0:	03110207 	0x3110207
    1fb4:	05040000 	0x5040000
    1fb8:	00054e02 	srl	t1,a1,0x18
    1fbc:	02040400 	0x2040400
    1fc0:	00000200 	sll	zero,zero,0x8
    1fc4:	96020408 	lhu	v0,1032(s0)
    1fc8:	08000003 	j	c <DRV_GROUP_BT>
    1fcc:	030c0207 	0x30c0207
    1fd0:	05080000 	tgei	t0,0
    1fd4:	0003a002 	srl	s4,v1,0x0
    1fd8:	03070400 	0x3070400
    1fdc:	00746e69 	0x746e69
    1fe0:	4a020504 	c2	0x20504
    1fe4:	01000001 	movf	zero,t0,$fcc0
    1fe8:	039b0206 	0x39b0206
    1fec:	07040000 	0x7040000
    1ff0:	06690104 	tgeiu	s3,260
    1ff4:	1b010000 	0x1b010000
    1ff8:	00007201 	0x7201
    1ffc:	00940100 	0x940100
    2000:	00941422 	0x941422
    2004:	006d0122 	0x6d0122
    2008:	00000101 	0x101
    200c:	056f0002 	0x56f0002
    2010:	01040000 	0x1040000
    2014:	0000068c 	syscall	0x1a
    2018:	bfc3fd58 	cache	0x3,-680(s8)
    201c:	bfc3fd58 	cache	0x3,-680(s8)
    2020:	00000580 	sll	zero,zero,0x16
    2024:	00069b01 	0x69b01
    2028:	0002d300 	sll	k0,v0,0xc
    202c:	01410200 	0x1410200
    2030:	08010000 	j	40000 <BANK_SPACE>
    2034:	00014302 	srl	t0,at,0xc
    2038:	02060100 	0x2060100
    203c:	0000050c 	syscall	0x14
    2040:	4b020702 	c2	0x1020702
    2044:	02000004 	sllv	zero,zero,s0
    2048:	039b0205 	0x39b0205
    204c:	07040000 	0x7040000
    2050:	00031102 	srl	v0,v1,0x4
    2054:	02050400 	0x2050400
    2058:	0000054e 	0x54e
    205c:	00020404 	0x20404
    2060:	08000002 	j	8 <DRV_GROUP_KEY>
    2064:	03960204 	0x3960204
    2068:	07080000 	tgei	t8,0
    206c:	00030c02 	srl	at,v1,0x10
    2070:	02050800 	0x2050800
    2074:	000003a0 	0x3a0
    2078:	69030704 	0x69030704
    207c:	0400746e 	bltz	zero,1f238 <SRAM_BT_RCODE_DATA_ADDR+0x138>
    2080:	014a0205 	0x14a0205
    2084:	06010000 	bgez	s0,2088 <SRAM_AP_BACK_AL_RCODE_2_SIZE+0x88>
    2088:	00039b02 	srl	s3,v1,0xc
    208c:	04070400 	0x4070400
    2090:	8f040504 	lw	a0,1284(t8)
    2094:	06000000 	bltz	s0,2098 <SRAM_AP_BACK_AL_RCODE_2_SIZE+0x98>
    2098:	000000a9 	0xa9
    209c:	00008701 	0x8701
    20a0:	00870700 	0x870700
    20a4:	87070000 	lh	a3,0(t8)
    20a8:	07000000 	bltz	t8,20ac <SRAM_AP_BACK_AL_RCODE_2_SIZE+0xac>
    20ac:	00000087 	0x87
    20b0:	06b70800 	0x6b70800
    20b4:	0b010000 	j	c040000 <BANK_SPACE+0xc000000>
    20b8:	00000089 	0x89
    20bc:	0000e709 	0xe709
    20c0:	12010c00 	beq	s0,at,50c4 <SRAM_AP_BANK_BACK_AL_1_SIZE+0x10c4>
    20c4:	0006c70a 	0x6c70a
    20c8:	a90f0100 	swl	t7,256(t0)
    20cc:	02000000 	0x2000000
    20d0:	8e0a0023 	lw	t2,35(s0)
    20d4:	01000006 	srlv	zero,zero,t0
    20d8:	0000a910 	0xa910
    20dc:	04230200 	bgezl	at,28e0 <SRAM_BTCALL_ASQT_BUF_SIZE+0xe0>
    20e0:	0006d20a 	0x6d20a
    20e4:	a9110100 	swl	s1,256(t0)
    20e8:	02000000 	0x2000000
    20ec:	08000823 	j	208c <SRAM_AP_BACK_AL_RCODE_2_SIZE+0x8c>
    20f0:	00000679 	0x679
    20f4:	00b41201 	0xb41201
    20f8:	c00b0000 	ll	t3,0(zero)
    20fc:	01000006 	srlv	zero,zero,t0
    2100:	0000e715 	0xe715
    2104:	03050100 	0x3050100
    2108:	bfc3fd58 	cache	0x3,-680(s8)
    210c:	00066f00 	sll	t5,a2,0x1c
    2110:	f5000200 	sdc1	$f0,512(t0)
    2114:	04000005 	bltz	zero,212c <SRAM_AP_BACK_AL_RCODE_2_SIZE+0x12c>
    2118:	0006c501 	0x6c501
    211c:	c3df0400 	ll	ra,1024(s8)
    2120:	c3d7fcbf 	ll	s7,-833(s8)
    2124:	000580bf 	0x580bf
    2128:	079d0100 	0x79d0100
    212c:	02d30000 	0x2d30000
    2130:	41020000 	mftc0	zero,c0_entrylo0
    2134:	01000001 	movf	zero,t0,$fcc0
    2138:	01430208 	0x1430208
    213c:	06010000 	bgez	s0,2140 <SRAM_AP_BACK_AL_RCODE_2_SIZE+0x140>
    2140:	00050c02 	srl	at,a1,0x10
    2144:	02070200 	0x2070200
    2148:	0000044b 	0x44b
    214c:	9b020502 	lwr	v0,1282(t8)
    2150:	04000003 	bltz	zero,2160 <SRAM_AP_BACK_AL_RCODE_2_SIZE+0x160>
    2154:	03110207 	0x3110207
    2158:	05040000 	0x5040000
    215c:	00054e02 	srl	t1,a1,0x18
    2160:	02040400 	0x2040400
    2164:	00000200 	sll	zero,zero,0x8
    2168:	96020408 	lhu	v0,1032(s0)
    216c:	08000003 	j	c <DRV_GROUP_BT>
    2170:	030c0207 	0x30c0207
    2174:	05080000 	tgei	t0,0
    2178:	0003a002 	srl	s4,v1,0x0
    217c:	03070400 	0x3070400
    2180:	00746e69 	0x746e69
    2184:	4a020504 	c2	0x20504
    2188:	01000001 	movf	zero,t0,$fcc0
    218c:	039b0206 	0x39b0206
    2190:	07040000 	0x7040000
    2194:	32337504 	andi	s3,s1,0x7504
    2198:	6b120400 	0x6b120400
    219c:	05000000 	bltz	t0,21a0 <SRAM_AP_BACK_AL_RCODE_2_SIZE+0x1a0>
    21a0:	00000081 	0x81
    21a4:	00872e04 	0x872e04
    21a8:	1f050000 	0x1f050000
    21ac:	03000005 	0x3000005
    21b0:	00006b1a 	0x6b1a
    21b4:	01590500 	0x1590500
    21b8:	1b030000 	0x1b030000
    21bc:	00000033 	tltu	zero,zero
    21c0:	0003ad05 	0x3ad05
    21c4:	251c0300 	addiu	gp,t0,768
    21c8:	05000000 	bltz	t0,21cc <SRAM_AP_BACK_AL_RCODE_2_SIZE+0x1cc>
    21cc:	00000520 	0x520
    21d0:	00721d03 	0x721d03
    21d4:	80050000 	lb	a1,0(zero)
    21d8:	03000000 	0x3000000
    21dc:	00007222 	0x7222
    21e0:	00f50600 	0xf50600
    21e4:	02010000 	0x2010000
    21e8:	02ce0795 	0x2ce0795
    21ec:	07000000 	bltz	t8,21f0 <SRAM_AP_BACK_AL_RCODE_2_SIZE+0x1f0>
    21f0:	00000213 	0x213
    21f4:	038f0701 	0x38f0701
    21f8:	07020000 	bltzl	t8,21fc <SRAM_AP_BACK_AL_RCODE_2_SIZE+0x1fc>
    21fc:	00000389 	0x389
    2200:	0a060003 	j	818000c <BANK_SPACE+0x814000c>
    2204:	01000001 	movf	zero,t0,$fcc0
    2208:	62079c02 	0x62079c02
    220c:	00000001 	movf	zero,zero,$fcc0
    2210:	524e5308 	beql	s2,t6,16e34 <SRAM_BTCALL_ASQT_BUF_ADDR+0x234>
    2214:	09000100 	j	4000400 <BANK_SPACE+0x3fc0400>
    2218:	000001dc 	0x1dc
    221c:	00000029 	0x29
    2220:	91020450 	lbu	v0,1104(t0)
    2224:	00041b0a 	0x41b0a
    2228:	b3920200 	0xb3920200
    222c:	02000000 	0x2000000
    2230:	f50a0023 	sdc1	$f10,35(t0)
    2234:	02000001 	movf	zero,s0,$fcc0
    2238:	0000b393 	0xb393
    223c:	01230200 	0x1230200
    2240:	00048d0a 	0x48d0a
    2244:	b3940200 	0xb3940200
    2248:	02000000 	0x2000000
    224c:	a20a0223 	sb	t2,547(s0)
    2250:	02000000 	0x2000000
    2254:	0000d49a 	0xd49a
    2258:	03230200 	0x3230200
    225c:	0007cc0a 	0x7cc0a
    2260:	b39b0200 	0xb39b0200
    2264:	02000000 	0x2000000
    2268:	240a0423 	li	t2,1059
    226c:	02000001 	movf	zero,s0,$fcc0
    2270:	0000f59f 	0xf59f
    2274:	05230200 	bgezl	t1,2a78 <SRAM_BTSTACK_AVDTP_DATA_SIZE+0xf8>
    2278:	00009a0a 	0x9a0a
    227c:	b3a00200 	0xb3a00200
    2280:	02000000 	0x2000000
    2284:	ec0a0623 	swc3	$10,1571(zero)
    2288:	02000006 	srlv	zero,zero,s0
    228c:	0000b3a1 	0xb3a1
    2290:	07230200 	bgezl	t9,2a94 <SRAM_BTSTACK_AVDTP_DATA_SIZE+0x114>
    2294:	00024d0a 	0x24d0a
    2298:	b3a20200 	0xb3a20200
    229c:	02000000 	0x2000000
    22a0:	770a0823 	jalx	c28208c <BANK_SPACE+0xc24208c>
    22a4:	02000000 	0x2000000
    22a8:	0000a8a3 	0xa8a3
    22ac:	0a230200 	j	88c0800 <BANK_SPACE+0x8880800>
    22b0:	0004c20a 	0x4c20a
    22b4:	b3a40200 	0xb3a40200
    22b8:	02000000 	0x2000000
    22bc:	000a0c23 	0xa0c23
    22c0:	02000000 	0x2000000
    22c4:	0000b3a7 	0xb3a7
    22c8:	0d230200 	jal	48c0800 <BANK_SPACE+0x4880800>
    22cc:	0002200a 	movz	a0,zero,v0
    22d0:	dcaa0200 	ldc3	$10,512(a1)
    22d4:	02000001 	movf	zero,s0,$fcc0
    22d8:	cf0a1023 	pref	0xa,4131(t8)
    22dc:	02000004 	sllv	zero,zero,s0
    22e0:	0001f2ad 	0x1f2ad
    22e4:	50230200 	beql	at,v1,2ae8 <SRAM_BTSTACK_AVDTP_DATA_SIZE+0x168>
    22e8:	01f20b00 	0x1f20b00
    22ec:	009d0000 	0x9d0000
    22f0:	800c0000 	lb	t4,0(zero)
    22f4:	01000000 	0x1000000
    22f8:	0000800c 	syscall	0x200
    22fc:	0b000700 	j	c001c00 <BANK_SPACE+0xbfc1c00>
    2300:	0000020e 	0x20e
    2304:	000000be 	0xbe
    2308:	0000800c 	syscall	0x200
    230c:	800c0f00 	lb	t4,3840(zero)
    2310:	01000000 	0x1000000
    2314:	0000800c 	syscall	0x200
    2318:	0d000700 	jal	4001c00 <BANK_SPACE+0x3fc1c00>
    231c:	000002ca 	0x2ca
    2320:	00078101 	0x78101
    2324:	010f0100 	0x10f0100
    2328:	bfc3d7fc 	cache	0x3,-10244(s8)
    232c:	bfc3db18 	cache	0x3,-9448(s8)
    2330:	2d0e6d01 	sltiu	t6,t0,27905
    2334:	01000000 	0x1000000
    2338:	0002ca0e 	0x2ca0e
    233c:	0e680100 	jal	9a00400 <BANK_SPACE+0x99c0400>
    2340:	000000d2 	0xd2
    2344:	02e50e01 	0x2e50e01
    2348:	61010000 	0x61010000
    234c:	0006ec0e 	0x6ec0e
    2350:	720e0100 	0x720e0100
    2354:	01000000 	0x1000000
    2358:	66730f56 	0x66730f56
    235c:	b3100100 	0xb3100100
    2360:	01000000 	0x1000000
    2364:	d828105f 	ldc2	$8,4191(at)
    2368:	db08bfc3 	ldc2	$8,-16445(t8)
    236c:	7911bfc3 	0x7911bfc3
    2370:	01000007 	srav	zero,zero,t0
    2374:	0002eb67 	0x2eb67
    2378:	00910200 	0x910200
    237c:	0006f511 	0x6f511
    2380:	72670100 	0x72670100
    2384:	01000000 	0x1000000
    2388:	07751152 	0x7751152
    238c:	67010000 	0x67010000
    2390:	00000072 	tlt	zero,zero,0x1
    2394:	d5115c01 	ldc1	$f17,23553(t0)
    2398:	01000007 	srav	zero,zero,t0
    239c:	00007267 	0x7267
    23a0:	115a0100 	beq	t2,k0,27a4 <SROM_BROM_SIZE+0x1a4>
    23a4:	00000733 	tltu	zero,zero,0x1c
    23a8:	00726701 	0x726701
    23ac:	5b010000 	0x5b010000
    23b0:	00071d11 	0x71d11
    23b4:	72670100 	0x72670100
    23b8:	01000000 	0x1000000
    23bc:	68630f58 	0x68630f58
    23c0:	72680100 	0x72680100
    23c4:	01000000 	0x1000000
    23c8:	62730f5e 	0x62730f5e
    23cc:	72680100 	0x72680100
    23d0:	01000000 	0x1000000
    23d4:	1200005d 	beqz	s0,254c <SRAM_AP_BACK_AL_RCODE_2_SIZE+0x54c>
    23d8:	0002d004 	sllv	k0,v0,zero
    23dc:	010a1300 	0x10a1300
    23e0:	e50b0000 	swc1	$f11,0(t0)
    23e4:	72000002 	mul	zero,s0,zero
    23e8:	0c000000 	jal	0 <DRV_GROUP_STG_BASE>
    23ec:	00000080 	sll	zero,zero,0x2
    23f0:	04120007 	bltzall	zero,2410 <SRAM_AP_BACK_AL_RCODE_2_SIZE+0x410>
    23f4:	000002d5 	0x2d5
    23f8:	0003010b 	0x3010b
    23fc:	00007200 	sll	t6,zero,0x8
    2400:	00800c00 	0x800c00
    2404:	0c010000 	jal	40000 <BANK_SPACE>
    2408:	00000080 	sll	zero,zero,0x2
    240c:	3d140007 	0x3d140007
    2410:	01000004 	sllv	zero,zero,t0
    2414:	000006fe 	0x6fe
    2418:	01010101 	0x1010101
    241c:	000000c9 	0xc9
    2420:	bfc3db18 	cache	0x3,-9448(s8)
    2424:	bfc3df04 	cache	0x3,-8444(s8)
    2428:	6f0e6d01 	0x6f0e6d01
    242c:	01000005 	0x1000005
    2430:	00043dfd 	0x43dfd
    2434:	0e650100 	jal	9940400 <BANK_SPACE+0x9900400>
    2438:	0000002d 	0x2d
    243c:	0443fe01 	bgezl	v0,1c44 <SROM_FS_SIZE+0x44>
    2440:	63010000 	0x63010000
    2444:	6e656c15 	0x6e656c15
    2448:	92fe0100 	lbu	s8,256(s7)
    244c:	01000000 	0x1000000
    2450:	06e60e56 	0x6e60e56
    2454:	ff010000 	sdc3	$1,0(t8)
    2458:	00000072 	tlt	zero,zero,0x1
    245c:	c60e6401 	lwc1	$f14,25601(s0)
    2460:	01000007 	srav	zero,zero,t0
    2464:	000072ff 	0x72ff
    2468:	16670100 	bne	s3,a3,286c <SRAM_BTCALL_ASQT_BUF_SIZE+0x6c>
    246c:	00000000 	nop
    2470:	72010001 	maddu	s0,at
    2474:	03000000 	0x3000000
    2478:	17029c91 	bne	t8,v0,fffe96c0 <blk_op+0x403a9968>
    247c:	0000074e 	0x74e
    2480:	3d010301 	0x3d010301
    2484:	01000004 	sllv	zero,zero,t0
    2488:	06db1760 	0x6db1760
    248c:	04010000 	b	2490 <SRAM_AP_BACK_AL_RCODE_2_SIZE+0x490>
    2490:	00009d01 	0x9d01
    2494:	17620100 	bne	k1,v0,2898 <SRAM_BTCALL_ASQT_BUF_SIZE+0x98>
    2498:	0000075f 	0x75f
    249c:	9d010501 	0x9d010501
    24a0:	01000000 	0x1000000
    24a4:	076a1752 	tlti	k1,5970
    24a8:	08010000 	j	40000 <BANK_SPACE>
    24ac:	00044901 	0x44901
    24b0:	10910200 	beq	a0,s1,2cb4 <SRAM_BTSTACK_AVDTP_DATA_SIZE+0x334>
    24b4:	00075717 	0x75717
    24b8:	01090100 	0x1090100
    24bc:	00000072 	tlt	zero,zero,0x1
    24c0:	26185701 	addiu	t8,s0,22273
    24c4:	01000007 	srav	zero,zero,t0
    24c8:	009d010b 	0x9d010b
    24cc:	63190000 	0x63190000
    24d0:	0d010068 	jal	40401a0 <BANK_SPACE+0x40001a0>
    24d4:	00007201 	0x7201
    24d8:	195b0100 	0x195b0100
    24dc:	01006273 	tltu	t0,zero,0x189
    24e0:	0072010d 	break	0x72,0x4
    24e4:	58010000 	0x58010000
    24e8:	6b6c6219 	0x6b6c6219
    24ec:	010d0100 	0x10d0100
    24f0:	00000072 	tlt	zero,zero,0x1
    24f4:	d2175d01 	0xd2175d01
    24f8:	01000000 	0x1000000
    24fc:	02eb010e 	0x2eb010e
    2500:	91020000 	lbu	v0,0(t0)
    2504:	07161720 	0x7161720
    2508:	0f010000 	jal	c040000 <BANK_SPACE+0xc000000>
    250c:	0001dc01 	0x1dc01
    2510:	e0910300 	sc	s1,768(a0)
    2514:	073e1700 	0x73e1700
    2518:	10010000 	beq	zero,at,251c <SRAM_AP_BACK_AL_RCODE_2_SIZE+0x51c>
    251c:	0001dc01 	0x1dc01
    2520:	a0910300 	sb	s1,768(a0)
    2524:	042c1a01 	teqi	at,6657
    2528:	2d010000 	sltiu	at,t0,0
    252c:	01000002 	0x1000002
    2530:	0072014d 	break	0x72,0x5
    2534:	1b010000 	0x1b010000
    2538:	c4011c00 	lwc1	$f1,7168(zero)
    253c:	01000000 	0x1000000
    2540:	0072014f 	0x72014f
    2544:	1b010000 	0x1b010000
    2548:	04120000 	bltzall	zero,254c <SRAM_AP_BACK_AL_RCODE_2_SIZE+0x54c>
    254c:	000000b3 	tltu	zero,zero,0x2
    2550:	010a0412 	0x10a0412
    2554:	590b0000 	0x590b0000
    2558:	b3000004 	0xb3000004
    255c:	0c000000 	jal	0 <DRV_GROUP_STG_BASE>
    2560:	00000080 	sll	zero,zero,0x2
    2564:	6f0b000a 	0x6f0b000a
    2568:	6f000004 	0x6f000004
    256c:	0c000004 	jal	10 <SRAM_CARD_GLOBAL_DATA_SIZE>
    2570:	00000080 	sll	zero,zero,0x2
    2574:	00800c03 	0x800c03
    2578:	00030000 	sll	zero,v1,0x0
    257c:	00007213 	0x7213
    2580:	04251100 	0x4251100
    2584:	1e050000 	0x1e050000
    2588:	00000485 	0x485
    258c:	df840305 	ldc3	$4,773(gp)
    2590:	5913bfc3 	0x5913bfc3
    2594:	0b000004 	j	c000010 <BANK_SPACE+0xbfc0010>
    2598:	000004a0 	0x4a0
    259c:	0000046f 	0x46f
    25a0:	0000800c 	syscall	0x200
    25a4:	800c0300 	lb	t4,768(zero)
    25a8:	07000000 	bltz	t8,25ac <SRAM_AP_BACK_AL_RCODE_2_SIZE+0x5ac>
    25ac:	02071100 	0x2071100
    25b0:	26050000 	addiu	a1,s0,0
    25b4:	000004b1 	tgeu	zero,zero,0x12
    25b8:	df040305 	ldc3	$4,773(t8)
    25bc:	8a13bfc3 	lwl	s3,-16445(s0)
    25c0:	0b000004 	j	c000010 <BANK_SPACE+0xbfc0010>
    25c4:	000004c6 	0x4c6
    25c8:	000004c6 	0x4c6
    25cc:	0000800c 	syscall	0x200
    25d0:	13001300 	beqz	t8,71d4 <SRAM_AP_BACK_AL_RCODE_1_SIZE+0x1d4>
    25d4:	000000be 	0xbe
    25d8:	0003c51d 	0x3c51d
    25dc:	d6350500 	ldc1	$f21,1280(s1)
    25e0:	13000004 	beqz	t8,25f4 <SRAM_AP_BACK_AL_RCODE_2_SIZE+0x5f4>
    25e4:	000004b6 	tne	zero,zero,0x12
    25e8:	0004eb0b 	0x4eb0b
    25ec:	0004c600 	sll	t8,a0,0x18
    25f0:	00800c00 	0x800c00
    25f4:	00130000 	sll	zero,s3,0x0
    25f8:	0004a31d 	0x4a31d
    25fc:	f63d0500 	sdc1	$f29,1280(s1)
    2600:	13000004 	beqz	t8,2614 <SROM_BROM_SIZE+0x14>
    2604:	000004db 	0x4db
    2608:	00050b0b 	0x50b0b
    260c:	0004c600 	sll	t8,a0,0x18
    2610:	00800c00 	0x800c00
    2614:	00270000 	0x270000
    2618:	0003781d 	0x3781d
    261c:	16450500 	bne	s2,a1,3a20 <SROM_STUB_ADDR+0x120>
    2620:	13000005 	beqz	t8,2638 <SROM_BROM_SIZE+0x38>
    2624:	000004fb 	0x4fb
    2628:	00052b0b 	0x52b0b
    262c:	0004c600 	sll	t8,a0,0x18
    2630:	00800c00 	0x800c00
    2634:	00270000 	0x270000
    2638:	0001b11d 	0x1b11d
    263c:	36520500 	ori	s2,s2,0x500
    2640:	13000005 	beqz	t8,2658 <SROM_BROM_SIZE+0x58>
    2644:	0000051b 	0x51b
    2648:	0005510b 	0x5510b
    264c:	0004c600 	sll	t8,a0,0x18
    2650:	00800c00 	0x800c00
    2654:	0c070000 	jal	1c0000 <BANK_SPACE+0x180000>
    2658:	00000080 	sll	zero,zero,0x2
    265c:	0c1d0003 	jal	74000c <BANK_SPACE+0x70000c>
    2660:	05000000 	bltz	t0,2664 <SROM_BROM_SIZE+0x64>
    2664:	00055c5f 	0x55c5f
    2668:	053b1300 	0x53b1300
    266c:	770b0000 	jalx	c2c0000 <BANK_SPACE+0xc280000>
    2670:	c6000005 	lwc1	$f0,5(s0)
    2674:	0c000004 	jal	10 <SRAM_CARD_GLOBAL_DATA_SIZE>
    2678:	00000080 	sll	zero,zero,0x2
    267c:	00800c0f 	0x800c0f
    2680:	00070000 	sll	zero,a3,0x0
    2684:	00008f1d 	0x8f1d
    2688:	826a0500 	lb	t2,1280(s3)
    268c:	13000005 	beqz	t8,26a4 <SROM_BROM_SIZE+0xa4>
    2690:	00000561 	0x561
    2694:	0005970b 	0x5970b
    2698:	00059700 	sll	s2,a1,0x1c
    269c:	00800c00 	0x800c00
    26a0:	00270000 	0x270000
    26a4:	00003a13 	0x3a13
    26a8:	047b1d00 	0x47b1d00
    26ac:	b7050000 	0xb7050000
    26b0:	000005a7 	0x5a7
    26b4:	00058713 	0x58713
    26b8:	05bc0b00 	0x5bc0b00
    26bc:	05970000 	0x5970000
    26c0:	800c0000 	lb	t4,0(zero)
    26c4:	1f000000 	bgtz	t8,26c8 <SROM_BROM_SIZE+0xc8>
    26c8:	012f1d00 	0x12f1d00
    26cc:	e9050000 	swc2	$5,0(t0)
    26d0:	000005c7 	0x5c7
    26d4:	0005ac13 	0x5ac13
    26d8:	05dc0b00 	0x5dc0b00
    26dc:	05970000 	0x5970000
    26e0:	800c0000 	lb	t4,0(zero)
    26e4:	4f000000 	lwxc1	$f0,zero(t8)
    26e8:	02941800 	0x2941800
    26ec:	05050000 	0x5050000
    26f0:	0005e801 	movt	sp,zero,$fcc1
    26f4:	05cc1300 	teqi	t6,4864
    26f8:	fd0b0000 	sdc3	$11,0(t0)
    26fc:	97000005 	lhu	zero,5(t8)
    2700:	0c000005 	jal	14 <SRAM_CARD_GLOBAL_DATA_SIZE+0x4>
    2704:	00000080 	sll	zero,zero,0x2
    2708:	db18007f 	ldc2	$24,127(t8)
    270c:	05000004 	bltz	t0,2720 <SROM_BROM_SIZE+0x120>
    2710:	0609014a 	tgeiu	s0,330
    2714:	ed130000 	swc3	$19,0(t0)
    2718:	0b000005 	j	c000014 <BANK_SPACE+0xbfc0014>
    271c:	0000061e 	0x61e
    2720:	00000597 	0x597
    2724:	0000800c 	syscall	0x200
    2728:	18003700 	blez	zero,1032c <SRAM_BT_CONTROLLER_RCODE_ADDR+0x32c>
    272c:	000000d7 	0xd7
    2730:	2a018e05 	slti	at,s0,-29179
    2734:	13000006 	beqz	t8,2750 <SROM_BROM_SIZE+0x150>
    2738:	0000060e 	0x60e
    273c:	00016b18 	0x16b18
    2740:	01bb0500 	0x1bb0500
    2744:	0000063b 	0x63b
    2748:	00060e13 	0x60e13
    274c:	06500b00 	bltzal	s2,5350 <SRAM_AP_BANK_BACK_AL_1_SIZE+0x1350>
    2750:	05970000 	0x5970000
    2754:	800c0000 	lb	t4,0(zero)
    2758:	8f000000 	lw	zero,0(t8)
    275c:	034d1800 	0x34d1800
    2760:	e8050000 	swc2	$5,0(zero)
    2764:	00065c01 	0x65c01
    2768:	06401300 	bltz	s2,736c <SRAM_AP_BACK_AL_RCODE_1_SIZE+0x36c>
    276c:	55180000 	bnel	t0,t8,2770 <SROM_BROM_SIZE+0x170>
    2770:	05000004 	bltz	t0,2784 <SROM_BROM_SIZE+0x184>
    2774:	066d0249 	0x66d0249
    2778:	40130000 	mfc0	s3,c0_index
    277c:	00000006 	srlv	zero,zero,zero
Disassembly of section .debug_line:

00000000 <.debug_line>:
   0:	000004a1 	0x4a1
   4:	00740002 	0x740002
   8:	01010000 	0x1010000
   c:	000a0efb 	0xa0efb
  10:	01010101 	0x1010101
  14:	01000000 	0x1000000
  18:	2e2e2f2e 	sltiu	t6,s1,12078
  1c:	2f2e2e2f 	sltiu	t6,t9,11823
  20:	702f2e2e 	0x702f2e2e
  24:	725f7073 	0x725f7073
  28:	692f6c65 	0x692f6c65
  2c:	756c636e 	jalx	5b18db8 <BANK_SPACE+0x5ad8db8>
  30:	752f6564 	jalx	4bd9590 <BANK_SPACE+0x4b99590>
  34:	00736f63 	0x736f63
  38:	63627300 	0x63627300
  3c:	6536315f 	0x6536315f
  40:	0000632e 	0x632e
  44:	6f630000 	0x6f630000
  48:	6e6f6d6d 	0x6e6f6d6d
  4c:	0000682e 	0x682e
  50:	79740000 	0x79740000
  54:	2e736570 	sltiu	s3,s3,25968
  58:	00010068 	0x10068
  5c:	63627300 	0x63627300
  60:	636e655f 	0x636e655f
  64:	2e65646f 	sltiu	a1,s3,25711
  68:	00000068 	0x68
  6c:	63627300 	0x63627300
  70:	6261745f 	0x6261745f
  74:	2e73656c 	sltiu	s3,s3,25964
  78:	00000068 	0x68
  7c:	05000000 	bltz	t0,80 <SRAM_CARD_DATA_SIZE>
  80:	c3d00102 	ll	s0,258(s8)
  84:	05f103bf 	bgezal	t7,f84 <SRAM_ASRC_BUF_0_SIZE+0x184>
  88:	274b4d01 	addiu	t3,k0,19713
  8c:	081e08f3 	j	7823cc <BANK_SPACE+0x7423cc>
  90:	2c469c72 	sltiu	a2,v0,-25486
  94:	48482a2c 	0x48482a2c
  98:	9c9c482a 	0x9c9c482a
  9c:	2a2c2c46 	slti	t4,s1,11334
  a0:	482a4848 	0x482a4848
  a4:	2c469c9c 	sltiu	a2,v0,-25444
  a8:	48482a2c 	0x48482a2c
  ac:	b89c482a 	swr	gp,18474(a0)
  b0:	03482a80 	0x3482a80
  b4:	10034770 	beq	zero,v1,11e78 <SRAM_BT_BACK_RCODE_ADDR+0xe78>
  b8:	2b70032b 	slti	s0,k1,811
  bc:	032b1003 	0x32b1003
  c0:	10032b70 	beq	zero,v1,ae84 <SRAM_BT_EXT1_BANK_ADDR+0x684>
  c4:	2b70032b 	slti	s0,k1,811
  c8:	2c471403 	sltiu	a3,v0,5123
  cc:	65292d2a 	0x65292d2a
  d0:	2a2d2c2a 	slti	t5,s1,11306
  d4:	3128292e 	andi	t0,t1,0x292e
  d8:	2c442d27 	sltiu	a0,v0,11559
  dc:	2c452d2c 	sltiu	a1,v0,11564
  e0:	4e262f2d 	c3	0x262f2d
  e4:	672b7a03 	0x672b7a03
  e8:	62122402 	0x62122402
  ec:	d4d4642c 	ldc1	$f20,25644(a2)
  f0:	d4d4d4d4 	ldc1	$f20,-11052(a2)
  f4:	d4d4d4d4 	ldc1	$f20,-11052(a2)
  f8:	46d4d4d4 	c1	0xd4d4d4
  fc:	3202802c 	andi	v0,s0,0x802c
 100:	7e482a13 	0x7e482a13
 104:	470f034f 	c1	0x10f034f
 108:	2a482e47 	slti	t0,s2,11847
 10c:	9d2c2a65 	0x9d2c2a65
 110:	039d2c2a 	0x39d2c2a
 114:	550800cf 	bnel	t0,t0,454 <KERNEL_BANK_A_SIZE+0x54>
 118:	2c492949 	sltiu	t1,v0,10569
 11c:	483b0848 	0x483b0848
 120:	2f03ab08 	sltiu	v1,t8,-21752
 124:	02590363 	0x2590363
 128:	2a2c0128 	slti	t4,s1,296
 12c:	a2034980 	sb	v1,18816(s0)
 130:	8348477f 	lb	t0,18303(k0)
 134:	00d90348 	0xd90348
 138:	7fa60363 	0x7fa60363
 13c:	00da032b 	0xda032b
 140:	7fa10347 	0x7fa10347
 144:	2c832c2b 	sltiu	v1,a0,11307
 148:	00db0362 	0xdb0362
 14c:	7fa5032b 	0x7fa5032b
 150:	00db032b 	0xdb032b
 154:	7fa0032b 	0x7fa0032b
 158:	8083802b 	lb	v1,-32725(a0)
 15c:	6300db03 	0x6300db03
 160:	2b7fa403 	slti	ra,k1,-23549
 164:	6300dc03 	0x6300dc03
 168:	2b7f9f03 	slti	ra,k1,-24829
 16c:	622c832c 	0x622c832c
 170:	4700dd03 	c1	0x100dd03
 174:	477f9e03 	c1	0x17f9e03
 178:	62808380 	0x62808380
 17c:	2b00de03 	slti	zero,t8,-8701
 180:	2b7fa203 	slti	ra,k1,-24061
 184:	2b00de03 	slti	zero,t8,-8701
 188:	2b7f9d03 	slti	ra,k1,-25341
 18c:	62808380 	0x62808380
 190:	2b00df03 	slti	zero,t8,-8445
 194:	2b7fa103 	slti	ra,k1,-24317
 198:	2b00df03 	slti	zero,t8,-8445
 19c:	2b7f9c03 	slti	ra,k1,-25597
 1a0:	62808380 	0x62808380
 1a4:	2b00e003 	slti	zero,t8,-8189
 1a8:	2b7fa003 	slti	ra,k1,-24573
 1ac:	2b00e003 	slti	zero,t8,-8189
 1b0:	2b7f9b03 	slti	ra,k1,-25853
 1b4:	62808380 	0x62808380
 1b8:	2b00e103 	slti	zero,t8,-7933
 1bc:	2b7f9f03 	slti	ra,k1,-24829
 1c0:	2b00e103 	slti	zero,t8,-7933
 1c4:	2b7f9a03 	slti	ra,k1,-26109
 1c8:	62808380 	0x62808380
 1cc:	2b00e203 	slti	zero,t8,-7677
 1d0:	2b7f9e03 	slti	ra,k1,-25085
 1d4:	2b00e203 	slti	zero,t8,-7677
 1d8:	2b7f9903 	slti	ra,k1,-26365
 1dc:	62808380 	0x62808380
 1e0:	2b00e303 	slti	zero,t8,-7421
 1e4:	2b7f9d03 	slti	ra,k1,-25341
 1e8:	2b00e303 	slti	zero,t8,-7421
 1ec:	2b7f9803 	slti	ra,k1,-26621
 1f0:	62808380 	0x62808380
 1f4:	2b00e403 	slti	zero,t8,-7165
 1f8:	2b7f9c03 	slti	ra,k1,-25597
 1fc:	6300e403 	0x6300e403
 200:	2b7f9803 	slti	ra,k1,-26621
 204:	00e40384 	0xe40384
 208:	7f9b039b 	0x7f9b039b
 20c:	00e5032b 	0xe5032b
 210:	7f960347 	0x7f960347
 214:	8083802b 	lb	v1,-32725(a0)
 218:	00e60362 	0xe60362
 21c:	7f950347 	0x7f950347
 220:	2c832c63 	sltiu	v1,a0,11363
 224:	6300e603 	0x6300e603
 228:	2b7f9903 	slti	ra,k1,-26365
 22c:	6300e703 	0x6300e703
 230:	2b7f9403 	slti	ra,k1,-27645
 234:	032c832c 	0x32c832c
 238:	036300e7 	0x36300e7
 23c:	032b7f98 	0x32b7f98
 240:	036300e8 	0x36300e8
 244:	2c2b7f93 	sltiu	t3,at,32659
 248:	03622c83 	0x3622c83
 24c:	654700ea 	0x654700ea
 250:	477f8f03 	c1	0x17f8f03
 254:	62648364 	0x62648364
 258:	2b00ed03 	slti	zero,t8,-4861
 25c:	2b7f9303 	slti	ra,k1,-27901
 260:	2b00ed03 	slti	zero,t8,-4861
 264:	2b7f8e03 	slti	ra,k1,-29181
 268:	03488348 	0x3488348
 26c:	036300ed 	0x36300ed
 270:	032b7f92 	0x32b7f92
 274:	034700ee 	0x34700ee
 278:	9c2b7f8d 	0x9c2b7f8d
 27c:	03629c83 	0x3629c83
 280:	034700ef 	0x34700ef
 284:	48637f8c 	mfhc2	v1,0x7f8c
 288:	ef034883 	swc3	$3,18563(t8)
 28c:	90036300 	lbu	v1,25344(zero)
 290:	f0032b7f 	0xf0032b7f
 294:	8b034700 	lwl	v1,18176(t8)
 298:	839c2b7f 	lb	gp,11135(gp)
 29c:	f103629c 	0xf103629c
 2a0:	8a034700 	lwl	v1,18176(s0)
 2a4:	839c477f 	lb	gp,18303(gp)
 2a8:	f203629c 	0xf203629c
 2ac:	89034700 	lwl	v1,18176(t0)
 2b0:	839c477f 	lb	gp,18303(gp)
 2b4:	f303629c 	0xf303629c
 2b8:	88034700 	lwl	v1,18176(zero)
 2bc:	839c477f 	lb	gp,18303(gp)
 2c0:	f403629c 	sdc1	$f3,25244(zero)
 2c4:	87034700 	lh	v1,18176(t8)
 2c8:	839c477f 	lb	gp,18303(gp)
 2cc:	f503629c 	sdc1	$f3,25244(t0)
 2d0:	86034700 	lh	v1,18176(s0)
 2d4:	839c477f 	lb	gp,18303(gp)
 2d8:	f603629c 	sdc1	$f3,25244(s0)
 2dc:	85034700 	lh	v1,18176(t0)
 2e0:	839c477f 	lb	gp,18303(gp)
 2e4:	f703629c 	sdc1	$f3,25244(t8)
 2e8:	89032b00 	lwl	v1,11008(t0)
 2ec:	f7032b7f 	sdc1	$f3,11135(t8)
 2f0:	85034700 	lh	v1,18176(t0)
 2f4:	62842b7f 	0x62842b7f
 2f8:	4700f803 	c1	0x100f803
 2fc:	477f8303 	c1	0x17f8303
 300:	629c839c 	0x629c839c
 304:	4700f903 	c1	0x100f903
 308:	637f8203 	0x637f8203
 30c:	03488348 	0x3488348
 310:	036300f9 	0x36300f9
 314:	032b7f86 	0x32b7f86
 318:	036300fa 	0x36300fa
 31c:	482b7f81 	0x482b7f81
 320:	03624883 	0x3624883
 324:	032b00fb 	0x32b00fb
 328:	032b7f85 	0x32b7f85
 32c:	034700fb 	0x34700fb
 330:	482b7f80 	0x482b7f80
 334:	03624883 	0x3624883
 338:	f44700fd 	sdc1	$f7,253(v0)
 33c:	039b1d03 	0x39b1d03
 340:	2b4c4710 	slti	t4,k0,18192
 344:	bc82482d 	cache	0x2,18477(a0)
 348:	4f471003 	c3	0x1471003
 34c:	01000102 	0x1000102
 350:	02050001 	movt	zero,s0,$fcc1
 354:	bfc3f809 	cache	0x3,-2039(s8)
 358:	0100d103 	0x100d103
 35c:	2f2c2630 	sltiu	t4,t9,9776
 360:	b92c2a9c 	swr	t4,10908(t1)
 364:	482c462c 	0x482c462c
 368:	452d2949 	0x452d2949
 36c:	30429d2d 	andi	v0,v0,0x9d2d
 370:	01ce034b 	0x1ce034b
 374:	2a2c2cb7 	slti	t4,s1,11447
 378:	1003804a 	beq	zero,v1,fffe04a4 <blk_op+0x403a074c>
 37c:	2f274b63 	sltiu	a3,t9,19299
 380:	679b1003 	0x679b1003
 384:	8129b980 	lb	t1,-18048(t1)
 388:	858c082c 	lh	t4,2092(t4)
 38c:	602b7a03 	0x602b7a03
 390:	66b70d03 	0x66b70d03
 394:	01a40349 	0x1a40349
 398:	48802c47 	0x48802c47
 39c:	489e2f2a 	0x489e2f2a
 3a0:	03d62f2a 	0x3d62f2a
 3a4:	2c6304f2 	sltiu	v1,v1,1266
 3a8:	48262c2e 	0x48262c2e
 3ac:	2e2c494a 	sltiu	t4,s1,18762
 3b0:	2b7a032c 	slti	k0,k1,812
 3b4:	2b7a034e 	slti	k0,k1,846
 3b8:	48484a48 	0x48484a48
 3bc:	027b8603 	0x27b8603
 3c0:	2a2c0132 	slti	t4,s1,306
 3c4:	3b08b848 	xori	t0,t8,0xb848
 3c8:	ef05a603 	swc3	$5,-23037(t8)
 3cc:	80482c2f 	lb	t0,11311(v0)
 3d0:	9d482a2c 	0x9d482a2c
 3d4:	9c2f2c2c 	0x9c2f2c2c
 3d8:	30635303 	andi	v1,v1,0x5303
 3dc:	8049b82c 	lb	t1,-18388(v0)
 3e0:	842a2c80 	lh	t2,11392(at)
 3e4:	4b272f27 	c2	0x1272f27
 3e8:	2b78032d 	slti	t8,k1,813
 3ec:	2c2d2e2e 	sltiu	t5,at,11822
 3f0:	e403f2b9 	swc1	$f3,-3399(zero)
 3f4:	0347637a 	0x347637a
 3f8:	4b482b0b 	c2	0x1482b0b
 3fc:	652c2d29 	0x652c2d29
 400:	b8484848 	swr	t0,18504(v0)
 404:	482c292d 	0x482c292d
 408:	48804880 	0x48804880
 40c:	649c819c 	0x649c819c
 410:	484b8080 	0x484b8080
 414:	66b84b2a 	0x66b84b2a
 418:	16036a68 	bne	s0,v1,1adbc <SRAM_OS_HEAP_ADDR+0x13c>
 41c:	265a0847 	addiu	k0,s2,2119
 420:	2d299d4c 	sltiu	t1,t1,-25268
 424:	03200848 	0x3200848
 428:	4a48d309 	c2	0x48d309
 42c:	03a903f0 	tge	sp,t1,0xf
 430:	2e334847 	sltiu	s3,s1,18503
 434:	47770329 	c1	0x1770329
 438:	802c2d33 	lb	t4,11571(at)
 43c:	482c8080 	0x482c8080
 440:	477a032c 	c1	0x17a032c
 444:	2c2af06b 	sltiu	t2,at,-3989
 448:	6329032b 	0x6329032b
 44c:	032b5703 	0x32b5703
 450:	57032b29 	bnel	t8,v1,b0f8 <SRAM_AP_BANK_FRONT_BASAL_ADDR+0xf8>
 454:	2b290347 	slti	t1,t9,839
 458:	45d35e03 	0x45d35e03
 45c:	2c2c2949 	sltiu	t4,at,10569
 460:	d52c2c9c 	ldc1	$f12,11420(t1)
 464:	2c2c2a2a 	sltiu	t4,at,10794
 468:	802c6448 	lb	t4,25672(at)
 46c:	7f76032c 	0x7f76032c
 470:	9dd30c03 	0x9dd30c03
 474:	49299f2b 	0x49299f2b
 478:	d4482c2a 	ldc1	$f8,11306(v0)
 47c:	2c482c80 	sltiu	t0,v0,11392
 480:	87477a03 	lh	a3,31235(k0)
 484:	2b482a64 	slti	t0,k0,10852
 488:	2949d482 	slti	t1,t2,-11134
 48c:	2a2c2a2c 	slti	t4,s1,10796
 490:	282e284a 	slti	t6,at,10314
 494:	b82e282e 	swr	t6,10286(at)
 498:	992c2c2a 	lwr	t4,11306(t1)
 49c:	39080a03 	xori	t0,t0,0xa03
 4a0:	01000702 	0x1000702
 4a4:	00005201 	0x5201
 4a8:	38000200 	xori	zero,zero,0x200
 4ac:	01000000 	0x1000000
 4b0:	0a0efb01 	j	83bec04 <BANK_SPACE+0x837ec04>
 4b4:	01010100 	0x1010100
 4b8:	00000001 	movf	zero,zero,$fcc0
 4bc:	62730001 	0x62730001
 4c0:	32335f63 	andi	s3,s1,0x5f63
 4c4:	0000632e 	0x632e
 4c8:	6f630000 	0x6f630000
 4cc:	6e6f6d6d 	0x6e6f6d6d
 4d0:	0000682e 	0x682e
 4d4:	62730000 	0x62730000
 4d8:	61745f63 	0x61745f63
 4dc:	73656c62 	0x73656c62
 4e0:	0000682e 	0x682e
 4e4:	00000000 	nop
 4e8:	fd250205 	sdc3	$5,517(t1)
 4ec:	0e03bfc3 	jal	80eff0c <BANK_SPACE+0x80aff0c>
 4f0:	2c2a2e01 	sltiu	t2,at,11777
 4f4:	03022d49 	0x3022d49
 4f8:	87010100 	lh	at,256(t8)
 4fc:	02000000 	0x2000000
 500:	00004a00 	sll	t1,zero,0x8
 504:	fb010100 	sdc2	$1,256(t8)
 508:	01000a0e 	0x1000a0e
 50c:	00010101 	0x10101
 510:	00010000 	sll	zero,at,0x0
 514:	5f636273 	0x5f636273
 518:	6b6e6162 	0x6b6e6162
 51c:	0000632e 	0x632e
 520:	62730000 	0x62730000
 524:	6e655f63 	0x6e655f63
 528:	65646f63 	0x65646f63
 52c:	0000682e 	0x682e
 530:	6f630000 	0x6f630000
 534:	6e6f6d6d 	0x6e6f6d6d
 538:	0000682e 	0x682e
 53c:	62730000 	0x62730000
 540:	61745f63 	0x61745f63
 544:	73656c62 	0x73656c62
 548:	0000682e 	0x682e
 54c:	00000000 	nop
 550:	90010205 	lbu	at,517(zero)
 554:	37031200 	ori	v1,t8,0x1200
 558:	2d292d01 	sltiu	t1,t1,11521
 55c:	bcb82d2a 	cache	0x18,11562(a1)
 560:	2a3026bc 	slti	s0,s1,9916
 564:	2e289e2e 	sltiu	t0,s1,-25042
 568:	2f9b6403 	sltiu	k1,gp,25603
 56c:	272d2d26 	addiu	t5,t9,11558
 570:	2c2c2c2c 	sltiu	t4,at,11308
 574:	1b032c2c 	0x1b032c2c
 578:	ad082c2b 	sw	t0,11307(t0)
 57c:	b9302c2b 	swr	s0,11307(t1)
 580:	000d02b8 	0xd02b8
 584:	00840101 	0x840101
 588:	00020000 	sll	zero,v0,0x0
 58c:	00000068 	0x68
 590:	0efb0101 	jal	bec0404 <BANK_SPACE+0xbe80404>
 594:	0101000a 	movz	zero,t0,at
 598:	00000101 	0x101
 59c:	2f2e0100 	sltiu	t6,t9,256
 5a0:	2e2f2e2e 	sltiu	t7,s1,11822
 5a4:	6e692f2e 	0x6e692f2e
 5a8:	73000063 	0x73000063
 5ac:	655f6362 	0x655f6362
 5b0:	646f636e 	0x646f636e
 5b4:	6e655f65 	0x6e655f65
 5b8:	2e797274 	sltiu	t9,s3,29300
 5bc:	00000063 	0x63
 5c0:	63627300 	0x63627300
 5c4:	636e655f 	0x636e655f
 5c8:	2e65646f 	sltiu	a1,s3,25711
 5cc:	00000068 	0x68
 5d0:	6d6f6300 	0x6d6f6300
 5d4:	2e6e6f6d 	sltiu	t6,s3,28525
 5d8:	00000068 	0x68
 5dc:	63627300 	0x63627300
 5e0:	636e655f 	0x636e655f
 5e4:	5f65646f 	0x5f65646f
 5e8:	65746e69 	0x65746e69
 5ec:	63616672 	0x63616672
 5f0:	00682e65 	0x682e65
 5f4:	00000001 	movf	zero,zero,$fcc0
 5f8:	35020500 	ori	v0,t0,0x500
 5fc:	03bfc3fd 	0x3bfc3fd
 600:	0c03010b 	jal	c042c <BANK_SPACE+0x8042c>
 604:	080a032b 	j	280cac <BANK_SPACE+0x240cac>
 608:	000302a9 	0x302a9
 60c:	003a0101 	0x3a0101
 610:	00020000 	sll	zero,v0,0x0
 614:	00000025 	move	zero,zero
 618:	0efb0101 	jal	bec0404 <BANK_SPACE+0xbe80404>
 61c:	0101000a 	movz	zero,t0,at
 620:	00000101 	0x101
 624:	73000100 	0x73000100
 628:	655f6362 	0x655f6362
 62c:	646f636e 	0x646f636e
 630:	78655f65 	0x78655f65
 634:	632e7469 	0x632e7469
 638:	00000000 	nop
 63c:	02050000 	0x2050000
 640:	2200942d 	addi	zero,s0,-27603
 644:	02011c03 	0x2011c03
 648:	01010003 	0x1010003
 64c:	0000003c 	0x3c
 650:	00250002 	ror	zero,a1,0x0
 654:	01010000 	0x1010000
 658:	000a0efb 	0xa0efb
 65c:	01010101 	0x1010101
 660:	01000000 	0x1000000
 664:	63627300 	0x63627300
 668:	636e655f 	0x636e655f
 66c:	5f65646f 	0x5f65646f
 670:	74696e69 	jalx	1a5b9a4 <BANK_SPACE+0x1a1b9a4>
 674:	0000632e 	0x632e
 678:	00000000 	nop
 67c:	94010205 	lhu	at,517(zero)
 680:	1a032200 	0x1a032200
 684:	02b92c01 	0x2b92c01
 688:	0101001d 	0x101001d
 68c:	00000035 	0x35
 690:	002f0002 	ror	zero,t7,0x0
 694:	01010000 	0x1010000
 698:	000a0efb 	0xa0efb
 69c:	01010101 	0x1010101
 6a0:	01000000 	0x1000000
 6a4:	63627300 	0x63627300
 6a8:	636e655f 	0x636e655f
 6ac:	5f65646f 	0x5f65646f
 6b0:	646f6372 	0x646f6372
 6b4:	706f5f65 	0x706f5f65
 6b8:	746e655f 	jalx	1b9957c <BANK_SPACE+0x1b5957c>
 6bc:	632e7972 	0x632e7972
 6c0:	00000000 	nop
 6c4:	0001eb00 	sll	sp,at,0xc
 6c8:	b6000200 	0xb6000200
 6cc:	01000000 	0x1000000
 6d0:	0a0efb01 	j	83bec04 <BANK_SPACE+0x837ec04>
 6d4:	01010100 	0x1010100
 6d8:	00000001 	movf	zero,zero,$fcc0
 6dc:	2e2f2e01 	sltiu	t7,s1,11777
 6e0:	2e2e2f2e 	sltiu	t6,s1,12078
 6e4:	7672642f 	jalx	9c990bc <BANK_SPACE+0x9c590bc>
 6e8:	6362732f 	0x6362732f
 6ec:	636e655f 	0x636e655f
 6f0:	2f65646f 	sltiu	a1,k1,25711
 6f4:	7370696d 	0x7370696d
 6f8:	2e003233 	sltiu	zero,s0,12851
 6fc:	2f2e2e2f 	sltiu	t6,t9,11823
 700:	642f2e2e 	0x642f2e2e
 704:	732f7672 	0x732f7672
 708:	655f6362 	0x655f6362
 70c:	646f636e 	0x646f636e
 710:	696d2f65 	0x696d2f65
 714:	32337370 	andi	s3,s1,0x7370
 718:	2e2f2e2f 	sltiu	t7,s1,11823
 71c:	2f2e002e 	sltiu	t6,t9,46
 720:	2e2f2e2e 	sltiu	t7,s1,11822
 724:	2e2e2f2e 	sltiu	t6,s1,12078
 728:	7073702f 	0x7073702f
 72c:	6c65725f 	0x6c65725f
 730:	636e692f 	0x636e692f
 734:	6564756c 	0x6564756c
 738:	6f63752f 	0x6f63752f
 73c:	73000073 	0x73000073
 740:	335f6362 	andi	ra,k0,0x6362
 744:	2e315f32 	sltiu	s1,s1,24370
 748:	00010063 	0x10063
 74c:	63627300 	0x63627300
 750:	636e655f 	0x636e655f
 754:	2e65646f 	sltiu	a1,s3,25711
 758:	00020068 	0x20068
 75c:	6d6f6300 	0x6d6f6300
 760:	2e6e6f6d 	sltiu	t6,s3,28525
 764:	00020068 	0x20068
 768:	70797400 	0x70797400
 76c:	682e7365 	0x682e7365
 770:	00000300 	sll	zero,zero,0xc
 774:	5f636273 	0x5f636273
 778:	6c626174 	0x6c626174
 77c:	682e7365 	0x682e7365
 780:	00000200 	sll	zero,zero,0x8
 784:	02050000 	0x2050000
 788:	bfc3d7fc 	cache	0x3,-10244(s8)
 78c:	03010e03 	0x3010e03
 790:	03b700d7 	0x3b700d7
 794:	03477fa9 	0x3477fa9
 798:	034700d7 	0x34700d7
 79c:	03b77fa9 	0x3b77fa9
 7a0:	834700d7 	lb	a3,215(k0)
 7a4:	b8470a03 	swr	a3,2563(v0)
 7a8:	b8103802 	swr	s0,14338(zero)
 7ac:	8048ba81 	lb	t0,-17791(v0)
 7b0:	73034981 	0x73034981
 7b4:	470d0347 	c1	0x10d0347
 7b8:	08477303 	j	11dcc0c <BANK_SPACE+0x119cc0c>
 7bc:	16037e39 	bne	s0,v1,200a4 <SRAM_DSP_IRQ_TABLE_ADDR+0xa4>
 7c0:	4b4845ef 	c2	0x14845ef
 7c4:	80484946 	lb	t0,18758(v0)
 7c8:	444a3a08 	0x444a3a08
 7cc:	488080b7 	0x488080b7
 7d0:	b7f7b67b 	0xb7f7b67b
 7d4:	4b488081 	c2	0x1488081
 7d8:	3c083a08 	lui	t0,0x3a08
 7dc:	80434b44 	lb	v1,19268(v0)
 7e0:	7a038082 	0x7a038082
 7e4:	037e4747 	0x37e4747
 7e8:	7003ef1c 	udi12	zero,v1,sp,0x1c
 7ec:	47100347 	c1	0x1100347
 7f0:	08730347 	j	1cc0d1c <BANK_SPACE+0x1c80d1c>
 7f4:	443c0839 	0x443c0839
 7f8:	8047817f 	lb	a3,-32385(v0)
 7fc:	4948aa08 	0x4948aa08
 800:	80474881 	lb	a3,18561(v0)
 804:	10037f81 	beq	zero,v1,2060c <SRAM_AP_BANK_FRONT_CONTROL_ADDR+0x40c>
 808:	4773037f 	c1	0x173037f
 80c:	47470d03 	c1	0x1470d03
 810:	08b77603 	j	2ddd80c <BANK_SPACE+0x2d9d80c>
 814:	49488071 	0x49488071
 818:	80474881 	lb	a3,18561(v0)
 81c:	03847f81 	0x3847f81
 820:	1103ef32 	beq	t0,v1,ffffc4ec <blk_op+0x403bc794>
 824:	7f6f037f 	0x7f6f037f
 828:	e1081303 	sc	t0,4867(t0)
 82c:	03476d03 	0x3476d03
 830:	03b94713 	0x3b94713
 834:	1503476b 	bne	t0,v1,125e4 <SRAM_BT_BACK_RCODE_ADDR+0x15e4>
 838:	7003f147 	0x7003f147
 83c:	47100347 	c1	0x1100347
 840:	476703f1 	c1	0x16703f1
 844:	03471903 	0x3471903
 848:	1403b76e 	bne	zero,v1,fffee604 <blk_op+0x403ae8ac>
 84c:	670345b7 	0x670345b7
 850:	03484947 	0x3484947
 854:	84b74718 	lh	s7,18200(a1)
 858:	08ef8586 	j	3be1618 <BANK_SPACE+0x3ba1618>
 85c:	4a488539 	c2	0x488539
 860:	804a487b 	lb	t2,18555(v0)
 864:	48112c02 	0x48112c02
 868:	f03a084a 	0xf03a084a
 86c:	44b945f1 	0x44b945f1
 870:	ac08434c 	sw	t0,17228(zero)
 874:	48464846 	0x48464846
 878:	ef0b03ea 	swc3	$11,1002(t8)
 87c:	38028047 	xori	v0,zero,0x8047
 880:	f0b9f111 	0xf0b9f111
 884:	3c08aa08 	lui	t0,0xaa08
 888:	4b438244 	c2	0x1438244
 88c:	0b03ed44 	j	c0fb510 <BANK_SPACE+0xc0bb510>
 890:	08807fef 	j	201ffbc <BANK_SPACE+0x1fdffbc>
 894:	4945f13a 	0x4945f13a
 898:	8343bb82 	lb	v1,-17534(k0)
 89c:	4b434b43 	c2	0x1434b43
 8a0:	2c027603 	sltiu	v0,zero,30211
 8a4:	03380801 	movf	at,t9,$fcc6
 8a8:	e108ef11 	sc	t0,-4335(t0)
 8ac:	0248ab08 	0x248ab08
 8b0:	01010030 	tge	t0,at
Disassembly of section .debug_frame:

00000000 <.debug_frame>:
   0:	0000000c 	syscall
   4:	ffffffff 	sdc3	$31,-1(ra)
   8:	04010001 	b	10 <SRAM_CARD_GLOBAL_DATA_SIZE>
   c:	001d0c1f 	0x1d0c1f
  10:	00000018 	mult	zero,zero
  14:	00000000 	nop
  18:	bfc3f809 	cache	0x3,-2039(s8)
  1c:	00000057 	0x57
  20:	0e040e42 	jal	8103908 <BANK_SPACE+0x80c3908>
  24:	7e101108 	0x7e101108
  28:	007f1111 	0x7f1111
  2c:	00000014 	0x14
  30:	00000000 	nop
  34:	bfc3f865 	cache	0x3,-1947(s8)
  38:	00000017 	0x17
  3c:	0e040e42 	jal	8103908 <BANK_SPACE+0x80c3908>
  40:	7f1f1118 	0x7f1f1118
  44:	00000020 	add	zero,zero,zero
  48:	00000000 	nop
  4c:	bfc3f87d 	cache	0x3,-1923(s8)
  50:	0000007b 	0x7b
  54:	0e040e44 	jal	8103910 <BANK_SPACE+0x80c3910>
  58:	0e0c0e08 	jal	8303820 <BANK_SPACE+0x82c3820>
  5c:	7d101130 	dpaq_s.w.ph	$ac2,t0,s0
  60:	117e1111 	beq	t3,s8,44a8 <SRAM_AP_BANK_BACK_AL_1_SIZE+0x4a8>
  64:	00007f1f 	0x7f1f
  68:	00000014 	0x14
  6c:	00000000 	nop
  70:	bfc3f8f9 	cache	0x3,-1799(s8)
  74:	00000037 	0x37
  78:	0e040e42 	jal	8103908 <BANK_SPACE+0x80c3908>
  7c:	7f1f1120 	0x7f1f1120
  80:	0000000c 	syscall
  84:	00000000 	nop
  88:	bfc3f931 	cache	0x3,-1743(s8)
  8c:	00000037 	0x37
  90:	00000020 	add	zero,zero,zero
  94:	00000000 	nop
  98:	bfc3f995 	cache	0x3,-1643(s8)
  9c:	00000033 	tltu	zero,zero
  a0:	0e040e42 	jal	8103908 <BANK_SPACE+0x80c3908>
  a4:	0e0c0e08 	jal	8303820 <BANK_SPACE+0x82c3820>
  a8:	7d101120 	0x7d101120
  ac:	117e1111 	beq	t3,s8,44f4 <SRAM_AP_BANK_BACK_AL_1_SIZE+0x4f4>
  b0:	00007f1f 	0x7f1f
  b4:	0000000c 	syscall
  b8:	00000000 	nop
  bc:	bfc3f9cd 	cache	0x3,-1587(s8)
  c0:	00000037 	0x37
  c4:	00000014 	0x14
  c8:	00000000 	nop
  cc:	bfc3fa05 	cache	0x3,-1531(s8)
  d0:	00000067 	0x67
  d4:	0e040e42 	jal	8103908 <BANK_SPACE+0x80c3908>
  d8:	7f101108 	0x7f101108
  dc:	00000020 	add	zero,zero,zero
  e0:	00000000 	nop
  e4:	bfc3fa6d 	cache	0x3,-1427(s8)
  e8:	0000011f 	0x11f
  ec:	0e040e44 	jal	8103910 <BANK_SPACE+0x80c3910>
  f0:	0e0c0e08 	jal	8303820 <BANK_SPACE+0x82c3820>
  f4:	7d101130 	dpaq_s.w.ph	$ac2,t0,s0
  f8:	117e1111 	beq	t3,s8,4540 <SRAM_AP_BANK_BACK_AL_1_SIZE+0x540>
  fc:	00007f1f 	0x7f1f
 100:	0000001c 	0x1c
 104:	00000000 	nop
 108:	bfc3d001 	cache	0x3,-12287(s8)
 10c:	00000273 	tltu	zero,zero,0x9
 110:	0e040e44 	jal	8103910 <BANK_SPACE+0x80c3910>
 114:	11680e08 	beq	t3,t0,3938 <SROM_STUB_ADDR+0x38>
 118:	11117e10 	beq	t0,s1,1f95c <SRAM_KEY_MESSAGE_RCODE_ADDR+0x15c>
 11c:	0000007f 	0x7f
 120:	0000000c 	syscall
 124:	00000000 	nop
 128:	bfc3d275 	cache	0x3,-11659(s8)
 12c:	00000003 	sra	zero,zero,0x0
 130:	00000020 	add	zero,zero,zero
 134:	00000000 	nop
 138:	bfc3d279 	cache	0x3,-11655(s8)
 13c:	0000003b 	0x3b
 140:	0e040e44 	jal	8103910 <BANK_SPACE+0x80c3910>
 144:	0e0c0e08 	jal	8303820 <BANK_SPACE+0x82c3820>
 148:	7d101120 	0x7d101120
 14c:	117e1111 	beq	t3,s8,4594 <SRAM_AP_BANK_BACK_AL_1_SIZE+0x594>
 150:	00007f1f 	0x7f1f
 154:	00000020 	add	zero,zero,zero
 158:	00000000 	nop
 15c:	bfc3d2bd 	cache	0x3,-11587(s8)
 160:	0000050b 	0x50b
 164:	0e040e44 	jal	8103910 <BANK_SPACE+0x80c3910>
 168:	0e0c0e08 	jal	8303820 <BANK_SPACE+0x82c3820>
 16c:	7d101128 	0x7d101128
 170:	117e1111 	beq	t3,s8,45b8 <SRAM_AP_BANK_BACK_AL_1_SIZE+0x5b8>
 174:	00007f1f 	0x7f1f
 178:	0000000c 	syscall
 17c:	00000000 	nop
 180:	bfc3d7cd 	cache	0x3,-10291(s8)
 184:	00000003 	sra	zero,zero,0x0
 188:	0000000c 	syscall
 18c:	00000000 	nop
 190:	bfc3d7d1 	cache	0x3,-10287(s8)
 194:	00000003 	sra	zero,zero,0x0
 198:	00000014 	0x14
 19c:	00000000 	nop
 1a0:	bfc3d7d5 	cache	0x3,-10283(s8)
 1a4:	0000001f 	0x1f
 1a8:	0e040e42 	jal	8103908 <BANK_SPACE+0x80c3908>
 1ac:	7f1f1120 	0x7f1f1120
 1b0:	0000000c 	syscall
 1b4:	00000000 	nop
 1b8:	bfc3d7f5 	cache	0x3,-10251(s8)
 1bc:	00000003 	sra	zero,zero,0x0
 1c0:	0000000c 	syscall
 1c4:	00000000 	nop
 1c8:	bfc3d7f9 	cache	0x3,-10247(s8)
 1cc:	00000001 	movf	zero,zero,$fcc0
 1d0:	00000020 	add	zero,zero,zero
 1d4:	00000000 	nop
 1d8:	bfc3fb8d 	cache	0x3,-1139(s8)
 1dc:	00000197 	0x197
 1e0:	0e040e44 	jal	8103910 <BANK_SPACE+0x80c3910>
 1e4:	0e0c0e08 	jal	8303820 <BANK_SPACE+0x82c3820>
 1e8:	101101c0 	beq	zero,s1,8ec <SRAM_OS_DATA_SIZE+0x6c>
 1ec:	7e11117d 	0x7e11117d
 1f0:	007f1f11 	0x7f1f11
 1f4:	0000000c 	syscall
 1f8:	ffffffff 	sdc3	$31,-1(ra)
 1fc:	04010001 	b	204 <SRAM_APPLIB_DATA_SIZE+0x4>
 200:	001d0c1f 	0x1d0c1f
 204:	0000000c 	syscall
 208:	000001f4 	teq	zero,zero,0x7
 20c:	bfc3fd25 	cache	0x3,-731(s8)
 210:	0000000f 	sync
 214:	0000000c 	syscall
 218:	ffffffff 	sdc3	$31,-1(ra)
 21c:	04010001 	b	224 <SRAM_AP_RCP_COMMAND_BUFFER_SIZE+0x4>
 220:	001d0c1f 	0x1d0c1f
 224:	00000020 	add	zero,zero,zero
 228:	00000214 	0x214
 22c:	12009001 	beqz	s0,fffe4234 <blk_op+0x403a44dc>
 230:	0000006f 	0x6f
 234:	0e040e42 	jal	8103908 <BANK_SPACE+0x80c3908>
 238:	0e0c0e08 	jal	8303820 <BANK_SPACE+0x82c3820>
 23c:	7d101120 	0x7d101120
 240:	117e1111 	beq	t3,s8,4688 <SRAM_AP_BANK_BACK_AL_1_SIZE+0x688>
 244:	00007f1f 	0x7f1f
 248:	0000001c 	0x1c
 24c:	00000214 	0x214
 250:	12009085 	beqz	s0,fffe4468 <blk_op+0x403a4710>
 254:	00000023 	negu	zero,zero
 258:	0e040e42 	jal	8103908 <BANK_SPACE+0x80c3908>
 25c:	11180e08 	beq	t0,t8,3a80 <SROM_STUB_ADDR+0x180>
 260:	1f117e10 	0x1f117e10
 264:	0000007f 	0x7f
 268:	0000000c 	syscall
 26c:	ffffffff 	sdc3	$31,-1(ra)
 270:	04010001 	b	278 <SRAM_AP_RCP_COMMAND_BUFFER_SIZE+0x58>
 274:	001d0c1f 	0x1d0c1f
 278:	0000001c 	0x1c
 27c:	00000268 	0x268
 280:	bfc3fd35 	cache	0x3,-715(s8)
 284:	00000021 	move	zero,zero
 288:	0e040e42 	jal	8103908 <BANK_SPACE+0x80c3908>
 28c:	11280e08 	beq	t1,t0,3ab0 <SROM_STUB_ADDR+0x1b0>
 290:	1f117e10 	0x1f117e10
 294:	0000007f 	0x7f
 298:	0000000c 	syscall
 29c:	ffffffff 	sdc3	$31,-1(ra)
 2a0:	04010001 	b	2a8 <SRAM_AP_RCP_COMMAND_BUFFER_SIZE+0x88>
 2a4:	001d0c1f 	0x1d0c1f
 2a8:	0000000c 	syscall
 2ac:	00000298 	0x298
 2b0:	2200942d 	addi	zero,s0,-27603
 2b4:	00000003 	sra	zero,zero,0x0
 2b8:	0000000c 	syscall
 2bc:	ffffffff 	sdc3	$31,-1(ra)
 2c0:	04010001 	b	2c8 <SRAM_AP_RCP_COMMAND_BUFFER_SIZE+0xa8>
 2c4:	001d0c1f 	0x1d0c1f
 2c8:	00000014 	0x14
 2cc:	000002b8 	0x2b8
 2d0:	22009401 	addi	zero,s0,-27647
 2d4:	00000013 	mtlo	zero
 2d8:	0e040e42 	jal	8103908 <BANK_SPACE+0x80c3908>
 2dc:	7f1f1118 	0x7f1f1118
 2e0:	0000000c 	syscall
 2e4:	ffffffff 	sdc3	$31,-1(ra)
 2e8:	04010001 	b	2f0 <SRAM_AP_RCP_COMMAND_BUFFER_SIZE+0xd0>
 2ec:	001d0c1f 	0x1d0c1f
 2f0:	00000018 	mult	zero,zero
 2f4:	000002e0 	0x2e0
 2f8:	bfc3d7fc 	cache	0x3,-10244(s8)
 2fc:	0000031c 	0x31c
 300:	48480e44 	0x48480e44
 304:	117e1011 	beq	t3,s8,434c <SRAM_AP_BANK_BACK_AL_1_SIZE+0x34c>
 308:	00007f11 	0x7f11
 30c:	00000030 	tge	zero,zero
 310:	000002e0 	0x2e0
 314:	bfc3db18 	cache	0x3,-9448(s8)
 318:	000003ec 	0x3ec
 31c:	02880e44 	0x2880e44
 320:	77111144 	jalx	c444510 <BANK_SPACE+0xc404510>
 324:	76101168 	jalx	84045a0 <BANK_SPACE+0x83c45a0>
 328:	117c1611 	beq	t3,gp,5b70 <SRAM_AP_BANK_BACK_AL_1_SIZE+0x1b70>
 32c:	12117e1f 	beq	s0,s1,1fbac <SRAM_KEY_MESSAGE_RCODE_ADDR+0x3ac>
 330:	79131178 	0x79131178
 334:	117a1411 	beq	t3,k0,537c <SRAM_AP_BANK_BACK_AL_1_SIZE+0x137c>
 338:	17117b15 	bne	t8,s1,1ef90 <SRAM_AP_FRONT_RCODE_ADDR+0x690>
 33c:	0000007d 	0x7d
Disassembly of section .debug_pubnames:

00000000 <.debug_pubnames>:
   0:	000000e1 	0xe1
   4:	00000002 	srl	zero,zero,0x0
   8:	15f10000 	bne	t7,s1,c <DRV_GROUP_BT>
   c:	04ab0000 	tltiu	a1,0
  10:	62730000 	0x62730000
  14:	72635f63 	0x72635f63
  18:	17003863 	bnez	t8,e1a8 <SRAM_ASRC_BUF_0_ADDR+0x1a8>
  1c:	73000005 	msubu	t8,zero
  20:	635f6362 	0x635f6362
  24:	75636c61 	jalx	58db184 <BANK_SPACE+0x589b184>
  28:	6574616c 	0x6574616c
  2c:	7469625f 	jalx	1a5897c <BANK_SPACE+0x1a1897c>
  30:	056d0073 	0x56d0073
  34:	62730000 	0x62730000
  38:	6e615f63 	0x6e615f63
  3c:	7a796c61 	0x7a796c61
  40:	75615f65 	jalx	5857d94 <BANK_SPACE+0x5817d94>
  44:	006f6964 	0x6f6964
  48:	000005da 	0x5da
  4c:	5f636273 	0x5f636273
  50:	6b636170 	0x6b636170
  54:	6172665f 	0x6172665f
  58:	3500656d 	ori	zero,t0,0x656d
  5c:	73000006 	0x73000006
  60:	695f6362 	0x695f6362
  64:	5f74696e 	0x5f74696e
  68:	6d697270 	0x6d697270
  6c:	76697469 	jalx	9a5d1a4 <BANK_SPACE+0x9a1d1a4>
  70:	5c007365 	bgtzl	zero,1ce08 <SRAM_OS_TASK_STACK_ADDR+0x1808>
  74:	73000006 	0x73000006
  78:	655f6362 	0x655f6362
  7c:	646f636e 	0x646f636e
  80:	695f7265 	0x695f7265
  84:	0074696e 	0x74696e
  88:	00000691 	0x691
  8c:	5f636273 	0x5f636273
  90:	5f746567 	0x5f746567
  94:	65646f63 	0x65646f63
  98:	657a6973 	0x657a6973
  9c:	00070c00 	sll	at,a3,0x10
  a0:	63627300 	0x63627300
  a4:	7465675f 	jalx	1959d7c <BANK_SPACE+0x1919d7c>
  a8:	6172665f 	0x6172665f
  ac:	6c5f656d 	0x6c5f656d
  b0:	74676e65 	jalx	19db994 <BANK_SPACE+0x199b994>
  b4:	07970068 	0x7970068
  b8:	62730000 	0x62730000
  bc:	6e655f63 	0x6e655f63
  c0:	65646f63 	0x65646f63
  c4:	0012c900 	sll	t9,s2,0x4
  c8:	63627300 	0x63627300
  cc:	6c61635f 	0x6c61635f
  d0:	63735f63 	0x63735f63
  d4:	66656c61 	0x66656c61
  d8:	6f746361 	0x6f746361
  dc:	6a5f7372 	0x6a5f7372
  e0:	00000000 	nop
  e4:	00001a00 	sll	v1,zero,0x8
  e8:	f1000200 	0xf1000200
  ec:	df000015 	ldc3	$0,21(t8)
  f0:	9d000002 	0x9d000002
  f4:	73000000 	madd	t8,zero
  f8:	635f6362 	0x635f6362
  fc:	00007a6c 	0x7a6c
 100:	2a000000 	slti	zero,s0,0
 104:	02000000 	0x2000000
 108:	0018d000 	sll	k0,t8,0x0
 10c:	0003ee00 	sll	sp,v1,0x18
 110:	00014300 	sll	t0,at,0xc
 114:	63627300 	0x63627300
 118:	696e695f 	0x696e695f
 11c:	01bb0074 	teq	t5,k1,0x1
 120:	62730000 	0x62730000
 124:	69665f63 	0x69665f63
 128:	6873696e 	0x6873696e
 12c:	00000000 	nop
 130:	00002300 	sll	a0,zero,0xc
 134:	be000200 	cache	0x0,512(s0)
 138:	0c00001c 	jal	70 <AP_BANK_BACK_CODEC>
 13c:	ab000002 	swl	zero,2(t8)
 140:	73000001 	maddu	t8,zero
 144:	655f6362 	0x655f6362
 148:	646f636e 	0x646f636e
 14c:	6e655f65 	0x6e655f65
 150:	00797274 	teq	v1,t9,0x1c9
 154:	00000000 	nop
 158:	00000022 	neg	zero,zero
 15c:	1eca0002 	0x1eca0002
 160:	009f0000 	0x9f0000
 164:	00870000 	0x870000
 168:	62730000 	0x62730000
 16c:	6e655f63 	0x6e655f63
 170:	65646f63 	0x65646f63
 174:	6978655f 	0x6978655f
 178:	00000074 	teq	zero,zero,0x1
 17c:	00220000 	0x220000
 180:	00020000 	sll	zero,v0,0x0
 184:	00001f69 	0x1f69
 188:	0000009f 	0x9f
 18c:	00000087 	0x87
 190:	5f636273 	0x5f636273
 194:	6f636e65 	0x6f636e65
 198:	695f6564 	0x695f6564
 19c:	0074696e 	0x74696e
 1a0:	00000000 	nop
 1a4:	00000019 	multu	zero,zero
 1a8:	20080002 	addi	t0,zero,2
 1ac:	01050000 	0x1050000
 1b0:	00f20000 	0xf20000
 1b4:	6c620000 	0x6c620000
 1b8:	706f5f6b 	0x706f5f6b
 1bc:	00000000 	nop
 1c0:	00004a00 	sll	t1,zero,0x8
 1c4:	0d000200 	jal	4000800 <BANK_SPACE+0x3fc0800>
 1c8:	73000021 	clo	zero,t8
 1cc:	0e000006 	jal	8000018 <BANK_SPACE+0x7fc0018>
 1d0:	73000002 	mul	zero,t8,zero
 1d4:	635f6362 	0x635f6362
 1d8:	75636c61 	jalx	58db184 <BANK_SPACE+0x589b184>
 1dc:	6574616c 	0x6574616c
 1e0:	7469625f 	jalx	1a5897c <BANK_SPACE+0x1a1897c>
 1e4:	6e695f73 	0x6e695f73
 1e8:	6e726574 	0x6e726574
 1ec:	01006c61 	0x1006c61
 1f0:	73000003 	0x73000003
 1f4:	705f6362 	0x705f6362
 1f8:	5f6b6361 	0x5f6b6361
 1fc:	6d617266 	0x6d617266
 200:	6e695f65 	0x6e695f65
 204:	6e726574 	0x6e726574
 208:	00006c61 	0x6c61
 20c:	Address 0x20c is out of bounds.

Disassembly of section .debug_aranges:

00000000 <.debug_aranges>:
   0:	0000006c 	0x6c
   4:	00000002 	srl	zero,zero,0x0
   8:	00040000 	sll	zero,a0,0x0
   c:	00000000 	nop
  10:	bfc3d000 	cache	0x3,-12288(s8)
  14:	000007fa 	0x7fa
  18:	bfc3f809 	cache	0x3,-2039(s8)
  1c:	00000057 	0x57
  20:	bfc3f865 	cache	0x3,-1947(s8)
  24:	00000017 	0x17
  28:	bfc3f87d 	cache	0x3,-1923(s8)
  2c:	0000007b 	0x7b
  30:	bfc3f8f9 	cache	0x3,-1799(s8)
  34:	00000037 	0x37
  38:	bfc3f931 	cache	0x3,-1743(s8)
  3c:	00000037 	0x37
  40:	bfc3f995 	cache	0x3,-1643(s8)
  44:	00000033 	tltu	zero,zero
  48:	bfc3f9cd 	cache	0x3,-1587(s8)
  4c:	00000037 	0x37
  50:	bfc3fa05 	cache	0x3,-1531(s8)
  54:	00000067 	0x67
  58:	bfc3fa6d 	cache	0x3,-1427(s8)
  5c:	0000011f 	0x11f
  60:	bfc3fb8d 	cache	0x3,-1139(s8)
  64:	00000197 	0x197
	...
  70:	0000001c 	0x1c
  74:	15f10002 	bne	t7,s1,80 <SRAM_CARD_DATA_SIZE>
  78:	00040000 	sll	zero,a0,0x0
  7c:	00000000 	nop
  80:	bfc3fd24 	cache	0x3,-732(s8)
  84:	00000010 	mfhi	zero
	...
  90:	0000001c 	0x1c
  94:	18d00002 	0x18d00002
  98:	00040000 	sll	zero,a0,0x0
  9c:	00000000 	nop
  a0:	12009000 	beqz	s0,fffe40a4 <blk_op+0x403a434c>
  a4:	000000b0 	tge	zero,zero,0x2
	...
  b0:	0000001c 	0x1c
  b4:	1cbe0002 	0x1cbe0002
  b8:	00040000 	sll	zero,a0,0x0
  bc:	00000000 	nop
  c0:	bfc3fd34 	cache	0x3,-716(s8)
  c4:	00000022 	neg	zero,zero
	...
  d0:	0000001c 	0x1c
  d4:	1eca0002 	0x1eca0002
  d8:	00040000 	sll	zero,a0,0x0
  dc:	00000000 	nop
  e0:	2200942c 	addi	zero,s0,-27604
  e4:	00000004 	sllv	zero,zero,zero
	...
  f0:	0000001c 	0x1c
  f4:	1f690002 	0x1f690002
  f8:	00040000 	sll	zero,a0,0x0
  fc:	00000000 	nop
 100:	22009400 	addi	zero,s0,-27648
 104:	0000002c 	0x2c
	...
 110:	0000001c 	0x1c
 114:	210d0002 	addi	t5,t0,2
 118:	00040000 	sll	zero,a0,0x0
 11c:	00000000 	nop
 120:	bfc3d7fc 	cache	0x3,-10244(s8)
 124:	00000708 	0x708
	...
Disassembly of section .debug_ranges:

00000000 <.debug_ranges>:
   0:	bfc3f837 	cache	0x3,-1993(s8)
   4:	bfc3f853 	cache	0x3,-1965(s8)
   8:	bfc3f855 	cache	0x3,-1963(s8)
   c:	bfc3f859 	cache	0x3,-1959(s8)
	...
Disassembly of section .debug_str:

00000000 <.debug_str>:
   0:	6e696f6a 	0x6e696f6a
   4:	74700074 	jalx	1c001d0 <BANK_SPACE+0x1bc01d0>
   8:	00363172 	tlt	at,s6,0xc5
   c:	6d6e7973 	0x6d6e7973
  10:	69727461 	0x69727461
  14:	73003478 	0x73003478
  18:	615f6362 	0x615f6362
  1c:	796c616e 	0x796c616e
  20:	345f657a 	ori	ra,v0,0x657a
  24:	73385f62 	0x73385f62
  28:	63627300 	0x63627300
  2c:	6172665f 	0x6172665f
  30:	7300656d 	0x7300656d
  34:	615f6362 	0x615f6362
  38:	796c616e 	0x796c616e
  3c:	345f657a 	ori	ra,v0,0x657a
  40:	73385f62 	0x73385f62
  44:	6d69735f 	0x6d69735f
  48:	62730064 	0x62730064
  4c:	6e655f63 	0x6e655f63
  50:	72705f63 	0x72705f63
  54:	7365636f 	0x7365636f
  58:	6e695f73 	0x6e695f73
  5c:	5f747570 	0x5f747570
  60:	6c5f7334 	0x6c5f7334
  64:	72660065 	0x72660065
  68:	6c656d61 	0x6c656d61
  6c:	73006e65 	0x73006e65
  70:	675f6362 	0x675f6362
  74:	635f7465 	0x635f7465
  78:	7365646f 	0x7365646f
  7c:	00657a69 	0x657a69
  80:	7a697373 	0x7a697373
  84:	00745f65 	0x745f65
  88:	7074756f 	0x7074756f
  8c:	73007475 	0x73007475
  90:	616d6e79 	0x616d6e79
  94:	78697274 	0x78697274
  98:	75730038 	jalx	5cc00e0 <BANK_SPACE+0x5c800e0>
  9c:	6e616262 	0x6e616262
  a0:	6f6d5f64 	0x6f6d5f64
  a4:	73006564 	0x73006564
  a8:	615f6362 	0x615f6362
  ac:	796c616e 	0x796c616e
  b0:	615f657a 	0x615f657a
  b4:	6f696475 	0x6f696475
  b8:	63627300 	0x63627300
  bc:	7274735f 	udi15	s3,s4,t6,0xd
  c0:	00746375 	0x746375
  c4:	5f636273 	0x5f636273
  c8:	636c6163 	0x636c6163
  cc:	74616c75 	jalx	185b1d4 <BANK_SPACE+0x181b1d4>
  d0:	69625f65 	0x69625f65
  d4:	61007374 	0x61007374
  d8:	796c616e 	0x796c616e
  dc:	5f736973 	0x5f736973
  e0:	736e6f63 	0x736e6f63
  e4:	665f7374 	0x665f7374
  e8:	64657869 	0x64657869
  ec:	69735f34 	0x69735f34
  f0:	655f646d 	0x655f646d
  f4:	006e6576 	tne	v1,t6,0x195
  f8:	5f636273 	0x5f636273
  fc:	636c6163 	0x636c6163
 100:	6163735f 	0x6163735f
 104:	6166656c 	0x6166656c
 108:	726f7463 	0x726f7463
 10c:	006a5f73 	tltu	v1,t2,0x17d
 110:	5f636273 	0x5f636273
 114:	76697270 	jalx	9a5c9c0 <BANK_SPACE+0x9a1c9c0>
 118:	74756f00 	jalx	1d5bc00 <BANK_SPACE+0x1d1bc00>
 11c:	5f747570 	0x5f747570
 120:	006e656c 	0x6e656c
 124:	6f6c6c61 	0x6f6c6c61
 128:	69746163 	0x69746163
 12c:	63006e6f 	0x63006e6f
 130:	745f736f 	jalx	17dcdbc <BANK_SPACE+0x179cdbc>
 134:	656c6261 	0x656c6261
 138:	7869665f 	0x7869665f
 13c:	345f6465 	ori	ra,v0,0x6465
 140:	736e7500 	0x736e7500
 144:	656e6769 	0x656e6769
 148:	68632064 	0x68632064
 14c:	62007261 	0x62007261
 150:	645f7469 	0x645f7469
 154:	68747065 	0x68747065
 158:	6e697500 	0x6e697500
 15c:	5f363174 	0x5f363174
 160:	4f4c0074 	c3	0x14c0074
 164:	454e4455 	0x454e4455
 168:	61005353 	0x61005353
 16c:	796c616e 	0x796c616e
 170:	5f736973 	0x5f736973
 174:	736e6f63 	0x736e6f63
 178:	665f7374 	0x665f7374
 17c:	64657869 	0x64657869
 180:	69735f34 	0x69735f34
 184:	6f5f646d 	0x6f5f646d
 188:	73006464 	0x73006464
 18c:	655f6362 	0x655f6362
 190:	646f636e 	0x646f636e
 194:	705f7265 	0x705f7265
 198:	65636f72 	0x65636f72
 19c:	695f7373 	0x695f7373
 1a0:	7475706e 	jalx	1d5c1b8 <BANK_SPACE+0x1d1c1b8>
 1a4:	5f38735f 	0x5f38735f
 1a8:	65746e69 	0x65746e69
 1ac:	6c616e72 	0x6c616e72
 1b0:	63627300 	0x63627300
 1b4:	6f72705f 	0x6f72705f
 1b8:	385f6f74 	xori	ra,v0,0x6f74
 1bc:	6d30385f 	0x6d30385f
 1c0:	6c660031 	0x6c660031
 1c4:	00736761 	0x736761
 1c8:	5f636e65 	0x5f636e65
 1cc:	74617473 	jalx	185d1cc <BANK_SPACE+0x181d1cc>
 1d0:	6f630065 	0x6f630065
 1d4:	7374736e 	0x7374736e
 1d8:	63627300 	0x63627300
 1dc:	636e655f 	0x636e655f
 1e0:	6f72705f 	0x6f72705f
 1e4:	73736563 	0x73736563
 1e8:	706e695f 	udi15	v1,t6,t5,0x5
 1ec:	385f7475 	xori	ra,v0,0x7475
 1f0:	65625f73 	0x65625f73
 1f4:	6f6c6200 	0x6f6c6200
 1f8:	6d5f6b63 	0x6d5f6b63
 1fc:	0065646f 	0x65646f
 200:	62756f64 	0x62756f64
 204:	7300656c 	0x7300656c
 208:	6f5f6362 	0x6f5f6362
 20c:	65736666 	0x65736666
 210:	44003874 	0x44003874
 214:	5f4c4155 	0x5f4c4155
 218:	4e414843 	c3	0x414843
 21c:	004c454e 	0x4c454e
 220:	6c616373 	0x6c616373
 224:	61665f65 	0x61665f65
 228:	726f7463 	0x726f7463
 22c:	63627300 	0x63627300
 230:	6372635f 	0x6372635f
 234:	62730038 	0x62730038
 238:	6e615f63 	0x6e615f63
 23c:	7a796c61 	0x7a796c61
 240:	62345f65 	0x62345f65
 244:	5f73345f 	0x5f73345f
 248:	646d6973 	0x646d6973
 24c:	74696200 	jalx	1a58800 <BANK_SPACE+0x1a18800>
 250:	6c6f6f70 	0x6c6f6f70
 254:	63627300 	0x63627300
 258:	696e695f 	0x696e695f
 25c:	72705f74 	0x72705f74
 260:	74696d69 	jalx	1a5b5a4 <BANK_SPACE+0x1a1b5a4>
 264:	73657669 	0x73657669
 268:	63627300 	0x63627300
 26c:	636e655f 	0x636e655f
 270:	6f72705f 	0x6f72705f
 274:	73736563 	0x73736563
 278:	706e695f 	udi15	v1,t6,t5,0x5
 27c:	385f7475 	xori	ra,v0,0x7475
 280:	656c5f73 	0x656c5f73
 284:	616e7500 	0x616e7500
 288:	6e67696c 	0x6e67696c
 28c:	36316465 	ori	s1,s1,0x6465
 290:	00656c5f 	0x656c5f
 294:	6362735f 	0x6362735f
 298:	6f72705f 	0x6f72705f
 29c:	665f6f74 	0x665f6f74
 2a0:	64657869 	0x64657869
 2a4:	62730038 	0x62730038
 2a8:	6e655f63 	0x6e655f63
 2ac:	65646f63 	0x65646f63
 2b0:	74735f72 	jalx	1cd7dc8 <BANK_SPACE+0x1c97dc8>
 2b4:	00657461 	0x657461
 2b8:	5f636273 	0x5f636273
 2bc:	5f636e65 	0x5f636e65
 2c0:	636f7270 	0x636f7270
 2c4:	5f737365 	0x5f737365
 2c8:	75706e69 	jalx	5c1b9a4 <BANK_SPACE+0x5bdb9a4>
 2cc:	4f4d0074 	c3	0x14d0074
 2d0:	2f004f4e 	sltiu	zero,t8,20302
 2d4:	64677963 	0x64677963
 2d8:	65766972 	0x65766972
 2dc:	552f652f 	bnel	t1,t7,1979c <SRAM_FM_DRV_RDATA_ADDR+0x1c>
 2e0:	32383253 	andi	t8,s1,0x3253
 2e4:	65745f41 	0x65745f41
 2e8:	742f706d 	jalx	bdc1b4 <BANK_SPACE+0xb9c1b4>
 2ec:	6b6e7572 	0x6b6e7572
 2f0:	3253552f 	andi	s3,s2,0x552f
 2f4:	2f413238 	sltiu	at,k0,12856
 2f8:	65736163 	0x65736163
 2fc:	7672642f 	jalx	9c990bc <BANK_SPACE+0x9c590bc>
 300:	6362732f 	0x6362732f
 304:	636e655f 	0x636e655f
 308:	0065646f 	0x65646f
 30c:	676e6f6c 	0x676e6f6c
 310:	6e6f6c20 	0x6e6f6c20
 314:	6e692067 	0x6e692067
 318:	6d690074 	0x6d690074
 31c:	6d656c70 	0x6d656c70
 320:	61746e65 	0x61746e65
 324:	6e6f6974 	0x6e6f6974
 328:	666e695f 	0x666e695f
 32c:	6167006f 	0x6167006f
 330:	70006e69 	0x70006e69
 334:	7469736f 	jalx	1a5cdbc <BANK_SPACE+0x1a1cdbc>
 338:	006e6f69 	0x6e6f69
 33c:	5f636273 	0x5f636273
 340:	756f0074 	jalx	5bc01d0 <BANK_SPACE+0x5b801d0>
 344:	74735f74 	jalx	1cd7dd0 <BANK_SPACE+0x1c97dd0>
 348:	65646972 	0x65646972
 34c:	616e6100 	0x616e6100
 350:	6973796c 	0x6973796c
 354:	6f635f73 	0x6f635f73
 358:	7374736e 	0x7374736e
 35c:	7869665f 	0x7869665f
 360:	5f386465 	0x5f386465
 364:	646d6973 	0x646d6973
 368:	6576655f 	0x6576655f
 36c:	6d74006e 	0x6d74006e
 370:	74003070 	jalx	c1c0 <SROM_FS_ADDR+0x1c0>
 374:	0031706d 	0x31706d
 378:	5f636273 	0x5f636273
 37c:	746f7270 	jalx	1bdc9c0 <BANK_SPACE+0x1b9c9c0>
 380:	5f385f6f 	0x5f385f6f
 384:	306d3038 	andi	t5,v1,0x3038
 388:	494f4a00 	0x494f4a00
 38c:	535f544e 	beql	k0,ra,154c8 <SRAM_BT_EXT5_BANK_ADDR+0xec8>
 390:	45524554 	0x45524554
 394:	6f6c004f 	0x6f6c004f
 398:	6c20676e 	0x6c20676e
 39c:	20676e6f 	addi	a3,v1,28271
 3a0:	69736e75 	0x69736e75
 3a4:	64656e67 	0x64656e67
 3a8:	746e6920 	jalx	1b9a480 <BANK_SPACE+0x1b5a480>
 3ac:	6e697500 	0x6e697500
 3b0:	745f3874 	jalx	17ce1d0 <BANK_SPACE+0x178e1d0>
 3b4:	69727000 	0x69727000
 3b8:	6c615f76 	0x6c615f76
 3bc:	5f636f6c 	0x5f636f6c
 3c0:	65736162 	0x65736162
 3c4:	63627300 	0x63627300
 3c8:	6f72705f 	0x6f72705f
 3cc:	345f6f74 	ori	ra,v0,0x6f74
 3d0:	6d30345f 	0x6d30345f
 3d4:	62730030 	0x62730030
 3d8:	61635f63 	0x61635f63
 3dc:	735f636c 	0x735f636c
 3e0:	656c6163 	0x656c6163
 3e4:	74636166 	jalx	18d8598 <BANK_SPACE+0x1898598>
 3e8:	0073726f 	0x73726f
 3ec:	6d61736e 	0x6d61736e
 3f0:	73656c70 	0x73656c70
 3f4:	63627300 	0x63627300
 3f8:	636e655f 	0x636e655f
 3fc:	6f72705f 	0x6f72705f
 400:	73736563 	0x73736563
 404:	706e695f 	udi15	v1,t6,t5,0x5
 408:	345f7475 	ori	ra,v0,0x7475
 40c:	65625f73 	0x65625f73
 410:	63726300 	0x63726300
 414:	6261745f 	0x6261745f
 418:	6600656c 	0x6600656c
 41c:	75716572 	jalx	5c595c8 <BANK_SPACE+0x5c195c8>
 420:	79636e65 	0x79636e65
 424:	63627300 	0x63627300
 428:	66666f5f 	0x66666f5f
 42c:	34746573 	ori	s4,v1,0x6573
 430:	63627300 	0x63627300
 434:	6361705f 	0x6361705f
 438:	72665f6b 	0x72665f6b
 43c:	00656d61 	0x656d61
 440:	5f676962 	0x5f676962
 444:	69646e65 	0x69646e65
 448:	73006e61 	0x73006e61
 44c:	74726f68 	jalx	1c9bda0 <BANK_SPACE+0x1c5bda0>
 450:	746e6920 	jalx	1b9a480 <BANK_SPACE+0x1b5a480>
 454:	616e6100 	0x616e6100
 458:	6973796c 	0x6973796c
 45c:	6f635f73 	0x6f635f73
 460:	7374736e 	0x7374736e
 464:	7869665f 	0x7869665f
 468:	5f386465 	0x5f386465
 46c:	646d6973 	0x646d6973
 470:	64646f5f 	0x64646f5f
 474:	74636f00 	jalx	18dbc00 <BANK_SPACE+0x189bc00>
 478:	5f007465 	bgtzl	t8,1d610 <SRAM_BANK_C_ADDR+0x110>
 47c:	5f636273 	0x5f636273
 480:	746f7270 	jalx	1bdc9c0 <BANK_SPACE+0x1b9c9c0>
 484:	69665f6f 	0x69665f6f
 488:	34646578 	ori	a0,v1,0x6578
 48c:	6f6c6200 	0x6f6c6200
 490:	00736b63 	0x736b63
 494:	6c616e75 	0x6c616e75
 498:	656e6769 	0x656e6769
 49c:	5f363164 	0x5f363164
 4a0:	73006562 	0x73006562
 4a4:	705f6362 	0x705f6362
 4a8:	6f746f72 	0x6f746f72
 4ac:	345f345f 	ori	ra,v0,0x345f
 4b0:	00316d30 	tge	at,s1,0x1b4
 4b4:	5f636273 	0x5f636273
 4b8:	5f746567 	0x5f746567
 4bc:	6d617266 	0x6d617266
 4c0:	656c5f65 	0x656c5f65
 4c4:	6874676e 	0x6874676e
 4c8:	72747000 	0x72747000
 4cc:	73003233 	0x73003233
 4d0:	61735f62 	0x61735f62
 4d4:	656c706d 	0x656c706d
 4d8:	6300665f 	0x6300665f
 4dc:	745f736f 	jalx	17dcdbc <BANK_SPACE+0x179cdbc>
 4e0:	656c6261 	0x656c6261
 4e4:	7869665f 	0x7869665f
 4e8:	385f6465 	xori	ra,v0,0x6465
 4ec:	63627300 	0x63627300
 4f0:	616e615f 	0x616e615f
 4f4:	657a796c 	0x657a796c
 4f8:	6769655f 	0x6769655f
 4fc:	735f7468 	0x735f7468
 500:	00646d69 	0x646d69
 504:	74697277 	jalx	1a5c9dc <BANK_SPACE+0x1a1c9dc>
 508:	006e6574 	teq	v1,t6,0x195
 50c:	726f6873 	0x726f6873
 510:	6e752074 	0x6e752074
 514:	6e676973 	0x6e676973
 518:	69206465 	0x69206465
 51c:	7500746e 	jalx	401d1b8 <BANK_SPACE+0x3fdd1b8>
 520:	33746e69 	andi	s4,k1,0x6e69
 524:	00745f32 	tlt	v1,s4,0x17c
 528:	6168636e 	0x6168636e
 52c:	6c656e6e 	0x6c656e6e
 530:	62730073 	0x62730073
 534:	6e615f63 	0x6e615f63
 538:	7a796c61 	0x7a796c61
 53c:	62345f65 	0x62345f65
 540:	0073345f 	0x73345f
 544:	5f636273 	0x5f636273
 548:	2e653631 	sltiu	a1,s3,13873
 54c:	6c660063 	0x6c660063
 550:	0074616f 	0x74616f
 554:	5f636273 	0x5f636273
 558:	6f636e65 	0x6f636e65
 55c:	5f726564 	0x5f726564
 560:	74696e69 	jalx	1a5b9a4 <BANK_SPACE+0x1a1b9a4>
 564:	706e6900 	0x706e6900
 568:	6c5f7475 	0x6c5f7475
 56c:	64006e65 	0x64006e65
 570:	00617461 	0x617461
 574:	735f6273 	0x735f6273
 578:	6c706d61 	0x6c706d61
 57c:	006a5f65 	0x6a5f65
 580:	20554e47 	addi	s5,v0,20039
 584:	2e332043 	sltiu	s3,s1,8259
 588:	20342e34 	addi	s4,at,11828
 58c:	7370696d 	0x7370696d
 590:	2d656473 	sltiu	a1,t3,25715
 594:	36302e36 	ori	s0,s1,0x2e36
 598:	2d31302e 	sltiu	s1,t1,12334
 59c:	37303032 	ori	s0,t9,0x3032
 5a0:	30323430 	andi	s2,at,0x3430
 5a4:	63627300 	0x63627300
 5a8:	7a6c635f 	0x7a6c635f
 5ac:	63627300 	0x63627300
 5b0:	2e32335f 	sltiu	s2,s1,13151
 5b4:	62730063 	0x62730063
 5b8:	61625f63 	0x61625f63
 5bc:	632e6b6e 	0x632e6b6e
 5c0:	63627300 	0x63627300
 5c4:	7465735f 	jalx	195cd7c <BANK_SPACE+0x191cd7c>
 5c8:	6665645f 	0x6665645f
 5cc:	746c7561 	jalx	1b1d584 <BANK_SPACE+0x1add584>
 5d0:	62730073 	0x62730073
 5d4:	6e655f63 	0x6e655f63
 5d8:	65646f63 	0x65646f63
 5dc:	7261705f 	udi15	s3,at,t6,0x1
 5e0:	745f6d61 	jalx	17db584 <BANK_SPACE+0x179b584>
 5e4:	63627300 	0x63627300
 5e8:	636e655f 	0x636e655f
 5ec:	5f65646f 	0x5f65646f
 5f0:	72746e65 	0x72746e65
 5f4:	62730079 	0x62730079
 5f8:	6e655f63 	0x6e655f63
 5fc:	65646f63 	0x65646f63
 600:	746e655f 	jalx	1b9957c <BANK_SPACE+0x1b5957c>
 604:	632e7972 	0x632e7972
 608:	706e6900 	0x706e6900
 60c:	625f7475 	0x625f7475
 610:	65666675 	0x65666675
 614:	756f0072 	jalx	5bc01c8 <BANK_SPACE+0x5b801c8>
 618:	74757074 	jalx	1d5c1d0 <BANK_SPACE+0x1d1c1d0>
 61c:	6675625f 	0x6675625f
 620:	00726566 	0x726566
 624:	5f636273 	0x5f636273
 628:	6f636e65 	0x6f636e65
 62c:	705f6564 	0x705f6564
 630:	6d617261 	0x6d617261
 634:	63627300 	0x63627300
 638:	636e655f 	0x636e655f
 63c:	5f65646f 	0x5f65646f
 640:	74697865 	jalx	1a5e194 <BANK_SPACE+0x1a1e194>
 644:	63627300 	0x63627300
 648:	636e655f 	0x636e655f
 64c:	5f65646f 	0x5f65646f
 650:	74697865 	jalx	1a5e194 <BANK_SPACE+0x1a1e194>
 654:	7300632e 	0x7300632e
 658:	655f6362 	0x655f6362
 65c:	646f636e 	0x646f636e
 660:	6e695f65 	0x6e695f65
 664:	632e7469 	0x632e7469
 668:	63627300 	0x63627300
 66c:	636e655f 	0x636e655f
 670:	5f65646f 	0x5f65646f
 674:	74696e69 	jalx	1a5b9a4 <BANK_SPACE+0x1a1b9a4>
 678:	6f6c6200 	0x6f6c6200
 67c:	735f6b63 	0x735f6b63
 680:	6f5f6362 	0x6f5f6362
 684:	61726570 	0x61726570
 688:	6e6f6974 	0x6e6f6974
 68c:	5f5f0073 	0x5f5f0073
 690:	5f636273 	0x5f636273
 694:	696e6966 	0x696e6966
 698:	73006873 	0x73006873
 69c:	655f6362 	0x655f6362
 6a0:	646f636e 	0x646f636e
 6a4:	63725f65 	0x63725f65
 6a8:	5f65646f 	0x5f65646f
 6ac:	655f706f 	0x655f706f
 6b0:	7972746e 	0x7972746e
 6b4:	7300632e 	0x7300632e
 6b8:	6f5f6362 	0x6f5f6362
 6bc:	00695f70 	tge	v1,t1,0x17d
 6c0:	5f6b6c62 	0x5f6b6c62
 6c4:	5f00706f 	bgtzl	t8,1c884 <SRAM_OS_TASK_STACK_ADDR+0x1284>
 6c8:	6362735f 	0x6362735f
 6cc:	696e695f 	0x696e695f
 6d0:	5f5f0074 	0x5f5f0074
 6d4:	6f636e65 	0x6f636e65
 6d8:	62006564 	0x62006564
 6dc:	5f737469 	0x5f737469
 6e0:	68636163 	0x68636163
 6e4:	72660065 	0x72660065
 6e8:	5f656d61 	0x5f656d61
 6ec:	62627573 	0x62627573
 6f0:	73646e61 	0x73646e61
 6f4:	756f6c00 	jalx	5bdb000 <BANK_SPACE+0x5b9b000>
 6f8:	73656e64 	0x73656e64
 6fc:	62730073 	0x62730073
 700:	61705f63 	0x61705f63
 704:	665f6b63 	0x665f6b63
 708:	656d6172 	0x656d6172
 70c:	746e695f 	jalx	1b9a57c <BANK_SPACE+0x1b5a57c>
 710:	616e7265 	0x616e7265
 714:	656c006c 	0x656c006c
 718:	736c6576 	0x736c6576
 71c:	74696200 	jalx	1a58800 <BANK_SPACE+0x1a18800>
 720:	63696c73 	0x63696c73
 724:	75610065 	jalx	5840194 <BANK_SPACE+0x5800194>
 728:	5f6f6964 	0x5f6f6964
 72c:	706d6173 	0x706d6173
 730:	7300656c 	0x7300656c
 734:	6563696c 	0x6563696c
 738:	6e756f63 	0x6e756f63
 73c:	62730074 	0x62730074
 740:	6d61735f 	0x6d61735f
 744:	5f656c70 	0x5f656c70
 748:	746c6564 	jalx	1b19590 <BANK_SPACE+0x1ad9590>
 74c:	61640061 	0x61640061
 750:	705f6174 	0x705f6174
 754:	63007274 	0x63007274
 758:	705f6372 	0x705f6372
 75c:	6200736f 	0x6200736f
 760:	5f737469 	0x5f737469
 764:	6e756f63 	0x6e756f63
 768:	72630074 	0x72630074
 76c:	65685f63 	0x65685f63
 770:	72656461 	0x72656461
 774:	78616d00 	0x78616d00
 778:	7469625f 	jalx	1a5897c <BANK_SPACE+0x1a1897c>
 77c:	6465656e 	0x6465656e
 780:	63627300 	0x63627300
 784:	6c61635f 	0x6c61635f
 788:	616c7563 	0x616c7563
 78c:	625f6574 	0x625f6574
 790:	5f737469 	0x5f737469
 794:	65746e69 	0x65746e69
 798:	6c616e72 	0x6c616e72
 79c:	2e2f2e00 	sltiu	t7,s1,11776
 7a0:	2e2e2f2e 	sltiu	t6,s1,12078
 7a4:	7672642f 	jalx	9c990bc <BANK_SPACE+0x9c590bc>
 7a8:	6362732f 	0x6362732f
 7ac:	636e655f 	0x636e655f
 7b0:	2f65646f 	sltiu	a1,k1,25711
 7b4:	7370696d 	0x7370696d
 7b8:	732f3233 	0x732f3233
 7bc:	335f6362 	andi	ra,k0,0x6362
 7c0:	2e315f32 	sltiu	s1,s1,24370
 7c4:	72660063 	0x72660063
 7c8:	5f656d61 	0x5f656d61
 7cc:	6e616863 	0x6e616863
 7d0:	736c656e 	0x736c656e
 7d4:	74696200 	jalx	1a58800 <BANK_SPACE+0x1a18800>
 7d8:	6e756f63 	0x6e756f63
 7dc:	Address 0x7dc is out of bounds.

Disassembly of section .comment:

00000000 <.comment>:
   0:	43434700 	c0	0x1434700
   4:	4728203a 	c1	0x128203a
   8:	2029554e 	addi	t1,at,21838
   c:	2e342e33 	sltiu	s4,s1,11827
  10:	696d2034 	0x696d2034
  14:	64737370 	0x64737370
  18:	2e362d65 	sltiu	s6,s1,11621
  1c:	302e3630 	andi	t6,at,0x3630
  20:	30322d31 	andi	s2,at,0x2d31
  24:	34303730 	ori	s0,at,0x3730
  28:	00003032 	tlt	zero,zero,0xc0
  2c:	3a434347 	xori	v1,s2,0x4347
  30:	4e472820 	madd.s	$f0,$f18,$f5,$f7
  34:	33202955 	andi	zero,t9,0x2955
  38:	342e342e 	ori	t6,at,0x342e
  3c:	70696d20 	0x70696d20
  40:	65647373 	0x65647373
  44:	302e362d 	andi	t6,at,0x362d
  48:	31302e36 	andi	s0,t1,0x2e36
  4c:	3030322d 	andi	s0,at,0x322d
  50:	32343037 	andi	s4,s1,0x3037
  54:	47000030 	c1	0x1000030
  58:	203a4343 	addi	k0,at,17219
  5c:	554e4728 	bnel	t2,t6,11d00 <SRAM_BT_BACK_RCODE_ADDR+0xd00>
  60:	2e332029 	sltiu	s3,s1,8233
  64:	20342e34 	addi	s4,at,11828
  68:	7370696d 	0x7370696d
  6c:	2d656473 	sltiu	a1,t3,25715
  70:	36302e36 	ori	s0,s1,0x2e36
  74:	2d31302e 	sltiu	s1,t1,12334
  78:	37303032 	ori	s0,t9,0x3032
  7c:	30323430 	andi	s2,at,0x3430
  80:	43470000 	c0	0x1470000
  84:	28203a43 	slti	zero,at,14915
  88:	29554e47 	slti	s5,t2,20039
  8c:	342e3320 	ori	t6,at,0x3320
  90:	6d20342e 	0x6d20342e
  94:	73737069 	0x73737069
  98:	362d6564 	ori	t5,s1,0x6564
  9c:	2e36302e 	sltiu	s6,s1,12334
  a0:	322d3130 	andi	t5,s1,0x3130
  a4:	30373030 	andi	s7,at,0x3030
  a8:	00303234 	teq	at,s0,0xc8
  ac:	43434700 	c0	0x1434700
  b0:	4728203a 	c1	0x128203a
  b4:	2029554e 	addi	t1,at,21838
  b8:	2e342e33 	sltiu	s4,s1,11827
  bc:	696d2034 	0x696d2034
  c0:	64737370 	0x64737370
  c4:	2e362d65 	sltiu	s6,s1,11621
  c8:	302e3630 	andi	t6,at,0x3630
  cc:	30322d31 	andi	s2,at,0x2d31
  d0:	34303730 	ori	s0,at,0x3730
  d4:	00003032 	tlt	zero,zero,0xc0
  d8:	3a434347 	xori	v1,s2,0x4347
  dc:	4e472820 	madd.s	$f0,$f18,$f5,$f7
  e0:	33202955 	andi	zero,t9,0x2955
  e4:	342e342e 	ori	t6,at,0x342e
  e8:	70696d20 	0x70696d20
  ec:	65647373 	0x65647373
  f0:	302e362d 	andi	t6,at,0x362d
  f4:	31302e36 	andi	s0,t1,0x2e36
  f8:	3030322d 	andi	s0,at,0x322d
  fc:	32343037 	andi	s4,s1,0x3037
 100:	47000030 	c1	0x1000030
 104:	203a4343 	addi	k0,at,17219
 108:	554e4728 	bnel	t2,t6,11dac <SRAM_BT_BACK_RCODE_ADDR+0xdac>
 10c:	2e332029 	sltiu	s3,s1,8233
 110:	20342e34 	addi	s4,at,11828
 114:	7370696d 	0x7370696d
 118:	2d656473 	sltiu	a1,t3,25715
 11c:	36302e36 	ori	s0,s1,0x2e36
 120:	2d31302e 	sltiu	s1,t1,12334
 124:	37303032 	ori	s0,t9,0x3032
 128:	30323430 	andi	s2,at,0x3430
 12c:	43470000 	c0	0x1470000
 130:	28203a43 	slti	zero,at,14915
 134:	29554e47 	slti	s5,t2,20039
 138:	342e3320 	ori	t6,at,0x3320
 13c:	6d20342e 	0x6d20342e
 140:	73737069 	0x73737069
 144:	362d6564 	ori	t5,s1,0x6564
 148:	2e36302e 	sltiu	s6,s1,12334
 14c:	322d3130 	andi	t5,s1,0x3130
 150:	30373030 	andi	s7,at,0x3030
 154:	00303234 	teq	at,s0,0xc8
