
lineineg.exe:     file format elf32-tradlittlemips

Disassembly of section .text:

bfc26000 <audio_device_op_entry>:
bfc26000:	6b0a      	li	v1,10
bfc26002:	e805      	break	0

bfc26004 <libc_op_entry>:
bfc26004:	6b10      	li	v1,16
bfc26006:	e805      	break	0

bfc26008 <sys_op_entry>:
bfc26008:	6b0f      	li	v1,15
bfc2600a:	e805      	break	0

bfc2600c <base_op_entry>:
bfc2600c:	6b00      	li	v1,0
bfc2600e:	e805      	break	0

bfc26010 <key_op_entry>:
bfc26010:	6b08      	li	v1,8
bfc26012:	e805      	break	0

bfc26014 <mmm_bp_cmd>:
bfc26014:	6b42      	li	v1,66
bfc26016:	e805      	break	0

bfc26018 <sbc_encode_op_entry>:
bfc26018:	6b02      	li	v1,2
bfc2601a:	e805      	break	0

bfc2601c <btplay_deal_app_msg>:
bfc2601c:	64e5      	save	40,ra,s0
 * \endcode
 * \note
 *******************************************************************************/
app_result_e btplay_deal_app_msg(void)
{
bfc2601e:	6800      	li	s0,0
    private_msg_t cur_msg;
    app_result_e result = RESULT_NULL;
bfc26020:	b20b      	lw	v0,bfc2604c <btplay_deal_app_msg+0x30>

    //更新共享查询
    g_p_btplay_info = sys_share_query_update(APP_ID_LINEIN_EG);
bfc26022:	6c0f      	li	a0,15
bfc26024:	67b0      	move	a1,s0
bfc26026:	67d0      	move	a2,s0
bfc26028:	ea40      	jalr	v0
bfc2602a:	6f46      	li	a3,70
bfc2602c:	b307      	lw	v1,bfc26048 <btplay_deal_app_msg+0x2c>
bfc2602e:	db40      	sw	v0,0(v1)
bfc26030:	b208      	lw	v0,bfc26050 <btplay_deal_app_msg+0x34>

    if(get_app_msg(&cur_msg) == TRUE) {
bfc26032:	ea40      	jalr	v0
bfc26034:	0404      	addiu	a0,sp,16
bfc26036:	7201      	cmpi	v0,1
bfc26038:	6104      	btnez	bfc26042 <btplay_deal_app_msg+0x26>
bfc2603a:	b007      	lw	s0,bfc26054 <btplay_deal_app_msg+0x38>
        result = app_message_deal(&cur_msg);
bfc2603c:	e840      	jalr	s0
bfc2603e:	0404      	addiu	a0,sp,16
bfc26040:	6702      	move	s0,v0
bfc26042:	6750      	move	v0,s0
    }

    return result;
}
bfc26044:	6465      	restore	40,ra,s0
bfc26046:	e8a0      	jrc	ra
bfc26048:	961c      	lw	a2,112(sp)
bfc2604a:	9fc1      	lw	a2,4(a3)
bfc2604c:	6009      	bteqz	bfc26060 <Tws_clear_filter+0x8>
bfc2604e:	bfc2      	lwu	a2,8(a3)
bfc26050:	661d      	0x661d
bfc26052:	bfc2      	lwu	a2,8(a3)
bfc26054:	6801      	li	s0,1
bfc26056:	6012      	bteqz	bfc2607c <Tws_clear_filter+0x24>

bfc26058 <Tws_clear_filter>:
bfc26058:	64e3      	save	24,ra,s0

#ifdef ENABLE_TRUE_WIRELESS_STEREO
void Tws_clear_filter(void)
{
bfc2605a:	b209      	lw	v0,bfc2607c <Tws_clear_filter+0x24>
    if(btplay_gl_var.tts_play_flag == FALSE) {
bfc2605c:	a201      	lbu	s0,1(v0)
bfc2605e:	2805      	bnez	s0,bfc2606a <Tws_clear_filter+0x12>
bfc26060:	b208      	lw	v0,bfc26080 <Tws_clear_filter+0x28>
        btplay_engine_pipe_control(PIPE_OP_UNFILTER);
bfc26062:	ea40      	jalr	v0
bfc26064:	6c02      	li	a0,2
bfc26066:	b308      	lw	v1,bfc26084 <Tws_clear_filter+0x2c>
        enable_unfilter_flag = 0;
bfc26068:	c300      	sb	s0,0(v1)
bfc2606a:	b008      	lw	s0,bfc26088 <Tws_clear_filter+0x30>

    }
    kill_app_timer(clear_filter_timer_id);
bfc2606c:	b208      	lw	v0,bfc2608c <Tws_clear_filter+0x34>
bfc2606e:	ea40      	jalr	v0
bfc26070:	8080      	lb	a0,0(s0)
bfc26072:	6c01      	li	a0,1
    clear_filter_timer_id = -1;
bfc26074:	ec8b      	neg	a0
bfc26076:	c080      	sb	a0,0(s0)
bfc26078:	6463      	restore	24,ra,s0
bfc2607a:	e8a0      	jrc	ra
bfc2607c:	962c      	lw	a2,176(sp)
bfc2607e:	9fc1      	lw	a2,4(a3)
bfc26080:	68b1      	li	s0,177
bfc26082:	600a      	bteqz	bfc26098 <tws_sync_cmd_deal+0x8>
bfc26084:	9624      	lw	a2,144(sp)
bfc26086:	9fc1      	lw	a2,4(a3)
bfc26088:	9585      	lw	a1,532(sp)
bfc2608a:	9fc1      	lw	a2,4(a3)
bfc2608c:	6c0d      	li	a0,13
bfc2608e:	60a2      	bteqz	bfc25fd4 <RCODE_ADDR_BASE+0x25fd4>

bfc26090 <tws_sync_cmd_deal>:
bfc26090:	64c3      	save	24,ra
}

#endif

void linein_player_status_deal(void)
{
    tws_sync_cmd_deal();

    if(btplay_gl_var.speech_flag == TRUE) {
        return;
    }
    //for master or no pair mode sample start
    if(g_first_no_sample == 1) {
        libc_print("@start:", g_need_adc_flag, 2);
        if((g_need_adc_flag == 1) || (g_p_bt_stack_cur_info->dev_role == 0)) {
            btplay_engine_pipe_control(PIPE_OP_UNFILTER);
            g_first_no_sample = 0;
        }
    }

    if((btplay_gl_var.codec_flag == FALSE)
            && (btplay_gl_var.tts_play_flag == FALSE)
            && (g_p_bt_stack_cur_info->conn_status >= CONN_STATUS_WAIT_PAIR))
        //if ((btplay_gl_var.tts_play_flag == FALSE)
        //&& (g_p_bt_stack_cur_info->conn_status >= CONN_STATUS_WAIT_PAIR)
        //&& (g_need_adc_flag == 1))
    {
#ifdef ENABLE_TRUE_WIRELESS_STEREO
        //if ((g_p_bt_stack_cur_info->dev_role != 2)
        //&& (g_need_adc_flag == 1))
        if(g_p_bt_stack_cur_info->dev_role != 2) {
            //libc_print("@11:",0,0);
            btplay_engine_pipe_control(PIPE_OP_FILTER);
        }
#endif

        //避免加载起来中间件后又会去卸载掉
        if((g_p_tws_info->pri_exit_mmm == 1) || (g_p_tws_info->sub_exit_mmm == 1)) {
            g_p_tws_info->pri_exit_mmm = 0;
            g_p_tws_info->sub_exit_mmm = 0;

        }

        /*media_type = g_p_bt_stack_cur_info->rmt_dev[g_p_bt_stack_cur_info->a2dp_active_id].a2dp_attr.media_type;

        if ((btplay_gl_var.media_type != media_type)&&(media_type != 0xff))
        {
            a2dp_decode_quit_force();
            a2dp_decode_init_force(media_type);
        }*/

        a2dp_decode_init(A2DP_CODEC_SBC);

        //a2dp_decode_init(A2DP_CODEC_SBC);

#ifdef ENABLE_TRUE_WIRELESS_STEREO

        if((enable_unfilter_flag == 0)
                && (linein_tws_playpause_flag == 0)
                && (g_p_bt_stack_cur_info->dev_role != 2)) {
            libc_print("@12:", 0, 0);
            btplay_engine_pipe_control(PIPE_OP_UNFILTER);
        }
#endif
    }

#ifdef ENABLE_TRUE_WIRELESS_STEREO

    send_mmm_exit_cmd();
    //卸载BTPLAY中间件和DSP解码库
    if((btplay_gl_var.codec_flag == TRUE)
            && ((g_p_tws_info->pri_exit_mmm == 1)
                || (g_p_tws_info->sub_exit_mmm == 1)
                || (second_empty_flag != 0)
                || (g_p_tws_info->tts_start_flag == 1)
                || (tws_or_notws_flag != g_p_bt_stack_cur_info->dev_role)))

    {
        //libc_print("phc:",g_p_bt_stack_cur_info->tws_master_phonecon,2);
        libc_print("fl:", second_empty_flag, 2);
        btplay_engine_pipe_control(PIPE_OP_FILTER);
        a2dp_decode_quit();
        libc_print("G1", 0, 0);
        if((g_p_bt_stack_cur_info->dev_role == 1)
                && ((g_p_tws_info->pri_exit_mmm == 1)
                    || (g_p_tws_info->pri_full_exit_flag)
                    || (g_p_tws_info->pri_empty_exit_mmm == 1)
                    || (tws_or_notws_flag != g_p_bt_stack_cur_info->dev_role))) {
            //保证主箱加载前，副箱已经卸载完
            //1s后再去清除丢数标志
            if(linein_tws_playpause_flag == 0) {
                libc_print("EE", 0, 0);
//                   clear_filter_timer_id = set_single_shot_app_timer(APP_TIMER_ATTRB_CONTROL,
//                        500, Tws_clear_filter);
                deal_linein_clear_filter();
                enable_unfilter_flag = 1;
            }

            btplay_engine_pipe_control(PIPE_OP_FLUSH);
        } else if((g_p_bt_stack_cur_info->dev_role == 1)
                  && (g_p_tws_info->tts_start_flag == 1)) { //对方tts播完才能清除丢数的标志
            btplay_engine_pipe_control(PIPE_OP_FLUSH);
            g_p_tws_info->tts_start_flag = 0;
        } else {
            libc_print("@e3:", 0, 0);
            //btplay_engine_pipe_control(PIPE_OP_UNFILTER | PIPE_OP_FLUSH);
            btplay_engine_pipe_control(PIPE_OP_FLUSH);
            if(g_p_bt_stack_cur_info->dev_role == 2) {
                libc_print("@e4:", 0, 0);
                btplay_engine_pipe_control(PIPE_OP_UNFILTER);
            }
        }
        //  second_empty_flag=0;
    }
    send_pause_status();

    //if no pair so
    //if((tws_or_notws_flag == 0))
    if(tws_or_notws_flag != g_p_bt_stack_cur_info->dev_role) {
        if(g_p_bt_stack_cur_info->dev_role != NORMAL_DEV) {
            set_btstack_linein_ext(2);
        } else {
            set_btstack_linein_ext(0);
        }
        g_need_adc_flag = 1;
        tws_or_notws_flag = g_p_bt_stack_cur_info->dev_role;
    }
    second_empty_flag = 0;

    //对方tts播完清除丢数标志
    if((g_p_tws_info->tts_stop_flag == 1) && (g_p_tws_info->tts_start_flag == 0)) {
        //btplay_engine_pipe_control(PIPE_OP_UNFILTER);
        libc_print("@j:", 0, 0);
        if(g_p_bt_stack_cur_info->dev_role == 1) {
//                 set_single_shot_app_timer(APP_TIMER_ATTRB_CONTROL,
//                        500, Tws_clear_filter);
            deal_linein_clear_filter();
            enable_unfilter_flag = 1;
        } else {
            btplay_engine_pipe_control(PIPE_OP_UNFILTER);
        }
        g_p_tws_info->tts_stop_flag = 0;
    }

#endif
}

/******************************************************************************/
/*!
 * \par  Description:
 *      MainMenu 应用的入口函数和场景管理器模块
 * \param[in]    PARAM_FROM_XXX
 * \param[out]   none
 * \return       the result
 * \retval       0 sucess
 * \retval       1 failed
 * \ingroup      module name
 * \par          exmaple code
 * \code
 *               list example code in here
 * \endcode
 * \note
 *******************************************************************************/
app_result_e get_message_loop(void)
{
    app_result_e result = RESULT_NULL;

    message_loop_init();

    //a2dp_decode_init_force(A2DP_CODEC_SBC);
    while(1) {

        linein_player_status_deal();

        //处理当前应用的私有消息
        result = btplay_deal_app_msg();
        if(result != RESULT_NULL) {
            break;
        }

        /*when wait_paired, and no connect_request, and not bt_front, release more os_time.*/
        if(g_p_btplay_info->status == BTPLAY_PLAY) {
            change_engine_state(ENGINE_STATE_PLAYING);

            if(g_p_bt_stack_cur_info->dev_role == TWS_SLAVE && count_free_dsp_timer_id == -1) { //多次加卸载DSP断开再回连
                libc_print("free dsp deal", 0, 0);
                count_free_dsp_timer_id = set_app_timer(APP_TIMER_ATTRB_CONTROL, 60000, count_free_dsp_deal);
            }
        } else {
            change_engine_state(ENGINE_STATE_PAUSE);
        }
        //check_linein_data();
        //deal_linein_usb_noise();
        //挂起10ms，多任务调度
        sys_os_time_dly(1);
    }

    clear_smart_response();
    message_loop_exit();

    return result;
}

#if 0
void deal_linein_usb_noise(void)
{
    g_check_count++;

    //if vbat is higher than 3.90 we need to stop charging
    if(g_check_count >= COUNT_BOUND) {
        deal_linein_usb_noise_sub();
    }
}
#endif

void tws_sync_cmd_deal(void)
{
bfc26092:	b405      	lw	a0,bfc260a4 <tws_sync_cmd_deal+0x14>

    if(g_p_tws_info->tws_sync_cmd != 0) {
bfc26094:	9c60      	lw	v1,0(a0)
bfc26096:	a34c      	lbu	v0,12(v1)
bfc26098:	2202      	beqz	v0,bfc2609e <tws_sync_cmd_deal+0xe>
bfc2609a:	b204      	lw	v0,bfc260a8 <tws_sync_cmd_deal+0x18>
        tws_sync_cmd_deal_sub();
bfc2609c:	eac0      	jalrc	v0
bfc2609e:	6443      	restore	24,ra
    }

}
bfc260a0:	e8a0      	jrc	ra
bfc260a2:	0000      	addiu	s0,sp,0
bfc260a4:	9610      	lw	a2,64(sp)
bfc260a6:	9fc1      	lw	a2,4(a3)
bfc260a8:	6a49      	li	v0,73
bfc260aa:	600a      	bteqz	bfc260c0 <linein_player_status_deal+0x14>

bfc260ac <linein_player_status_deal>:
bfc260ac:	64f4      	save	32,ra,s0-s1
bfc260ae:	b28f      	lw	v0,bfc262e8 <.LBE3+0x90>
bfc260b0:	eac0      	jalrc	v0
bfc260b2:	b38f      	lw	v1,bfc262ec <.LBE3+0x94>
bfc260b4:	a343      	lbu	v0,3(v1)
bfc260b6:	7201      	cmpi	v0,1
bfc260b8:	f0e0 601b 	bteqz	bfc262b2 <.LBE3+0x5a>
bfc260bc:	b18d      	lw	s1,bfc262f0 <.LBE3+0x98>
bfc260be:	9980      	lw	a0,0(s1)
bfc260c0:	7401      	cmpi	a0,1
bfc260c2:	6114      	btnez	bfc260ec <linein_player_status_deal+0x40>
bfc260c4:	b08c      	lw	s0,bfc262f4 <.LBE3+0x9c>
bfc260c6:	b28d      	lw	v0,bfc262f8 <.LBE3+0xa0>
bfc260c8:	a0a0      	lbu	a1,0(s0)
bfc260ca:	0c7c      	la	a0,bfc262b8 <.LBE3+0x60>
bfc260cc:	6e02      	li	a2,2
bfc260ce:	ea40      	jalr	v0
bfc260d0:	6f4b      	li	a3,75
bfc260d2:	a0a0      	lbu	a1,0(s0)
bfc260d4:	7501      	cmpi	a1,1
bfc260d6:	6005      	bteqz	bfc260e2 <linein_player_status_deal+0x36>
bfc260d8:	b389      	lw	v1,bfc262fc <.LBE3+0xa4>
bfc260da:	9be0      	lw	a3,0(v1)
bfc260dc:	f020 a7da 	lbu	a2,58(a3)
bfc260e0:	2e05      	bnez	a2,bfc260ec <linein_player_status_deal+0x40>
bfc260e2:	b088      	lw	s0,bfc26300 <.LBE3+0xa8>
bfc260e4:	e840      	jalr	s0
bfc260e6:	6c02      	li	a0,2
bfc260e8:	6c00      	li	a0,0
bfc260ea:	d980      	sw	a0,0(s1)
bfc260ec:	b580      	lw	a1,bfc262ec <.LBE3+0x94>
bfc260ee:	ad00      	lhu	s0,0(a1)
bfc260f0:	282d      	bnez	s0,bfc2614c <linein_player_status_deal+0xa0>
bfc260f2:	b683      	lw	a2,bfc262fc <.LBE3+0xa4>
bfc260f4:	9e60      	lw	v1,0(a2)
bfc260f6:	a340      	lbu	v0,0(v1)
bfc260f8:	2229      	beqz	v0,bfc2614c <linein_player_status_deal+0xa0>
bfc260fa:	f020 a3fa 	lbu	a3,58(v1)
bfc260fe:	7702      	cmpi	a3,2
bfc26100:	6003      	bteqz	bfc26108 <linein_player_status_deal+0x5c>
bfc26102:	b380      	lw	v1,bfc26300 <.LBE3+0xa8>
bfc26104:	eb40      	jalr	v1
bfc26106:	6c01      	li	a0,1
bfc26108:	b47f      	lw	a0,bfc26304 <.LBE3+0xac>
bfc2610a:	9c60      	lw	v1,0(a0)
bfc2610c:	a3a5      	lbu	a1,5(v1)
bfc2610e:	7501      	cmpi	a1,1
bfc26110:	6003      	bteqz	bfc26118 <linein_player_status_deal+0x6c>
bfc26112:	a346      	lbu	v0,6(v1)
bfc26114:	7201      	cmpi	v0,1
bfc26116:	6103      	btnez	bfc2611e <linein_player_status_deal+0x72>
bfc26118:	c305      	sb	s0,5(v1)
bfc2611a:	9cc0      	lw	a2,0(a0)
bfc2611c:	c606      	sb	s0,6(a2)
bfc2611e:	b37b      	lw	v1,bfc26308 <.LBE3+0xb0>
bfc26120:	eb40      	jalr	v1
bfc26122:	6c00      	li	a0,0
bfc26124:	b77a      	lw	a3,bfc2630c <.LBE3+0xb4>
bfc26126:	a780      	lbu	a0,0(a3)
bfc26128:	2c11      	bnez	a0,bfc2614c <linein_player_status_deal+0xa0>
bfc2612a:	b57a      	lw	a1,bfc26310 <.LBE3+0xb8>
bfc2612c:	a5c0      	lbu	a2,0(a1)
bfc2612e:	2e0e      	bnez	a2,bfc2614c <linein_player_status_deal+0xa0>
bfc26130:	b773      	lw	a3,bfc262fc <.LBE3+0xa4>
bfc26132:	9f80      	lw	a0,0(a3)
bfc26134:	f020 a45a 	lbu	v0,58(a0)
bfc26138:	7202      	cmpi	v0,2
bfc2613a:	6008      	bteqz	bfc2614c <linein_player_status_deal+0xa0>
bfc2613c:	b26f      	lw	v0,bfc262f8 <.LBE3+0xa0>
bfc2613e:	0c61      	la	a0,bfc262c0 <.LBE3+0x68>
bfc26140:	67a6      	move	a1,a2
bfc26142:	ea40      	jalr	v0
bfc26144:	6f4b      	li	a3,75
bfc26146:	b36f      	lw	v1,bfc26300 <.LBE3+0xa8>
bfc26148:	eb40      	jalr	v1
bfc2614a:	6c02      	li	a0,2
bfc2614c:	b372      	lw	v1,bfc26314 <.LBE3+0xbc>
bfc2614e:	ebc0      	jalrc	v1
bfc26150:	b567      	lw	a1,bfc262e8 <.LBE3+0x90>
bfc26152:	a5c0      	lbu	a2,0(a1)
bfc26154:	7601      	cmpi	a2,1
bfc26156:	6172      	btnez	bfc2623c <linein_player_status_deal+0x190>
bfc26158:	b76b      	lw	a3,bfc26304 <.LBE3+0xac>
bfc2615a:	9f60      	lw	v1,0(a3)
bfc2615c:	a385      	lbu	a0,5(v1)
bfc2615e:	7401      	cmpi	a0,1
bfc26160:	6011      	bteqz	bfc26184 <linein_player_status_deal+0xd8>
bfc26162:	a346      	lbu	v0,6(v1)
bfc26164:	7201      	cmpi	v0,1
bfc26166:	600e      	bteqz	bfc26184 <linein_player_status_deal+0xd8>
bfc26168:	b56c      	lw	a1,bfc26318 <.LBE3+0xc0>
bfc2616a:	a5c0      	lbu	a2,0(a1)
bfc2616c:	2e0b      	bnez	a2,bfc26184 <linein_player_status_deal+0xd8>
bfc2616e:	a381      	lbu	a0,1(v1)
bfc26170:	7401      	cmpi	a0,1
bfc26172:	6008      	bteqz	bfc26184 <linein_player_status_deal+0xd8>
bfc26174:	b562      	lw	a1,bfc262fc <.LBE3+0xa4>
bfc26176:	b26a      	lw	v0,bfc2631c <.LBE3+0xc4>
bfc26178:	9dc0      	lw	a2,0(a1)
bfc2617a:	a2e0      	lbu	a3,0(v0)
bfc2617c:	f020 a67a 	lbu	v1,58(a2)
bfc26180:	ef6e      	xor	a3,v1
bfc26182:	275c      	beqz	a3,bfc2623c <linein_player_status_deal+0x190>
bfc26184:	b065      	lw	s0,bfc26318 <.LBE3+0xc0>
bfc26186:	6e02      	li	a2,2
bfc26188:	a0a0      	lbu	a1,0(s0)
bfc2618a:	b05c      	lw	s0,bfc262f8 <.LBE3+0xa0>
bfc2618c:	0c4f      	la	a0,bfc262c8 <.LBE3+0x70>
bfc2618e:	e840      	jalr	s0
bfc26190:	6f4b      	li	a3,75
bfc26192:	b25c      	lw	v0,bfc26300 <.LBE3+0xa8>
bfc26194:	ea40      	jalr	v0
bfc26196:	6c01      	li	a0,1
bfc26198:	b362      	lw	v1,bfc26320 <.LBE3+0xc8>
bfc2619a:	ebc0      	jalrc	v1
bfc2619c:	6d00      	li	a1,0
bfc2619e:	0c4c      	la	a0,bfc262cc <.LBE3+0x74>
bfc261a0:	67c5      	move	a2,a1
bfc261a2:	e840      	jalr	s0
bfc261a4:	6f4b      	li	a3,75
bfc261a6:	b456      	lw	a0,bfc262fc <.LBE3+0xa4>
bfc261a8:	9ca0      	lw	a1,0(a0)
bfc261aa:	f020 a59a 	lbu	a0,58(a1)
bfc261ae:	7401      	cmpi	a0,1
bfc261b0:	611f      	btnez	bfc261f0 <linein_player_status_deal+0x144>
bfc261b2:	b655      	lw	a2,bfc26304 <.LBE3+0xac>
bfc261b4:	9e60      	lw	v1,0(a2)
bfc261b6:	a3e5      	lbu	a3,5(v1)
bfc261b8:	7701      	cmpi	a3,1
bfc261ba:	6009      	bteqz	bfc261ce <linein_player_status_deal+0x122>
bfc261bc:	a34a      	lbu	v0,10(v1)
bfc261be:	2a07      	bnez	v0,bfc261ce <linein_player_status_deal+0x122>
bfc261c0:	a3eb      	lbu	a3,11(v1)
bfc261c2:	7701      	cmpi	a3,1
bfc261c4:	6004      	bteqz	bfc261ce <linein_player_status_deal+0x122>
bfc261c6:	b656      	lw	a2,bfc2631c <.LBE3+0xc4>
bfc261c8:	a660      	lbu	v1,0(a2)
bfc261ca:	eb8e      	xor	v1,a0
bfc261cc:	2311      	beqz	v1,bfc261f0 <linein_player_status_deal+0x144>
bfc261ce:	b551      	lw	a1,bfc26310 <.LBE3+0xb8>
bfc261d0:	a5c0      	lbu	a2,0(a1)
bfc261d2:	2e0a      	bnez	a2,bfc261e8 <linein_player_status_deal+0x13c>
bfc261d4:	b249      	lw	v0,bfc262f8 <.LBE3+0xa0>
bfc261d6:	0c3f      	la	a0,bfc262d0 <.LBE3+0x78>
bfc261d8:	67a6      	move	a1,a2
bfc261da:	ea40      	jalr	v0
bfc261dc:	6f4b      	li	a3,75
bfc261de:	b352      	lw	v1,bfc26324 <.LBE3+0xcc>
bfc261e0:	ebc0      	jalrc	v1
bfc261e2:	b44b      	lw	a0,bfc2630c <.LBE3+0xb4>
bfc261e4:	6a01      	li	v0,1
bfc261e6:	c440      	sb	v0,0(a0)
bfc261e8:	b346      	lw	v1,bfc26300 <.LBE3+0xa8>
bfc261ea:	eb40      	jalr	v1
bfc261ec:	6c80      	li	a0,128
bfc261ee:	1026      	b	bfc2623c <linein_player_status_deal+0x190>
bfc261f0:	f020 a51a 	lbu	s0,58(a1)
bfc261f4:	7001      	cmpi	s0,1
bfc261f6:	610c      	btnez	bfc26210 <linein_player_status_deal+0x164>
bfc261f8:	b043      	lw	s0,bfc26304 <.LBE3+0xac>
bfc261fa:	98c0      	lw	a2,0(s0)
bfc261fc:	a6e1      	lbu	a3,1(a2)
bfc261fe:	7701      	cmpi	a3,1
bfc26200:	6107      	btnez	bfc26210 <linein_player_status_deal+0x164>
bfc26202:	b240      	lw	v0,bfc26300 <.LBE3+0xa8>
bfc26204:	ea40      	jalr	v0
bfc26206:	6c80      	li	a0,128
bfc26208:	98a0      	lw	a1,0(s0)
bfc2620a:	6c00      	li	a0,0
bfc2620c:	c581      	sb	a0,1(a1)
bfc2620e:	1016      	b	bfc2623c <linein_player_status_deal+0x190>
bfc26210:	6d00      	li	a1,0
bfc26212:	b13a      	lw	s1,bfc262f8 <.LBE3+0xa0>
bfc26214:	67c5      	move	a2,a1
bfc26216:	0c30      	la	a0,bfc262d4 <.LBE3+0x7c>
bfc26218:	e940      	jalr	s1
bfc2621a:	6f4b      	li	a3,75
bfc2621c:	b039      	lw	s0,bfc26300 <.LBE3+0xa8>
bfc2621e:	e840      	jalr	s0
bfc26220:	6c80      	li	a0,128
bfc26222:	b637      	lw	a2,bfc262fc <.LBE3+0xa4>
bfc26224:	9ee0      	lw	a3,0(a2)
bfc26226:	f020 a77a 	lbu	v1,58(a3)
bfc2622a:	7302      	cmpi	v1,2
bfc2622c:	6107      	btnez	bfc2623c <linein_player_status_deal+0x190>
bfc2622e:	6d00      	li	a1,0
bfc26230:	0c2b      	la	a0,bfc262dc <.LBE3+0x84>
bfc26232:	67c5      	move	a2,a1
bfc26234:	e940      	jalr	s1
bfc26236:	6f4b      	li	a3,75
bfc26238:	e840      	jalr	s0
bfc2623a:	6c02      	li	a0,2
bfc2623c:	b33b      	lw	v1,bfc26328 <.LBE3+0xd0>
bfc2623e:	ebc0      	jalrc	v1
bfc26240:	b22f      	lw	v0,bfc262f8 <.LBE3+0xa0>
bfc26242:	b437      	lw	a0,bfc2631c <.LBE3+0xc4>
bfc26244:	9a60      	lw	v1,0(v0)
bfc26246:	a4a0      	lbu	a1,0(a0)
bfc26248:	f020 a39a 	lbu	a0,58(v1)
bfc2624c:	ed8e      	xor	a1,a0
bfc2624e:	250d      	beqz	a1,bfc2626a <.LBE3+0x12>
bfc26250:	b237      	lw	v0,bfc2632c <.LBE3+0xd4>
bfc26252:	2401      	beqz	a0,bfc26256 <.LBB3>

bfc26254 <.LBB2>:
bfc26254:	6c02      	li	a0,2

bfc26256 <.LBB3>:
bfc26256:	eac0      	jalrc	v0

bfc26258 <.LBE3>:
bfc26258:	b429      	lw	a0,bfc262f8 <.LBE3+0xa0>
bfc2625a:	b227      	lw	v0,bfc262f4 <.LBE3+0x9c>
bfc2625c:	6b01      	li	v1,1
bfc2625e:	9ca0      	lw	a1,0(a0)
bfc26260:	c260      	sb	v1,0(v0)
bfc26262:	f020 a5da 	lbu	a2,58(a1)
bfc26266:	b72e      	lw	a3,bfc2631c <.LBE3+0xc4>
bfc26268:	c7c0      	sb	a2,0(a3)
bfc2626a:	b227      	lw	v0,bfc26304 <.LBE3+0xac>
bfc2626c:	b72b      	lw	a3,bfc26318 <.LBE3+0xc0>
bfc2626e:	6b00      	li	v1,0
bfc26270:	9a80      	lw	a0,0(v0)
bfc26272:	c760      	sb	v1,0(a3)
bfc26274:	9ce0      	lw	a3,0(a0)
bfc26276:	b52f      	lw	a1,bfc26330 <.LBE3+0xd8>
bfc26278:	b62f      	lw	a2,bfc26334 <.LBE3+0xdc>
bfc2627a:	efac      	and	a3,a1
bfc2627c:	efce      	xor	a3,a2
bfc2627e:	2f19      	bnez	a3,bfc262b2 <.LBE3+0x5a>
bfc26280:	6d00      	li	a1,0
bfc26282:	b21e      	lw	v0,bfc262f8 <.LBE3+0xa0>
bfc26284:	67c5      	move	a2,a1
bfc26286:	0c18      	la	a0,bfc262e4 <.LBE3+0x8c>
bfc26288:	ea40      	jalr	v0
bfc2628a:	6f4b      	li	a3,75
bfc2628c:	b41c      	lw	a0,bfc262fc <.LBE3+0xa4>
bfc2628e:	9ca0      	lw	a1,0(a0)
bfc26290:	f020 a5da 	lbu	a2,58(a1)
bfc26294:	7601      	cmpi	a2,1
bfc26296:	6106      	btnez	bfc262a4 <.LBE3+0x4c>
bfc26298:	b223      	lw	v0,bfc26324 <.LBE3+0xcc>
bfc2629a:	eac0      	jalrc	v0
bfc2629c:	b71c      	lw	a3,bfc26308 <.LBE3+0xb0>
bfc2629e:	6b01      	li	v1,1
bfc262a0:	c760      	sb	v1,0(a3)
bfc262a2:	1003      	b	bfc262aa <.LBE3+0x52>
bfc262a4:	b317      	lw	v1,bfc26300 <.LBE3+0xa8>
bfc262a6:	eb40      	jalr	v1
bfc262a8:	6c02      	li	a0,2
bfc262aa:	b417      	lw	a0,bfc26304 <.LBE3+0xac>
bfc262ac:	6d00      	li	a1,0
bfc262ae:	9cc0      	lw	a2,0(a0)
bfc262b0:	c6a2      	sb	a1,2(a2)
bfc262b2:	6474      	restore	32,ra,s0-s1
bfc262b4:	e8a0      	jrc	ra
bfc262b6:	0000      	addiu	s0,sp,0
bfc262b8:	7340      	cmpi	v1,64
bfc262ba:	6174      	btnez	bfc263a4 <.LBE6+0x16>
bfc262bc:	7472      	cmpi	a0,114
bfc262be:	003a      	addiu	s0,sp,232
bfc262c0:	3140      	sll	s1,v0,8
bfc262c2:	3a32      	ld	s1,144(v0)
bfc262c4:	0000      	addiu	s0,sp,0
bfc262c6:	0000      	addiu	s0,sp,0
bfc262c8:	6c66      	li	a0,102
bfc262ca:	003a      	addiu	s0,sp,232
bfc262cc:	3147      	sra	s1,v0,1
bfc262ce:	0000      	addiu	s0,sp,0
bfc262d0:	4545      	addiu	v0,a1,5
bfc262d2:	0000      	addiu	s0,sp,0
bfc262d4:	6540      	move	v0,s0
bfc262d6:	3a33      	ld	s1,152(v0)
bfc262d8:	0000      	addiu	s0,sp,0
bfc262da:	0000      	addiu	s0,sp,0
bfc262dc:	6540      	move	v0,s0
bfc262de:	3a34      	ld	s1,160(v0)
bfc262e0:	0000      	addiu	s0,sp,0
bfc262e2:	0000      	addiu	s0,sp,0
bfc262e4:	6a40      	li	v0,64
bfc262e6:	003a      	addiu	s0,sp,232
bfc262e8:	6091      	bteqz	bfc2620c <linein_player_status_deal+0x160>
bfc262ea:	bfc2      	lwu	a2,8(a3)
bfc262ec:	962c      	lw	a2,176(sp)
bfc262ee:	9fc1      	lw	a2,4(a3)
bfc262f0:	95d0      	lw	a1,832(sp)
bfc262f2:	9fc1      	lw	a2,4(a3)
bfc262f4:	9625      	lw	a2,148(sp)
bfc262f6:	9fc1      	lw	a2,4(a3)
bfc262f8:	6009      	bteqz	bfc2630c <.LBE3+0xb4>
bfc262fa:	bfc2      	lwu	a2,8(a3)
bfc262fc:	960c      	lw	a2,48(sp)
bfc262fe:	9fc1      	lw	a2,4(a3)
bfc26300:	68b1      	li	s0,177
bfc26302:	600a      	bteqz	bfc26318 <.LBE3+0xc0>
bfc26304:	9610      	lw	a2,64(sp)
bfc26306:	9fc1      	lw	a2,4(a3)
bfc26308:	6801      	li	s0,1
bfc2630a:	600e      	bteqz	bfc26328 <.LBE3+0xd0>
bfc2630c:	9624      	lw	a2,144(sp)
bfc2630e:	9fc1      	lw	a2,4(a3)
bfc26310:	9628      	lw	a2,160(sp)
bfc26312:	9fc1      	lw	a2,4(a3)
bfc26314:	6ce9      	li	a0,233
bfc26316:	600a      	bteqz	bfc2632c <.LBE3+0xd4>
bfc26318:	95ca      	lw	a1,808(sp)
bfc2631a:	9fc1      	lw	a2,4(a3)
bfc2631c:	95c8      	lw	a1,800(sp)
bfc2631e:	9fc1      	lw	a2,4(a3)
bfc26320:	6abd      	li	v0,189
bfc26322:	600e      	bteqz	bfc26340 <get_message_loop+0x8>
bfc26324:	6b21      	li	v1,33
bfc26326:	600a      	bteqz	bfc2633c <get_message_loop+0x4>
bfc26328:	6c65      	li	a0,101
bfc2632a:	600a      	bteqz	bfc26340 <get_message_loop+0x8>
bfc2632c:	6ae9      	li	v0,233
bfc2632e:	6012      	bteqz	bfc26354 <get_message_loop+0x1c>
bfc26330:	ff00      	daddiu	s0,sp,0
bfc26332:	00ff      	addiu	s0,sp,1020
bfc26334:	0000      	addiu	s0,sp,0
bfc26336:	0001      	addiu	s0,sp,4

bfc26338 <get_message_loop>:
bfc26338:	64f4      	save	32,ra,s0-s1
bfc2633a:	b221      	lw	v0,bfc263bc <.LBE6+0x2e>
bfc2633c:	eac0      	jalrc	v0
bfc2633e:	b321      	lw	v1,bfc263c0 <.LBE6+0x32>
bfc26340:	ebc0      	jalrc	v1
bfc26342:	b021      	lw	s0,bfc263c4 <.LBE6+0x36>
bfc26344:	e8c0      	jalrc	s0
bfc26346:	6702      	move	s0,v0
bfc26348:	2a29      	bnez	v0,bfc2639c <.LBE6+0xe>
bfc2634a:	b620      	lw	a2,bfc263c8 <.LBE6+0x3a>
bfc2634c:	b320      	lw	v1,bfc263cc <.LBE6+0x3e>
bfc2634e:	9ea0      	lw	a1,0(a2)
bfc26350:	a580      	lbu	a0,0(a1)
bfc26352:	7402      	cmpi	a0,2
bfc26354:	611a      	btnez	bfc2638a <.LBB6>

bfc26356 <.LBB4>:
bfc26356:	6c01      	li	a0,1

///修改后台引擎状态
static inline void change_engine_state(engine_state_e engine_state)
{
    g_app_info_state_all.engine_state = engine_state;
bfc26358:	c381      	sb	a0,1(v1)

bfc2635a <.LBE4>:
bfc2635a:	b31e      	lw	v1,bfc263d0 <.LBE6+0x42>
bfc2635c:	9b40      	lw	v0,0(v1)
bfc2635e:	f020 a2fa 	lbu	a3,58(v0)
bfc26362:	7702      	cmpi	a3,2
bfc26364:	6114      	btnez	bfc2638e <.LBE6>
bfc26366:	b11c      	lw	s1,bfc263d4 <.LBE6+0x46>
bfc26368:	81c0      	lb	a2,0(s1)
bfc2636a:	edcf      	not	a1,a2
bfc2636c:	2d10      	bnez	a1,bfc2638e <.LBE6>
bfc2636e:	b21b      	lw	v0,bfc263d8 <.LBE6+0x4a>
bfc26370:	67b0      	move	a1,s0
bfc26372:	67d0      	move	a2,s0
bfc26374:	0c0e      	la	a0,bfc263ac <.LBE6+0x1e>
bfc26376:	ea40      	jalr	v0
bfc26378:	6f4b      	li	a3,75
bfc2637a:	b619      	lw	a2,bfc263dc <.LBE6+0x4e>
bfc2637c:	b019      	lw	s0,bfc263e0 <.LBE6+0x52>
bfc2637e:	f27d 6d00 	li	a1,60000
bfc26382:	e840      	jalr	s0
bfc26384:	6c01      	li	a0,1
bfc26386:	c140      	sb	v0,0(s1)
bfc26388:	1002      	b	bfc2638e <.LBE6>

bfc2638a <.LBB6>:
bfc2638a:	6f02      	li	a3,2
}

///修改后台引擎状态
static inline void change_engine_state(engine_state_e engine_state)
{
bfc2638c:	c3e1      	sb	a3,1(v1)

bfc2638e <.LBE6>:
    g_app_info_state_all.engine_state = engine_state;
bfc2638e:	6d00      	li	a1,0
bfc26390:	b012      	lw	s0,bfc263d8 <.LBE6+0x4a>
bfc26392:	6c01      	li	a0,1
bfc26394:	67c5      	move	a2,a1
bfc26396:	e840      	jalr	s0
bfc26398:	6f31      	li	a3,49
bfc2639a:	17d1      	b	bfc2633e <get_message_loop+0x6>
bfc2639c:	b212      	lw	v0,bfc263e4 <.LBE6+0x56>
bfc2639e:	eac0      	jalrc	v0
bfc263a0:	b312      	lw	v1,bfc263e4 <.LBE6+0x56>
bfc263a2:	ebc0      	jalrc	v1
bfc263a4:	6750      	move	v0,s0
bfc263a6:	6474      	restore	32,ra,s0-s1
bfc263a8:	e8a0      	jrc	ra
bfc263aa:	0000      	addiu	s0,sp,0
bfc263ac:	7266      	cmpi	v0,102
bfc263ae:	6565      	move	v1,a1
bfc263b0:	6420      	restore	128,s0
bfc263b2:	7073      	cmpi	s0,115
bfc263b4:	6420      	restore	128,s0
bfc263b6:	6165      	btnez	bfc26482 <encode_sbc_data+0x62>
bfc263b8:	006c      	addiu	s0,sp,432
bfc263ba:	0000      	addiu	s0,sp,0
bfc263bc:	6801      	li	s0,1
bfc263be:	6006      	bteqz	bfc263cc <.LBE6+0x3e>
bfc263c0:	60ad      	bteqz	bfc2631c <.LBE3+0xc4>
bfc263c2:	bfc2      	lwu	a2,8(a3)
bfc263c4:	601d      	bteqz	bfc26400 <move_data+0x14>
bfc263c6:	bfc2      	lwu	a2,8(a3)
bfc263c8:	961c      	lw	a2,112(sp)
bfc263ca:	9fc1      	lw	a2,4(a3)
bfc263cc:	a094      	lbu	a0,20(s0)
bfc263ce:	9fc1      	lw	a2,4(a3)
bfc263d0:	960c      	lw	a2,48(sp)
bfc263d2:	9fc1      	lw	a2,4(a3)
bfc263d4:	9586      	lw	a1,536(sp)
bfc263d6:	9fc1      	lw	a2,4(a3)
bfc263d8:	6009      	bteqz	bfc263ec <move_data>
bfc263da:	bfc2      	lwu	a2,8(a3)
bfc263dc:	6801      	li	s0,1
bfc263de:	600a      	bteqz	bfc263f4 <move_data+0x8>
bfc263e0:	6afd      	li	v0,253
bfc263e2:	60a2      	bteqz	bfc26328 <.LBE3+0xd0>
bfc263e4:	6b7d      	li	v1,125
bfc263e6:	600a      	bteqz	bfc263fc <move_data+0x10>
bfc263e8:	6869      	li	s0,105
bfc263ea:	6006      	bteqz	bfc263f8 <move_data+0xc>

bfc263ec <move_data>:
bfc263ec:	64f4      	save	32,ra,s0-s1

void pcm_data_deal(void)
{
    check_linein_data();
}

void move_data(uint32 addr, uint32 len)
{
bfc263ee:	b10a      	lw	s1,bfc26414 <move_data+0x28>
//   libc_print("addr:",addr,2);
//   libc_print("len:",len,2);
//   libc_print("mov_ptr:",mov_ptr,2);
    libc_memcpy((uint8 *) addr, SBC_ENC_BUFFER + mov_ptr, len);
bfc263f0:	6705      	move	s0,a1
bfc263f2:	a9c0      	lhu	a2,0(s1)
bfc263f4:	b509      	lw	a1,bfc26418 <move_data+0x2c>
bfc263f6:	b20a      	lw	v0,bfc2641c <move_data+0x30>
bfc263f8:	e6b5      	addu	a1,a2,a1
bfc263fa:	6f00      	li	a3,0
bfc263fc:	ea40      	jalr	v0
bfc263fe:	67d0      	move	a2,s0
bfc26400:	a980      	lhu	a0,0(s1)
    mov_ptr += len;
bfc26402:	f1c0 6b1c 	li	v1,476
    mov_ptr %= (SBC_FRAME_LENGTH * SBC_ENCODE_FRAME_CNT);
bfc26406:	e081      	addu	s0,a0
bfc26408:	e831      	zeh	s0
bfc2640a:	e87b      	divu	zero,s0,v1
bfc2640c:	ea10      	mfhi	v0
bfc2640e:	c940      	sh	v0,0(s1)
bfc26410:	6474      	restore	32,ra,s0-s1
bfc26412:	e8a0      	jrc	ra
bfc26414:	962a      	lw	a2,168(sp)
bfc26416:	9fc1      	lw	a2,4(a3)
bfc26418:	8380      	lb	a0,0(v1)
bfc2641a:	9fc1      	lw	a2,4(a3)
bfc2641c:	6005      	bteqz	bfc26428 <encode_sbc_data+0x8>
bfc2641e:	bfc2      	lwu	a2,8(a3)

bfc26420 <encode_sbc_data>:
bfc26420:	64f8      	save	64,ra,s0-s1
//   libc_print("f_len:",len,2);
}

void encode_sbc_data(uint32 buffer, uint8 len)
{
bfc26422:	b21e      	lw	v0,bfc26498 <encode_sbc_data+0x78>
    //lineintws节点1 ADCbuf半满 A22
//    act_writel(act_readl(GPIOAOUTEN) | (1<<22), GPIOAOUTEN);
//    act_writel(act_readl(GPIOADAT) | (1<<22), GPIOADAT);
//    act_writel(act_readl(GPIOADAT) & (~(1<<22)), GPIOADAT);
    sbc_encode_param_t p_temp;
    uint32 wr_en, temp_flag;
    uint8 i;

    if(g_app_info_state_all.voice_recgnize_stop_mode) {
bfc26424:	6724      	move	s1,a0
bfc26426:	a27a      	lbu	v1,26(v0)
bfc26428:	6a40      	li	v0,64
bfc2642a:	eb4c      	and	v1,v0
bfc2642c:	2b33      	bnez	v1,bfc26494 <encode_sbc_data+0x74>
bfc2642e:	b61c      	lw	a2,bfc2649c <encode_sbc_data+0x7c>
        return;
    }
    //p_temp.input_buffer = buffer;
    p_temp.input_len = 512;
    p_temp.bit_depth = 16;
    p_temp.gain = (1 << 24);        //4728462;
bfc26430:	b51c      	lw	a1,bfc264a0 <encode_sbc_data+0x80>
    p_temp.output_buffer = SBC_ENC_BUFFER;
bfc26432:	f1c0 4a00 	addiu	v0,448
bfc26436:	6f10      	li	a3,16
bfc26438:	6c77      	li	a0,119
    p_temp.output_len = SBC_FRAME_LENGTH;
bfc2643a:	d205      	sw	v0,20(sp)
bfc2643c:	d706      	sw	a3,24(sp)
bfc2643e:	d607      	sw	a2,28(sp)
bfc26440:	d508      	sw	a1,32(sp)
bfc26442:	d409      	sw	a0,36(sp)
bfc26444:	6703      	move	s0,v1

    for(i = 0; i < SBC_ENCODE_FRAME_CNT; i++) {
bfc26446:	6f77      	li	a3,119
#if 1
        p_temp.input_buffer = (buffer + 512 * i);
        p_temp.output_buffer = (SBC_ENC_BUFFER + SBC_FRAME_LENGTH * i);
bfc26448:	e8f8      	mult	s0,a3
bfc2644a:	b516      	lw	a1,bfc264a0 <encode_sbc_data+0x80>
bfc2644c:	ee12      	mflo	a2
bfc2644e:	3400      	sll	a0,s0,8
bfc26450:	3284      	sll	v0,a0,1
bfc26452:	e6b1      	addu	a0,a2,a1
bfc26454:	e14d      	addu	v1,s1,v0
bfc26456:	d408      	sw	a0,32(sp)
bfc26458:	b214      	lw	v0,bfc264a8 <encode_sbc_data+0x88>
        bt_drv_sbc_encode(&sbc_obj, &p_temp, &wr_en);
bfc2645a:	b413      	lw	a0,bfc264a4 <encode_sbc_data+0x84>
bfc2645c:	d304      	sw	v1,16(sp)
bfc2645e:	0504      	addiu	a1,sp,16
bfc26460:	060a      	addiu	a2,sp,40
bfc26462:	ea40      	jalr	v0
bfc26464:	6f02      	li	a3,2
bfc26466:	4061      	addiu	v1,s0,1
bfc26468:	6703      	move	s0,v1
bfc2646a:	e811      	zeb	s0
bfc2646c:	5804      	sltiu	s0,4
bfc2646e:	61eb      	btnez	bfc26446 <encode_sbc_data+0x26>
bfc26470:	6c00      	li	a0,0
#endif
    }

    //lineintws节点2 SBC编码 B7
//    act_writel(act_readl(GPIOBOUTEN) | (1<<7), GPIOBOUTEN);
//    act_writel(act_readl(GPIOBDAT) | (1<<7), GPIOBDAT);
//    act_writel(act_readl(GPIOBDAT) & (~(1<<7)), GPIOBDAT);

#if 1
    temp_flag = sys_local_irq_save();
bfc26472:	b10f      	lw	s1,bfc264ac <encode_sbc_data+0x8c>
bfc26474:	67c4      	move	a2,a0
bfc26476:	67a4      	move	a1,a0
bfc26478:	e940      	jalr	s1
bfc2647a:	6f2d      	li	a3,45
bfc2647c:	b50d      	lw	a1,bfc264b0 <encode_sbc_data+0x90>
    update_pipe(&move_data, SBC_FRAME_LENGTH * SBC_ENCODE_FRAME_CNT);
bfc2647e:	b40e      	lw	a0,bfc264b4 <encode_sbc_data+0x94>
bfc26480:	9d60      	lw	v1,0(a1)
bfc26482:	f1c0 6d1c 	li	a1,476
bfc26486:	eb40      	jalr	v1
bfc26488:	6702      	move	s0,v0
bfc2648a:	6d00      	li	a1,0
    sys_local_irq_restore(temp_flag);
bfc2648c:	6790      	move	a0,s0
bfc2648e:	67c5      	move	a2,a1
bfc26490:	e940      	jalr	s1
bfc26492:	6f2e      	li	a3,46
bfc26494:	6478      	restore	64,ra,s0-s1
#endif
}
bfc26496:	e8a0      	jrc	ra
bfc26498:	a094      	lbu	a0,20(s0)
bfc2649a:	9fc1      	lw	a2,4(a3)
bfc2649c:	0000      	addiu	s0,sp,0
bfc2649e:	0100      	addiu	s1,sp,0
bfc264a0:	8380      	lb	a0,0(v1)
bfc264a2:	9fc1      	lw	a2,4(a3)
bfc264a4:	95b4      	lw	a1,720(sp)
bfc264a6:	9fc1      	lw	a2,4(a3)
bfc264a8:	6019      	bteqz	bfc264dc <check_linein_data+0x24>
bfc264aa:	bfc2      	lwu	a2,8(a3)
bfc264ac:	6009      	bteqz	bfc264c0 <check_linein_data+0x8>
bfc264ae:	bfc2      	lwu	a2,8(a3)
bfc264b0:	9620      	lw	a2,128(sp)
bfc264b2:	9fc1      	lw	a2,4(a3)
bfc264b4:	63ed      	addiu	sp,-152
bfc264b6:	bfc2      	lwu	a2,8(a3)

bfc264b8 <check_linein_data>:
bfc264b8:	64c3      	save	24,ra

void check_linein_data(void)
{
bfc264ba:	b312      	lw	v1,bfc26500 <check_linein_data+0x48>
    if((act_readl(DMAIP) & 0x00000800) != 0) {
bfc264bc:	f001 6c00 	li	a0,2048
bfc264c0:	9b40      	lw	v0,0(v1)
bfc264c2:	67a3      	move	a1,v1
bfc264c4:	ea8c      	and	v0,a0
bfc264c6:	220a      	beqz	v0,bfc264dc <check_linein_data+0x24>
bfc264c8:	9b40      	lw	v0,0(v1)
        //libc_print("half",0,0);
        //clear half IRQ Pending
        while((act_readl(DMAIP) & 0x00000800) != 0) {
            act_writel(0x00000800, DMAIP);
bfc264ca:	ea8c      	and	v0,a0
bfc264cc:	2205      	beqz	v0,bfc264d8 <check_linein_data+0x20>
bfc264ce:	dd80      	sw	a0,0(a1)
bfc264d0:	9d40      	lw	v0,0(a1)
bfc264d2:	f001 6c00 	li	a0,2048
bfc264d6:	17f9      	b	bfc264ca <check_linein_data+0x12>
bfc264d8:	b40b      	lw	a0,bfc26504 <check_linein_data+0x4c>
        }
        encode_sbc_data(ADC_SAMPLE_BUFFER, SBC_ENCODE_FRAME_CNT);
bfc264da:	100c      	b	bfc264f4 <check_linein_data+0x3c>
bfc264dc:	9ba0      	lw	a1,0(v1)
    } else if((act_readl(DMAIP) & 0x00000008) != 0) {
bfc264de:	6c08      	li	a0,8
bfc264e0:	ed8c      	and	a1,a0
bfc264e2:	250b      	beqz	a1,bfc264fa <check_linein_data+0x42>
bfc264e4:	9b40      	lw	v0,0(v1)
        //libc_print("Complete",0,0);
        //clear Complete IRQ Pending
        while((act_readl(DMAIP) & 0x00000008) != 0) {
            act_writel(0x00000008, DMAIP);
bfc264e6:	ea8c      	and	v0,a0
bfc264e8:	2204      	beqz	v0,bfc264f2 <check_linein_data+0x3a>
bfc264ea:	db80      	sw	a0,0(v1)
bfc264ec:	9b40      	lw	v0,0(v1)
bfc264ee:	6c08      	li	a0,8
bfc264f0:	17fa      	b	bfc264e6 <check_linein_data+0x2e>
bfc264f2:	b407      	lw	a0,bfc2650c <check_linein_data+0x54>
        }
        encode_sbc_data(ADC_SAMPLE_BUFFER + ADC_SAMPLE_BUFFER_HALF, SBC_ENCODE_FRAME_CNT);
bfc264f4:	b305      	lw	v1,bfc26508 <check_linein_data+0x50>
bfc264f6:	eb40      	jalr	v1
bfc264f8:	6d04      	li	a1,4
bfc264fa:	6443      	restore	24,ra
    } else {
        ;        //qac
    }
}
bfc264fc:	e8a0      	jrc	ra
bfc264fe:	0000      	addiu	s0,sp,0
bfc26500:	0004      	addiu	s0,sp,16
bfc26502:	c00c      	sb	s0,12(s0)
bfc26504:	8580      	lb	a0,0(a1)
bfc26506:	9fc1      	lw	a2,4(a3)
bfc26508:	6421      	restore	8,s0
bfc2650a:	bfc2      	lwu	a2,8(a3)
bfc2650c:	8d80      	lh	a0,0(a1)
bfc2650e:	9fc1      	lw	a2,4(a3)

bfc26510 <pcm_data_deal>:
bfc26510:	64c3      	save	24,ra
bfc26512:	b203      	lw	v0,bfc2651c <pcm_data_deal+0xc>
bfc26514:	eac0      	jalrc	v0
bfc26516:	6443      	restore	24,ra
bfc26518:	e8a0      	jrc	ra
bfc2651a:	0000      	addiu	s0,sp,0
bfc2651c:	64b9      	save	72,s0-s1
bfc2651e:	bfc2      	lwu	a2,8(a3)

bfc26520 <handle_timers>:
bfc26520:	f004 64f5 	save	a0,40,ra,s0-s1
bfc26524:	ed11      	zeb	a1
bfc26526:	6c00      	li	a0,0
bfc26528:	b23a      	lw	v0,bfc26610 <handle_timers+0xf0>
bfc2652a:	d504      	sw	a1,16(sp)
bfc2652c:	6f1c      	li	a3,28
bfc2652e:	67a4      	move	a1,a0
bfc26530:	ea40      	jalr	v0
bfc26532:	67c4      	move	a2,a0
bfc26534:	9304      	lw	v1,16(sp)
bfc26536:	67e2      	move	a3,v0
bfc26538:	6a00      	li	v0,0
bfc2653a:	d205      	sw	v0,20(sp)
bfc2653c:	2366      	beqz	v1,bfc2660a <handle_timers+0xea>
bfc2653e:	9405      	lw	a0,20(sp)
bfc26540:	930a      	lw	v1,40(sp)
bfc26542:	3290      	sll	v0,a0,4
bfc26544:	e351      	addu	a0,v1,v0
bfc26546:	a4a0      	lbu	a1,0(a0)
bfc26548:	6e03      	li	a2,3
bfc2654a:	edcc      	and	a1,a2
bfc2654c:	7501      	cmpi	a1,1
bfc2654e:	6156      	btnez	bfc265fc <handle_timers+0xdc>
bfc26550:	b631      	lw	a2,bfc26614 <handle_timers+0xf4>
bfc26552:	a461      	lbu	v1,1(a0)
bfc26554:	a6a0      	lbu	a1,0(a2)
bfc26556:	ed6e      	xor	a1,v1
bfc26558:	2502      	beqz	a1,bfc2655e <handle_timers+0x3e>
bfc2655a:	73ff      	cmpi	v1,255
bfc2655c:	614f      	btnez	bfc265fc <handle_timers+0xdc>
bfc2655e:	677d      	move	v1,sp
bfc26560:	a354      	lbu	v0,20(v1)
bfc26562:	b12e      	lw	s1,bfc26618 <handle_timers+0xf8>
bfc26564:	6860      	li	s0,96
bfc26566:	c140      	sb	v0,0(s1)
bfc26568:	a460      	lbu	v1,0(a0)
bfc2656a:	acc2      	lhu	a2,4(a0)
bfc2656c:	e86c      	and	s0,v1
bfc2656e:	7020      	cmpi	s0,32
bfc26570:	653e      	move	t9,a2
bfc26572:	6101      	btnez	bfc26576 <handle_timers+0x56>
bfc26574:	acc3      	lhu	a2,6(a0)
bfc26576:	9ca2      	lw	a1,8(a0)
bfc26578:	e7c1      	addu	s0,a3,a2
bfc2657a:	efa3      	sltu	a3,a1
bfc2657c:	6900      	li	s1,0
bfc2657e:	612e      	btnez	bfc265dc <handle_timers+0xbc>
bfc26580:	6910      	li	s1,16
bfc26582:	e96c      	and	s1,v1
bfc26584:	2104      	beqz	s1,bfc2658e <handle_timers+0x6e>
bfc26586:	6904      	li	s1,4
bfc26588:	ea2b      	neg	v0,s1
bfc2658a:	eb4c      	and	v1,v0
bfc2658c:	c460      	sb	v1,0(a0)
bfc2658e:	e7af      	subu	v1,a3,a1
bfc26590:	67f9      	move	a3,t9
bfc26592:	ebe3      	sltu	v1,a3
bfc26594:	6901      	li	s1,1
bfc26596:	6003      	bteqz	bfc2659e <handle_timers+0x7e>
bfc26598:	e5c9      	addu	v0,a1,a2
bfc2659a:	dc42      	sw	v0,8(a0)
bfc2659c:	1001      	b	bfc265a0 <handle_timers+0x80>
bfc2659e:	dc02      	sw	s0,8(a0)
bfc265a0:	a460      	lbu	v1,0(a0)
bfc265a2:	6d20      	li	a1,32
bfc265a4:	ed6c      	and	a1,v1
bfc265a6:	251a      	beqz	a1,bfc265dc <handle_timers+0xbc>
bfc265a8:	6d40      	li	a1,64
bfc265aa:	67c3      	move	a2,v1
bfc265ac:	eeac      	and	a2,a1
bfc265ae:	2605      	beqz	a2,bfc265ba <handle_timers+0x9a>
bfc265b0:	6a41      	li	v0,65
bfc265b2:	ef4b      	neg	a3,v0
bfc265b4:	ebec      	and	v1,a3
bfc265b6:	c460      	sb	v1,0(a0)
bfc265b8:	1011      	b	bfc265dc <handle_timers+0xbc>
bfc265ba:	ebad      	or	v1,a1
bfc265bc:	c460      	sb	v1,0(a0)
bfc265be:	a462      	lbu	v1,2(a0)
bfc265c0:	67a3      	move	a1,v1
bfc265c2:	ed11      	zeb	a1
bfc265c4:	75ff      	cmpi	a1,255
bfc265c6:	6002      	bteqz	bfc265cc <handle_timers+0xac>
bfc265c8:	43cf      	addiu	a2,v1,-1
bfc265ca:	c4c2      	sb	a2,2(a0)
bfc265cc:	a4a2      	lbu	a1,2(a0)
bfc265ce:	2d06      	bnez	a1,bfc265dc <handle_timers+0xbc>
bfc265d0:	a420      	lbu	s1,0(a0)
bfc265d2:	6f04      	li	a3,4
bfc265d4:	ebeb      	neg	v1,a3
bfc265d6:	e96c      	and	s1,v1
bfc265d8:	c420      	sb	s1,0(a0)
bfc265da:	6725      	move	s1,a1
bfc265dc:	9c42      	lw	v0,8(a0)
bfc265de:	ea03      	sltu	v0,s0
bfc265e0:	6101      	btnez	bfc265e4 <handle_timers+0xc4>
bfc265e2:	dc02      	sw	s0,8(a0)
bfc265e4:	7101      	cmpi	s1,1
bfc265e6:	6103      	btnez	bfc265ee <handle_timers+0xce>
bfc265e8:	9c43      	lw	v0,12(a0)
bfc265ea:	2201      	beqz	v0,bfc265ee <handle_timers+0xce>
bfc265ec:	eac0      	jalrc	v0
bfc265ee:	6c00      	li	a0,0
bfc265f0:	b208      	lw	v0,bfc26610 <handle_timers+0xf0>
bfc265f2:	6f1c      	li	a3,28
bfc265f4:	67a4      	move	a1,a0
bfc265f6:	ea40      	jalr	v0
bfc265f8:	67c4      	move	a2,a0
bfc265fa:	67e2      	move	a3,v0
bfc265fc:	9605      	lw	a2,20(sp)
bfc265fe:	9404      	lw	a0,16(sp)
bfc26600:	46a1      	addiu	a1,a2,1
bfc26602:	ed11      	zeb	a1
bfc26604:	ed83      	sltu	a1,a0
bfc26606:	d505      	sw	a1,20(sp)
bfc26608:	619a      	btnez	bfc2653e <handle_timers+0x1e>
bfc2660a:	6475      	restore	40,ra,s0-s1
bfc2660c:	e8a0      	jrc	ra
bfc2660e:	0000      	addiu	s0,sp,0
bfc26610:	6009      	bteqz	bfc26624 <get_app_msg+0x8>
bfc26612:	bfc2      	lwu	a2,8(a3)
bfc26614:	9599      	lw	a1,612(sp)
bfc26616:	9fc1      	lw	a2,4(a3)
bfc26618:	9598      	lw	a1,608(sp)
bfc2661a:	9fc1      	lw	a2,4(a3)

bfc2661c <get_app_msg>:
bfc2661c:	64e3      	save	24,ra,s0
bfc2661e:	b20b      	lw	v0,bfc26648 <get_app_msg+0x2c>
bfc26620:	6704      	move	s0,a0
bfc26622:	a2a0      	lbu	a1,0(v0)
bfc26624:	2504      	beqz	a1,bfc2662e <get_app_msg+0x12>
bfc26626:	b60a      	lw	a2,bfc2664c <get_app_msg+0x30>
bfc26628:	b30a      	lw	v1,bfc26650 <get_app_msg+0x34>
bfc2662a:	eb40      	jalr	v1
bfc2662c:	9e80      	lw	a0,0(a2)
bfc2662e:	b40a      	lw	a0,bfc26654 <get_app_msg+0x38>
bfc26630:	b20a      	lw	v0,bfc26658 <get_app_msg+0x3c>
bfc26632:	9ca0      	lw	a1,0(a0)
bfc26634:	6e00      	li	a2,0
bfc26636:	a583      	lbu	a0,3(a1)
bfc26638:	6f19      	li	a3,25
bfc2663a:	ea40      	jalr	v0
bfc2663c:	67b0      	move	a1,s0
bfc2663e:	5a01      	sltiu	v0,1
bfc26640:	6758      	move	v0,t8
bfc26642:	6463      	restore	24,ra,s0
bfc26644:	e8a0      	jrc	ra
bfc26646:	0000      	addiu	s0,sp,0
bfc26648:	95a4      	lw	a1,656(sp)
bfc2664a:	9fc1      	lw	a2,4(a3)
bfc2664c:	9594      	lw	a1,592(sp)
bfc2664e:	9fc1      	lw	a2,4(a3)
bfc26650:	6521      	move	at,s1
bfc26652:	bfc2      	lwu	a2,8(a3)
bfc26654:	959c      	lw	a1,624(sp)
bfc26656:	9fc1      	lw	a2,4(a3)
bfc26658:	6009      	bteqz	bfc2666c <get_app_msg+0x50>
bfc2665a:	bfc2      	lwu	a2,8(a3)
Disassembly of section BANK_CONTROL_1_0:

60026800 <process_start>:
60026800:	64d4      	save	32,ra,s1
60026802:	0104      	addiu	s1,sp,16
60026804:	d984      	sw	a0,16(s1)
60026806:	9944      	lw	v0,16(s1)
60026808:	6782      	move	a0,v0
6002680a:	6d00      	li	a1,0
6002680c:	b207      	lw	v0,60026828 <BANK_CONTROL_1_ADDR_BASE+0x28>
6002680e:	eac0      	jalrc	v0
60026810:	c140      	sb	v0,0(s1)
60026812:	8140      	lb	v0,0(s1)
60026814:	6782      	move	a0,v0
60026816:	6d00      	li	a1,0
60026818:	6e00      	li	a2,0
6002681a:	6f0e      	li	a3,14
6002681c:	b204      	lw	v0,6002682c <BANK_CONTROL_1_ADDR_BASE+0x2c>
6002681e:	eac0      	jalrc	v0
60026820:	6a00      	li	v0,0
60026822:	65b9      	move	sp,s1
60026824:	6452      	restore	16,ra,s1
60026826:	e8a0      	jrc	ra
60026828:	6899      	li	s0,153
6002682a:	6006      	bteqz	60026838 <__start+0x8>
6002682c:	6005      	bteqz	60026838 <__start+0x8>
6002682e:	bfc2      	lwu	a2,8(a3)

60026830 <__start>:
60026830:	64d6      	save	48,ra,s1
60026832:	0104      	addiu	s1,sp,16
60026834:	d988      	sw	a0,32(s1)
60026836:	d9a9      	sw	a1,36(s1)
60026838:	6c00      	li	a0,0
6002683a:	6d00      	li	a1,0
6002683c:	6e00      	li	a2,0
6002683e:	6f10      	li	a3,16
60026840:	b220      	lw	v0,600268c0 <__start+0x90>
60026842:	eac0      	jalrc	v0
60026844:	c150      	sb	v0,16(s1)
60026846:	8170      	lb	v1,16(s1)
60026848:	6a01      	li	v0,1
6002684a:	ea4b      	neg	v0
6002684c:	ea6e      	xor	v0,v1
6002684e:	5a01      	sltiu	v0,1
60026850:	6004      	bteqz	6002685a <__start+0x2a>
60026852:	6a01      	li	v0,1
60026854:	ea4b      	neg	v0
60026856:	d945      	sw	v0,20(s1)
60026858:	102e      	b	600268b6 <__start+0x86>
6002685a:	b21b      	lw	v0,600268c4 <__start+0x94>
6002685c:	d940      	sw	v0,0(s1)
6002685e:	9948      	lw	v0,32(s1)
60026860:	d941      	sw	v0,4(s1)
60026862:	9949      	lw	v0,36(s1)
60026864:	9a41      	lw	v0,4(v0)
60026866:	d942      	sw	v0,8(s1)
60026868:	9949      	lw	v0,36(s1)
6002686a:	aa41      	lhu	v0,2(v0)
6002686c:	c946      	sh	v0,12(s1)
6002686e:	6c00      	li	a0,0
60026870:	6d00      	li	a1,0
60026872:	6e00      	li	a2,0
60026874:	6f33      	li	a3,51
60026876:	b215      	lw	v0,600268c8 <__start+0x98>
60026878:	eac0      	jalrc	v0
6002687a:	9949      	lw	v0,36(s1)
6002687c:	aa40      	lhu	v0,0(v0)
6002687e:	8170      	lb	v1,16(s1)
60026880:	6791      	move	a0,s1
60026882:	67a2      	move	a1,v0
60026884:	67c3      	move	a2,v1
60026886:	6f4a      	li	a3,74
60026888:	b210      	lw	v0,600268c8 <__start+0x98>
6002688a:	eac0      	jalrc	v0
6002688c:	5200      	slti	v0,0
6002688e:	6011      	bteqz	600268b2 <__start+0x82>
60026890:	8150      	lb	v0,16(s1)
60026892:	6782      	move	a0,v0
60026894:	6d00      	li	a1,0
60026896:	6e00      	li	a2,0
60026898:	6f11      	li	a3,17
6002689a:	b20a      	lw	v0,600268c0 <__start+0x90>
6002689c:	eac0      	jalrc	v0
6002689e:	6c00      	li	a0,0
600268a0:	6d00      	li	a1,0
600268a2:	6e00      	li	a2,0
600268a4:	6f34      	li	a3,52
600268a6:	b209      	lw	v0,600268c8 <__start+0x98>
600268a8:	eac0      	jalrc	v0
600268aa:	6a01      	li	v0,1
600268ac:	ea4b      	neg	v0
600268ae:	d945      	sw	v0,20(s1)
600268b0:	1002      	b	600268b6 <__start+0x86>
600268b2:	6a00      	li	v0,0
600268b4:	d945      	sw	v0,20(s1)
600268b6:	9945      	lw	v0,20(s1)
600268b8:	65b9      	move	sp,s1
600268ba:	6454      	restore	32,ra,s1
600268bc:	e8a0      	jrc	ra
600268be:	0000      	addiu	s0,sp,0
600268c0:	6005      	bteqz	600268cc <__start+0x9c>
600268c2:	bfc2      	lwu	a2,8(a3)
600268c4:	6801      	li	s0,1
600268c6:	6002      	bteqz	600268cc <__start+0x9c>
600268c8:	6009      	bteqz	600268dc <__start+0xac>
600268ca:	bfc2      	lwu	a2,8(a3)
Disassembly of section BANK_CONTROL_1_1:

60066800 <message_loop_init>:
60066800:	64c3      	save	24,ra
    _save_var();
}

void message_loop_init(void)
{
60066802:	b213      	lw	v0,6006684c <message_loop_init+0x4c>
    update_btstack_parm_control(1);
60066804:	ea40      	jalr	v0
60066806:	6c01      	li	a0,1
60066808:	b512      	lw	a1,60066850 <message_loop_init+0x50>
    //g_need_adc_flag = 1;
    g_app_info_state_all.voice_recgnize_stop_mode = 0;
6006680a:	6a41      	li	v0,65
6006680c:	a5da      	lbu	a2,26(a1)
6006680e:	ef4b      	neg	a3,v0
60066810:	eeec      	and	a2,a3
60066812:	b411      	lw	a0,60066854 <message_loop_init+0x54>
    if(g_p_bt_stack_cur_info->dev_role == 2) {
60066814:	c5da      	sb	a2,26(a1)
60066816:	9c60      	lw	v1,0(a0)
60066818:	f020 a35a 	lbu	v0,58(v1)
6006681c:	6b01      	li	v1,1
        //libc_print("@e1:",0,0);

        btplay_engine_pipe_control(PIPE_OP_UNFILTER);

        tws_sync_cmd_send(TWS_SLAVE_ENTER_SYNC);
        g_first_no_sample = 0;
    } else {
        g_first_no_sample = 1;
6006681e:	7202      	cmpi	v0,2
60066820:	6107      	btnez	60066830 <message_loop_init+0x30>
60066822:	b20e      	lw	v0,60066858 <message_loop_init+0x58>
60066824:	ea40      	jalr	v0
60066826:	6c02      	li	a0,2
60066828:	b30d      	lw	v1,6006685c <message_loop_init+0x5c>
6006682a:	eb40      	jalr	v1
6006682c:	6c03      	li	a0,3
6006682e:	6b00      	li	v1,0
60066830:	b40c      	lw	a0,60066860 <message_loop_init+0x60>
60066832:	b20d      	lw	v0,60066864 <message_loop_init+0x64>
    }

    set_btstack_linein_ext(2);
60066834:	dc62      	sw	v1,8(a0)
60066836:	ea40      	jalr	v0
60066838:	6c02      	li	a0,2
6006683a:	b707      	lw	a3,60066854 <message_loop_init+0x54>
    //btplay_engine_pipe_control(PIPE_OP_UNFILTER);

    tws_or_notws_flag = g_p_bt_stack_cur_info->dev_role;
6006683c:	b409      	lw	a0,60066860 <message_loop_init+0x60>
6006683e:	9fc0      	lw	a2,0(a3)
60066840:	f020 a6ba 	lbu	a1,58(a2)
60066844:	c4a0      	sb	a1,0(a0)
60066846:	6443      	restore	24,ra
60066848:	e8a0      	jrc	ra
6006684a:	0000      	addiu	s0,sp,0
6006684c:	6981      	li	s1,129
6006684e:	600a      	bteqz	60066864 <message_loop_init+0x64>
60066850:	a094      	lbu	a0,20(s0)
60066852:	9fc1      	lw	a2,4(a3)
60066854:	960c      	lw	a2,48(sp)
60066856:	9fc1      	lw	a2,4(a3)
60066858:	68b1      	li	s0,177
6006685a:	600a      	bteqz	60066870 <message_loop_exit+0x8>
6006685c:	6881      	li	s0,129
6006685e:	600a      	bteqz	60066874 <message_loop_exit+0xc>
60066860:	95c8      	lw	a1,800(sp)
60066862:	9fc1      	lw	a2,4(a3)
60066864:	6ae9      	li	v0,233
60066866:	6012      	bteqz	6006688c <message_loop_exit+0x24>

60066868 <message_loop_exit>:
60066868:	64c3      	save	24,ra
}

void message_loop_exit(void)
{
6006686a:	6d00      	li	a1,0
    //销毁共享查询
    if(sys_share_query_destroy(APP_ID_LINEIN_EG) == -1) {
6006686c:	b208      	lw	v0,6006688c <message_loop_exit+0x24>
6006686e:	6c0f      	li	a0,15
60066870:	67c5      	move	a2,a1
60066872:	ea40      	jalr	v0
60066874:	6f44      	li	a3,68
60066876:	ea4f      	not	v0
60066878:	2a01      	bnez	v0,6006687c <message_loop_exit+0x14>
6006687a:	17ff      	b	6006687a <message_loop_exit+0x12>
        // PRINT_ERR("btcall share query destroy fail!!");
        while(1) {
6006687c:	b205      	lw	v0,60066890 <message_loop_exit+0x28>
            ; //nothing for QAC
        }
    }
    set_btstack_linein_ext(0);
6006687e:	ea40      	jalr	v0
60066880:	6c00      	li	a0,0
60066882:	b205      	lw	v0,60066894 <message_loop_exit+0x2c>

    update_btstack_parm_control(0);
60066884:	ea40      	jalr	v0
60066886:	6c00      	li	a0,0
60066888:	6443      	restore	24,ra
6006688a:	e8a0      	jrc	ra
6006688c:	6009      	bteqz	600668a0 <.LBB2+0x6>
6006688e:	bfc2      	lwu	a2,8(a3)
60066890:	6ae9      	li	v0,233
60066892:	6012      	bteqz	600668b8 <.LBB2+0x1e>
60066894:	6981      	li	s1,129
60066896:	600a      	bteqz	600668ac <.LBB2+0x12>

60066898 <main>:
60066898:	64f4      	save	32,ra,s0-s1

6006689a <.LBB2>:

}

/******************************************************************************/
/*!
 * \par  Description:
 *    MainMenu 应用的入口函数和场景管理器模块
 * \param[in]    PARAM_FROM_XXX
 * \param[out]   none
 * \return       the result
 * \retval       0 sucess
 * \retval       1 failed
 * \ingroup      module name
 * \par          exmaple code
 * \code
 *               list example code in here
 * \endcode
 * \note
 *******************************************************************************/
int main(int argc, const char *argv[])
{
6006689a:	b07a      	lw	s0,60066a80 <.LBE10+0xb0>
6006689c:	6c00      	li	a0,0
6006689e:	6b01      	li	v1,1
600668a0:	eb6b      	neg	v1
600668a2:	b179      	lw	s1,60066a84 <.LBE10+0xb4>
600668a4:	c080      	sb	a0,0(s0)
600668a6:	c081      	sb	a0,1(s0)
600668a8:	6cff      	li	a0,255
600668aa:	c062      	sb	v1,2(s0)
600668ac:	e940      	jalr	s1
600668ae:	4c61      	addiu	a0,97
600668b0:	6cff      	li	a0,255
600668b2:	c044      	sb	v0,4(s0)
600668b4:	e940      	jalr	s1
600668b6:	4c62      	addiu	a0,98
600668b8:	6cff      	li	a0,255
600668ba:	c045      	sb	v0,5(s0)
600668bc:	e940      	jalr	s1
600668be:	4c63      	addiu	a0,99
600668c0:	6cff      	li	a0,255
600668c2:	c046      	sb	v0,6(s0)
600668c4:	e940      	jalr	s1
600668c6:	4c64      	addiu	a0,100
600668c8:	f1a0 6c07 	li	a0,423
600668cc:	e940      	jalr	s1
600668ce:	c047      	sb	v0,7(s0)
600668d0:	6cff      	li	a0,255
600668d2:	c048      	sb	v0,8(s0)
600668d4:	e940      	jalr	s1
600668d6:	4c65      	addiu	a0,101
600668d8:	6cff      	li	a0,255
600668da:	c049      	sb	v0,9(s0)
600668dc:	e940      	jalr	s1
600668de:	4c66      	addiu	a0,102
600668e0:	c04a      	sb	v0,10(s0)
600668e2:	6c00      	li	a0,0
600668e4:	b06a      	lw	s0,60066a8c <.LBE10+0xbc>
600668e6:	67c4      	move	a2,a0
600668e8:	67a4      	move	a1,a0
600668ea:	e840      	jalr	s0
600668ec:	6f49      	li	a3,73
600668ee:	67c2      	move	a2,v0
600668f0:	b266      	lw	v0,60066a88 <.LBE10+0xb8>
600668f2:	dac0      	sw	a2,0(v0)
600668f4:	2e05      	bnez	a2,60066900 <.LBB2+0x66>
600668f6:	0c39      	la	a0,600669d8 <.LBE10+0x8>
600668f8:	67a6      	move	a1,a2
600668fa:	e840      	jalr	s0
600668fc:	6f4b      	li	a3,75
600668fe:	17ff      	b	600668fe <.LBB2+0x64>
60066900:	6d00      	li	a1,0
60066902:	b063      	lw	s0,60066a8c <.LBE10+0xbc>
60066904:	67c5      	move	a2,a1
60066906:	6c01      	li	a0,1
60066908:	e840      	jalr	s0
6006690a:	6f49      	li	a3,73
6006690c:	b661      	lw	a2,60066a90 <.LBE10+0xc0>
6006690e:	6d00      	li	a1,0
60066910:	de40      	sw	v0,0(a2)
60066912:	6c06      	li	a0,6
60066914:	67c5      	move	a2,a1
60066916:	e840      	jalr	s0
60066918:	6f49      	li	a3,73
6006691a:	b55f      	lw	a1,60066a94 <.LBE10+0xc4>
6006691c:	67c2      	move	a2,v0
6006691e:	dd40      	sw	v0,0(a1)
60066920:	2a05      	bnez	v0,6006692c <.LBB2+0x92>
60066922:	0c36      	la	a0,600669f8 <.LBE10+0x28>
60066924:	67a2      	move	a1,v0
60066926:	e840      	jalr	s0
60066928:	6f4b      	li	a3,75
6006692a:	17ff      	b	6006692a <.LBB2+0x90>
6006692c:	b759      	lw	a3,60066a90 <.LBE10+0xc0>
6006692e:	9fc0      	lw	a2,0(a3)
60066930:	2e06      	bnez	a2,6006693e <.LBB2+0xa4>
60066932:	b257      	lw	v0,60066a8c <.LBE10+0xbc>
60066934:	0c39      	la	a0,60066a18 <.LBE10+0x48>
60066936:	67a6      	move	a1,a2
60066938:	ea40      	jalr	v0
6006693a:	6f4b      	li	a3,75
6006693c:	17ff      	b	6006693c <.LBB2+0xa2>
6006693e:	b057      	lw	s0,60066a98 <.LBE10+0xc8>
60066940:	b457      	lw	a0,60066a9c <.LBE10+0xcc>
60066942:	6d18      	li	a1,24
60066944:	d880      	sw	a0,0(s0)
60066946:	f020 a6f4 	lbu	a3,52(a2)
6006694a:	efb8      	mult	a3,a1
6006694c:	eb12      	mflo	v1
6006694e:	e3c5      	addu	s1,v1,a2
60066950:	a152      	lbu	v0,18(s1)
60066952:	2201      	beqz	v0,60066956 <.LBB2+0xbc>
60066954:	6a01      	li	v0,1
60066956:	98a0      	lw	a1,0(s0)
60066958:	b14d      	lw	s1,60066a8c <.LBE10+0xbc>
6006695a:	c440      	sb	v0,0(a0)
6006695c:	6e04      	li	a2,4
6006695e:	6c0f      	li	a0,15
60066960:	e940      	jalr	s1
60066962:	6f43      	li	a3,67
60066964:	d840      	sw	v0,0(s0)
60066966:	2a06      	bnez	v0,60066974 <.LBB2+0xda>
60066968:	0c35      	la	a0,60066a3c <.LBE10+0x6c>
6006696a:	67a2      	move	a1,v0
6006696c:	67c2      	move	a2,v0
6006696e:	e940      	jalr	s1
60066970:	6f4b      	li	a3,75
60066972:	17ff      	b	60066972 <.LBB2+0xd8>
60066974:	6d00      	li	a1,0
60066976:	b046      	lw	s0,60066a8c <.LBE10+0xbc>
60066978:	6c03      	li	a0,3
6006697a:	67c5      	move	a2,a1
6006697c:	e840      	jalr	s0
6006697e:	6f49      	li	a3,73
60066980:	b448      	lw	a0,60066aa0 <.LBE10+0xd0>
60066982:	67c2      	move	a2,v0
60066984:	dc41      	sw	v0,4(a0)
60066986:	2a05      	bnez	v0,60066992 <.LBE4>
60066988:	0c37      	la	a0,60066a64 <.LBE10+0x94>
6006698a:	67a2      	move	a1,v0
6006698c:	e840      	jalr	s0
6006698e:	6f4b      	li	a3,75
60066990:	17ff      	b	60066990 <.LBB2+0xf6>

60066992 <.LBE4>:
60066992:	b145      	lw	s1,60066aa4 <.LBE10+0xd4>
60066994:	6c0f      	li	a0,15
60066996:	e940      	jalr	s1
60066998:	6d02      	li	a1,2
6006699a:	b442      	lw	a0,60066aa0 <.LBE10+0xd0>
6006699c:	b243      	lw	v0,60066aa8 <.LBE10+0xd8>
6006699e:	6d03      	li	a1,3
600669a0:	ea40      	jalr	v0
600669a2:	4c0c      	addiu	a0,12
600669a4:	b042      	lw	s0,60066aac <.LBE10+0xdc>
600669a6:	e8c0      	jalrc	s0
600669a8:	b142      	lw	s1,60066aac <.LBE10+0xdc>
600669aa:	e940      	jalr	s1
600669ac:	6c80      	li	a0,128

600669ae <.LBB6>:
600669ae:	b142      	lw	s1,60066ab4 <.LBE10+0xe4>

///修改后台引擎状态
static inline void change_engine_state(engine_state_e engine_state)
{
    g_app_info_state_all.engine_state = engine_state;
600669b0:	6d02      	li	a1,2

600669b2 <.LBE2>:
600669b2:	b242      	lw	v0,60066ab8 <.LBE10+0xe8>

    app_result_e result = RESULT_NULL;

    /*ap初始化*/
    _app_init();

    //sys_set_mem_lock((0x9fc16c00 - 0x800), (0x2980+0x800));

    sbc_encode_init();
600669b4:	ea40      	jalr	v0
600669b6:	c1a1      	sb	a1,1(s1)
600669b8:	b341      	lw	v1,60066abc <.LBE10+0xec>
    adc_set_init();
600669ba:	ebc0      	jalrc	v1
600669bc:	b041      	lw	s0,60066abc <.LBE10+0xec>

    result = get_message_loop();
600669be:	e8c0      	jalrc	s0
600669c0:	6702      	move	s0,v0
600669c2:	b241      	lw	v0,60066ac4 <.LBE10+0xf4>

    adc_set_exit();
600669c4:	eac0      	jalrc	v0
600669c6:	b341      	lw	v1,60066ac8 <.LBE10+0xf8>
    sbc_encode_exit();
600669c8:	ebc0      	jalrc	v1

600669ca <.LBB8>:
600669ca:	b241      	lw	v0,60066acc <.LBE10+0xfc>
600669cc:	eac0      	jalrc	v0

600669ce <.LBB10>:
600669ce:	6e02      	li	a2,2

600669d0 <.LBE10>:

///修改后台引擎状态
static inline void change_engine_state(engine_state_e engine_state)
{
    g_app_info_state_all.engine_state = engine_state;
600669d0:	6750      	move	v0,s0

    _app_exit();
    return result;
}
600669d2:	c1c1      	sb	a2,1(s1)

///修改后台引擎状态
static inline void change_engine_state(engine_state_e engine_state)
{
    g_app_info_state_all.engine_state = engine_state;
600669d4:	6474      	restore	32,ra,s0-s1
600669d6:	e8a0      	jrc	ra
600669d8:	453c      	daddiu	s1,a1,-4
600669da:	203e      	beqz	s0,60066a58 <.LBE10+0x88>
600669dc:	7462      	cmpi	a0,98
600669de:	6c70      	li	a0,112
600669e0:	7961      	sd	v1,8(s1)
600669e2:	7020      	cmpi	s0,32
600669e4:	7069      	cmpi	s0,105
600669e6:	2065      	beqz	s0,60066ab2 <.LBE10+0xe2>
600669e8:	6873      	li	s0,115
600669ea:	206d      	beqz	s0,60066ac6 <.LBE10+0xf6>
600669ec:	6f6e      	li	a3,110
600669ee:	2074      	beqz	s0,60066ad8 <.LBE10+0x108>
600669f0:	7865      	sd	v1,40(s0)
600669f2:	7369      	cmpi	v1,105
600669f4:	2174      	beqz	s1,60066ade <.LBE10+0x10e>
600669f6:	0021      	addiu	s0,sp,132
600669f8:	453c      	daddiu	s1,a1,-4
600669fa:	203e      	beqz	s0,60066a78 <.LBE10+0xa8>
600669fc:	7774      	cmpi	a3,116
600669fe:	5f73      	sltiu	a3,115
60066a00:	6e69      	li	a2,105
60066a02:	6f66      	li	a3,102
60066a04:	7320      	cmpi	v1,32
60066a06:	6d68      	li	a1,104
60066a08:	6e20      	li	a2,32
60066a0a:	746f      	cmpi	a0,111
60066a0c:	6520      	move	at,s0
60066a0e:	6978      	li	s1,120
60066a10:	7473      	cmpi	a0,115
60066a12:	2121      	beqz	s1,60066a56 <.LBE10+0x86>
60066a14:	0000      	addiu	s0,sp,0
60066a16:	0000      	addiu	s0,sp,0
60066a18:	453c      	daddiu	s1,a1,-4
60066a1a:	203e      	beqz	s0,60066a98 <.LBE10+0xc8>
60066a1c:	7462      	cmpi	a0,98
60066a1e:	7473      	cmpi	a0,115
60066a20:	6361      	addiu	sp,776
60066a22:	206b      	beqz	s0,60066afa <.LBE10+0x12a>
60066a24:	7473      	cmpi	a0,115
60066a26:	7461      	cmpi	a0,97
60066a28:	7375      	cmpi	v1,117
60066a2a:	7320      	cmpi	v1,32
60066a2c:	6d68      	li	a1,104
60066a2e:	6e20      	li	a2,32
60066a30:	746f      	cmpi	a0,111
60066a32:	6520      	move	at,s0
60066a34:	6978      	li	s1,120
60066a36:	7473      	cmpi	a0,115
60066a38:	2121      	beqz	s1,60066a7c <.LBE10+0xac>
60066a3a:	0000      	addiu	s0,sp,0
60066a3c:	453c      	daddiu	s1,a1,-4
60066a3e:	203e      	beqz	s0,60066abc <.LBE10+0xec>
60066a40:	7462      	cmpi	a0,98
60066a42:	6c70      	li	a0,112
60066a44:	7961      	sd	v1,8(s1)
60066a46:	7320      	cmpi	v1,32
60066a48:	6168      	btnez	60066b1a <.LBE10+0x14a>
60066a4a:	6572      	move	s3,v0
60066a4c:	7120      	cmpi	s1,32
60066a4e:	6575      	move	s3,a1
60066a50:	7972      	sd	v1,144(s1)
60066a52:	6320      	addiu	sp,256
60066a54:	6572      	move	s3,v0
60066a56:	7461      	cmpi	a0,97
60066a58:	2065      	beqz	s0,60066b24 <.LBE10+0x154>
60066a5a:	6166      	btnez	60066b28 <.LBE10+0x158>
60066a5c:	6c69      	li	a0,105
60066a5e:	2121      	beqz	s1,60066aa2 <.LBE10+0xd2>
60066a60:	0000      	addiu	s0,sp,0
60066a62:	0000      	addiu	s0,sp,0
60066a64:	453c      	daddiu	s1,a1,-4
60066a66:	203e      	beqz	s0,60066ae4 <.LBE10+0x114>
60066a68:	6164      	btnez	60066b32 <.LBE10+0x162>
60066a6a:	5f65      	sltiu	a3,101
60066a6c:	6663      	0x6663
60066a6e:	2067      	beqz	s0,60066b3e <.LBE10+0x16e>
60066a70:	6873      	li	s0,115
60066a72:	206d      	beqz	s0,60066b4e <.LBE10+0x17e>
60066a74:	6f6e      	li	a3,110
60066a76:	2074      	beqz	s0,60066b60 <.LBE10+0x190>
60066a78:	7865      	sd	v1,40(s0)
60066a7a:	7369      	cmpi	v1,105
60066a7c:	2174      	beqz	s1,60066b66 <.LBE10+0x196>
60066a7e:	0021      	addiu	s0,sp,132
60066a80:	962c      	lw	a2,176(sp)
60066a82:	9fc1      	lw	a2,4(a3)
60066a84:	68bd      	li	s0,189
60066a86:	60a6      	bteqz	600669d4 <.LBE10+0x4>
60066a88:	9608      	lw	a2,32(sp)
60066a8a:	9fc1      	lw	a2,4(a3)
60066a8c:	6009      	bteqz	60066aa0 <.LBE10+0xd0>
60066a8e:	bfc2      	lwu	a2,8(a3)
60066a90:	960c      	lw	a2,48(sp)
60066a92:	9fc1      	lw	a2,4(a3)
60066a94:	9610      	lw	a2,64(sp)
60066a96:	9fc1      	lw	a2,4(a3)
60066a98:	961c      	lw	a2,112(sp)
60066a9a:	9fc1      	lw	a2,4(a3)
60066a9c:	9614      	lw	a2,80(sp)
60066a9e:	9fc1      	lw	a2,4(a3)
60066aa0:	95c8      	lw	a1,800(sp)
60066aa2:	9fc1      	lw	a2,4(a3)
60066aa4:	6861      	li	s0,97
60066aa6:	60a2      	bteqz	600669ec <.LBE10+0x1c>
60066aa8:	6c41      	li	a0,65
60066aaa:	60a2      	bteqz	600669f0 <.LBE10+0x20>
60066aac:	6cc9      	li	a0,201
60066aae:	60a2      	bteqz	600669f4 <.LBE10+0x24>
60066ab0:	68b1      	li	s0,177
60066ab2:	600a      	bteqz	60066ac8 <.LBE10+0xf8>
60066ab4:	a094      	lbu	a0,20(s0)
60066ab6:	9fc1      	lw	a2,4(a3)
60066ab8:	6db5      	li	a1,181
60066aba:	600e      	bteqz	60066ad8 <.LBE10+0x108>
60066abc:	6c85      	li	a0,133
60066abe:	600e      	bteqz	60066adc <.LBE10+0x10c>
60066ac0:	6339      	addiu	sp,456
60066ac2:	bfc2      	lwu	a2,8(a3)
60066ac4:	6d01      	li	a1,1
60066ac6:	600e      	bteqz	60066ae4 <.LBE10+0x114>
60066ac8:	6e39      	li	a2,57
60066aca:	600e      	bteqz	60066ae8 <.LBE10+0x118>
60066acc:	6951      	li	s1,81
60066ace:	60a2      	bteqz	60066a14 <.LBE10+0x44>
Disassembly of section BANK_CONTROL_1_2:

600a6800 <count_free_dsp_deal>:
600a6800:	64e7      	save	56,ra,s0
static uint8 smart_cnt = 0;
static uint8 count_free_dsp_timer = 0;

void count_free_dsp_deal(void)
{
600a6802:	b31b      	lw	v1,600a686c <count_free_dsp_deal+0x6c>
    uint16 dec_slow_times, dsp_free_times;
    msg_apps_t msg;
    btstack_event_t tmp_ev;
    int times = 0;
    int ret;

    //两分钟进入一次统计分析dsp卸载次数和出现dsp dec slow次数
    count_free_dsp_timer++;
600a6804:	6800      	li	s0,0
600a6806:	d00a      	sw	s0,40(sp)
600a6808:	a380      	lbu	a0,0(v1)
600a680a:	4441      	addiu	v0,a0,1
600a680c:	c340      	sb	v0,0(v1)
600a680e:	ea11      	zeb	v0
    if(count_free_dsp_timer < 2) {
600a6810:	5a02      	sltiu	v0,2
600a6812:	6123      	btnez	600a685a <count_free_dsp_deal+0x5a>
600a6814:	c300      	sb	s0,0(v1)
        return;
    } else {
        count_free_dsp_timer = 0;
600a6816:	b317      	lw	v1,600a6870 <count_free_dsp_deal+0x70>
    }

    if(mp_handle == NULL) {
600a6818:	9b80      	lw	a0,0(v1)
600a681a:	241f      	beqz	a0,600a685a <count_free_dsp_deal+0x5a>
600a681c:	b216      	lw	v0,600a6874 <count_free_dsp_deal+0x74>
        return;
    }

    mmm_bp_cmd(mp_handle, MMM_BP_GET_ERRORNO, (unsigned int) &times);
600a681e:	6d0a      	li	a1,10
600a6820:	ea40      	jalr	v0
600a6822:	060a      	addiu	a2,sp,40
600a6824:	950a      	lw	a1,40(sp)
    libc_print("free times:", times, 2);
600a6826:	b215      	lw	v0,600a6878 <count_free_dsp_deal+0x78>
600a6828:	0c0e      	la	a0,600a6860 <count_free_dsp_deal+0x60>
600a682a:	6e02      	li	a2,2
600a682c:	ea40      	jalr	v0
600a682e:	6f4b      	li	a3,75
600a6830:	970a      	lw	a3,40(sp)
    dsp_free_times = times & 0xffff;
600a6832:	6787      	move	a0,a3
600a6834:	ec31      	zeh	a0
600a6836:	36e2      	srl	a2,a3,8
    dec_slow_times = (times >> 16) & 0xffff;
600a6838:	33c2      	srl	v1,a2,8
600a683a:	3584      	sll	a1,a0,1

    if((dec_slow_times > (dsp_free_times * 2)) && (dec_slow_times >= DEC_SLOW_TIMES_DEFAULT)
600a683c:	ed62      	slt	a1,v1
600a683e:	600d      	bteqz	600a685a <count_free_dsp_deal+0x5a>
600a6840:	5b0f      	sltiu	v1,15
600a6842:	610b      	btnez	600a685a <count_free_dsp_deal+0x5a>
600a6844:	5c06      	sltiu	a0,6
600a6846:	6109      	btnez	600a685a <count_free_dsp_deal+0x5a>
600a6848:	f001 6c17 	li	a0,2071
            && (dsp_free_times >= DSP_FREE_TIMES_DEFAULT)) {
        //消息类型(即消息名称)
        msg.type = MSG_ENGINE_FORCE_UNLINK;
600a684c:	b20c      	lw	v0,600a687c <count_free_dsp_deal+0x7c>
        //发送同步消息
        send_sync_msg_btmanager(NULL, &msg, NULL, 0);
600a684e:	d404      	sw	a0,16(sp)
600a6850:	0504      	addiu	a1,sp,16
600a6852:	6790      	move	a0,s0
600a6854:	67d0      	move	a2,s0
600a6856:	ea40      	jalr	v0
600a6858:	67f0      	move	a3,s0
600a685a:	6467      	restore	56,ra,s0
    } else {
        return;
    }
}
600a685c:	e8a0      	jrc	ra
600a685e:	0000      	addiu	s0,sp,0
600a6860:	7266      	cmpi	v0,102
600a6862:	6565      	move	v1,a1
600a6864:	7420      	cmpi	a0,32
600a6866:	6d69      	li	a1,105
600a6868:	7365      	cmpi	v1,101
600a686a:	003a      	addiu	s0,sp,232
600a686c:	9640      	lw	a2,256(sp)
600a686e:	9fc1      	lw	a2,4(a3)
600a6870:	963c      	lw	a2,240(sp)
600a6872:	9fc1      	lw	a2,4(a3)
600a6874:	6015      	bteqz	600a68a0 <.LBB2+0x12>
600a6876:	bfc2      	lwu	a2,8(a3)
600a6878:	6009      	bteqz	600a688c <tws_sync_cmd_send+0xc>
600a687a:	bfc2      	lwu	a2,8(a3)
600a687c:	6ce9      	li	a0,233
600a687e:	60a2      	bteqz	600a67c4 <.LBE10+0x3fdf4>

600a6880 <tws_sync_cmd_send>:
600a6880:	64c4      	save	32,ra

void btplay_engine_pipe_control(uint8 op)
{
    if((g_p_bt_stack_cur_info->dev_role == TWS_SLAVE) && (sample_start_flag == 1)) {
        libc_print("fd:", 0, 0);
        sample_sound_exit();
    }

    if((g_p_bt_stack_cur_info->dev_role != TWS_SLAVE) && (op == PIPE_OP_UNFILTER)) {
        sample_sound_init();
        linein_tws_playpause_flag = 0;
        g_p_btplay_info->status = BTPLAY_PLAY;
        tws_sync_cmd_send(1);
    } else if((g_p_bt_stack_cur_info->dev_role != TWS_SLAVE) && (op == PIPE_OP_FILTER)) {
        sample_sound_exit();
        libc_print("fd1:", 0, 0);
    } else {
        if((op == PIPE_OP_FLUSH) && (g_p_tws_info->tts_start_flag == 1)) {
            g_p_tws_info->tts_start_flag = 0;
        }

        msg_apps_t msg;
        msg.content.data[0] = op;
        //消息类型(即消息名称)
        msg.type = MSG_BTSTACK_PLAY_PIPE_CTRL_SYNC;

        //发送同步消息
        send_sync_msg_btmanager(NULL, &msg, NULL, 0);
    }
}

void update_btstack_parm_control(uint8 flag)
{
    msg_apps_t msg;
    uint32 used_len;

    uint8 data[6];

    used_len = LINEIN_ACUPY_SIZE;//(ADC_SAMPLE_BUFFER_SIZE + 0x200);

    data[0] = flag;
    data[1] = used_len & 0xff;
    data[2] = (used_len >> 8) & 0xff;
    data[3] = (used_len >> 16) & 0xff;
    data[4] = (used_len >> 24);
    //data[5] = len & 0xff;
    //data[6] = (len>>8) & 0xff;

    //消息类型(即消息名称)
    msg.type = MSG_BTSTACK_TWS_UPDATE_PARM;
    //msg.content.addr = &used_len;
    msg.content.addr = data;
    //发送同步消息
    send_sync_msg_btmanager(NULL, &msg, NULL, 0);
    libc_print("@lll:", *(uint32 *)(msg.content.addr), 2);
    update_pipe = *(uint32 *)(msg.content.addr);

}

/*
 此命令定义两tws设备之间的通讯通道.
 发送的键值会直接在g_p_tws_info->tws_sync_cmd
 上体现,使用完毕后需要清除掉tws_sync_cmd的值
 比如:
 1:代表播放
 2:代表暂停
*/
void tws_sync_cmd_send(uint8 val)
{
600a6882:	b50a      	lw	a1,600a68a8 <.LBE2+0x4>
    if(g_p_bt_stack_cur_info->dev_role != 0) {
600a6884:	ec11      	zeb	a0
600a6886:	9d60      	lw	v1,0(a1)
600a6888:	f020 a35a 	lbu	v0,58(v1)
600a688c:	220b      	beqz	v0,600a68a4 <.LBE2>

600a688e <.LBB2>:
600a688e:	67dd      	move	a2,sp
        msg_apps_t msg;
        msg.type = MSG_BTSTACK_TWS_SYNC_CMD;
        msg.content.data[0] = val;
600a6890:	f0a1 6f0c 	li	a3,2220
600a6894:	c694      	sb	a0,20(a2)
600a6896:	b206      	lw	v0,600a68ac <.LBE2+0x8>
        send_sync_msg_btmanager(NULL, &msg, NULL, 0);
600a6898:	6c00      	li	a0,0
600a689a:	d704      	sw	a3,16(sp)
600a689c:	0504      	addiu	a1,sp,16
600a689e:	67c4      	move	a2,a0
600a68a0:	ea40      	jalr	v0
600a68a2:	67e4      	move	a3,a0

600a68a4 <.LBE2>:
600a68a4:	6444      	restore	32,ra
    }
}
600a68a6:	e8a0      	jrc	ra
600a68a8:	960c      	lw	a2,48(sp)
600a68aa:	9fc1      	lw	a2,4(a3)
600a68ac:	6ce9      	li	a0,233
600a68ae:	60a2      	bteqz	600a67f4 <.LBE10+0x3fe24>

600a68b0 <btplay_engine_pipe_control>:
600a68b0:	64e4      	save	32,ra,s0
600a68b2:	6704      	move	s0,a0
600a68b4:	b429      	lw	a0,600a6958 <.LBE3+0x10>
600a68b6:	e811      	zeb	s0
600a68b8:	9c60      	lw	v1,0(a0)
600a68ba:	f020 a35a 	lbu	v0,58(v1)
600a68be:	7202      	cmpi	v0,2
600a68c0:	610c      	btnez	600a68da <btplay_engine_pipe_control+0x2a>
600a68c2:	b627      	lw	a2,600a695c <.LBE3+0x14>
600a68c4:	a6a0      	lbu	a1,0(a2)
600a68c6:	7501      	cmpi	a1,1
600a68c8:	6108      	btnez	600a68da <btplay_engine_pipe_control+0x2a>
600a68ca:	6d00      	li	a1,0
600a68cc:	b225      	lw	v0,600a6960 <.LBE3+0x18>
600a68ce:	0c20      	la	a0,600a694c <.LBE3+0x4>
600a68d0:	67c5      	move	a2,a1
600a68d2:	ea40      	jalr	v0
600a68d4:	6f4b      	li	a3,75
600a68d6:	b224      	lw	v0,600a6964 <.LBE3+0x1c>
600a68d8:	eac0      	jalrc	v0
600a68da:	b420      	lw	a0,600a6958 <.LBE3+0x10>
600a68dc:	9c60      	lw	v1,0(a0)
600a68de:	f020 a3fa 	lbu	a3,58(v1)
600a68e2:	7702      	cmpi	a3,2
600a68e4:	600f      	bteqz	600a6904 <btplay_engine_pipe_control+0x54>
600a68e6:	7002      	cmpi	s0,2
600a68e8:	610d      	btnez	600a6904 <btplay_engine_pipe_control+0x54>
600a68ea:	b320      	lw	v1,600a6968 <.LBE3+0x20>
600a68ec:	ebc0      	jalrc	v1
600a68ee:	b221      	lw	v0,600a6970 <.LBE3+0x28>
600a68f0:	b71f      	lw	a3,600a696c <.LBE3+0x24>
600a68f2:	9aa0      	lw	a1,0(v0)
600a68f4:	6c00      	li	a0,0
600a68f6:	6e02      	li	a2,2
600a68f8:	b31f      	lw	v1,600a6974 <.LBE3+0x2c>
600a68fa:	c780      	sb	a0,0(a3)
600a68fc:	c5c0      	sb	a2,0(a1)
600a68fe:	eb40      	jalr	v1
600a6900:	6c01      	li	a0,1
600a6902:	1022      	b	600a6948 <.LBE3>
600a6904:	f020 a3ba 	lbu	a1,58(v1)
600a6908:	7502      	cmpi	a1,2
600a690a:	600a      	bteqz	600a6920 <.LBB3>
600a690c:	7001      	cmpi	s0,1
600a690e:	6108      	btnez	600a6920 <.LBB3>
600a6910:	b215      	lw	v0,600a6964 <.LBE3+0x1c>
600a6912:	eac0      	jalrc	v0
600a6914:	6d00      	li	a1,0
600a6916:	b213      	lw	v0,600a6960 <.LBE3+0x18>
600a6918:	0c0e      	la	a0,600a6950 <.LBE3+0x8>
600a691a:	67c5      	move	a2,a1
600a691c:	6f4b      	li	a3,75
600a691e:	1013      	b	600a6946 <.LBB3+0x26>

600a6920 <.LBB3>:
600a6920:	7080      	cmpi	s0,128
600a6922:	6107      	btnez	600a6932 <.LBB3+0x12>
600a6924:	b715      	lw	a3,600a6978 <.LBE3+0x30>
600a6926:	9f60      	lw	v1,0(a3)
600a6928:	a3c1      	lbu	a2,1(v1)
600a692a:	7601      	cmpi	a2,1
600a692c:	6102      	btnez	600a6932 <.LBB3+0x12>
600a692e:	6c00      	li	a0,0
600a6930:	c381      	sb	a0,1(v1)
600a6932:	67bd      	move	a1,sp
600a6934:	6c00      	li	a0,0
600a6936:	f001 6b0e 	li	v1,2062
600a693a:	b211      	lw	v0,600a697c <.LBE3+0x34>
600a693c:	c514      	sb	s0,20(a1)
600a693e:	d304      	sw	v1,16(sp)
600a6940:	0504      	addiu	a1,sp,16
600a6942:	67c4      	move	a2,a0
600a6944:	67e4      	move	a3,a0
600a6946:	eac0      	jalrc	v0

600a6948 <.LBE3>:
600a6948:	6464      	restore	32,ra,s0
600a694a:	e8a0      	jrc	ra
600a694c:	6466      	restore	48,ra,s0
600a694e:	003a      	addiu	s0,sp,232
600a6950:	6466      	restore	48,ra,s0
600a6952:	3a31      	ld	s1,136(v0)
600a6954:	0000      	addiu	s0,sp,0
600a6956:	0000      	addiu	s0,sp,0
600a6958:	960c      	lw	a2,48(sp)
600a695a:	9fc1      	lw	a2,4(a3)
600a695c:	9626      	lw	a2,152(sp)
600a695e:	9fc1      	lw	a2,4(a3)
600a6960:	6009      	bteqz	600a6974 <.LBE3+0x2c>
600a6962:	bfc2      	lwu	a2,8(a3)
600a6964:	6d31      	li	a1,49
600a6966:	600e      	bteqz	600a6984 <update_btstack_parm_control+0x4>
600a6968:	6bc9      	li	v1,201
600a696a:	600e      	bteqz	600a6988 <update_btstack_parm_control+0x8>
600a696c:	9628      	lw	a2,160(sp)
600a696e:	9fc1      	lw	a2,4(a3)
600a6970:	961c      	lw	a2,112(sp)
600a6972:	9fc1      	lw	a2,4(a3)
600a6974:	6881      	li	s0,129
600a6976:	600a      	bteqz	600a698c <update_btstack_parm_control+0xc>
600a6978:	9610      	lw	a2,64(sp)
600a697a:	9fc1      	lw	a2,4(a3)
600a697c:	6ce9      	li	a0,233
600a697e:	60a2      	bteqz	600a68c4 <btplay_engine_pipe_control+0x14>

600a6980 <update_btstack_parm_control>:
600a6980:	64c5      	save	40,ra
600a6982:	67dd      	move	a2,sp
600a6984:	677d      	move	v1,sp
600a6986:	c698      	sb	a0,24(a2)
600a6988:	f202 6f00 	li	a3,4608
600a698c:	6c12      	li	a0,18
600a698e:	c3f9      	sb	a3,25(v1)
600a6990:	c39a      	sb	a0,26(v1)
600a6992:	6f00      	li	a3,0
600a6994:	0506      	addiu	a1,sp,24
600a6996:	f081 4c19 	addiu	a0,2201
600a699a:	b20e      	lw	v0,600a69d0 <update_btstack_parm_control+0x50>
600a699c:	c3fb      	sb	a3,27(v1)
600a699e:	c3fc      	sb	a3,28(v1)
600a69a0:	d404      	sw	a0,16(sp)
600a69a2:	d505      	sw	a1,20(sp)
600a69a4:	6787      	move	a0,a3
600a69a6:	0504      	addiu	a1,sp,16
600a69a8:	ea40      	jalr	v0
600a69aa:	67c7      	move	a2,a3
600a69ac:	9605      	lw	a2,20(sp)
600a69ae:	b20a      	lw	v0,600a69d4 <update_btstack_parm_control+0x54>
600a69b0:	9ea0      	lw	a1,0(a2)
600a69b2:	0c06      	la	a0,600a69c8 <update_btstack_parm_control+0x48>
600a69b4:	6e02      	li	a2,2
600a69b6:	ea40      	jalr	v0
600a69b8:	6f4b      	li	a3,75
600a69ba:	9405      	lw	a0,20(sp)
600a69bc:	b207      	lw	v0,600a69d8 <update_btstack_parm_control+0x58>
600a69be:	9c60      	lw	v1,0(a0)
600a69c0:	da60      	sw	v1,0(v0)
600a69c2:	6445      	restore	40,ra
600a69c4:	e8a0      	jrc	ra
600a69c6:	0000      	addiu	s0,sp,0
600a69c8:	6c40      	li	a0,64
600a69ca:	6c6c      	li	a0,108
600a69cc:	003a      	addiu	s0,sp,232
600a69ce:	0000      	addiu	s0,sp,0
600a69d0:	6ce9      	li	a0,233
600a69d2:	60a2      	bteqz	600a6918 <btplay_engine_pipe_control+0x68>
600a69d4:	6009      	bteqz	600a69e8 <tws_filter_ctrl_send+0xc>
600a69d6:	bfc2      	lwu	a2,8(a3)
600a69d8:	9620      	lw	a2,128(sp)
600a69da:	9fc1      	lw	a2,4(a3)

600a69dc <tws_filter_ctrl_send>:
600a69dc:	64c4      	save	32,ra


void tws_filter_ctrl_send(uint8 val)
{
600a69de:	677d      	move	v1,sp
    msg_apps_t msg;
    msg.type = MSG_BTSTACK_TWS_FILTER_CTRL_SYNC;
    msg.content.data[0] = val;
600a69e0:	c394      	sb	a0,20(v1)
600a69e2:	f0a1 6d0e 	li	a1,2222
600a69e6:	6c00      	li	a0,0
    send_sync_msg_btmanager(NULL, &msg, NULL, 0);
600a69e8:	b204      	lw	v0,600a69f8 <tws_filter_ctrl_send+0x1c>
600a69ea:	d504      	sw	a1,16(sp)
600a69ec:	67c4      	move	a2,a0
600a69ee:	0504      	addiu	a1,sp,16
600a69f0:	ea40      	jalr	v0
600a69f2:	67e4      	move	a3,a0
600a69f4:	6444      	restore	32,ra
600a69f6:	e8a0      	jrc	ra
600a69f8:	6ce9      	li	a0,233
600a69fa:	60a2      	bteqz	600a6940 <.LBB3+0x20>

600a69fc <linein_smart_mode>:
600a69fc:	64c3      	save	24,ra
}
void linein_smart_mode(uint8 speech_ctl_flag)
{
600a69fe:	ec11      	zeb	a0
600a6a00:	7401      	cmpi	a0,1
    //btplay_gl_var.speech_flag = speech_ctl_flag;
    if(speech_ctl_flag == TRUE) {
600a6a02:	6106      	btnez	600a6a10 <linein_smart_mode+0x14>
600a6a04:	b30a      	lw	v1,600a6a2c <linein_smart_mode+0x30>
        sample_sound_exit();
600a6a06:	ebc0      	jalrc	v1
600a6a08:	b20a      	lw	v0,600a6a2c <linein_smart_mode+0x30>
        adc_set_exit();
600a6a0a:	eac0      	jalrc	v0
600a6a0c:	b20a      	lw	v0,600a6a30 <linein_smart_mode+0x34>
        sbc_encode_exit();
600a6a0e:	100a      	b	600a6a24 <linein_smart_mode+0x28>
600a6a10:	b30a      	lw	v1,600a6a38 <linein_smart_mode+0x3c>
    } else {
        sbc_encode_init();
600a6a12:	ebc0      	jalrc	v1
600a6a14:	b20a      	lw	v0,600a6a38 <linein_smart_mode+0x3c>
        adc_set_init();
600a6a16:	eac0      	jalrc	v0
600a6a18:	b60a      	lw	a2,600a6a3c <linein_smart_mode+0x40>
        if(g_p_btplay_info->status != BTPLAY_PAUSE) {
600a6a1a:	9ea0      	lw	a1,0(a2)
600a6a1c:	a580      	lbu	a0,0(a1)
600a6a1e:	7403      	cmpi	a0,3
600a6a20:	6002      	bteqz	600a6a26 <linein_smart_mode+0x2a>
600a6a22:	b209      	lw	v0,600a6a44 <linein_smart_mode+0x48>
            sample_sound_init();
600a6a24:	eac0      	jalrc	v0
600a6a26:	6443      	restore	24,ra
        }
    }
}
600a6a28:	e8a0      	jrc	ra
600a6a2a:	0000      	addiu	s0,sp,0
600a6a2c:	6d31      	li	a1,49
600a6a2e:	600e      	bteqz	600a6a4c <tws_sync_cmd_deal_sub+0x4>
600a6a30:	6d01      	li	a1,1
600a6a32:	600e      	bteqz	600a6a50 <tws_sync_cmd_deal_sub+0x8>
600a6a34:	6e39      	li	a2,57
600a6a36:	600e      	bteqz	600a6a54 <tws_sync_cmd_deal_sub+0xc>
600a6a38:	6db5      	li	a1,181
600a6a3a:	600e      	bteqz	600a6a58 <tws_sync_cmd_deal_sub+0x10>
600a6a3c:	6c85      	li	a0,133
600a6a3e:	600e      	bteqz	600a6a5c <tws_sync_cmd_deal_sub+0x14>
600a6a40:	961c      	lw	a2,112(sp)
600a6a42:	9fc1      	lw	a2,4(a3)
600a6a44:	6bc9      	li	v1,201
600a6a46:	600e      	bteqz	600a6a64 <tws_sync_cmd_deal_sub+0x1c>

600a6a48 <tws_sync_cmd_deal_sub>:
600a6a48:	64f4      	save	32,ra,s0-s1

void tws_sync_cmd_deal_sub(void)
{
600a6a4a:	b12f      	lw	s1,600a6b04 <tws_sync_cmd_deal_sub+0xbc>

    switch(g_p_tws_info->tws_sync_cmd) {
600a6a4c:	9940      	lw	v0,0(s1)
600a6a4e:	a2ac      	lbu	a1,12(v0)
600a6a50:	7502      	cmpi	a1,2
600a6a52:	601f      	bteqz	600a6a92 <tws_sync_cmd_deal_sub+0x4a>
600a6a54:	5503      	slti	a1,3
600a6a56:	6003      	bteqz	600a6a5e <tws_sync_cmd_deal_sub+0x16>
600a6a58:	7501      	cmpi	a1,1
600a6a5a:	6006      	bteqz	600a6a68 <tws_sync_cmd_deal_sub+0x20>
600a6a5c:	1043      	b	600a6ae4 <tws_sync_cmd_deal_sub+0x9c>
600a6a5e:	7503      	cmpi	a1,3
600a6a60:	602b      	bteqz	600a6ab8 <tws_sync_cmd_deal_sub+0x70>
600a6a62:	7505      	cmpi	a1,5
600a6a64:	6032      	bteqz	600a6aca <tws_sync_cmd_deal_sub+0x82>
600a6a66:	103e      	b	600a6ae4 <tws_sync_cmd_deal_sub+0x9c>
600a6a68:	b522      	lw	a1,600a6af0 <tws_sync_cmd_deal_sub+0xa8>
        case TWS_START_PLAY_SYNC:
            if(g_p_bt_stack_cur_info->dev_role == TWS_MASTER) {
600a6a6a:	9d80      	lw	a0,0(a1)
600a6a6c:	f020 a47a 	lbu	v1,58(a0)
600a6a70:	7301      	cmpi	v1,1
600a6a72:	6105      	btnez	600a6a7e <tws_sync_cmd_deal_sub+0x36>
600a6a74:	b320      	lw	v1,600a6af4 <tws_sync_cmd_deal_sub+0xac>
                sample_sound_init();
600a6a76:	ebc0      	jalrc	v1
600a6a78:	b220      	lw	v0,600a6af4 <tws_sync_cmd_deal_sub+0xac>
                tws_filter_ctrl_send(0);
600a6a7a:	ea40      	jalr	v0
600a6a7c:	6c00      	li	a0,0
600a6a7e:	b221      	lw	v0,600a6b00 <tws_sync_cmd_deal_sub+0xb8>
            }

            linein_tws_playpause_flag = 0;
            g_p_btplay_info->status = BTPLAY_PLAY;
600a6a80:	b31f      	lw	v1,600a6afc <tws_sync_cmd_deal_sub+0xb4>
600a6a82:	9a80      	lw	a0,0(v0)
600a6a84:	99c0      	lw	a2,0(s1)
            g_p_tws_info->tws_sync_cmd = 0;
600a6a86:	6f00      	li	a3,0
600a6a88:	6d02      	li	a1,2
600a6a8a:	c3e0      	sb	a3,0(v1)
600a6a8c:	c4a0      	sb	a1,0(a0)
600a6a8e:	c6ec      	sb	a3,12(a2)
600a6a90:	1029      	b	600a6ae4 <tws_sync_cmd_deal_sub+0x9c>

            break;
600a6a92:	b418      	lw	a0,600a6af0 <tws_sync_cmd_deal_sub+0xa8>
        case TWS_STOP_PLAY_SYNC:
            if(g_p_bt_stack_cur_info->dev_role == TWS_MASTER) {
600a6a94:	9ce0      	lw	a3,0(a0)
600a6a96:	f020 a7da 	lbu	a2,58(a3)
600a6a9a:	7601      	cmpi	a2,1
600a6a9c:	6105      	btnez	600a6aa8 <tws_sync_cmd_deal_sub+0x60>
600a6a9e:	b31b      	lw	v1,600a6b08 <tws_sync_cmd_deal_sub+0xc0>
                sample_sound_exit();
600a6aa0:	ebc0      	jalrc	v1
600a6aa2:	b216      	lw	v0,600a6af8 <tws_sync_cmd_deal_sub+0xb0>
                tws_filter_ctrl_send(1);
600a6aa4:	ea40      	jalr	v0
600a6aa6:	6c01      	li	a0,1
600a6aa8:	b716      	lw	a3,600a6b00 <tws_sync_cmd_deal_sub+0xb8>
            }
            linein_tws_playpause_flag = 1;
            g_p_btplay_info->status = BTPLAY_PAUSE;
600a6aaa:	b415      	lw	a0,600a6afc <tws_sync_cmd_deal_sub+0xb4>
600a6aac:	9fa0      	lw	a1,0(a3)
600a6aae:	6a01      	li	v0,1
600a6ab0:	6e03      	li	a2,3
600a6ab2:	c440      	sb	v0,0(a0)
600a6ab4:	c5c0      	sb	a2,0(a1)
600a6ab6:	1013      	b	600a6ade <tws_sync_cmd_deal_sub+0x96>
600a6ab8:	b215      	lw	v0,600a6b0c <tws_sync_cmd_deal_sub+0xc4>
            g_p_tws_info->tws_sync_cmd = 0;
            break;
        case TWS_SLAVE_ENTER_SYNC:
            //start adc
            libc_print("sync", g_p_tws_info->tws_sync_cmd, 2);
600a6aba:	0c0c      	la	a0,600a6ae8 <tws_sync_cmd_deal_sub+0xa0>
600a6abc:	6e02      	li	a2,2
600a6abe:	ea40      	jalr	v0
600a6ac0:	6f4b      	li	a3,75
600a6ac2:	b514      	lw	a1,600a6b10 <tws_sync_cmd_deal_sub+0xc8>
            g_need_adc_flag = 1;
600a6ac4:	6b01      	li	v1,1
600a6ac6:	c560      	sb	v1,0(a1)
600a6ac8:	100a      	b	600a6ade <tws_sync_cmd_deal_sub+0x96>
600a6aca:	b013      	lw	s0,600a6b14 <tws_sync_cmd_deal_sub+0xcc>
            g_p_tws_info->tws_sync_cmd = 0;
            break;

        //case TWS_MASTER_EXIT_SMART_MODE:
        case TWS_MASTER_SMART_MODE :
            //libc_print("slave exit play", 0, 0);
            btplay_engine_pipe_control(PIPE_OP_FLUSH | PIPE_OP_FILTER);
600a6acc:	e840      	jalr	s0
600a6ace:	6c81      	li	a0,129
600a6ad0:	b212      	lw	v0,600a6b18 <tws_sync_cmd_deal_sub+0xd0>
            a2dp_decode_quit();
600a6ad2:	eac0      	jalrc	v0
600a6ad4:	b312      	lw	v1,600a6b18 <tws_sync_cmd_deal_sub+0xd0>
            //linein_speech_mode(TRUE);
            //smart_enter_speech_mode(&btplay_gl_var.speech_flag);
            //break;

            //case TWS_MASTER_EXIT_SMART_MODE:
            //libc_print("slave enter play", 0, 0);
            a2dp_decode_init(A2DP_CODEC_SBC);
600a6ad6:	eb40      	jalr	v1
600a6ad8:	6c00      	li	a0,0
600a6ada:	e840      	jalr	s0
            btplay_engine_pipe_control(PIPE_OP_UNFILTER);
600a6adc:	6c02      	li	a0,2
600a6ade:	99c0      	lw	a2,0(s1)
            //smart_exit_speech_mode(&btplay_gl_var.speech_flag);
            //linein_speech_mode(FALSE);
            g_p_tws_info->tws_sync_cmd = 0;
600a6ae0:	6f00      	li	a3,0
600a6ae2:	c6ec      	sb	a3,12(a2)
600a6ae4:	6474      	restore	32,ra,s0-s1
            break;

        default:
            break;
    }

}
600a6ae6:	e8a0      	jrc	ra
600a6ae8:	7973      	sd	v1,152(s1)
600a6aea:	636e      	addiu	sp,880
600a6aec:	0000      	addiu	s0,sp,0
600a6aee:	0000      	addiu	s0,sp,0
600a6af0:	960c      	lw	a2,48(sp)
600a6af2:	9fc1      	lw	a2,4(a3)
600a6af4:	6bc9      	li	v1,201
600a6af6:	600e      	bteqz	600a6b14 <tws_sync_cmd_deal_sub+0xcc>
600a6af8:	69dd      	li	s1,221
600a6afa:	600a      	bteqz	600a6b10 <tws_sync_cmd_deal_sub+0xc8>
600a6afc:	9628      	lw	a2,160(sp)
600a6afe:	9fc1      	lw	a2,4(a3)
600a6b00:	961c      	lw	a2,112(sp)
600a6b02:	9fc1      	lw	a2,4(a3)
600a6b04:	9610      	lw	a2,64(sp)
600a6b06:	9fc1      	lw	a2,4(a3)
600a6b08:	6d31      	li	a1,49
600a6b0a:	600e      	bteqz	600a6b28 <deal_linein_clear_filter+0x8>
600a6b0c:	6009      	bteqz	600a6b20 <deal_linein_clear_filter>
600a6b0e:	bfc2      	lwu	a2,8(a3)
600a6b10:	9625      	lw	a2,148(sp)
600a6b12:	9fc1      	lw	a2,4(a3)
600a6b14:	68b1      	li	s0,177
600a6b16:	600a      	bteqz	600a6b2c <deal_linein_clear_filter+0xc>
600a6b18:	6abd      	li	v0,189
600a6b1a:	600e      	bteqz	600a6b38 <deal_linein_clear_filter+0x18>
600a6b1c:	6801      	li	s0,1
600a6b1e:	600e      	bteqz	600a6b3c <deal_linein_clear_filter+0x1c>

600a6b20 <deal_linein_clear_filter>:
600a6b20:	64e3      	save	24,ra,s0

#if 0
void deal_linein_usb_noise_sub(void)
{
    g_check_count = 0;

    if(act_readb(BATADC_DATA) > BAT_HIGH_VAL) {
        act_writel(act_readl(CHG_CTL) & (~CHG_CTL_CHG_CURRENT_MASK), CHG_CTL);
        act_writel(act_readl(CHG_CTL) & (~(1 << CHG_CTL_CHGEN)), CHG_CTL);

        g_cha_need_restore = 1;
    } else if(act_readb(BATADC_DATA) < BAT_LOW_VAL) {
        act_writel((act_readl(CHG_CTL) & (~CHG_CTL_CHG_CURRENT_MASK)) | g_cha_current, CHG_CTL);

        act_writel(act_readl(CHG_CTL) | (1 << CHG_CTL_CHGEN), CHG_CTL);

        g_cha_need_restore = 1;
    }
}
#endif

void deal_linein_clear_filter(void)
{
600a6b22:	b00a      	lw	s0,600a6b48 <deal_linein_clear_filter+0x28>
    if(clear_filter_timer_id != -1) {
600a6b24:	8080      	lb	a0,0(s0)
600a6b26:	ea8f      	not	v0,a0
600a6b28:	2205      	beqz	v0,600a6b34 <deal_linein_clear_filter+0x14>
600a6b2a:	b209      	lw	v0,600a6b4c <deal_linein_clear_filter+0x2c>
        kill_app_timer(clear_filter_timer_id);
600a6b2c:	eac0      	jalrc	v0
600a6b2e:	6c01      	li	a0,1
600a6b30:	eb8b      	neg	v1,a0
600a6b32:	c060      	sb	v1,0(s0)
        clear_filter_timer_id = -1;
600a6b34:	b607      	lw	a2,600a6b50 <deal_linein_clear_filter+0x30>
    }
    clear_filter_timer_id = set_single_shot_app_timer(APP_TIMER_ATTRB_CONTROL,
600a6b36:	b208      	lw	v0,600a6b54 <deal_linein_clear_filter+0x34>
600a6b38:	f1e0 6d14 	li	a1,500
600a6b3c:	ea40      	jalr	v0
600a6b3e:	6c01      	li	a0,1
600a6b40:	c040      	sb	v0,0(s0)
600a6b42:	6463      	restore	24,ra,s0
600a6b44:	e8a0      	jrc	ra
600a6b46:	0000      	addiu	s0,sp,0
600a6b48:	9585      	lw	a1,532(sp)
600a6b4a:	9fc1      	lw	a2,4(a3)
600a6b4c:	6c0d      	li	a0,13
600a6b4e:	60a2      	bteqz	600a6a94 <tws_sync_cmd_deal_sub+0x4c>
600a6b50:	6059      	bteqz	600a6c04 <clear_smart_response_deal+0x20>
600a6b52:	bfc2      	lwu	a2,8(a3)
600a6b54:	6b19      	li	v1,25
600a6b56:	60a2      	bteqz	600a6a9c <tws_sync_cmd_deal_sub+0x54>

600a6b58 <btplay_reply_msg>:
600a6b58:	64c3      	save	24,ra
                            500, Tws_clear_filter);
}

/******************************************************************************/
/*!
 * \par  Description:
 * \app_result_e btplay_reply_msg(void* msg_ptr, bool ret_vals)
 * \回复同步消息
 * \param[in]    void  msg_ptr 消息结构体
 * \param[in]    bool  ret_vals 相关事件处理结果 TRUE 成功 FALSE 失败
 * \param[out]   none
 * \return       app_result_E
 * \retval       RESULT_IGNOR 忽略
 * \ingroup      mengine_control.c
 * \note  回复消息时，根据ret_vals的结果，设置应答成功或失败
 */
/*******************************************************************************/
void btplay_reply_msg(void *msg_ptr, bool ret_vals)
{
600a6b5a:	ed11      	zeb	a1
600a6b5c:	7501      	cmpi	a1,1
    //消息指针
    private_msg_t *data_ptr = (private_msg_t *) msg_ptr;

    if(ret_vals == TRUE) {
600a6b5e:	9c63      	lw	v1,12(a0)
600a6b60:	6a01      	li	v0,1
        data_ptr->reply->type = MSG_REPLY_SUCCESS;
600a6b62:	6001      	bteqz	600a6b66 <btplay_reply_msg+0xe>
600a6b64:	6a02      	li	v0,2
    } else {
        data_ptr->reply->type = MSG_REPLY_FAILED;
600a6b66:	c340      	sb	v0,0(v1)
600a6b68:	6d00      	li	a1,0
    }

    //回复同步消息(发送信号量)
    libc_sem_post(data_ptr->sem);
600a6b6a:	9c82      	lw	a0,8(a0)
600a6b6c:	b203      	lw	v0,600a6b78 <btplay_reply_msg+0x20>
600a6b6e:	67c5      	move	a2,a1
600a6b70:	ea40      	jalr	v0
600a6b72:	6f16      	li	a3,22
600a6b74:	6443      	restore	24,ra

    return;
600a6b76:	e8a0      	jrc	ra
600a6b78:	6005      	bteqz	600a6b84 <clear_smart_response+0x8>
600a6b7a:	bfc2      	lwu	a2,8(a3)

600a6b7c <clear_smart_response>:
600a6b7c:	64f4      	save	32,ra,s0-s1
}

void clear_smart_response(void)
{
600a6b7e:	b115      	lw	s1,600a6bd0 <clear_smart_response+0x54>
    if(g_app_info_state_all.voice_recgnize_stop_mode != 0) {
600a6b80:	6b40      	li	v1,64
600a6b82:	a15a      	lbu	v0,26(s1)
600a6b84:	ea6c      	and	v0,v1
600a6b86:	220e      	beqz	v0,600a6ba4 <clear_smart_response+0x28>
600a6b88:	6d00      	li	a1,0
        libc_print("restart linein", 0, 0);
600a6b8a:	b213      	lw	v0,600a6bd4 <clear_smart_response+0x58>
600a6b8c:	67c5      	move	a2,a1
600a6b8e:	0c0d      	la	a0,600a6bc0 <clear_smart_response+0x44>
600a6b90:	ea40      	jalr	v0
600a6b92:	6f4b      	li	a3,75
600a6b94:	a19a      	lbu	a0,26(s1)
        g_app_info_state_all.voice_recgnize_stop_mode = 0;
600a6b96:	6e41      	li	a2,65
600a6b98:	edcb      	neg	a1,a2
600a6b9a:	ecac      	and	a0,a1
600a6b9c:	b00f      	lw	s0,600a6bd8 <clear_smart_response+0x5c>
        btplay_engine_pipe_control(PIPE_OP_FILTER | PIPE_OP_FLUSH);
600a6b9e:	c19a      	sb	a0,26(s1)
600a6ba0:	e840      	jalr	s0
600a6ba2:	6c81      	li	a0,129
600a6ba4:	b00e      	lw	s0,600a6bdc <clear_smart_response+0x60>
    }
    kill_app_timer(clear_smart_timer_id);
600a6ba6:	b20f      	lw	v0,600a6be0 <clear_smart_response+0x64>
600a6ba8:	ea40      	jalr	v0
600a6baa:	8080      	lb	a0,0(s0)
600a6bac:	6d01      	li	a1,1
    clear_smart_timer_id = -1;
600a6bae:	edab      	neg	a1
600a6bb0:	c0a0      	sb	a1,0(s0)
600a6bb2:	a1fa      	lbu	a3,26(s1)
    g_app_info_state_all.voice_recgnize_stop_mode = 0;
600a6bb4:	6c41      	li	a0,65
600a6bb6:	eb8b      	neg	v1,a0
600a6bb8:	ef6c      	and	a3,v1
600a6bba:	c1fa      	sb	a3,26(s1)
600a6bbc:	6474      	restore	32,ra,s0-s1
600a6bbe:	e8a0      	jrc	ra
600a6bc0:	6572      	move	s3,v0
600a6bc2:	7473      	cmpi	a0,115
600a6bc4:	7261      	cmpi	v0,97
600a6bc6:	2074      	beqz	s0,600a6cb0 <.LBB2+0x12>
600a6bc8:	696c      	li	s1,108
600a6bca:	656e      	move	t3,a2
600a6bcc:	6e69      	li	a2,105
600a6bce:	0000      	addiu	s0,sp,0
600a6bd0:	a094      	lbu	a0,20(s0)
600a6bd2:	9fc1      	lw	a2,4(a3)
600a6bd4:	6009      	bteqz	600a6be8 <clear_smart_response_deal+0x4>
600a6bd6:	bfc2      	lwu	a2,8(a3)
600a6bd8:	68b1      	li	s0,177
600a6bda:	600a      	bteqz	600a6bf0 <clear_smart_response_deal+0xc>
600a6bdc:	9584      	lw	a1,528(sp)
600a6bde:	9fc1      	lw	a2,4(a3)
600a6be0:	6c0d      	li	a0,13
600a6be2:	60a2      	bteqz	600a6b28 <deal_linein_clear_filter+0x8>

600a6be4 <clear_smart_response_deal>:
600a6be4:	64c3      	save	24,ra
}

void clear_smart_response_deal(void)
{
600a6be6:	b50a      	lw	a1,600a6c0c <clear_smart_response_deal+0x28>
    if(smart_cnt++ < 50 && g_p_bt_stack_cur_info->ble_con_flag != 0) {
600a6be8:	4581      	addiu	a0,a1,1
600a6bea:	a460      	lbu	v1,0(a0)
600a6bec:	4341      	addiu	v0,v1,1
600a6bee:	5b32      	sltiu	v1,50
600a6bf0:	c440      	sb	v0,0(a0)
600a6bf2:	6005      	bteqz	600a6bfe <clear_smart_response_deal+0x1a>
600a6bf4:	b307      	lw	v1,600a6c10 <clear_smart_response_deal+0x2c>
600a6bf6:	9be0      	lw	a3,0(v1)
600a6bf8:	f020 a7d9 	lbu	a2,57(a3)
600a6bfc:	2e04      	bnez	a2,600a6c06 <clear_smart_response_deal+0x22>
600a6bfe:	6d00      	li	a1,0
        return;
    }

    smart_cnt = 0;
600a6c00:	b205      	lw	v0,600a6c14 <clear_smart_response_deal+0x30>
    clear_smart_response();
600a6c02:	ea40      	jalr	v0
600a6c04:	c4a0      	sb	a1,0(a0)
600a6c06:	6443      	restore	24,ra
}
600a6c08:	e8a0      	jrc	ra
600a6c0a:	0000      	addiu	s0,sp,0
600a6c0c:	9640      	lw	a2,256(sp)
600a6c0e:	9fc1      	lw	a2,4(a3)
600a6c10:	960c      	lw	a2,48(sp)
600a6c12:	9fc1      	lw	a2,4(a3)
600a6c14:	6b7d      	li	v1,125
600a6c16:	600a      	bteqz	600a6c2c <app_msg_deal_app_quit+0x14>

600a6c18 <app_msg_deal_app_quit>:
600a6c18:	64e3      	save	24,ra,s0

app_result_e app_msg_deal_app_quit(void)
{
600a6c1a:	6d00      	li	a1,0
    libc_print("G3", 0, 0);
600a6c1c:	b00d      	lw	s0,600a6c50 <app_msg_deal_app_quit+0x38>
600a6c1e:	0c0c      	la	a0,600a6c4c <app_msg_deal_app_quit+0x34>
600a6c20:	67c5      	move	a2,a1
600a6c22:	e840      	jalr	s0
600a6c24:	6f4b      	li	a3,75
600a6c26:	b00c      	lw	s0,600a6c54 <app_msg_deal_app_quit+0x3c>
    btplay_engine_pipe_control(PIPE_OP_FILTER);
600a6c28:	e840      	jalr	s0
600a6c2a:	6c01      	li	a0,1
600a6c2c:	b30b      	lw	v1,600a6c58 <app_msg_deal_app_quit+0x40>

    if(btplay_gl_var.codec_flag == TRUE) {
600a6c2e:	a340      	lbu	v0,0(v1)
600a6c30:	7201      	cmpi	v0,1
600a6c32:	6106      	btnez	600a6c40 <app_msg_deal_app_quit+0x28>
600a6c34:	b20a      	lw	v0,600a6c5c <app_msg_deal_app_quit+0x44>
        a2dp_decode_quit();
600a6c36:	eac0      	jalrc	v0
600a6c38:	b60a      	lw	a2,600a6c5c <app_msg_deal_app_quit+0x44>
        g_p_btplay_info->status = BTPLAY_STOP;
600a6c3a:	6d01      	li	a1,1
600a6c3c:	9e80      	lw	a0,0(a2)
600a6c3e:	c4a0      	sb	a1,0(a0)
600a6c40:	e840      	jalr	s0
    }
    btplay_engine_pipe_control(PIPE_OP_FLUSH);
600a6c42:	6c80      	li	a0,128
600a6c44:	6fff      	li	a3,255

    return RESULT_APP_QUIT;
}
600a6c46:	4741      	addiu	v0,a3,1
600a6c48:	6463      	restore	24,ra,s0
600a6c4a:	e8a0      	jrc	ra
600a6c4c:	3347      	sra	v1,v0,1
600a6c4e:	0000      	addiu	s0,sp,0
600a6c50:	6009      	bteqz	600a6c64 <send_pause_status>
600a6c52:	bfc2      	lwu	a2,8(a3)
600a6c54:	68b1      	li	s0,177
600a6c56:	600a      	bteqz	600a6c6c <send_pause_status+0x8>
600a6c58:	962c      	lw	a2,176(sp)
600a6c5a:	9fc1      	lw	a2,4(a3)
600a6c5c:	6abd      	li	v0,189
600a6c5e:	600e      	bteqz	600a6c7c <send_pause_status+0x18>
600a6c60:	961c      	lw	a2,112(sp)
600a6c62:	9fc1      	lw	a2,4(a3)

600a6c64 <send_pause_status>:
600a6c64:	64e4      	save	32,ra,s0
    send_sync_msg_btmanager(NULL, &msg, NULL, 0);
}

void __section__(".text.bank2")send_pause_status(void)
{
600a6c66:	b41c      	lw	a0,600a6cd4 <.LBE2+0x12>
    //暂停状态下组队成功,主箱告知从箱更新状态为暂停
    if(tws_or_notws_flag != g_p_bt_stack_cur_info->dev_role) {
600a6c68:	b21a      	lw	v0,600a6cd0 <.LBE2+0xe>
600a6c6a:	9c60      	lw	v1,0(a0)
600a6c6c:	a240      	lbu	v0,0(v0)
600a6c6e:	f020 a37a 	lbu	v1,58(v1)
600a6c72:	ea6a      	cmp	v0,v1
600a6c74:	6026      	bteqz	600a6cc2 <.LBE2>
600a6c76:	2a0a      	bnez	v0,600a6c8c <send_pause_status+0x28>
        if((tws_or_notws_flag == 0) && (g_p_bt_stack_cur_info->dev_role == 1)
600a6c78:	7301      	cmpi	v1,1
600a6c7a:	6108      	btnez	600a6c8c <send_pause_status+0x28>
600a6c7c:	b617      	lw	a2,600a6cd8 <.LBE2+0x16>
                /* &&(linein_tws_playpause_flag == 1)*/) {
            if(linein_tws_playpause_flag == 1) {
600a6c7e:	b218      	lw	v0,600a6cdc <.LBE2+0x1a>
600a6c80:	a6a0      	lbu	a1,0(a2)
600a6c82:	6c02      	li	a0,2
                //send pause
                tws_sync_cmd_send(2);
600a6c84:	7501      	cmpi	a1,1
600a6c86:	6001      	bteqz	600a6c8a <send_pause_status+0x26>
600a6c88:	6c01      	li	a0,1
            } else {
                //send play
                tws_sync_cmd_send(1);
600a6c8a:	eac0      	jalrc	v0
600a6c8c:	b311      	lw	v1,600a6ccc <.LBE2+0xa>
            }
        }

        if((tws_or_notws_flag == TWS_SLAVE) && (g_p_bt_stack_cur_info->dev_role == 0)) {
600a6c8e:	a3e0      	lbu	a3,0(v1)
600a6c90:	7702      	cmpi	a3,2
600a6c92:	6117      	btnez	600a6cc2 <.LBE2>
600a6c94:	b010      	lw	s0,600a6cd4 <.LBE2+0x12>
600a6c96:	9840      	lw	v0,0(s0)
600a6c98:	f020 a21a 	lbu	s0,58(v0)
600a6c9c:	2812      	bnez	s0,600a6cc2 <.LBE2>

600a6c9e <.LBB2>:
600a6c9e:	b211      	lw	v0,600a6ce0 <.LBE2+0x1e>
            libc_print("fd3:", 0, 0);
600a6ca0:	0c0a      	la	a0,600a6cc8 <.LBE2+0x6>
600a6ca2:	67b0      	move	a1,s0
600a6ca4:	67d0      	move	a2,s0
600a6ca6:	ea40      	jalr	v0
600a6ca8:	6f4b      	li	a3,75
600a6caa:	6e01      	li	a2,1
            msg_apps_t msg;
            msg.content.data[0] = PIPE_OP_FILTER;
600a6cac:	67bd      	move	a1,sp
600a6cae:	f001 6c0e 	li	a0,2062
            //消息类型(即消息名称)
            msg.type = MSG_BTSTACK_PLAY_PIPE_CTRL_SYNC;
600a6cb2:	b20d      	lw	v0,600a6ce4 <.LBE2+0x22>

            //发送同步消息
            send_sync_msg_btmanager(NULL, &msg, NULL, 0);
600a6cb4:	c5d4      	sb	a2,20(a1)
600a6cb6:	d404      	sw	a0,16(sp)
600a6cb8:	0504      	addiu	a1,sp,16
600a6cba:	6790      	move	a0,s0
600a6cbc:	67d0      	move	a2,s0
600a6cbe:	ea40      	jalr	v0
600a6cc0:	67f0      	move	a3,s0

600a6cc2 <.LBE2>:
600a6cc2:	6464      	restore	32,ra,s0

        }
    }
}
600a6cc4:	e8a0      	jrc	ra
600a6cc6:	0000      	addiu	s0,sp,0
600a6cc8:	6466      	restore	48,ra,s0
600a6cca:	3a33      	ld	s1,152(v0)
600a6ccc:	0000      	addiu	s0,sp,0
600a6cce:	0000      	addiu	s0,sp,0
600a6cd0:	95c8      	lw	a1,800(sp)
600a6cd2:	9fc1      	lw	a2,4(a3)
600a6cd4:	960c      	lw	a2,48(sp)
600a6cd6:	9fc1      	lw	a2,4(a3)
600a6cd8:	9628      	lw	a2,160(sp)
600a6cda:	9fc1      	lw	a2,4(a3)
600a6cdc:	6881      	li	s0,129
600a6cde:	600a      	bteqz	600a6cf4 <send_mmm_exit_cmd+0xc>
600a6ce0:	6009      	bteqz	600a6cf4 <send_mmm_exit_cmd+0xc>
600a6ce2:	bfc2      	lwu	a2,8(a3)
600a6ce4:	6ce9      	li	a0,233
600a6ce6:	60a2      	bteqz	600a6c2c <app_msg_deal_app_quit+0x14>

600a6ce8 <send_mmm_exit_cmd>:
600a6ce8:	64e3      	save	24,ra,s0

void __section__(".text.bank2")send_mmm_exit_cmd(void)
{
600a6cea:	b41a      	lw	a0,600a6d50 <send_mmm_exit_cmd+0x68>

    //主要管理从给主发卸载命令并保证接收到主卸载完中间件的命令才可以加载
    //副箱full
    if((g_p_bt_stack_cur_info->dev_role != 0) && ((g_p_tws_info->sub_full_exit_flag == 1)
600a6cec:	9c60      	lw	v1,0(a0)
600a6cee:	f020 a35a 	lbu	v0,58(v1)
600a6cf2:	220e      	beqz	v0,600a6d10 <send_mmm_exit_cmd+0x28>
600a6cf4:	b618      	lw	a2,600a6d54 <send_mmm_exit_cmd+0x6c>
600a6cf6:	9e60      	lw	v1,0(a2)
600a6cf8:	a3a7      	lbu	a1,7(v1)
600a6cfa:	7501      	cmpi	a1,1
600a6cfc:	6006      	bteqz	600a6d0a <send_mmm_exit_cmd+0x22>
600a6cfe:	a3ea      	lbu	a3,10(v1)
600a6d00:	7701      	cmpi	a3,1
600a6d02:	6003      	bteqz	600a6d0a <send_mmm_exit_cmd+0x22>
600a6d04:	a34b      	lbu	v0,11(v1)
600a6d06:	7201      	cmpi	v0,1
600a6d08:	6103      	btnez	600a6d10 <send_mmm_exit_cmd+0x28>
600a6d0a:	b414      	lw	a0,600a6d58 <send_mmm_exit_cmd+0x70>
            || (g_p_tws_info->pri_full_exit_flag == 1)
            || (g_p_tws_info->pri_empty_exit_mmm == 1))) {
        //标志需要卸载自己的中间件命令
        second_empty_flag = 1;
600a6d0c:	6b01      	li	v1,1
600a6d0e:	c460      	sb	v1,0(a0)
600a6d10:	b612      	lw	a2,600a6d58 <send_mmm_exit_cmd+0x70>
    }
    //给主箱发命令
    if((second_empty_flag == 1) && (send_once_cmd == 0)) {
600a6d12:	a6a0      	lbu	a1,0(a2)
600a6d14:	7501      	cmpi	a1,1
600a6d16:	6109      	btnez	600a6d2a <send_mmm_exit_cmd+0x42>
600a6d18:	b011      	lw	s0,600a6d5c <send_mmm_exit_cmd+0x74>
600a6d1a:	a0e0      	lbu	a3,0(s0)
600a6d1c:	2f06      	bnez	a3,600a6d2a <send_mmm_exit_cmd+0x42>
600a6d1e:	b311      	lw	v1,600a6d60 <send_mmm_exit_cmd+0x78>
        send_exit_mmm_to_other(1);
600a6d20:	eb40      	jalr	v1
600a6d22:	6c01      	li	a0,1
600a6d24:	a080      	lbu	a0,0(s0)
        send_once_cmd++;
600a6d26:	4441      	addiu	v0,a0,1
600a6d28:	c040      	sb	v0,0(s0)
600a6d2a:	b50c      	lw	a1,600a6d58 <send_mmm_exit_cmd+0x70>
        //libc_print("FF",0,0);
    }
    //保证每次只发生一个start命令给stack
    if(second_empty_flag == 0) {
600a6d2c:	a560      	lbu	v1,0(a1)
600a6d2e:	2b02      	bnez	v1,600a6d34 <send_mmm_exit_cmd+0x4c>
600a6d30:	b60b      	lw	a2,600a6d5c <send_mmm_exit_cmd+0x74>
        send_once_cmd = 0;
600a6d32:	c660      	sb	v1,0(a2)
600a6d34:	b30c      	lw	v1,600a6d64 <send_mmm_exit_cmd+0x7c>
    }
    //去掉tts播报后主箱暂停通知副箱
    if(g_app_info_state_all.g_send_exit_mmm_tts == 2) {
600a6d36:	a3e5      	lbu	a3,5(v1)
600a6d38:	7702      	cmpi	a3,2
600a6d3a:	6107      	btnez	600a6d4a <send_mmm_exit_cmd+0x62>
600a6d3c:	6800      	li	s0,0
        g_app_info_state_all.g_send_exit_mmm_tts = 0;
600a6d3e:	c305      	sb	s0,5(v1)
600a6d40:	b30a      	lw	v1,600a6d68 <send_mmm_exit_cmd+0x80>
        send_mmm_exit_cmd2(1);
600a6d42:	eb40      	jalr	v1
600a6d44:	6c01      	li	a0,1
600a6d46:	b206      	lw	v0,600a6d5c <send_mmm_exit_cmd+0x74>
        send_once_cmd = 0;
600a6d48:	c200      	sb	s0,0(v0)
600a6d4a:	6463      	restore	24,ra,s0
    }

}
600a6d4c:	e8a0      	jrc	ra
600a6d4e:	0000      	addiu	s0,sp,0
600a6d50:	960c      	lw	a2,48(sp)
600a6d52:	9fc1      	lw	a2,4(a3)
600a6d54:	9610      	lw	a2,64(sp)
600a6d56:	9fc1      	lw	a2,4(a3)
600a6d58:	95ca      	lw	a1,808(sp)
600a6d5a:	9fc1      	lw	a2,4(a3)
600a6d5c:	95cb      	lw	a1,812(sp)
600a6d5e:	9fc1      	lw	a2,4(a3)
600a6d60:	6b09      	li	v1,9
600a6d62:	6012      	bteqz	600a6d88 <send_mmm_exit_cmd+0xa0>
600a6d64:	a094      	lbu	a0,20(s0)
600a6d66:	9fc1      	lw	a2,4(a3)
600a6d68:	6b29      	li	v1,41
600a6d6a:	6012      	bteqz	600a6d90 <send_mmm_exit_cmd+0xa8>
Disassembly of section BANK_CONTROL_1_3:

600e6800 <a2dp_decode_init>:
600e6800:	64fb      	save	88,ra,s0-s1
    OUTPUT_CHANNEL_L_R_ALL_R, //左右声道都输出右声道 L = R = R0
};

void a2dp_decode_init(uint8 media_type)
{
600e6802:	b5a0      	lw	a1,600e6a80 <.LBE5+0x70>
    int mmm_init_ret;
    int result;
    noise_reduction_t noise_reduction;
    mmm_bp_set_type_param_t type_pram;
    mmm_bp_aout_setting_t mmm_bp_aout_param;
    char *mmm_name =
    { "mmm_bp.al" };

    btplay_gl_var.media_type = media_type;
600e6804:	ec11      	zeb	a0
600e6806:	b6a0      	lw	a2,600e6a84 <.LBE5+0x74>

    if(g_app_info_state_all.stub_mode_flag != 0) {
600e6808:	c582      	sb	a0,2(a1)
600e680a:	a666      	lbu	v1,6(a2)
600e680c:	6a10      	li	v0,16
600e680e:	ea4b      	neg	v0
600e6810:	eb4c      	and	v1,v0
600e6812:	2307      	beqz	v1,600e6822 <a2dp_decode_init+0x22>
600e6814:	4a23      	addiu	v0,35
        mmm_bp_aout_param.asrc_index = K_OUT1_P2;
600e6816:	d20a      	sw	v0,40(sp)
600e6818:	4aed      	addiu	v0,-19
        mmm_bp_aout_param.asrc_mode_sel = 0;
600e681a:	4261      	addiu	v1,v0,1
        mmm_bp_aout_param.dac_chanel = DAF1_EN;
600e681c:	d20c      	sw	v0,48(sp)
600e681e:	d30b      	sw	v1,44(sp)
600e6820:	1005      	b	600e682c <a2dp_decode_init+0x2c>
600e6822:	6f0d      	li	a3,13
    } else {
        mmm_bp_aout_param.asrc_index = K_OUT0_U0;
600e6824:	d70a      	sw	a3,40(sp)
600e6826:	4ff5      	addiu	a3,-11
        mmm_bp_aout_param.asrc_mode_sel = 2;
600e6828:	d70c      	sw	a3,48(sp)
600e682a:	d30b      	sw	v1,44(sp)
        mmm_bp_aout_param.dac_chanel = DAF0_EN;
600e682c:	2c12      	bnez	a0,600e6852 <a2dp_decode_init+0x52>
    }

    if(media_type == A2DP_CODEC_SBC) {
600e682e:	b397      	lw	v1,600e6a88 <.LBE5+0x78>
        type_pram.music_type = TYPE_SBC;

#ifdef ENABLE_TRUE_WIRELESS_STEREO
        type_pram.work_mode = (g_p_bt_stack_cur_info->dev_role | 0xf0);
600e6830:	67fd      	move	a3,sp
600e6832:	9b40      	lw	v0,0(v1)
600e6834:	f020 c780 	sb	a0,32(a3)
600e6838:	f020 a21a 	lbu	s0,58(v0)
600e683c:	6e10      	li	a2,16
600e683e:	e9cb      	neg	s1,a2
600e6840:	a586      	lbu	a0,6(a1)
#else
        type_pram.work_mode = 0;
#endif
        type_pram.play_delay_start = btplay_gl_var.sbc_delay_start;
600e6842:	a547      	lbu	v0,7(a1)
        type_pram.play_delay_lowest = btplay_gl_var.sbc_delay_lowest;
600e6844:	677d      	move	v1,sp
600e6846:	e82d      	or	s0,s1
600e6848:	f020 c303 	sb	s0,35(v1)
600e684c:	f020 c381 	sb	a0,33(v1)
600e6850:	1017      	b	600e6880 <a2dp_decode_init+0x80>
600e6852:	7402      	cmpi	a0,2
    } else if(media_type == A2DP_CODEC_AAC) {
600e6854:	610b      	btnez	600e686c <a2dp_decode_init+0x6c>
600e6856:	a524      	lbu	s1,4(a1)
        type_pram.music_type = TYPE_AAC;
        type_pram.play_delay_start = btplay_gl_var.aac_delay_start;
600e6858:	a505      	lbu	s0,5(a1)
        type_pram.play_delay_lowest = btplay_gl_var.aac_delay_lowest;
600e685a:	679d      	move	a0,sp
600e685c:	6e01      	li	a2,1
600e685e:	f020 c4c0 	sb	a2,32(a0)
600e6862:	f020 c421 	sb	s1,33(a0)
600e6866:	f020 c402 	sb	s0,34(a0)
600e686a:	1014      	b	600e6894 <a2dp_decode_init+0x94>
600e686c:	7401      	cmpi	a0,1
    } else if(media_type == A2DP_CODEC_MPEG12) {
600e686e:	610b      	btnez	600e6886 <a2dp_decode_init+0x86>
600e6870:	677d      	move	v1,sp
        type_pram.music_type = TYPE_MP3;
600e6872:	6d02      	li	a1,2
600e6874:	6a5f      	li	v0,95
        type_pram.play_delay_start = 161;
600e6876:	ea4b      	neg	v0
600e6878:	f020 c3a0 	sb	a1,32(v1)
600e687c:	f020 c341 	sb	v0,33(v1)
600e6880:	f020 c342 	sb	v0,34(v1)
        type_pram.play_delay_lowest = 161;
600e6884:	1007      	b	600e6894 <a2dp_decode_init+0x94>
600e6886:	6d00      	li	a1,0
    } else {
        PRINT_ERR("btplay engine error media type!!");
600e6888:	b281      	lw	v0,600e6a8c <.LBE5+0x7c>
600e688a:	0c63      	la	a0,600e6a14 <.LBE5+0x4>
600e688c:	67c5      	move	a2,a1
600e688e:	ea40      	jalr	v0
600e6890:	6f4b      	li	a3,75
600e6892:	17ff      	b	600e6892 <a2dp_decode_init+0x92>
        while(1) {
600e6894:	b07f      	lw	s0,600e6a90 <.LBE5+0x80>
            ; //nothing for QAC
        }
    }

    com_set_sound_out(SOUND_OUT_START);
600e6896:	e840      	jalr	s0
600e6898:	6c01      	li	a0,1
600e689a:	b37f      	lw	v1,600e6a94 <.LBE5+0x84>
    btplay_gl_var.codec_flag = TRUE;
    //g_p_btplay_info->status = BTPLAY_PAUSE;
    if(linein_tws_playpause_flag == 0) {
600e689c:	b779      	lw	a3,600e6a80 <.LBE5+0x70>
600e689e:	a3c0      	lbu	a2,0(v1)
600e68a0:	6c01      	li	a0,1
600e68a2:	c780      	sb	a0,0(a3)
600e68a4:	2e09      	bnez	a2,600e68b8 <a2dp_decode_init+0xb8>
600e68a6:	b37d      	lw	v1,600e6a98 <.LBE5+0x88>
        g_p_btplay_info->status = BTPLAY_PLAY;
600e68a8:	6a02      	li	v0,2
600e68aa:	9ba0      	lw	a1,0(v1)
600e68ac:	b178      	lw	s1,600e6a8c <.LBE5+0x7c>
        libc_print("@1", 0, 0);
600e68ae:	c540      	sb	v0,0(a1)
600e68b0:	0c63      	la	a0,600e6a3c <.LBE5+0x2c>
600e68b2:	67a6      	move	a1,a2
600e68b4:	e940      	jalr	s1
600e68b6:	6f4b      	li	a3,75
600e68b8:	b179      	lw	s1,600e6a9c <.LBE5+0x8c>
    }

    adjust_freq_set_level(AP_BACK_LOW_PRIO, FREQ_LEVEL2, FREQ_NULL);
600e68ba:	6c06      	li	a0,6
600e68bc:	6e00      	li	a2,0
600e68be:	6f03      	li	a3,3
600e68c0:	e940      	jalr	s1
600e68c2:	6d02      	li	a1,2
600e68c4:	b671      	lw	a2,600e6a88 <.LBE5+0x78>
#ifdef ENABLE_TRUE_WIRELESS_STEREO
    if(g_p_bt_stack_cur_info->dev_role != 0) {
600e68c6:	67fd      	move	a3,sp
600e68c8:	9e80      	lw	a0,0(a2)
600e68ca:	f020 a700 	lbu	s0,32(a3)
600e68ce:	f020 a4da 	lbu	a2,58(a0)
600e68d2:	260e      	beqz	a2,600e68f0 <a2dp_decode_init+0xf0>
600e68d4:	2808      	bnez	s0,600e68e6 <a2dp_decode_init+0xe6>
        if(type_pram.music_type == TYPE_SBC) {
600e68d6:	6c03      	li	a0,3
            adjust_freq_set_level(AP_BACK_HIGH_PRIO, FREQ_LEVEL11, FREQ_LEVEL11);
600e68d8:	67e4      	move	a3,a0
600e68da:	f301 6d0b 	li	a1,2827
600e68de:	e940      	jalr	s1
600e68e0:	67d0      	move	a2,s0
600e68e2:	0c58      	la	a0,600e6a40 <.LBE5+0x30>
            PRINT_INFO("level8:");
600e68e4:	100d      	b	600e6900 <a2dp_decode_init+0x100>
600e68e6:	6c03      	li	a0,3
        } else if(type_pram.music_type == TYPE_AAC) {
            adjust_freq_set_level(AP_BACK_HIGH_PRIO, FREQ_LEVEL8, FREQ_LEVEL3);
        } else //TYPE_MP3

        {
            adjust_freq_set_level(AP_BACK_HIGH_PRIO, FREQ_LEVEL8, FREQ_LEVEL3);
600e68e8:	f300 6d08 	li	a1,776
600e68ec:	6e00      	li	a2,0
600e68ee:	1011      	b	600e6912 <a2dp_decode_init+0x112>
600e68f0:	280d      	bnez	s0,600e690c <a2dp_decode_init+0x10c>
        }
    } else
#endif
    {
        if(type_pram.music_type == TYPE_SBC) {
600e68f2:	6c03      	li	a0,3
            adjust_freq_set_level(AP_BACK_HIGH_PRIO, FREQ_LEVEL7, FREQ_LEVEL3);
600e68f4:	67e4      	move	a3,a0
600e68f6:	f300 6d07 	li	a1,775
600e68fa:	e940      	jalr	s1
600e68fc:	67d0      	move	a2,s0
600e68fe:	0c54      	la	a0,600e6a4c <.LBE5+0x3c>
            PRINT_INFO("level7:");
600e6900:	67b0      	move	a1,s0
600e6902:	67d0      	move	a2,s0
600e6904:	b062      	lw	s0,600e6a8c <.LBE5+0x7c>
600e6906:	e840      	jalr	s0
600e6908:	6f4b      	li	a3,75
600e690a:	1005      	b	600e6916 <a2dp_decode_init+0x116>
600e690c:	6c03      	li	a0,3
        } else if(type_pram.music_type == TYPE_AAC) {
            adjust_freq_set_level(AP_BACK_HIGH_PRIO, FREQ_LEVEL5, FREQ_LEVEL3);
        } else { //TYPE_MP3
            adjust_freq_set_level(AP_BACK_HIGH_PRIO, FREQ_LEVEL5, FREQ_LEVEL3);
600e690e:	f300 6d05 	li	a1,773
600e6912:	e940      	jalr	s1
600e6914:	67e4      	move	a3,a0
600e6916:	b563      	lw	a1,600e6aa0 <.LBE5+0x90>
        }

    }

    adjust_freq_add_value(0, g_dae_cfg_shm->run_freq);
600e6918:	b261      	lw	v0,600e6a9c <.LBE5+0x8c>
600e691a:	9de0      	lw	a3,0(a1)
600e691c:	6c00      	li	a0,0
600e691e:	a7b6      	lbu	a1,22(a3)
600e6920:	6e01      	li	a2,1
600e6922:	6f03      	li	a3,3
600e6924:	ea40      	jalr	v0
600e6926:	673d      	move	s1,sp
600e6928:	f020 a1a3 	lbu	a1,35(s1)

    libc_print("@tty:", type_pram.work_mode, 2);
600e692c:	b058      	lw	s0,600e6a8c <.LBE5+0x7c>
600e692e:	0c4b      	la	a0,600e6a58 <.LBE5+0x48>
600e6930:	6e02      	li	a2,2
600e6932:	e840      	jalr	s0
600e6934:	6f4b      	li	a3,75
600e6936:	0c4b      	la	a0,600e6a60 <.LBE5+0x50>
    //加载中间件驱动
    sys_load_mmm(mmm_name, TRUE);
600e6938:	6d01      	li	a1,1
600e693a:	6e00      	li	a2,0
600e693c:	e840      	jalr	s0
600e693e:	6f02      	li	a3,2
600e6940:	b159      	lw	s1,600e6aa4 <.LBE5+0x94>

    //初始化中间件库
    mmm_init_ret = mmm_bp_cmd(&mp_handle, MMM_BP_OPEN, (unsigned int) NULL);
600e6942:	6d00      	li	a1,0
600e6944:	b359      	lw	v1,600e6aa8 <.LBE5+0x98>
600e6946:	6791      	move	a0,s1
600e6948:	eb40      	jalr	v1
600e694a:	67c5      	move	a2,a1
600e694c:	2a61      	bnez	v0,600e6a10 <.LBE5>
    if(mmm_init_ret == 0) {
600e694e:	b357      	lw	v1,600e6aa8 <.LBE5+0x98>
        //mmm_bp_cmd(&mp_handle, MMM_BP_FADE_IN_TIME, (unsigned int) 0);//设置淡入时间
        //mmm_bp_cmd(&mp_handle, MMM_BP_FADE_OUT_TIME, (unsigned int) 0);//设置淡出时间
        mmm_bp_cmd(mp_handle, MMM_BP_AOUT_OPEN, (unsigned int)& mmm_bp_aout_param);
600e6950:	9980      	lw	a0,0(s1)
600e6952:	6d02      	li	a1,2
600e6954:	eb40      	jalr	v1
600e6956:	060a      	addiu	a2,sp,40
600e6958:	9980      	lw	a0,0(s1)

        mmm_bp_cmd(mp_handle, MMM_BP_SET_MUSIC_TYPE, (unsigned int) &type_pram);
600e695a:	b054      	lw	s0,600e6aa8 <.LBE5+0x98>
600e695c:	6d0c      	li	a1,12
600e695e:	e840      	jalr	s0
600e6960:	0608      	addiu	a2,sp,32
600e6962:	b048      	lw	s0,600e6a80 <.LBE5+0x70>

        //输出声道处理选择
        //#define OUTPUT_CHANNEL_NORMAL      0 //正常，中间件会初始化为正常
        //#define OUTPUT_CHANNEL_L_R_SWITCH  1 //左右声道互换 L = R0, R = L0
        //#define OUTPUT_CHANNEL_L_R_MERGE   2 //左右声道合并后输出到左声道和右声道 L = R = (L0 + R0) / 2
        //#define OUTPUT_CHANNEL_L_R_ALL_L   3 //左右声道都输出左声道 L = R = L0
        //#define OUTPUT_CHANNEL_L_R_ALL_R   4 //左右声道都输出右声道 L = R = R0
        //mmm_bp_cmd(mp_handle, MMM_BP_SET_OUTPUT_CHANNEL, (unsigned int) OUTPUT_CHANNEL_NORMAL);
        mmm_bp_cmd(mp_handle, MMM_BP_SET_OUTPUT_CHANNEL, btplay_gl_var.output_channel_config);
600e6964:	9980      	lw	a0,0(s1)
600e6966:	a0c8      	lbu	a2,8(s0)
600e6968:	b350      	lw	v1,600e6aa8 <.LBE5+0x98>
600e696a:	eb40      	jalr	v1
600e696c:	6d0f      	li	a1,15
600e696e:	b647      	lw	a2,600e6a88 <.LBE5+0x78>

#ifdef ENABLE_TRUE_WIRELESS_STEREO
        //临时这样处理
        if(g_p_bt_stack_cur_info->dev_role == 1) {
600e6970:	9e80      	lw	a0,0(a2)
600e6972:	f020 a45a 	lbu	v0,58(a0)
600e6976:	7201      	cmpi	v0,1
600e6978:	6102      	btnez	600e697e <a2dp_decode_init+0x17e>
600e697a:	a069      	lbu	v1,9(s0)
            //左声道
            mmm_bp_cmd(mp_handle, MMM_BP_SET_OUTPUT_CHANNEL,
600e697c:	1003      	b	600e6984 <a2dp_decode_init+0x184>
600e697e:	7202      	cmpi	v0,2
                       (unsigned int) s_output_channel[btplay_gl_var.tws_m_output_channel]);

            //PRINT_INFO_INT("channel:",s_output_channel[btplay_gl_var.tws_m_output_channel]);
        } else if(g_p_bt_stack_cur_info->dev_role == 2) {
600e6980:	6108      	btnez	600e6992 <a2dp_decode_init+0x192>
600e6982:	a06a      	lbu	v1,10(s0)
            //右声道
            mmm_bp_cmd(mp_handle, MMM_BP_SET_OUTPUT_CHANNEL,
600e6984:	b24a      	lw	v0,600e6aac <.LBE5+0x9c>
600e6986:	9980      	lw	a0,0(s1)
600e6988:	e35d      	addu	a3,v1,v0
600e698a:	a7c0      	lbu	a2,0(a3)
600e698c:	b147      	lw	s1,600e6aa8 <.LBE5+0x98>
600e698e:	e940      	jalr	s1
600e6990:	6d0f      	li	a1,15
600e6992:	b745      	lw	a3,600e6aa4 <.LBE5+0x94>
                       (unsigned int) s_output_channel[btplay_gl_var.tws_s_output_channel]);

            //PRINT_INFO_INT("channel:",s_output_channel[btplay_gl_var.tws_s_output_channel]);
        } else {
            ;        // do nothing
        }
#endif
        //SBC编解码时是否抑制噪声
        result = mmm_bp_cmd(mp_handle, MMM_BP_RESTRAIN_NOISE, FALSE);
600e6994:	b045      	lw	s0,600e6aa8 <.LBE5+0x98>
600e6996:	9f80      	lw	a0,0(a3)
600e6998:	6d13      	li	a1,19
600e699a:	e840      	jalr	s0
600e699c:	6e00      	li	a2,0

600e699e <.LBB2>:
600e699e:	b145      	lw	s1,600e6ab0 <.LBE5+0xa0>
600e69a0:	f1a0 6c03 	li	a0,419
600e69a4:	050e      	addiu	a1,sp,56
600e69a6:	e940      	jalr	s1
600e69a8:	6e10      	li	a2,16
600e69aa:	0004      	addiu	s0,sp,16
600e69ac:	b242      	lw	v0,600e6ab4 <.LBE5+0xa4>
600e69ae:	6f00      	li	a3,0
600e69b0:	6790      	move	a0,s0
600e69b2:	050f      	addiu	a1,sp,60
600e69b4:	ea40      	jalr	v0
600e69b6:	6e0c      	li	a2,12

600e69b8 <.LBE2>:
600e69b8:	b63b      	lw	a2,600e6aa4 <.LBE5+0x94>

#ifdef WAVES_ASET_TOOLS
        //发送播放命令
        g_waves.bin_number = g_app_info_state_all.bin_number;
        result = mmm_bp_cmd(mp_handle, MMM_BP_PLAY, (unsigned int) &g_waves);
#else
        get_noise_reduction_para(&noise_reduction);
        result = mmm_bp_cmd(mp_handle, MMM_BP_SET_NOISE_REDUCTION_PARA, &noise_reduction);
600e69ba:	b13c      	lw	s1,600e6aa8 <.LBE5+0x98>
600e69bc:	9e80      	lw	a0,0(a2)
600e69be:	6d06      	li	a1,6
600e69c0:	e940      	jalr	s1
600e69c2:	67d0      	move	a2,s0
600e69c4:	b538      	lw	a1,600e6aa4 <.LBE5+0x94>
        //发送播放命令
        result = mmm_bp_cmd(mp_handle, MMM_BP_PLAY, (unsigned int) NULL);
600e69c6:	b339      	lw	v1,600e6aa8 <.LBE5+0x98>
600e69c8:	9d80      	lw	a0,0(a1)
600e69ca:	6e00      	li	a2,0
600e69cc:	eb40      	jalr	v1
600e69ce:	6d07      	li	a1,7
600e69d0:	6722      	move	s1,v0
600e69d2:	2a1e      	bnez	v0,600e6a10 <.LBE5>

600e69d4 <.LBB5>:
#endif

        if(result == 0) {
600e69d4:	b02e      	lw	s0,600e6a8c <.LBE5+0x7c>
            PRINT_INFO("btplay mmm init");
600e69d6:	0c26      	la	a0,600e6a6c <.LBE5+0x5c>
600e69d8:	67a2      	move	a1,v0
600e69da:	67c2      	move	a2,v0
600e69dc:	e840      	jalr	s0
600e69de:	6f4b      	li	a3,75
600e69e0:	6791      	move	a0,s1
#ifdef ENABLE_TRUE_WIRELESS_STEREO
            uint32 temp_flag;
            temp_flag = sys_local_irq_save();
600e69e2:	67b1      	move	a1,s1
600e69e4:	67d1      	move	a2,s1
600e69e6:	e840      	jalr	s0
600e69e8:	6f2d      	li	a3,45
600e69ea:	b434      	lw	a0,600e6ab8 <.LBE5+0xa8>
            g_p_tws_info->mmm_init_flag = 1;
600e69ec:	6f01      	li	a3,1
600e69ee:	9cc0      	lw	a2,0(a0)
600e69f0:	67b1      	move	a1,s1

            sys_local_irq_restore(temp_flag);
600e69f2:	c6e3      	sb	a3,3(a2)
600e69f4:	6782      	move	a0,v0
600e69f6:	67d1      	move	a2,s1
600e69f8:	e840      	jalr	s0
600e69fa:	6f2e      	li	a3,46
600e69fc:	b022      	lw	s0,600e6a84 <.LBE5+0x74>
#endif
            mmm_bp_cmd(mp_handle, MMM_BP_GET_ENERGY_INFO, (unsigned int) & (g_app_info_state_all.p_energy_value));
600e69fe:	b52a      	lw	a1,600e6aa4 <.LBE5+0x94>
600e6a00:	67d0      	move	a2,s0
600e6a02:	9d80      	lw	a0,0(a1)
600e6a04:	b329      	lw	v1,600e6aa8 <.LBE5+0x98>
600e6a06:	6d0e      	li	a1,14
600e6a08:	eb40      	jalr	v1
600e6a0a:	4e0c      	addiu	a2,12
600e6a0c:	6c01      	li	a0,1
            g_app_info_state_all.energy_available_flag = TRUE;
600e6a0e:	c08a      	sb	a0,10(s0)

600e6a10 <.LBE5>:
600e6a10:	647b      	restore	88,ra,s0-s1

        }
    }
}
600e6a12:	e8a0      	jrc	ra
600e6a14:	453c      	daddiu	s1,a1,-4
600e6a16:	203e      	beqz	s0,600e6a94 <.LBE5+0x84>
600e6a18:	7462      	cmpi	a0,98
600e6a1a:	6c70      	li	a0,112
600e6a1c:	7961      	sd	v1,8(s1)
600e6a1e:	6520      	move	at,s0
600e6a20:	676e      	move	v1,t6
600e6a22:	6e69      	li	a2,105
600e6a24:	2065      	beqz	s0,600e6af0 <a2dp_decode_quit+0x34>
600e6a26:	7265      	cmpi	v0,101
600e6a28:	6f72      	li	a3,114
600e6a2a:	2072      	beqz	s0,600e6b10 <a2dp_decode_quit+0x54>
600e6a2c:	656d      	move	t3,a1
600e6a2e:	6964      	li	s1,100
600e6a30:	2061      	beqz	s0,600e6af4 <a2dp_decode_quit+0x38>
600e6a32:	7974      	sd	v1,160(s1)
600e6a34:	6570      	move	s3,s0
600e6a36:	2121      	beqz	s1,600e6a7a <.LBE5+0x6a>
600e6a38:	0000      	addiu	s0,sp,0
600e6a3a:	0000      	addiu	s0,sp,0
600e6a3c:	3140      	sll	s1,v0,8
600e6a3e:	0000      	addiu	s0,sp,0
600e6a40:	493c      	addiu	s1,60
600e6a42:	203e      	beqz	s0,600e6ac0 <a2dp_decode_quit+0x4>
600e6a44:	656c      	move	t3,a0
600e6a46:	6576      	move	s3,a2
600e6a48:	386c      	ld	v1,96(s0)
600e6a4a:	003a      	addiu	s0,sp,232
600e6a4c:	493c      	addiu	s1,60
600e6a4e:	203e      	beqz	s0,600e6acc <a2dp_decode_quit+0x10>
600e6a50:	656c      	move	t3,a0
600e6a52:	6576      	move	s3,a2
600e6a54:	376c      	sll	a3,v1,3
600e6a56:	003a      	addiu	s0,sp,232
600e6a58:	7440      	cmpi	a0,64
600e6a5a:	7974      	sd	v1,160(s1)
600e6a5c:	003a      	addiu	s0,sp,232
600e6a5e:	0000      	addiu	s0,sp,0
600e6a60:	6d6d      	li	a1,109
600e6a62:	5f6d      	sltiu	a3,109
600e6a64:	7062      	cmpi	s0,98
600e6a66:	612e      	btnez	600e6ac4 <a2dp_decode_quit+0x8>
600e6a68:	006c      	addiu	s0,sp,432
600e6a6a:	0000      	addiu	s0,sp,0
600e6a6c:	493c      	addiu	s1,60
600e6a6e:	203e      	beqz	s0,600e6aec <a2dp_decode_quit+0x30>
600e6a70:	7462      	cmpi	a0,98
600e6a72:	6c70      	li	a0,112
600e6a74:	7961      	sd	v1,8(s1)
600e6a76:	6d20      	li	a1,32
600e6a78:	6d6d      	li	a1,109
600e6a7a:	6920      	li	s1,32
600e6a7c:	696e      	li	s1,110
600e6a7e:	0074      	addiu	s0,sp,464
600e6a80:	962c      	lw	a2,176(sp)
600e6a82:	9fc1      	lw	a2,4(a3)
600e6a84:	a094      	lbu	a0,20(s0)
600e6a86:	9fc1      	lw	a2,4(a3)
600e6a88:	960c      	lw	a2,48(sp)
600e6a8a:	9fc1      	lw	a2,4(a3)
600e6a8c:	6009      	bteqz	600e6aa0 <.LBE5+0x90>
600e6a8e:	bfc2      	lwu	a2,8(a3)
600e6a90:	691d      	li	s1,29
600e6a92:	60a6      	bteqz	600e69e0 <.LBB5+0xc>
600e6a94:	9628      	lw	a2,160(sp)
600e6a96:	9fc1      	lw	a2,4(a3)
600e6a98:	961c      	lw	a2,112(sp)
600e6a9a:	9fc1      	lw	a2,4(a3)
600e6a9c:	6011      	bteqz	600e6ac0 <a2dp_decode_quit+0x4>
600e6a9e:	bfc2      	lwu	a2,8(a3)
600e6aa0:	95cc      	lw	a1,816(sp)
600e6aa2:	9fc1      	lw	a2,4(a3)
600e6aa4:	963c      	lw	a2,240(sp)
600e6aa6:	9fc1      	lw	a2,4(a3)
600e6aa8:	6015      	bteqz	600e6ad4 <a2dp_decode_quit+0x18>
600e6aaa:	bfc2      	lwu	a2,8(a3)
600e6aac:	6e70      	li	a2,112
600e6aae:	600e      	bteqz	600e6acc <a2dp_decode_quit+0x10>
600e6ab0:	684d      	li	s0,77
600e6ab2:	60a6      	bteqz	600e6a00 <.LBB5+0x2c>
600e6ab4:	6005      	bteqz	600e6ac0 <a2dp_decode_quit+0x4>
600e6ab6:	bfc2      	lwu	a2,8(a3)
600e6ab8:	9610      	lw	a2,64(sp)
600e6aba:	9fc1      	lw	a2,4(a3)

600e6abc <a2dp_decode_quit>:
600e6abc:	64f4      	save	32,ra,s0-s1

void a2dp_decode_quit(void)
{
600e6abe:	b136      	lw	s1,600e6b94 <a2dp_decode_quit+0xd8>
    uint32 temp_flag;

    //sample_sound_exit();
    if(mp_handle != NULL) {
600e6ac0:	9940      	lw	v0,0(s1)
600e6ac2:	223c      	beqz	v0,600e6b3c <a2dp_decode_quit+0x80>
600e6ac4:	b535      	lw	a1,600e6b98 <a2dp_decode_quit+0xdc>
#ifdef ENABLE_TRUE_WIRELESS_STEREO
        //卸载中间件,提前关闭bt wake host中断
        if(g_p_bt_stack_cur_info->dev_role != 0) {
600e6ac6:	9d80      	lw	a0,0(a1)
600e6ac8:	f020 a47a 	lbu	v1,58(a0)
600e6acc:	231f      	beqz	v1,600e6b0c <a2dp_decode_quit+0x50>
600e6ace:	6c00      	li	a0,0
            temp_flag = sys_local_irq_save();
600e6ad0:	b033      	lw	s0,600e6b9c <a2dp_decode_quit+0xe0>
600e6ad2:	67a4      	move	a1,a0
600e6ad4:	67c4      	move	a2,a0
600e6ad6:	e840      	jalr	s0
600e6ad8:	6f2d      	li	a3,45
600e6ada:	b532      	lw	a1,600e6ba0 <a2dp_decode_quit+0xe4>

            act_writel(act_readl(INTC_MSK) & 0xfffffffe, INTC_MSK);
600e6adc:	6f02      	li	a3,2
600e6ade:	9dc0      	lw	a2,0(a1)
600e6ae0:	eceb      	neg	a0,a3
600e6ae2:	ee8c      	and	a2,a0
600e6ae4:	b730      	lw	a3,600e6ba4 <a2dp_decode_quit+0xe8>
            act_writel(act_readl(BIAS_CTL) & 0xfffffffb, BIAS_CTL);
600e6ae6:	ddc0      	sw	a2,0(a1)
600e6ae8:	9f60      	lw	v1,0(a3)
600e6aea:	44cd      	addiu	a2,a0,-3
600e6aec:	b430      	lw	a0,600e6bac <a2dp_decode_quit+0xf0>
            act_writel(0x00000005, WAKE_PD); //clear bt onoff pending
            g_p_tws_info->mmm_init_flag = 0;
600e6aee:	ebcc      	and	v1,a2
600e6af0:	df60      	sw	v1,0(a3)
600e6af2:	b52e      	lw	a1,600e6ba8 <a2dp_decode_quit+0xec>
600e6af4:	9c60      	lw	v1,0(a0)
600e6af6:	6f00      	li	a3,0
600e6af8:	4e0a      	addiu	a2,10
600e6afa:	ddc0      	sw	a2,0(a1)
600e6afc:	c3e3      	sb	a3,3(v1)
600e6afe:	9cc0      	lw	a2,0(a0)
            g_p_tws_info->start_flag = 0;
600e6b00:	6d00      	li	a1,0
            sys_local_irq_restore(temp_flag);
600e6b02:	c6e0      	sb	a3,0(a2)
600e6b04:	6782      	move	a0,v0
600e6b06:	67c5      	move	a2,a1
600e6b08:	e840      	jalr	s0
600e6b0a:	6f2e      	li	a3,46
600e6b0c:	b429      	lw	a0,600e6bb0 <a2dp_decode_quit+0xf4>
        }
#endif
        g_app_info_state_all.energy_available_flag = FALSE;
600e6b0e:	6b00      	li	v1,0
600e6b10:	c46a      	sb	v1,10(a0)
600e6b12:	b029      	lw	s0,600e6bb4 <a2dp_decode_quit+0xf8>
#ifdef WAVES_ASET_TOOLS
        mmm_bp_cmd(mp_handle, MMM_BP_STOP, (unsigned int) &g_waves);

#else
        mmm_bp_cmd(mp_handle, MMM_BP_STOP, (unsigned int) NULL);
600e6b14:	9980      	lw	a0,0(s1)
600e6b16:	6d08      	li	a1,8
600e6b18:	e840      	jalr	s0
600e6b1a:	6e00      	li	a2,0
600e6b1c:	9980      	lw	a0,0(s1)
#endif
        mmm_bp_cmd(mp_handle, MMM_BP_AOUT_CLOSE, (unsigned int) NULL);
600e6b1e:	6d03      	li	a1,3
600e6b20:	e840      	jalr	s0
600e6b22:	6e00      	li	a2,0
600e6b24:	9980      	lw	a0,0(s1)
        //关闭中间件设备
        mmm_bp_cmd(mp_handle, MMM_BP_CLOSE, (unsigned int) NULL);
600e6b26:	6d01      	li	a1,1
600e6b28:	e840      	jalr	s0
600e6b2a:	6e00      	li	a2,0
600e6b2c:	6d00      	li	a1,0

        //卸载解码驱动
        sys_free_mmm(TRUE);
600e6b2e:	b01c      	lw	s0,600e6b9c <a2dp_decode_quit+0xe0>
600e6b30:	6c01      	li	a0,1
600e6b32:	67c5      	move	a2,a1
600e6b34:	e840      	jalr	s0
600e6b36:	6f06      	li	a3,6
600e6b38:	6a00      	li	v0,0
        mp_handle = NULL;
600e6b3a:	d940      	sw	v0,0(s1)
600e6b3c:	b720      	lw	a3,600e6bbc <a2dp_decode_quit+0x100>
#ifdef ENABLE_TRUE_WIRELESS_STEREO
#if 0
        temp_flag = sys_local_irq_save();
        g_p_tws_info->tws_send_buf_base = 0x9fc38000;
        sys_local_irq_restore(temp_flag);
#endif
#endif
    }
    btplay_gl_var.codec_flag = FALSE;
    g_p_btplay_info->status = BTPLAY_PAUSE;
600e6b3e:	b41f      	lw	a0,600e6bb8 <a2dp_decode_quit+0xfc>
600e6b40:	9fa0      	lw	a1,0(a3)
600e6b42:	6b00      	li	v1,0
600e6b44:	6e03      	li	a2,3
600e6b46:	c460      	sb	v1,0(a0)
600e6b48:	b015      	lw	s0,600e6b9c <a2dp_decode_quit+0xe0>
    PRINT_INFO("btplay mmm exit");
600e6b4a:	c5c0      	sb	a2,0(a1)
600e6b4c:	6d00      	li	a1,0
600e6b4e:	67c5      	move	a2,a1
600e6b50:	0c0c      	la	a0,600e6b80 <a2dp_decode_quit+0xc4>
600e6b52:	e840      	jalr	s0
600e6b54:	6f4b      	li	a3,75
600e6b56:	b01b      	lw	s0,600e6bc0 <a2dp_decode_quit+0x104>

    adjust_freq_add_value(0, 0);
600e6b58:	6c00      	li	a0,0
600e6b5a:	67a4      	move	a1,a0
600e6b5c:	6e01      	li	a2,1
600e6b5e:	e840      	jalr	s0
600e6b60:	6f03      	li	a3,3
600e6b62:	6c03      	li	a0,3

    adjust_freq_set_level(AP_BACK_HIGH_PRIO, FREQ_NULL, FREQ_NULL);
600e6b64:	6d00      	li	a1,0
600e6b66:	67c5      	move	a2,a1
600e6b68:	e840      	jalr	s0
600e6b6a:	67e4      	move	a3,a0
600e6b6c:	6d02      	li	a1,2
    adjust_freq_set_level(AP_BACK_LOW_PRIO, FREQ_LEVEL2, FREQ_NULL);
600e6b6e:	6e00      	li	a2,0
600e6b70:	6f03      	li	a3,3
600e6b72:	e840      	jalr	s0
600e6b74:	6c06      	li	a0,6
600e6b76:	b214      	lw	v0,600e6bc4 <a2dp_decode_quit+0x108>

    com_set_sound_out(SOUND_OUT_STOP);
600e6b78:	ea40      	jalr	v0
600e6b7a:	6c00      	li	a0,0
600e6b7c:	6474      	restore	32,ra,s0-s1
600e6b7e:	e8a0      	jrc	ra
600e6b80:	493c      	addiu	s1,60
600e6b82:	203e      	beqz	s0,600e6c00 <.LBB6+0x30>
600e6b84:	7462      	cmpi	a0,98
600e6b86:	6c70      	li	a0,112
600e6b88:	7961      	sd	v1,8(s1)
600e6b8a:	6d20      	li	a1,32
600e6b8c:	6d6d      	li	a1,109
600e6b8e:	6520      	move	at,s0
600e6b90:	6978      	li	s1,120
600e6b92:	0074      	addiu	s0,sp,464
600e6b94:	963c      	lw	a2,240(sp)
600e6b96:	9fc1      	lw	a2,4(a3)
600e6b98:	960c      	lw	a2,48(sp)
600e6b9a:	9fc1      	lw	a2,4(a3)
600e6b9c:	6009      	bteqz	600e6bb0 <a2dp_decode_quit+0xf4>
600e6b9e:	bfc2      	lwu	a2,8(a3)
600e6ba0:	0004      	addiu	s0,sp,16
600e6ba2:	c00b      	sb	s0,11(s0)
600e6ba4:	0058      	addiu	s0,sp,352
600e6ba6:	c002      	sb	s0,2(s0)
600e6ba8:	0050      	addiu	s0,sp,320
600e6baa:	c002      	sb	s0,2(s0)
600e6bac:	9610      	lw	a2,64(sp)
600e6bae:	9fc1      	lw	a2,4(a3)
600e6bb0:	a094      	lbu	a0,20(s0)
600e6bb2:	9fc1      	lw	a2,4(a3)
600e6bb4:	6015      	bteqz	600e6be0 <.LBB6+0x10>
600e6bb6:	bfc2      	lwu	a2,8(a3)
600e6bb8:	962c      	lw	a2,176(sp)
600e6bba:	9fc1      	lw	a2,4(a3)
600e6bbc:	961c      	lw	a2,112(sp)
600e6bbe:	9fc1      	lw	a2,4(a3)
600e6bc0:	6011      	bteqz	600e6be4 <.LBB6+0x14>
600e6bc2:	bfc2      	lwu	a2,8(a3)
600e6bc4:	691d      	li	s1,29
600e6bc6:	60a6      	bteqz	600e6b14 <a2dp_decode_quit+0x58>

600e6bc8 <sample_sound_init>:
600e6bc8:	64f4      	save	32,ra,s0-s1

}

static void start_sample_sound(uint32 dst_addr, uint32 block_length)
{

    //abort DMA stransfer and reset config
    *((REG32)(DMA3CTL)) = 0x00;

    //data width 16bit
    act_writel(act_readl(DMA3CTL) | (1 << DMA3CTL_DATAWIDTH_SHIFT), DMA3CTL);

    //source addr type:adc fifo
    act_writel(act_readl(DMA3CTL) | (0x0b << DMA3CTL_SRCTYPE_SHIFT), DMA3CTL);

    //dest addr type:memory
    act_writel(act_readl(DMA3CTL) | (0 << DMA3CTL_DSTTYPE_SHIFT), DMA3CTL);

    //dest address
    act_writel(dst_addr, DMA3DADDR0);

    //dma length
    act_writel(block_length / 2, DMA3FrameLen);

    //dm3 half & complete int disable
    act_writel(act_readl(DMAIE) & (~0x00000808), DMAIE);

    //clear pending，注意不能使用读-或-写这种方式，避免清掉其他pending位
    act_writel(0x00000808, DMAIP);

    //临时注释掉
    //reload enable
    act_writel(act_readl(DMA3CTL) | (1 << DMA3CTL_reload), DMA3CTL);

    //enable transfer
    act_writel(act_readl(DMA3CTL) | (1 << DMA3CTL_DMA3START), DMA3CTL);

    //挂接中断服务程序
    sys_request_irq(IRQ_DMA3, pcm_data_deal);

    //dm3 half & complete int enable
    act_writel(act_readl(DMAIE) | 0x00000808, DMAIE);
}

/******************************************************************************/
/*!
 * \par  Description:
 * \初始化ADC函数及AIN通道
 * \param[in]    none
 * \param[out]   none
 * \return       none
 * \retval
 * \ingroup      bt_common_gen_addr.c
 * \note
 */
/*******************************************************************************/
void sample_sound_init(void)
{
600e6bca:	b225      	lw	v0,600e6c5c <.LBE6+0x2a>
    if(sample_start_flag == 0) {
600e6bcc:	a220      	lbu	s1,0(v0)
600e6bce:	293f      	bnez	s1,600e6c4e <.LBE6+0x1c>

600e6bd0 <.LBB6>:
600e6bd0:	b025      	lw	s0,600e6c64 <.LBE6+0x32>
600e6bd2:	f008 6b00 	li	v1,16384
600e6bd6:	d820      	sw	s1,0(s0)
600e6bd8:	98a0      	lw	a1,0(s0)
600e6bda:	6cb0      	li	a0,176
600e6bdc:	ed6d      	or	a1,v1
600e6bde:	d8a0      	sw	a1,0(s0)
600e6be0:	9840      	lw	v0,0(s0)
600e6be2:	b620      	lw	a2,600e6c60 <.LBE6+0x2e>
600e6be4:	ea8d      	or	v0,a0
600e6be6:	d840      	sw	v0,0(s0)
600e6be8:	98e0      	lw	a3,0(s0)
600e6bea:	b520      	lw	a1,600e6c68 <.LBE6+0x36>
600e6bec:	b420      	lw	a0,600e6c6c <.LBE6+0x3a>
600e6bee:	b221      	lw	v0,600e6c70 <.LBE6+0x3e>
600e6bf0:	f001 6b00 	li	v1,2048
600e6bf4:	d8e0      	sw	a3,0(s0)
600e6bf6:	ddc0      	sw	a2,0(a1)
600e6bf8:	dc60      	sw	v1,0(a0)
600e6bfa:	9aa0      	lw	a1,0(v0)
600e6bfc:	f001 6f09 	li	a3,2057
600e6c00:	eeeb      	neg	a2,a3
600e6c02:	b41c      	lw	a0,600e6c70 <.LBE6+0x3e>
600e6c04:	b21c      	lw	v0,600e6c74 <.LBE6+0x42>
600e6c06:	edcc      	and	a1,a2
600e6c08:	f001 6b08 	li	v1,2056
600e6c0c:	dca0      	sw	a1,0(a0)
600e6c0e:	da60      	sw	v1,0(v0)
600e6c10:	98e0      	lw	a3,0(s0)
600e6c12:	6e02      	li	a2,2
600e6c14:	efcd      	or	a3,a2
600e6c16:	d8e0      	sw	a3,0(s0)
600e6c18:	9880      	lw	a0,0(s0)
600e6c1a:	46af      	addiu	a1,a2,-1
600e6c1c:	ecad      	or	a0,a1
600e6c1e:	d880      	sw	a0,0(s0)
600e6c20:	b516      	lw	a1,600e6c78 <.LBE6+0x46>
600e6c22:	b017      	lw	s0,600e6c7c <.LBE6+0x4a>
600e6c24:	6c15      	li	a0,21
600e6c26:	67d1      	move	a2,s1
600e6c28:	e840      	jalr	s0
600e6c2a:	6f14      	li	a3,20
600e6c2c:	b311      	lw	v1,600e6c70 <.LBE6+0x3e>
600e6c2e:	b611      	lw	a2,600e6c70 <.LBE6+0x3e>
600e6c30:	9be0      	lw	a3,0(v1)

600e6c32 <.LBE6>:
600e6c32:	b40b      	lw	a0,600e6c5c <.LBE6+0x2a>

        start_sample_sound(ADC_SAMPLE_BUFFER, ADC_SAMPLE_BUFFER_LEN);
        sample_start_flag = 1;
600e6c34:	f001 6a08 	li	v0,2056
600e6c38:	ef4d      	or	a3,v0
600e6c3a:	6d01      	li	a1,1
600e6c3c:	dee0      	sw	a3,0(a2)
600e6c3e:	c4a0      	sb	a1,0(a0)
600e6c40:	67d1      	move	a2,s1
        libc_print("adc en", 0, 0);
600e6c42:	0c05      	la	a0,600e6c54 <.LBE6+0x22>
600e6c44:	67b1      	move	a1,s1
600e6c46:	e840      	jalr	s0
600e6c48:	6f4b      	li	a3,75
600e6c4a:	b30e      	lw	v1,600e6c80 <.LBE6+0x4e>
        g_need_adc_flag = 0;
600e6c4c:	c320      	sb	s1,0(v1)
600e6c4e:	6474      	restore	32,ra,s0-s1
    }
}
600e6c50:	e8a0      	jrc	ra
600e6c52:	0000      	addiu	s0,sp,0
600e6c54:	6461      	restore	8,ra,s0
600e6c56:	2063      	beqz	s0,600e6d1e <adc_set_exit+0x1e>
600e6c58:	6e65      	li	a2,101
600e6c5a:	0000      	addiu	s0,sp,0
600e6c5c:	9626      	lw	a2,152(sp)
600e6c5e:	9fc1      	lw	a2,4(a3)
600e6c60:	8580      	lb	a0,0(a1)
600e6c62:	9fc1      	lw	a2,4(a3)
600e6c64:	0058      	addiu	s0,sp,352
600e6c66:	c00c      	sb	s0,12(s0)
600e6c68:	0064      	addiu	s0,sp,400
600e6c6a:	c00c      	sb	s0,12(s0)
600e6c6c:	006c      	addiu	s0,sp,432
600e6c6e:	c00c      	sb	s0,12(s0)
600e6c70:	0008      	addiu	s0,sp,32
600e6c72:	c00c      	sb	s0,12(s0)
600e6c74:	0004      	addiu	s0,sp,16
600e6c76:	c00c      	sb	s0,12(s0)
600e6c78:	6511      	move	s0,s1
600e6c7a:	bfc2      	lwu	a2,8(a3)
600e6c7c:	6009      	bteqz	600e6c90 <adc_set_init+0xc>
600e6c7e:	bfc2      	lwu	a2,8(a3)
600e6c80:	9625      	lw	a2,148(sp)
600e6c82:	9fc1      	lw	a2,4(a3)

600e6c84 <adc_set_init>:
600e6c84:	64f5      	save	40,ra,s0-s1
void adc_set_init(void)
{
600e6c86:	b219      	lw	v0,600e6ce8 <.LBE13+0x1a>
    //libc_print("enterflag",adc_init_flag,2);
    //libc_print("role",g_p_bt_stack_cur_info->dev_role,2);
    if((adc_init_flag == 0) && (g_p_bt_stack_cur_info->dev_role != TWS_SLAVE)) {
600e6c88:	a220      	lbu	s1,0(v0)
600e6c8a:	2921      	bnez	s1,600e6cce <.LBE13>
600e6c8c:	b518      	lw	a1,600e6cec <.LBE13+0x1e>
600e6c8e:	9d80      	lw	a0,0(a1)
600e6c90:	f020 a47a 	lbu	v1,58(a0)
600e6c94:	7302      	cmpi	v1,2
600e6c96:	601b      	bteqz	600e6cce <.LBE13>

600e6c98 <.LBB13>:
600e6c98:	b016      	lw	s0,600e6cf0 <.LBE13+0x22>
        uint8 ain_gain_tmp = (uint8) com_get_config_default(LINEIN_GAIN_INPUT);
600e6c9a:	e840      	jalr	s0
600e6c9c:	6cce      	li	a0,206
600e6c9e:	ea11      	zeb	v0
600e6ca0:	6ccf      	li	a0,207
        uint8 adc_gain_tmp = (uint8) com_get_config_default(LINEIN_GAIN_ADC);
600e6ca2:	e840      	jalr	s0
600e6ca4:	d204      	sw	v0,16(sp)
600e6ca6:	67a2      	move	a1,v0

        enable_adc(1, adc_gain_tmp);
600e6ca8:	b013      	lw	s0,600e6cf4 <.LBE13+0x26>
600e6caa:	6c01      	li	a0,1
600e6cac:	ed11      	zeb	a1
600e6cae:	67d1      	move	a2,s1
600e6cb0:	e840      	jalr	s0
600e6cb2:	6f0d      	li	a3,13
600e6cb4:	6c2c      	li	a0,44

        set_adc_rate(44);
600e6cb6:	67b1      	move	a1,s1
600e6cb8:	67d1      	move	a2,s1
600e6cba:	e840      	jalr	s0
600e6cbc:	6f0f      	li	a3,15
600e6cbe:	9504      	lw	a1,16(sp)

        enable_ain(AI_SOURCE_LINEIN, ain_gain_tmp);
600e6cc0:	67d1      	move	a2,s1
600e6cc2:	6f08      	li	a3,8
600e6cc4:	e840      	jalr	s0
600e6cc6:	6c01      	li	a0,1
600e6cc8:	b608      	lw	a2,600e6ce8 <.LBE13+0x1a>

        adc_init_flag = 1;
600e6cca:	6f01      	li	a3,1
600e6ccc:	c6e0      	sb	a3,0(a2)

600e6cce <.LBE13>:
600e6cce:	b30b      	lw	v1,600e6cf8 <.LBE13+0x2a>
    }
    libc_print("check", act_readl(ADC_FIFOCTL), 2);
600e6cd0:	b20b      	lw	v0,600e6cfc <.LBE13+0x2e>
600e6cd2:	9ba0      	lw	a1,0(v1)
600e6cd4:	0c03      	la	a0,600e6ce0 <.LBE13+0x12>
600e6cd6:	6e02      	li	a2,2
600e6cd8:	ea40      	jalr	v0
600e6cda:	6f4b      	li	a3,75
600e6cdc:	6475      	restore	40,ra,s0-s1
600e6cde:	e8a0      	jrc	ra
600e6ce0:	6863      	li	s0,99
600e6ce2:	6365      	addiu	sp,808
600e6ce4:	006b      	addiu	s0,sp,428
600e6ce6:	0000      	addiu	s0,sp,0
600e6ce8:	9627      	lw	a2,156(sp)
600e6cea:	9fc1      	lw	a2,4(a3)
600e6cec:	960c      	lw	a2,48(sp)
600e6cee:	9fc1      	lw	a2,4(a3)
600e6cf0:	68bd      	li	s0,189
600e6cf2:	60a6      	bteqz	600e6c40 <.LBE6+0xe>
600e6cf4:	6001      	bteqz	600e6cf8 <.LBE13+0x2a>
600e6cf6:	bfc2      	lwu	a2,8(a3)
600e6cf8:	1004      	b	600e6d02 <adc_set_exit+0x2>
600e6cfa:	c005      	sb	s0,5(s0)
600e6cfc:	6009      	bteqz	600e6d10 <adc_set_exit+0x10>
600e6cfe:	bfc2      	lwu	a2,8(a3)

600e6d00 <adc_set_exit>:
600e6d00:	64e3      	save	24,ra,s0

}

void adc_set_exit(void)
{
600e6d02:	b30a      	lw	v1,600e6d28 <adc_set_exit+0x28>
    //libc_print("exitflag",adc_init_flag,2);
    if(adc_init_flag == 1) {
600e6d04:	a340      	lbu	v0,0(v1)
600e6d06:	7201      	cmpi	v0,1
600e6d08:	610d      	btnez	600e6d24 <adc_set_exit+0x24>
600e6d0a:	6d00      	li	a1,0
        adc_init_flag = 0;
        disable_ain(AI_SOURCE_LINEIN);
600e6d0c:	6c00      	li	a0,0
600e6d0e:	b008      	lw	s0,600e6d2c <adc_set_exit+0x2c>
600e6d10:	67c5      	move	a2,a1
600e6d12:	c380      	sb	a0,0(v1)
600e6d14:	6f09      	li	a3,9
600e6d16:	e840      	jalr	s0
600e6d18:	6c01      	li	a0,1
600e6d1a:	6c00      	li	a0,0
        disable_adc();
600e6d1c:	67a4      	move	a1,a0
600e6d1e:	67c4      	move	a2,a0
600e6d20:	e840      	jalr	s0
600e6d22:	6f0e      	li	a3,14
600e6d24:	6463      	restore	24,ra,s0
    }
}
600e6d26:	e8a0      	jrc	ra
600e6d28:	9627      	lw	a2,156(sp)
600e6d2a:	9fc1      	lw	a2,4(a3)
600e6d2c:	6001      	bteqz	600e6d30 <sample_sound_exit>
600e6d2e:	bfc2      	lwu	a2,8(a3)

600e6d30 <sample_sound_exit>:
600e6d30:	64f5      	save	40,ra,s0-s1
void sample_sound_exit(void)
{
600e6d32:	6c00      	li	a0,0

    uint32 temp_flag;

    //libc_print("samcaller",__builtin_return_address(0),2);
    temp_flag = sys_local_irq_save();
600e6d34:	b119      	lw	s1,600e6d98 <sample_sound_exit+0x68>
600e6d36:	67a4      	move	a1,a0
600e6d38:	67c4      	move	a2,a0
600e6d3a:	e940      	jalr	s1
600e6d3c:	6f2d      	li	a3,45
600e6d3e:	b418      	lw	a0,600e6d9c <sample_sound_exit+0x6c>
    //exit for slave
    if(g_p_bt_stack_cur_info->dev_role == TWS_SLAVE) {
600e6d40:	d204      	sw	v0,16(sp)
600e6d42:	9c60      	lw	v1,0(a0)
600e6d44:	f020 a35a 	lbu	v0,58(v1)
600e6d48:	7202      	cmpi	v0,2
600e6d4a:	6102      	btnez	600e6d50 <sample_sound_exit+0x20>
600e6d4c:	b015      	lw	s0,600e6da0 <sample_sound_exit+0x70>
        adc_set_exit();
600e6d4e:	e8c0      	jalrc	s0
600e6d50:	b415      	lw	a0,600e6da0 <sample_sound_exit+0x70>
    }
    //*((REG32) (DMA3CTL)) = 0x00;
    act_writel(0x00, DMA3CTL);
600e6d52:	6800      	li	s0,0
600e6d54:	b215      	lw	v0,600e6da8 <sample_sound_exit+0x78>
    act_writel(0x00000808, DMAIP);
600e6d56:	f001 6b08 	li	v1,2056
600e6d5a:	dc00      	sw	s0,0(a0)
600e6d5c:	6c15      	li	a0,21
    sys_free_irq(IRQ_DMA3);
600e6d5e:	da60      	sw	v1,0(v0)
600e6d60:	67b0      	move	a1,s0
600e6d62:	67d0      	move	a2,s0
600e6d64:	e940      	jalr	s1
600e6d66:	67e4      	move	a3,a0
600e6d68:	b711      	lw	a3,600e6dac <sample_sound_exit+0x7c>
    sample_start_flag = 0;
600e6d6a:	9404      	lw	a0,16(sp)
    sys_local_irq_restore(temp_flag);
600e6d6c:	c700      	sb	s0,0(a3)
600e6d6e:	67b0      	move	a1,s0
600e6d70:	67d0      	move	a2,s0
600e6d72:	e940      	jalr	s1
600e6d74:	6f2e      	li	a3,46
600e6d76:	67b0      	move	a1,s0
    libc_print("adc disen", 0, 0);
600e6d78:	67d0      	move	a2,s0
600e6d7a:	0c05      	la	a0,600e6d8c <sample_sound_exit+0x5c>
600e6d7c:	e940      	jalr	s1
600e6d7e:	6f4b      	li	a3,75
600e6d80:	b50c      	lw	a1,600e6db0 <sample_sound_exit+0x80>
    g_need_adc_flag = 1;
600e6d82:	6e01      	li	a2,1
600e6d84:	c5c0      	sb	a2,0(a1)
600e6d86:	6475      	restore	40,ra,s0-s1
600e6d88:	e8a0      	jrc	ra
600e6d8a:	0000      	addiu	s0,sp,0
600e6d8c:	6461      	restore	8,ra,s0
600e6d8e:	2063      	beqz	s0,600e6e56 <sbc_encode_exit+0x1e>
600e6d90:	6964      	li	s1,100
600e6d92:	6573      	move	s3,v1
600e6d94:	006e      	addiu	s0,sp,440
600e6d96:	0000      	addiu	s0,sp,0
600e6d98:	6009      	bteqz	600e6dac <sample_sound_exit+0x7c>
600e6d9a:	bfc2      	lwu	a2,8(a3)
600e6d9c:	960c      	lw	a2,48(sp)
600e6d9e:	9fc1      	lw	a2,4(a3)
600e6da0:	6d01      	li	a1,1
600e6da2:	600e      	bteqz	600e6dc0 <sbc_encode_init+0xc>
600e6da4:	0058      	addiu	s0,sp,352
600e6da6:	c00c      	sb	s0,12(s0)
600e6da8:	0004      	addiu	s0,sp,16
600e6daa:	c00c      	sb	s0,12(s0)
600e6dac:	9626      	lw	a2,152(sp)
600e6dae:	9fc1      	lw	a2,4(a3)
600e6db0:	9625      	lw	a2,148(sp)
600e6db2:	9fc1      	lw	a2,4(a3)

600e6db4 <sbc_encode_init>:
600e6db4:	64e3      	save	24,ra,s0
}

void sbc_encode_init(void)
{
600e6db6:	b018      	lw	s0,600e6e14 <sbc_encode_init+0x60>
    libc_print("installmme", 0, 0);
600e6db8:	6d00      	li	a1,0
600e6dba:	67c5      	move	a2,a1
600e6dbc:	0c10      	la	a0,600e6dfc <sbc_encode_init+0x48>
600e6dbe:	e840      	jalr	s0
600e6dc0:	6f4b      	li	a3,75
600e6dc2:	b416      	lw	a0,600e6e18 <sbc_encode_init+0x64>
    //sys_disable_mem_use(DSP_CACHE_MEM_ADDR, DSP_CACHE_MEM_ADDR + DSP_CACHE_MEM_SIZE);
    sys_disable_mem_use(PCMRAM1_CACHE_MEM_ADDR, PCMRAM1_CACHE_MEM_ADDR + PCMRAM1_CACHE_MEM_SIZE);
600e6dc4:	b516      	lw	a1,600e6e1c <sbc_encode_init+0x68>
600e6dc6:	6e00      	li	a2,0
600e6dc8:	e840      	jalr	s0
600e6dca:	6f53      	li	a3,83
600e6dcc:	b415      	lw	a0,600e6e20 <sbc_encode_init+0x6c>

    sys_disable_mem_use(URAM1_CACHE_MEM_ADDR, URAM1_CACHE_MEM_ADDR + URAM1_CACHE_MEM_SIZE);
600e6dce:	b516      	lw	a1,600e6e24 <sbc_encode_init+0x70>
600e6dd0:	6e00      	li	a2,0
600e6dd2:	e840      	jalr	s0
600e6dd4:	6f53      	li	a3,83
600e6dd6:	b415      	lw	a0,600e6e28 <sbc_encode_init+0x74>
    act_writel(act_readl(CMU_MEMCLKSEL) & 0xfcfeffcf, CMU_MEMCLKSEL);    //uarm1,pcmram1 card fifo cpu clock
600e6dd8:	b315      	lw	v1,600e6e2c <sbc_encode_init+0x78>
600e6dda:	9ca0      	lw	a1,0(a0)
600e6ddc:	0e0b      	la	a2,600e6e08 <sbc_encode_init+0x54>

    sys_drv_install(DRV_GROUP_STG_UHOST, NULL, "sbc_enc.drv");
600e6dde:	ed6c      	and	a1,v1
600e6de0:	dca0      	sw	a1,0(a0)
600e6de2:	6f0a      	li	a3,10
600e6de4:	6c02      	li	a0,2
600e6de6:	e840      	jalr	s0
600e6de8:	6d00      	li	a1,0
600e6dea:	6d00      	li	a1,0

    sbc_drv_encode_init(&sbc_obj, 0);
600e6dec:	b411      	lw	a0,600e6e30 <sbc_encode_init+0x7c>
600e6dee:	b212      	lw	v0,600e6e34 <sbc_encode_init+0x80>
600e6df0:	67c5      	move	a2,a1
600e6df2:	ea40      	jalr	v0
600e6df4:	67e5      	move	a3,a1
600e6df6:	6463      	restore	24,ra,s0
600e6df8:	e8a0      	jrc	ra
600e6dfa:	0000      	addiu	s0,sp,0
600e6dfc:	6e69      	li	a2,105
600e6dfe:	7473      	cmpi	a0,115
600e6e00:	6c61      	li	a0,97
600e6e02:	6d6c      	li	a1,108
600e6e04:	656d      	move	t3,a1
600e6e06:	0000      	addiu	s0,sp,0
600e6e08:	6273      	sw	ra,460(sp)
600e6e0a:	5f63      	sltiu	a3,99
600e6e0c:	6e65      	li	a2,101
600e6e0e:	2e63      	bnez	a2,600e6ed6 <s_output_channel+0x66>
600e6e10:	7264      	cmpi	v0,100
600e6e12:	0076      	addiu	s0,sp,472
600e6e14:	6009      	bteqz	600e6e28 <sbc_encode_init+0x74>
600e6e16:	bfc2      	lwu	a2,8(a3)
600e6e18:	e000      	daddu	s0,s0
600e6e1a:	0003      	addiu	s0,sp,12
600e6e1c:	e800      	jr	s0
600e6e1e:	0003      	addiu	s0,sp,12
600e6e20:	f800      	ld	s0,0(sp)
600e6e22:	0003      	addiu	s0,sp,12
600e6e24:	0000      	addiu	s0,sp,0
600e6e26:	0004      	addiu	s0,sp,16
600e6e28:	1044      	b	600e6eb2 <s_output_channel+0x42>
600e6e2a:	c000      	sb	s0,0(s0)
600e6e2c:	ffcf      	daddiu	a2,sp,60
600e6e2e:	fcfe      	ld	a3,600e6f18 <s_output_channel+0xa8>
600e6e30:	95b4      	lw	a1,720(sp)
600e6e32:	9fc1      	lw	a2,4(a3)
600e6e34:	6019      	bteqz	600e6e68 <sbc_encode_exit+0x30>
600e6e36:	bfc2      	lwu	a2,8(a3)

600e6e38 <sbc_encode_exit>:
600e6e38:	64e3      	save	24,ra,s0
}

void sbc_encode_exit(void)
{
600e6e3a:	6d00      	li	a1,0
    if(sys_get_drv_install_info(DRV_GROUP_STG_UHOST) > 0) {
600e6e3c:	b00a      	lw	s0,600e6e64 <sbc_encode_exit+0x2c>
600e6e3e:	6c02      	li	a0,2
600e6e40:	67c5      	move	a2,a1
600e6e42:	e840      	jalr	s0
600e6e44:	6f0c      	li	a3,12
600e6e46:	5201      	slti	v0,1
600e6e48:	610b      	btnez	600e6e60 <sbc_encode_exit+0x28>
600e6e4a:	6d00      	li	a1,0
        bt_drv_encode_finish(&sbc_obj);
600e6e4c:	b407      	lw	a0,600e6e68 <sbc_encode_exit+0x30>
600e6e4e:	b208      	lw	v0,600e6e6c <sbc_encode_exit+0x34>
600e6e50:	67c5      	move	a2,a1
600e6e52:	ea40      	jalr	v0
600e6e54:	6f01      	li	a3,1
600e6e56:	6d00      	li	a1,0
        sys_drv_uninstall(DRV_GROUP_STG_UHOST);
600e6e58:	6c02      	li	a0,2
600e6e5a:	67c5      	move	a2,a1
600e6e5c:	e840      	jalr	s0
600e6e5e:	6f0b      	li	a3,11
600e6e60:	6463      	restore	24,ra,s0
        //sys_enable_mem_use(DSP_CACHE_MEM_ADDR, DSP_CACHE_MEM_ADDR + DSP_CACHE_MEM_SIZE);
    }
}
600e6e62:	e8a0      	jrc	ra
600e6e64:	6009      	bteqz	600e6e78 <s_output_channel+0x8>
600e6e66:	bfc2      	lwu	a2,8(a3)
600e6e68:	95b4      	lw	a1,720(sp)
600e6e6a:	9fc1      	lw	a2,4(a3)
600e6e6c:	6019      	bteqz	600e6ea0 <s_output_channel+0x30>
600e6e6e:	bfc2      	lwu	a2,8(a3)

600e6e70 <s_output_channel>:
600e6e70:	0100 0302 0004 0000                         ........
Disassembly of section BANK_CONTROL_1_4:

60126800 <app_message_deal>:
60126800:	f004 64f5 	save	a0,40,ra,s0-s1

//实际的AVRCP控制由前台代理，引擎不再需要处理
app_result_e __section__(".text.bank4")app_message_deal(private_msg_t *pri_msg)
{
60126804:	6a00      	li	v0,0
    app_result_e app_ret;
    bool ret_val;

    app_ret = RESULT_NULL;
60126806:	d204      	sw	v0,16(sp)
60126808:	9c40      	lw	v0,0(a0)

    switch(pri_msg->msg.type) {
6012680a:	72f6      	cmpi	v0,246
6012680c:	6026      	bteqz	6012685a <.LBB4>
6012680e:	5af7      	sltiu	v0,247
60126810:	600e      	bteqz	6012682e <app_message_deal+0x2e>
60126812:	72f3      	cmpi	v0,243
60126814:	6044      	bteqz	6012689e <.LBB4+0x44>
60126816:	5af4      	sltiu	v0,244
60126818:	6005      	bteqz	60126824 <app_message_deal+0x24>
6012681a:	72f1      	cmpi	v0,241
6012681c:	606d      	bteqz	601268f8 <.LBE5>
6012681e:	72f2      	cmpi	v0,242
60126820:	602e      	bteqz	6012687e <.LBB4+0x24>
60126822:	10a6      	b	60126970 <.LBE6+0xe>
60126824:	72f4      	cmpi	v0,244
60126826:	602b      	bteqz	6012687e <.LBB4+0x24>
60126828:	72f5      	cmpi	v0,245
6012682a:	6039      	bteqz	6012689e <.LBB4+0x44>
6012682c:	10a1      	b	60126970 <.LBE6+0xe>
6012682e:	f500 7203 	cmpi	v0,1283
60126832:	f080 6000 	bteqz	60126936 <.LBE5+0x3e>
60126836:	f500 5a04 	sltiu	v0,1284
6012683a:	6006      	bteqz	60126848 <app_message_deal+0x48>
6012683c:	72fa      	cmpi	v0,250
6012683e:	604a      	bteqz	601268d4 <.LBB5>
60126840:	f500 7202 	cmpi	v0,1282
60126844:	6063      	bteqz	6012690c <.LBE5+0x14>
60126846:	1094      	b	60126970 <.LBE6+0xe>
60126848:	f500 7205 	cmpi	v0,1285
6012684c:	f080 6003 	bteqz	60126956 <.LBB6>
60126850:	f201 7206 	cmpi	v0,2566
60126854:	f080 6005 	bteqz	60126962 <.LBE6>
60126858:	108b      	b	60126970 <.LBE6+0xe>

6012685a <.LBB4>:
6012685a:	b080      	lw	s0,60126a58 <.LBE4+0x32>

        case MSG_SET_DAE_CFG_SYNC: //设置DAE
            if(mp_handle != NULL) {
6012685c:	9860      	lw	v1,0(s0)
6012685e:	f080 2302 	beqz	v1,60126966 <.LBE6+0x4>
60126862:	b47f      	lw	a0,60126a5c <.LBE4+0x36>
                adjust_freq_add_value(0, g_dae_cfg_shm->run_freq);
60126864:	b27f      	lw	v0,60126a60 <.LBE4+0x3a>
60126866:	9cc0      	lw	a2,0(a0)
60126868:	9404      	lw	a0,16(sp)
6012686a:	a6b6      	lbu	a1,22(a2)
6012686c:	6f03      	li	a3,3
6012686e:	ea40      	jalr	v0
60126870:	6e01      	li	a2,1
60126872:	9880      	lw	a0,0(s0)

                mmm_bp_cmd(mp_handle, MMM_BP_SET_EQ, (unsigned int) NULL);
60126874:	9604      	lw	a2,16(sp)
60126876:	b27c      	lw	v0,60126a64 <.LBE4+0x3e>
60126878:	ea40      	jalr	v0
6012687a:	6d0b      	li	a1,11
6012687c:	1074      	b	60126966 <.LBE6+0x4>
6012687e:	b07c      	lw	s0,60126a6c <.LBE4+0x46>
            }
            btplay_reply_msg(pri_msg, TRUE);
            break;

        case MSG_TTS_START_SYNC: //准备进入TTS播报
        case MSG_SWITCH_AOUT_START_SYNC: //准备切换音频输出
            //临时停止播歌，该消息等同于STOP消息
        {

            btplay_engine_pipe_control(PIPE_OP_FILTER);
60126880:	e840      	jalr	s0
60126882:	6c01      	li	a0,1
60126884:	b17b      	lw	s1,60126a70 <.LBE4+0x4a>
            if(btplay_gl_var.codec_flag == TRUE) {
60126886:	a1a0      	lbu	a1,0(s1)
60126888:	7501      	cmpi	a1,1
6012688a:	6102      	btnez	60126890 <.LBB4+0x36>
6012688c:	b37a      	lw	v1,60126a74 <.LBE4+0x4e>

                a2dp_decode_quit();
6012688e:	ebc0      	jalrc	v1
60126890:	b27a      	lw	v0,60126a74 <.LBE4+0x4e>
                ret_val = TRUE;
            } else {
                ret_val = TRUE;
            }
#ifdef ENABLE_TRUE_WIRELESS_STEREO
            send_tts_start_cmd();
60126892:	eac0      	jalrc	v0
60126894:	e840      	jalr	s0
#endif
            btplay_engine_pipe_control(PIPE_OP_FLUSH);
60126896:	6c80      	li	a0,128
60126898:	6f01      	li	a3,1

            btplay_gl_var.tts_play_flag = TRUE;
6012689a:	c1e1      	sb	a3,1(s1)
6012689c:	1064      	b	60126966 <.LBE6+0x4>
6012689e:	b478      	lw	a0,60126a7c <.LBE4+0x56>
            btplay_reply_msg(pri_msg, ret_val);
        }
        break;

        case MSG_TTS_STOP_SYNC: //TTS播报完成
        case MSG_SWITCH_AOUT_STOP_SYNC: //完成切换音频输出
            //恢复播歌，该消息等同于PLAY消息
        {
            btplay_gl_var.tts_play_flag = FALSE;
#ifdef ENABLE_TRUE_WIRELESS_STEREO
            if(g_app_info_state_all.g_send_exit_mmm_tts == 1) {
601268a0:	b574      	lw	a1,60126a70 <.LBE4+0x4a>
601268a2:	a4c5      	lbu	a2,5(a0)
601268a4:	6b00      	li	v1,0
601268a6:	7601      	cmpi	a2,1
601268a8:	c561      	sb	v1,1(a1)
601268aa:	6106      	btnez	601268b8 <.LBB4+0x5e>
601268ac:	b275      	lw	v0,60126a80 <.LBE4+0x5a>
                if(linein_tws_playpause_flag == 0) {
601268ae:	a2e0      	lbu	a3,0(v0)
601268b0:	2f03      	bnez	a3,601268b8 <.LBB4+0x5e>
601268b2:	b675      	lw	a2,60126a84 <.LBE4+0x5e>
                    enable_unfilter_flag = 1;
601268b4:	6c01      	li	a0,1
601268b6:	c680      	sb	a0,0(a2)
601268b8:	b374      	lw	v1,60126a88 <.LBE4+0x62>
                }
            }
            send_tts_stop_cmd();
601268ba:	ebc0      	jalrc	v1
601268bc:	b76d      	lw	a3,60126a6c <.LBE4+0x46>
#endif

            libc_print("@tts_stop:", btplay_gl_var.codec_flag, 2);
601268be:	b274      	lw	v0,60126a8c <.LBE4+0x66>
601268c0:	a7a0      	lbu	a1,0(a3)
601268c2:	0c5b      	la	a0,60126a2c <.LBE4+0x6>
601268c4:	6e02      	li	a2,2
601268c6:	ea40      	jalr	v0
601268c8:	6f4b      	li	a3,75
601268ca:	b36e      	lw	v1,60126a80 <.LBE4+0x5a>

            //暂停模式下,不要去打开un_filter
            //避免暂停模式下,断开组对后,开始播放
            if(linein_tws_playpause_flag == 0) {
601268cc:	a3a0      	lbu	a1,0(v1)
601268ce:	2d4b      	bnez	a1,60126966 <.LBE6+0x4>
601268d0:	b270      	lw	v0,60126a90 <.LBE4+0x6a>
//               set_single_shot_app_timer(APP_TIMER_ATTRB_CONTROL,
//                                500, Tws_clear_filter);
                deal_linein_clear_filter();
601268d2:	1048      	b	60126964 <.LBE6+0x2>

601268d4 <.LBB5>:
601268d4:	970a      	lw	a3,40(sp)
            }

            btplay_reply_msg(pri_msg, TRUE);
        }
        break;

        case MSG_ENGINE_STANDBY_SYNC: {
            os_event_t *standby_sem = (os_event_t *)(pri_msg->msg.content.addr);
601268d6:	b365      	lw	v1,60126a68 <.LBE4+0x42>

            //备份现场，准备进入睡眠模式
            //     PRINT_INFO("eng stdby en");

            //回复前台，然后接着跑就会睡眠
            btplay_reply_msg(pri_msg, TRUE);
601268d8:	6787      	move	a0,a3
601268da:	6d01      	li	a1,1
601268dc:	eb40      	jalr	v1
601268de:	9f01      	lw	s0,4(a3)
601268e0:	9504      	lw	a1,16(sp)

            libc_sem_wait(standby_sem, 0);
601268e2:	b26d      	lw	v0,60126a94 <.LBE4+0x6e>
601268e4:	67c5      	move	a2,a1
601268e6:	6790      	move	a0,s0
601268e8:	ea40      	jalr	v0
601268ea:	6f14      	li	a3,20
601268ec:	b56b      	lw	a1,60126a98 <.LBE4+0x72>

            //从睡眠模式回来，恢复现场
            // PRINT_INFO("eng stdby exit");
            standby_restart_all_app_timer(g_app_timer_vector, g_app_timer_count);
601268ee:	b66c      	lw	a2,60126a9c <.LBE4+0x76>
601268f0:	9d80      	lw	a0,0(a1)
601268f2:	b26c      	lw	v0,60126aa0 <.LBE4+0x7a>
601268f4:	a6a0      	lbu	a1,0(a2)
601268f6:	103a      	b	6012696c <.LBE6+0xa>

601268f8 <.LBE5>:
601268f8:	9504      	lw	a1,16(sp)
        }
        break;

        case MSG_APP_QUIT: //退出引擎
            PRINT_INFO("linein tws quit");
601268fa:	b265      	lw	v0,60126a8c <.LBE4+0x66>
601268fc:	0c4f      	la	a0,60126a38 <.LBE4+0x12>
601268fe:	67c5      	move	a2,a1
60126900:	ea40      	jalr	v0
60126902:	6f4b      	li	a3,75
60126904:	b268      	lw	v0,60126aa4 <.LBE4+0x7e>
            if((pri_msg->msg.content.data[0] & 0x01) != 0) {
                //  PRINT_INFO("eg enter s3bt");
            }
            app_ret = app_msg_deal_app_quit();
60126906:	eac0      	jalrc	v0
60126908:	d204      	sw	v0,16(sp)
6012690a:	108d      	b	60126a26 <.LBE4>
            break;
6012690c:	b367      	lw	v1,60126aa8 <.LBE4+0x82>

        /*播放相关*/
        case MSG_LINEIN_EG_PLAY_SYNC: //开始播放

            tws_sync_cmd_send(1);
6012690e:	eb40      	jalr	v1
60126910:	6c01      	li	a0,1
60126912:	67bd      	move	a1,sp
            linein_tws_playpause_flag = 0;
60126914:	b266      	lw	v0,60126aac <.LBE4+0x86>
            g_p_btplay_info->status = BTPLAY_PLAY;
60126916:	a5d0      	lbu	a2,16(a1)
60126918:	b45a      	lw	a0,60126a80 <.LBE4+0x5a>
6012691a:	b566      	lw	a1,60126ab0 <.LBE4+0x8a>
            if(g_p_bt_stack_cur_info->dev_role != 2) {
6012691c:	9a60      	lw	v1,0(v0)
6012691e:	c4c0      	sb	a2,0(a0)
60126920:	6f02      	li	a3,2
60126922:	9dc0      	lw	a2,0(a1)
60126924:	c3e0      	sb	a3,0(v1)
60126926:	f020 a69a 	lbu	a0,58(a2)
6012692a:	7402      	cmpi	a0,2
6012692c:	6002      	bteqz	60126932 <.LBE5+0x3a>
6012692e:	b262      	lw	v0,60126ab4 <.LBE4+0x8e>
                sample_sound_init();
60126930:	eac0      	jalrc	v0
60126932:	9404      	lw	a0,16(sp)
            }
            tws_filter_ctrl_send(0);
60126934:	100d      	b	60126950 <.LBE5+0x58>
60126936:	b35d      	lw	v1,60126aa8 <.LBE4+0x82>
            btplay_reply_msg(pri_msg, TRUE);
            break;

        case MSG_LINEIN_EG_STOP_SYNC: //停止播放

            tws_sync_cmd_send(2);
60126938:	eb40      	jalr	v1
6012693a:	6c02      	li	a0,2
6012693c:	b260      	lw	v0,60126abc <.LBE4+0x96>
            sample_sound_exit();
6012693e:	eac0      	jalrc	v0
60126940:	b65b      	lw	a2,60126aa8 <.LBE4+0x82>
            linein_tws_playpause_flag = 1;
            g_p_btplay_info->status = BTPLAY_PAUSE;
60126942:	b550      	lw	a1,60126a80 <.LBE4+0x5a>
60126944:	9ee0      	lw	a3,0(a2)
60126946:	6c03      	li	a0,3
60126948:	6b01      	li	v1,1
6012694a:	c560      	sb	v1,0(a1)
6012694c:	c780      	sb	a0,0(a3)
6012694e:	6c01      	li	a0,1
            tws_filter_ctrl_send(1);
60126950:	b25a      	lw	v0,60126ab8 <.LBE4+0x92>
60126952:	eac0      	jalrc	v0
60126954:	1008      	b	60126966 <.LBE6+0x4>

60126956 <.LBB6>:
60126956:	960a      	lw	a2,40(sp)
            btplay_reply_msg(pri_msg, TRUE);
            break;

        case MSG_LINEIN_EG_GET_CAP_SIZE_SYNC: {
            uint32 linein_cap_size = LINEIN_ACUPY_SIZE;
            *(uint32 *)(pri_msg->msg.content.addr) = linein_cap_size;
60126958:	f202 6c00 	li	a0,4608
6012695c:	9ee1      	lw	a3,4(a2)
6012695e:	df80      	sw	a0,0(a3)
60126960:	1002      	b	60126966 <.LBE6+0x4>

60126962 <.LBE6>:
60126962:	b258      	lw	v0,60126ac0 <.LBE4+0x9a>
        }

        btplay_reply_msg(pri_msg, TRUE);
        break;

        case MSG_LINEIN_STOP_REG:
            clear_smart_response();
60126964:	eac0      	jalrc	v0
60126966:	940a      	lw	a0,40(sp)
            btplay_reply_msg(pri_msg, TRUE);
60126968:	b240      	lw	v0,60126a68 <.LBE4+0x42>
6012696a:	6d01      	li	a1,1
6012696c:	eac0      	jalrc	v0
6012696e:	105b      	b	60126a26 <.LBE4>
            break;
60126970:	f201 7204 	cmpi	v0,2564

        default:
            if(pri_msg->msg.type == MSG_PLAYEREG_RECOGNIZE_PAUSE_MUSIC) {
60126974:	610c      	btnez	6012698e <.LBE7>
60126976:	b354      	lw	v1,60126ac4 <.LBE4+0x9e>
                linein_smart_mode(TRUE);
60126978:	eb40      	jalr	v1
6012697a:	6c01      	li	a0,1
6012697c:	b24d      	lw	v0,60126ab0 <.LBE4+0x8a>
                if(g_p_bt_stack_cur_info->dev_role == TWS_MASTER) {
6012697e:	9a60      	lw	v1,0(v0)
60126980:	f020 a3ba 	lbu	a1,58(v1)
60126984:	7501      	cmpi	a1,1
60126986:	6103      	btnez	6012698e <.LBE7>

60126988 <.LBB7>:
60126988:	b250      	lw	v0,60126ac8 <.LBE4+0xa2>
                    set_btstack_linein_ext(0);
6012698a:	ea40      	jalr	v0
6012698c:	6c00      	li	a0,0

6012698e <.LBE7>:
6012698e:	b633      	lw	a2,60126a58 <.LBE4+0x32>
                }

            }

            app_ret = smart_process_message_deal(pri_msg, mp_handle, mmm_bp_cmd, &btplay_gl_var.speech_flag);
60126990:	b338      	lw	v1,60126a70 <.LBE4+0x4a>
60126992:	940a      	lw	a0,40(sp)
60126994:	9ea0      	lw	a1,0(a2)
60126996:	b24e      	lw	v0,60126acc <.LBE4+0xa6>
60126998:	b633      	lw	a2,60126a64 <.LBE4+0x3e>
6012699a:	ea40      	jalr	v0
6012699c:	43e3      	addiu	a3,v1,3
6012699e:	940a      	lw	a0,40(sp)
//      btplay_reply_msg(pri_msg, TRUE);
            if(pri_msg->msg.type == MSG_PLAYEREG_RECOGNIZE_RESUME_MUSIC) {
601269a0:	ea31      	zeh	v0
601269a2:	9ce0      	lw	a3,0(a0)
601269a4:	d204      	sw	v0,16(sp)
601269a6:	f201 7705 	cmpi	a3,2565
601269aa:	6136      	btnez	60126a18 <.LBE8>

601269ac <.LBB8>:
601269ac:	b049      	lw	s0,60126ad0 <.LBE4+0xaa>
//#ifdef SMART_BOX_OPUS_MODE
                uint8 aac_flag = com_get_config_default(BTMANAGER_ENABLE_AVDTP_AAC);
601269ae:	6cff      	li	a0,255
601269b0:	e840      	jalr	s0
601269b2:	4c38      	addiu	a0,56
601269b4:	6702      	move	s0,v0
601269b6:	e811      	zeb	s0
601269b8:	2823      	bnez	s0,60126a00 <.LBB8+0x54>
                if(aac_flag == 0) {
601269ba:	b22d      	lw	v0,60126a6c <.LBE4+0x46>
                    btplay_engine_pipe_control(PIPE_OP_UNFILTER | PIPE_OP_FLUSH);
601269bc:	ea40      	jalr	v0
601269be:	6c82      	li	a0,130
601269c0:	b12f      	lw	s1,60126a7c <.LBE4+0x56>

                    g_app_info_state_all.voice_recgnize_stop_mode = 1;
601269c2:	6c40      	li	a0,64
601269c4:	a1fa      	lbu	a3,26(s1)
601269c6:	ef8d      	or	a3,a0
601269c8:	c1fa      	sb	a3,26(s1)
601269ca:	b143      	lw	s1,60126ad4 <.LBE4+0xae>

                    if(clear_smart_timer_id != -1) {
601269cc:	8180      	lb	a0,0(s1)
601269ce:	ed8f      	not	a1,a0
601269d0:	2505      	beqz	a1,601269dc <.LBB8+0x30>
601269d2:	b242      	lw	v0,60126ad8 <.LBE4+0xb2>
                        kill_app_timer(clear_smart_timer_id);
601269d4:	eac0      	jalrc	v0
601269d6:	6e01      	li	a2,1
601269d8:	ebcb      	neg	v1,a2
601269da:	c160      	sb	v1,0(s1)
                        clear_smart_timer_id = -1;
601269dc:	b540      	lw	a1,60126adc <.LBE4+0xb6>
                    }

                    smart_cnt = 0;
601269de:	b641      	lw	a2,60126ae0 <.LBE4+0xba>
                    clear_smart_timer_id = set_app_timer(APP_TIMER_ATTRB_CONTROL,
601269e0:	b241      	lw	v0,60126ae4 <.LBE4+0xbe>
601269e2:	c501      	sb	s0,1(a1)
601269e4:	6c01      	li	a0,1
601269e6:	ea40      	jalr	v0
601269e8:	6dc8      	li	a1,200
601269ea:	5200      	slti	v0,0
                                                         200, clear_smart_response_deal);
//#endif
                    if(clear_smart_timer_id < 0) {
601269ec:	c140      	sb	v0,0(s1)
601269ee:	6008      	bteqz	60126a00 <.LBB8+0x54>
601269f0:	b227      	lw	v0,60126a8c <.LBE4+0x66>
                        libc_print("timer fault", 0, 0);
601269f2:	0c17      	la	a0,60126a4c <.LBE4+0x26>
601269f4:	67b0      	move	a1,s0
601269f6:	67d0      	move	a2,s0
601269f8:	ea40      	jalr	v0
601269fa:	6f4b      	li	a3,75
601269fc:	b331      	lw	v1,60126ac0 <.LBE4+0x9a>
                        clear_smart_response();
601269fe:	ebc0      	jalrc	v1
60126a00:	b62c      	lw	a2,60126aac <.LBE4+0x86>
                    }

                }

                if(g_p_bt_stack_cur_info->dev_role == TWS_MASTER) {
60126a02:	9e80      	lw	a0,0(a2)
60126a04:	f020 a4fa 	lbu	a3,58(a0)
60126a08:	7701      	cmpi	a3,1
60126a0a:	6103      	btnez	60126a12 <.LBE9>

60126a0c <.LBB9>:
60126a0c:	b22f      	lw	v0,60126ac8 <.LBE4+0xa2>
                    set_btstack_linein_ext(2);
60126a0e:	ea40      	jalr	v0
60126a10:	6c02      	li	a0,2

60126a12 <.LBE9>:
60126a12:	b32d      	lw	v1,60126ac4 <.LBE4+0x9e>
                }
                linein_smart_mode(FALSE);
60126a14:	eb40      	jalr	v1
60126a16:	6c00      	li	a0,0

60126a18 <.LBE8>:
60126a18:	950a      	lw	a1,40(sp)
            }
            libc_sem_post(pri_msg->sem);
60126a1a:	b21f      	lw	v0,60126a94 <.LBE4+0x6e>
60126a1c:	9d82      	lw	a0,8(a1)
60126a1e:	6d00      	li	a1,0
60126a20:	67c5      	move	a2,a1
60126a22:	ea40      	jalr	v0
60126a24:	6f16      	li	a3,22

60126a26 <.LBE4>:
60126a26:	9204      	lw	v0,16(sp)
            break;
    }

    return app_ret;
}
60126a28:	6475      	restore	40,ra,s0-s1
60126a2a:	e8a0      	jrc	ra
60126a2c:	7440      	cmpi	a0,64
60126a2e:	7374      	cmpi	v1,116
60126a30:	735f      	cmpi	v1,95
60126a32:	6f74      	li	a3,116
60126a34:	3a70      	ld	v1,128(v0)
60126a36:	0000      	addiu	s0,sp,0
60126a38:	493c      	addiu	s1,60
60126a3a:	203e      	beqz	s0,60126ab8 <.LBE4+0x92>
60126a3c:	696c      	li	s1,108
60126a3e:	656e      	move	t3,a2
60126a40:	6e69      	li	a2,105
60126a42:	7420      	cmpi	a0,32
60126a44:	7377      	cmpi	v1,119
60126a46:	7120      	cmpi	s1,32
60126a48:	6975      	li	s1,117
60126a4a:	0074      	addiu	s0,sp,464
60126a4c:	6974      	li	s1,116
60126a4e:	656d      	move	t3,a1
60126a50:	2072      	beqz	s0,60126b36 <send_mmm_exit_cmd2+0xe>
60126a52:	6166      	btnez	60126b20 <send_exit_mmm_to_other+0x18>
60126a54:	6c75      	li	a0,117
60126a56:	0074      	addiu	s0,sp,464
60126a58:	963c      	lw	a2,240(sp)
60126a5a:	9fc1      	lw	a2,4(a3)
60126a5c:	95cc      	lw	a1,816(sp)
60126a5e:	9fc1      	lw	a2,4(a3)
60126a60:	6011      	bteqz	60126a84 <.LBE4+0x5e>
60126a62:	bfc2      	lwu	a2,8(a3)
60126a64:	6015      	bteqz	60126a90 <.LBE4+0x6a>
60126a66:	bfc2      	lwu	a2,8(a3)
60126a68:	6b59      	li	v1,89
60126a6a:	600a      	bteqz	60126a80 <.LBE4+0x5a>
60126a6c:	68b1      	li	s0,177
60126a6e:	600a      	bteqz	60126a84 <.LBE4+0x5e>
60126a70:	962c      	lw	a2,176(sp)
60126a72:	9fc1      	lw	a2,4(a3)
60126a74:	6abd      	li	v0,189
60126a76:	600e      	bteqz	60126a94 <.LBE4+0x6e>
60126a78:	6b85      	li	v1,133
60126a7a:	6012      	bteqz	60126aa0 <.LBE4+0x7a>
60126a7c:	a094      	lbu	a0,20(s0)
60126a7e:	9fc1      	lw	a2,4(a3)
60126a80:	9628      	lw	a2,160(sp)
60126a82:	9fc1      	lw	a2,4(a3)
60126a84:	9624      	lw	a2,144(sp)
60126a86:	9fc1      	lw	a2,4(a3)
60126a88:	6b49      	li	v1,73
60126a8a:	6012      	bteqz	60126ab0 <.LBE4+0x8a>
60126a8c:	6009      	bteqz	60126aa0 <.LBE4+0x7a>
60126a8e:	bfc2      	lwu	a2,8(a3)
60126a90:	6b21      	li	v1,33
60126a92:	600a      	bteqz	60126aa8 <.LBE4+0x82>
60126a94:	6005      	bteqz	60126aa0 <.LBE4+0x7a>
60126a96:	bfc2      	lwu	a2,8(a3)
60126a98:	9594      	lw	a1,592(sp)
60126a9a:	9fc1      	lw	a2,4(a3)
60126a9c:	95a4      	lw	a1,656(sp)
60126a9e:	9fc1      	lw	a2,4(a3)
60126aa0:	6c85      	li	a0,133
60126aa2:	60a2      	bteqz	601269e8 <.LBB8+0x3c>
60126aa4:	6c19      	li	a0,25
60126aa6:	600a      	bteqz	60126abc <.LBE4+0x96>
60126aa8:	6881      	li	s0,129
60126aaa:	600a      	bteqz	60126ac0 <.LBE4+0x9a>
60126aac:	961c      	lw	a2,112(sp)
60126aae:	9fc1      	lw	a2,4(a3)
60126ab0:	960c      	lw	a2,48(sp)
60126ab2:	9fc1      	lw	a2,4(a3)
60126ab4:	6bc9      	li	v1,201
60126ab6:	600e      	bteqz	60126ad4 <.LBE4+0xae>
60126ab8:	69dd      	li	s1,221
60126aba:	600a      	bteqz	60126ad0 <.LBE4+0xaa>
60126abc:	6d31      	li	a1,49
60126abe:	600e      	bteqz	60126adc <.LBE4+0xb6>
60126ac0:	6b7d      	li	v1,125
60126ac2:	600a      	bteqz	60126ad8 <.LBE4+0xb2>
60126ac4:	69fd      	li	s1,253
60126ac6:	600a      	bteqz	60126adc <.LBE4+0xb6>
60126ac8:	6ae9      	li	v0,233
60126aca:	6012      	bteqz	60126af0 <set_btstack_linein_ext+0x8>
60126acc:	68ad      	li	s0,173
60126ace:	60aa      	bteqz	60126a24 <.LBE8+0xc>
60126ad0:	68bd      	li	s0,189
60126ad2:	60a6      	bteqz	60126a20 <.LBE8+0x8>
60126ad4:	9584      	lw	a1,528(sp)
60126ad6:	9fc1      	lw	a2,4(a3)
60126ad8:	6c0d      	li	a0,13
60126ada:	60a2      	bteqz	60126a20 <.LBE8+0x8>
60126adc:	9640      	lw	a2,256(sp)
60126ade:	9fc1      	lw	a2,4(a3)
60126ae0:	6be5      	li	v1,229
60126ae2:	600a      	bteqz	60126af8 <set_btstack_linein_ext+0x10>
60126ae4:	6afd      	li	v0,253
60126ae6:	60a2      	bteqz	60126a2c <.LBE4+0x6>

60126ae8 <set_btstack_linein_ext>:
60126ae8:	64c4      	save	32,ra
60126aea:	677d      	move	v1,sp
60126aec:	c394      	sb	a0,20(v1)
60126aee:	f0a1 6d10 	li	a1,2224
60126af2:	6c00      	li	a0,0
60126af4:	b204      	lw	v0,60126b04 <set_btstack_linein_ext+0x1c>
60126af6:	d504      	sw	a1,16(sp)
60126af8:	67c4      	move	a2,a0
60126afa:	0504      	addiu	a1,sp,16
60126afc:	ea40      	jalr	v0
60126afe:	67e4      	move	a3,a0
60126b00:	6444      	restore	32,ra
60126b02:	e8a0      	jrc	ra
60126b04:	6ce9      	li	a0,233
60126b06:	60a2      	bteqz	60126a4c <.LBE4+0x26>

60126b08 <send_exit_mmm_to_other>:
60126b08:	64c4      	save	32,ra
60126b0a:	67bd      	move	a1,sp
60126b0c:	c594      	sb	a0,20(a1)
60126b0e:	f001 6b14 	li	v1,2068
60126b12:	6c00      	li	a0,0
60126b14:	b204      	lw	v0,60126b24 <send_exit_mmm_to_other+0x1c>
60126b16:	d304      	sw	v1,16(sp)
60126b18:	0504      	addiu	a1,sp,16
60126b1a:	67c4      	move	a2,a0
60126b1c:	ea40      	jalr	v0
60126b1e:	67e4      	move	a3,a0
60126b20:	6444      	restore	32,ra
60126b22:	e8a0      	jrc	ra
60126b24:	6ce9      	li	a0,233
60126b26:	60a2      	bteqz	60126a6c <.LBE4+0x46>

60126b28 <send_mmm_exit_cmd2>:
60126b28:	64e3      	save	24,ra,s0

void send_mmm_exit_cmd2(uint8 op)
{
60126b2a:	b006      	lw	s0,60126b40 <send_mmm_exit_cmd2+0x18>
    if(send_once_cmd == 0) {
60126b2c:	ec11      	zeb	a0
60126b2e:	a040      	lbu	v0,0(s0)
60126b30:	2a05      	bnez	v0,60126b3c <send_mmm_exit_cmd2+0x14>
60126b32:	b205      	lw	v0,60126b44 <send_mmm_exit_cmd2+0x1c>
        send_exit_mmm_to_other(op);
60126b34:	eac0      	jalrc	v0
60126b36:	a080      	lbu	a0,0(s0)
        send_once_cmd++;
60126b38:	4461      	addiu	v1,a0,1
60126b3a:	c060      	sb	v1,0(s0)
60126b3c:	6463      	restore	24,ra,s0
    }
}
60126b3e:	e8a0      	jrc	ra
60126b40:	95cb      	lw	a1,812(sp)
60126b42:	9fc1      	lw	a2,4(a3)
60126b44:	6b09      	li	v1,9
60126b46:	6012      	bteqz	60126b6c <send_tts_stop_cmd+0x24>

60126b48 <send_tts_stop_cmd>:
60126b48:	64e3      	save	24,ra,s0

void send_tts_stop_cmd(void)
{
60126b4a:	b30b      	lw	v1,60126b74 <send_tts_stop_cmd+0x2c>
    //tts播报结束 清除丢数标志
    if(g_app_info_state_all.g_send_exit_mmm_tts == 1) {
60126b4c:	a345      	lbu	v0,5(v1)
60126b4e:	7201      	cmpi	v0,1
60126b50:	610d      	btnez	60126b6c <send_tts_stop_cmd+0x24>
60126b52:	6d00      	li	a1,0
        g_app_info_state_all.g_send_exit_mmm_tts = 0;
        libc_print("G5", 0, 0);
60126b54:	6800      	li	s0,0
60126b56:	b209      	lw	v0,60126b78 <send_tts_stop_cmd+0x30>
60126b58:	c305      	sb	s0,5(v1)
60126b5a:	0c06      	la	a0,60126b70 <send_tts_stop_cmd+0x28>
60126b5c:	67c5      	move	a2,a1
60126b5e:	ea40      	jalr	v0
60126b60:	6f4b      	li	a3,75
60126b62:	b207      	lw	v0,60126b7c <send_tts_stop_cmd+0x34>
        send_mmm_exit_cmd2(3);
60126b64:	ea40      	jalr	v0
60126b66:	6c03      	li	a0,3
60126b68:	b306      	lw	v1,60126b80 <send_tts_stop_cmd+0x38>
        send_once_cmd = 0;
60126b6a:	c300      	sb	s0,0(v1)
60126b6c:	6463      	restore	24,ra,s0
    }

}
60126b6e:	e8a0      	jrc	ra
60126b70:	3547      	sra	a1,v0,1
60126b72:	0000      	addiu	s0,sp,0
60126b74:	a094      	lbu	a0,20(s0)
60126b76:	9fc1      	lw	a2,4(a3)
60126b78:	6009      	bteqz	60126b8c <send_tts_start_cmd+0x8>
60126b7a:	bfc2      	lwu	a2,8(a3)
60126b7c:	6b29      	li	v1,41
60126b7e:	6012      	bteqz	60126ba4 <send_tts_start_cmd+0x20>
60126b80:	95cb      	lw	a1,812(sp)
60126b82:	9fc1      	lw	a2,4(a3)

60126b84 <send_tts_start_cmd>:
60126b84:	64c3      	save	24,ra

void send_tts_start_cmd(void)
{
60126b86:	b30b      	lw	v1,60126bb0 <send_tts_start_cmd+0x2c>
    if(g_app_info_state_all.g_send_exit_mmm_tts == 1) {
60126b88:	a345      	lbu	v0,5(v1)
60126b8a:	7201      	cmpi	v0,1
60126b8c:	610c      	btnez	60126ba6 <send_tts_start_cmd+0x22>
60126b8e:	6d00      	li	a1,0
        //g_app_info_state_all.g_send_exit_mmm_tts= 0;
        libc_print("G2", 0, 0);
60126b90:	b209      	lw	v0,60126bb4 <send_tts_start_cmd+0x30>
60126b92:	67c5      	move	a2,a1
60126b94:	0c06      	la	a0,60126bac <send_tts_start_cmd+0x28>
60126b96:	ea40      	jalr	v0
60126b98:	6f4b      	li	a3,75
60126b9a:	b208      	lw	v0,60126bb8 <send_tts_start_cmd+0x34>
        send_mmm_exit_cmd2(2);
60126b9c:	ea40      	jalr	v0
60126b9e:	6c02      	li	a0,2
60126ba0:	b407      	lw	a0,60126bbc <send_tts_start_cmd+0x38>
        send_once_cmd = 0;
60126ba2:	6d00      	li	a1,0
60126ba4:	c4a0      	sb	a1,0(a0)
60126ba6:	6443      	restore	24,ra
    }

}
60126ba8:	e8a0      	jrc	ra
60126baa:	0000      	addiu	s0,sp,0
60126bac:	3247      	sra	v0,1
60126bae:	0000      	addiu	s0,sp,0
60126bb0:	a094      	lbu	a0,20(s0)
60126bb2:	9fc1      	lw	a2,4(a3)
60126bb4:	6009      	bteqz	60126bc8 <send_tts_start_cmd+0x44>
60126bb6:	bfc2      	lwu	a2,8(a3)
60126bb8:	6b29      	li	v1,41
60126bba:	6012      	bteqz	60126be0 <send_tts_start_cmd+0x5c>
60126bbc:	95cb      	lw	a1,812(sp)
60126bbe:	9fc1      	lw	a2,4(a3)
Disassembly of section BANK_CONTROL_1_40:

60a26800 <get_engine_type_by_appid>:
60a26800:	b609      	lw	a2,60a26824 <get_engine_type_by_appid+0x24>
60a26802:	ec11      	zeb	a0
60a26804:	6d00      	li	a1,0
60a26806:	37a4      	sll	a3,a1,1
60a26808:	e7cd      	addu	v1,a3,a2
60a2680a:	a340      	lbu	v0,0(v1)
60a2680c:	ea8e      	xor	v0,a0
60a2680e:	2a02      	bnez	v0,60a26814 <get_engine_type_by_appid+0x14>
60a26810:	e820      	jr	ra
60a26812:	a341      	lbu	v0,1(v1)
60a26814:	4561      	addiu	v1,a1,1
60a26816:	67a3      	move	a1,v1
60a26818:	ed11      	zeb	a1
60a2681a:	5d06      	sltiu	a1,6
60a2681c:	61f4      	btnez	60a26806 <get_engine_type_by_appid+0x6>
60a2681e:	e820      	jr	ra
60a26820:	6a00      	li	v0,0
60a26822:	0000      	addiu	s0,sp,0
60a26824:	6854      	li	s0,84
60a26826:	60a2      	bteqz	60a2676c <send_tts_start_cmd+0x8ffbe8>

60a26828 <get_engine_appid_by_type>:
60a26828:	ec11      	zeb	a0
60a2682a:	6a1b      	li	v0,27
60a2682c:	2c03      	bnez	a0,60a26834 <get_engine_appid_by_type+0xc>
60a2682e:	100f      	b	60a2684e <get_engine_appid_by_type+0x26>
60a26830:	e820      	jr	ra
60a26832:	a340      	lbu	v0,0(v1)
60a26834:	b607      	lw	a2,60a26850 <get_engine_appid_by_type+0x28>
60a26836:	6d00      	li	a1,0
60a26838:	37a4      	sll	a3,a1,1
60a2683a:	e7cd      	addu	v1,a3,a2
60a2683c:	a341      	lbu	v0,1(v1)
60a2683e:	ea8e      	xor	v0,a0
60a26840:	22f7      	beqz	v0,60a26830 <get_engine_appid_by_type+0x8>
60a26842:	4561      	addiu	v1,a1,1
60a26844:	67a3      	move	a1,v1
60a26846:	ed11      	zeb	a1
60a26848:	5d06      	sltiu	a1,6
60a2684a:	61f6      	btnez	60a26838 <get_engine_appid_by_type+0x10>
60a2684c:	6a1b      	li	v0,27
60a2684e:	e8a0      	jrc	ra
60a26850:	6854      	li	s0,84
60a26852:	60a2      	bteqz	60a26798 <send_tts_start_cmd+0x8ffc14>

60a26854 <applib_app2eg_type>:
60a26854:	010e 0212 030f 0410 0511 0613               ............

60a26860 <applib_init>:
60a26860:	64f5      	save	40,ra,s0-s1
60a26862:	ec11      	zeb	a0
60a26864:	6705      	move	s0,a1
60a26866:	5c1b      	sltiu	a0,27
60a26868:	d404      	sw	a0,16(sp)
60a2686a:	e811      	zeb	s0
60a2686c:	6a00      	li	v0,0
60a2686e:	6056      	bteqz	60a2691c <applib_init+0xbc>
60a26870:	6b01      	li	v1,1
60a26872:	eb0e      	xor	v1,s0
60a26874:	5b01      	sltiu	v1,1
60a26876:	6758      	move	v0,t8
60a26878:	d205      	sw	v0,20(sp)
60a2687a:	220a      	beqz	v0,60a26890 <applib_init+0x30>
60a2687c:	b12d      	lw	s1,60a26930 <applib_init+0xd0>
60a2687e:	6c0a      	li	a0,10
60a26880:	6d07      	li	a1,7
60a26882:	6e00      	li	a2,0
60a26884:	e940      	jalr	s1
60a26886:	6f03      	li	a3,3
60a26888:	b42b      	lw	a0,60a26934 <applib_init+0xd4>
60a2688a:	6d00      	li	a1,0
60a2688c:	c4a3      	sb	a1,3(a0)
60a2688e:	1008      	b	60a268a0 <applib_init+0x40>
60a26890:	7002      	cmpi	s0,2
60a26892:	6106      	btnez	60a268a0 <applib_init+0x40>
60a26894:	b227      	lw	v0,60a26930 <applib_init+0xd0>
60a26896:	6c06      	li	a0,6
60a26898:	6d02      	li	a1,2
60a2689a:	6e00      	li	a2,0
60a2689c:	ea40      	jalr	v0
60a2689e:	6f03      	li	a3,3
60a268a0:	b426      	lw	a0,60a26938 <applib_init+0xd8>
60a268a2:	3308      	sll	v1,s0,2
60a268a4:	e385      	addu	s1,v1,a0
60a268a6:	b226      	lw	v0,60a2693c <applib_init+0xdc>
60a268a8:	6c00      	li	a0,0
60a268aa:	67a4      	move	a1,a0
60a268ac:	67c4      	move	a2,a0
60a268ae:	ea40      	jalr	v0
60a268b0:	6f33      	li	a3,51
60a268b2:	b224      	lw	v0,60a26940 <applib_init+0xe0>
60a268b4:	6e04      	li	a2,4
60a268b6:	6f01      	li	a3,1
60a268b8:	6791      	move	a0,s1
60a268ba:	ea40      	jalr	v0
60a268bc:	6d00      	li	a1,0
60a268be:	6a01      	li	v0,1
60a268c0:	c140      	sb	v0,0(s1)
60a268c2:	67fd      	move	a3,sp
60a268c4:	a7d0      	lbu	a2,16(a3)
60a268c6:	c102      	sb	s0,2(s1)
60a268c8:	c1c1      	sb	a2,1(s1)
60a268ca:	2802      	bnez	s0,60a268d0 <applib_init+0x70>
60a268cc:	c103      	sb	s0,3(s1)
60a268ce:	1012      	b	60a268f4 <applib_init+0x94>
60a268d0:	7003      	cmpi	s0,3
60a268d2:	6103      	btnez	60a268da <applib_init+0x7a>
60a268d4:	6803      	li	s0,3
60a268d6:	c103      	sb	s0,3(s1)
60a268d8:	100d      	b	60a268f4 <applib_init+0x94>
60a268da:	9505      	lw	a1,20(sp)
60a268dc:	b016      	lw	s0,60a26934 <applib_init+0xd4>
60a268de:	2504      	beqz	a1,60a268e8 <applib_init+0x88>
60a268e0:	6e00      	li	a2,0
60a268e2:	c143      	sb	v0,3(s1)
60a268e4:	c0c2      	sb	a2,2(s0)
60a268e6:	1006      	b	60a268f4 <applib_init+0x94>
60a268e8:	6f02      	li	a3,2
60a268ea:	c1e3      	sb	a3,3(s1)
60a268ec:	b216      	lw	v0,60a26944 <applib_init+0xe4>
60a268ee:	ea40      	jalr	v0
60a268f0:	9404      	lw	a0,16(sp)
60a268f2:	c040      	sb	v0,0(s0)
60a268f4:	6c00      	li	a0,0
60a268f6:	b012      	lw	s0,60a2693c <applib_init+0xdc>
60a268f8:	67a4      	move	a1,a0
60a268fa:	67c4      	move	a2,a0
60a268fc:	e840      	jalr	s0
60a268fe:	6f34      	li	a3,52
60a26900:	b412      	lw	a0,60a26948 <applib_init+0xe8>
60a26902:	b210      	lw	v0,60a26940 <applib_init+0xe0>
60a26904:	dc20      	sw	s1,0(a0)
60a26906:	b412      	lw	a0,60a2694c <applib_init+0xec>
60a26908:	6d01      	li	a1,1
60a2690a:	6e00      	li	a2,0
60a2690c:	ea40      	jalr	v0
60a2690e:	6f12      	li	a3,18
60a26910:	9504      	lw	a1,16(sp)
60a26912:	0c04      	la	a0,60a26920 <applib_init+0xc0>
60a26914:	6e02      	li	a2,2
60a26916:	e840      	jalr	s0
60a26918:	6f4b      	li	a3,75
60a2691a:	6a01      	li	v0,1
60a2691c:	6475      	restore	40,ra,s0-s1
60a2691e:	e8a0      	jrc	ra
60a26920:	493c      	addiu	s1,60
60a26922:	203e      	beqz	s0,60a269a0 <.LBE2+0x14>
60a26924:	7061      	cmpi	s0,97
60a26926:	2070      	beqz	s0,60a26a08 <.LBE2+0x7c>
60a26928:	6e69      	li	a2,105
60a2692a:	7469      	cmpi	a0,105
60a2692c:	003a      	addiu	s0,sp,232
60a2692e:	0000      	addiu	s0,sp,0
60a26930:	6011      	bteqz	60a26954 <applib_quit+0x4>
60a26932:	bfc2      	lwu	a2,8(a3)
60a26934:	a094      	lbu	a0,20(s0)
60a26936:	9fc1      	lw	a2,4(a3)
60a26938:	a080      	lbu	a0,0(s0)
60a2693a:	9fc1      	lw	a2,4(a3)
60a2693c:	6009      	bteqz	60a26950 <applib_quit>
60a2693e:	bfc2      	lwu	a2,8(a3)
60a26940:	6005      	bteqz	60a2694c <applib_init+0xec>
60a26942:	bfc2      	lwu	a2,8(a3)
60a26944:	6801      	li	s0,1
60a26946:	60a2      	bteqz	60a2688c <applib_init+0x2c>
60a26948:	959c      	lw	a1,624(sp)
60a2694a:	9fc1      	lw	a2,4(a3)
60a2694c:	95a0      	lw	a1,640(sp)
60a2694e:	9fc1      	lw	a2,4(a3)

60a26950 <applib_quit>:
60a26950:	64f5      	save	40,ra,s0-s1
60a26952:	b02f      	lw	s0,60a26a0c <.LBE2+0x80>
60a26954:	b12f      	lw	s1,60a26a10 <.LBE2+0x84>
60a26956:	9860      	lw	v1,0(s0)
60a26958:	0c29      	la	a0,60a269fc <.LBE2+0x70>
60a2695a:	a3a1      	lbu	a1,1(v1)
60a2695c:	6e02      	li	a2,2
60a2695e:	e940      	jalr	s1
60a26960:	6f4b      	li	a3,75
60a26962:	6d00      	li	a1,0
60a26964:	b42c      	lw	a0,60a26a14 <.LBE2+0x88>
60a26966:	b12d      	lw	s1,60a26a18 <.LBE2+0x8c>
60a26968:	67c5      	move	a2,a1
60a2696a:	e940      	jalr	s1
60a2696c:	6f13      	li	a3,19
60a2696e:	98a0      	lw	a1,0(s0)
60a26970:	a542      	lbu	v0,2(a1)
60a26972:	7202      	cmpi	v0,2
60a26974:	6104      	btnez	60a2697e <applib_quit+0x2e>
60a26976:	b42a      	lw	a0,60a26a1c <.LBE2+0x90>
60a26978:	6e00      	li	a2,0
60a2697a:	c4c0      	sb	a2,0(a0)
60a2697c:	c4c1      	sb	a2,1(a0)
60a2697e:	0404      	addiu	a0,sp,16
60a26980:	6f00      	li	a3,0
60a26982:	e940      	jalr	s1
60a26984:	6e04      	li	a2,4
60a26986:	67fd      	move	a3,sp
60a26988:	6a1b      	li	v0,27

60a2698a <.LBB2>:
60a2698a:	98a0      	lw	a1,0(s0)

60a2698c <.LBE2>:
60a2698c:	c751      	sb	v0,17(a3)
60a2698e:	a581      	lbu	a0,1(a1)
60a26990:	6b00      	li	v1,0
60a26992:	5c1b      	sltiu	a0,27
60a26994:	c770      	sb	v1,16(a3)
60a26996:	6020      	bteqz	60a269d8 <.LBE2+0x4c>
60a26998:	b522      	lw	a1,60a26a20 <.LBE2+0x94>
60a2699a:	6b00      	li	v1,0
60a2699c:	3668      	sll	a2,v1,2
60a2699e:	e6a5      	addu	s1,a2,a1
60a269a0:	a100      	lbu	s0,0(s1)
60a269a2:	7001      	cmpi	s0,1
60a269a4:	6103      	btnez	60a269ac <.LBE2+0x20>
60a269a6:	a1e1      	lbu	a3,1(s1)
60a269a8:	ef8e      	xor	a3,a0
60a269aa:	2705      	beqz	a3,60a269b6 <.LBE2+0x2a>
60a269ac:	4341      	addiu	v0,v1,1
60a269ae:	6762      	move	v1,v0
60a269b0:	eb11      	zeb	v1
60a269b2:	5b04      	sltiu	v1,4
60a269b4:	61f3      	btnez	60a2699c <.LBE2+0x10>
60a269b6:	6c00      	li	a0,0
60a269b8:	b016      	lw	s0,60a26a10 <.LBE2+0x84>
60a269ba:	67a4      	move	a1,a0
60a269bc:	67c4      	move	a2,a0
60a269be:	e840      	jalr	s0
60a269c0:	6f33      	li	a3,51
60a269c2:	b216      	lw	v0,60a26a18 <.LBE2+0x8c>
60a269c4:	6791      	move	a0,s1
60a269c6:	0504      	addiu	a1,sp,16
60a269c8:	6e04      	li	a2,4
60a269ca:	ea40      	jalr	v0
60a269cc:	6f00      	li	a3,0
60a269ce:	6c00      	li	a0,0
60a269d0:	67a4      	move	a1,a0
60a269d2:	67c4      	move	a2,a0
60a269d4:	e840      	jalr	s0
60a269d6:	6f34      	li	a3,52
60a269d8:	b50d      	lw	a1,60a26a0c <.LBE2+0x80>
60a269da:	9d80      	lw	a0,0(a1)
60a269dc:	a442      	lbu	v0,2(a0)
60a269de:	6c0a      	li	a0,10
60a269e0:	7201      	cmpi	v0,1
60a269e2:	6003      	bteqz	60a269ea <.LBE2+0x5e>
60a269e4:	7202      	cmpi	v0,2
60a269e6:	6106      	btnez	60a269f4 <.LBE2+0x68>
60a269e8:	6c06      	li	a0,6
60a269ea:	6d00      	li	a1,0
60a269ec:	b20e      	lw	v0,60a26a24 <.LBE2+0x98>
60a269ee:	67c5      	move	a2,a1
60a269f0:	ea40      	jalr	v0
60a269f2:	6f03      	li	a3,3
60a269f4:	6a01      	li	v0,1
60a269f6:	6475      	restore	40,ra,s0-s1
60a269f8:	e8a0      	jrc	ra
60a269fa:	0000      	addiu	s0,sp,0
60a269fc:	493c      	addiu	s1,60
60a269fe:	203e      	beqz	s0,60a26a7c <__set_timer+0x54>
60a26a00:	7061      	cmpi	s0,97
60a26a02:	2070      	beqz	s0,60a26ae4 <__set_timer+0xbc>
60a26a04:	7571      	cmpi	a1,113
60a26a06:	7469      	cmpi	a0,105
60a26a08:	003a      	addiu	s0,sp,232
60a26a0a:	0000      	addiu	s0,sp,0
60a26a0c:	959c      	lw	a1,624(sp)
60a26a0e:	9fc1      	lw	a2,4(a3)
60a26a10:	6009      	bteqz	60a26a24 <.LBE2+0x98>
60a26a12:	bfc2      	lwu	a2,8(a3)
60a26a14:	95a0      	lw	a1,640(sp)
60a26a16:	9fc1      	lw	a2,4(a3)
60a26a18:	6005      	bteqz	60a26a24 <.LBE2+0x98>
60a26a1a:	bfc2      	lwu	a2,8(a3)
60a26a1c:	a094      	lbu	a0,20(s0)
60a26a1e:	9fc1      	lw	a2,4(a3)
60a26a20:	a080      	lbu	a0,0(s0)
60a26a22:	9fc1      	lw	a2,4(a3)
60a26a24:	6011      	bteqz	60a26a48 <__set_timer+0x20>
60a26a26:	bfc2      	lwu	a2,8(a3)

60a26a28 <__set_timer>:
60a26a28:	64f7      	save	56,ra,s0-s1
60a26a2a:	ec11      	zeb	a0
60a26a2c:	d404      	sw	a0,16(sp)
60a26a2e:	9312      	lw	v1,72(sp)
60a26a30:	6c01      	li	a0,1
60a26a32:	ea8b      	neg	v0,a0
60a26a34:	ed11      	zeb	a1
60a26a36:	d505      	sw	a1,20(sp)
60a26a38:	d606      	sw	a2,24(sp)
60a26a3a:	d707      	sw	a3,28(sp)
60a26a3c:	d208      	sw	v0,32(sp)
60a26a3e:	651a      	move	t8,v0
60a26a40:	2346      	beqz	v1,60a26ace <__set_timer+0xa6>
60a26a42:	2f28      	bnez	a3,60a26a94 <__set_timer+0x6c>
60a26a44:	1044      	b	60a26ace <__set_timer+0xa6>
60a26a46:	67fd      	move	a3,sp
60a26a48:	af8e      	lhu	a0,28(a3)
60a26a4a:	b22c      	lw	v0,60a26af8 <__set_timer+0xd0>
60a26a4c:	67a6      	move	a1,a2
60a26a4e:	d308      	sw	v1,32(sp)
60a26a50:	c882      	sh	a0,4(s0)
60a26a52:	6f1c      	li	a3,28
60a26a54:	ea40      	jalr	v0
60a26a56:	6786      	move	a0,a2
60a26a58:	9307      	lw	v1,28(sp)
60a26a5a:	9712      	lw	a3,72(sp)
60a26a5c:	e275      	addu	a1,v0,v1
60a26a5e:	d8e3      	sw	a3,12(s0)
60a26a60:	6a04      	li	v0,4
60a26a62:	a0e0      	lbu	a3,0(s0)
60a26a64:	9604      	lw	a2,16(sp)
60a26a66:	ec4b      	neg	a0,v0
60a26a68:	ef8c      	and	a3,a0
60a26a6a:	d8a2      	sw	a1,8(s0)
60a26a6c:	6c01      	li	a0,1
60a26a6e:	6d0d      	li	a1,13
60a26a70:	ebab      	neg	v1,a1
60a26a72:	ef8d      	or	a3,a0
60a26a74:	e9cc      	and	s1,a2
60a26a76:	9605      	lw	a2,20(sp)
60a26a78:	3228      	sll	v0,s1,2
60a26a7a:	ef6c      	and	a3,v1
60a26a7c:	6d11      	li	a1,17
60a26a7e:	ef4d      	or	a3,v0
60a26a80:	eccc      	and	a0,a2
60a26a82:	ebab      	neg	v1,a1
60a26a84:	3290      	sll	v0,a0,4
60a26a86:	ef6c      	and	a3,v1
60a26a88:	ef4d      	or	a3,v0
60a26a8a:	c0e0      	sb	a3,0(s0)
60a26a8c:	67dd      	move	a2,sp
60a26a8e:	a6b8      	lbu	a1,24(a2)
60a26a90:	c0a1      	sb	a1,1(s0)
60a26a92:	1012      	b	60a26ab8 <__set_timer+0x90>
60a26a94:	b617      	lw	a2,60a26af0 <__set_timer+0xc8>
60a26a96:	6b00      	li	v1,0
60a26a98:	a680      	lbu	a0,0(a2)
60a26a9a:	240e      	beqz	a0,60a26ab8 <__set_timer+0x90>
60a26a9c:	b516      	lw	a1,60a26af4 <__set_timer+0xcc>
60a26a9e:	6903      	li	s1,3
60a26aa0:	9d00      	lw	s0,0(a1)
60a26aa2:	a0c0      	lbu	a2,0(s0)
60a26aa4:	ee2c      	and	a2,s1
60a26aa6:	26cf      	beqz	a2,60a26a46 <__set_timer+0x1e>
60a26aa8:	43e1      	addiu	a3,v1,1
60a26aaa:	6767      	move	v1,a3
60a26aac:	6744      	move	v0,a0
60a26aae:	eb91      	seb	v1
60a26ab0:	ea11      	zeb	v0
60a26ab2:	eb42      	slt	v1,v0
60a26ab4:	4810      	addiu	s0,16
60a26ab6:	61f5      	btnez	60a26aa2 <__set_timer+0x7a>
60a26ab8:	9308      	lw	v1,32(sp)
60a26aba:	ec6f      	not	a0,v1
60a26abc:	651b      	move	t8,v1
60a26abe:	2c07      	bnez	a0,60a26ace <__set_timer+0xa6>
60a26ac0:	6d00      	li	a1,0
60a26ac2:	b00e      	lw	s0,60a26af8 <__set_timer+0xd0>
60a26ac4:	0c04      	la	a0,60a26ad4 <__set_timer+0xac>
60a26ac6:	67c5      	move	a2,a1
60a26ac8:	e840      	jalr	s0
60a26aca:	6f4b      	li	a3,75
60a26acc:	17ff      	b	60a26acc <__set_timer+0xa4>
60a26ace:	6758      	move	v0,t8
60a26ad0:	6477      	restore	56,ra,s0-s1
60a26ad2:	e8a0      	jrc	ra
60a26ad4:	453c      	daddiu	s1,a1,-4
60a26ad6:	203e      	beqz	s0,60a26b54 <modify_app_timer+0x20>
60a26ad8:	6573      	move	s3,v1
60a26ada:	2074      	beqz	s0,60a26bc4 <restart_app_timer+0xc>
60a26adc:	7061      	cmpi	s0,97
60a26ade:	2070      	beqz	s0,60a26bc0 <restart_app_timer+0x8>
60a26ae0:	6974      	li	s1,116
60a26ae2:	656d      	move	t3,a1
60a26ae4:	2072      	beqz	s0,60a26bca <restart_app_timer+0x12>
60a26ae6:	6166      	btnez	60a26bb4 <stop_app_timer+0x34>
60a26ae8:	6c69      	li	a0,105
60a26aea:	2121      	beqz	s1,60a26b2e <set_single_shot_app_timer+0x16>
60a26aec:	0000      	addiu	s0,sp,0
60a26aee:	0000      	addiu	s0,sp,0
60a26af0:	95a4      	lw	a1,656(sp)
60a26af2:	9fc1      	lw	a2,4(a3)
60a26af4:	9594      	lw	a1,592(sp)
60a26af6:	9fc1      	lw	a2,4(a3)
60a26af8:	6009      	bteqz	60a26b0c <set_app_timer+0x10>
60a26afa:	bfc2      	lwu	a2,8(a3)

60a26afc <set_app_timer>:
60a26afc:	64c4      	save	32,ra
60a26afe:	3282      	srl	v0,a0,8
60a26b00:	d604      	sw	a2,16(sp)
60a26b02:	67e5      	move	a3,a1
60a26b04:	67c2      	move	a2,v0
60a26b06:	ef31      	zeh	a3
60a26b08:	ec11      	zeb	a0
60a26b0a:	6d00      	li	a1,0
60a26b0c:	1901 9a8a 	jal	60a26a28 <__set_timer>
60a26b10:	ee11      	zeb	a2
60a26b12:	6444      	restore	32,ra
60a26b14:	e8a0      	jrc	ra
	...

60a26b18 <set_single_shot_app_timer>:
60a26b18:	64c4      	save	32,ra
60a26b1a:	3282      	srl	v0,a0,8
60a26b1c:	d604      	sw	a2,16(sp)
60a26b1e:	67e5      	move	a3,a1
60a26b20:	67c2      	move	a2,v0
60a26b22:	ef31      	zeh	a3
60a26b24:	ec11      	zeb	a0
60a26b26:	6d01      	li	a1,1
60a26b28:	1901 9a8a 	jal	60a26a28 <__set_timer>
60a26b2c:	ee11      	zeb	a2
60a26b2e:	6444      	restore	32,ra
60a26b30:	e8a0      	jrc	ra
	...

60a26b34 <modify_app_timer>:
60a26b34:	64f4      	save	32,ra,s0-s1
60a26b36:	ec91      	seb	a0
60a26b38:	6705      	move	s0,a1
60a26b3a:	ea8f      	not	v0,a0
60a26b3c:	e831      	zeh	s0
60a26b3e:	2206      	beqz	v0,60a26b4c <modify_app_timer+0x18>
60a26b40:	b60d      	lw	a2,60a26b74 <modify_app_timer+0x40>
60a26b42:	67a4      	move	a1,a0
60a26b44:	a660      	lbu	v1,0(a2)
60a26b46:	ed11      	zeb	a1
60a26b48:	ed63      	sltu	a1,v1
60a26b4a:	6102      	btnez	60a26b50 <modify_app_timer+0x1c>
60a26b4c:	6a00      	li	v0,0
60a26b4e:	1010      	b	60a26b70 <modify_app_timer+0x3c>
60a26b50:	b10a      	lw	s1,60a26b78 <modify_app_timer+0x44>
60a26b52:	3790      	sll	a3,a0,4
60a26b54:	9980      	lw	a0,0(s1)
60a26b56:	6750      	move	v0,s0
60a26b58:	e4e5      	addu	s1,a0,a3
60a26b5a:	200a      	beqz	s0,60a26b70 <modify_app_timer+0x3c>
60a26b5c:	6c00      	li	a0,0
60a26b5e:	b208      	lw	v0,60a26b7c <modify_app_timer+0x48>
60a26b60:	c902      	sh	s0,4(s1)
60a26b62:	67a4      	move	a1,a0
60a26b64:	67c4      	move	a2,a0
60a26b66:	ea40      	jalr	v0
60a26b68:	6f1c      	li	a3,28
60a26b6a:	e209      	addu	v0,s0
60a26b6c:	d942      	sw	v0,8(s1)
60a26b6e:	6a01      	li	v0,1
60a26b70:	6474      	restore	32,ra,s0-s1
60a26b72:	e8a0      	jrc	ra
60a26b74:	95a4      	lw	a1,656(sp)
60a26b76:	9fc1      	lw	a2,4(a3)
60a26b78:	9594      	lw	a1,592(sp)
60a26b7a:	9fc1      	lw	a2,4(a3)
60a26b7c:	6009      	bteqz	60a26b90 <stop_app_timer+0x10>
60a26b7e:	bfc2      	lwu	a2,8(a3)

60a26b80 <stop_app_timer>:
60a26b80:	ec91      	seb	a0
60a26b82:	ea8f      	not	v0,a0
60a26b84:	2206      	beqz	v0,60a26b92 <stop_app_timer+0x12>
60a26b86:	b60b      	lw	a2,60a26bb0 <stop_app_timer+0x30>
60a26b88:	67a4      	move	a1,a0
60a26b8a:	a660      	lbu	v1,0(a2)
60a26b8c:	ed11      	zeb	a1
60a26b8e:	ed63      	sltu	a1,v1
60a26b90:	6102      	btnez	60a26b96 <stop_app_timer+0x16>
60a26b92:	e820      	jr	ra
60a26b94:	6a00      	li	v0,0
60a26b96:	3790      	sll	a3,a0,4
60a26b98:	b407      	lw	a0,60a26bb4 <stop_app_timer+0x34>
60a26b9a:	6d04      	li	a1,4
60a26b9c:	9cc0      	lw	a2,0(a0)
60a26b9e:	ebab      	neg	v1,a1
60a26ba0:	e6f1      	addu	a0,a2,a3
60a26ba2:	a4e0      	lbu	a3,0(a0)
60a26ba4:	4346      	addiu	v0,v1,6
60a26ba6:	ef6c      	and	a3,v1
60a26ba8:	ef4d      	or	a3,v0
60a26baa:	6a01      	li	v0,1
60a26bac:	e820      	jr	ra
60a26bae:	c4e0      	sb	a3,0(a0)
60a26bb0:	95a4      	lw	a1,656(sp)
60a26bb2:	9fc1      	lw	a2,4(a3)
60a26bb4:	9594      	lw	a1,592(sp)
60a26bb6:	9fc1      	lw	a2,4(a3)

60a26bb8 <restart_app_timer>:
60a26bb8:	64f4      	save	32,ra,s0-s1
60a26bba:	ec91      	seb	a0
60a26bbc:	ea8f      	not	v0,a0
60a26bbe:	2206      	beqz	v0,60a26bcc <restart_app_timer+0x14>
60a26bc0:	b610      	lw	a2,60a26c00 <restart_app_timer+0x48>
60a26bc2:	67a4      	move	a1,a0
60a26bc4:	a660      	lbu	v1,0(a2)
60a26bc6:	ed11      	zeb	a1
60a26bc8:	ed63      	sltu	a1,v1
60a26bca:	6102      	btnez	60a26bd0 <restart_app_timer+0x18>
60a26bcc:	6a00      	li	v0,0
60a26bce:	1015      	b	60a26bfa <restart_app_timer+0x42>
60a26bd0:	3690      	sll	a2,a0,4
60a26bd2:	b40d      	lw	a0,60a26c04 <restart_app_timer+0x4c>
60a26bd4:	6b04      	li	v1,4
60a26bd6:	9c00      	lw	s0,0(a0)
60a26bd8:	e96b      	neg	s1,v1
60a26bda:	e0c1      	addu	s0,a2
60a26bdc:	a0a0      	lbu	a1,0(s0)
60a26bde:	6c00      	li	a0,0
60a26be0:	ed2c      	and	a1,s1
60a26be2:	6901      	li	s1,1
60a26be4:	ed2d      	or	a1,s1
60a26be6:	b209      	lw	v0,60a26c08 <restart_app_timer+0x50>
60a26be8:	c0a0      	sb	a1,0(s0)
60a26bea:	67c4      	move	a2,a0
60a26bec:	67a4      	move	a1,a0
60a26bee:	ea40      	jalr	v0
60a26bf0:	6f1c      	li	a3,28
60a26bf2:	a8e2      	lhu	a3,4(s0)
60a26bf4:	e2f1      	addu	a0,v0,a3
60a26bf6:	d882      	sw	a0,8(s0)
60a26bf8:	6751      	move	v0,s1
60a26bfa:	6474      	restore	32,ra,s0-s1
60a26bfc:	e8a0      	jrc	ra
60a26bfe:	0000      	addiu	s0,sp,0
60a26c00:	95a4      	lw	a1,656(sp)
60a26c02:	9fc1      	lw	a2,4(a3)
60a26c04:	9594      	lw	a1,592(sp)
60a26c06:	9fc1      	lw	a2,4(a3)
60a26c08:	6009      	bteqz	60a26c1c <kill_app_timer+0x10>
60a26c0a:	bfc2      	lwu	a2,8(a3)

60a26c0c <kill_app_timer>:
60a26c0c:	ec91      	seb	a0
60a26c0e:	ea8f      	not	v0,a0
60a26c10:	2206      	beqz	v0,60a26c1e <kill_app_timer+0x12>
60a26c12:	b60a      	lw	a2,60a26c38 <kill_app_timer+0x2c>
60a26c14:	67a4      	move	a1,a0
60a26c16:	a660      	lbu	v1,0(a2)
60a26c18:	ed11      	zeb	a1
60a26c1a:	ed63      	sltu	a1,v1
60a26c1c:	6102      	btnez	60a26c22 <kill_app_timer+0x16>
60a26c1e:	e820      	jr	ra
60a26c20:	6a00      	li	v0,0
60a26c22:	b707      	lw	a3,60a26c3c <kill_app_timer+0x30>
60a26c24:	3690      	sll	a2,a0,4
60a26c26:	9f60      	lw	v1,0(a3)
60a26c28:	6d04      	li	a1,4
60a26c2a:	e3dd      	addu	a3,v1,a2
60a26c2c:	a740      	lbu	v0,0(a3)
60a26c2e:	ecab      	neg	a0,a1
60a26c30:	ea8c      	and	v0,a0
60a26c32:	c740      	sb	v0,0(a3)
60a26c34:	e820      	jr	ra
60a26c36:	6a01      	li	v0,1
60a26c38:	95a4      	lw	a1,656(sp)
60a26c3a:	9fc1      	lw	a2,4(a3)
60a26c3c:	9594      	lw	a1,592(sp)
60a26c3e:	9fc1      	lw	a2,4(a3)

60a26c40 <init_app_timers>:
60a26c40:	ed11      	zeb	a1
60a26c42:	6745      	move	v0,a1
60a26c44:	2518      	beqz	a1,60a26c76 <init_app_timers+0x36>
60a26c46:	b70d      	lw	a3,60a26c78 <init_app_timers+0x38>
60a26c48:	b60d      	lw	a2,60a26c7c <init_app_timers+0x3c>
60a26c4a:	df80      	sw	a0,0(a3)
60a26c4c:	c6a0      	sb	a1,0(a2)
60a26c4e:	6c00      	li	a0,0
60a26c50:	250e      	beqz	a1,60a26c6e <init_app_timers+0x2e>
60a26c52:	6d04      	li	a1,4
60a26c54:	edab      	neg	a1
60a26c56:	9f60      	lw	v1,0(a3)
60a26c58:	3290      	sll	v0,a0,4
60a26c5a:	e34d      	addu	v1,v0
60a26c5c:	a340      	lbu	v0,0(v1)
60a26c5e:	eaac      	and	v0,a1
60a26c60:	c340      	sb	v0,0(v1)
60a26c62:	4461      	addiu	v1,a0,1
60a26c64:	6783      	move	a0,v1
60a26c66:	a640      	lbu	v0,0(a2)
60a26c68:	ec11      	zeb	a0
60a26c6a:	ec43      	sltu	a0,v0
60a26c6c:	61f4      	btnez	60a26c56 <init_app_timers+0x16>
60a26c6e:	b405      	lw	a0,60a26c80 <init_app_timers+0x40>
60a26c70:	6e00      	li	a2,0
60a26c72:	c4c0      	sb	a2,0(a0)
60a26c74:	6a01      	li	v0,1
60a26c76:	e8a0      	jrc	ra
60a26c78:	9594      	lw	a1,592(sp)
60a26c7a:	9fc1      	lw	a2,4(a3)
60a26c7c:	95a4      	lw	a1,656(sp)
60a26c7e:	9fc1      	lw	a2,4(a3)
60a26c80:	9599      	lw	a1,612(sp)
60a26c82:	9fc1      	lw	a2,4(a3)

60a26c84 <standby_restart_all_app_timer>:
60a26c84:	f004 64f5 	save	a0,40,ra,s0-s1
60a26c88:	ed11      	zeb	a1
60a26c8a:	d504      	sw	a1,16(sp)
60a26c8c:	6900      	li	s1,0
60a26c8e:	2517      	beqz	a1,60a26cbe <standby_restart_all_app_timer+0x3a>
60a26c90:	950a      	lw	a1,40(sp)
60a26c92:	3430      	sll	a0,s1,4
60a26c94:	e581      	addu	s0,a1,a0
60a26c96:	a040      	lbu	v0,0(s0)
60a26c98:	6b03      	li	v1,3
60a26c9a:	ea6c      	and	v0,v1
60a26c9c:	7201      	cmpi	v0,1
60a26c9e:	6109      	btnez	60a26cb2 <standby_restart_all_app_timer+0x2e>
60a26ca0:	6c00      	li	a0,0
60a26ca2:	b209      	lw	v0,60a26cc4 <standby_restart_all_app_timer+0x40>
60a26ca4:	67c4      	move	a2,a0
60a26ca6:	6f1c      	li	a3,28
60a26ca8:	ea40      	jalr	v0
60a26caa:	67a4      	move	a1,a0
60a26cac:	a8e2      	lhu	a3,4(s0)
60a26cae:	e2f9      	addu	a2,v0,a3
60a26cb0:	d8c2      	sw	a2,8(s0)
60a26cb2:	4181      	addiu	a0,s1,1
60a26cb4:	6724      	move	s1,a0
60a26cb6:	9304      	lw	v1,16(sp)
60a26cb8:	e911      	zeb	s1
60a26cba:	e963      	sltu	s1,v1
60a26cbc:	61e9      	btnez	60a26c90 <standby_restart_all_app_timer+0xc>
60a26cbe:	6475      	restore	40,ra,s0-s1
60a26cc0:	e8a0      	jrc	ra
60a26cc2:	0000      	addiu	s0,sp,0
60a26cc4:	6009      	bteqz	60a26cd8 <applib_message_init+0x10>
60a26cc6:	bfc2      	lwu	a2,8(a3)

60a26cc8 <applib_message_init>:
60a26cc8:	64c3      	save	24,ra
60a26cca:	b406      	lw	a0,60a26ce0 <applib_message_init+0x18>
60a26ccc:	6d00      	li	a1,0
60a26cce:	9c60      	lw	v1,0(a0)
60a26cd0:	b205      	lw	v0,60a26ce4 <applib_message_init+0x1c>
60a26cd2:	a383      	lbu	a0,3(v1)
60a26cd4:	67c5      	move	a2,a1
60a26cd6:	ea40      	jalr	v0
60a26cd8:	6f1a      	li	a3,26
60a26cda:	6a01      	li	v0,1
60a26cdc:	6443      	restore	24,ra
60a26cde:	e8a0      	jrc	ra
60a26ce0:	959c      	lw	a1,624(sp)
60a26ce2:	9fc1      	lw	a2,4(a3)
60a26ce4:	6009      	bteqz	60a26cf8 <send_sync_msg_btmanager+0x10>
60a26ce6:	bfc2      	lwu	a2,8(a3)

60a26ce8 <send_sync_msg_btmanager>:
60a26ce8:	f00e 64f9 	save	a0-a3,72,ra,s0-s1
60a26cec:	b328      	lw	v1,60a26d8c <send_sync_msg_btmanager+0xa4>
60a26cee:	a34c      	lbu	v0,12(v1)
60a26cf0:	6900      	li	s1,0
60a26cf2:	6519      	move	t8,s1
60a26cf4:	2247      	beqz	v0,60a26d84 <send_sync_msg_btmanager+0x9c>
60a26cf6:	b527      	lw	a1,60a26d90 <send_sync_msg_btmanager+0xa8>
60a26cf8:	b027      	lw	s0,60a26d94 <send_sync_msg_btmanager+0xac>
60a26cfa:	9d80      	lw	a0,0(a1)
60a26cfc:	67d1      	move	a2,s1
60a26cfe:	67b1      	move	a1,s1
60a26d00:	e840      	jalr	s0
60a26d02:	6f14      	li	a3,20
60a26d04:	9513      	lw	a1,76(sp)
60a26d06:	0404      	addiu	a0,sp,16
60a26d08:	6e08      	li	a2,8
60a26d0a:	e840      	jalr	s0
60a26d0c:	67f1      	move	a3,s1
60a26d0e:	9212      	lw	v0,72(sp)
60a26d10:	f020 0402 	addiu	a0,sp,34
60a26d14:	2204      	beqz	v0,60a26d1e <send_sync_msg_btmanager+0x36>
60a26d16:	67a2      	move	a1,v0
60a26d18:	6e06      	li	a2,6
60a26d1a:	67f1      	move	a3,s1
60a26d1c:	1003      	b	60a26d24 <send_sync_msg_btmanager+0x3c>
60a26d1e:	67b1      	move	a1,s1
60a26d20:	6e06      	li	a2,6
60a26d22:	6f01      	li	a3,1
60a26d24:	e8c0      	jalrc	s0
60a26d26:	6d00      	li	a1,0
60a26d28:	b01b      	lw	s0,60a26d94 <send_sync_msg_btmanager+0xac>
60a26d2a:	040c      	addiu	a0,sp,48
60a26d2c:	67c5      	move	a2,a1
60a26d2e:	e840      	jalr	s0
60a26d30:	6f12      	li	a3,18
60a26d32:	960c      	lw	a2,48(sp)
60a26d34:	9414      	lw	a0,80(sp)
60a26d36:	d606      	sw	a2,24(sp)
60a26d38:	2c02      	bnez	a0,60a26d3e <send_sync_msg_btmanager+0x56>
60a26d3a:	020a      	addiu	v0,sp,40
60a26d3c:	1001      	b	60a26d40 <send_sync_msg_btmanager+0x58>
60a26d3e:	9214      	lw	v0,80(sp)
60a26d40:	d207      	sw	v0,28(sp)
60a26d42:	b216      	lw	v0,60a26d98 <send_sync_msg_btmanager+0xb0>
60a26d44:	6c03      	li	a0,3
60a26d46:	0504      	addiu	a1,sp,16
60a26d48:	6e00      	li	a2,0
60a26d4a:	ea40      	jalr	v0
60a26d4c:	6f18      	li	a3,24
60a26d4e:	5200      	slti	v0,0
60a26d50:	6002      	bteqz	60a26d56 <send_sync_msg_btmanager+0x6e>
60a26d52:	6902      	li	s1,2
60a26d54:	1009      	b	60a26d68 <send_sync_msg_btmanager+0x80>
60a26d56:	940c      	lw	a0,48(sp)
60a26d58:	9515      	lw	a1,84(sp)
60a26d5a:	b00f      	lw	s0,60a26d94 <send_sync_msg_btmanager+0xac>
60a26d5c:	6e00      	li	a2,0
60a26d5e:	e840      	jalr	s0
60a26d60:	6f14      	li	a3,20
60a26d62:	5200      	slti	v0,0
60a26d64:	6002      	bteqz	60a26d6a <send_sync_msg_btmanager+0x82>
60a26d66:	6904      	li	s1,4
60a26d68:	e92b      	neg	s1
60a26d6a:	6d00      	li	a1,0
60a26d6c:	b00a      	lw	s0,60a26d94 <send_sync_msg_btmanager+0xac>
60a26d6e:	67c5      	move	a2,a1
60a26d70:	040c      	addiu	a0,sp,48
60a26d72:	e840      	jalr	s0
60a26d74:	6f13      	li	a3,19
60a26d76:	b707      	lw	a3,60a26d90 <send_sync_msg_btmanager+0xa8>
60a26d78:	6d00      	li	a1,0
60a26d7a:	9f80      	lw	a0,0(a3)
60a26d7c:	67c5      	move	a2,a1
60a26d7e:	e840      	jalr	s0
60a26d80:	6f16      	li	a3,22
60a26d82:	6519      	move	t8,s1
60a26d84:	6758      	move	v0,t8
60a26d86:	6479      	restore	72,ra,s0-s1
60a26d88:	e8a0      	jrc	ra
60a26d8a:	0000      	addiu	s0,sp,0
60a26d8c:	a080      	lbu	a0,0(s0)
60a26d8e:	9fc1      	lw	a2,4(a3)
60a26d90:	95a0      	lw	a1,640(sp)
60a26d92:	9fc1      	lw	a2,4(a3)
60a26d94:	6005      	bteqz	60a26da0 <send_sync_msg_btmanager+0xb8>
60a26d96:	bfc2      	lwu	a2,8(a3)
60a26d98:	6009      	bteqz	60a26dac <send_sync_msg_btmanager+0xc4>
60a26d9a:	bfc2      	lwu	a2,8(a3)
Disassembly of section BANK_CONTROL_1_41:

60a66800 <com_open_config_file>:
60a66800:	64e5      	save	40,ra,s0
60a66802:	6d00      	li	a1,0
60a66804:	b011      	lw	s0,60a66848 <com_open_config_file+0x48>
60a66806:	67c5      	move	a2,a1
60a66808:	e840      	jalr	s0
60a6680a:	6f0d      	li	a3,13
60a6680c:	6782      	move	a0,v0
60a6680e:	b20e      	lw	v0,60a66844 <com_open_config_file+0x44>
60a66810:	6764      	move	v1,a0
60a66812:	da80      	sw	a0,0(v0)
60a66814:	2413      	beqz	a0,60a6683c <com_open_config_file+0x3c>
60a66816:	0504      	addiu	a1,sp,16
60a66818:	6e10      	li	a2,16
60a6681a:	e840      	jalr	s0
60a6681c:	6f11      	li	a3,17
60a6681e:	ec4f      	not	a0,v0
60a66820:	6b00      	li	v1,0
60a66822:	240c      	beqz	a0,60a6683c <com_open_config_file+0x3c>
60a66824:	677d      	move	v1,sp
60a66826:	a3b0      	lbu	a1,16(v1)
60a66828:	7563      	cmpi	a1,99
60a6682a:	6107      	btnez	60a6683a <com_open_config_file+0x3a>
60a6682c:	a3d1      	lbu	a2,17(v1)
60a6682e:	7666      	cmpi	a2,102
60a66830:	6104      	btnez	60a6683a <com_open_config_file+0x3a>
60a66832:	a3f2      	lbu	a3,18(v1)
60a66834:	6b01      	li	v1,1
60a66836:	7767      	cmpi	a3,103
60a66838:	6001      	bteqz	60a6683c <com_open_config_file+0x3c>
60a6683a:	6b00      	li	v1,0
60a6683c:	6743      	move	v0,v1
60a6683e:	6465      	restore	40,ra,s0
60a66840:	e8a0      	jrc	ra
60a66842:	0000      	addiu	s0,sp,0
60a66844:	a090      	lbu	a0,16(s0)
60a66846:	9fc1      	lw	a2,4(a3)
60a66848:	6009      	bteqz	60a6685c <com_get_config_struct+0x10>
60a6684a:	bfc2      	lwu	a2,8(a3)

60a6684c <com_get_config_struct>:
60a6684c:	f008 64f6 	save	a0-a1,48,ra,s0-s1
60a66850:	67a4      	move	a1,a0
60a66852:	ed31      	zeh	a1
60a66854:	b118      	lw	s1,60a668b4 <com_get_config_struct+0x68>
60a66856:	33ac      	sll	v1,a1,3
60a66858:	ee31      	zeh	a2
60a6685a:	d606      	sw	a2,24(sp)
60a6685c:	9980      	lw	a0,0(s1)
60a6685e:	67c3      	move	a2,v1
60a66860:	b016      	lw	s0,60a668b8 <com_get_config_struct+0x6c>
60a66862:	6d00      	li	a1,0
60a66864:	4e10      	addiu	a2,16
60a66866:	e840      	jalr	s0
60a66868:	6f0f      	li	a3,15
60a6686a:	ea4f      	not	v0
60a6686c:	6b00      	li	v1,0
60a6686e:	221f      	beqz	v0,60a668ae <com_get_config_struct+0x62>
60a66870:	9980      	lw	a0,0(s1)
60a66872:	0504      	addiu	a1,sp,16
60a66874:	6e08      	li	a2,8
60a66876:	e840      	jalr	s0
60a66878:	6f11      	li	a3,17
60a6687a:	ec4f      	not	a0,v0
60a6687c:	6b00      	li	v1,0
60a6687e:	2417      	beqz	a0,60a668ae <com_get_config_struct+0x62>
60a66880:	9604      	lw	a2,16(sp)
60a66882:	9980      	lw	a0,0(s1)
60a66884:	67a3      	move	a1,v1
60a66886:	e840      	jalr	s0
60a66888:	6f0f      	li	a3,15
60a6688a:	ee4f      	not	a2,v0
60a6688c:	6b00      	li	v1,0
60a6688e:	260f      	beqz	a2,60a668ae <com_get_config_struct+0x62>
60a66890:	9605      	lw	a2,20(sp)
60a66892:	9206      	lw	v0,24(sp)
60a66894:	9980      	lw	a0,0(s1)
60a66896:	eac3      	sltu	v0,a2
60a66898:	6003      	bteqz	60a668a0 <com_get_config_struct+0x54>
60a6689a:	950d      	lw	a1,52(sp)
60a6689c:	67c2      	move	a2,v0
60a6689e:	1001      	b	60a668a2 <com_get_config_struct+0x56>
60a668a0:	950d      	lw	a1,52(sp)
60a668a2:	e840      	jalr	s0
60a668a4:	6f11      	li	a3,17
60a668a6:	ef4f      	not	a3,v0
60a668a8:	6b00      	li	v1,0
60a668aa:	2701      	beqz	a3,60a668ae <com_get_config_struct+0x62>
60a668ac:	6b01      	li	v1,1
60a668ae:	6743      	move	v0,v1
60a668b0:	6476      	restore	48,ra,s0-s1
60a668b2:	e8a0      	jrc	ra
60a668b4:	a090      	lbu	a0,16(s0)
60a668b6:	9fc1      	lw	a2,4(a3)
60a668b8:	6009      	bteqz	60a668cc <com_get_config_default+0x10>
60a668ba:	bfc2      	lwu	a2,8(a3)

60a668bc <com_get_config_default>:
60a668bc:	64f6      	save	48,ra,s0-s1
60a668be:	67c4      	move	a2,a0
60a668c0:	b115      	lw	s1,60a66914 <com_get_config_default+0x58>
60a668c2:	ee31      	zeh	a2
60a668c4:	36cc      	sll	a2,3
60a668c6:	9980      	lw	a0,0(s1)
60a668c8:	b014      	lw	s0,60a66918 <com_get_config_default+0x5c>
60a668ca:	6d00      	li	a1,0
60a668cc:	4e10      	addiu	a2,16
60a668ce:	e840      	jalr	s0
60a668d0:	6f0f      	li	a3,15
60a668d2:	ea4f      	not	v0
60a668d4:	6b00      	li	v1,0
60a668d6:	221a      	beqz	v0,60a6690c <com_get_config_default+0x50>
60a668d8:	9980      	lw	a0,0(s1)
60a668da:	0504      	addiu	a1,sp,16
60a668dc:	6e08      	li	a2,8
60a668de:	e840      	jalr	s0
60a668e0:	6f11      	li	a3,17
60a668e2:	ec4f      	not	a0,v0
60a668e4:	6b00      	li	v1,0
60a668e6:	2412      	beqz	a0,60a6690c <com_get_config_default+0x50>
60a668e8:	9980      	lw	a0,0(s1)
60a668ea:	9604      	lw	a2,16(sp)
60a668ec:	67a3      	move	a1,v1
60a668ee:	e840      	jalr	s0
60a668f0:	6f0f      	li	a3,15
60a668f2:	ed4f      	not	a1,v0
60a668f4:	6b00      	li	v1,0
60a668f6:	250a      	beqz	a1,60a6690c <com_get_config_default+0x50>
60a668f8:	9980      	lw	a0,0(s1)
60a668fa:	6f11      	li	a3,17
60a668fc:	0506      	addiu	a1,sp,24
60a668fe:	e840      	jalr	s0
60a66900:	6e02      	li	a2,2
60a66902:	ef4f      	not	a3,v0
60a66904:	6b00      	li	v1,0
60a66906:	2702      	beqz	a3,60a6690c <com_get_config_default+0x50>
60a66908:	675d      	move	v0,sp
60a6690a:	aa6c      	lhu	v1,24(v0)
60a6690c:	6743      	move	v0,v1
60a6690e:	6476      	restore	48,ra,s0-s1
60a66910:	e8a0      	jrc	ra
60a66912:	0000      	addiu	s0,sp,0
60a66914:	a090      	lbu	a0,16(s0)
60a66916:	9fc1      	lw	a2,4(a3)
60a66918:	6009      	bteqz	60a6692c <.LBE2+0xc>
60a6691a:	bfc2      	lwu	a2,8(a3)

60a6691c <com_set_sound_out>:
60a6691c:	b202      	lw	v0,60a66924 <.LBE2+0x4>
60a6691e:	c287      	sb	a0,7(v0)

60a66920 <.LBE2>:
60a66920:	e820      	jr	ra
60a66922:	6a01      	li	v0,1
60a66924:	a094      	lbu	a0,20(s0)
60a66926:	9fc1      	lw	a2,4(a3)
Disassembly of section BANK_CONTROL_1_42:

60aa6800 <smart_tws_sync_cmd_send>:
60aa6800:	64e4      	save	32,ra,s0
60aa6802:	6d00      	li	a1,0
60aa6804:	b20c      	lw	v0,60aa6834 <.LBE2+0x6>
60aa6806:	6704      	move	s0,a0
60aa6808:	67c5      	move	a2,a1
60aa680a:	6c01      	li	a0,1
60aa680c:	ea40      	jalr	v0
60aa680e:	6f49      	li	a3,73
60aa6810:	f020 a25a 	lbu	v0,58(v0)
60aa6814:	e811      	zeb	s0
60aa6816:	220b      	beqz	v0,60aa682e <.LBE2>

60aa6818 <.LBB2>:
60aa6818:	f0a1 6c0c 	li	a0,2220
60aa681c:	d404      	sw	a0,16(sp)
60aa681e:	677d      	move	v1,sp
60aa6820:	6c00      	li	a0,0
60aa6822:	b206      	lw	v0,60aa6838 <.LBE2+0xa>
60aa6824:	c314      	sb	s0,20(v1)
60aa6826:	0504      	addiu	a1,sp,16
60aa6828:	67c4      	move	a2,a0
60aa682a:	ea40      	jalr	v0
60aa682c:	67e4      	move	a3,a0

60aa682e <.LBE2>:
60aa682e:	6464      	restore	32,ra,s0
60aa6830:	e8a0      	jrc	ra
60aa6832:	0000      	addiu	s0,sp,0
60aa6834:	6009      	bteqz	60aa6848 <smart_set_ainout_param+0xc>
60aa6836:	bfc2      	lwu	a2,8(a3)
60aa6838:	6ce9      	li	a0,233
60aa683a:	60a2      	bteqz	60aa6780 <.LBE2+0x3fe60>

60aa683c <smart_set_ainout_param>:
60aa683c:	64f4      	save	32,ra,s0-s1
60aa683e:	6b00      	li	v1,0
60aa6840:	b216      	lw	v0,60aa6898 <smart_set_ainout_param+0x5c>
60aa6842:	6724      	move	s1,a0
60aa6844:	dc60      	sw	v1,0(a0)
60aa6846:	6c2a      	li	a0,42
60aa6848:	ea40      	jalr	v0
60aa684a:	6705      	move	s0,a1
60aa684c:	e811      	zeb	s0
60aa684e:	6782      	move	a0,v0
60aa6850:	ec11      	zeb	a0
60aa6852:	7003      	cmpi	s0,3
60aa6854:	d986      	sw	a0,24(s1)
60aa6856:	6107      	btnez	60aa6866 <smart_set_ainout_param+0x2a>
60aa6858:	6c00      	li	a0,0
60aa685a:	6b10      	li	v1,16
60aa685c:	4441      	addiu	v0,a0,1
60aa685e:	d961      	sw	v1,4(s1)
60aa6860:	d962      	sw	v1,8(s1)
60aa6862:	d983      	sw	a0,12(s1)
60aa6864:	100a      	b	60aa687a <smart_set_ainout_param+0x3e>
60aa6866:	6d17      	li	a1,23
60aa6868:	d9a1      	sw	a1,4(s1)
60aa686a:	6b10      	li	v1,16
60aa686c:	4dea      	addiu	a1,-22
60aa686e:	7405      	cmpi	a0,5
60aa6870:	d962      	sw	v1,8(s1)
60aa6872:	d9a3      	sw	a1,12(s1)
60aa6874:	4542      	addiu	v0,a1,2
60aa6876:	6001      	bteqz	60aa687a <smart_set_ainout_param+0x3e>
60aa6878:	6a02      	li	v0,2
60aa687a:	6f07      	li	a3,7
60aa687c:	d944      	sw	v0,16(s1)
60aa687e:	47ca      	addiu	a2,a3,-6
60aa6880:	b206      	lw	v0,60aa6898 <smart_set_ainout_param+0x5c>
60aa6882:	d965      	sw	v1,20(s1)
60aa6884:	d9e8      	sw	a3,32(s1)
60aa6886:	f1a0 6c0a 	li	a0,426
60aa688a:	ea40      	jalr	v0
60aa688c:	d9c7      	sw	a2,28(s1)
60aa688e:	ea11      	zeb	v0
60aa6890:	d949      	sw	v0,36(s1)
60aa6892:	6474      	restore	32,ra,s0-s1
60aa6894:	e8a0      	jrc	ra
60aa6896:	0000      	addiu	s0,sp,0
60aa6898:	68bd      	li	s0,189
60aa689a:	60a6      	bteqz	60aa67e8 <.LBE2+0x3fec8>

60aa689c <smart_enter_speech_mode>:
60aa689c:	2402      	beqz	a0,60aa68a2 <smart_enter_speech_mode+0x6>
60aa689e:	6a01      	li	v0,1
60aa68a0:	c440      	sb	v0,0(a0)
60aa68a2:	e8a0      	jrc	ra

60aa68a4 <smart_exit_speech_mode>:
60aa68a4:	2402      	beqz	a0,60aa68aa <smart_exit_speech_mode+0x6>
60aa68a6:	6a00      	li	v0,0
60aa68a8:	c440      	sb	v0,0(a0)
60aa68aa:	e8a0      	jrc	ra

60aa68ac <smart_process_message_deal>:
60aa68ac:	f00c 64f9 	save	a0-a2,72,ra,s0-s1
60aa68b0:	9c40      	lw	v0,0(a0)
60aa68b2:	6724      	move	s1,a0
60aa68b4:	f201 7202 	cmpi	v0,2562
60aa68b8:	6707      	move	s0,a3
60aa68ba:	604c      	bteqz	60aa6954 <.LBE7+0x2>
60aa68bc:	f201 5a03 	sltiu	v0,2563
60aa68c0:	6004      	bteqz	60aa68ca <smart_process_message_deal+0x1e>
60aa68c2:	f201 7201 	cmpi	v0,2561
60aa68c6:	602f      	bteqz	60aa6926 <.LBE5+0x2>
60aa68c8:	1065      	b	60aa6994 <.LBE8>
60aa68ca:	f201 7204 	cmpi	v0,2564
60aa68ce:	6004      	bteqz	60aa68d8 <smart_process_message_deal+0x2c>
60aa68d0:	f201 7205 	cmpi	v0,2565
60aa68d4:	6019      	bteqz	60aa6908 <.LBE3+0x1e>
60aa68d6:	105e      	b	60aa6994 <.LBE8>
60aa68d8:	6d00      	li	a1,0
60aa68da:	b249      	lw	v0,60aa69fc <.LBE8+0x68>
60aa68dc:	0c30      	la	a0,60aa699c <.LBE8+0x8>
60aa68de:	67c5      	move	a2,a1
60aa68e0:	ea40      	jalr	v0
60aa68e2:	6f4b      	li	a3,75

60aa68e4 <.LBB3>:
60aa68e4:	2002      	beqz	s0,60aa68ea <.LBE3>
60aa68e6:	6b01      	li	v1,1
60aa68e8:	c060      	sb	v1,0(s0)

60aa68ea <.LBE3>:
60aa68ea:	9413      	lw	a0,76(sp)
60aa68ec:	9314      	lw	v1,80(sp)
60aa68ee:	6d84      	li	a1,132
60aa68f0:	eb40      	jalr	v1
60aa68f2:	6e00      	li	a2,0
60aa68f4:	9983      	lw	a0,12(s1)
60aa68f6:	2a02      	bnez	v0,60aa68fc <.LBE3+0x12>
60aa68f8:	6a01      	li	v0,1
60aa68fa:	1001      	b	60aa68fe <.LBE3+0x14>
60aa68fc:	6a02      	li	v0,2
60aa68fe:	c440      	sb	v0,0(a0)
60aa6900:	1941 9a00 	jal	60aa6800 <smart_tws_sync_cmd_send>
60aa6904:	6c05      	li	a0,5
60aa6906:	1046      	b	60aa6994 <.LBE8>
60aa6908:	6d00      	li	a1,0
60aa690a:	b23d      	lw	v0,60aa69fc <.LBE8+0x68>
60aa690c:	67c5      	move	a2,a1
60aa690e:	0c2b      	la	a0,60aa69b8 <.LBE8+0x24>
60aa6910:	ea40      	jalr	v0
60aa6912:	6f4b      	li	a3,75
60aa6914:	9413      	lw	a0,76(sp)
60aa6916:	9314      	lw	v1,80(sp)
60aa6918:	6d85      	li	a1,133
60aa691a:	eb40      	jalr	v1
60aa691c:	6e00      	li	a2,0

60aa691e <.LBB5>:
60aa691e:	203a      	beqz	s0,60aa6994 <.LBE8>
60aa6920:	6c00      	li	a0,0
60aa6922:	c080      	sb	a0,0(s0)

60aa6924 <.LBE5>:
60aa6924:	1037      	b	60aa6994 <.LBE8>
60aa6926:	6d00      	li	a1,0
60aa6928:	b235      	lw	v0,60aa69fc <.LBE8+0x68>
60aa692a:	67c5      	move	a2,a1
60aa692c:	0c2a      	la	a0,60aa69d4 <.LBE8+0x40>
60aa692e:	ea40      	jalr	v0
60aa6930:	6f4b      	li	a3,75

60aa6932 <.LBB7>:
60aa6932:	a1a4      	lbu	a1,4(s1)
60aa6934:	1941 9a0f 	jal	60aa683c <smart_set_ainout_param>
60aa6938:	0404      	addiu	a0,sp,16
60aa693a:	950a      	lw	a1,40(sp)
60aa693c:	a1c5      	lbu	a2,5(s1)
60aa693e:	7505      	cmpi	a1,5
60aa6940:	d60d      	sw	a2,52(sp)
60aa6942:	6102      	btnez	60aa6948 <.LBB7+0x16>
60aa6944:	b32f      	lw	v1,60aa6a00 <.LBE8+0x6c>
60aa6946:	ebc0      	jalrc	v1
60aa6948:	9413      	lw	a0,76(sp)
60aa694a:	9314      	lw	v1,80(sp)
60aa694c:	6d81      	li	a1,129
60aa694e:	eb40      	jalr	v1
60aa6950:	0604      	addiu	a2,sp,16

60aa6952 <.LBE7>:
60aa6952:	1020      	b	60aa6994 <.LBE8>
60aa6954:	6d00      	li	a1,0
60aa6956:	b02a      	lw	s0,60aa69fc <.LBE8+0x68>
60aa6958:	6f4b      	li	a3,75
60aa695a:	0c24      	la	a0,60aa69e8 <.LBE8+0x54>
60aa695c:	e840      	jalr	s0
60aa695e:	67c5      	move	a2,a1

60aa6960 <.LBB8>:
60aa6960:	a1e4      	lbu	a3,4(s1)
60aa6962:	6802      	li	s0,2
60aa6964:	7703      	cmpi	a3,3
60aa6966:	6008      	bteqz	60aa6978 <.LBB8+0x18>
60aa6968:	b227      	lw	v0,60aa6a04 <.LBE8+0x70>
60aa696a:	ea40      	jalr	v0
60aa696c:	6c2a      	li	a0,42
60aa696e:	ea11      	zeb	v0
60aa6970:	7205      	cmpi	v0,5
60aa6972:	400e      	addiu	s0,s0,-2
60aa6974:	6101      	btnez	60aa6978 <.LBB8+0x18>
60aa6976:	4001      	addiu	s0,s0,1
60aa6978:	1941 9a00 	jal	60aa6800 <smart_tws_sync_cmd_send>
60aa697c:	6c06      	li	a0,6
60aa697e:	9413      	lw	a0,76(sp)
60aa6980:	9314      	lw	v1,80(sp)
60aa6982:	6d82      	li	a1,130
60aa6984:	eb40      	jalr	v1
60aa6986:	67d0      	move	a2,s0
60aa6988:	9983      	lw	a0,12(s1)
60aa698a:	2a02      	bnez	v0,60aa6990 <.LBB8+0x30>
60aa698c:	6a01      	li	v0,1
60aa698e:	1001      	b	60aa6992 <.LBB8+0x32>
60aa6990:	6a02      	li	v0,2
60aa6992:	c440      	sb	v0,0(a0)

60aa6994 <.LBE8>:
60aa6994:	6a00      	li	v0,0
60aa6996:	6479      	restore	72,ra,s0-s1
60aa6998:	e8a0      	jrc	ra
60aa699a:	0000      	addiu	s0,sp,0
60aa699c:	493c      	addiu	s1,60
60aa699e:	203e      	beqz	s0,60aa6a1c <i2s_mfp_cfg+0x14>
60aa69a0:	6572      	move	s3,v0
60aa69a2:	6f63      	li	a3,99
60aa69a4:	6e67      	li	a2,103
60aa69a6:	7a69      	sd	v1,72(v0)
60aa69a8:	2065      	beqz	s0,60aa6a74 <i2s_mfp_cfg+0x6c>
60aa69aa:	6170      	btnez	60aa6a8c <i2s_mfp_cfg+0x84>
60aa69ac:	7375      	cmpi	v1,117
60aa69ae:	2065      	beqz	s0,60aa6a7a <i2s_mfp_cfg+0x72>
60aa69b0:	756d      	cmpi	a1,109
60aa69b2:	6973      	li	s1,115
60aa69b4:	0063      	addiu	s0,sp,396
60aa69b6:	0000      	addiu	s0,sp,0
60aa69b8:	493c      	addiu	s1,60
60aa69ba:	203e      	beqz	s0,60aa6a38 <i2s_mfp_cfg+0x30>
60aa69bc:	6572      	move	s3,v0
60aa69be:	6f63      	li	a3,99
60aa69c0:	6e67      	li	a2,103
60aa69c2:	7a69      	sd	v1,72(v0)
60aa69c4:	2065      	beqz	s0,60aa6a90 <i2s_mfp_cfg+0x88>
60aa69c6:	6572      	move	s3,v0
60aa69c8:	7573      	cmpi	a1,115
60aa69ca:	656d      	move	t3,a1
60aa69cc:	6d20      	li	a1,32
60aa69ce:	7375      	cmpi	v1,117
60aa69d0:	6369      	addiu	sp,840
60aa69d2:	0000      	addiu	s0,sp,0
60aa69d4:	493c      	addiu	s1,60
60aa69d6:	203e      	beqz	s0,60aa6a54 <i2s_mfp_cfg+0x4c>
60aa69d8:	6572      	move	s3,v0
60aa69da:	6f63      	li	a3,99
60aa69dc:	6e67      	li	a2,103
60aa69de:	7a69      	sd	v1,72(v0)
60aa69e0:	2065      	beqz	s0,60aa6aac <i2s_mfp_cfg+0xa4>
60aa69e2:	7473      	cmpi	a0,115
60aa69e4:	7261      	cmpi	v0,97
60aa69e6:	0074      	addiu	s0,sp,464
60aa69e8:	493c      	addiu	s1,60
60aa69ea:	203e      	beqz	s0,60aa6a68 <i2s_mfp_cfg+0x60>
60aa69ec:	6572      	move	s3,v0
60aa69ee:	6f63      	li	a3,99
60aa69f0:	6e67      	li	a2,103
60aa69f2:	7a69      	sd	v1,72(v0)
60aa69f4:	2065      	beqz	s0,60aa6ac0 <i2s_mfp_cfg+0xb8>
60aa69f6:	7473      	cmpi	a0,115
60aa69f8:	706f      	cmpi	s0,111
60aa69fa:	0000      	addiu	s0,sp,0
60aa69fc:	6009      	bteqz	60aa6a10 <i2s_mfp_cfg+0x8>
60aa69fe:	bfc2      	lwu	a2,8(a3)
60aa6a00:	6a09      	li	v0,9
60aa6a02:	60aa      	bteqz	60aa6958 <.LBE7+0x6>
60aa6a04:	68bd      	li	s0,189
60aa6a06:	60a6      	bteqz	60aa6954 <.LBE7+0x2>

60aa6a08 <i2s_mfp_cfg>:
60aa6a08:	b726      	lw	a3,60aa6aa0 <i2s_mfp_cfg+0x98>
60aa6a0a:	f200 6a01 	li	v0,513
60aa6a0e:	9fc0      	lw	a2,0(a3)
60aa6a10:	ec4b      	neg	a0,v0
60aa6a12:	ee8c      	and	a2,a0
60aa6a14:	dfc0      	sw	a2,0(a3)
60aa6a16:	b624      	lw	a2,60aa6aa4 <i2s_mfp_cfg+0x9c>
60aa6a18:	b325      	lw	v1,60aa6aac <i2s_mfp_cfg+0xa4>
60aa6a1a:	9ea0      	lw	a1,0(a2)
60aa6a1c:	ed8c      	and	a1,a0
60aa6a1e:	dea0      	sw	a1,0(a2)
60aa6a20:	b522      	lw	a1,60aa6aa8 <i2s_mfp_cfg+0xa0>
60aa6a22:	b424      	lw	a0,60aa6ab0 <i2s_mfp_cfg+0xa8>
60aa6a24:	9d40      	lw	v0,0(a1)
60aa6a26:	ea6c      	and	v0,v1
60aa6a28:	dd40      	sw	v0,0(a1)
60aa6a2a:	9d40      	lw	v0,0(a1)
60aa6a2c:	6bff      	li	v1,255
60aa6a2e:	ea8d      	or	v0,a0
60aa6a30:	dd40      	sw	v0,0(a1)
60aa6a32:	9f40      	lw	v0,0(a3)
60aa6a34:	4382      	addiu	a0,v1,2
60aa6a36:	eb8b      	neg	v1,a0
60aa6a38:	ea6c      	and	v0,v1
60aa6a3a:	df40      	sw	v0,0(a3)
60aa6a3c:	9e80      	lw	a0,0(a2)
60aa6a3e:	b21e      	lw	v0,60aa6ab4 <i2s_mfp_cfg+0xac>
60aa6a40:	ec6c      	and	a0,v1
60aa6a42:	de80      	sw	a0,0(a2)
60aa6a44:	9d80      	lw	a0,0(a1)
60aa6a46:	b31d      	lw	v1,60aa6ab8 <i2s_mfp_cfg+0xb0>
60aa6a48:	ec4c      	and	a0,v0
60aa6a4a:	dd80      	sw	a0,0(a1)
60aa6a4c:	9d40      	lw	v0,0(a1)
60aa6a4e:	6c41      	li	a0,65
60aa6a50:	ea6d      	or	v0,v1
60aa6a52:	b31b      	lw	v1,60aa6abc <i2s_mfp_cfg+0xb4>
60aa6a54:	dd40      	sw	v0,0(a1)
60aa6a56:	9b40      	lw	v0,0(v1)
60aa6a58:	ec8b      	neg	a0
60aa6a5a:	ea8c      	and	v0,a0
60aa6a5c:	db40      	sw	v0,0(v1)
60aa6a5e:	b319      	lw	v1,60aa6ac0 <i2s_mfp_cfg+0xb8>
60aa6a60:	9b40      	lw	v0,0(v1)
60aa6a62:	ea8c      	and	v0,a0
60aa6a64:	b418      	lw	a0,60aa6ac4 <i2s_mfp_cfg+0xbc>
60aa6a66:	db40      	sw	v0,0(v1)
60aa6a68:	9c40      	lw	v0,0(a0)
60aa6a6a:	b318      	lw	v1,60aa6ac8 <i2s_mfp_cfg+0xc0>
60aa6a6c:	ea6c      	and	v0,v1
60aa6a6e:	dc40      	sw	v0,0(a0)
60aa6a70:	9c40      	lw	v0,0(a0)
60aa6a72:	b317      	lw	v1,60aa6acc <i2s_mfp_cfg+0xc4>
60aa6a74:	ea6d      	or	v0,v1
60aa6a76:	dc40      	sw	v0,0(a0)
60aa6a78:	6b81      	li	v1,129
60aa6a7a:	9f40      	lw	v0,0(a3)
60aa6a7c:	eb6b      	neg	v1
60aa6a7e:	ea6c      	and	v0,v1
60aa6a80:	df40      	sw	v0,0(a3)
60aa6a82:	9ee0      	lw	a3,0(a2)
60aa6a84:	ef6c      	and	a3,v1
60aa6a86:	dee0      	sw	a3,0(a2)
60aa6a88:	9d80      	lw	a0,0(a1)
60aa6a8a:	f59f 4b00 	addiu	v1,-640
60aa6a8e:	ec6c      	and	a0,v1
60aa6a90:	dd80      	sw	a0,0(a1)
60aa6a92:	9d40      	lw	v0,0(a1)
60aa6a94:	f600 4b01 	addiu	v1,1537
60aa6a98:	ea6d      	or	v0,v1
60aa6a9a:	dd40      	sw	v0,0(a1)
60aa6a9c:	e8a0      	jrc	ra
60aa6a9e:	0000      	addiu	s0,sp,0
60aa6aa0:	0014      	addiu	s0,sp,80
60aa6aa2:	c009      	sb	s0,9(s0)
60aa6aa4:	0018      	addiu	s0,sp,96
60aa6aa6:	c009      	sb	s0,9(s0)
60aa6aa8:	0060      	addiu	s0,sp,384
60aa6aaa:	c009      	sb	s0,9(s0)
60aa6aac:	ffff      	daddiu	a3,sp,124
60aa6aae:	ff3f      	daddiu	s1,sp,124
60aa6ab0:	0000      	addiu	s0,sp,0
60aa6ab2:	0080      	addiu	s0,sp,512
60aa6ab4:	ffff      	daddiu	a3,sp,124
60aa6ab6:	ffcf      	daddiu	a2,sp,60
60aa6ab8:	0000      	addiu	s0,sp,0
60aa6aba:	0020      	addiu	s0,sp,128
60aa6abc:	0000      	addiu	s0,sp,0
60aa6abe:	c009      	sb	s0,9(s0)
60aa6ac0:	0004      	addiu	s0,sp,16
60aa6ac2:	c009      	sb	s0,9(s0)
60aa6ac4:	0058      	addiu	s0,sp,352
60aa6ac6:	c009      	sb	s0,9(s0)
60aa6ac8:	ffff      	daddiu	a3,sp,124
60aa6aca:	fff3      	daddiu	a3,sp,76
60aa6acc:	0000      	addiu	s0,sp,0
60aa6ace:	000c      	addiu	s0,sp,48
