
btcalleg.exe:     file format elf32-tradlittlemips

Disassembly of section .text:

bfc26000 <audio_device_op_entry>:
bfc26000:	6b0a      	li	v1,10
bfc26002:	e805      	break	0

bfc26004 <libc_op_entry>:
bfc26004:	6b10      	li	v1,16
bfc26006:	e805      	break	0

bfc26008 <sys_op_entry>:
bfc26008:	6b0f      	li	v1,15
bfc2600a:	e805      	break	0

bfc2600c <base_op_entry>:
bfc2600c:	6b00      	li	v1,0
bfc2600e:	e805      	break	0

bfc26010 <key_op_entry>:
bfc26010:	6b08      	li	v1,8
bfc26012:	e805      	break	0

bfc26014 <mmm_hfp_cmd>:
bfc26014:	6b42      	li	v1,66
bfc26016:	e805      	break	0

bfc26018 <stub_mod_cmd>:
bfc26018:	6b40      	li	v1,64
bfc2601a:	e805      	break	0

bfc2601c <btcall_deal_app_msg>:
bfc2601c:	64e5      	save	40,ra,s0
 * \  Cailizhen          2015-1          creat
 * \   Wekan       2015-3-30     reviwe
 *******************************************************************************/
app_result_e btcall_deal_app_msg(void)
{
bfc2601e:	6800      	li	s0,0
    private_msg_t cur_msg;
    app_result_e result = RESULT_NULL;
bfc26020:	6c11      	li	a0,17

    //更新共享查询
    g_p_btcall_info = sys_share_query_update(APP_ID_BTCALLEG);
bfc26022:	67b0      	move	a1,s0
bfc26024:	67d0      	move	a2,s0
bfc26026:	b20a      	lw	v0,bfc2604c <btcall_deal_app_msg+0x30>
bfc26028:	ea40      	jalr	v0
bfc2602a:	6f46      	li	a3,70
bfc2602c:	b307      	lw	v1,bfc26048 <btcall_deal_app_msg+0x2c>
bfc2602e:	db40      	sw	v0,0(v1)
bfc26030:	b208      	lw	v0,bfc26050 <btcall_deal_app_msg+0x34>

    if(get_app_msg(&cur_msg) == TRUE) {
bfc26032:	ea40      	jalr	v0
bfc26034:	0404      	addiu	a0,sp,16
bfc26036:	7201      	cmpi	v0,1
bfc26038:	6104      	btnez	bfc26042 <btcall_deal_app_msg+0x26>
bfc2603a:	b207      	lw	v0,bfc26054 <btcall_deal_app_msg+0x38>
        result = app_message_deal(&cur_msg);
bfc2603c:	ea40      	jalr	v0
bfc2603e:	0404      	addiu	a0,sp,16
bfc26040:	6702      	move	s0,v0
bfc26042:	6750      	move	v0,s0
    }

    return result;
}
bfc26044:	6465      	restore	40,ra,s0
bfc26046:	e8a0      	jrc	ra
bfc26048:	9680      	lw	a2,512(sp)
bfc2604a:	9fc1      	lw	a2,4(a3)
bfc2604c:	6009      	bteqz	bfc26060 <deal_callin+0x8>
bfc2604e:	bfc2      	lwu	a2,8(a3)
bfc26050:	64b9      	save	72,s0-s1
bfc26052:	bfc2      	lwu	a2,8(a3)
bfc26054:	6995      	li	s1,149
bfc26056:	600a      	bteqz	bfc2606c <deal_callin+0x14>

bfc26058 <deal_callin>:
bfc26058:	64f4      	save	32,ra,s0-s1


/******************************************************************************
 * \  par  Description:   处理callin时，播报电话本，铃声和退出事件
 * \  param[in]     null0
 * \  param[out]   null
 * \  return           null
 * \  note
 * \  <author>       <time>        <opt>
 * \   Wekan       2015-6-17      split
 *******************************************************************************/

void deal_callin(void)
{
bfc2605a:	b223      	lw	v0,bfc260e4 <.LBE2+0x44>
    if(g_p_bt_stack_cur_info->rmt_dev[g_p_bt_stack_cur_info->hfp_active_id].hfp_status == HFP_STATUS_INCOMING) {
bfc2605c:	9a80      	lw	a0,0(v0)
bfc2605e:	f020 a475 	lbu	v1,53(a0)
bfc26062:	3264      	sll	v0,v1,1
bfc26064:	e269      	addu	v0,v1
bfc26066:	324c      	sll	v0,3
bfc26068:	e289      	addu	v0,a0
bfc2606a:	a253      	lbu	v0,19(v0)
bfc2606c:	7202      	cmpi	v0,2
bfc2606e:	6119      	btnez	bfc260a2 <.LBE2+0x2>
bfc26070:	b31e      	lw	v1,bfc260e8 <.LBE2+0x48>
        if((btcall_gl_var.g_sco_deal_flag == 0)
bfc26072:	a380      	lbu	a0,0(v1)
bfc26074:	2c35      	bnez	a0,bfc260e0 <.LBE2+0x40>
bfc26076:	a346      	lbu	v0,6(v1)
bfc26078:	7201      	cmpi	v0,1
bfc2607a:	6032      	bteqz	bfc260e0 <.LBE2+0x40>
bfc2607c:	b21c      	lw	v0,bfc260ec <.LBE2+0x4c>
bfc2607e:	824f      	lb	v0,15(v0)
bfc26080:	ea4f      	not	v0
bfc26082:	2a2e      	bnez	v0,bfc260e0 <.LBE2+0x40>

bfc26084 <.LBB2>:
bfc26084:	a348      	lbu	v0,8(v1)
                && (btcall_gl_var.callin_ring_mode != CALLIN_RING_MODE_ONLY_PB)
                && (g_callring_data.callring_timer_id == -1)) {
            uint16 callring_start_delay;

            if(btcall_gl_var.callin_ring_first == 1) {
bfc26086:	7201      	cmpi	v0,1
bfc26088:	6104      	btnez	bfc26092 <.LBB2+0xe>
bfc2608a:	f7c0 6d10 	li	a1,2000
                callring_start_delay = 2000;
bfc2608e:	c388      	sb	a0,8(v1)
                btcall_gl_var.callin_ring_first = 0;
bfc26090:	1001      	b	bfc26094 <.LBB2+0x10>
bfc26092:	6dc8      	li	a1,200
            } else {
                callring_start_delay = 200;
bfc26094:	b617      	lw	a2,bfc260f0 <.LBE2+0x50>
            }

            g_callring_data.callring_timer_id = set_single_shot_app_timer(APP_TIMER_ATTRB_CONTROL,
bfc26096:	b218      	lw	v0,bfc260f4 <.LBE2+0x54>
bfc26098:	ea40      	jalr	v0
bfc2609a:	6c01      	li	a0,1
bfc2609c:	b314      	lw	v1,bfc260ec <.LBE2+0x4c>
bfc2609e:	c34f      	sb	v0,15(v1)

bfc260a0 <.LBE2>:
bfc260a0:	101f      	b	bfc260e0 <.LBE2+0x40>
bfc260a2:	b212      	lw	v0,bfc260e8 <.LBE2+0x48>
                                                callring_start_delay, (timer_proc) callring_start);
        }
    } else {
        if(btcall_gl_var.callin_ring_mode != CALLIN_RING_MODE_ONLY_PB) {
bfc260a4:	a246      	lbu	v0,6(v0)
bfc260a6:	7201      	cmpi	v0,1
bfc260a8:	601b      	bteqz	bfc260e0 <.LBE2+0x40>
bfc260aa:	b011      	lw	s0,bfc260ec <.LBE2+0x4c>
            if(g_callring_data.callring_timer_id != -1) {
bfc260ac:	808f      	lb	a0,15(s0)
bfc260ae:	ea8f      	not	v0,a0
bfc260b0:	2205      	beqz	v0,bfc260bc <.LBE2+0x1c>
bfc260b2:	b212      	lw	v0,bfc260f8 <.LBE2+0x58>
                kill_app_timer(g_callring_data.callring_timer_id);
bfc260b4:	eac0      	jalrc	v0
bfc260b6:	6a01      	li	v0,1
bfc260b8:	ea4b      	neg	v0
bfc260ba:	c04f      	sb	v0,15(s0)
                g_callring_data.callring_timer_id = -1;
bfc260bc:	b20c      	lw	v0,bfc260ec <.LBE2+0x4c>
            }

            if(g_callring_data.callring_thread_exist != 0) {
bfc260be:	a240      	lbu	v0,0(v0)
bfc260c0:	2203      	beqz	v0,bfc260c8 <.LBE2+0x28>
bfc260c2:	6b01      	li	v1,1
                //等待来电铃声线程退出
                btcall_gl_var.need_exit_thread = TRUE;
bfc260c4:	b209      	lw	v0,bfc260e8 <.LBE2+0x48>
bfc260c6:	c262      	sb	v1,2(v0)
bfc260c8:	b209      	lw	v0,bfc260ec <.LBE2+0x4c>
            }
            while(g_callring_data.callring_thread_exist != 0) {
                sys_os_time_dly(1);
bfc260ca:	a240      	lbu	v0,0(v0)
bfc260cc:	2209      	beqz	v0,bfc260e0 <.LBE2+0x40>
bfc260ce:	b10c      	lw	s1,bfc260fc <.LBE2+0x5c>
bfc260d0:	b007      	lw	s0,bfc260ec <.LBE2+0x4c>
bfc260d2:	6c01      	li	a0,1
bfc260d4:	6d00      	li	a1,0
bfc260d6:	67c5      	move	a2,a1
bfc260d8:	e940      	jalr	s1
bfc260da:	6f31      	li	a3,49
bfc260dc:	a040      	lbu	v0,0(s0)
bfc260de:	2af9      	bnez	v0,bfc260d2 <.LBE2+0x32>
bfc260e0:	6474      	restore	32,ra,s0-s1
            }
        }
    }

}
bfc260e2:	e8a0      	jrc	ra
bfc260e4:	9674      	lw	a2,464(sp)
bfc260e6:	9fc1      	lw	a2,4(a3)
bfc260e8:	9650      	lw	a2,320(sp)
bfc260ea:	9fc1      	lw	a2,4(a3)
bfc260ec:	9664      	lw	a2,400(sp)
bfc260ee:	9fc1      	lw	a2,4(a3)
bfc260f0:	6939      	li	s1,57
bfc260f2:	600e      	bteqz	bfc26110 <bt_stack_status+0x10>
bfc260f4:	6b19      	li	v1,25
bfc260f6:	60a2      	bteqz	bfc2603c <btcall_deal_app_msg+0x20>
bfc260f8:	6c0d      	li	a0,13
bfc260fa:	60a2      	bteqz	bfc26040 <btcall_deal_app_msg+0x24>
bfc260fc:	6009      	bteqz	bfc26110 <bt_stack_status+0x10>
bfc260fe:	bfc2      	lwu	a2,8(a3)

bfc26100 <bt_stack_status>:
bfc26100:	64f5      	save	40,ra,s0-s1


btcall_status_e bt_stack_status(const bt_stack_sub_info_t *cur_dev)
{
bfc26102:	6704      	move	s0,a0
bfc26104:	a46f      	lbu	v1,15(a0)
    btcall_status_e ret = BTCALL_IDLE;
    static uint32 sco_link_out_tick = 0;
    static uint8 hfp_sta = 0xff;
    static uint8 sco_link = 0xff;
    switch(cur_dev->hfp_status) {
bfc26106:	5b07      	sltiu	v1,7
bfc26108:	6020      	bteqz	bfc2614a <bt_stack_status+0x4a>
bfc2610a:	0a04      	la	v0,bfc26118 <bt_stack_status+0x18>
bfc2610c:	3364      	sll	v1,1
bfc2610e:	e34d      	addu	v1,v0
bfc26110:	8b60      	lh	v1,0(v1)
bfc26112:	e34d      	addu	v1,v0
bfc26114:	eb80      	jrc	v1
bfc26116:	0000      	addiu	s0,sp,0
bfc26118:	0033      	addiu	s0,sp,204
bfc2611a:	000f      	addiu	s0,sp,60
bfc2611c:	0015      	addiu	s0,sp,84
bfc2611e:	001b      	addiu	s0,sp,108
bfc26120:	0021      	addiu	s0,sp,132
bfc26122:	0027      	addiu	s0,sp,156
bfc26124:	002d      	addiu	s0,sp,180
bfc26126:	6a01      	li	v0,1
        case HFP_STATUS_LINKED:
            ret = BTCALL_STOP;
bfc26128:	d204      	sw	v0,16(sp)
bfc2612a:	1011      	b	bfc2614e <bt_stack_status+0x4e>
            break;
bfc2612c:	6a02      	li	v0,2

        case HFP_STATUS_INCOMING:
            ret = BTCALL_CALLIN;
bfc2612e:	d204      	sw	v0,16(sp)
bfc26130:	100e      	b	bfc2614e <bt_stack_status+0x4e>
            break;
bfc26132:	6a03      	li	v0,3

        case HFP_STATUS_OUTGOING:
            ret = BTCALL_CALLOUT;
bfc26134:	d204      	sw	v0,16(sp)
bfc26136:	100b      	b	bfc2614e <bt_stack_status+0x4e>
            break;
bfc26138:	6a04      	li	v0,4

        case HFP_STATUS_CALLING:
            ret = BTCALL_HFP;
bfc2613a:	d204      	sw	v0,16(sp)
bfc2613c:	1008      	b	bfc2614e <bt_stack_status+0x4e>
            break;
bfc2613e:	6a05      	li	v0,5

        case HFP_STATUS_PHONE:
            ret = BTCALL_PHONE;
bfc26140:	d204      	sw	v0,16(sp)
bfc26142:	1005      	b	bfc2614e <bt_stack_status+0x4e>
            break;
bfc26144:	6a06      	li	v0,6

        case HFP_STATUS_SIRI:
            ret = BTCALL_SIRI;
bfc26146:	d204      	sw	v0,16(sp)
bfc26148:	1002      	b	bfc2614e <bt_stack_status+0x4e>
            break;
bfc2614a:	6a00      	li	v0,0

        case HFP_STATUS_NONE:
        default:
            ret = BTCALL_IDLE;
bfc2614c:	d204      	sw	v0,16(sp)
bfc2614e:	a06a      	lbu	v1,10(s0)
            break;
    }

    if(sco_link != (cur_dev->hfp_attr.sco_link)) {
bfc26150:	b228      	lw	v0,bfc261f0 <bt_stack_status+0xf0>
bfc26152:	a2a0      	lbu	a1,0(v0)
bfc26154:	6a01      	li	v0,1
bfc26156:	eb4c      	and	v1,v0
bfc26158:	ed6a      	cmp	a1,v1
bfc2615a:	6007      	bteqz	bfc2616a <bt_stack_status+0x6a>
bfc2615c:	35a0      	sll	a1,8
        libc_print("SCO-link(old-new):", (sco_link << 8) + (cur_dev->hfp_attr.sco_link), 2);
bfc2615e:	0c18      	la	a0,bfc261bc <bt_stack_status+0xbc>
bfc26160:	e575      	addu	a1,v1
bfc26162:	6e02      	li	a2,2
bfc26164:	b224      	lw	v0,bfc261f4 <bt_stack_status+0xf4>
bfc26166:	ea40      	jalr	v0
bfc26168:	6f4b      	li	a3,75
bfc2616a:	b124      	lw	s1,bfc261f8 <bt_stack_status+0xf8>
        //sco_link = cur_dev->hfp_attr.sco_link;
    }


    if(hfp_sta != cur_dev->hfp_status) {
bfc2616c:	a04f      	lbu	v0,15(s0)
bfc2616e:	a1a0      	lbu	a1,0(s1)
bfc26170:	eaaa      	cmp	v0,a1
bfc26172:	6009      	bteqz	bfc26186 <bt_stack_status+0x86>
bfc26174:	35a0      	sll	a1,8
        libc_print("call-hfp(old-new):", (hfp_sta << 8) + cur_dev->hfp_status, 2);
bfc26176:	0c17      	la	a0,bfc261d0 <bt_stack_status+0xd0>
bfc26178:	e555      	addu	a1,v0
bfc2617a:	6e02      	li	a2,2
bfc2617c:	b21e      	lw	v0,bfc261f4 <bt_stack_status+0xf4>
bfc2617e:	ea40      	jalr	v0
bfc26180:	6f4b      	li	a3,75
bfc26182:	a04f      	lbu	v0,15(s0)
#ifdef ENABLE_DOUBLE_PHONE_
        //发送一个退出btcall的消息给stack
        if((g_p_bt_stack_cur_info->num_connected == RMT_DEV_NUM)
                && (hfp_sta > HFP_STATUS_LINKED)
                //&&(hfp_sta!=0xff)
                && (cur_dev->hfp_status == HFP_STATUS_LINKED)) {
            msg_apps_t msg;
            msg.type = MSG_BTSTACK_HFP_BTCALL_EXIT_SYNC;
            //发送同步消息
            send_sync_msg_btmanager(g_p_bt_stack_cur_info->rmt_dev[g_p_bt_stack_cur_info->hfp_active_id].addr.bytes, &msg, NULL, 0);
        }
#endif
        hfp_sta = cur_dev->hfp_status;
bfc26184:	c140      	sb	v0,0(s1)
bfc26186:	b21b      	lw	v0,bfc261f0 <bt_stack_status+0xf0>
    }

    if((sco_link == 1) && (cur_dev->hfp_attr.sco_link == 0)) {
bfc26188:	a240      	lbu	v0,0(v0)
bfc2618a:	7201      	cmpi	v0,1
bfc2618c:	610e      	btnez	bfc261aa <bt_stack_status+0xaa>
bfc2618e:	a04a      	lbu	v0,10(s0)
bfc26190:	6901      	li	s1,1
bfc26192:	67c2      	move	a2,v0
bfc26194:	ee2c      	and	a2,s1
bfc26196:	2e09      	bnez	a2,bfc261aa <bt_stack_status+0xaa>
bfc26198:	a04f      	lbu	v0,15(s0)
        if(cur_dev->hfp_status != HFP_STATUS_PHONE) {
bfc2619a:	7205      	cmpi	v0,5
bfc2619c:	6006      	bteqz	bfc261aa <bt_stack_status+0xaa>
bfc2619e:	0c12      	la	a0,bfc261e4 <bt_stack_status+0xe4>
            libc_print("force-stop.", 0, 0);
bfc261a0:	67a6      	move	a1,a2
bfc261a2:	b215      	lw	v0,bfc261f4 <bt_stack_status+0xf4>
bfc261a4:	ea40      	jalr	v0
bfc261a6:	6f4b      	li	a3,75
bfc261a8:	d104      	sw	s1,16(sp)
            ret = BTCALL_STOP;
bfc261aa:	a04a      	lbu	v0,10(s0)
        }
    }
    sco_link = cur_dev->hfp_attr.sco_link;
bfc261ac:	6b01      	li	v1,1
bfc261ae:	ea6c      	and	v0,v1
bfc261b0:	b310      	lw	v1,bfc261f0 <bt_stack_status+0xf0>
bfc261b2:	c340      	sb	v0,0(v1)
bfc261b4:	9204      	lw	v0,16(sp)

    return ret;
}
bfc261b6:	6475      	restore	40,ra,s0-s1
bfc261b8:	e8a0      	jrc	ra
bfc261ba:	0000      	addiu	s0,sp,0
bfc261bc:	4353      	daddiu	v0,v1,3
bfc261be:	2d4f      	bnez	a1,bfc2625e <get_message_loop+0x62>
bfc261c0:	696c      	li	s1,108
bfc261c2:	6b6e      	li	v1,110
bfc261c4:	6f28      	li	a3,40
bfc261c6:	646c      	restore	96,ra,s0
bfc261c8:	6e2d      	li	a2,45
bfc261ca:	7765      	cmpi	a3,101
bfc261cc:	3a29      	ld	s1,72(v0)
bfc261ce:	0000      	addiu	s0,sp,0
bfc261d0:	6163      	btnez	bfc26298 <get_message_loop+0x9c>
bfc261d2:	6c6c      	li	a0,108
bfc261d4:	682d      	li	s0,45
bfc261d6:	7066      	cmpi	s0,102
bfc261d8:	6f28      	li	a3,40
bfc261da:	646c      	restore	96,ra,s0
bfc261dc:	6e2d      	li	a2,45
bfc261de:	7765      	cmpi	a3,101
bfc261e0:	3a29      	ld	s1,72(v0)
bfc261e2:	0000      	addiu	s0,sp,0
bfc261e4:	6f66      	li	a3,102
bfc261e6:	6372      	addiu	sp,912
bfc261e8:	2d65      	bnez	a1,bfc262b4 <get_message_loop+0xb8>
bfc261ea:	7473      	cmpi	a0,115
bfc261ec:	706f      	cmpi	s0,111
bfc261ee:	002e      	addiu	s0,sp,184
bfc261f0:	9585      	lw	a1,532(sp)
bfc261f2:	9fc1      	lw	a2,4(a3)
bfc261f4:	6009      	bteqz	bfc26208 <get_message_loop+0xc>
bfc261f6:	bfc2      	lwu	a2,8(a3)
bfc261f8:	9584      	lw	a1,528(sp)
bfc261fa:	9fc1      	lw	a2,4(a3)

bfc261fc <get_message_loop>:
bfc261fc:	64f6      	save	48,ra,s0-s1

/******************************************************************************
 * \  par  Description:   读取消息的处理
 * \  param[in]     null0
 * \  param[out]   null
 * \  return           需要顶层处理的事件
 * \  note
 * \  <author>       <time>        <opt>
 * \  Cailizhen          2015-1          creat
 * \   Wekan       2015-3-30     reviwe
 *******************************************************************************/
app_result_e get_message_loop(void)
{
bfc261fe:	6a00      	li	v0,0
    app_result_e result = RESULT_NULL;
    uint8 last_hfp_status = HFP_STATUS_NONE;
bfc26200:	d204      	sw	v0,16(sp)
bfc26202:	6b01      	li	v1,1
    uint8 hfp_sta_tmp;
    uint8 hfp_active_id;
    btcall_gl_var.callin_ring_first = 1;
bfc26204:	b25f      	lw	v0,bfc26380 <.LBE5+0x60>
bfc26206:	c268      	sb	v1,8(v0)
bfc26208:	b35f      	lw	v1,bfc26384 <.LBE5+0x64>

    while(1) {

        hfp_active_id = g_p_bt_stack_cur_info->hfp_active_id;
bfc2620a:	9b80      	lw	a0,0(v1)
bfc2620c:	f020 a435 	lbu	s1,53(a0)
bfc26210:	3224      	sll	v0,s1,1
        hfp_sta_tmp = g_p_bt_stack_cur_info->rmt_dev[hfp_active_id].hfp_status;
bfc26212:	e229      	addu	v0,s1
bfc26214:	324c      	sll	v0,3
bfc26216:	d206      	sw	v0,24(sp)
bfc26218:	e291      	addu	a0,v0,a0
bfc2621a:	a453      	lbu	v0,19(a0)
bfc2621c:	d205      	sw	v0,20(sp)
bfc2621e:	b25b      	lw	v0,bfc26388 <.LBE5+0x68>
        g_p_btcall_info->status = bt_stack_status(&g_p_bt_stack_cur_info->rmt_dev[hfp_active_id]);
bfc26220:	9a00      	lw	s0,0(v0)
bfc26222:	b25b      	lw	v0,bfc2638c <.LBE5+0x6c>
bfc26224:	ea40      	jalr	v0
bfc26226:	4484      	addiu	a0,a0,4
bfc26228:	c040      	sb	v0,0(s0)
bfc2622a:	b356      	lw	v1,bfc26380 <.LBE5+0x60>
        if(btcall_gl_var.tts_play_flag == 0) {
bfc2622c:	a344      	lbu	v0,4(v1)
bfc2622e:	2a69      	bnez	v0,bfc26302 <get_message_loop+0x106>
bfc26230:	a340      	lbu	v0,0(v1)
            if((btcall_gl_var.g_sco_deal_flag == 0)
bfc26232:	2a1b      	bnez	v0,bfc2626a <get_message_loop+0x6e>
bfc26234:	b354      	lw	v1,bfc26384 <.LBE5+0x64>
bfc26236:	9b40      	lw	v0,0(v1)
bfc26238:	9306      	lw	v1,24(sp)
bfc2623a:	e349      	addu	v0,v1,v0
bfc2623c:	a24e      	lbu	v0,14(v0)
bfc2623e:	6b01      	li	v1,1
bfc26240:	ea6c      	and	v0,v1
bfc26242:	2213      	beqz	v0,bfc2626a <get_message_loop+0x6e>
bfc26244:	b34f      	lw	v1,bfc26380 <.LBE5+0x60>
                    && (g_p_bt_stack_cur_info->rmt_dev[hfp_active_id].hfp_attr.sco_link == 1)) {
                if((btcall_gl_var.ignore_uncall_sco == 1)
bfc26246:	a34d      	lbu	v0,13(v1)
bfc26248:	7201      	cmpi	v0,1
bfc2624a:	6105      	btnez	bfc26256 <get_message_loop+0x5a>
bfc2624c:	9205      	lw	v0,20(sp)
bfc2624e:	7204      	cmpi	v0,4
bfc26250:	6002      	bteqz	bfc26256 <get_message_loop+0x5a>
bfc26252:	7202      	cmpi	v0,2
bfc26254:	6134      	btnez	bfc262be <get_message_loop+0xc2>
bfc26256:	9305      	lw	v1,20(sp)
                        && (hfp_sta_tmp != HFP_STATUS_CALLING)
                        && (hfp_sta_tmp != HFP_STATUS_INCOMING)) {
                    ; //过滤非打电话的SCO语音
                } else {
                    if((hfp_sta_tmp != HFP_STATUS_INCOMING)
bfc26258:	7302      	cmpi	v1,2
bfc2625a:	6104      	btnez	bfc26264 <get_message_loop+0x68>
bfc2625c:	b349      	lw	v1,bfc26380 <.LBE5+0x60>
bfc2625e:	a346      	lbu	v0,6(v1)
bfc26260:	7201      	cmpi	v0,1
bfc26262:	602d      	bteqz	bfc262be <get_message_loop+0xc2>
bfc26264:	b24b      	lw	v0,bfc26390 <.LBE5+0x70>
                            || (btcall_gl_var.callin_ring_mode != CALLIN_RING_MODE_ONLY_PB)) {
                        //除了来电铃声，且采用电话本播报取代铃声这种情况外，
                        //其他情况都可以创建解码线程
                        bt_engine_hfp_sco_connect_ind_handle();
bfc26266:	eac0      	jalrc	v0
bfc26268:	102a      	b	bfc262be <get_message_loop+0xc2>
bfc2626a:	b346      	lw	v1,bfc26380 <.LBE5+0x60>
                        //libc_print("CORE_PLL_CTL=", act_readl(CORE_PLL_CTL), 2);
                    }
                }
            } else if((btcall_gl_var.g_sco_deal_flag == 1)) {
bfc2626c:	a340      	lbu	v0,0(v1)
bfc2626e:	7201      	cmpi	v0,1
bfc26270:	6126      	btnez	bfc262be <get_message_loop+0xc2>
bfc26272:	b249      	lw	v0,bfc26394 <.LBE5+0x74>
                if(g_stub_tools_type == STUB_PC_TOOL_ATT_MODE) {
bfc26274:	a240      	lbu	v0,0(v0)
bfc26276:	7204      	cmpi	v0,4
bfc26278:	6113      	btnez	bfc262a0 <get_message_loop+0xa4>
bfc2627a:	b343      	lw	v1,bfc26384 <.LBE5+0x64>
                    //自动化测试模式使用的分支条件
                    if(g_p_bt_stack_cur_info->rmt_dev[hfp_active_id].hfp_attr.sco_link == 0) {
bfc2627c:	9b40      	lw	v0,0(v1)
bfc2627e:	3324      	sll	v1,s1,1
bfc26280:	e32d      	addu	v1,s1
bfc26282:	336c      	sll	v1,3
bfc26284:	e34d      	addu	v1,v0
bfc26286:	a34e      	lbu	v0,14(v1)
bfc26288:	6801      	li	s0,1
bfc2628a:	e84c      	and	s0,v0
bfc2628c:	2818      	bnez	s0,bfc262be <get_message_loop+0xc2>
bfc2628e:	b243      	lw	v0,bfc26398 <.LBE5+0x78>
                        bt_engine_hfp_sco_disconnect_ind_handle();
bfc26290:	eac0      	jalrc	v0
bfc26292:	6c05      	li	a0,5
                        sys_os_time_dly(5);
bfc26294:	67b0      	move	a1,s0
bfc26296:	67d0      	move	a2,s0
bfc26298:	b241      	lw	v0,bfc2639c <.LBE5+0x7c>
bfc2629a:	ea40      	jalr	v0
bfc2629c:	6f31      	li	a3,49
bfc2629e:	100f      	b	bfc262be <get_message_loop+0xc2>
bfc262a0:	b23a      	lw	v0,bfc26388 <.LBE5+0x68>
                    }
                } else {
                    if((g_p_btcall_info->status <= BTCALL_STOP) || (g_p_btcall_info->status == BTCALL_PHONE)) {
bfc262a2:	9a40      	lw	v0,0(v0)
bfc262a4:	a240      	lbu	v0,0(v0)
bfc262a6:	5a02      	sltiu	v0,2
bfc262a8:	6102      	btnez	bfc262ae <get_message_loop+0xb2>
bfc262aa:	7205      	cmpi	v0,5
bfc262ac:	6108      	btnez	bfc262be <get_message_loop+0xc2>
bfc262ae:	b23b      	lw	v0,bfc26398 <.LBE5+0x78>
                        bt_engine_hfp_sco_disconnect_ind_handle();
bfc262b0:	eac0      	jalrc	v0
bfc262b2:	6c05      	li	a0,5
                        sys_os_time_dly(5);//留点时间asqt工具
bfc262b4:	6d00      	li	a1,0
bfc262b6:	67c5      	move	a2,a1
bfc262b8:	b239      	lw	v0,bfc2639c <.LBE5+0x7c>
bfc262ba:	ea40      	jalr	v0
bfc262bc:	6f31      	li	a3,49
bfc262be:	9205      	lw	v0,20(sp)
                    }
                }
            } else {
                ;//nothing
            }

#if 0
            PRINT_INFO_INT("hfp_sta_tmp", hfp_sta_tmp);
            PRINT_INFO_INT("last_hfp_status", last_hfp_status);
            PRINT_INFO_INT("callin_pb_back", btcall_gl_var.callin_pb_back);
#endif

            if(hfp_sta_tmp == HFP_STATUS_CALLING) {
bfc262c0:	7204      	cmpi	v0,4
bfc262c2:	6104      	btnez	bfc262cc <get_message_loop+0xd0>
bfc262c4:	b237      	lw	v0,bfc263a0 <.LBE5+0x80>
                g_dsp_init_parm.hfp_connect_mod = 1;
bfc262c6:	6b01      	li	v1,1
bfc262c8:	da7f      	sw	v1,124(v0)
bfc262ca:	1003      	b	bfc262d2 <get_message_loop+0xd6>
bfc262cc:	6b00      	li	v1,0
            } else {
                g_dsp_init_parm.hfp_connect_mod = 0;
bfc262ce:	b235      	lw	v0,bfc263a0 <.LBE5+0x80>
bfc262d0:	da7f      	sw	v1,124(v0)
bfc262d2:	b235      	lw	v0,bfc263a4 <.LBE5+0x84>
            }

            ((dsp_m4k_share_t *)g_agc_aec_shm_ptr)->pAEC_parm = (sv_prms_t *)ADDR_M4K2DSP(&g_dsp_init_parm); //转成dsp直接访问
bfc262d4:	9a80      	lw	a0,0(v0)
bfc262d6:	b233      	lw	v0,bfc263a0 <.LBE5+0x80>
bfc262d8:	b334      	lw	v1,bfc263a8 <.LBE5+0x88>
bfc262da:	ea6c      	and	v0,v1
bfc262dc:	3246      	srl	v0,1
bfc262de:	b334      	lw	v1,bfc263ac <.LBE5+0x8c>
bfc262e0:	ea6d      	or	v0,v1
bfc262e2:	dc40      	sw	v0,0(a0)
bfc262e4:	9205      	lw	v0,20(sp)

            //PRINT_INFO_INT("hfp_connect_mod", g_dsp_init_parm.hfp_connect_mod);

            if((hfp_sta_tmp != last_hfp_status)
bfc262e6:	9304      	lw	v1,16(sp)
bfc262e8:	ea6a      	cmp	v0,v1
bfc262ea:	6104      	btnez	bfc262f4 <get_message_loop+0xf8>
bfc262ec:	b325      	lw	v1,bfc26380 <.LBE5+0x60>
bfc262ee:	a349      	lbu	v0,9(v1)
bfc262f0:	7201      	cmpi	v0,1
bfc262f2:	6107      	btnez	bfc26302 <get_message_loop+0x106>
bfc262f4:	b22f      	lw	v0,bfc263b0 <.LBE5+0x90>
                    || (btcall_gl_var.callin_pb_back == 1)) {
                deal_callin();
bfc262f6:	eac0      	jalrc	v0
bfc262f8:	6a00      	li	v0,0
                btcall_gl_var.callin_pb_back = 0;
bfc262fa:	b322      	lw	v1,bfc26380 <.LBE5+0x60>
bfc262fc:	c349      	sb	v0,9(v1)
bfc262fe:	9205      	lw	v0,20(sp)
                last_hfp_status = hfp_sta_tmp;
bfc26300:	d204      	sw	v0,16(sp)
bfc26302:	b222      	lw	v0,bfc26388 <.LBE5+0x68>
            }

        }

        if((g_p_btcall_info->status == BTCALL_IDLE) || (g_p_btcall_info->status == BTCALL_STOP)) {
bfc26304:	9a40      	lw	v0,0(v0)
bfc26306:	a240      	lbu	v0,0(v0)
bfc26308:	5a02      	sltiu	v0,2
bfc2630a:	6007      	bteqz	bfc2631a <.LBB5>

bfc2630c <.LBB3>:
bfc2630c:	6b02      	li	v1,2
}

///修改后台引擎状态
static inline void change_engine_state(engine_state_e engine_state)
{
bfc2630e:	b22a      	lw	v0,bfc263b4 <.LBE5+0x94>
    g_app_info_state_all.engine_state = engine_state;
bfc26310:	c261      	sb	v1,1(v0)

bfc26312 <.LBE3>:
bfc26312:	6a01      	li	v0,1
            change_engine_state(ENGINE_STATE_PAUSE);
            btcall_gl_var.callin_ring_first = 1;
bfc26314:	b31b      	lw	v1,bfc26380 <.LBE5+0x60>
bfc26316:	c348      	sb	v0,8(v1)
bfc26318:	1003      	b	bfc26320 <.LBE5>

bfc2631a <.LBB5>:
bfc2631a:	b227      	lw	v0,bfc263b4 <.LBE5+0x94>

///修改后台引擎状态
static inline void change_engine_state(engine_state_e engine_state)
{
    g_app_info_state_all.engine_state = engine_state;
bfc2631c:	6b01      	li	v1,1
bfc2631e:	c261      	sb	v1,1(v0)

bfc26320 <.LBE5>:
bfc26320:	b226      	lw	v0,bfc263b8 <.LBE5+0x98>
        } else {
            change_engine_state(ENGINE_STATE_PLAYING);
        }

        //处理当前应用的私有消息
        result = btcall_deal_app_msg();
bfc26322:	eac0      	jalrc	v0
bfc26324:	6702      	move	s0,v0
bfc26326:	2a07      	bnez	v0,bfc26336 <.LBE5+0x16>
        if(result != RESULT_NULL) {
bfc26328:	6c01      	li	a0,1
            break;
        }

        //挂起10ms，多任务调度
        sys_os_time_dly(1);
bfc2632a:	67a2      	move	a1,v0
bfc2632c:	67c2      	move	a2,v0
bfc2632e:	b21c      	lw	v0,bfc2639c <.LBE5+0x7c>
bfc26330:	ea40      	jalr	v0
bfc26332:	6f31      	li	a3,49
bfc26334:	1769      	b	bfc26208 <get_message_loop+0xc>
bfc26336:	6c11      	li	a0,17
    }

    //销毁共享查询
    if(sys_share_query_destroy(APP_ID_BTCALLEG) == -1) {
bfc26338:	6d00      	li	a1,0
bfc2633a:	67c5      	move	a2,a1
bfc2633c:	b118      	lw	s1,bfc2639c <.LBE5+0x7c>
bfc2633e:	e940      	jalr	s1
bfc26340:	6f44      	li	a3,68
bfc26342:	ea4f      	not	v0
bfc26344:	2a06      	bnez	v0,bfc26352 <.LBE5+0x32>
bfc26346:	0c05      	la	a0,bfc26358 <.LBE5+0x38>
        PRINT_ERR("btcall share query destroy fail!\n");
bfc26348:	6d00      	li	a1,0
bfc2634a:	67c5      	move	a2,a1
bfc2634c:	e940      	jalr	s1
bfc2634e:	6f4b      	li	a3,75
bfc26350:	17ff      	b	bfc26350 <.LBE5+0x30>
        while(1) {
bfc26352:	6750      	move	v0,s0
            ;//nothing
        }
    }

    return result;
}
bfc26354:	6476      	restore	48,ra,s0-s1
bfc26356:	e8a0      	jrc	ra
bfc26358:	453c      	daddiu	s1,a1,-4
bfc2635a:	203e      	beqz	s0,bfc263d8 <handle_timers+0x1c>
bfc2635c:	7462      	cmpi	a0,98
bfc2635e:	6163      	btnez	bfc26426 <handle_timers+0x6a>
bfc26360:	6c6c      	li	a0,108
bfc26362:	7320      	cmpi	v1,32
bfc26364:	6168      	btnez	bfc26436 <handle_timers+0x7a>
bfc26366:	6572      	move	s3,v0
bfc26368:	7120      	cmpi	s1,32
bfc2636a:	6575      	move	s3,a1
bfc2636c:	7972      	sd	v1,144(s1)
bfc2636e:	6420      	restore	128,s0
bfc26370:	7365      	cmpi	v1,101
bfc26372:	7274      	cmpi	v0,116
bfc26374:	796f      	sd	v1,120(s1)
bfc26376:	6620      	0x6620
bfc26378:	6961      	li	s1,97
bfc2637a:	216c      	beqz	s1,bfc26454 <handle_timers+0x98>
bfc2637c:	000a      	addiu	s0,sp,40
bfc2637e:	0000      	addiu	s0,sp,0
bfc26380:	9650      	lw	a2,320(sp)
bfc26382:	9fc1      	lw	a2,4(a3)
bfc26384:	9674      	lw	a2,464(sp)
bfc26386:	9fc1      	lw	a2,4(a3)
bfc26388:	9680      	lw	a2,512(sp)
bfc2638a:	9fc1      	lw	a2,4(a3)
bfc2638c:	6101      	btnez	bfc26390 <.LBE5+0x70>
bfc2638e:	bfc2      	lwu	a2,8(a3)
bfc26390:	6cb9      	li	a0,185
bfc26392:	6012      	bteqz	bfc263b8 <.LBE5+0x98>
bfc26394:	95ac      	lw	a1,688(sp)
bfc26396:	9fc1      	lw	a2,4(a3)
bfc26398:	6d41      	li	a1,65
bfc2639a:	6012      	bteqz	bfc263c0 <handle_timers+0x4>
bfc2639c:	6009      	bteqz	bfc263b0 <.LBE5+0x90>
bfc2639e:	bfc2      	lwu	a2,8(a3)
bfc263a0:	96a4      	lw	a2,656(sp)
bfc263a2:	9fc1      	lw	a2,4(a3)
bfc263a4:	95a8      	lw	a1,672(sp)
bfc263a6:	9fc1      	lw	a2,4(a3)
bfc263a8:	ffff      	daddiu	a3,sp,124
bfc263aa:	0001      	addiu	s0,sp,4
bfc263ac:	0000      	addiu	s0,sp,0
bfc263ae:	0003      	addiu	s0,sp,12
bfc263b0:	6059      	bteqz	bfc26464 <handle_timers+0xa8>
bfc263b2:	bfc2      	lwu	a2,8(a3)
bfc263b4:	a094      	lbu	a0,20(s0)
bfc263b6:	9fc1      	lw	a2,4(a3)
bfc263b8:	601d      	bteqz	bfc263f4 <handle_timers+0x38>
bfc263ba:	bfc2      	lwu	a2,8(a3)

bfc263bc <handle_timers>:
bfc263bc:	f004 64f5 	save	a0,40,ra,s0-s1
bfc263c0:	ed11      	zeb	a1
bfc263c2:	6c00      	li	a0,0
bfc263c4:	b23a      	lw	v0,bfc264ac <handle_timers+0xf0>
bfc263c6:	d504      	sw	a1,16(sp)
bfc263c8:	6f1c      	li	a3,28
bfc263ca:	67a4      	move	a1,a0
bfc263cc:	ea40      	jalr	v0
bfc263ce:	67c4      	move	a2,a0
bfc263d0:	9304      	lw	v1,16(sp)
bfc263d2:	67e2      	move	a3,v0
bfc263d4:	6a00      	li	v0,0
bfc263d6:	d205      	sw	v0,20(sp)
bfc263d8:	2366      	beqz	v1,bfc264a6 <handle_timers+0xea>
bfc263da:	9405      	lw	a0,20(sp)
bfc263dc:	930a      	lw	v1,40(sp)
bfc263de:	3290      	sll	v0,a0,4
bfc263e0:	e351      	addu	a0,v1,v0
bfc263e2:	a4a0      	lbu	a1,0(a0)
bfc263e4:	6e03      	li	a2,3
bfc263e6:	edcc      	and	a1,a2
bfc263e8:	7501      	cmpi	a1,1
bfc263ea:	6156      	btnez	bfc26498 <handle_timers+0xdc>
bfc263ec:	b631      	lw	a2,bfc264b0 <handle_timers+0xf4>
bfc263ee:	a461      	lbu	v1,1(a0)
bfc263f0:	a6a0      	lbu	a1,0(a2)
bfc263f2:	ed6e      	xor	a1,v1
bfc263f4:	2502      	beqz	a1,bfc263fa <handle_timers+0x3e>
bfc263f6:	73ff      	cmpi	v1,255
bfc263f8:	614f      	btnez	bfc26498 <handle_timers+0xdc>
bfc263fa:	677d      	move	v1,sp
bfc263fc:	a354      	lbu	v0,20(v1)
bfc263fe:	b12e      	lw	s1,bfc264b4 <handle_timers+0xf8>
bfc26400:	6860      	li	s0,96
bfc26402:	c140      	sb	v0,0(s1)
bfc26404:	a460      	lbu	v1,0(a0)
bfc26406:	acc2      	lhu	a2,4(a0)
bfc26408:	e86c      	and	s0,v1
bfc2640a:	7020      	cmpi	s0,32
bfc2640c:	653e      	move	t9,a2
bfc2640e:	6101      	btnez	bfc26412 <handle_timers+0x56>
bfc26410:	acc3      	lhu	a2,6(a0)
bfc26412:	9ca2      	lw	a1,8(a0)
bfc26414:	e7c1      	addu	s0,a3,a2
bfc26416:	efa3      	sltu	a3,a1
bfc26418:	6900      	li	s1,0
bfc2641a:	612e      	btnez	bfc26478 <handle_timers+0xbc>
bfc2641c:	6910      	li	s1,16
bfc2641e:	e96c      	and	s1,v1
bfc26420:	2104      	beqz	s1,bfc2642a <handle_timers+0x6e>
bfc26422:	6904      	li	s1,4
bfc26424:	ea2b      	neg	v0,s1
bfc26426:	eb4c      	and	v1,v0
bfc26428:	c460      	sb	v1,0(a0)
bfc2642a:	e7af      	subu	v1,a3,a1
bfc2642c:	67f9      	move	a3,t9
bfc2642e:	ebe3      	sltu	v1,a3
bfc26430:	6901      	li	s1,1
bfc26432:	6003      	bteqz	bfc2643a <handle_timers+0x7e>
bfc26434:	e5c9      	addu	v0,a1,a2
bfc26436:	dc42      	sw	v0,8(a0)
bfc26438:	1001      	b	bfc2643c <handle_timers+0x80>
bfc2643a:	dc02      	sw	s0,8(a0)
bfc2643c:	a460      	lbu	v1,0(a0)
bfc2643e:	6d20      	li	a1,32
bfc26440:	ed6c      	and	a1,v1
bfc26442:	251a      	beqz	a1,bfc26478 <handle_timers+0xbc>
bfc26444:	6d40      	li	a1,64
bfc26446:	67c3      	move	a2,v1
bfc26448:	eeac      	and	a2,a1
bfc2644a:	2605      	beqz	a2,bfc26456 <handle_timers+0x9a>
bfc2644c:	6a41      	li	v0,65
bfc2644e:	ef4b      	neg	a3,v0
bfc26450:	ebec      	and	v1,a3
bfc26452:	c460      	sb	v1,0(a0)
bfc26454:	1011      	b	bfc26478 <handle_timers+0xbc>
bfc26456:	ebad      	or	v1,a1
bfc26458:	c460      	sb	v1,0(a0)
bfc2645a:	a462      	lbu	v1,2(a0)
bfc2645c:	67a3      	move	a1,v1
bfc2645e:	ed11      	zeb	a1
bfc26460:	75ff      	cmpi	a1,255
bfc26462:	6002      	bteqz	bfc26468 <handle_timers+0xac>
bfc26464:	43cf      	addiu	a2,v1,-1
bfc26466:	c4c2      	sb	a2,2(a0)
bfc26468:	a4a2      	lbu	a1,2(a0)
bfc2646a:	2d06      	bnez	a1,bfc26478 <handle_timers+0xbc>
bfc2646c:	a420      	lbu	s1,0(a0)
bfc2646e:	6f04      	li	a3,4
bfc26470:	ebeb      	neg	v1,a3
bfc26472:	e96c      	and	s1,v1
bfc26474:	c420      	sb	s1,0(a0)
bfc26476:	6725      	move	s1,a1
bfc26478:	9c42      	lw	v0,8(a0)
bfc2647a:	ea03      	sltu	v0,s0
bfc2647c:	6101      	btnez	bfc26480 <handle_timers+0xc4>
bfc2647e:	dc02      	sw	s0,8(a0)
bfc26480:	7101      	cmpi	s1,1
bfc26482:	6103      	btnez	bfc2648a <handle_timers+0xce>
bfc26484:	9c43      	lw	v0,12(a0)
bfc26486:	2201      	beqz	v0,bfc2648a <handle_timers+0xce>
bfc26488:	eac0      	jalrc	v0
bfc2648a:	6c00      	li	a0,0
bfc2648c:	b208      	lw	v0,bfc264ac <handle_timers+0xf0>
bfc2648e:	6f1c      	li	a3,28
bfc26490:	67a4      	move	a1,a0
bfc26492:	ea40      	jalr	v0
bfc26494:	67c4      	move	a2,a0
bfc26496:	67e2      	move	a3,v0
bfc26498:	9605      	lw	a2,20(sp)
bfc2649a:	9404      	lw	a0,16(sp)
bfc2649c:	46a1      	addiu	a1,a2,1
bfc2649e:	ed11      	zeb	a1
bfc264a0:	ed83      	sltu	a1,a0
bfc264a2:	d505      	sw	a1,20(sp)
bfc264a4:	619a      	btnez	bfc263da <handle_timers+0x1e>
bfc264a6:	6475      	restore	40,ra,s0-s1
bfc264a8:	e8a0      	jrc	ra
bfc264aa:	0000      	addiu	s0,sp,0
bfc264ac:	6009      	bteqz	bfc264c0 <get_app_msg+0x8>
bfc264ae:	bfc2      	lwu	a2,8(a3)
bfc264b0:	9599      	lw	a1,612(sp)
bfc264b2:	9fc1      	lw	a2,4(a3)
bfc264b4:	9598      	lw	a1,608(sp)
bfc264b6:	9fc1      	lw	a2,4(a3)

bfc264b8 <get_app_msg>:
bfc264b8:	64e3      	save	24,ra,s0
bfc264ba:	b20b      	lw	v0,bfc264e4 <get_app_msg+0x2c>
bfc264bc:	6704      	move	s0,a0
bfc264be:	a2a0      	lbu	a1,0(v0)
bfc264c0:	2504      	beqz	a1,bfc264ca <get_app_msg+0x12>
bfc264c2:	b60a      	lw	a2,bfc264e8 <get_app_msg+0x30>
bfc264c4:	b30a      	lw	v1,bfc264ec <get_app_msg+0x34>
bfc264c6:	eb40      	jalr	v1
bfc264c8:	9e80      	lw	a0,0(a2)
bfc264ca:	b40a      	lw	a0,bfc264f0 <get_app_msg+0x38>
bfc264cc:	b20a      	lw	v0,bfc264f4 <get_app_msg+0x3c>
bfc264ce:	9ca0      	lw	a1,0(a0)
bfc264d0:	6e00      	li	a2,0
bfc264d2:	a583      	lbu	a0,3(a1)
bfc264d4:	6f19      	li	a3,25
bfc264d6:	ea40      	jalr	v0
bfc264d8:	67b0      	move	a1,s0
bfc264da:	5a01      	sltiu	v0,1
bfc264dc:	6758      	move	v0,t8
bfc264de:	6463      	restore	24,ra,s0
bfc264e0:	e8a0      	jrc	ra
bfc264e2:	0000      	addiu	s0,sp,0
bfc264e4:	95a4      	lw	a1,656(sp)
bfc264e6:	9fc1      	lw	a2,4(a3)
bfc264e8:	9594      	lw	a1,592(sp)
bfc264ea:	9fc1      	lw	a2,4(a3)
bfc264ec:	63bd      	addiu	sp,-536
bfc264ee:	bfc2      	lwu	a2,8(a3)
bfc264f0:	959c      	lw	a1,624(sp)
bfc264f2:	9fc1      	lw	a2,4(a3)
bfc264f4:	6009      	bteqz	bfc26508 <dma_dac_start_transfer+0x10>
bfc264f6:	bfc2      	lwu	a2,8(a3)

bfc264f8 <dma_dac_start_transfer>:
bfc264f8:	b20f      	lw	v0,bfc26534 <dma_dac_start_transfer+0x3c>
void __section__(".text.dma_dac_start_transfer") dma_dac_start_transfer(void)
{
    while((act_readl(DMAIP) & 0x00000808) != 0) {
        //clear pending，注意不能使用读-或-写这种方式，避免清掉其他pending位
        act_writel(0x00000808, DMAIP);
bfc264fa:	6782      	move	a0,v0
bfc264fc:	f001 6b08 	li	v1,2056
bfc26500:	651b      	move	t8,v1
bfc26502:	9a40      	lw	v0,0(v0)
bfc26504:	ea6c      	and	v0,v1
bfc26506:	2207      	beqz	v0,bfc26516 <dma_dac_start_transfer+0x1e>
bfc26508:	6744      	move	v0,a0
bfc2650a:	6778      	move	v1,t8
bfc2650c:	dc60      	sw	v1,0(a0)
bfc2650e:	651b      	move	t8,v1
bfc26510:	9a40      	lw	v0,0(v0)
bfc26512:	ea6c      	and	v0,v1
bfc26514:	2af9      	bnez	v0,bfc26508 <dma_dac_start_transfer+0x10>
bfc26516:	b209      	lw	v0,bfc26538 <dma_dac_start_transfer+0x40>
    }
    if(0 == g_app_info_state_all.fix_sample_rate_flag) {
bfc26518:	a248      	lbu	v0,8(v0)
bfc2651a:	2a05      	bnez	v0,bfc26526 <dma_dac_start_transfer+0x2e>
bfc2651c:	b208      	lw	v0,bfc2653c <dma_dac_start_transfer+0x44>
        //reload enable
        act_writel(act_readl(DMA3CTL) | (1 << DMA3CTL_reload), DMA3CTL);
bfc2651e:	9a60      	lw	v1,0(v0)
bfc26520:	6c02      	li	a0,2
bfc26522:	eb8d      	or	v1,a0
bfc26524:	da60      	sw	v1,0(v0)
bfc26526:	b206      	lw	v0,bfc2653c <dma_dac_start_transfer+0x44>
    }
    //enable transfer
    act_writel(act_readl(DMA3CTL) | (1 << DMA3CTL_DMA3START), DMA3CTL);
bfc26528:	9a60      	lw	v1,0(v0)
bfc2652a:	6c01      	li	a0,1
bfc2652c:	eb8d      	or	v1,a0
bfc2652e:	da60      	sw	v1,0(v0)
bfc26530:	e8a0      	jrc	ra
}
bfc26532:	0000      	addiu	s0,sp,0
bfc26534:	0004      	addiu	s0,sp,16
bfc26536:	c00c      	sb	s0,12(s0)
bfc26538:	a094      	lbu	a0,20(s0)
bfc2653a:	9fc1      	lw	a2,4(a3)
bfc2653c:	0058      	addiu	s0,sp,352
bfc2653e:	c00c      	sb	s0,12(s0)

bfc26540 <task_timer10ms>:
bfc26540:	64c4      	save	32,ra
 * \  <author>       <time>        <opt>
 * \   Wekan       2015-4-1      creat
 *******************************************************************************/
void __section__(".rcode") task_timer10ms(void)
{
bfc26542:	b30d      	lw	v1,bfc26574 <task_timer10ms+0x34>
    static  uint16 task_timer_dly = 0;
    static PC_curStatus_e last_pc_tool_status = sNotReady;
    PC_curStatus_e pc_tool_status;

    if(task_timer_dly  < 500) { //避免跟tts冲突
bfc26544:	ab40      	lhu	v0,0(v1)
bfc26546:	f1e0 5a14 	sltiu	v0,500
bfc2654a:	600a      	bteqz	bfc26560 <task_timer10ms+0x20>
bfc2654c:	ab40      	lhu	v0,0(v1)
        task_timer_dly++;
bfc2654e:	4241      	addiu	v0,v0,1
bfc26550:	cb40      	sh	v0,0(v1)
bfc26552:	ab40      	lhu	v0,0(v1)
        if(task_timer_dly == 500) {
bfc26554:	f1e0 7214 	cmpi	v0,500
bfc26558:	610b      	btnez	bfc26570 <task_timer10ms+0x30>
bfc2655a:	b208      	lw	v0,bfc26578 <task_timer10ms+0x38>
            reset_aec_asqt();
bfc2655c:	eac0      	jalrc	v0
bfc2655e:	1008      	b	bfc26570 <task_timer10ms+0x30>
        }
        return;
bfc26560:	b207      	lw	v0,bfc2657c <task_timer10ms+0x3c>
    }

    pc_tool_status = stub_asqt_tools_status();
bfc26562:	eac0      	jalrc	v0
bfc26564:	677d      	move	v1,sp
bfc26566:	c350      	sb	v0,16(v1)
bfc26568:	b406      	lw	a0,bfc26580 <task_timer10ms+0x40>

    btcall_eg_stub_8k(&last_pc_tool_status, &pc_tool_status);
bfc2656a:	b207      	lw	v0,bfc26584 <task_timer10ms+0x44>
bfc2656c:	ea40      	jalr	v0
bfc2656e:	0504      	addiu	a1,sp,16
bfc26570:	6444      	restore	32,ra
}
bfc26572:	e8a0      	jrc	ra
bfc26574:	968e      	lw	a2,568(sp)
bfc26576:	9fc1      	lw	a2,4(a3)
bfc26578:	6bf5      	li	v1,245
bfc2657a:	6016      	bteqz	bfc265a8 <stub_asqt_tools_status+0x20>
bfc2657c:	6589      	move	t4,s1
bfc2657e:	bfc2      	lwu	a2,8(a3)
bfc26580:	9690      	lw	a2,576(sp)
bfc26582:	9fc1      	lw	a2,4(a3)
bfc26584:	6f91      	li	a3,145
bfc26586:	601a      	bteqz	bfc265bc <stub_asqt_tools_status+0x34>

bfc26588 <stub_asqt_tools_status>:
bfc26588:	64f6      	save	48,ra,s0-s1



/******************************************************************************/
/*!
 * \par  Description:
 *   定时获取pc-tool的状态
 * \param[in]    none
 * \param[out]   none
 * \return       返回最后获取的pc-tool的状态
 * \  <author>       <time>        <opt>
 * \   Wekan       2015-4-1      creat
 *******************************************************************************/
PC_curStatus_e __section__(".rcode") stub_asqt_tools_status(void)
{
bfc2658a:	6c00      	li	a0,0

    static uint32 get_sta_timer_ab = 0;//获取两时间点，读pc-tool状态
    static PC_curStatus_e pc_tool_status = sNotReady;//pc-tool状态
    uint32 sys_time;
    PC_curStatus_e pc_status_new;
    uint32 pbuf[4];
    sys_time = sys_get_ab_timer();
bfc2658c:	67a4      	move	a1,a0
bfc2658e:	67c4      	move	a2,a0
bfc26590:	b21a      	lw	v0,bfc265f8 <stub_asqt_tools_status+0x70>
bfc26592:	ea40      	jalr	v0
bfc26594:	6f1c      	li	a3,28
bfc26596:	6702      	move	s0,v0
bfc26598:	b219      	lw	v0,bfc265fc <stub_asqt_tools_status+0x74>
    if(sys_time > (get_sta_timer_ab + 500)) { //500ms读一次
bfc2659a:	9a40      	lw	v0,0(v0)
bfc2659c:	f1e0 4a14 	addiu	v0,500
bfc265a0:	ea03      	sltu	v0,s0
bfc265a2:	6026      	bteqz	bfc265f0 <stub_asqt_tools_status+0x68>
bfc265a4:	b217      	lw	v0,bfc26600 <stub_asqt_tools_status+0x78>
        pc_status_new = (PC_curStatus_e)stub_asqt_get_status(pbuf);
bfc265a6:	ea40      	jalr	v0
bfc265a8:	0404      	addiu	a0,sp,16
bfc265aa:	6722      	move	s1,v0
bfc265ac:	e911      	zeb	s1
bfc265ae:	7104      	cmpi	s1,4
        if((pc_status_new == sUserUpdate) ||
bfc265b0:	6006      	bteqz	bfc265be <stub_asqt_tools_status+0x36>
bfc265b2:	7105      	cmpi	s1,5
bfc265b4:	6111      	btnez	bfc265d8 <stub_asqt_tools_status+0x50>
bfc265b6:	b214      	lw	v0,bfc26604 <stub_asqt_tools_status+0x7c>
bfc265b8:	a240      	lbu	v0,0(v0)
bfc265ba:	ea2e      	xor	v0,s1
bfc265bc:	220d      	beqz	v0,bfc265d8 <stub_asqt_tools_status+0x50>
bfc265be:	b213      	lw	v0,bfc26608 <stub_asqt_tools_status+0x80>
                ((pc_status_new == sUserStart) && (pc_tool_status != pc_status_new))
          ) {
            stub_asqt_get_parameter(g_pAsqtRam->rev_buf, &g_asqt_parm.AsqtCfg);
bfc265c0:	9a80      	lw	a0,0(v0)
bfc265c2:	f005 4c00 	addiu	a0,10240
bfc265c6:	b512      	lw	a1,bfc2660c <stub_asqt_tools_status+0x84>
bfc265c8:	b212      	lw	v0,bfc26610 <stub_asqt_tools_status+0x88>
bfc265ca:	eac0      	jalrc	v0
bfc265cc:	b213      	lw	v0,bfc26614 <stub_asqt_tools_status+0x8c>
            g_asqt_parm.asqt_volume = stub_asqt_get_volums(pbuf);
bfc265ce:	ea40      	jalr	v0
bfc265d0:	0404      	addiu	a0,sp,16
bfc265d2:	b311      	lw	v1,bfc26614 <stub_asqt_tools_status+0x8c>
bfc265d4:	f0e0 db50 	sw	v0,240(v1)
bfc265d8:	7106      	cmpi	s1,6
        }

        if(pc_status_new == sUserSetParam) {
bfc265da:	6106      	btnez	bfc265e8 <stub_asqt_tools_status+0x60>
bfc265dc:	b20b      	lw	v0,bfc26608 <stub_asqt_tools_status+0x80>
            stub_asqt_down_param(g_pAsqtRam->rev_buf);
bfc265de:	9a80      	lw	a0,0(v0)
bfc265e0:	f005 4c00 	addiu	a0,10240
bfc265e4:	b20e      	lw	v0,bfc2661c <stub_asqt_tools_status+0x94>
bfc265e6:	eac0      	jalrc	v0
bfc265e8:	b207      	lw	v0,bfc26600 <stub_asqt_tools_status+0x78>
        }
        pc_tool_status = pc_status_new;
bfc265ea:	c220      	sb	s1,0(v0)
bfc265ec:	b204      	lw	v0,bfc265fc <stub_asqt_tools_status+0x74>
        get_sta_timer_ab = sys_time;
bfc265ee:	da00      	sw	s0,0(v0)
bfc265f0:	b205      	lw	v0,bfc26604 <stub_asqt_tools_status+0x7c>
    }
    return pc_tool_status;
bfc265f2:	a240      	lbu	v0,0(v0)
}
bfc265f4:	6476      	restore	48,ra,s0-s1
bfc265f6:	e8a0      	jrc	ra
bfc265f8:	6009      	bteqz	bfc2660c <stub_asqt_tools_status+0x84>
bfc265fa:	bfc2      	lwu	a2,8(a3)
bfc265fc:	9694      	lw	a2,592(sp)
bfc265fe:	9fc1      	lw	a2,4(a3)
bfc26600:	69e1      	li	s1,225
bfc26602:	601a      	bteqz	bfc26638 <task_timer10ms_16k+0x18>
bfc26604:	9698      	lw	a2,608(sp)
bfc26606:	9fc1      	lw	a2,4(a3)
bfc26608:	969c      	lw	a2,624(sp)
bfc2660a:	9fc1      	lw	a2,4(a3)
bfc2660c:	975c      	lw	a3,368(sp)
bfc2660e:	9fc1      	lw	a2,4(a3)
bfc26610:	69fd      	li	s1,253
bfc26612:	601a      	bteqz	bfc26648 <task_timer10ms_16k+0x28>
bfc26614:	9724      	lw	a3,144(sp)
bfc26616:	9fc1      	lw	a2,4(a3)
bfc26618:	69c5      	li	s1,197
bfc2661a:	601a      	bteqz	bfc26650 <task_timer10ms_16k+0x30>
bfc2661c:	6b49      	li	v1,73
bfc2661e:	6016      	bteqz	bfc2664c <task_timer10ms_16k+0x2c>

bfc26620 <task_timer10ms_16k>:
bfc26620:	64c4      	save	32,ra
    }
}

void __section__(".rcode") task_timer10ms_16k(void)
{
bfc26622:	b314      	lw	v1,bfc26670 <.LBE2+0x6>
    static  uint16 task_timer_dly = 0;
    static PC_curStatus_e last_pc_tool_status = sNotReady;
    PC_curStatus_e pc_tool_status;
//  bool reset_dsp_falg = FALSE;

    if(task_timer_dly  < 500) { //避免跟tts冲突
bfc26624:	ab40      	lhu	v0,0(v1)
bfc26626:	f1e0 5a14 	sltiu	v0,500
bfc2662a:	600a      	bteqz	bfc26640 <task_timer10ms_16k+0x20>
bfc2662c:	ab40      	lhu	v0,0(v1)
        task_timer_dly++;
bfc2662e:	4241      	addiu	v0,v0,1
bfc26630:	cb40      	sh	v0,0(v1)
bfc26632:	ab40      	lhu	v0,0(v1)
        if(task_timer_dly == 500) {
bfc26634:	f1e0 7214 	cmpi	v0,500
bfc26638:	6118      	btnez	bfc2666a <.LBE2>
bfc2663a:	b20f      	lw	v0,bfc26674 <.LBE2+0xa>
            reset_aec_asqt_16k();
bfc2663c:	eac0      	jalrc	v0
bfc2663e:	1015      	b	bfc2666a <.LBE2>
        }
        return;
bfc26640:	b20e      	lw	v0,bfc26678 <.LBE2+0xe>
    }

    if(g_stub_8k_16k == 1) {
bfc26642:	a240      	lbu	v0,0(v0)
bfc26644:	7201      	cmpi	v0,1
bfc26646:	6109      	btnez	bfc2665a <.LBB2>
bfc26648:	b20d      	lw	v0,bfc2667c <.LBE2+0x12>
//      PRINT_INFO("16k");
        pc_tool_status = stub_asqt_tools_status_16k();
bfc2664a:	eac0      	jalrc	v0
bfc2664c:	677d      	move	v1,sp
bfc2664e:	c350      	sb	v0,16(v1)
bfc26650:	b40c      	lw	a0,bfc26680 <.LBE2+0x16>
        btcall_eg_stub_16k(&last_pc_tool_status, &pc_tool_status);
bfc26652:	b20d      	lw	v0,bfc26684 <.LBE2+0x1a>
bfc26654:	ea40      	jalr	v0
bfc26656:	0504      	addiu	a1,sp,16
bfc26658:	1008      	b	bfc2666a <.LBE2>

bfc2665a <.LBB2>:
bfc2665a:	b20c      	lw	v0,bfc26688 <.LBE2+0x1e>
    } else {
//      PRINT_INFO("8k");
        pc_tool_status = stub_asqt_tools_status();
bfc2665c:	eac0      	jalrc	v0
bfc2665e:	677d      	move	v1,sp
bfc26660:	c350      	sb	v0,16(v1)
bfc26662:	b408      	lw	a0,bfc26680 <.LBE2+0x16>
        btcall_eg_stub_8k(&last_pc_tool_status, &pc_tool_status);
bfc26664:	b20a      	lw	v0,bfc2668c <.LBE2+0x22>
bfc26666:	ea40      	jalr	v0
bfc26668:	0504      	addiu	a1,sp,16

bfc2666a <.LBE2>:
bfc2666a:	6444      	restore	32,ra
    }
}
bfc2666c:	e8a0      	jrc	ra
bfc2666e:	0000      	addiu	s0,sp,0
bfc26670:	982a      	lw	s1,40(s0)
bfc26672:	9fc1      	lw	a2,4(a3)
bfc26674:	6ba9      	li	v1,169
bfc26676:	601e      	bteqz	bfc266b4 <stub_asqt_tools_status_16k+0x24>
bfc26678:	95ad      	lw	a1,692(sp)
bfc2667a:	9fc1      	lw	a2,4(a3)
bfc2667c:	6691      	0x6691
bfc2667e:	bfc2      	lwu	a2,8(a3)
bfc26680:	982c      	lw	s1,48(s0)
bfc26682:	9fc1      	lw	a2,4(a3)
bfc26684:	6d01      	li	a1,1
bfc26686:	6022      	bteqz	bfc266cc <stub_asqt_tools_status_16k+0x3c>
bfc26688:	6589      	move	t4,s1
bfc2668a:	bfc2      	lwu	a2,8(a3)
bfc2668c:	6f91      	li	a3,145
bfc2668e:	601a      	bteqz	bfc266c4 <stub_asqt_tools_status_16k+0x34>

bfc26690 <stub_asqt_tools_status_16k>:
bfc26690:	64f6      	save	48,ra,s0-s1

PC_curStatus_e __section__(".rcode") stub_asqt_tools_status_16k(void)
{
bfc26692:	6c00      	li	a0,0
    static uint32 get_sta_timer_ab = 0;//获取两时间点，读pc-tool状态
    static PC_curStatus_e pc_tool_status = sNotReady;//pc-tool状态
    uint32 sys_time;
    PC_curStatus_e pc_status_new;
    uint32 pbuf[4];
    sys_time = sys_get_ab_timer();
bfc26694:	67a4      	move	a1,a0
bfc26696:	67c4      	move	a2,a0
bfc26698:	b21a      	lw	v0,bfc26700 <.LBE3+0x12>
bfc2669a:	ea40      	jalr	v0
bfc2669c:	6f1c      	li	a3,28
bfc2669e:	6702      	move	s0,v0
bfc266a0:	b219      	lw	v0,bfc26704 <.LBE3+0x16>
    if(sys_time > (get_sta_timer_ab + 500)) { //500ms读一次
bfc266a2:	9a40      	lw	v0,0(v0)
bfc266a4:	f1e0 4a14 	addiu	v0,500
bfc266a8:	ea03      	sltu	v0,s0
bfc266aa:	6025      	bteqz	bfc266f6 <.LBE3+0x8>
bfc266ac:	b217      	lw	v0,bfc26708 <.LBE3+0x1a>
        pc_status_new = (PC_curStatus_e)stub_asqt_get_status_16k(pbuf);
bfc266ae:	ea40      	jalr	v0
bfc266b0:	0404      	addiu	a0,sp,16
bfc266b2:	6722      	move	s1,v0
bfc266b4:	e911      	zeb	s1
bfc266b6:	7104      	cmpi	s1,4
        if((pc_status_new == sUserUpdate) ||
bfc266b8:	6006      	bteqz	bfc266c6 <stub_asqt_tools_status_16k+0x36>
bfc266ba:	7105      	cmpi	s1,5
bfc266bc:	6110      	btnez	bfc266de <stub_asqt_tools_status_16k+0x4e>
bfc266be:	b214      	lw	v0,bfc2670c <.LBE3+0x1e>
bfc266c0:	a240      	lbu	v0,0(v0)
bfc266c2:	ea2e      	xor	v0,s1
bfc266c4:	220c      	beqz	v0,bfc266de <stub_asqt_tools_status_16k+0x4e>
bfc266c6:	b213      	lw	v0,bfc26710 <.LBE3+0x22>
                ((pc_status_new == sUserStart) && (pc_tool_status != pc_status_new))
          ) {
            stub_asqt_get_parameter_16k(g_pAsqtRam_16k->rev_buf, &g_asqt_parm_16k.AsqtCfg);
bfc266c8:	9a80      	lw	a0,0(v0)
bfc266ca:	f005 4c00 	addiu	a0,10240
bfc266ce:	b512      	lw	a1,bfc26714 <.LBE3+0x26>
bfc266d0:	b212      	lw	v0,bfc26718 <.LBE3+0x2a>
bfc266d2:	eac0      	jalrc	v0
bfc266d4:	b212      	lw	v0,bfc26718 <.LBE3+0x2a>
            g_asqt_parm_16k.asqt_volume = stub_asqt_get_volums_16k(pbuf);
bfc266d6:	ea40      	jalr	v0
bfc266d8:	0404      	addiu	a0,sp,16
bfc266da:	b30f      	lw	v1,bfc26714 <.LBE3+0x26>
bfc266dc:	db5b      	sw	v0,108(v1)
bfc266de:	7106      	cmpi	s1,6
//          g_asqt_parm.asqt_volume = g_asqt_parm_16k.asqt_volume;
        }

        if(pc_status_new == sUserSetParam) {
bfc266e0:	6106      	btnez	bfc266ee <.LBE3>

bfc266e2 <.LBB3>:
bfc266e2:	b20c      	lw	v0,bfc26710 <.LBE3+0x22>
            stub_asqt_down_param_16k(g_pAsqtRam_16k->rev_buf);
bfc266e4:	9a80      	lw	a0,0(v0)
bfc266e6:	f005 4c00 	addiu	a0,10240
bfc266ea:	b20e      	lw	v0,bfc26720 <.LBE3+0x32>
bfc266ec:	eac0      	jalrc	v0

bfc266ee <.LBE3>:
bfc266ee:	b208      	lw	v0,bfc2670c <.LBE3+0x1e>
        }
        pc_tool_status = pc_status_new;
bfc266f0:	c220      	sb	s1,0(v0)
bfc266f2:	b205      	lw	v0,bfc26704 <.LBE3+0x16>
        get_sta_timer_ab = sys_time;
bfc266f4:	da00      	sw	s0,0(v0)
bfc266f6:	b206      	lw	v0,bfc2670c <.LBE3+0x1e>
    }
    return pc_tool_status;
bfc266f8:	a240      	lbu	v0,0(v0)
}
bfc266fa:	6476      	restore	48,ra,s0-s1
bfc266fc:	e8a0      	jrc	ra
bfc266fe:	0000      	addiu	s0,sp,0
bfc26700:	6009      	bteqz	bfc26714 <.LBE3+0x26>
bfc26702:	bfc2      	lwu	a2,8(a3)
bfc26704:	9830      	lw	s1,64(s0)
bfc26706:	9fc1      	lw	a2,4(a3)
bfc26708:	69a9      	li	s1,169
bfc2670a:	6022      	bteqz	bfc26750 <ring_dma_isr+0x2c>
bfc2670c:	9834      	lw	s1,80(s0)
bfc2670e:	9fc1      	lw	a2,4(a3)
bfc26710:	9838      	lw	s1,96(s0)
bfc26712:	9fc1      	lw	a2,4(a3)
bfc26714:	9878      	lw	v1,96(s0)
bfc26716:	9fc1      	lw	a2,4(a3)
bfc26718:	69c5      	li	s1,197
bfc2671a:	6022      	bteqz	bfc26760 <ring_dma_isr+0x3c>
bfc2671c:	698d      	li	s1,141
bfc2671e:	6022      	bteqz	bfc26764 <ring_dma_isr+0x40>
bfc26720:	6afd      	li	v0,253
bfc26722:	601e      	bteqz	bfc26760 <ring_dma_isr+0x3c>

bfc26724 <ring_dma_isr>:
bfc26724:	b40b      	lw	a0,bfc26750 <ring_dma_isr+0x2c>

__section__(".text.irq")int ring_dma_isr(void)
{
    uint8 tempdata = 0;
    if((act_readl(DMAIP) & 0x00000008) != 0) { //trans complete
bfc26726:	9c40      	lw	v0,0(a0)
bfc26728:	6b08      	li	v1,8
bfc2672a:	ea6c      	and	v0,v1
bfc2672c:	2205      	beqz	v0,bfc26738 <ring_dma_isr+0x14>
bfc2672e:	dc60      	sw	v1,0(a0)
        //clear pending，注意不能使用读-或-写这种方式，避免清掉其他pending位
        act_writel(0x00000008, DMAIP);
bfc26730:	6b01      	li	v1,1

        g_ff_flag = 1;
bfc26732:	b209      	lw	v0,bfc26754 <ring_dma_isr+0x30>
bfc26734:	c260      	sb	v1,0(v0)
bfc26736:	100a      	b	bfc2674c <ring_dma_isr+0x28>
bfc26738:	b406      	lw	a0,bfc26750 <ring_dma_isr+0x2c>
    } else if((act_readl(DMAIP) & 0x00000800) != 0) { //half transed
bfc2673a:	9c40      	lw	v0,0(a0)
bfc2673c:	f001 6b00 	li	v1,2048
bfc26740:	ea6c      	and	v0,v1
bfc26742:	2204      	beqz	v0,bfc2674c <ring_dma_isr+0x28>
bfc26744:	dc60      	sw	v1,0(a0)
        //clear pending，注意不能使用读-或-写这种方式，避免清掉其他pending位
        act_writel(0x00000800, DMAIP);
bfc26746:	6b01      	li	v1,1

        g_hf_flag = 1;
bfc26748:	b204      	lw	v0,bfc26758 <ring_dma_isr+0x34>
bfc2674a:	c260      	sb	v1,0(v0)
bfc2674c:	e820      	jr	ra
    } else {
        ;//nothing
    }
    return tempdata;
}
bfc2674e:	6a00      	li	v0,0
bfc26750:	0004      	addiu	s0,sp,16
bfc26752:	c00c      	sb	s0,12(s0)
bfc26754:	98ea      	lw	a3,40(s0)
bfc26756:	9fc1      	lw	a2,4(a3)
bfc26758:	98e9      	lw	a3,36(s0)
bfc2675a:	9fc1      	lw	a2,4(a3)
Disassembly of section BANK_CONTROL_1_0:

60026800 <process_start>:
60026800:	64d4      	save	32,ra,s1
60026802:	0104      	addiu	s1,sp,16
60026804:	d984      	sw	a0,16(s1)
60026806:	9944      	lw	v0,16(s1)
60026808:	6782      	move	a0,v0
6002680a:	6d00      	li	a1,0
6002680c:	b207      	lw	v0,60026828 <BANK_CONTROL_1_ADDR_BASE+0x28>
6002680e:	eac0      	jalrc	v0
60026810:	c140      	sb	v0,0(s1)
60026812:	8140      	lb	v0,0(s1)
60026814:	6782      	move	a0,v0
60026816:	6d00      	li	a1,0
60026818:	6e00      	li	a2,0
6002681a:	6f0e      	li	a3,14
6002681c:	b204      	lw	v0,6002682c <BANK_CONTROL_1_ADDR_BASE+0x2c>
6002681e:	eac0      	jalrc	v0
60026820:	6a00      	li	v0,0
60026822:	65b9      	move	sp,s1
60026824:	6452      	restore	16,ra,s1
60026826:	e8a0      	jrc	ra
60026828:	6c5d      	li	a0,93
6002682a:	6006      	bteqz	60026838 <__start+0x8>
6002682c:	6005      	bteqz	60026838 <__start+0x8>
6002682e:	bfc2      	lwu	a2,8(a3)

60026830 <__start>:
60026830:	64d6      	save	48,ra,s1
60026832:	0104      	addiu	s1,sp,16
60026834:	d988      	sw	a0,32(s1)
60026836:	d9a9      	sw	a1,36(s1)
60026838:	6c00      	li	a0,0
6002683a:	6d00      	li	a1,0
6002683c:	6e00      	li	a2,0
6002683e:	6f10      	li	a3,16
60026840:	b220      	lw	v0,600268c0 <__start+0x90>
60026842:	eac0      	jalrc	v0
60026844:	c150      	sb	v0,16(s1)
60026846:	8170      	lb	v1,16(s1)
60026848:	6a01      	li	v0,1
6002684a:	ea4b      	neg	v0
6002684c:	ea6e      	xor	v0,v1
6002684e:	5a01      	sltiu	v0,1
60026850:	6004      	bteqz	6002685a <__start+0x2a>
60026852:	6a01      	li	v0,1
60026854:	ea4b      	neg	v0
60026856:	d945      	sw	v0,20(s1)
60026858:	102e      	b	600268b6 <__start+0x86>
6002685a:	b21b      	lw	v0,600268c4 <__start+0x94>
6002685c:	d940      	sw	v0,0(s1)
6002685e:	9948      	lw	v0,32(s1)
60026860:	d941      	sw	v0,4(s1)
60026862:	9949      	lw	v0,36(s1)
60026864:	9a41      	lw	v0,4(v0)
60026866:	d942      	sw	v0,8(s1)
60026868:	9949      	lw	v0,36(s1)
6002686a:	aa41      	lhu	v0,2(v0)
6002686c:	c946      	sh	v0,12(s1)
6002686e:	6c00      	li	a0,0
60026870:	6d00      	li	a1,0
60026872:	6e00      	li	a2,0
60026874:	6f33      	li	a3,51
60026876:	b215      	lw	v0,600268c8 <__start+0x98>
60026878:	eac0      	jalrc	v0
6002687a:	9949      	lw	v0,36(s1)
6002687c:	aa40      	lhu	v0,0(v0)
6002687e:	8170      	lb	v1,16(s1)
60026880:	6791      	move	a0,s1
60026882:	67a2      	move	a1,v0
60026884:	67c3      	move	a2,v1
60026886:	6f4a      	li	a3,74
60026888:	b210      	lw	v0,600268c8 <__start+0x98>
6002688a:	eac0      	jalrc	v0
6002688c:	5200      	slti	v0,0
6002688e:	6011      	bteqz	600268b2 <__start+0x82>
60026890:	8150      	lb	v0,16(s1)
60026892:	6782      	move	a0,v0
60026894:	6d00      	li	a1,0
60026896:	6e00      	li	a2,0
60026898:	6f11      	li	a3,17
6002689a:	b20a      	lw	v0,600268c0 <__start+0x90>
6002689c:	eac0      	jalrc	v0
6002689e:	6c00      	li	a0,0
600268a0:	6d00      	li	a1,0
600268a2:	6e00      	li	a2,0
600268a4:	6f34      	li	a3,52
600268a6:	b209      	lw	v0,600268c8 <__start+0x98>
600268a8:	eac0      	jalrc	v0
600268aa:	6a01      	li	v0,1
600268ac:	ea4b      	neg	v0
600268ae:	d945      	sw	v0,20(s1)
600268b0:	1002      	b	600268b6 <__start+0x86>
600268b2:	6a00      	li	v0,0
600268b4:	d945      	sw	v0,20(s1)
600268b6:	9945      	lw	v0,20(s1)
600268b8:	65b9      	move	sp,s1
600268ba:	6454      	restore	32,ra,s1
600268bc:	e8a0      	jrc	ra
600268be:	0000      	addiu	s0,sp,0
600268c0:	6005      	bteqz	600268cc <__start+0x9c>
600268c2:	bfc2      	lwu	a2,8(a3)
600268c4:	6801      	li	s0,1
600268c6:	6002      	bteqz	600268cc <__start+0x9c>
600268c8:	6009      	bteqz	600268dc <__start+0xac>
600268ca:	bfc2      	lwu	a2,8(a3)
Disassembly of section BANK_CONTROL_1_1:

60066800 <actaec_init_sv_prms>:
60066800:	64f4      	save	32,ra,s0-s1
 * \   Wekan       2015-3-30     reviwe
 *******************************************************************************/

void actaec_init_sv_prms(sv_prms_t *sv_prms)
{
60066802:	b24b      	lw	v0,6006692c <actaec_init_sv_prms+0x12c>
    int tmp_value;

    if(actaec_init_sv_prms_from_VM(sv_prms) == TRUE) {
60066804:	ea40      	jalr	v0
60066806:	6724      	move	s1,a0
60066808:	7201      	cmpi	v0,1
6006680a:	6107      	btnez	6006681a <actaec_init_sv_prms+0x1a>
6006680c:	b249      	lw	v0,60066930 <actaec_init_sv_prms+0x130>
        if(g_stub_8k_16k == 1) {
6006680e:	a240      	lbu	v0,0(v0)
60066810:	7201      	cmpi	v0,1
60066812:	617c      	btnez	6006690c <actaec_init_sv_prms+0x10c>
60066814:	6a40      	li	v0,64
            sv_prms->aec_prms.tail_length = 64;
60066816:	d943      	sw	v0,12(s1)
60066818:	1079      	b	6006690c <actaec_init_sv_prms+0x10c>
        }
        return;
6006681a:	6a10      	li	v0,16
    }
    sv_prms->frame_size = 16; //帧长时间，单位ms，目前仅支持 16ms 帧长
6006681c:	d940      	sw	v0,0(s1)
6006681e:	f723 4a10 	addiu	v0,7984
    sv_prms->sampling_rate = 8000; //采样率，单位Hz，目前仅支持 8000Hz 采样率
60066822:	f180 6c06 	li	a0,390

    // aec prms
    //aec模块开关，1：打开，0：关闭
    sv_prms->aec_prms.aec_enable = (uint8) com_get_config_default(BTCALL_AEC_MODULE_ENABLE);
60066826:	b044      	lw	s0,60066934 <actaec_init_sv_prms+0x134>
60066828:	e840      	jalr	s0
6006682a:	d941      	sw	v0,4(s1)
6006682c:	ea11      	zeb	v0
6006682e:	f180 6c11 	li	a0,401
    //回声尾长，单位 ms，可支持32ms，64ms，96ms，128ms
    sv_prms->aec_prms.tail_length = (uint8) com_get_config_default(BTCALL_AEC_TAIL_LENGTH);
60066832:	e840      	jalr	s0
60066834:	d942      	sw	v0,8(s1)
60066836:	ea11      	zeb	v0
60066838:	d943      	sw	v0,12(s1)
6006683a:	b23e      	lw	v0,60066930 <actaec_init_sv_prms+0x130>
    if(g_stub_8k_16k == 1) {
6006683c:	a240      	lbu	v0,0(v0)
6006683e:	7201      	cmpi	v0,1
60066840:	6102      	btnez	60066846 <actaec_init_sv_prms+0x46>
60066842:	6a40      	li	v0,64
        sv_prms->aec_prms.tail_length = 64;
60066844:	d943      	sw	v0,12(s1)
60066846:	f180 6c07 	li	a0,391
    }

    //非线性处理子模块开关，1：打开，0：关闭，为 1 时必须保证 aec_enable 为 1
    tmp_value = (int)(uint32) com_get_config_default(BTCALL_AEC_NLP_ENABLE);
6006684a:	b03b      	lw	s0,60066934 <actaec_init_sv_prms+0x134>
6006684c:	e8c0      	jalrc	s0
6006684e:	f180 6c08 	li	a0,392

    sv_prms->aec_prms.nlp_enable = tmp_value; //默认为1
    //非线性处理程度，整数0~15,越大代表非线性处理越厉害
    tmp_value = (int)(uint32) com_get_config_default(BTCALL_AEC_NLP_AGGRESSIVENESS);
60066852:	e840      	jalr	s0
60066854:	d944      	sw	v0,16(s1)
60066856:	f180 6c09 	li	a0,393
    sv_prms->aec_prms.nlp_aggressiveness = tmp_value; //默认为10
    //双讲近端语音保留程度，整数0~15，越大表示双讲是近端语音保留越多，但是可能会带来单讲的回声，需找个折中值。
    tmp_value = (int)(uint32) com_get_config_default(BTCALL_AEC_DT_THRESHOLD);
6006685a:	e840      	jalr	s0
6006685c:	d945      	sw	v0,20(s1)
6006685e:	f180 6c0a 	li	a0,394
    sv_prms->aec_prms.dt_threshold = tmp_value;//默认为5
    //残留回声抑制子模块开关，1：打开，0：关闭，为 1 时必须保证 aec_enable 为1
    tmp_value = (int)(uint32) com_get_config_default(BTCALL_AEC_AES_ENABLE);
60066862:	e840      	jalr	s0
60066864:	d946      	sw	v0,24(s1)
60066866:	f180 6c0b 	li	a0,395
    sv_prms->aec_prms.aes_enable = tmp_value;//默认为1
    //回声抑制子模块单讲回声抑制比，单位dB， 0~40
    tmp_value = (int)(uint32) com_get_config_default(BTCALL_AEC_ECHO_SUPPRESS);
6006686a:	e840      	jalr	s0
6006686c:	d947      	sw	v0,28(s1)
6006686e:	f180 6c0c 	li	a0,396
    sv_prms->aec_prms.echo_suppress = tmp_value;//默认为40
    //回声抑制子模块双讲回声抑制比，单位dB， 0~40
    tmp_value = (int)(uint32) com_get_config_default(BTCALL_AEC_ECHO_SUPPRESS_ACTIVE);
60066872:	e840      	jalr	s0
60066874:	d948      	sw	v0,32(s1)
60066876:	f180 6c0d 	li	a0,397
    sv_prms->aec_prms.echo_suppress_avtive = tmp_value;//默认为40

    //ns prms
    //降噪开关，1：打开，0：关闭
    tmp_value = (int)(uint32) com_get_config_default(BTCALL_AEC_ANS_ENABLE);
6006687a:	e840      	jalr	s0
6006687c:	d949      	sw	v0,36(s1)
6006687e:	f180 6c0e 	li	a0,398
    sv_prms->ns_prms.ans_enable = tmp_value;//默认为1
    //噪声抑制比，单位dB， 0~25
    tmp_value = (int)(uint32) com_get_config_default(BTCALL_AEC_NOISE_SUPPRESS);
60066882:	e840      	jalr	s0
60066884:	d94a      	sw	v0,40(s1)
60066886:	f180 6c0f 	li	a0,399
    sv_prms->ns_prms.noise_suppress = tmp_value;//默认为25

    //cng prms
    //舒适噪声开关，1：打开，0：关闭
    sv_prms->cng_prms.cng_enable = (uint8) com_get_config_default(BTCALL_AEC_CNG_ENABLE);
6006688a:	e840      	jalr	s0
6006688c:	d94b      	sw	v0,44(s1)
6006688e:	ea11      	zeb	v0
60066890:	f180 6c10 	li	a0,400
    //舒适噪声水平，单位 dB Fs, 一般应小于-45 dB；
    tmp_value = (int)(uint32) com_get_config_default(BTCALL_AEC_NOISE_FLOOR);
60066894:	e840      	jalr	s0
60066896:	d94c      	sw	v0,48(s1)
60066898:	424b      	addiu	v0,v0,-5
    sv_prms->cng_prms.noise_floor = tmp_value - 5;//实际水平比该值大5db左右，所以这里-5；对应默认值为-45
6006689a:	d94d      	sw	v0,52(s1)
6006689c:	6cff      	li	a0,255
    sv_prms->speaker_channel = (uint8) com_get_config_default(BTCALL_SPEAKER_CHANNEL_ENABLE);
6006689e:	e840      	jalr	s0
600668a0:	4c77      	addiu	a0,119
600668a2:	ea11      	zeb	v0
600668a4:	d957      	sw	v0,92(s1)
600668a6:	6cff      	li	a0,255
    sv_prms->speaker_channel_weak_sel = (uint8) com_get_config_default(BTCALL_SPEAKER_CHANNEL_WEAK_SEL);
600668a8:	e840      	jalr	s0
600668aa:	4c78      	addiu	a0,120
600668ac:	ea11      	zeb	v0
600668ae:	d958      	sw	v0,96(s1)
600668b0:	6cff      	li	a0,255
    sv_prms->speaker_channel_weak_val = (uint8) com_get_config_default(BTCALL_SPEAKER_CHANNEL_WEAK_VAL);
600668b2:	e840      	jalr	s0
600668b4:	4c79      	addiu	a0,121
600668b6:	ea11      	zeb	v0
600668b8:	f180 6c12 	li	a0,402
    sv_prms->hfp_mode = (uint8) com_get_config_default(BTCALL_AEC_HALF_FULL_MODE);//读取通话单双配置
600668bc:	e840      	jalr	s0
600668be:	d959      	sw	v0,100(s1)
600668c0:	ea11      	zeb	v0
600668c2:	f180 6c14 	li	a0,404
    sv_prms->pre_agc_level = (uint8) com_get_config_default(BTCALL_AGC_PRETREAT_LEVEL);
600668c6:	e840      	jalr	s0
600668c8:	d95a      	sw	v0,104(s1)
600668ca:	ea11      	zeb	v0
600668cc:	f180 6c16 	li	a0,406
    sv_prms->pos_agc_level = (uint8) com_get_config_default(BTCALL_AGC_POSTREAT_LEVEL);
600668d0:	e840      	jalr	s0
600668d2:	d95b      	sw	v0,108(s1)
600668d4:	ea11      	zeb	v0
600668d6:	f180 6c13 	li	a0,403
    sv_prms->agc_pre_en = (uint8) com_get_config_default(BTCALL_AGC_PRETREAT_ENABLE);
600668da:	e840      	jalr	s0
600668dc:	d95c      	sw	v0,112(s1)
600668de:	ea11      	zeb	v0
600668e0:	f180 6c15 	li	a0,405
    sv_prms->agc_back_en = (uint8) com_get_config_default(BTCALL_AGC_POSTREAT_ENABLE);
600668e4:	e840      	jalr	s0
600668e6:	d95d      	sw	v0,116(s1)
600668e8:	ea11      	zeb	v0
600668ea:	d95e      	sw	v0,120(s1)
600668ec:	b213      	lw	v0,60066938 <actaec_init_sv_prms+0x138>

    if((g_p_btcall_info != NULL) && (g_p_btcall_info->status == BTCALL_SIRI)) {
600668ee:	9a40      	lw	v0,0(v0)
600668f0:	220d      	beqz	v0,6006690c <actaec_init_sv_prms+0x10c>
600668f2:	a240      	lbu	v0,0(v0)
600668f4:	7206      	cmpi	v0,6
600668f6:	610a      	btnez	6006690c <actaec_init_sv_prms+0x10c>
600668f8:	0c06      	la	a0,60066910 <actaec_init_sv_prms+0x110>
        PRINT_INFO("SIRI aec param setting");
600668fa:	6d00      	li	a1,0
600668fc:	67c5      	move	a2,a1
600668fe:	b210      	lw	v0,6006693c <actaec_init_sv_prms+0x13c>
60066900:	ea40      	jalr	v0
60066902:	6f4b      	li	a3,75
60066904:	6a00      	li	v0,0
        sv_prms->aec_prms.aec_enable = 0;
60066906:	d942      	sw	v0,8(s1)
60066908:	d944      	sw	v0,16(s1)
        sv_prms->aec_prms.nlp_enable = 0;
6006690a:	d947      	sw	v0,28(s1)
        sv_prms->aec_prms.aes_enable = 0;
6006690c:	6474      	restore	32,ra,s0-s1
    }
}
6006690e:	e8a0      	jrc	ra
60066910:	493c      	addiu	s1,60
60066912:	203e      	beqz	s0,60066990 <actaec_init_sv_prms_from_VM+0x50>
60066914:	4953      	addiu	s1,83
60066916:	4952      	addiu	s1,82
60066918:	6120      	btnez	6006695a <actaec_init_sv_prms_from_VM+0x1a>
6006691a:	6365      	addiu	sp,808
6006691c:	7020      	cmpi	s0,32
6006691e:	7261      	cmpi	v0,97
60066920:	6d61      	li	a1,97
60066922:	7320      	cmpi	v1,32
60066924:	7465      	cmpi	a0,101
60066926:	6974      	li	s1,116
60066928:	676e      	move	v1,t6
6006692a:	0000      	addiu	s0,sp,0
6006692c:	6941      	li	s1,65
6006692e:	6006      	bteqz	6006693c <actaec_init_sv_prms+0x13c>
60066930:	95ad      	lw	a1,692(sp)
60066932:	9fc1      	lw	a2,4(a3)
60066934:	68bd      	li	s0,189
60066936:	60a6      	bteqz	60066884 <actaec_init_sv_prms+0x84>
60066938:	9680      	lw	a2,512(sp)
6006693a:	9fc1      	lw	a2,4(a3)
6006693c:	6009      	bteqz	60066950 <actaec_init_sv_prms_from_VM+0x10>
6006693e:	bfc2      	lwu	a2,8(a3)

60066940 <actaec_init_sv_prms_from_VM>:
60066940:	64f6      	save	48,ra,s0-s1


/******************************************************************************
 * \par  Description:   读取应用VM中的aec参数，通过ASQT写入
 * \param[in]     null0
 * \param[out]   dsp_cfg 读取的参数存放的指针
 * \return          TRUE读取成功
 * \                   FALSE 没有保存参数
 * \note
 * \  <author>       <time>        <opt>
 * \   Wekan       2015-7-13     creat
 *******************************************************************************/
bool actaec_init_sv_prms_from_VM(sv_prms_t *dsp_aec)
{
60066942:	6724      	move	s1,a0
60066944:	0404      	addiu	a0,sp,16
    uint8 pbuf[16];
    uint32 i, sum;
    uint8 *p8;
    VM_SAVE_t *parm_head = (VM_SAVE_t *)pbuf;
    sys_vm_read(parm_head, VM_ASQT_PARM_BASE, 8);
60066946:	b52d      	lw	a1,600669f8 <actaec_init_sv_prms_from_VM+0xb8>
60066948:	6e08      	li	a2,8
6006694a:	b02d      	lw	s0,600669fc <actaec_init_sv_prms_from_VM+0xbc>
6006694c:	e840      	jalr	s0
6006694e:	6f12      	li	a3,18
60066950:	677d      	move	v1,sp
    if(parm_head->magic == 0xAA55) {
60066952:	ab48      	lhu	v0,16(v1)
60066954:	f255 7215 	cmpi	v0,43605
60066958:	6125      	btnez	600669a4 <actaec_init_sv_prms_from_VM+0x64>
6006695a:	6791      	move	a0,s1
        sys_vm_read(dsp_aec, VM_ASQT_PARM_BASE + 8, sizeof(sv_prms_t));
6006695c:	b529      	lw	a1,60066a00 <actaec_init_sv_prms_from_VM+0xc0>
6006695e:	6e80      	li	a2,128
60066960:	e840      	jalr	s0
60066962:	6f12      	li	a3,18
60066964:	6791      	move	a0,s1
        p8 = (uint8 *)dsp_aec;
60066966:	6900      	li	s1,0
        for(i = 0, sum = 0; i < sizeof(sv_prms_t); i++) {
60066968:	6771      	move	v1,s1
6006696a:	e469      	addu	v0,a0,v1
            sum += p8[i];
6006696c:	a240      	lbu	v0,0(v0)
6006696e:	e145      	addu	s1,v0
60066970:	4361      	addiu	v1,v1,1
60066972:	5b80      	sltiu	v1,128
60066974:	61fa      	btnez	6006696a <actaec_init_sv_prms_from_VM+0x2a>
60066976:	9205      	lw	v0,20(sp)
        }
        if(sum == parm_head->cs) {
60066978:	ea2e      	xor	v0,s1
6006697a:	2a09      	bnez	v0,6006698e <actaec_init_sv_prms_from_VM+0x4e>
6006697c:	0c0c      	la	a0,600669ac <actaec_init_sv_prms_from_VM+0x6c>
            PRINT_INFO_INT("get AEC VM parms.", parm_head->times);
6006697e:	675d      	move	v0,sp
60066980:	aaa9      	lhu	a1,18(v0)
60066982:	6e02      	li	a2,2
60066984:	b21e      	lw	v0,600669fc <actaec_init_sv_prms_from_VM+0xbc>
60066986:	ea40      	jalr	v0
60066988:	6f4b      	li	a3,75
6006698a:	6a01      	li	v0,1
            return TRUE;
6006698c:	100c      	b	600669a6 <actaec_init_sv_prms_from_VM+0x66>
6006698e:	0c0e      	la	a0,600669c4 <actaec_init_sv_prms_from_VM+0x84>
        }
        PRINT_INFO_INT("AEC VM params cs err.", parm_head->cs);
60066990:	9505      	lw	a1,20(sp)
60066992:	6e02      	li	a2,2
60066994:	b01a      	lw	s0,600669fc <actaec_init_sv_prms_from_VM+0xbc>
60066996:	e840      	jalr	s0
60066998:	6f4b      	li	a3,75
6006699a:	0c12      	la	a0,600669e0 <actaec_init_sv_prms_from_VM+0xa0>
        PRINT_INFO_INT("AEC VM params cs=", sum);
6006699c:	67b1      	move	a1,s1
6006699e:	6e02      	li	a2,2
600669a0:	e840      	jalr	s0
600669a2:	6f4b      	li	a3,75
600669a4:	6a00      	li	v0,0
    }
    return FALSE;
600669a6:	6476      	restore	48,ra,s0-s1
}
600669a8:	e8a0      	jrc	ra
600669aa:	0000      	addiu	s0,sp,0
600669ac:	493c      	addiu	s1,60
600669ae:	203e      	beqz	s0,60066a2c <_read_var+0x28>
600669b0:	6567      	move	v1,a3
600669b2:	2074      	beqz	s0,60066a9c <_read_var+0x98>
600669b4:	4541      	addiu	v0,a1,1
600669b6:	2043      	beqz	s0,60066a3e <_read_var+0x3a>
600669b8:	4d56      	addiu	a1,86
600669ba:	7020      	cmpi	s0,32
600669bc:	7261      	cmpi	v0,97
600669be:	736d      	cmpi	v1,109
600669c0:	002e      	addiu	s0,sp,184
600669c2:	0000      	addiu	s0,sp,0
600669c4:	493c      	addiu	s1,60
600669c6:	203e      	beqz	s0,60066a44 <_read_var+0x40>
600669c8:	4541      	addiu	v0,a1,1
600669ca:	2043      	beqz	s0,60066a52 <_read_var+0x4e>
600669cc:	4d56      	addiu	a1,86
600669ce:	7020      	cmpi	s0,32
600669d0:	7261      	cmpi	v0,97
600669d2:	6d61      	li	a1,97
600669d4:	2073      	beqz	s0,60066abc <_read_var+0xb8>
600669d6:	7363      	cmpi	v1,99
600669d8:	6520      	move	at,s0
600669da:	7272      	cmpi	v0,114
600669dc:	002e      	addiu	s0,sp,184
600669de:	0000      	addiu	s0,sp,0
600669e0:	493c      	addiu	s1,60
600669e2:	203e      	beqz	s0,60066a60 <_read_var+0x5c>
600669e4:	4541      	addiu	v0,a1,1
600669e6:	2043      	beqz	s0,60066a6e <_read_var+0x6a>
600669e8:	4d56      	addiu	a1,86
600669ea:	7020      	cmpi	s0,32
600669ec:	7261      	cmpi	v0,97
600669ee:	6d61      	li	a1,97
600669f0:	2073      	beqz	s0,60066ad8 <_read_var+0xd4>
600669f2:	7363      	cmpi	v1,99
600669f4:	003d      	addiu	s0,sp,244
600669f6:	0000      	addiu	s0,sp,0
600669f8:	0000      	addiu	s0,sp,0
600669fa:	000f      	addiu	s0,sp,60
600669fc:	6009      	bteqz	60066a10 <_read_var+0xc>
600669fe:	bfc2      	lwu	a2,8(a3)
60066a00:	0008      	addiu	s0,sp,32
60066a02:	000f      	addiu	s0,sp,60

60066a04 <_read_var>:
60066a04:	64f4      	save	32,ra,s0-s1



/******************************************************************************
 * \par  Description:   读取应用VM全局变量,初始化全局变量
 * \param[in]     null0
 * \param[out]   sv_prms 读取的参数存放的指针
 * \return           none
 * \note
 * \  <author>       <time>        <opt>
 * \  Cailizhen          2015-1          creat
 * \   Wekan       2015-3-30     reviwe
 *******************************************************************************/

static void _read_var(void)
{
60066a06:	b15d      	lw	s1,60066b78 <_read_var+0x174>
    btcall_gl_var.ignore_uncall_sco = (uint8) com_get_config_default(BTCALL_IGNORE_UNCALLSCO);
60066a08:	6cff      	li	a0,255
60066a0a:	b05d      	lw	s0,60066b7c <_read_var+0x178>
60066a0c:	e840      	jalr	s0
60066a0e:	4c7a      	addiu	a0,122
60066a10:	c14d      	sb	v0,13(s1)
60066a12:	6cff      	li	a0,255

    btcall_gl_var.callin_ring_mode = (uint8) com_get_config_default(BTCALL_CALLIN_RING_MODE);
60066a14:	e840      	jalr	s0
60066a16:	4c7b      	addiu	a0,123
60066a18:	c146      	sb	v0,6(s1)
60066a1a:	6cff      	li	a0,255
    btcall_gl_var.callin_ring_space_time = (uint8) com_get_config_default(BTCALL_CALLIN_RING_BUILDIN_SPACE_TIME);
60066a1c:	e840      	jalr	s0
60066a1e:	4c7d      	addiu	a0,125
60066a20:	c147      	sb	v0,7(s1)
60066a22:	a147      	lbu	v0,7(s1)
    if(btcall_gl_var.callin_ring_space_time == 0) {
60066a24:	2a02      	bnez	v0,60066a2a <_read_var+0x26>
60066a26:	6a01      	li	v0,1
        btcall_gl_var.callin_ring_space_time = 1; //至少100ms
60066a28:	c147      	sb	v0,7(s1)
60066a2a:	6a01      	li	v0,1
    }

    //全局变量非0无效值初始化
    g_callring_data.callring_timer_id = -1;
60066a2c:	ea4b      	neg	v0
60066a2e:	b355      	lw	v1,60066b80 <_read_var+0x17c>
60066a30:	c34f      	sb	v0,15(v1)
60066a32:	6c01      	li	a0,1

    g_p_bt_stack_cur_info = (bt_stack_info_t *) sys_shm_mount(SHARE_MEM_ID_BTSTACK_STATUS);
60066a34:	6d00      	li	a1,0
60066a36:	67c5      	move	a2,a1
60066a38:	b054      	lw	s0,60066b88 <_read_var+0x184>
60066a3a:	e840      	jalr	s0
60066a3c:	6f49      	li	a3,73
60066a3e:	67c2      	move	a2,v0
60066a40:	b251      	lw	v0,60066b84 <_read_var+0x180>
60066a42:	dac0      	sw	a2,0(v0)
60066a44:	2e05      	bnez	a2,60066a50 <_read_var+0x4c>
    if(g_p_bt_stack_cur_info == NULL) {
60066a46:	0c32      	la	a0,60066b0c <_read_var+0x108>
        PRINT_ERR("btstack status shm not exist!\n");
60066a48:	67a6      	move	a1,a2
60066a4a:	e840      	jalr	s0
60066a4c:	6f4b      	li	a3,75
60066a4e:	17ff      	b	60066a4e <_read_var+0x4a>
        while(1) {
60066a50:	b350      	lw	v1,60066b90 <_read_var+0x18c>
            ;//nothing
        }
    }

    g_p_btcall_info = &g_btcall_info[0];
60066a52:	b24f      	lw	v0,60066b8c <_read_var+0x188>
60066a54:	da60      	sw	v1,0(v0)
60066a56:	b24c      	lw	v0,60066b84 <_read_var+0x180>

    switch(g_p_bt_stack_cur_info->rmt_dev[g_p_bt_stack_cur_info->hfp_active_id].hfp_status) {
60066a58:	9a80      	lw	a0,0(v0)
60066a5a:	f020 a475 	lbu	v1,53(a0)
60066a5e:	3264      	sll	v0,v1,1
60066a60:	e269      	addu	v0,v1
60066a62:	324c      	sll	v0,3
60066a64:	e289      	addu	v0,a0
60066a66:	a273      	lbu	v1,19(v0)
60066a68:	5b07      	sltiu	v1,7
60066a6a:	602b      	bteqz	60066ac2 <_read_var+0xbe>
60066a6c:	0a03      	la	v0,60066a78 <_read_var+0x74>
60066a6e:	3364      	sll	v1,1
60066a70:	e34d      	addu	v1,v0
60066a72:	8b60      	lh	v1,0(v1)
60066a74:	e34d      	addu	v1,v0
60066a76:	eb80      	jrc	v1
60066a78:	004b      	addiu	s0,sp,300
60066a7a:	000f      	addiu	s0,sp,60
60066a7c:	0019      	addiu	s0,sp,100
60066a7e:	0023      	addiu	s0,sp,140
60066a80:	002d      	addiu	s0,sp,180
60066a82:	0037      	addiu	s0,sp,220
60066a84:	0041      	addiu	s0,sp,260
60066a86:	b242      	lw	v0,60066b8c <_read_var+0x188>
        case HFP_STATUS_LINKED:
            g_p_btcall_info->status = BTCALL_STOP;
60066a88:	9a60      	lw	v1,0(v0)
60066a8a:	6a01      	li	v0,1
60066a8c:	c340      	sb	v0,0(v1)
60066a8e:	101d      	b	60066aca <_read_var+0xc6>
            break;
60066a90:	b23f      	lw	v0,60066b8c <_read_var+0x188>

        case HFP_STATUS_INCOMING:
            g_p_btcall_info->status = BTCALL_CALLIN;
60066a92:	9a60      	lw	v1,0(v0)
60066a94:	6a02      	li	v0,2
60066a96:	c340      	sb	v0,0(v1)
60066a98:	1018      	b	60066aca <_read_var+0xc6>
            break;
60066a9a:	b23d      	lw	v0,60066b8c <_read_var+0x188>

        case HFP_STATUS_OUTGOING:
            g_p_btcall_info->status = BTCALL_CALLOUT;
60066a9c:	9a60      	lw	v1,0(v0)
60066a9e:	6a03      	li	v0,3
60066aa0:	c340      	sb	v0,0(v1)
60066aa2:	1013      	b	60066aca <_read_var+0xc6>
            break;
60066aa4:	b23a      	lw	v0,60066b8c <_read_var+0x188>

        case HFP_STATUS_CALLING:
            g_p_btcall_info->status = BTCALL_HFP;
60066aa6:	9a60      	lw	v1,0(v0)
60066aa8:	6a04      	li	v0,4
60066aaa:	c340      	sb	v0,0(v1)
60066aac:	100e      	b	60066aca <_read_var+0xc6>
            break;
60066aae:	b238      	lw	v0,60066b8c <_read_var+0x188>

        case HFP_STATUS_PHONE:
            g_p_btcall_info->status = BTCALL_PHONE;
60066ab0:	9a60      	lw	v1,0(v0)
60066ab2:	6a05      	li	v0,5
60066ab4:	c340      	sb	v0,0(v1)
60066ab6:	1009      	b	60066aca <_read_var+0xc6>
            break;
60066ab8:	b235      	lw	v0,60066b8c <_read_var+0x188>

        case HFP_STATUS_SIRI:
            g_p_btcall_info->status = BTCALL_SIRI;
60066aba:	9a60      	lw	v1,0(v0)
60066abc:	6a06      	li	v0,6
60066abe:	c340      	sb	v0,0(v1)
60066ac0:	1004      	b	60066aca <_read_var+0xc6>
            break;
60066ac2:	b233      	lw	v0,60066b8c <_read_var+0x188>

        case HFP_STATUS_NONE:
        default:
            g_p_btcall_info->status = BTCALL_IDLE;
60066ac4:	9a60      	lw	v1,0(v0)
60066ac6:	6a00      	li	v0,0
60066ac8:	c340      	sb	v0,0(v1)
60066aca:	b031      	lw	s0,60066b8c <_read_var+0x188>
            break;
    }

    //创建共享查询，这时必须保证前台来获取状态时是可用的
    g_p_btcall_info = sys_share_query_creat(APP_ID_BTCALLEG, g_p_btcall_info, sizeof(btcall_info_t));
60066acc:	6c11      	li	a0,17
60066ace:	98a0      	lw	a1,0(s0)
60066ad0:	6e04      	li	a2,4
60066ad2:	b12e      	lw	s1,60066b88 <_read_var+0x184>
60066ad4:	e940      	jalr	s1
60066ad6:	6f43      	li	a3,67
60066ad8:	d840      	sw	v0,0(s0)
60066ada:	2a06      	bnez	v0,60066ae8 <_read_var+0xe4>
    if(g_p_btcall_info == NULL) {
60066adc:	0c15      	la	a0,60066b30 <_read_var+0x12c>
        PRINT_ERR("btcall share query create fail!\n");
60066ade:	67a2      	move	a1,v0
60066ae0:	67c2      	move	a2,v0
60066ae2:	e940      	jalr	s1
60066ae4:	6f4b      	li	a3,75
60066ae6:	17ff      	b	60066ae6 <_read_var+0xe2>
        while(1) {
60066ae8:	b52c      	lw	a1,60066b98 <_read_var+0x194>
            ;//nothing
        }
    }

    //创建共享内存
    g_agc_aec_shm_ptr = (uint32)&g_dsp_m4k_share_mem;
60066aea:	b22b      	lw	v0,60066b94 <_read_var+0x190>
60066aec:	daa0      	sw	a1,0(v0)
60066aee:	6c05      	li	a0,5

    if(sys_shm_creat(SHARE_MEM_ID_AGC_AEC, g_agc_aec_shm_ptr, sizeof(sv_prms_t)) == -1) {
60066af0:	6e80      	li	a2,128
60066af2:	b026      	lw	s0,60066b88 <_read_var+0x184>
60066af4:	e840      	jalr	s0
60066af6:	6f47      	li	a3,71
60066af8:	ea4f      	not	v0
60066afa:	2a06      	bnez	v0,60066b08 <_read_var+0x104>
60066afc:	0c17      	la	a0,60066b58 <_read_var+0x154>
        PRINT_ERR("agc aec shm create fail!!");
60066afe:	6d00      	li	a1,0
60066b00:	67c5      	move	a2,a1
60066b02:	e840      	jalr	s0
60066b04:	6f4b      	li	a3,75
60066b06:	17ff      	b	60066b06 <_read_var+0x102>
        while(1) {
60066b08:	6474      	restore	32,ra,s0-s1
            ; //nothing for QAC
        }
    }
}
60066b0a:	e8a0      	jrc	ra
60066b0c:	453c      	daddiu	s1,a1,-4
60066b0e:	203e      	beqz	s0,60066b8c <_read_var+0x188>
60066b10:	7462      	cmpi	a0,98
60066b12:	7473      	cmpi	a0,115
60066b14:	6361      	addiu	sp,776
60066b16:	206b      	beqz	s0,60066bee <_app_init+0xe>
60066b18:	7473      	cmpi	a0,115
60066b1a:	7461      	cmpi	a0,97
60066b1c:	7375      	cmpi	v1,117
60066b1e:	7320      	cmpi	v1,32
60066b20:	6d68      	li	a1,104
60066b22:	6e20      	li	a2,32
60066b24:	746f      	cmpi	a0,111
60066b26:	6520      	move	at,s0
60066b28:	6978      	li	s1,120
60066b2a:	7473      	cmpi	a0,115
60066b2c:	0a21      	la	v0,60066bb0 <_save_var+0x14>
60066b2e:	0000      	addiu	s0,sp,0
60066b30:	453c      	daddiu	s1,a1,-4
60066b32:	203e      	beqz	s0,60066bb0 <_save_var+0x14>
60066b34:	7462      	cmpi	a0,98
60066b36:	6163      	btnez	60066bfe <.LBB2+0x4>
60066b38:	6c6c      	li	a0,108
60066b3a:	7320      	cmpi	v1,32
60066b3c:	6168      	btnez	60066c0e <.LBE2+0xe>
60066b3e:	6572      	move	s3,v0
60066b40:	7120      	cmpi	s1,32
60066b42:	6575      	move	s3,a1
60066b44:	7972      	sd	v1,144(s1)
60066b46:	6320      	addiu	sp,256
60066b48:	6572      	move	s3,v0
60066b4a:	7461      	cmpi	a0,97
60066b4c:	2065      	beqz	s0,60066c18 <.LBE2+0x18>
60066b4e:	6166      	btnez	60066c1c <_app_exit>
60066b50:	6c69      	li	a0,105
60066b52:	0a21      	la	v0,60066bd4 <_save_var+0x38>
60066b54:	0000      	addiu	s0,sp,0
60066b56:	0000      	addiu	s0,sp,0
60066b58:	453c      	daddiu	s1,a1,-4
60066b5a:	203e      	beqz	s0,60066bd8 <_save_var+0x3c>
60066b5c:	6761      	move	v1,at
60066b5e:	2063      	beqz	s0,60066c26 <_app_exit+0xa>
60066b60:	6561      	move	v1,s1
60066b62:	2063      	beqz	s0,60066c2a <_app_exit+0xe>
60066b64:	6873      	li	s0,115
60066b66:	206d      	beqz	s0,60066c42 <.LBE4+0x2>
60066b68:	7263      	cmpi	v0,99
60066b6a:	6165      	btnez	60066c36 <_app_exit+0x1a>
60066b6c:	6574      	move	s3,a0
60066b6e:	6620      	0x6620
60066b70:	6961      	li	s1,97
60066b72:	216c      	beqz	s1,60066c4c <.LBE4+0xc>
60066b74:	0021      	addiu	s0,sp,132
60066b76:	0000      	addiu	s0,sp,0
60066b78:	9650      	lw	a2,320(sp)
60066b7a:	9fc1      	lw	a2,4(a3)
60066b7c:	68bd      	li	s0,189
60066b7e:	60a6      	bteqz	60066acc <_read_var+0xc8>
60066b80:	9664      	lw	a2,400(sp)
60066b82:	9fc1      	lw	a2,4(a3)
60066b84:	9674      	lw	a2,464(sp)
60066b86:	9fc1      	lw	a2,4(a3)
60066b88:	6009      	bteqz	60066b9c <_save_var>
60066b8a:	bfc2      	lwu	a2,8(a3)
60066b8c:	9680      	lw	a2,512(sp)
60066b8e:	9fc1      	lw	a2,4(a3)
60066b90:	9678      	lw	a2,480(sp)
60066b92:	9fc1      	lw	a2,4(a3)
60066b94:	95a8      	lw	a1,672(sp)
60066b96:	9fc1      	lw	a2,4(a3)
60066b98:	95d0      	lw	a1,832(sp)
60066b9a:	9fc1      	lw	a2,4(a3)

60066b9c <_save_var>:
60066b9c:	64e3      	save	24,ra,s0

/******************************************************************************
 * \par  Description:   保存VRAM变量，目前只是接口，未有功能
 * \param[in]      null
 * \param[out]   null
 * \return           null
 * \note
 * \  <author>       <time>        <opt>
 * \  Cailizhen          2015-1          creat
 * \   Wekan       2015-3-30     reviwe
 *******************************************************************************/

static void _save_var(void)
{
60066b9e:	6c05      	li	a0,5
    //;//nothing
    //销毁共享内存
    //g_agc_aec_shm_ptr = (uint32)&g_dsp_m4k_share_mem;

    if(sys_shm_destroy(SHARE_MEM_ID_AGC_AEC) == -1) {
60066ba0:	6d00      	li	a1,0
60066ba2:	67c5      	move	a2,a1
60066ba4:	b00e      	lw	s0,60066bdc <_save_var+0x40>
60066ba6:	e840      	jalr	s0
60066ba8:	6f48      	li	a3,72
60066baa:	ea4f      	not	v0
60066bac:	2a05      	bnez	v0,60066bb8 <_save_var+0x1c>
60066bae:	0c04      	la	a0,60066bbc <_save_var+0x20>
        PRINT_ERR("agc aec shm destroy fail!!");
60066bb0:	6d00      	li	a1,0
60066bb2:	67c5      	move	a2,a1
60066bb4:	e840      	jalr	s0
60066bb6:	6f4b      	li	a3,75
60066bb8:	6463      	restore	24,ra,s0
    }
}
60066bba:	e8a0      	jrc	ra
60066bbc:	453c      	daddiu	s1,a1,-4
60066bbe:	203e      	beqz	s0,60066c3c <.LBB4+0x2>
60066bc0:	6761      	move	v1,at
60066bc2:	2063      	beqz	s0,60066c8a <main+0x2e>
60066bc4:	6561      	move	v1,s1
60066bc6:	2063      	beqz	s0,60066c8e <main+0x32>
60066bc8:	6873      	li	s0,115
60066bca:	206d      	beqz	s0,60066ca6 <main+0x4a>
60066bcc:	6564      	move	v1,a0
60066bce:	7473      	cmpi	a0,115
60066bd0:	6f72      	li	a3,114
60066bd2:	2079      	beqz	s0,60066cc6 <main+0x6a>
60066bd4:	6166      	btnez	60066ca2 <main+0x46>
60066bd6:	6c69      	li	a0,105
60066bd8:	2121      	beqz	s1,60066c1c <_app_exit>
60066bda:	0000      	addiu	s0,sp,0
60066bdc:	6009      	bteqz	60066bf0 <_app_init+0x10>
60066bde:	bfc2      	lwu	a2,8(a3)

60066be0 <_app_init>:
60066be0:	64c3      	save	24,ra

/******************************************************************************
 * \par  Description:   app应用初始化， 包括读取初始化参数，
 *\                             app库，定时器，消息
 * \param[in]      null
 * \param[out]   null
 * \return           null
 * \note
 * \  <author>       <time>        <opt>
 * \  Cailizhen          2015-1          creat
 * \   Wekan       2015-3-30     reviwe
 *******************************************************************************/
static void _app_init(void)
{
60066be2:	b209      	lw	v0,60066c04 <.LBE2+0x4>
    /*读入VM变量*/
    _read_var();
60066be4:	eac0      	jalrc	v0
60066be6:	6c11      	li	a0,17

    //初始化applib库，后台AP
    applib_init(APP_ID_BTCALLEG, APP_TYPE_CONSOLE);
60066be8:	b208      	lw	v0,60066c08 <.LBE2+0x8>
60066bea:	ea40      	jalr	v0
60066bec:	6d02      	li	a1,2
60066bee:	b408      	lw	a0,60066c0c <.LBE2+0xc>

    /*初始化软定时器*/
    init_app_timers(btcall_timer_vector, APP_TIMER_COUNT);
60066bf0:	b208      	lw	v0,60066c10 <.LBE2+0x10>
60066bf2:	ea40      	jalr	v0
60066bf4:	6d02      	li	a1,2
60066bf6:	b208      	lw	v0,60066c14 <.LBE2+0x14>

    /*初始化 applib 消息模块*/
    applib_message_init();
60066bf8:	eac0      	jalrc	v0

60066bfa <.LBB2>:
60066bfa:	6b02      	li	v1,2
}

///修改后台引擎状态
static inline void change_engine_state(engine_state_e engine_state)
{
60066bfc:	b207      	lw	v0,60066c18 <.LBE2+0x18>
    g_app_info_state_all.engine_state = engine_state;
60066bfe:	c261      	sb	v1,1(v0)

60066c00 <.LBE2>:
60066c00:	6443      	restore	24,ra

    change_engine_state(ENGINE_STATE_PAUSE);
}
60066c02:	e8a0      	jrc	ra
60066c04:	6a05      	li	v0,5
60066c06:	6006      	bteqz	60066c14 <.LBE2+0x14>
60066c08:	6861      	li	s0,97
60066c0a:	60a2      	bteqz	60066b50 <_read_var+0x14c>
60066c0c:	95b0      	lw	a1,704(sp)
60066c0e:	9fc1      	lw	a2,4(a3)
60066c10:	6c41      	li	a0,65
60066c12:	60a2      	bteqz	60066b58 <_read_var+0x154>
60066c14:	6cc9      	li	a0,201
60066c16:	60a2      	bteqz	60066b5c <_read_var+0x158>
60066c18:	a094      	lbu	a0,20(s0)
60066c1a:	9fc1      	lw	a2,4(a3)

60066c1c <_app_exit>:
60066c1c:	64f4      	save	32,ra,s0-s1

/******************************************************************************
 * \par  Description:   app应用退出,
 * \param[in]      null
 * \param[out]   null
 * \return           null
 * \note
 * \  <author>       <time>        <opt>
 * \  Cailizhen          2015-1          creat
 * \   Wekan       2015-3-30     reviwe
 *******************************************************************************/

static void _app_exit(void)
{
60066c1e:	b10b      	lw	s1,60066c48 <.LBE4+0x8>
    sys_free_large_data(asqt_peq_addr.band_peq1_addr);
60066c20:	9980      	lw	a0,0(s1)
60066c22:	6d20      	li	a1,32
60066c24:	6e00      	li	a2,0
60066c26:	b00a      	lw	s0,60066c4c <.LBE4+0xc>
60066c28:	e840      	jalr	s0
60066c2a:	6f17      	li	a3,23
60066c2c:	9981      	lw	a0,4(s1)
    sys_free_large_data(asqt_peq_addr.band_peq2_addr);
60066c2e:	6d20      	li	a1,32
60066c30:	6e00      	li	a2,0
60066c32:	e840      	jalr	s0
60066c34:	6f17      	li	a3,23
60066c36:	b207      	lw	v0,60066c50 <.LBE4+0x10>

    /*执行applib库的注销操作*/
    applib_quit();
60066c38:	eac0      	jalrc	v0

60066c3a <.LBB4>:
60066c3a:	6b02      	li	v1,2
}

///修改后台引擎状态
static inline void change_engine_state(engine_state_e engine_state)
{
60066c3c:	b206      	lw	v0,60066c54 <.LBE4+0x14>
    g_app_info_state_all.engine_state = engine_state;
60066c3e:	c261      	sb	v1,1(v0)

60066c40 <.LBE4>:
60066c40:	b206      	lw	v0,60066c58 <.LBE4+0x18>

    change_engine_state(ENGINE_STATE_PAUSE);
    _save_var();
60066c42:	eac0      	jalrc	v0
60066c44:	6474      	restore	32,ra,s0-s1
}
60066c46:	e8a0      	jrc	ra
60066c48:	9818      	lw	s0,96(s0)
60066c4a:	9fc1      	lw	a2,4(a3)
60066c4c:	6009      	bteqz	60066c60 <main+0x4>
60066c4e:	bfc2      	lwu	a2,8(a3)
60066c50:	6951      	li	s1,81
60066c52:	60a2      	bteqz	60066b98 <_read_var+0x194>
60066c54:	a094      	lbu	a0,20(s0)
60066c56:	9fc1      	lw	a2,4(a3)
60066c58:	6b9d      	li	v1,157
60066c5a:	6006      	bteqz	60066c68 <main+0xc>

60066c5c <main>:
60066c5c:	64e3      	save	24,ra,s0

/******************************************************************************
 * \par  Description:   应用的入口函数和场景管理器模块
 * \param[in]      参数只为接口统一，没具体意义
 * \param[out]   none
 * \return       需app-manage响应的事件
 * \note
 * \  <author>       <time>        <opt>
 * \  Cailizhen          2015-1          creat
 * \   Wekan       2015-3-30     reviwe
 *******************************************************************************/

int main(int argc, const char *argv[])
{
60066c5e:	b214      	lw	v0,60066cac <main+0x50>
    app_result_e result = RESULT_NULL;
    /*ap初始化*/
    _app_init();
60066c60:	ea40      	jalr	v0
60066c62:	6704      	move	s0,a0
60066c64:	b213      	lw	v0,60066cb0 <main+0x54>
    com_set_sound_out(SOUND_OUT_START);
60066c66:	ea40      	jalr	v0
60066c68:	6c01      	li	a0,1
60066c6a:	6cff      	li	a0,255

    if(com_get_config_default(BTMANAGER_ENABLE_MSBC) == 1) {
60066c6c:	b212      	lw	v0,60066cb4 <main+0x58>
60066c6e:	ea40      	jalr	v0
60066c70:	4c50      	addiu	a0,80
60066c72:	7201      	cmpi	v0,1
60066c74:	6108      	btnez	60066c86 <main+0x2a>
60066c76:	6a01      	li	v0,1
        g_stub_8k_16k = 1;
60066c78:	b310      	lw	v1,60066cb8 <main+0x5c>
60066c7a:	c340      	sb	v0,0(v1)
60066c7c:	6790      	move	a0,s0
        btcall_eg_asqt_deal_16k((uint8) argc);
60066c7e:	b210      	lw	v0,60066cbc <main+0x60>
60066c80:	ea40      	jalr	v0
60066c82:	ec11      	zeb	a0
60066c84:	1007      	b	60066c94 <main+0x38>
60066c86:	6a00      	li	v0,0
    } else {
        g_stub_8k_16k = 0;
60066c88:	b30c      	lw	v1,60066cb8 <main+0x5c>
60066c8a:	c340      	sb	v0,0(v1)
60066c8c:	6790      	move	a0,s0
        btcall_eg_asqt_deal((uint8) argc);
60066c8e:	b20d      	lw	v0,60066cc0 <main+0x64>
60066c90:	ea40      	jalr	v0
60066c92:	ec11      	zeb	a0
60066c94:	b20c      	lw	v0,60066cc4 <main+0x68>
    }

    result = get_message_loop();
60066c96:	eac0      	jalrc	v0
60066c98:	6702      	move	s0,v0
60066c9a:	b206      	lw	v0,60066cb0 <main+0x54>
    com_set_sound_out(SOUND_OUT_STOP);
60066c9c:	ea40      	jalr	v0
60066c9e:	6c00      	li	a0,0
60066ca0:	b20a      	lw	v0,60066cc8 <main+0x6c>

    _app_exit();
60066ca2:	eac0      	jalrc	v0
60066ca4:	6750      	move	v0,s0
    return result;
}
60066ca6:	6463      	restore	24,ra,s0
60066ca8:	e8a0      	jrc	ra
60066caa:	0000      	addiu	s0,sp,0
60066cac:	6be1      	li	v1,225
60066cae:	6006      	bteqz	60066cbc <main+0x60>
60066cb0:	691d      	li	s1,29
60066cb2:	60a6      	bteqz	60066c00 <.LBE2>
60066cb4:	68bd      	li	s0,189
60066cb6:	60a6      	bteqz	60066c04 <.LBE2+0x4>
60066cb8:	95ad      	lw	a1,692(sp)
60066cba:	9fc1      	lw	a2,4(a3)
60066cbc:	6d91      	li	a1,145
60066cbe:	601e      	bteqz	60066cfc <main+0xa0>
60066cc0:	6e29      	li	a2,41
60066cc2:	6016      	bteqz	60066cf0 <main+0x94>
60066cc4:	61fd      	btnez	60066cc0 <main+0x64>
60066cc6:	bfc2      	lwu	a2,8(a3)
60066cc8:	6c1d      	li	a0,29
60066cca:	6006      	bteqz	60066cd8 <main+0x7c>
Disassembly of section BANK_CONTROL_1_2:

600a6800 <force_hfp_to_phone>:
600a6800:	64e4      	save	32,ra,s0
 * \   Wekan       2015-3-30     reviwe
 *******************************************************************************/

void force_hfp_to_phone(void)
{
600a6802:	b217      	lw	v0,600a685c <force_hfp_to_phone+0x5c>
    msg_apps_t msg;
    int i;

    if(g_p_bt_stack_cur_info->rmt_dev[g_p_bt_stack_cur_info->hfp_active_id].hfp_attr.sco_link == 1) {
600a6804:	9a80      	lw	a0,0(v0)
600a6806:	f020 a475 	lbu	v1,53(a0)
600a680a:	3264      	sll	v0,v1,1
600a680c:	e269      	addu	v0,v1
600a680e:	324c      	sll	v0,3
600a6810:	e289      	addu	v0,a0
600a6812:	a24e      	lbu	v0,14(v0)
600a6814:	6b01      	li	v1,1
600a6816:	ea6c      	and	v0,v1
600a6818:	221f      	beqz	v0,600a6858 <force_hfp_to_phone+0x58>
600a681a:	f700 6a05 	li	v0,1797
        //断开SCO链路
        msg.type = MSG_BTSTACK_HFP_RELEASESYN_SYNC;
600a681e:	d204      	sw	v0,16(sp)
600a6820:	6c00      	li	a0,0
        //发送同步消息
        send_sync_msg_btmanager(NULL, &msg, NULL, 0);
600a6822:	0504      	addiu	a1,sp,16
600a6824:	67c4      	move	a2,a0
600a6826:	b20f      	lw	v0,600a6860 <force_hfp_to_phone+0x60>
600a6828:	ea40      	jalr	v0
600a682a:	67e4      	move	a3,a0
600a682c:	6800      	li	s0,0

        //等待从音箱端切换回手机端
        for(i = 0; i < 10; i++) {
600a682e:	6c01      	li	a0,1
            sys_os_time_dly(1);
600a6830:	6d00      	li	a1,0
600a6832:	67c5      	move	a2,a1
600a6834:	b20c      	lw	v0,600a6864 <force_hfp_to_phone+0x64>
600a6836:	ea40      	jalr	v0
600a6838:	6f31      	li	a3,49
600a683a:	b209      	lw	v0,600a685c <force_hfp_to_phone+0x5c>

            if(g_p_bt_stack_cur_info->rmt_dev[g_p_bt_stack_cur_info->hfp_active_id].hfp_attr.sco_link == 0) {
600a683c:	9a80      	lw	a0,0(v0)
600a683e:	f020 a475 	lbu	v1,53(a0)
600a6842:	3264      	sll	v0,v1,1
600a6844:	e269      	addu	v0,v1
600a6846:	324c      	sll	v0,3
600a6848:	e289      	addu	v0,a0
600a684a:	a24e      	lbu	v0,14(v0)
600a684c:	6b01      	li	v1,1
600a684e:	ea6c      	and	v0,v1
600a6850:	2203      	beqz	v0,600a6858 <force_hfp_to_phone+0x58>
600a6852:	4001      	addiu	s0,s0,1
600a6854:	500a      	slti	s0,10
600a6856:	61eb      	btnez	600a682e <force_hfp_to_phone+0x2e>
600a6858:	6464      	restore	32,ra,s0
                break;
            }
        }
    }
}
600a685a:	e8a0      	jrc	ra
600a685c:	9674      	lw	a2,464(sp)
600a685e:	9fc1      	lw	a2,4(a3)
600a6860:	6ce9      	li	a0,233
600a6862:	60a2      	bteqz	600a67a8 <main+0x3fb4c>
600a6864:	6009      	bteqz	600a6878 <force_quit_thread+0x10>
600a6866:	bfc2      	lwu	a2,8(a3)

600a6868 <force_quit_thread>:
600a6868:	64f4      	save	32,ra,s0-s1

/******************************************************************************
 * \par  Description:   退出解码线程
 * \param[in]     null0
 * \param[out]   null
 * \return           null
 * \note
 * \  <author>       <time>        <opt>
 * \  Cailizhen          2015-1          creat
 * \   Wekan       2015-3-30     reviwe
 *******************************************************************************/

void force_quit_thread(void)
{
600a686a:	b00c      	lw	s0,600a6898 <force_quit_thread+0x30>
    btcall_gl_var.need_exit_thread = TRUE;
600a686c:	6a01      	li	v0,1
600a686e:	c042      	sb	v0,2(s0)
600a6870:	b20b      	lw	v0,600a689c <force_quit_thread+0x34>

    force_hfp_to_phone();
600a6872:	eac0      	jalrc	v0
600a6874:	a040      	lbu	v0,0(s0)

    if(btcall_gl_var.g_sco_deal_flag != 0) {
600a6876:	2202      	beqz	v0,600a687c <force_quit_thread+0x14>
600a6878:	b20a      	lw	v0,600a68a0 <force_quit_thread+0x38>
        btcalleg_free_hfp_mmm();
600a687a:	eac0      	jalrc	v0
600a687c:	b20a      	lw	v0,600a68a0 <force_quit_thread+0x38>
    }
    //等待来电铃声线程退出
    while(g_callring_data.callring_thread_exist != 0) {
        sys_os_time_dly(1);
600a687e:	a240      	lbu	v0,0(v0)
600a6880:	2209      	beqz	v0,600a6894 <force_quit_thread+0x2c>
600a6882:	b10a      	lw	s1,600a68a8 <force_quit_thread+0x40>
600a6884:	b008      	lw	s0,600a68a4 <force_quit_thread+0x3c>
600a6886:	6c01      	li	a0,1
600a6888:	6d00      	li	a1,0
600a688a:	67c5      	move	a2,a1
600a688c:	e940      	jalr	s1
600a688e:	6f31      	li	a3,49
600a6890:	a040      	lbu	v0,0(s0)
600a6892:	2af9      	bnez	v0,600a6886 <force_quit_thread+0x1e>
600a6894:	6474      	restore	32,ra,s0-s1
    }
}
600a6896:	e8a0      	jrc	ra
600a6898:	9650      	lw	a2,320(sp)
600a689a:	9fc1      	lw	a2,4(a3)
600a689c:	6801      	li	s0,1
600a689e:	600a      	bteqz	600a68b4 <btcall_enter_pb_tts_play+0x8>
600a68a0:	6c19      	li	a0,25
600a68a2:	6012      	bteqz	600a68c8 <btcall_enter_pb_tts_play+0x1c>
600a68a4:	9664      	lw	a2,400(sp)
600a68a6:	9fc1      	lw	a2,4(a3)
600a68a8:	6009      	bteqz	600a68bc <btcall_enter_pb_tts_play+0x10>
600a68aa:	bfc2      	lwu	a2,8(a3)

600a68ac <btcall_enter_pb_tts_play>:
600a68ac:	64f4      	save	32,ra,s0-s1

/******************************************************************************
 * \par  Description:   播报电话本
 * \param[in]     null0
 * \param[out]   null
 * \return           null
 * \note
 * \  <author>       <time>        <opt>
 * \  Cailizhen          2015-1          creat
 * \   Wekan       2015-3-30     reviwe
 *******************************************************************************/

bool btcall_enter_pb_tts_play(void)
{
600a68ae:	b216      	lw	v0,600a6904 <btcall_enter_pb_tts_play+0x58>
    PRINT_DBG("tts pb play\n");
    //防止本地来电铃声尚未置起
    if(btcall_gl_var.callin_ring_mode != CALLIN_RING_MODE_ONLY_PB) {
600a68b0:	a246      	lbu	v0,6(v0)
600a68b2:	7201      	cmpi	v0,1
600a68b4:	601a      	bteqz	600a68ea <btcall_enter_pb_tts_play+0x3e>
600a68b6:	b015      	lw	s0,600a6908 <btcall_enter_pb_tts_play+0x5c>
        if(g_callring_data.callring_timer_id != -1) {
600a68b8:	808f      	lb	a0,15(s0)
600a68ba:	ea8f      	not	v0,a0
600a68bc:	2205      	beqz	v0,600a68c8 <btcall_enter_pb_tts_play+0x1c>
600a68be:	b214      	lw	v0,600a690c <btcall_enter_pb_tts_play+0x60>
            kill_app_timer(g_callring_data.callring_timer_id);
600a68c0:	eac0      	jalrc	v0
600a68c2:	6a01      	li	v0,1
600a68c4:	ea4b      	neg	v0
600a68c6:	c04f      	sb	v0,15(s0)
            g_callring_data.callring_timer_id = -1;
600a68c8:	b210      	lw	v0,600a6908 <btcall_enter_pb_tts_play+0x5c>
        }

        if(g_callring_data.callring_thread_exist == 1) {
600a68ca:	a280      	lbu	a0,0(v0)
600a68cc:	7401      	cmpi	a0,1
600a68ce:	610d      	btnez	600a68ea <btcall_enter_pb_tts_play+0x3e>
600a68d0:	6b01      	li	v1,1
            btcall_gl_var.need_exit_thread = TRUE;
600a68d2:	b20d      	lw	v0,600a6904 <btcall_enter_pb_tts_play+0x58>
600a68d4:	c262      	sb	v1,2(v0)
600a68d6:	2409      	beqz	a0,600a68ea <btcall_enter_pb_tts_play+0x3e>
            while(g_callring_data.callring_thread_exist != 0) {
                sys_os_time_dly(1);
600a68d8:	b10e      	lw	s1,600a6910 <btcall_enter_pb_tts_play+0x64>
600a68da:	b00c      	lw	s0,600a6908 <btcall_enter_pb_tts_play+0x5c>
600a68dc:	6c01      	li	a0,1
600a68de:	6d00      	li	a1,0
600a68e0:	67c5      	move	a2,a1
600a68e2:	e940      	jalr	s1
600a68e4:	6f31      	li	a3,49
600a68e6:	a040      	lbu	v0,0(s0)
600a68e8:	2af9      	bnez	v0,600a68dc <btcall_enter_pb_tts_play+0x30>
600a68ea:	b207      	lw	v0,600a6904 <btcall_enter_pb_tts_play+0x58>
            }
        }
    }

    if(btcall_gl_var.g_sco_deal_flag == 1) {
600a68ec:	a240      	lbu	v0,0(v0)
600a68ee:	7201      	cmpi	v0,1
600a68f0:	6102      	btnez	600a68f6 <btcall_enter_pb_tts_play+0x4a>
600a68f2:	b209      	lw	v0,600a6914 <btcall_enter_pb_tts_play+0x68>
        //如果正在通话，先切成CAG模式
        //如果sco链路已存在，先杀掉sco线程
        btcalleg_free_hfp_mmm();
600a68f4:	eac0      	jalrc	v0
600a68f6:	b304      	lw	v1,600a6904 <btcall_enter_pb_tts_play+0x58>
    }

    btcall_gl_var.tts_play_flag = 1;
600a68f8:	6a01      	li	v0,1
600a68fa:	c344      	sb	v0,4(v1)
600a68fc:	c345      	sb	v0,5(v1)
    btcall_gl_var.tts_pb_play_flag = 1;
600a68fe:	6a01      	li	v0,1

    return TRUE;
}
600a6900:	6474      	restore	32,ra,s0-s1
600a6902:	e8a0      	jrc	ra
600a6904:	9650      	lw	a2,320(sp)
600a6906:	9fc1      	lw	a2,4(a3)
600a6908:	9664      	lw	a2,400(sp)
600a690a:	9fc1      	lw	a2,4(a3)
600a690c:	6c0d      	li	a0,13
600a690e:	60a2      	bteqz	600a6854 <force_hfp_to_phone+0x54>
600a6910:	6009      	bteqz	600a6924 <btcall_exit_pb_tts_play+0xc>
600a6912:	bfc2      	lwu	a2,8(a3)
600a6914:	6c19      	li	a0,25
600a6916:	6012      	bteqz	600a693c <btcall_exit_pb_tts_play+0x24>

600a6918 <btcall_exit_pb_tts_play>:
600a6918:	64c3      	save	24,ra

/******************************************************************************
 * \par  Description:   退出电话本播报
 * \param[in]     null0
 * \param[out]   null
 * \return           null
 * \note
 * \  <author>       <time>        <opt>
 * \  Cailizhen          2015-1          creat
 * \   Wekan       2015-3-30     reviwe
 *******************************************************************************/

bool btcall_exit_pb_tts_play(void)
{
600a691a:	b30c      	lw	v1,600a6948 <btcall_exit_pb_tts_play+0x30>
    PRINT_DBG("tts pb finish\n");
    btcall_gl_var.tts_play_flag = 0;
600a691c:	6a00      	li	v0,0
600a691e:	c344      	sb	v0,4(v1)
600a6920:	c345      	sb	v0,5(v1)
    btcall_gl_var.tts_pb_play_flag = 0;
600a6922:	6a01      	li	v0,1
    btcall_gl_var.callin_pb_back = 1;
600a6924:	c349      	sb	v0,9(v1)
600a6926:	b20a      	lw	v0,600a694c <btcall_exit_pb_tts_play+0x34>
    if(g_p_bt_stack_cur_info->rmt_dev[g_p_bt_stack_cur_info->hfp_active_id].hfp_status == HFP_STATUS_CALLING) {
600a6928:	9a80      	lw	a0,0(v0)
600a692a:	f020 a475 	lbu	v1,53(a0)
600a692e:	3264      	sll	v0,v1,1
600a6930:	e269      	addu	v0,v1
600a6932:	324c      	sll	v0,3
600a6934:	e289      	addu	v0,a0
600a6936:	a253      	lbu	v0,19(v0)
600a6938:	7204      	cmpi	v0,4
600a693a:	6102      	btnez	600a6940 <btcall_exit_pb_tts_play+0x28>
600a693c:	b205      	lw	v0,600a6950 <btcall_exit_pb_tts_play+0x38>
        bt_engine_hfp_sco_connect_ind_handle();
600a693e:	eac0      	jalrc	v0
600a6940:	6a01      	li	v0,1
    }

    return TRUE;
}
600a6942:	6443      	restore	24,ra
600a6944:	e8a0      	jrc	ra
600a6946:	0000      	addiu	s0,sp,0
600a6948:	9650      	lw	a2,320(sp)
600a694a:	9fc1      	lw	a2,4(a3)
600a694c:	9674      	lw	a2,464(sp)
600a694e:	9fc1      	lw	a2,4(a3)
600a6950:	6cb9      	li	a0,185
600a6952:	6012      	bteqz	600a6978 <btcall_reply_msg+0x24>

600a6954 <btcall_reply_msg>:
600a6954:	64c3      	save	24,ra

/******************************************************************************
 * \par  Description:   回复同步消息
 * \param[in]    void  msg_ptr 消息结构体
 * \param[in]    ret_vals 上一事件的处理结果 TRUE 成功 FALSE 失败
 * \param[out]   none
 * \return           null
 * \note  回复消息时，根据ret_vals的结果，设置应答成功或失败
 * \  <author>       <time>        <opt>
 * \  Cailizhen          2015-1          creat
 * \   Wekan       2015-3-30     reviwe
 *******************************************************************************/

void btcall_reply_msg(void *msg_ptr, bool ret_vals)
{
600a6956:	ed11      	zeb	a1
600a6958:	7501      	cmpi	a1,1
    //消息指针
    private_msg_t *data_ptr = (private_msg_t *) msg_ptr;

    if(ret_vals == TRUE) {
600a695a:	6104      	btnez	600a6964 <btcall_reply_msg+0x10>
600a695c:	9c63      	lw	v1,12(a0)
        data_ptr->reply->type = MSG_REPLY_SUCCESS;
600a695e:	6a01      	li	v0,1
600a6960:	c340      	sb	v0,0(v1)
600a6962:	1003      	b	600a696a <btcall_reply_msg+0x16>
600a6964:	9c63      	lw	v1,12(a0)
    } else {
        data_ptr->reply->type = MSG_REPLY_FAILED;
600a6966:	6a02      	li	v0,2
600a6968:	c340      	sb	v0,0(v1)
600a696a:	9c82      	lw	a0,8(a0)
    }

    //回复同步消息(发送信号量)
    libc_sem_post(data_ptr->sem);
600a696c:	6d00      	li	a1,0
600a696e:	67c5      	move	a2,a1
600a6970:	b203      	lw	v0,600a697c <btcall_reply_msg+0x28>
600a6972:	ea40      	jalr	v0
600a6974:	6f16      	li	a3,22
600a6976:	6443      	restore	24,ra
}
600a6978:	e8a0      	jrc	ra
600a697a:	0000      	addiu	s0,sp,0
600a697c:	6005      	bteqz	600a6988 <app_msg_deal_app_quit+0x8>
600a697e:	bfc2      	lwu	a2,8(a3)

600a6980 <app_msg_deal_app_quit>:
600a6980:	64c3      	save	24,ra

/******************************************************************************
 * \par  Description:   消息初始化
 * \param[in]    void  msg_ptr 消息结构体
 * \param[out]   none
 * \return           null
 * \note
 * \  <author>       <time>        <opt>
 * \  Cailizhen          2015-1          creat
 * \   Wekan       2015-3-30     reviwe
 *******************************************************************************/

app_result_e app_msg_deal_app_quit(void)
{
600a6982:	b204      	lw	v0,600a6990 <app_msg_deal_app_quit+0x10>
    force_quit_thread();
600a6984:	eac0      	jalrc	v0
600a6986:	6aff      	li	v0,255

    return RESULT_APP_QUIT;
}
600a6988:	4241      	addiu	v0,v0,1
600a698a:	6443      	restore	24,ra
600a698c:	e8a0      	jrc	ra
600a698e:	0000      	addiu	s0,sp,0
600a6990:	6869      	li	s0,105
600a6992:	600a      	bteqz	600a69a8 <app_message_deal+0x14>

600a6994 <app_message_deal>:
600a6994:	64f5      	save	40,ra,s0-s1

/******************************************************************************
 * \par  Description:  处理消息事件
 * \param[in]    pri_msg  私有消息指针
 * \param[out]   none
 * \return           需要顶层处理的事件
 * \note
 * \  <author>       <time>        <opt>
 * \  Cailizhen          2015-1          creat
 * \   Wekan       2015-3-30     reviwe
 *******************************************************************************/

app_result_e app_message_deal(private_msg_t *pri_msg)
{
600a6996:	6724      	move	s1,a0
600a6998:	6a00      	li	v0,0
    app_result_e app_ret = RESULT_NULL;
600a699a:	d204      	sw	v0,16(sp)
600a699c:	9c40      	lw	v0,0(a0)
    bool ret_val;
    switch(pri_msg->msg.type) {
600a699e:	72f5      	cmpi	v0,245
600a69a0:	602e      	bteqz	600a69fe <app_message_deal+0x6a>
600a69a2:	5af6      	sltiu	v0,246
600a69a4:	600c      	bteqz	600a69be <app_message_deal+0x2a>
600a69a6:	72f2      	cmpi	v0,242
600a69a8:	6034      	bteqz	600a6a12 <.LBB2>
600a69aa:	5af3      	sltiu	v0,243
600a69ac:	6003      	bteqz	600a69b4 <app_message_deal+0x20>
600a69ae:	72f1      	cmpi	v0,241
600a69b0:	6073      	bteqz	600a6a98 <.LBE4+0x2>
600a69b2:	10c9      	b	600a6b46 <.LBE6+0x2>
600a69b4:	72f3      	cmpi	v0,243
600a69b6:	6043      	bteqz	600a6a3e <.LBB3>
600a69b8:	72f4      	cmpi	v0,244
600a69ba:	6017      	bteqz	600a69ea <app_message_deal+0x56>
600a69bc:	10c4      	b	600a6b46 <.LBE6+0x2>
600a69be:	f301 7202 	cmpi	v0,2818
600a69c2:	f080 6008 	bteqz	600a6ad6 <.LBE4+0x40>
600a69c6:	f301 5a03 	sltiu	v0,2819
600a69ca:	6006      	bteqz	600a69d8 <app_message_deal+0x44>
600a69cc:	72fa      	cmpi	v0,250
600a69ce:	6046      	bteqz	600a6a5c <.LBB4>
600a69d0:	f301 7201 	cmpi	v0,2817
600a69d4:	606f      	bteqz	600a6ab4 <.LBE4+0x1e>
600a69d6:	10b7      	b	600a6b46 <.LBE6+0x2>
600a69d8:	f301 7203 	cmpi	v0,2819
600a69dc:	f080 600d 	bteqz	600a6afa <.LBB5>
600a69e0:	f301 7204 	cmpi	v0,2820
600a69e4:	f080 601d 	bteqz	600a6b22 <.LBB6>
600a69e8:	10ae      	b	600a6b46 <.LBE6+0x2>
600a69ea:	b278      	lw	v0,600a6bc8 <.LBE6+0x84>
        case MSG_SWITCH_AOUT_START_SYNC: { //准备切换音频输出
            ret_val = btcall_enter_pb_tts_play();
600a69ec:	eac0      	jalrc	v0
600a69ee:	6c01      	li	a0,1
            btcall_gl_var.tts_play_flag = 1;
600a69f0:	b377      	lw	v1,600a6bcc <.LBE6+0x88>
600a69f2:	c384      	sb	a0,4(v1)
600a69f4:	67a2      	move	a1,v0
            btcall_reply_msg(pri_msg, ret_val);
600a69f6:	b277      	lw	v0,600a6bd0 <.LBE6+0x8c>
600a69f8:	ea40      	jalr	v0
600a69fa:	6791      	move	a0,s1
600a69fc:	10a8      	b	600a6b4e <.LBE6+0xa>
        }
        break;
600a69fe:	b276      	lw	v0,600a6bd4 <.LBE6+0x90>

        case MSG_SWITCH_AOUT_STOP_SYNC: { //完成切换音频输出
            ret_val = btcall_exit_pb_tts_play();
600a6a00:	eac0      	jalrc	v0
600a6a02:	6c00      	li	a0,0
            btcall_gl_var.tts_play_flag = 0;
600a6a04:	b372      	lw	v1,600a6bcc <.LBE6+0x88>
600a6a06:	c384      	sb	a0,4(v1)
600a6a08:	67a2      	move	a1,v0
            btcall_reply_msg(pri_msg, ret_val);
600a6a0a:	b272      	lw	v0,600a6bd0 <.LBE6+0x8c>
600a6a0c:	ea40      	jalr	v0
600a6a0e:	6791      	move	a0,s1
600a6a10:	109e      	b	600a6b4e <.LBE6+0xa>

600a6a12 <.LBB2>:
        }
        break;
600a6a12:	a444      	lbu	v0,4(a0)

        case MSG_TTS_START_SYNC: { //准备进入TTS播报
            bool pb_play_flag = pri_msg->msg.content.data[0];
600a6a14:	7201      	cmpi	v0,1

            if(pb_play_flag == TRUE) {
600a6a16:	6103      	btnez	600a6a1e <.LBB2+0xc>
600a6a18:	b26c      	lw	v0,600a6bc8 <.LBE6+0x84>
                ret_val = btcall_enter_pb_tts_play();
600a6a1a:	eac0      	jalrc	v0
600a6a1c:	100b      	b	600a6a34 <.LBB2+0x22>
600a6a1e:	b26f      	lw	v0,600a6bd8 <.LBE6+0x94>
            } else {
                PRINT_DBG("tts play\n");

                if((g_p_btcall_info->status != BTCALL_IDLE)
600a6a20:	9a40      	lw	v0,0(v0)
600a6a22:	a240      	lbu	v0,0(v0)
600a6a24:	5a02      	sltiu	v0,2
600a6a26:	6102      	btnez	600a6a2c <.LBB2+0x1a>
600a6a28:	6a00      	li	v0,0
                        && (g_p_btcall_info->status != BTCALL_STOP)) {
                    //不允许TTS播报
                    ret_val = FALSE;
600a6a2a:	1004      	b	600a6a34 <.LBB2+0x22>
600a6a2c:	6b01      	li	v1,1
                } else {
                    btcall_gl_var.tts_play_flag = 1;
600a6a2e:	b268      	lw	v0,600a6bcc <.LBE6+0x88>
600a6a30:	c264      	sb	v1,4(v0)
600a6a32:	6a01      	li	v0,1
                    ret_val = TRUE;
600a6a34:	67a2      	move	a1,v0
                }
            }

            btcall_reply_msg(pri_msg, ret_val);
600a6a36:	b267      	lw	v0,600a6bd0 <.LBE6+0x8c>
600a6a38:	ea40      	jalr	v0
600a6a3a:	6791      	move	a0,s1

600a6a3c <.LBE2>:
600a6a3c:	1088      	b	600a6b4e <.LBE6+0xa>

600a6a3e <.LBB3>:
        }
        break;
600a6a3e:	a444      	lbu	v0,4(a0)

        case MSG_TTS_STOP_SYNC: { //TTS播报完成
            bool pb_play_flag = pri_msg->msg.content.data[0];
600a6a40:	7201      	cmpi	v0,1

            PRINT_DBG("tts finish\n");

            if(pb_play_flag == TRUE) {
600a6a42:	6103      	btnez	600a6a4a <.LBB3+0xc>
600a6a44:	b264      	lw	v0,600a6bd4 <.LBE6+0x90>
                ret_val = btcall_exit_pb_tts_play();
600a6a46:	eac0      	jalrc	v0
600a6a48:	1004      	b	600a6a52 <.LBB3+0x14>
600a6a4a:	6b00      	li	v1,0
            } else {
                btcall_gl_var.tts_play_flag = 0;
600a6a4c:	b260      	lw	v0,600a6bcc <.LBE6+0x88>
600a6a4e:	c264      	sb	v1,4(v0)
600a6a50:	6a01      	li	v0,1
                ret_val = TRUE;
600a6a52:	67a2      	move	a1,v0
            }

            btcall_reply_msg(pri_msg, ret_val);
600a6a54:	b25f      	lw	v0,600a6bd0 <.LBE6+0x8c>
600a6a56:	ea40      	jalr	v0
600a6a58:	6791      	move	a0,s1

600a6a5a <.LBE3>:
600a6a5a:	1079      	b	600a6b4e <.LBE6+0xa>

600a6a5c <.LBB4>:
        }
        break;
600a6a5c:	9c41      	lw	v0,4(a0)

        case MSG_ENGINE_STANDBY_SYNC: {
            os_event_t *standby_sem = (os_event_t *)(pri_msg->msg.content.addr);
600a6a5e:	d205      	sw	v0,20(sp)
600a6a60:	0c3d      	la	a0,600a6b54 <.LBE6+0x10>

            //备份现场，准备进入睡眠模式
            PRINT_INFO("engine standby enter");
600a6a62:	6d00      	li	a1,0
600a6a64:	67c5      	move	a2,a1
600a6a66:	b05e      	lw	s0,600a6bdc <.LBE6+0x98>
600a6a68:	e840      	jalr	s0
600a6a6a:	6f4b      	li	a3,75
600a6a6c:	6791      	move	a0,s1

            //回复前台，然后接着跑就会睡眠
            btcall_reply_msg(pri_msg, TRUE);
600a6a6e:	b259      	lw	v0,600a6bd0 <.LBE6+0x8c>
600a6a70:	ea40      	jalr	v0
600a6a72:	6d01      	li	a1,1
600a6a74:	9405      	lw	a0,20(sp)

            libc_sem_wait(standby_sem, 0);
600a6a76:	6d00      	li	a1,0
600a6a78:	67c5      	move	a2,a1
600a6a7a:	b25a      	lw	v0,600a6be0 <.LBE6+0x9c>
600a6a7c:	ea40      	jalr	v0
600a6a7e:	6f14      	li	a3,20
600a6a80:	0c3c      	la	a0,600a6b70 <.LBE6+0x2c>

            //从睡眠模式回来，恢复现场
            PRINT_INFO("engine standby exit");
600a6a82:	6d00      	li	a1,0
600a6a84:	67c5      	move	a2,a1
600a6a86:	e840      	jalr	s0
600a6a88:	6f4b      	li	a3,75
600a6a8a:	b257      	lw	v0,600a6be4 <.LBE6+0xa0>
            standby_restart_all_app_timer(g_app_timer_vector, g_app_timer_count);
600a6a8c:	9a80      	lw	a0,0(v0)
600a6a8e:	b257      	lw	v0,600a6be8 <.LBE6+0xa4>
600a6a90:	a2a0      	lbu	a1,0(v0)
600a6a92:	b257      	lw	v0,600a6bec <.LBE6+0xa8>
600a6a94:	eac0      	jalrc	v0

600a6a96 <.LBE4>:
600a6a96:	105b      	b	600a6b4e <.LBE6+0xa>
        }
        break;
600a6a98:	a444      	lbu	v0,4(a0)

        case MSG_APP_QUIT: //退出引擎
            PRINT_DBG("quit btcall engine\n");
            if((pri_msg->msg.content.data[0] & 0x01) != 0) {
600a6a9a:	6b01      	li	v1,1
600a6a9c:	ea6c      	and	v0,v1
600a6a9e:	2206      	beqz	v0,600a6aac <.LBE4+0x16>
600a6aa0:	0c3a      	la	a0,600a6b88 <.LBE6+0x44>
                PRINT_INFO("eg enter s3bt");
600a6aa2:	6d00      	li	a1,0
600a6aa4:	67c5      	move	a2,a1
600a6aa6:	b24e      	lw	v0,600a6bdc <.LBE6+0x98>
600a6aa8:	ea40      	jalr	v0
600a6aaa:	6f4b      	li	a3,75
600a6aac:	b251      	lw	v0,600a6bf0 <.LBE6+0xac>
            }
            app_ret = app_msg_deal_app_quit();
600a6aae:	eac0      	jalrc	v0
600a6ab0:	d204      	sw	v0,16(sp)
600a6ab2:	104d      	b	600a6b4e <.LBE6+0xa>
            break;
600a6ab4:	6b01      	li	v1,1

        //通话远端静音
        case MSG_BTCALLEG_MIC_MUTE_SYNC:
            btcall_gl_var.g_mic_mute_flag = TRUE;
600a6ab6:	b246      	lw	v0,600a6bcc <.LBE6+0x88>
600a6ab8:	c26b      	sb	v1,11(v0)
600a6aba:	6b02      	li	v1,2

            g_dsp_init_parm.pcm_mode = 2;//上传静音数据
600a6abc:	b24e      	lw	v0,600a6bf4 <.LBE6+0xb0>
600a6abe:	da75      	sw	v1,84(v0)
600a6ac0:	0c37      	la	a0,600a6b9c <.LBE6+0x58>

            libc_print("btcall-set-mic-mute.", 0, 0);
600a6ac2:	6d00      	li	a1,0
600a6ac4:	67c5      	move	a2,a1
600a6ac6:	b246      	lw	v0,600a6bdc <.LBE6+0x98>
600a6ac8:	ea40      	jalr	v0
600a6aca:	6f4b      	li	a3,75
600a6acc:	6791      	move	a0,s1
            btcall_reply_msg(pri_msg, TRUE);
600a6ace:	b241      	lw	v0,600a6bd0 <.LBE6+0x8c>
600a6ad0:	ea40      	jalr	v0
600a6ad2:	6d01      	li	a1,1
600a6ad4:	103c      	b	600a6b4e <.LBE6+0xa>
            break;
600a6ad6:	b03e      	lw	s0,600a6bcc <.LBE6+0x88>

        //通话远端恢复正常
        case MSG_BTCALLEG_MIC_RELEASEMUTE_SYNC:
            btcall_gl_var.g_mic_mute_flag = FALSE;
600a6ad8:	6a00      	li	v0,0
600a6ada:	c04b      	sb	v0,11(s0)
600a6adc:	6e00      	li	a2,0

            g_dsp_init_parm.pcm_mode = 0;//上传静音数据
600a6ade:	b246      	lw	v0,600a6bf4 <.LBE6+0xb0>
600a6ae0:	dad5      	sw	a2,84(v0)
600a6ae2:	0c35      	la	a0,600a6bb4 <.LBE6+0x70>

            libc_print("btcall-set-mic-ok.", 0, 0);
600a6ae4:	67a6      	move	a1,a2
600a6ae6:	b23e      	lw	v0,600a6bdc <.LBE6+0x98>
600a6ae8:	ea40      	jalr	v0
600a6aea:	6f4b      	li	a3,75
600a6aec:	6a01      	li	v0,1
            btcall_gl_var.g_actaec_reset_flag = TRUE;
600a6aee:	c04a      	sb	v0,10(s0)
600a6af0:	6791      	move	a0,s1
            btcall_reply_msg(pri_msg, TRUE);
600a6af2:	b238      	lw	v0,600a6bd0 <.LBE6+0x8c>
600a6af4:	ea40      	jalr	v0
600a6af6:	6d01      	li	a1,1
600a6af8:	102a      	b	600a6b4e <.LBE6+0xa>

600a6afa <.LBB5>:
            break;
600a6afa:	9c43      	lw	v0,12(a0)


        case  MSG_BTCALLEG_GET_EG_VOLUM_SYNC: {
            uint32 *pu32 = (uint32 *)pri_msg->reply->content;
600a6afc:	9a61      	lw	v1,4(v0)
600a6afe:	b23f      	lw	v0,600a6bf8 <.LBE6+0xb4>
//         *pu32 = g_asqt_parm.asqt_volume;
            if(g_stub_8k_16k == 1) {
600a6b00:	a240      	lbu	v0,0(v0)
600a6b02:	7201      	cmpi	v0,1
600a6b04:	6105      	btnez	600a6b10 <.LBB5+0x16>
600a6b06:	b23e      	lw	v0,600a6bfc <.LBE6+0xb8>
//             libc_print("asqt_volume_16k",g_asqt_parm_16k.asqt_volume,2);
                *pu32 = g_asqt_parm_16k.asqt_volume;
600a6b08:	4a7c      	addiu	v0,124
600a6b0a:	9a4a      	lw	v0,40(v0)
600a6b0c:	db40      	sw	v0,0(v1)
600a6b0e:	1004      	b	600a6b18 <.LBB5+0x1e>
600a6b10:	b23c      	lw	v0,600a6c00 <.LBE6+0xbc>
            } else {
//             libc_print("asqt_volume",g_asqt_parm.asqt_volume,2);
                *pu32 = g_asqt_parm.asqt_volume;
600a6b12:	4a7c      	addiu	v0,124
600a6b14:	9a5d      	lw	v0,116(v0)
600a6b16:	db40      	sw	v0,0(v1)
600a6b18:	6791      	move	a0,s1
            }
            btcall_reply_msg(pri_msg, TRUE);
600a6b1a:	b22e      	lw	v0,600a6bd0 <.LBE6+0x8c>
600a6b1c:	ea40      	jalr	v0
600a6b1e:	6d01      	li	a1,1

600a6b20 <.LBE5>:
600a6b20:	1016      	b	600a6b4e <.LBE6+0xa>

600a6b22 <.LBB6>:
        }
        break;
600a6b22:	9c43      	lw	v0,12(a0)


        case MSG_BTCALLEG_GET_EG_PA_VOLUM_SYNC: {
            uint32 *pu32 = (uint32 *)pri_msg->reply->content;
600a6b24:	9a61      	lw	v1,4(v0)
600a6b26:	b235      	lw	v0,600a6bf8 <.LBE6+0xb4>
//         *pu32 = g_asqt_parm.AsqtCfg.pa_volume;
            if(g_stub_8k_16k == 1) {
600a6b28:	a240      	lbu	v0,0(v0)
600a6b2a:	7201      	cmpi	v0,1
600a6b2c:	6104      	btnez	600a6b36 <.LBB6+0x14>
600a6b2e:	b234      	lw	v0,600a6bfc <.LBE6+0xb8>
//             libc_print("asqt_volume_16k_pa",g_asqt_parm_16k.AsqtCfg.pa_volume,2);
                *pu32 = g_asqt_parm_16k.AsqtCfg.pa_volume;
600a6b30:	9a52      	lw	v0,72(v0)
600a6b32:	db40      	sw	v0,0(v1)
600a6b34:	1003      	b	600a6b3c <.LBB6+0x1a>
600a6b36:	b233      	lw	v0,600a6c00 <.LBE6+0xbc>
            } else {
//             libc_print("asqt_volume_pa",g_asqt_parm.AsqtCfg.pa_volume,2);
                *pu32 = g_asqt_parm.AsqtCfg.pa_volume;
600a6b38:	9a52      	lw	v0,72(v0)
600a6b3a:	db40      	sw	v0,0(v1)
600a6b3c:	6791      	move	a0,s1
            }
            btcall_reply_msg(pri_msg, TRUE);
600a6b3e:	b225      	lw	v0,600a6bd0 <.LBE6+0x8c>
600a6b40:	ea40      	jalr	v0
600a6b42:	6d01      	li	a1,1

600a6b44 <.LBE6>:
600a6b44:	1004      	b	600a6b4e <.LBE6+0xa>
        }
        break;
600a6b46:	6791      	move	a0,s1

        default:
            btcall_reply_msg(pri_msg, TRUE);
600a6b48:	b222      	lw	v0,600a6bd0 <.LBE6+0x8c>
600a6b4a:	ea40      	jalr	v0
600a6b4c:	6d01      	li	a1,1
600a6b4e:	9204      	lw	v0,16(sp)
            break;
    }

    return app_ret;
}
600a6b50:	6475      	restore	40,ra,s0-s1
600a6b52:	e8a0      	jrc	ra
600a6b54:	493c      	addiu	s1,60
600a6b56:	203e      	beqz	s0,600a6bd4 <.LBE6+0x90>
600a6b58:	6e65      	li	a2,101
600a6b5a:	6967      	li	s1,103
600a6b5c:	656e      	move	t3,a2
600a6b5e:	7320      	cmpi	v1,32
600a6b60:	6174      	btnez	600a6c4a <.LBE6+0x106>
600a6b62:	646e      	restore	112,ra,s0
600a6b64:	7962      	sd	v1,16(s1)
600a6b66:	6520      	move	at,s0
600a6b68:	746e      	cmpi	a0,110
600a6b6a:	7265      	cmpi	v0,101
600a6b6c:	0000      	addiu	s0,sp,0
600a6b6e:	0000      	addiu	s0,sp,0
600a6b70:	493c      	addiu	s1,60
600a6b72:	203e      	beqz	s0,600a6bf0 <.LBE6+0xac>
600a6b74:	6e65      	li	a2,101
600a6b76:	6967      	li	s1,103
600a6b78:	656e      	move	t3,a2
600a6b7a:	7320      	cmpi	v1,32
600a6b7c:	6174      	btnez	600a6c66 <.LBE6+0x122>
600a6b7e:	646e      	restore	112,ra,s0
600a6b80:	7962      	sd	v1,16(s1)
600a6b82:	6520      	move	at,s0
600a6b84:	6978      	li	s1,120
600a6b86:	0074      	addiu	s0,sp,464
600a6b88:	493c      	addiu	s1,60
600a6b8a:	203e      	beqz	s0,600a6c08 <.LBE6+0xc4>
600a6b8c:	6765      	move	v1,a1
600a6b8e:	6520      	move	at,s0
600a6b90:	746e      	cmpi	a0,110
600a6b92:	7265      	cmpi	v0,101
600a6b94:	7320      	cmpi	v1,32
600a6b96:	6233      	sw	ra,204(sp)
600a6b98:	0074      	addiu	s0,sp,464
600a6b9a:	0000      	addiu	s0,sp,0
600a6b9c:	7462      	cmpi	a0,98
600a6b9e:	6163      	btnez	600a6c66 <.LBE6+0x122>
600a6ba0:	6c6c      	li	a0,108
600a6ba2:	732d      	cmpi	v1,45
600a6ba4:	7465      	cmpi	a0,101
600a6ba6:	6d2d      	li	a1,45
600a6ba8:	6369      	addiu	sp,840
600a6baa:	6d2d      	li	a1,45
600a6bac:	7475      	cmpi	a0,117
600a6bae:	2e65      	bnez	a2,600a6c7a <.LBE6+0x136>
600a6bb0:	0000      	addiu	s0,sp,0
600a6bb2:	0000      	addiu	s0,sp,0
600a6bb4:	7462      	cmpi	a0,98
600a6bb6:	6163      	btnez	600a6c7e <.LBE6+0x13a>
600a6bb8:	6c6c      	li	a0,108
600a6bba:	732d      	cmpi	v1,45
600a6bbc:	7465      	cmpi	a0,101
600a6bbe:	6d2d      	li	a1,45
600a6bc0:	6369      	addiu	sp,840
600a6bc2:	6f2d      	li	a3,45
600a6bc4:	2e6b      	bnez	a2,600a6c9c <.LBE6+0x158>
600a6bc6:	0000      	addiu	s0,sp,0
600a6bc8:	68ad      	li	s0,173
600a6bca:	600a      	bteqz	600a6be0 <.LBE6+0x9c>
600a6bcc:	9650      	lw	a2,320(sp)
600a6bce:	9fc1      	lw	a2,4(a3)
600a6bd0:	6955      	li	s1,85
600a6bd2:	600a      	bteqz	600a6be8 <.LBE6+0xa4>
600a6bd4:	6919      	li	s1,25
600a6bd6:	600a      	bteqz	600a6bec <.LBE6+0xa8>
600a6bd8:	9680      	lw	a2,512(sp)
600a6bda:	9fc1      	lw	a2,4(a3)
600a6bdc:	6009      	bteqz	600a6bf0 <.LBE6+0xac>
600a6bde:	bfc2      	lwu	a2,8(a3)
600a6be0:	6005      	bteqz	600a6bec <.LBE6+0xa8>
600a6be2:	bfc2      	lwu	a2,8(a3)
600a6be4:	9594      	lw	a1,592(sp)
600a6be6:	9fc1      	lw	a2,4(a3)
600a6be8:	95a4      	lw	a1,656(sp)
600a6bea:	9fc1      	lw	a2,4(a3)
600a6bec:	6c85      	li	a0,133
600a6bee:	60a2      	bteqz	600a6b34 <.LBB6+0x12>
600a6bf0:	6981      	li	s1,129
600a6bf2:	600a      	bteqz	600a6c08 <.LBE6+0xc4>
600a6bf4:	96a4      	lw	a2,656(sp)
600a6bf6:	9fc1      	lw	a2,4(a3)
600a6bf8:	95ad      	lw	a1,692(sp)
600a6bfa:	9fc1      	lw	a2,4(a3)
600a6bfc:	9840      	lw	v0,0(s0)
600a6bfe:	9fc1      	lw	a2,4(a3)
600a6c00:	9724      	lw	a3,144(sp)
600a6c02:	9fc1      	lw	a2,4(a3)
Disassembly of section BANK_CONTROL_1_3:

600e6800 <memcpy_dual_callring>:
600e6800:	64b1      	save	8,s0-s1
600e6802:	6704      	move	s0,a0
600e6804:	ef11      	zeb	a3
600e6806:	2e01      	bnez	a2,600e680a <memcpy_dual_callring+0xa>
600e6808:	46c1      	addiu	a2,a2,1
600e680a:	6c00      	li	a0,0
600e680c:	ecc2      	slt	a0,a2
600e680e:	6020      	bteqz	600e6850 <memcpy_dual_callring+0x50>
600e6810:	6b01      	li	v1,1
600e6812:	ebee      	xor	v1,a3
600e6814:	5b01      	sltiu	v1,1
600e6816:	6758      	move	v0,t8
600e6818:	653a      	move	t9,v0
600e681a:	7702      	cmpi	a3,2
600e681c:	6738      	move	s1,t8
600e681e:	5901      	sltiu	s1,1
600e6820:	67f8      	move	a3,t8
600e6822:	e589      	addu	v0,a1,a0
600e6824:	8a60      	lh	v1,0(v0)
600e6826:	6759      	move	v0,t9
600e6828:	2206      	beqz	v0,600e6836 <memcpy_dual_callring+0x36>
600e682a:	eb98      	mult	v1,a0
600e682c:	ea12      	mflo	v0
600e682e:	eada      	div	zero,v0,a2
600e6830:	eb12      	mflo	v1
600e6832:	6500      	nop
600e6834:	1006      	b	600e6842 <memcpy_dual_callring+0x42>
600e6836:	2705      	beqz	a3,600e6842 <memcpy_dual_callring+0x42>
600e6838:	e68b      	subu	v0,a2,a0
600e683a:	ea78      	mult	v0,v1
600e683c:	e912      	mflo	s1
600e683e:	e9da      	div	zero,s1,a2
600e6840:	eb12      	mflo	v1
600e6842:	3284      	sll	v0,a0,1
600e6844:	e209      	addu	v0,s0
600e6846:	ca60      	sh	v1,0(v0)
600e6848:	ca61      	sh	v1,2(v0)
600e684a:	4482      	addiu	a0,a0,2
600e684c:	ecc2      	slt	a0,a2
600e684e:	61e9      	btnez	600e6822 <memcpy_dual_callring+0x22>
600e6850:	6431      	restore	8,s0-s1
600e6852:	e8a0      	jrc	ra

600e6854 <callring_frame>:
600e6854:	f004 64f4 	save	a0,32,ra,s0-s1
600e6858:	6725      	move	s1,a1
600e685a:	b034      	lw	s0,600e6928 <.L18+0x8>
600e685c:	a04e      	lbu	v0,14(s0)
600e685e:	7201      	cmpi	v0,1
600e6860:	610d      	btnez	600e687c <callring_frame+0x28>
600e6862:	6d00      	li	a1,0
600e6864:	67d1      	move	a2,s1
600e6866:	b232      	lw	v0,600e692c <.L18+0xc>
600e6868:	ea40      	jalr	v0
600e686a:	6f01      	li	a3,1
600e686c:	a846      	lhu	v0,12(s0)
600e686e:	424f      	addiu	v0,v0,-1
600e6870:	c846      	sh	v0,12(s0)
600e6872:	a846      	lhu	v0,12(s0)
600e6874:	2a01      	bnez	v0,600e6878 <callring_frame+0x24>
600e6876:	c04e      	sb	v0,14(s0)
600e6878:	6711      	move	s0,s1
600e687a:	1052      	b	600e6920 <.L18>
600e687c:	b22b      	lw	v0,600e6928 <.L18+0x8>
600e687e:	9a81      	lw	a0,4(v0)
600e6880:	6d00      	li	a1,0
600e6882:	aac5      	lhu	a2,10(v0)
600e6884:	b22b      	lw	v0,600e6930 <.L18+0x10>
600e6886:	ea40      	jalr	v0
600e6888:	6f0f      	li	a3,15
600e688a:	ea4f      	not	v0
600e688c:	2a03      	bnez	v0,600e6894 <callring_frame+0x40>
600e688e:	6801      	li	s0,1
600e6890:	e80b      	neg	s0
600e6892:	1046      	b	600e6920 <.L18>
600e6894:	b325      	lw	v1,600e6928 <.L18+0x8>
600e6896:	abe5      	lhu	a3,10(v1)
600e6898:	e729      	addu	v0,a3,s1
600e689a:	abc4      	lhu	a2,8(v1)
600e689c:	ee42      	slt	a2,v0
600e689e:	6008      	bteqz	600e68b0 <callring_frame+0x5c>
600e68a0:	9b81      	lw	a0,4(v1)
600e68a2:	9508      	lw	a1,32(sp)
600e68a4:	e6fb      	subu	a2,a3
600e68a6:	b223      	lw	v0,600e6930 <.L18+0x10>
600e68a8:	ea40      	jalr	v0
600e68aa:	6f11      	li	a3,17
600e68ac:	6702      	move	s0,v0
600e68ae:	1008      	b	600e68c0 <callring_frame+0x6c>
600e68b0:	b21e      	lw	v0,600e6928 <.L18+0x8>
600e68b2:	9a81      	lw	a0,4(v0)
600e68b4:	9508      	lw	a1,32(sp)
600e68b6:	67d1      	move	a2,s1
600e68b8:	b21e      	lw	v0,600e6930 <.L18+0x10>
600e68ba:	ea40      	jalr	v0
600e68bc:	6f11      	li	a3,17
600e68be:	6702      	move	s0,v0
600e68c0:	ea0f      	not	v0,s0
600e68c2:	222e      	beqz	v0,600e6920 <.L18>
600e68c4:	b219      	lw	v0,600e6928 <.L18+0x8>
600e68c6:	aa45      	lhu	v0,10(v0)
600e68c8:	2a05      	bnez	v0,600e68d4 <callring_frame+0x80>
600e68ca:	9308      	lw	v1,32(sp)
600e68cc:	c340      	sb	v0,0(v1)
600e68ce:	c341      	sb	v0,1(v1)
600e68d0:	c342      	sb	v0,2(v1)
600e68d2:	c343      	sb	v0,3(v1)
600e68d4:	b415      	lw	a0,600e6928 <.L18+0x8>
600e68d6:	ac45      	lhu	v0,10(a0)
600e68d8:	e049      	addu	v0,s0,v0
600e68da:	cc45      	sh	v0,10(a0)
600e68dc:	ac65      	lhu	v1,10(a0)
600e68de:	ac44      	lhu	v0,8(a0)
600e68e0:	eb43      	sltu	v1,v0
600e68e2:	6115      	btnez	600e690e <callring_frame+0xba>
600e68e4:	6a00      	li	v0,0
600e68e6:	cc45      	sh	v0,10(a0)
600e68e8:	5101      	slti	s1,1
600e68ea:	610b      	btnez	600e6902 <callring_frame+0xae>
600e68ec:	b212      	lw	v0,600e6934 <.L18+0x14>
600e68ee:	a267      	lbu	v1,7(v0)
600e68f0:	3264      	sll	v0,v1,1
600e68f2:	e269      	addu	v0,v1
600e68f4:	324c      	sll	v0,3
600e68f6:	e269      	addu	v0,v1
600e68f8:	3258      	sll	v0,6
600e68fa:	ea3a      	div	zero,v0,s1
600e68fc:	ea12      	mflo	v0
600e68fe:	cc46      	sh	v0,12(a0)
600e6900:	1003      	b	600e6908 <callring_frame+0xb4>
600e6902:	6b06      	li	v1,6
600e6904:	b209      	lw	v0,600e6928 <.L18+0x8>
600e6906:	ca66      	sh	v1,12(v0)
600e6908:	6b01      	li	v1,1
600e690a:	b208      	lw	v0,600e6928 <.L18+0x8>
600e690c:	c26e      	sb	v1,14(v0)
600e690e:	e822      	slt	s0,s1
600e6910:	6007      	bteqz	600e6920 <.L18>
600e6912:	9308      	lw	v1,32(sp)
600e6914:	e311      	addu	a0,v1,s0
600e6916:	6d00      	li	a1,0
600e6918:	e11b      	subu	a2,s1,s0
600e691a:	b205      	lw	v0,600e692c <.L18+0xc>
600e691c:	ea40      	jalr	v0
600e691e:	6f01      	li	a3,1

600e6920 <.L18>:
600e6920:	6750      	move	v0,s0
600e6922:	6474      	restore	32,ra,s0-s1
600e6924:	e8a0      	jrc	ra
600e6926:	0000      	addiu	s0,sp,0
600e6928:	9664      	lw	a2,400(sp)
600e692a:	9fc1      	lw	a2,4(a3)
600e692c:	6005      	bteqz	600e6938 <callring_start>
600e692e:	bfc2      	lwu	a2,8(a3)
600e6930:	6009      	bteqz	600e6944 <callring_start+0xc>
600e6932:	bfc2      	lwu	a2,8(a3)
600e6934:	9650      	lw	a2,320(sp)
600e6936:	9fc1      	lw	a2,4(a3)

600e6938 <callring_start>:
600e6938:	64f6      	save	48,ra,s0-s1
600e693a:	b231      	lw	v0,600e69fc <callring_start+0xc4>
600e693c:	a240      	lbu	v0,0(v0)
600e693e:	2a41      	bnez	v0,600e69c2 <callring_start+0x8a>
600e6940:	b230      	lw	v0,600e6a00 <callring_start+0xc8>
600e6942:	6b01      	li	v1,1
600e6944:	c262      	sb	v1,2(v0)
600e6946:	a240      	lbu	v0,0(v0)
600e6948:	2202      	beqz	v0,600e694e <callring_start+0x16>
600e694a:	b22f      	lw	v0,600e6a04 <callring_start+0xcc>
600e694c:	eac0      	jalrc	v0
600e694e:	0c1f      	la	a0,600e69c8 <callring_start+0x90>
600e6950:	6d00      	li	a1,0
600e6952:	67c5      	move	a2,a1
600e6954:	b12d      	lw	s1,600e6a08 <callring_start+0xd0>
600e6956:	e940      	jalr	s1
600e6958:	6f0d      	li	a3,13
600e695a:	6702      	move	s0,v0
600e695c:	b228      	lw	v0,600e69fc <callring_start+0xc4>
600e695e:	da01      	sw	s0,4(v0)
600e6960:	2808      	bnez	s0,600e6972 <callring_start+0x3a>
600e6962:	0c1e      	la	a0,600e69d8 <callring_start+0xa0>
600e6964:	67b0      	move	a1,s0
600e6966:	67d0      	move	a2,s0
600e6968:	e940      	jalr	s1
600e696a:	6f4b      	li	a3,75
600e696c:	b324      	lw	v1,600e69fc <callring_start+0xc4>
600e696e:	cb04      	sh	s0,8(v1)
600e6970:	100d      	b	600e698c <callring_start+0x54>
600e6972:	b023      	lw	s0,600e69fc <callring_start+0xc4>
600e6974:	9881      	lw	a0,4(s0)
600e6976:	6d00      	li	a1,0
600e6978:	67c5      	move	a2,a1
600e697a:	b124      	lw	s1,600e6a08 <callring_start+0xd0>
600e697c:	e940      	jalr	s1
600e697e:	6f0f      	li	a3,15
600e6980:	9881      	lw	a0,4(s0)
600e6982:	67b0      	move	a1,s0
600e6984:	4d08      	addiu	a1,8
600e6986:	6e02      	li	a2,2
600e6988:	e940      	jalr	s1
600e698a:	6f11      	li	a3,17
600e698c:	b31c      	lw	v1,600e69fc <callring_start+0xc4>
600e698e:	6c00      	li	a0,0
600e6990:	cb85      	sh	a0,10(v1)
600e6992:	6a01      	li	v0,1
600e6994:	ea4b      	neg	v0
600e6996:	c34f      	sb	v0,15(v1)
600e6998:	b21a      	lw	v0,600e6a00 <callring_start+0xc8>
600e699a:	c283      	sb	a0,3(v0)
600e699c:	b21c      	lw	v0,600e6a0c <callring_start+0xd4>
600e699e:	d204      	sw	v0,16(sp)
600e69a0:	6a00      	li	v0,0
600e69a2:	d205      	sw	v0,20(sp)
600e69a4:	b21b      	lw	v0,600e6a10 <callring_start+0xd8>
600e69a6:	d206      	sw	v0,24(sp)
600e69a8:	f4a0 6a10 	li	v0,1200
600e69ac:	677d      	move	v1,sp
600e69ae:	cb4e      	sh	v0,28(v1)
600e69b0:	0404      	addiu	a0,sp,16
600e69b2:	6d03      	li	a1,3
600e69b4:	6eff      	li	a2,255
600e69b6:	b215      	lw	v0,600e6a08 <callring_start+0xd0>
600e69b8:	ea40      	jalr	v0
600e69ba:	6f4a      	li	a3,74
600e69bc:	5200      	slti	v0,0
600e69be:	6001      	bteqz	600e69c2 <callring_start+0x8a>
600e69c0:	17ff      	b	600e69c0 <callring_start+0x88>
600e69c2:	6476      	restore	48,ra,s0-s1
600e69c4:	e8a0      	jrc	ra
600e69c6:	0000      	addiu	s0,sp,0
600e69c8:	6163      	btnez	600e6a90 <callring_thread_handle+0x7c>
600e69ca:	6c6c      	li	a0,108
600e69cc:	6972      	li	s1,114
600e69ce:	676e      	move	v1,t6
600e69d0:	702e      	cmpi	s0,46
600e69d2:	6d63      	li	a1,99
600e69d4:	0000      	addiu	s0,sp,0
600e69d6:	0000      	addiu	s0,sp,0
600e69d8:	453c      	daddiu	s1,a1,-4
600e69da:	203e      	beqz	s0,600e6a58 <callring_thread_handle+0x44>
600e69dc:	6143      	btnez	600e6a64 <callring_thread_handle+0x50>
600e69de:	6e6e      	li	a2,110
600e69e0:	7427      	cmpi	a0,39
600e69e2:	6f20      	li	a3,32
600e69e4:	6570      	move	s3,s0
600e69e6:	206e      	beqz	s0,600e6ac4 <callring_thread_handle+0xb0>
600e69e8:	6966      	li	s1,102
600e69ea:	656c      	move	t3,a0
600e69ec:	6320      	addiu	sp,256
600e69ee:	6c61      	li	a0,97
600e69f0:	726c      	cmpi	v0,108
600e69f2:	6e69      	li	a2,105
600e69f4:	2e67      	bnez	a2,600e6ac4 <callring_thread_handle+0xb0>
600e69f6:	6370      	addiu	sp,896
600e69f8:	216d      	beqz	s1,600e6ad4 <callring_thread_handle+0xc0>
600e69fa:	0000      	addiu	s0,sp,0
600e69fc:	9664      	lw	a2,400(sp)
600e69fe:	9fc1      	lw	a2,4(a3)
600e6a00:	9650      	lw	a2,320(sp)
600e6a02:	9fc1      	lw	a2,4(a3)
600e6a04:	6c19      	li	a0,25
600e6a06:	6012      	bteqz	600e6a2c <callring_thread_handle+0x18>
600e6a08:	6009      	bteqz	600e6a1c <callring_thread_handle+0x8>
600e6a0a:	bfc2      	lwu	a2,8(a3)
600e6a0c:	6a15      	li	v0,21
600e6a0e:	600e      	bteqz	600e6a2c <callring_thread_handle+0x18>
600e6a10:	bdf0      	lwu	a3,64(a1)
600e6a12:	9fc1      	lw	a2,4(a3)

600e6a14 <callring_thread_handle>:
600e6a14:	64f5      	save	40,ra,s0-s1
600e6a16:	6a00      	li	v0,0
600e6a18:	d204      	sw	v0,16(sp)
600e6a1a:	6a01      	li	v0,1
600e6a1c:	b385      	lw	v1,600e6c30 <callring_thread_handle+0x21c>
600e6a1e:	c340      	sb	v0,0(v1)
600e6a20:	b285      	lw	v0,600e6c34 <callring_thread_handle+0x220>
600e6a22:	677d      	move	v1,sp
600e6a24:	a370      	lbu	v1,16(v1)
600e6a26:	c262      	sb	v1,2(v0)
600e6a28:	b383      	lw	v1,600e6c34 <callring_thread_handle+0x220>
600e6a2a:	a342      	lbu	v0,2(v1)
600e6a2c:	7201      	cmpi	v0,1
600e6a2e:	6135      	btnez	600e6a9a <callring_thread_handle+0x86>
600e6a30:	9204      	lw	v0,16(sp)
600e6a32:	2a02      	bnez	v0,600e6a38 <callring_thread_handle+0x24>
600e6a34:	6b02      	li	v1,2
600e6a36:	d304      	sw	v1,16(sp)
600e6a38:	9204      	lw	v0,16(sp)
600e6a3a:	7203      	cmpi	v0,3
600e6a3c:	612e      	btnez	600e6a9a <callring_thread_handle+0x86>
600e6a3e:	b37e      	lw	v1,600e6c34 <callring_thread_handle+0x220>
600e6a40:	a343      	lbu	v0,3(v1)
600e6a42:	7202      	cmpi	v0,2
600e6a44:	6115      	btnez	600e6a70 <callring_thread_handle+0x5c>
600e6a46:	b47d      	lw	a0,600e6c38 <callring_thread_handle+0x224>
600e6a48:	6d00      	li	a1,0
600e6a4a:	6eff      	li	a2,255
600e6a4c:	46c1      	addiu	a2,a2,1
600e6a4e:	b27c      	lw	v0,600e6c3c <callring_thread_handle+0x228>
600e6a50:	ea40      	jalr	v0
600e6a52:	6f01      	li	a3,1
600e6a54:	b27b      	lw	v0,600e6c40 <callring_thread_handle+0x22c>
600e6a56:	a240      	lbu	v0,0(v0)
600e6a58:	f0a0 2a17 	bnez	v0,600e6bca <callring_thread_handle+0x1b6>
600e6a5c:	b17a      	lw	s1,600e6c44 <callring_thread_handle+0x230>
600e6a5e:	b079      	lw	s0,600e6c40 <callring_thread_handle+0x22c>
600e6a60:	6c01      	li	a0,1
600e6a62:	6d00      	li	a1,0
600e6a64:	67c5      	move	a2,a1
600e6a66:	e940      	jalr	s1
600e6a68:	6f1d      	li	a3,29
600e6a6a:	a040      	lbu	v0,0(s0)
600e6a6c:	22f9      	beqz	v0,600e6a60 <callring_thread_handle+0x4c>
600e6a6e:	10ad      	b	600e6bca <callring_thread_handle+0x1b6>
600e6a70:	b476      	lw	a0,600e6c48 <callring_thread_handle+0x234>
600e6a72:	6d00      	li	a1,0
600e6a74:	6eff      	li	a2,255
600e6a76:	46c1      	addiu	a2,a2,1
600e6a78:	b271      	lw	v0,600e6c3c <callring_thread_handle+0x228>
600e6a7a:	ea40      	jalr	v0
600e6a7c:	6f01      	li	a3,1
600e6a7e:	b274      	lw	v0,600e6c4c <callring_thread_handle+0x238>
600e6a80:	a240      	lbu	v0,0(v0)
600e6a82:	f0a0 2a02 	bnez	v0,600e6bca <callring_thread_handle+0x1b6>
600e6a86:	b170      	lw	s1,600e6c44 <callring_thread_handle+0x230>
600e6a88:	b071      	lw	s0,600e6c4c <callring_thread_handle+0x238>
600e6a8a:	6c01      	li	a0,1
600e6a8c:	6d00      	li	a1,0
600e6a8e:	67c5      	move	a2,a1
600e6a90:	e940      	jalr	s1
600e6a92:	6f1d      	li	a3,29
600e6a94:	a040      	lbu	v0,0(s0)
600e6a96:	22f9      	beqz	v0,600e6a8a <callring_thread_handle+0x76>
600e6a98:	1098      	b	600e6bca <callring_thread_handle+0x1b6>
600e6a9a:	b267      	lw	v0,600e6c34 <callring_thread_handle+0x220>
600e6a9c:	a223      	lbu	s1,3(v0)
600e6a9e:	293e      	bnez	s1,600e6b1c <callring_thread_handle+0x108>
600e6aa0:	f400 6800 	li	s0,1024
600e6aa4:	b46b      	lw	a0,600e6c50 <callring_thread_handle+0x23c>
600e6aa6:	b26c      	lw	v0,600e6c54 <callring_thread_handle+0x240>
600e6aa8:	ea40      	jalr	v0
600e6aaa:	67b0      	move	a1,s0
600e6aac:	b467      	lw	a0,600e6c48 <callring_thread_handle+0x234>
600e6aae:	b569      	lw	a1,600e6c50 <callring_thread_handle+0x23c>
600e6ab0:	67d0      	move	a2,s0
600e6ab2:	b26a      	lw	v0,600e6c58 <callring_thread_handle+0x244>
600e6ab4:	ea40      	jalr	v0
600e6ab6:	67f1      	move	a3,s1
600e6ab8:	b269      	lw	v0,600e6c5c <callring_thread_handle+0x248>
600e6aba:	a248      	lbu	v0,8(v0)
600e6abc:	7201      	cmpi	v0,1
600e6abe:	611a      	btnez	600e6af4 <callring_thread_handle+0xe0>
600e6ac0:	6c0d      	li	a0,13
600e6ac2:	6d03      	li	a1,3
600e6ac4:	67d1      	move	a2,s1
600e6ac6:	b367      	lw	v1,600e6c60 <callring_thread_handle+0x24c>
600e6ac8:	eb40      	jalr	v1
600e6aca:	6f10      	li	a3,16
600e6acc:	6c30      	li	a0,48
600e6ace:	67b1      	move	a1,s1
600e6ad0:	67d1      	move	a2,s1
600e6ad2:	b364      	lw	v1,600e6c60 <callring_thread_handle+0x24c>
600e6ad4:	eb40      	jalr	v1
600e6ad6:	6f06      	li	a3,6
600e6ad8:	6c08      	li	a0,8
600e6ada:	67b1      	move	a1,s1
600e6adc:	f3e0 6e08 	li	a2,1000
600e6ae0:	b360      	lw	v1,600e6c60 <callring_thread_handle+0x24c>
600e6ae2:	eb40      	jalr	v1
600e6ae4:	6f12      	li	a3,18
600e6ae6:	6c02      	li	a0,2
600e6ae8:	67b1      	move	a1,s1
600e6aea:	67d1      	move	a2,s1
600e6aec:	b35d      	lw	v1,600e6c60 <callring_thread_handle+0x24c>
600e6aee:	eb40      	jalr	v1
600e6af0:	6f04      	li	a3,4
600e6af2:	100c      	b	600e6b0c <callring_thread_handle+0xf8>
600e6af4:	6c08      	li	a0,8
600e6af6:	6d00      	li	a1,0
600e6af8:	67c5      	move	a2,a1
600e6afa:	b35a      	lw	v1,600e6c60 <callring_thread_handle+0x24c>
600e6afc:	eb40      	jalr	v1
600e6afe:	6f06      	li	a3,6
600e6b00:	6c01      	li	a0,1
600e6b02:	6d00      	li	a1,0
600e6b04:	67c5      	move	a2,a1
600e6b06:	b357      	lw	v1,600e6c60 <callring_thread_handle+0x24c>
600e6b08:	eb40      	jalr	v1
600e6b0a:	6f04      	li	a3,4
600e6b0c:	b256      	lw	v0,600e6c64 <callring_thread_handle+0x250>
600e6b0e:	eac0      	jalrc	v0
600e6b10:	b256      	lw	v0,600e6c64 <callring_thread_handle+0x250>
600e6b12:	eac0      	jalrc	v0
600e6b14:	6a03      	li	v0,3
600e6b16:	b348      	lw	v1,600e6c34 <callring_thread_handle+0x220>
600e6b18:	c343      	sb	v0,3(v1)
600e6b1a:	1050      	b	600e6bbc <callring_thread_handle+0x1a8>
600e6b1c:	b146      	lw	s1,600e6c34 <callring_thread_handle+0x220>
600e6b1e:	a143      	lbu	v0,3(s1)
600e6b20:	7203      	cmpi	v0,3
600e6b22:	612e      	btnez	600e6b80 <callring_thread_handle+0x16c>
600e6b24:	b347      	lw	v1,600e6c40 <callring_thread_handle+0x22c>
600e6b26:	a340      	lbu	v0,0(v1)
600e6b28:	7201      	cmpi	v0,1
600e6b2a:	6148      	btnez	600e6bbc <callring_thread_handle+0x1a8>
600e6b2c:	6a00      	li	v0,0
600e6b2e:	c340      	sb	v0,0(v1)
600e6b30:	f200 6800 	li	s0,512
600e6b34:	b447      	lw	a0,600e6c50 <callring_thread_handle+0x23c>
600e6b36:	b248      	lw	v0,600e6c54 <callring_thread_handle+0x240>
600e6b38:	ea40      	jalr	v0
600e6b3a:	67b0      	move	a1,s0
600e6b3c:	b443      	lw	a0,600e6c48 <callring_thread_handle+0x234>
600e6b3e:	b545      	lw	a1,600e6c50 <callring_thread_handle+0x23c>
600e6b40:	67d0      	move	a2,s0
600e6b42:	b246      	lw	v0,600e6c58 <callring_thread_handle+0x244>
600e6b44:	ea40      	jalr	v0
600e6b46:	9704      	lw	a3,16(sp)
600e6b48:	6a02      	li	v0,2
600e6b4a:	c143      	sb	v0,3(s1)
600e6b4c:	b248      	lw	v0,600e6c6c <callring_thread_handle+0x258>
600e6b4e:	a240      	lbu	v0,0(v0)
600e6b50:	2a11      	bnez	v0,600e6b74 <callring_thread_handle+0x160>
600e6b52:	b243      	lw	v0,600e6c5c <callring_thread_handle+0x248>
600e6b54:	a248      	lbu	v0,8(v0)
600e6b56:	7201      	cmpi	v0,1
600e6b58:	610d      	btnez	600e6b74 <callring_thread_handle+0x160>
600e6b5a:	b446      	lw	a0,600e6c70 <callring_thread_handle+0x25c>
600e6b5c:	9c40      	lw	v0,0(a0)
600e6b5e:	6b02      	li	v1,2
600e6b60:	ea6d      	or	v0,v1
600e6b62:	dc40      	sw	v0,0(a0)
600e6b64:	9c40      	lw	v0,0(a0)
600e6b66:	436c      	addiu	v1,v1,-4
600e6b68:	ea6c      	and	v0,v1
600e6b6a:	dc40      	sw	v0,0(a0)
600e6b6c:	9c40      	lw	v0,0(a0)
600e6b6e:	4363      	addiu	v1,v1,3
600e6b70:	ea6d      	or	v0,v1
600e6b72:	dc40      	sw	v0,0(a0)
600e6b74:	9204      	lw	v0,16(sp)
600e6b76:	7202      	cmpi	v0,2
600e6b78:	6121      	btnez	600e6bbc <callring_thread_handle+0x1a8>
600e6b7a:	6b03      	li	v1,3
600e6b7c:	d304      	sw	v1,16(sp)
600e6b7e:	101e      	b	600e6bbc <callring_thread_handle+0x1a8>
600e6b80:	b333      	lw	v1,600e6c4c <callring_thread_handle+0x238>
600e6b82:	a340      	lbu	v0,0(v1)
600e6b84:	7201      	cmpi	v0,1
600e6b86:	611a      	btnez	600e6bbc <callring_thread_handle+0x1a8>
600e6b88:	6a00      	li	v0,0
600e6b8a:	c340      	sb	v0,0(v1)
600e6b8c:	f200 6800 	li	s0,512
600e6b90:	b430      	lw	a0,600e6c50 <callring_thread_handle+0x23c>
600e6b92:	b231      	lw	v0,600e6c54 <callring_thread_handle+0x240>
600e6b94:	ea40      	jalr	v0
600e6b96:	67b0      	move	a1,s0
600e6b98:	b428      	lw	a0,600e6c38 <callring_thread_handle+0x224>
600e6b9a:	b52e      	lw	a1,600e6c50 <callring_thread_handle+0x23c>
600e6b9c:	67d0      	move	a2,s0
600e6b9e:	b22f      	lw	v0,600e6c58 <callring_thread_handle+0x244>
600e6ba0:	ea40      	jalr	v0
600e6ba2:	9704      	lw	a3,16(sp)
600e6ba4:	6a03      	li	v0,3
600e6ba6:	b324      	lw	v1,600e6c34 <callring_thread_handle+0x220>
600e6ba8:	c343      	sb	v0,3(v1)
600e6baa:	9204      	lw	v0,16(sp)
600e6bac:	7202      	cmpi	v0,2
600e6bae:	6102      	btnez	600e6bb4 <callring_thread_handle+0x1a0>
600e6bb0:	6b03      	li	v1,3
600e6bb2:	d304      	sw	v1,16(sp)
600e6bb4:	b32e      	lw	v1,600e6c6c <callring_thread_handle+0x258>
600e6bb6:	a340      	lbu	v0,0(v1)
600e6bb8:	4241      	addiu	v0,v0,1
600e6bba:	c340      	sb	v0,0(v1)
600e6bbc:	6c01      	li	a0,1
600e6bbe:	6d00      	li	a1,0
600e6bc0:	67c5      	move	a2,a1
600e6bc2:	b221      	lw	v0,600e6c44 <callring_thread_handle+0x230>
600e6bc4:	ea40      	jalr	v0
600e6bc6:	6f31      	li	a3,49
600e6bc8:	172f      	b	600e6a28 <callring_thread_handle+0x14>
600e6bca:	6b00      	li	v1,0
600e6bcc:	b228      	lw	v0,600e6c6c <callring_thread_handle+0x258>
600e6bce:	c260      	sb	v1,0(v0)
600e6bd0:	b428      	lw	a0,600e6c70 <callring_thread_handle+0x25c>
600e6bd2:	9c40      	lw	v0,0(a0)
600e6bd4:	6b02      	li	v1,2
600e6bd6:	eb6b      	neg	v1
600e6bd8:	ea6c      	and	v0,v1
600e6bda:	dc40      	sw	v0,0(a0)
600e6bdc:	6c15      	li	a0,21
600e6bde:	6d00      	li	a1,0
600e6be0:	67c5      	move	a2,a1
600e6be2:	b219      	lw	v0,600e6c44 <callring_thread_handle+0x230>
600e6be4:	ea40      	jalr	v0
600e6be6:	67e4      	move	a3,a0
600e6be8:	6c00      	li	a0,0
600e6bea:	67a4      	move	a1,a0
600e6bec:	67c4      	move	a2,a0
600e6bee:	b01d      	lw	s0,600e6c60 <callring_thread_handle+0x24c>
600e6bf0:	e840      	jalr	s0
600e6bf2:	6f05      	li	a3,5
600e6bf4:	b21a      	lw	v0,600e6c5c <callring_thread_handle+0x248>
600e6bf6:	a248      	lbu	v0,8(v0)
600e6bf8:	7201      	cmpi	v0,1
600e6bfa:	6105      	btnez	600e6c06 <callring_thread_handle+0x1f2>
600e6bfc:	6c0d      	li	a0,13
600e6bfe:	6d00      	li	a1,0
600e6c00:	67c5      	move	a2,a1
600e6c02:	e840      	jalr	s0
600e6c04:	6f11      	li	a3,17
600e6c06:	b00b      	lw	s0,600e6c30 <callring_thread_handle+0x21c>
600e6c08:	9881      	lw	a0,4(s0)
600e6c0a:	6d00      	li	a1,0
600e6c0c:	67c5      	move	a2,a1
600e6c0e:	b20e      	lw	v0,600e6c44 <callring_thread_handle+0x230>
600e6c10:	ea40      	jalr	v0
600e6c12:	6f0e      	li	a3,14
600e6c14:	6a00      	li	v0,0
600e6c16:	b308      	lw	v1,600e6c34 <callring_thread_handle+0x220>
600e6c18:	c343      	sb	v0,3(v1)
600e6c1a:	c040      	sb	v0,0(s0)
600e6c1c:	c04e      	sb	v0,14(s0)
600e6c1e:	6c00      	li	a0,0
600e6c20:	67a4      	move	a1,a0
600e6c22:	67c4      	move	a2,a0
600e6c24:	b206      	lw	v0,600e6c3c <callring_thread_handle+0x228>
600e6c26:	ea40      	jalr	v0
600e6c28:	6f0c      	li	a3,12
600e6c2a:	6a00      	li	v0,0
600e6c2c:	6475      	restore	40,ra,s0-s1
600e6c2e:	e8a0      	jrc	ra
600e6c30:	9664      	lw	a2,400(sp)
600e6c32:	9fc1      	lw	a2,4(a3)
600e6c34:	9650      	lw	a2,320(sp)
600e6c36:	9fc1      	lw	a2,4(a3)
600e6c38:	7000      	cmpi	s0,0
600e6c3a:	9fc1      	lw	a2,4(a3)
600e6c3c:	6005      	bteqz	600e6c48 <callring_thread_handle+0x234>
600e6c3e:	bfc2      	lwu	a2,8(a3)
600e6c40:	98e9      	lw	a3,36(s0)
600e6c42:	9fc1      	lw	a2,4(a3)
600e6c44:	6009      	bteqz	600e6c58 <callring_thread_handle+0x244>
600e6c46:	bfc2      	lwu	a2,8(a3)
600e6c48:	6c00      	li	a0,0
600e6c4a:	9fc1      	lw	a2,4(a3)
600e6c4c:	98ea      	lw	a3,40(s0)
600e6c4e:	9fc1      	lw	a2,4(a3)
600e6c50:	7400      	cmpi	a0,0
600e6c52:	9fc1      	lw	a2,4(a3)
600e6c54:	6855      	li	s0,85
600e6c56:	600e      	bteqz	600e6c74 <callring_dac_dma_config>
600e6c58:	6801      	li	s0,1
600e6c5a:	600e      	bteqz	600e6c78 <callring_dac_dma_config+0x4>
600e6c5c:	a094      	lbu	a0,20(s0)
600e6c5e:	9fc1      	lw	a2,4(a3)
600e6c60:	6001      	bteqz	600e6c64 <callring_thread_handle+0x250>
600e6c62:	bfc2      	lwu	a2,8(a3)
600e6c64:	6c75      	li	a0,117
600e6c66:	600e      	bteqz	600e6c84 <callring_dac_dma_config+0x10>
600e6c68:	64f9      	save	72,ra,s0-s1
600e6c6a:	bfc2      	lwu	a2,8(a3)
600e6c6c:	98e8      	lw	a3,32(s0)
600e6c6e:	9fc1      	lw	a2,4(a3)
600e6c70:	0058      	addiu	s0,sp,352
600e6c72:	c00c      	sb	s0,12(s0)

600e6c74 <callring_dac_dma_config>:
600e6c74:	64e3      	save	24,ra,s0


/******************************************************************************
* \par  Description:   启动相关模块，dac,dma等
* \param[in]     null
* \param[out]   null
* \return           none
* \note
*   <author>       <time>        <opt>
*    Wekan       2015-3-30     reviwe
*******************************************************************************/

void callring_dac_dma_config(void)
{
600e6c76:	b01c      	lw	s0,600e6ce4 <callring_dac_dma_config+0x70>
    //enalbe dac fifo
    //    act_writel(act_readl(DAC_FIFOCTL) | (~(1<<DAC_FIFOCTL_DAF0RT)), DAC_FIFOCTL);

    act_writel(0, DMA3CTL);
600e6c78:	6e00      	li	a2,0
600e6c7a:	d8c0      	sw	a2,0(s0)
600e6c7c:	6c15      	li	a0,21
    //enable IRQ
    sys_request_irq(IRQ_DMA3, ring_dma_isr);
600e6c7e:	b51b      	lw	a1,600e6ce8 <callring_dac_dma_config+0x74>
600e6c80:	b21b      	lw	v0,600e6cec <callring_dac_dma_config+0x78>
600e6c82:	ea40      	jalr	v0
600e6c84:	6f14      	li	a3,20
600e6c86:	9840      	lw	v0,0(s0)
    //data width 16bit
    act_writel(act_readl(DMA3CTL) | (1 << DMA3CTL_DATAWIDTH_SHIFT), DMA3CTL);
600e6c88:	f008 6b00 	li	v1,16384
600e6c8c:	ea6d      	or	v0,v1
600e6c8e:	d840      	sw	v0,0(s0)
600e6c90:	9840      	lw	v0,0(s0)
    //source addr type:memory
    act_writel(act_readl(DMA3CTL) | (0 << DMA3CTL_SRCTYPE_SHIFT), DMA3CTL);
600e6c92:	d840      	sw	v0,0(s0)
600e6c94:	b217      	lw	v0,600e6cf0 <callring_dac_dma_config+0x7c>
    //dest addr type:dac fifo0
    if(1 == g_app_info_state_all.fix_sample_rate_flag) {
600e6c96:	a248      	lbu	v0,8(v0)
600e6c98:	7201      	cmpi	v0,1
600e6c9a:	6106      	btnez	600e6ca8 <callring_dac_dma_config+0x34>
600e6c9c:	9840      	lw	v0,0(s0)
        act_writel(act_readl(DMA3CTL) | (13 << DMA3CTL_DSTTYPE_SHIFT), DMA3CTL);
600e6c9e:	f519 4b00 	addiu	v1,-13056
600e6ca2:	ea6d      	or	v0,v1
600e6ca4:	d840      	sw	v0,0(s0)
600e6ca6:	1006      	b	600e6cb4 <callring_dac_dma_config+0x40>
600e6ca8:	b20f      	lw	v0,600e6ce4 <callring_dac_dma_config+0x70>
    } else {
        act_writel(act_readl(DMA3CTL) | (11 << DMA3CTL_DSTTYPE_SHIFT), DMA3CTL);
600e6caa:	9a60      	lw	v1,0(v0)
600e6cac:	f301 6c00 	li	a0,2816
600e6cb0:	eb8d      	or	v1,a0
600e6cb2:	da60      	sw	v1,0(v0)
600e6cb4:	b311      	lw	v1,600e6cf8 <callring_dac_dma_config+0x84>
    }
    //reload enable
    //act_writel(act_readl(DMA3CTL) | (1 << DMA3CTL_reload), DMA3CTL);
    //source address
    act_writel((uint32)g_btcall_callring_dac_buf, DMA3SADDR0);
600e6cb6:	b210      	lw	v0,600e6cf4 <callring_dac_dma_config+0x80>
600e6cb8:	da60      	sw	v1,0(v0)
600e6cba:	f400 6b00 	li	v1,1024
    //dma length
    act_writel(CALLRING_DAC_BUFFER_LENGTH / 2, DMA3FrameLen);
600e6cbe:	b210      	lw	v0,600e6cfc <callring_dac_dma_config+0x88>
600e6cc0:	da60      	sw	v1,0(v0)
600e6cc2:	b310      	lw	v1,600e6d00 <callring_dac_dma_config+0x8c>
    //enable dma0 half & full trans interupt
    act_writel(act_readl(DMAIP) | 0x00000808, DMAIP);
600e6cc4:	9b40      	lw	v0,0(v1)
600e6cc6:	f001 6c08 	li	a0,2056
600e6cca:	ea8d      	or	v0,a0
600e6ccc:	db40      	sw	v0,0(v1)
600e6cce:	b30e      	lw	v1,600e6d04 <callring_dac_dma_config+0x90>
    act_writel(act_readl(DMAIE) | 0x00000808, DMAIE);
600e6cd0:	9b40      	lw	v0,0(v1)
600e6cd2:	ea8d      	or	v0,a0
600e6cd4:	db40      	sw	v0,0(v1)
600e6cd6:	b40d      	lw	a0,600e6d08 <callring_dac_dma_config+0x94>

    //enalbe DAC FIFO Empty DRQ
    act_writel(act_readl(DAC_FIFOCTL) | (1 << DAC_FIFOCTL_DAF0EDE), DAC_FIFOCTL);
600e6cd8:	9c40      	lw	v0,0(a0)
600e6cda:	6b02      	li	v1,2
600e6cdc:	ea6d      	or	v0,v1
600e6cde:	dc40      	sw	v0,0(a0)
600e6ce0:	6463      	restore	24,ra,s0
    //enable transfer
    //act_writel(act_readl(DMA0CTL)|(1 << DMA0CTL_DMA0START), DMA0CTL);
}
600e6ce2:	e8a0      	jrc	ra
600e6ce4:	0058      	addiu	s0,sp,352
600e6ce6:	c00c      	sb	s0,12(s0)
600e6ce8:	6725      	move	s1,a1
600e6cea:	bfc2      	lwu	a2,8(a3)
600e6cec:	6009      	bteqz	600e6d00 <callring_dac_dma_config+0x8c>
600e6cee:	bfc2      	lwu	a2,8(a3)
600e6cf0:	a094      	lbu	a0,20(s0)
600e6cf2:	9fc1      	lw	a2,4(a3)
600e6cf4:	005c      	addiu	s0,sp,368
600e6cf6:	c00c      	sb	s0,12(s0)
600e6cf8:	6c00      	li	a0,0
600e6cfa:	9fc1      	lw	a2,4(a3)
600e6cfc:	006c      	addiu	s0,sp,432
600e6cfe:	c00c      	sb	s0,12(s0)
600e6d00:	0004      	addiu	s0,sp,16
600e6d02:	c00c      	sb	s0,12(s0)
600e6d04:	0008      	addiu	s0,sp,32
600e6d06:	c00c      	sb	s0,12(s0)
600e6d08:	0004      	addiu	s0,sp,16
600e6d0a:	c005      	sb	s0,5(s0)
Disassembly of section BANK_CONTROL_1_4:

60126800 <get_asqt_peq_para_from_firmware>:
60126800:	f010 64f5 	save	168,ra,s0-s1
#include "btcall_engine.h"

extern uint8 g_real_call_mode_16k;
static sd_handle *get_asqt_peq_para_from_firmware(void)
{
60126804:	6900      	li	s1,0
    sd_handle asqt_para_bin_handle = NULL;
60126806:	0c32      	la	a0,601268cc <get_asqt_peq_para_from_firmware+0xcc>
    char *p_asqt_para_bin = { "asqtpara.bin" };
    asqt_para_head_t    asqt_para_head;

    asqt_para_bin_handle = sys_sd_fopen(p_asqt_para_bin);
60126808:	67b1      	move	a1,s1
6012680a:	67d1      	move	a2,s1
6012680c:	b03b      	lw	s0,601268f8 <get_asqt_peq_para_from_firmware+0xf8>
6012680e:	e840      	jalr	s0
60126810:	6f0d      	li	a3,13
60126812:	6722      	move	s1,v0
60126814:	2a06      	bnez	v0,60126822 <get_asqt_peq_para_from_firmware+0x22>
    if(NULL == asqt_para_bin_handle) {
60126816:	0c32      	la	a0,601268dc <get_asqt_peq_para_from_firmware+0xdc>
        PRINT_INFO("open asqtpara.bin fail");
60126818:	67a2      	move	a1,v0
6012681a:	67c2      	move	a2,v0
6012681c:	e840      	jalr	s0
6012681e:	6f4b      	li	a3,75
60126820:	1051      	b	601268c4 <get_asqt_peq_para_from_firmware+0xc4>
60126822:	b237      	lw	v0,601268fc <get_asqt_peq_para_from_firmware+0xfc>
    } else {
        if(g_stub_8k_16k == 1) {
60126824:	a240      	lbu	v0,0(v0)
60126826:	7201      	cmpi	v0,1
60126828:	6127      	btnez	60126878 <get_asqt_peq_para_from_firmware+0x78>
6012682a:	6791      	move	a0,s1
            sys_sd_fread(asqt_para_bin_handle, &asqt_para_head, sizeof(asqt_para_head_t));
6012682c:	0504      	addiu	a1,sp,16
6012682e:	6e84      	li	a2,132
60126830:	b032      	lw	s0,601268f8 <get_asqt_peq_para_from_firmware+0xf8>
60126832:	e840      	jalr	s0
60126834:	6f11      	li	a3,17
60126836:	6791      	move	a0,s1
            //PRINT_DATA(&asqt_para_head,sizeof(asqt_para_head_t));
            sys_sd_fread(asqt_para_bin_handle, asqt_peq_addr.band_peq1_addr, asqt_para_head.package_len_array[0]);
60126838:	b232      	lw	v0,60126900 <get_asqt_peq_para_from_firmware+0x100>
6012683a:	9aa0      	lw	a1,0(v0)
6012683c:	9605      	lw	a2,20(sp)
6012683e:	e840      	jalr	s0
60126840:	6f11      	li	a3,17
60126842:	6791      	move	a0,s1
            //PRINT_DATA(asqt_peq_addr.band_peq1_addr,asqt_para_head.package_len_array[0]);
            sys_sd_fread(asqt_para_bin_handle, asqt_peq_addr.band_peq2_addr, asqt_para_head.package_len_array[1]);
60126844:	b72f      	lw	a3,60126900 <get_asqt_peq_para_from_firmware+0x100>
60126846:	9fa1      	lw	a1,4(a3)
60126848:	9606      	lw	a2,24(sp)
6012684a:	e840      	jalr	s0
6012684c:	6f11      	li	a3,17
6012684e:	b32e      	lw	v1,60126904 <get_asqt_peq_para_from_firmware+0x104>
            //PRINT_DATA(asqt_peq_addr.band_peq2_addr,asqt_para_head.package_len_array[1]);
            g_p_share_mem_16k->peq_info.band_peq1   = ADDR_M4K2DSP((uint32)asqt_peq_addr.band_peq1_addr);
60126850:	9ba0      	lw	a1,0(v1)
60126852:	b42c      	lw	a0,60126900 <get_asqt_peq_para_from_firmware+0x100>
60126854:	9c40      	lw	v0,0(a0)
60126856:	b62d      	lw	a2,60126908 <get_asqt_peq_para_from_firmware+0x108>
60126858:	eacc      	and	v0,a2
6012685a:	3246      	srl	v0,1
6012685c:	b42c      	lw	a0,6012690c <get_asqt_peq_para_from_firmware+0x10c>
6012685e:	ea8d      	or	v0,a0
60126860:	dd4a      	sw	v0,40(a1)
60126862:	9ba0      	lw	a1,0(v1)
            g_p_share_mem_16k->peq_info.band_peq2   = ADDR_M4K2DSP((uint32)asqt_peq_addr.band_peq2_addr);
60126864:	b727      	lw	a3,60126900 <get_asqt_peq_para_from_firmware+0x100>
60126866:	9f41      	lw	v0,4(a3)
60126868:	eacc      	and	v0,a2
6012686a:	3246      	srl	v0,1
6012686c:	ea8d      	or	v0,a0
6012686e:	dd4b      	sw	v0,44(a1)
60126870:	9b60      	lw	v1,0(v1)
            g_p_share_mem_16k->peq_info.change_flag = 1;
60126872:	6a01      	li	v0,1
60126874:	db49      	sw	v0,36(v1)
60126876:	1026      	b	601268c4 <get_asqt_peq_para_from_firmware+0xc4>
60126878:	6791      	move	a0,s1
        } else {
            sys_sd_fread(asqt_para_bin_handle, &asqt_para_head, sizeof(asqt_para_head_t));
6012687a:	0504      	addiu	a1,sp,16
6012687c:	6e84      	li	a2,132
6012687e:	b01f      	lw	s0,601268f8 <get_asqt_peq_para_from_firmware+0xf8>
60126880:	e840      	jalr	s0
60126882:	6f11      	li	a3,17
60126884:	6791      	move	a0,s1
            //PRINT_DATA(&asqt_para_head,sizeof(asqt_para_head_t));
            sys_sd_fread(asqt_para_bin_handle, asqt_peq_addr.band_peq1_addr, asqt_para_head.package_len_array[0]);
60126886:	b21f      	lw	v0,60126900 <get_asqt_peq_para_from_firmware+0x100>
60126888:	9aa0      	lw	a1,0(v0)
6012688a:	9605      	lw	a2,20(sp)
6012688c:	e840      	jalr	s0
6012688e:	6f11      	li	a3,17
60126890:	6791      	move	a0,s1
            //PRINT_DATA(asqt_peq_addr.band_peq1_addr,asqt_para_head.package_len_array[0]);
            sys_sd_fread(asqt_para_bin_handle, asqt_peq_addr.band_peq2_addr, asqt_para_head.package_len_array[1]);
60126892:	b71c      	lw	a3,60126900 <get_asqt_peq_para_from_firmware+0x100>
60126894:	9fa1      	lw	a1,4(a3)
60126896:	9606      	lw	a2,24(sp)
60126898:	e840      	jalr	s0
6012689a:	6f11      	li	a3,17
6012689c:	b31d      	lw	v1,60126910 <get_asqt_peq_para_from_firmware+0x110>
            //PRINT_DATA(asqt_peq_addr.band_peq2_addr,asqt_para_head.package_len_array[1]);
            g_p_share_mem->peq_info.band_peq1   = ADDR_M4K2DSP((uint32)asqt_peq_addr.band_peq1_addr);
6012689e:	9ba0      	lw	a1,0(v1)
601268a0:	b418      	lw	a0,60126900 <get_asqt_peq_para_from_firmware+0x100>
601268a2:	9c40      	lw	v0,0(a0)
601268a4:	b619      	lw	a2,60126908 <get_asqt_peq_para_from_firmware+0x108>
601268a6:	eacc      	and	v0,a2
601268a8:	3246      	srl	v0,1
601268aa:	b419      	lw	a0,6012690c <get_asqt_peq_para_from_firmware+0x10c>
601268ac:	ea8d      	or	v0,a0
601268ae:	dd5a      	sw	v0,104(a1)
601268b0:	9ba0      	lw	a1,0(v1)
            g_p_share_mem->peq_info.band_peq2   = ADDR_M4K2DSP((uint32)asqt_peq_addr.band_peq2_addr);
601268b2:	b714      	lw	a3,60126900 <get_asqt_peq_para_from_firmware+0x100>
601268b4:	9f41      	lw	v0,4(a3)
601268b6:	eacc      	and	v0,a2
601268b8:	3246      	srl	v0,1
601268ba:	ea8d      	or	v0,a0
601268bc:	dd5b      	sw	v0,108(a1)
601268be:	9b60      	lw	v1,0(v1)
            g_p_share_mem->peq_info.change_flag = 1;
601268c0:	6a01      	li	v0,1
601268c2:	db59      	sw	v0,100(v1)
601268c4:	6751      	move	v0,s1
        }
    }

    return asqt_para_bin_handle;
}
601268c6:	f010 6475 	restore	168,ra,s0-s1
601268ca:	e8a0      	jrc	ra
601268cc:	7361      	cmpi	v1,97
601268ce:	7471      	cmpi	a0,113
601268d0:	6170      	btnez	601269b2 <.LBE3+0x32>
601268d2:	6172      	btnez	601269b8 <.LBE3+0x38>
601268d4:	622e      	sw	ra,184(sp)
601268d6:	6e69      	li	a2,105
601268d8:	0000      	addiu	s0,sp,0
601268da:	0000      	addiu	s0,sp,0
601268dc:	493c      	addiu	s1,60
601268de:	203e      	beqz	s0,6012695c <.LBB2+0x6>
601268e0:	706f      	cmpi	s0,111
601268e2:	6e65      	li	a2,101
601268e4:	6120      	btnez	60126926 <btcalleg_load_hfp_mmm+0x12>
601268e6:	7173      	cmpi	s1,115
601268e8:	7074      	cmpi	s0,116
601268ea:	7261      	cmpi	v0,97
601268ec:	2e61      	bnez	a2,601269b0 <.LBE3+0x30>
601268ee:	6962      	li	s1,98
601268f0:	206e      	beqz	s0,601269ce <.LBE3+0x4e>
601268f2:	6166      	btnez	601269c0 <.LBE3+0x40>
601268f4:	6c69      	li	a0,105
601268f6:	0000      	addiu	s0,sp,0
601268f8:	6009      	bteqz	6012690c <get_asqt_peq_para_from_firmware+0x10c>
601268fa:	bfc2      	lwu	a2,8(a3)
601268fc:	95ad      	lw	a1,692(sp)
601268fe:	9fc1      	lw	a2,4(a3)
60126900:	9818      	lw	s0,96(s0)
60126902:	9fc1      	lw	a2,4(a3)
60126904:	983c      	lw	s1,112(s0)
60126906:	9fc1      	lw	a2,4(a3)
60126908:	ffff      	daddiu	a3,sp,124
6012690a:	0001      	addiu	s0,sp,4
6012690c:	0000      	addiu	s0,sp,0
6012690e:	0003      	addiu	s0,sp,12
60126910:	96a0      	lw	a2,640(sp)
60126912:	9fc1      	lw	a2,4(a3)

60126914 <btcalleg_load_hfp_mmm>:
60126914:	64fc      	save	96,ra,s0-s1


/******************************************************************************
 * \  par  Description:   加载中间件，包括初始化dac等接口和启动dsp
 * \  param[in]     null0
 * \  param[out]   null
 * \  return           null
 * \  note
 * \  <author>       <time>        <opt>
 * \  Cailizhen          2015-1          creat
 * \   Wekan       2015-3-30     reviwe
 *******************************************************************************/
void btcalleg_load_hfp_mmm(void)
{
60126916:	6900      	li	s1,0
    int mr_ret;
    char *mmm_name =
    { "mmm_hfp.al" };
    sv_configs_t *asqt_parm;
    //for mic config
    mmm_mr_ain_setting_t hfp_mic_cfg;
    mmm_hfp_aout_setting_t hfp_dac_cfg;
    sd_handle asqt_para_bin_handle = NULL;
60126918:	d112      	sw	s1,72(sp)
    asqt_peq_status_t   peq_status;
    uint32 hfp_dec_mode = 0;
6012691a:	b0ad      	lw	s0,60126bcc <.LBE5+0x112>

    hfp_mic_cfg.input_source = (uint8) com_get_config_default(SETTING_AUDIO_INPUT_CHANNAL);
6012691c:	e840      	jalr	s0
6012691e:	6c2a      	li	a0,42
60126920:	ea11      	zeb	v0
60126922:	d204      	sw	v0,16(sp)
60126924:	6cff      	li	a0,255

    hfp_mic_cfg.input_gain = (uint8) com_get_config_default(BTCALL_MICIN_OP_GAIN);
60126926:	e840      	jalr	s0
60126928:	4c75      	addiu	a0,117
6012692a:	ea11      	zeb	v0
6012692c:	d207      	sw	v0,28(sp)
6012692e:	6cff      	li	a0,255

    hfp_mic_cfg.adc_gain = (uint8) com_get_config_default(BTCALL_MICIN_ADC_GAIN);
60126930:	e840      	jalr	s0
60126932:	4c76      	addiu	a0,118
60126934:	ea11      	zeb	v0
60126936:	d208      	sw	v0,32(sp)
60126938:	b2a6      	lw	v0,60126bd0 <.LBE5+0x116>

    if(g_stub_8k_16k == 1) {
6012693a:	a240      	lbu	v0,0(v0)
6012693c:	7201      	cmpi	v0,1
6012693e:	6113      	btnez	60126966 <.LBE2+0x2>
60126940:	6a10      	li	v0,16
        hfp_dac_cfg.default_samplerate = 16;
60126942:	d20b      	sw	v0,44(sp)
60126944:	0c73      	la	a0,60126b10 <.LBE5+0x56>
        PRINT_INFO("--MSBC--");
60126946:	67b1      	move	a1,s1
60126948:	67d1      	move	a2,s1
6012694a:	b0a3      	lw	s0,60126bd4 <.LBE5+0x11a>
6012694c:	e840      	jalr	s0
6012694e:	6f4b      	li	a3,75
60126950:	b2a2      	lw	v0,60126bd8 <.LBE5+0x11e>
        if(btcall_gl_var.stub_asqt_en != 0) { //ASQT调试模式
60126952:	a24c      	lbu	v0,12(v0)
60126954:	2215      	beqz	v0,60126980 <.LBE3>

60126956 <.LBB2>:
60126956:	0c73      	la	a0,60126b20 <.LBE5+0x66>
            PRINT_INFO("asqt_16k");
60126958:	67b1      	move	a1,s1
6012695a:	67d1      	move	a2,s1
6012695c:	e840      	jalr	s0
6012695e:	6f4b      	li	a3,75
60126960:	b29f      	lw	v0,60126bdc <.LBE5+0x122>
            asqt_init_16k();
60126962:	eac0      	jalrc	v0

60126964 <.LBE2>:
60126964:	100d      	b	60126980 <.LBE3>
60126966:	6a10      	li	v0,16
        }
    } else {
#if defined(BOARD_JL_36410_FAR)
        hfp_dac_cfg.default_samplerate = 16;
60126968:	d20b      	sw	v0,44(sp)
6012696a:	0c72      	la	a0,60126b30 <.LBE5+0x76>
#else
        hfp_dac_cfg.default_samplerate = 8;
#endif
        PRINT_INFO("--CVSD--");
6012696c:	6d00      	li	a1,0
6012696e:	67c5      	move	a2,a1
60126970:	b299      	lw	v0,60126bd4 <.LBE5+0x11a>
60126972:	ea40      	jalr	v0
60126974:	6f4b      	li	a3,75
60126976:	6b00      	li	v1,0
        g_stub_8k_16k = 0;
60126978:	b296      	lw	v0,60126bd0 <.LBE5+0x116>
6012697a:	c260      	sb	v1,0(v0)

6012697c <.LBB3>:
6012697c:	b299      	lw	v0,60126be0 <.LBE5+0x126>
//      if(btcall_gl_var.stub_asqt_en != 0)//ASQT调试模式
        {
//          PRINT_INFO("asqt_8k");
            btcall_eg_asqt_init();
6012697e:	eac0      	jalrc	v0

60126980 <.LBE3>:
60126980:	9204      	lw	v0,16(sp)
        }
    }

    if(hfp_mic_cfg.input_source == AI_SOURCE_I2S) {
60126982:	7205      	cmpi	v0,5
60126984:	6102      	btnez	6012698a <.LBE3+0xa>
60126986:	b298      	lw	v0,60126be4 <.LBE5+0x12a>
        i2s_mfp_cfg();
60126988:	eac0      	jalrc	v0
6012698a:	b294      	lw	v0,60126bd8 <.LBE5+0x11e>
    }

    if((btcall_gl_var.stub_asqt_en == 0) && (g_stub_tools_type == 0)) {
6012698c:	a24c      	lbu	v0,12(v0)
6012698e:	2a06      	bnez	v0,6012699c <.LBE3+0x1c>
60126990:	b296      	lw	v0,60126be8 <.LBE5+0x12e>
60126992:	a240      	lbu	v0,0(v0)
60126994:	2a03      	bnez	v0,6012699c <.LBE3+0x1c>
60126996:	4a10      	addiu	v0,16
        hfp_dac_cfg.drive_mode = K_OUT0_U0_IN_U1;
60126998:	d20a      	sw	v0,40(sp)
6012699a:	1002      	b	601269a0 <.LBE3+0x20>
6012699c:	6a0f      	li	v0,15
    } else {
        hfp_dac_cfg.drive_mode = K_OUT0_U0_IN_P2;
6012699e:	d20a      	sw	v0,40(sp)
601269a0:	b28c      	lw	v0,60126bd0 <.LBE5+0x116>
    }

    if(g_stub_8k_16k == 1) {
601269a2:	a240      	lbu	v0,0(v0)
601269a4:	7201      	cmpi	v0,1
601269a6:	6104      	btnez	601269b0 <.LBE3+0x30>
601269a8:	b291      	lw	v0,60126bec <.LBE5+0x132>
        asqt_parm = asqt_set_dsp_init_parm_16k();
601269aa:	eac0      	jalrc	v0
601269ac:	6762      	move	v1,v0
601269ae:	1003      	b	601269b6 <.LBE3+0x36>
601269b0:	b290      	lw	v0,60126bf0 <.LBE5+0x136>
    } else {
        asqt_parm = asqt_set_dsp_init_parm();
601269b2:	eac0      	jalrc	v0
601269b4:	6762      	move	v1,v0
601269b6:	2304      	beqz	v1,601269c0 <.LBE3+0x40>
    }

    if(asqt_parm != NULL) {
601269b8:	9b40      	lw	v0,0(v1)
        //如果ASQT使能，使用pc-tool的参数
        hfp_mic_cfg.input_gain = asqt_parm->mic_op_gain;
601269ba:	d207      	sw	v0,28(sp)
601269bc:	9b41      	lw	v0,4(v1)
        hfp_mic_cfg.adc_gain  =   asqt_parm->mic_adc_gain;
601269be:	d208      	sw	v0,32(sp)
601269c0:	6c03      	li	a0,3
    }
    adjust_freq_set_level(AP_BACK_HIGH_PRIO, FREQ_LEVEL5, FREQ_LEVEL8);
601269c2:	f001 6d05 	li	a1,2053
601269c6:	6e00      	li	a2,0
601269c8:	b28b      	lw	v0,60126bf4 <.LBE5+0x13a>
601269ca:	ea40      	jalr	v0
601269cc:	67e4      	move	a3,a0
601269ce:	0c5d      	la	a0,60126b40 <.LBE5+0x86>
    //加载HFP中间件驱动
    sys_load_mmm(mmm_name, TRUE);
601269d0:	6d01      	li	a1,1
601269d2:	6e00      	li	a2,0
601269d4:	b080      	lw	s0,60126bd4 <.LBE5+0x11a>
601269d6:	e840      	jalr	s0
601269d8:	6f02      	li	a3,2
601269da:	b488      	lw	a0,60126bf8 <.LBE5+0x13e>

    mr_ret = (int) mmm_hfp_cmd(&mp_handle, MMM_HFP_OPEN, 0);
601269dc:	6d00      	li	a1,0
601269de:	b288      	lw	v0,60126bfc <.LBE5+0x142>
601269e0:	ea40      	jalr	v0
601269e2:	67c5      	move	a2,a1
601269e4:	ea4f      	not	v0

    if(mr_ret == -1) {
601269e6:	2a05      	bnez	v0,601269f2 <.LBE3+0x72>
601269e8:	0c59      	la	a0,60126b4c <.LBE5+0x92>
        PRINT_ERR("hfp open fail!\n");
601269ea:	6d00      	li	a1,0
601269ec:	67c5      	move	a2,a1
601269ee:	e840      	jalr	s0
601269f0:	6f4b      	li	a3,75
601269f2:	b284      	lw	v0,60126c00 <.LBE5+0x146>
    }

    if(1 == g_app_info_state_all.fix_sample_rate_flag) {
601269f4:	a248      	lbu	v0,8(v0)
601269f6:	7201      	cmpi	v0,1
601269f8:	610f      	btnez	60126a18 <.LBE3+0x98>
601269fa:	b480      	lw	a0,60126bf8 <.LBE5+0x13e>
        mmm_hfp_cmd(&mp_handle, MMM_HFP_FIX_SAMPLE_RATE, 0);
601269fc:	6d09      	li	a1,9
601269fe:	b280      	lw	v0,60126bfc <.LBE5+0x142>
60126a00:	ea40      	jalr	v0
60126a02:	6e00      	li	a2,0
60126a04:	b273      	lw	v0,60126bd0 <.LBE5+0x116>
        if(g_stub_8k_16k == 1) {
60126a06:	a240      	lbu	v0,0(v0)
60126a08:	7201      	cmpi	v0,1
60126a0a:	6103      	btnez	60126a12 <.LBE3+0x92>
60126a0c:	6a04      	li	v0,4
            hfp_dec_mode = 4;
60126a0e:	d212      	sw	v0,72(sp)
60126a10:	100c      	b	60126a2a <.LBE3+0xaa>
60126a12:	6a01      	li	v0,1
        } else {
            hfp_dec_mode = 1;
60126a14:	d212      	sw	v0,72(sp)
60126a16:	1009      	b	60126a2a <.LBE3+0xaa>
60126a18:	b26e      	lw	v0,60126bd0 <.LBE5+0x116>
        }
    } else {
        if(g_stub_8k_16k == 1) {
60126a1a:	a240      	lbu	v0,0(v0)
60126a1c:	7201      	cmpi	v0,1
60126a1e:	6103      	btnez	60126a26 <.LBE3+0xa6>
60126a20:	6a03      	li	v0,3
            hfp_dec_mode = 3;
60126a22:	d212      	sw	v0,72(sp)
60126a24:	1002      	b	60126a2a <.LBE3+0xaa>
60126a26:	6a00      	li	v0,0
        } else {
            hfp_dec_mode = 0;
60126a28:	d212      	sw	v0,72(sp)
60126a2a:	b270      	lw	v0,60126be8 <.LBE5+0x12e>
        }
    }

    if(g_stub_tools_type == STUB_PC_TOOL_ATT_MODE) {
60126a2c:	a240      	lbu	v0,0(v0)
60126a2e:	7204      	cmpi	v0,4
60126a30:	6102      	btnez	60126a36 <.LBE3+0xb6>
60126a32:	6a02      	li	v0,2
        hfp_dec_mode = 2;
60126a34:	d212      	sw	v0,72(sp)
60126a36:	0c4b      	la	a0,60126b60 <.LBE5+0xa6>
    }

    PRINT_INFO_INT("hfp_dec_mode:", hfp_dec_mode);
60126a38:	9512      	lw	a1,72(sp)
60126a3a:	6e02      	li	a2,2
60126a3c:	b066      	lw	s0,60126bd4 <.LBE5+0x11a>
60126a3e:	e840      	jalr	s0
60126a40:	6f4b      	li	a3,75
60126a42:	b26e      	lw	v0,60126bf8 <.LBE5+0x13e>
    //must aout open first then ain open

    mr_ret = (int) mmm_hfp_cmd(mp_handle, MMM_HFP_AOUT_OPEN, (unsigned int) &hfp_dac_cfg);
60126a44:	9a80      	lw	a0,0(v0)
60126a46:	6d01      	li	a1,1
60126a48:	b26d      	lw	v0,60126bfc <.LBE5+0x142>
60126a4a:	ea40      	jalr	v0
60126a4c:	060a      	addiu	a2,sp,40
60126a4e:	ea4f      	not	v0

    if(mr_ret == -1) {
60126a50:	2a05      	bnez	v0,60126a5c <.LBE3+0xdc>
60126a52:	0c49      	la	a0,60126b74 <.LBE5+0xba>
        PRINT_ERR("hfp aoutopen fail!\n");
60126a54:	6d00      	li	a1,0
60126a56:	67c5      	move	a2,a1
60126a58:	e840      	jalr	s0
60126a5a:	6f4b      	li	a3,75
60126a5c:	b267      	lw	v0,60126bf8 <.LBE5+0x13e>
    }

    mr_ret = (int) mmm_hfp_cmd(mp_handle, MMM_HFP_AIN_OPEN, (unsigned int) &hfp_mic_cfg);
60126a5e:	9a80      	lw	a0,0(v0)
60126a60:	6d02      	li	a1,2
60126a62:	b267      	lw	v0,60126bfc <.LBE5+0x142>
60126a64:	ea40      	jalr	v0
60126a66:	0604      	addiu	a2,sp,16
60126a68:	ea4f      	not	v0

    if(mr_ret == -1) {
60126a6a:	2a06      	bnez	v0,60126a78 <.LBE3+0xf8>
60126a6c:	0c48      	la	a0,60126b8c <.LBE5+0xd2>
        PRINT_ERR("hfp ainopen fail!\n");
60126a6e:	6d00      	li	a1,0
60126a70:	67c5      	move	a2,a1
60126a72:	b259      	lw	v0,60126bd4 <.LBE5+0x11a>
60126a74:	ea40      	jalr	v0
60126a76:	6f4b      	li	a3,75
60126a78:	b25c      	lw	v0,60126be8 <.LBE5+0x12e>
    }

    if(g_stub_tools_type != STUB_PC_TOOL_ASQT_MODE) {
60126a7a:	a240      	lbu	v0,0(v0)
60126a7c:	7201      	cmpi	v0,1
60126a7e:	6004      	bteqz	60126a88 <.LBE3+0x108>
60126a80:	b261      	lw	v0,60126c04 <.LBE5+0x14a>
        //asqt固件模式下，加载完音效库后，从固件的asqtpara.bin文件读取PEQ参数
        asqt_para_bin_handle = get_asqt_peq_para_from_firmware();
60126a82:	eac0      	jalrc	v0
60126a84:	6722      	move	s1,v0
60126a86:	1019      	b	60126aba <.LBE5>
60126a88:	b252      	lw	v0,60126bd0 <.LBE5+0x116>
    } else {
        if(g_stub_8k_16k == 1) {
60126a8a:	a240      	lbu	v0,0(v0)
60126a8c:	7201      	cmpi	v0,1
60126a8e:	610b      	btnez	60126aa6 <.LBB5>

60126a90 <.LBB4>:
60126a90:	000e      	addiu	s0,sp,56
            //asqt调试模式下，加载完音效库后，从PC工具再强制读取下PEQ参数
            stub_asqt_read_data_16k(STUB_CMD_ASQT_READ_PEQ_STATUS,  &peq_status, sizeof(asqt_peq_status_t));
60126a92:	f102 6c00 	li	a0,4352
60126a96:	67b0      	move	a1,s0
60126a98:	b25c      	lw	v0,60126c08 <.LBE5+0x14e>
60126a9a:	ea40      	jalr	v0
60126a9c:	6e0c      	li	a2,12
60126a9e:	b25c      	lw	v0,60126c0c <.LBE5+0x152>
            get_asqt_peq_para_from_pc_16k(&peq_status);
60126aa0:	ea40      	jalr	v0
60126aa2:	6790      	move	a0,s0

60126aa4 <.LBE4>:
60126aa4:	100a      	b	60126aba <.LBE5>

60126aa6 <.LBB5>:
60126aa6:	000e      	addiu	s0,sp,56
        } else {
            //asqt调试模式下，加载完音效库后，从PC工具再强制读取下PEQ参数
            stub_asqt_read_data(STUB_CMD_ASQT_READ_PEQ_STATUS,  &peq_status, sizeof(asqt_peq_status_t));
60126aa8:	f102 6c00 	li	a0,4352
60126aac:	67b0      	move	a1,s0
60126aae:	b259      	lw	v0,60126c10 <.LBE5+0x156>
60126ab0:	ea40      	jalr	v0
60126ab2:	6e0c      	li	a2,12
60126ab4:	b258      	lw	v0,60126c14 <.LBE5+0x15a>
            get_asqt_peq_para_from_pc(&peq_status);
60126ab6:	ea40      	jalr	v0
60126ab8:	6790      	move	a0,s0

60126aba <.LBE5>:
60126aba:	b250      	lw	v0,60126bf8 <.LBE5+0x13e>
        }
    }

    mr_ret = (int) mmm_hfp_cmd(mp_handle, MMM_HFP_PLAY, (unsigned int)&hfp_dec_mode);
60126abc:	9a80      	lw	a0,0(v0)
60126abe:	6d03      	li	a1,3
60126ac0:	b24f      	lw	v0,60126bfc <.LBE5+0x142>
60126ac2:	ea40      	jalr	v0
60126ac4:	0612      	addiu	a2,sp,72
60126ac6:	6702      	move	s0,v0
60126ac8:	b248      	lw	v0,60126be8 <.LBE5+0x12e>

    if(g_stub_tools_type != STUB_PC_TOOL_ASQT_MODE) {
60126aca:	a240      	lbu	v0,0(v0)
60126acc:	7201      	cmpi	v0,1
60126ace:	6006      	bteqz	60126adc <.LBE5+0x22>
60126ad0:	6791      	move	a0,s1
        sys_sd_fclose(asqt_para_bin_handle);
60126ad2:	6d00      	li	a1,0
60126ad4:	67c5      	move	a2,a1
60126ad6:	b240      	lw	v0,60126bd4 <.LBE5+0x11a>
60126ad8:	ea40      	jalr	v0
60126ada:	6f0e      	li	a3,14
60126adc:	6a01      	li	v0,1
    }

    btcall_gl_var.dsp_load_flag = 1;
60126ade:	b33f      	lw	v1,60126bd8 <.LBE5+0x11e>
60126ae0:	c34e      	sb	v0,14(v1)
60126ae2:	ea0f      	not	v0,s0

    if(mr_ret == -1) {
60126ae4:	2a07      	bnez	v0,60126af4 <.LBE5+0x3a>
60126ae6:	0c30      	la	a0,60126ba4 <.LBE5+0xea>
        PRINT_ERR("hfp play fail!\n");
60126ae8:	6d00      	li	a1,0
60126aea:	67c5      	move	a2,a1
60126aec:	b23a      	lw	v0,60126bd4 <.LBE5+0x11a>
60126aee:	ea40      	jalr	v0
60126af0:	6f4b      	li	a3,75
60126af2:	1006      	b	60126b00 <.LBE5+0x46>
60126af4:	0c31      	la	a0,60126bb8 <.LBE5+0xfe>
    } else {
        PRINT_INFO("hfp play ok!\n");
60126af6:	6d00      	li	a1,0
60126af8:	67c5      	move	a2,a1
60126afa:	b237      	lw	v0,60126bd4 <.LBE5+0x11a>
60126afc:	ea40      	jalr	v0
60126afe:	6f4b      	li	a3,75
60126b00:	b236      	lw	v0,60126bd8 <.LBE5+0x11e>
    }

    btcall_gl_var.g_sco_deal_flag = 1;
60126b02:	6b01      	li	v1,1
60126b04:	c260      	sb	v1,0(v0)
60126b06:	6b00      	li	v1,0
    btcall_gl_var.need_exit_thread = FALSE;
60126b08:	c262      	sb	v1,2(v0)
60126b0a:	647c      	restore	96,ra,s0-s1

}
60126b0c:	e8a0      	jrc	ra
60126b0e:	0000      	addiu	s0,sp,0
60126b10:	493c      	addiu	s1,60
60126b12:	203e      	beqz	s0,60126b90 <.LBE5+0xd6>
60126b14:	2d2d      	bnez	a1,60126b70 <.LBE5+0xb6>
60126b16:	534d      	slti	v1,77
60126b18:	4342      	addiu	v0,v1,2
60126b1a:	2d2d      	bnez	a1,60126b76 <.LBE5+0xbc>
60126b1c:	0000      	addiu	s0,sp,0
60126b1e:	0000      	addiu	s0,sp,0
60126b20:	493c      	addiu	s1,60
60126b22:	203e      	beqz	s0,60126ba0 <.LBE5+0xe6>
60126b24:	7361      	cmpi	v1,97
60126b26:	7471      	cmpi	a0,113
60126b28:	315f      	sra	s1,v0,7
60126b2a:	6b36      	li	v1,54
60126b2c:	0000      	addiu	s0,sp,0
60126b2e:	0000      	addiu	s0,sp,0
60126b30:	493c      	addiu	s1,60
60126b32:	203e      	beqz	s0,60126bb0 <.LBE5+0xf6>
60126b34:	2d2d      	bnez	a1,60126b90 <.LBE5+0xd6>
60126b36:	5643      	slti	a2,67
60126b38:	4453      	daddiu	v0,a0,3
60126b3a:	2d2d      	bnez	a1,60126b96 <.LBE5+0xdc>
60126b3c:	0000      	addiu	s0,sp,0
60126b3e:	0000      	addiu	s0,sp,0
60126b40:	6d6d      	li	a1,109
60126b42:	5f6d      	sltiu	a3,109
60126b44:	6668      	0x6668
60126b46:	2e70      	bnez	a2,60126c28 <btcalleg_free_hfp_mmm+0x10>
60126b48:	6c61      	li	a0,97
60126b4a:	0000      	addiu	s0,sp,0
60126b4c:	453c      	daddiu	s1,a1,-4
60126b4e:	203e      	beqz	s0,60126bcc <.LBE5+0x112>
60126b50:	6668      	0x6668
60126b52:	2070      	beqz	s0,60126c34 <btcalleg_free_hfp_mmm+0x1c>
60126b54:	706f      	cmpi	s0,111
60126b56:	6e65      	li	a2,101
60126b58:	6620      	0x6620
60126b5a:	6961      	li	s1,97
60126b5c:	216c      	beqz	s1,60126c36 <btcalleg_free_hfp_mmm+0x1e>
60126b5e:	000a      	addiu	s0,sp,40
60126b60:	493c      	addiu	s1,60
60126b62:	203e      	beqz	s0,60126be0 <.LBE5+0x126>
60126b64:	6668      	0x6668
60126b66:	5f70      	sltiu	a3,112
60126b68:	6564      	move	v1,a0
60126b6a:	5f63      	sltiu	a3,99
60126b6c:	6f6d      	li	a3,109
60126b6e:	6564      	move	v1,a0
60126b70:	003a      	addiu	s0,sp,232
60126b72:	0000      	addiu	s0,sp,0
60126b74:	453c      	daddiu	s1,a1,-4
60126b76:	203e      	beqz	s0,60126bf4 <.LBE5+0x13a>
60126b78:	6668      	0x6668
60126b7a:	2070      	beqz	s0,60126c5c <btcalleg_free_hfp_mmm+0x44>
60126b7c:	6f61      	li	a3,97
60126b7e:	7475      	cmpi	a0,117
60126b80:	706f      	cmpi	s0,111
60126b82:	6e65      	li	a2,101
60126b84:	6620      	0x6620
60126b86:	6961      	li	s1,97
60126b88:	216c      	beqz	s1,60126c62 <btcalleg_free_hfp_mmm+0x4a>
60126b8a:	000a      	addiu	s0,sp,40
60126b8c:	453c      	daddiu	s1,a1,-4
60126b8e:	203e      	beqz	s0,60126c0c <.LBE5+0x152>
60126b90:	6668      	0x6668
60126b92:	2070      	beqz	s0,60126c74 <btcalleg_free_hfp_mmm+0x5c>
60126b94:	6961      	li	s1,97
60126b96:	6f6e      	li	a3,110
60126b98:	6570      	move	s3,s0
60126b9a:	206e      	beqz	s0,60126c78 <btcalleg_free_hfp_mmm+0x60>
60126b9c:	6166      	btnez	60126c6a <btcalleg_free_hfp_mmm+0x52>
60126b9e:	6c69      	li	a0,105
60126ba0:	0a21      	la	v0,60126c24 <btcalleg_free_hfp_mmm+0xc>
60126ba2:	0000      	addiu	s0,sp,0
60126ba4:	453c      	daddiu	s1,a1,-4
60126ba6:	203e      	beqz	s0,60126c24 <btcalleg_free_hfp_mmm+0xc>
60126ba8:	6668      	0x6668
60126baa:	2070      	beqz	s0,60126c8c <btcalleg_free_hfp_mmm+0x74>
60126bac:	6c70      	li	a0,112
60126bae:	7961      	sd	v1,8(s1)
60126bb0:	6620      	0x6620
60126bb2:	6961      	li	s1,97
60126bb4:	216c      	beqz	s1,60126c8e <btcalleg_free_hfp_mmm+0x76>
60126bb6:	000a      	addiu	s0,sp,40
60126bb8:	493c      	addiu	s1,60
60126bba:	203e      	beqz	s0,60126c38 <btcalleg_free_hfp_mmm+0x20>
60126bbc:	6668      	0x6668
60126bbe:	2070      	beqz	s0,60126ca0 <btcalleg_free_hfp_mmm+0x88>
60126bc0:	6c70      	li	a0,112
60126bc2:	7961      	sd	v1,8(s1)
60126bc4:	6f20      	li	a3,32
60126bc6:	216b      	beqz	s1,60126c9e <btcalleg_free_hfp_mmm+0x86>
60126bc8:	000a      	addiu	s0,sp,40
60126bca:	0000      	addiu	s0,sp,0
60126bcc:	68bd      	li	s0,189
60126bce:	60a6      	bteqz	60126b1c <.LBE5+0x62>
60126bd0:	95ad      	lw	a1,692(sp)
60126bd2:	9fc1      	lw	a2,4(a3)
60126bd4:	6009      	bteqz	60126be8 <.LBE5+0x12e>
60126bd6:	bfc2      	lwu	a2,8(a3)
60126bd8:	9650      	lw	a2,320(sp)
60126bda:	9fc1      	lw	a2,4(a3)
60126bdc:	6d1d      	li	a1,29
60126bde:	601e      	bteqz	60126c1c <btcalleg_free_hfp_mmm+0x4>
60126be0:	6dbd      	li	a1,189
60126be2:	6016      	bteqz	60126c10 <.LBE5+0x156>
60126be4:	6801      	li	s0,1
60126be6:	60aa      	bteqz	60126b3c <.LBE5+0x82>
60126be8:	95ac      	lw	a1,688(sp)
60126bea:	9fc1      	lw	a2,4(a3)
60126bec:	6921      	li	s1,33
60126bee:	601e      	bteqz	60126c2c <btcalleg_free_hfp_mmm+0x14>
60126bf0:	6935      	li	s1,53
60126bf2:	6016      	bteqz	60126c20 <btcalleg_free_hfp_mmm+0x8>
60126bf4:	6011      	bteqz	60126c18 <btcalleg_free_hfp_mmm>
60126bf6:	bfc2      	lwu	a2,8(a3)
60126bf8:	9660      	lw	a2,384(sp)
60126bfa:	9fc1      	lw	a2,4(a3)
60126bfc:	6015      	bteqz	60126c28 <btcalleg_free_hfp_mmm+0x10>
60126bfe:	bfc2      	lwu	a2,8(a3)
60126c00:	a094      	lbu	a0,20(s0)
60126c02:	9fc1      	lw	a2,4(a3)
60126c04:	6801      	li	s0,1
60126c06:	6012      	bteqz	60126c2c <btcalleg_free_hfp_mmm+0x14>
60126c08:	6975      	li	s1,117
60126c0a:	6022      	bteqz	60126c50 <btcalleg_free_hfp_mmm+0x38>
60126c0c:	6c7d      	li	a0,125
60126c0e:	6022      	bteqz	60126c54 <btcalleg_free_hfp_mmm+0x3c>
60126c10:	69ad      	li	s1,173
60126c12:	601a      	bteqz	60126c48 <btcalleg_free_hfp_mmm+0x30>
60126c14:	6f39      	li	a3,57
60126c16:	6016      	bteqz	60126c44 <btcalleg_free_hfp_mmm+0x2c>

60126c18 <btcalleg_free_hfp_mmm>:
60126c18:	64f4      	save	32,ra,s0-s1

/******************************************************************************
 * \  par  Description:   卸载中间件
 * \  param[in]     null0
 * \  param[out]   null
 * \  return           null
 * \  note
 * \  <author>       <time>        <opt>
 * \  Cailizhen          2015-1          creat
 * \   Wekan       2015-3-30     reviwe
 *******************************************************************************/

void btcalleg_free_hfp_mmm(void)
{
60126c1a:	b123      	lw	s1,60126ca4 <btcalleg_free_hfp_mmm+0x8c>
    if(mp_handle != NULL) {
60126c1c:	9980      	lw	a0,0(s1)
60126c1e:	2420      	beqz	a0,60126c60 <btcalleg_free_hfp_mmm+0x48>
60126c20:	6d05      	li	a1,5
        mmm_hfp_cmd(mp_handle, MMM_HFP_STOP_PLAY, (unsigned int) NULL);
60126c22:	b022      	lw	s0,60126ca8 <btcalleg_free_hfp_mmm+0x90>
60126c24:	e840      	jalr	s0
60126c26:	6e00      	li	a2,0
60126c28:	6b00      	li	v1,0

        btcall_gl_var.dsp_load_flag = 0;
60126c2a:	b221      	lw	v0,60126cac <btcalleg_free_hfp_mmm+0x94>
60126c2c:	c26e      	sb	v1,14(v0)
60126c2e:	9980      	lw	a0,0(s1)

        mmm_hfp_cmd(mp_handle, MMM_HFP_AIN_CLOSE, (unsigned int) NULL);
60126c30:	6d06      	li	a1,6
60126c32:	e840      	jalr	s0
60126c34:	6e00      	li	a2,0
60126c36:	9980      	lw	a0,0(s1)

        mmm_hfp_cmd(mp_handle, MMM_HFP_AOUT_CLOSE, (unsigned int) NULL);
60126c38:	6d07      	li	a1,7
60126c3a:	e840      	jalr	s0
60126c3c:	6e00      	li	a2,0
60126c3e:	9980      	lw	a0,0(s1)

        //关闭中间件设备
        mmm_hfp_cmd(mp_handle, MMM_HFP_CLOSE, (unsigned int) NULL);
60126c40:	6d08      	li	a1,8
60126c42:	e840      	jalr	s0
60126c44:	6e00      	li	a2,0
60126c46:	0c10      	la	a0,60126c84 <btcalleg_free_hfp_mmm+0x6c>

        PRINT_INFO("hfp close!\n");
60126c48:	6d00      	li	a1,0
60126c4a:	67c5      	move	a2,a1
60126c4c:	b019      	lw	s0,60126cb0 <btcalleg_free_hfp_mmm+0x98>
60126c4e:	e840      	jalr	s0
60126c50:	6f4b      	li	a3,75
60126c52:	6c01      	li	a0,1

        //卸载hfp驱动
        sys_free_mmm(TRUE);
60126c54:	6d00      	li	a1,0
60126c56:	67c5      	move	a2,a1
60126c58:	e840      	jalr	s0
60126c5a:	6f06      	li	a3,6
60126c5c:	6a00      	li	v0,0
        mp_handle = NULL;
60126c5e:	d940      	sw	v0,0(s1)
60126c60:	6c03      	li	a0,3
    }

    adjust_freq_set_level(AP_BACK_HIGH_PRIO, FREQ_NULL, FREQ_NULL);
60126c62:	6d00      	li	a1,0
60126c64:	67c5      	move	a2,a1
60126c66:	b214      	lw	v0,60126cb4 <btcalleg_free_hfp_mmm+0x9c>
60126c68:	ea40      	jalr	v0
60126c6a:	67e4      	move	a3,a0
60126c6c:	0c0a      	la	a0,60126c94 <btcalleg_free_hfp_mmm+0x7c>

    PRINT_INFO("hfp exit!\n");
60126c6e:	6d00      	li	a1,0
60126c70:	67c5      	move	a2,a1
60126c72:	b210      	lw	v0,60126cb0 <btcalleg_free_hfp_mmm+0x98>
60126c74:	ea40      	jalr	v0
60126c76:	6f4b      	li	a3,75
60126c78:	6b00      	li	v1,0

    btcall_gl_var.g_sco_deal_flag = 0;
60126c7a:	b20d      	lw	v0,60126cac <btcalleg_free_hfp_mmm+0x94>
60126c7c:	c260      	sb	v1,0(v0)
60126c7e:	6474      	restore	32,ra,s0-s1
}
60126c80:	e8a0      	jrc	ra
60126c82:	0000      	addiu	s0,sp,0
60126c84:	493c      	addiu	s1,60
60126c86:	203e      	beqz	s0,60126d04 <bt_engine_hfp_sco_connect_ind_handle+0x4c>
60126c88:	6668      	0x6668
60126c8a:	2070      	beqz	s0,60126d6c <bt_engine_hfp_sco_disconnect_ind_handle+0x2c>
60126c8c:	6c63      	li	a0,99
60126c8e:	736f      	cmpi	v1,111
60126c90:	2165      	beqz	s1,60126d5c <bt_engine_hfp_sco_disconnect_ind_handle+0x1c>
60126c92:	000a      	addiu	s0,sp,40
60126c94:	493c      	addiu	s1,60
60126c96:	203e      	beqz	s0,60126d14 <bt_engine_hfp_sco_connect_ind_handle+0x5c>
60126c98:	6668      	0x6668
60126c9a:	2070      	beqz	s0,60126d7c <bt_engine_hfp_sco_disconnect_ind_handle+0x3c>
60126c9c:	7865      	sd	v1,40(s0)
60126c9e:	7469      	cmpi	a0,105
60126ca0:	0a21      	la	v0,60126d24 <bt_engine_hfp_sco_connect_ind_handle+0x6c>
60126ca2:	0000      	addiu	s0,sp,0
60126ca4:	9660      	lw	a2,384(sp)
60126ca6:	9fc1      	lw	a2,4(a3)
60126ca8:	6015      	bteqz	60126cd4 <bt_engine_hfp_sco_connect_ind_handle+0x1c>
60126caa:	bfc2      	lwu	a2,8(a3)
60126cac:	9650      	lw	a2,320(sp)
60126cae:	9fc1      	lw	a2,4(a3)
60126cb0:	6009      	bteqz	60126cc4 <bt_engine_hfp_sco_connect_ind_handle+0xc>
60126cb2:	bfc2      	lwu	a2,8(a3)
60126cb4:	6011      	bteqz	60126cd8 <bt_engine_hfp_sco_connect_ind_handle+0x20>
60126cb6:	bfc2      	lwu	a2,8(a3)

60126cb8 <bt_engine_hfp_sco_connect_ind_handle>:
60126cb8:	64f4      	save	32,ra,s0-s1

/******************************************************************************
 * \  par  Description:   创建soc链路
 * \  param[in]     null0
 * \  param[out]   null
 * \  return           null
 * \  note
 * \  <author>       <time>        <opt>
 * \  Cailizhen          2015-1          creat
 * \   Wekan       2015-3-30     reviwe
 *******************************************************************************/

void bt_engine_hfp_sco_connect_ind_handle(void)
{
60126cba:	b31b      	lw	v1,60126d24 <bt_engine_hfp_sco_connect_ind_handle+0x6c>
    if((btcall_gl_var.g_sco_deal_flag == 1) || (btcall_gl_var.tts_play_flag == 1)) {
60126cbc:	a340      	lbu	v0,0(v1)
60126cbe:	7201      	cmpi	v0,1
60126cc0:	602f      	bteqz	60126d20 <bt_engine_hfp_sco_connect_ind_handle+0x68>
60126cc2:	a344      	lbu	v0,4(v1)
60126cc4:	7201      	cmpi	v0,1
60126cc6:	602c      	bteqz	60126d20 <bt_engine_hfp_sco_connect_ind_handle+0x68>
60126cc8:	a346      	lbu	v0,6(v1)
        return;
    }

    if(btcall_gl_var.callin_ring_mode != CALLIN_RING_MODE_ONLY_PB) {
60126cca:	7201      	cmpi	v0,1
60126ccc:	601a      	bteqz	60126d02 <bt_engine_hfp_sco_connect_ind_handle+0x4a>
60126cce:	b017      	lw	s0,60126d28 <bt_engine_hfp_sco_connect_ind_handle+0x70>
        if(g_callring_data.callring_timer_id != -1) {
60126cd0:	808f      	lb	a0,15(s0)
60126cd2:	ea8f      	not	v0,a0
60126cd4:	2205      	beqz	v0,60126ce0 <bt_engine_hfp_sco_connect_ind_handle+0x28>
60126cd6:	b216      	lw	v0,60126d2c <bt_engine_hfp_sco_connect_ind_handle+0x74>
            kill_app_timer(g_callring_data.callring_timer_id);
60126cd8:	eac0      	jalrc	v0
60126cda:	6a01      	li	v0,1
60126cdc:	ea4b      	neg	v0
60126cde:	c04f      	sb	v0,15(s0)
            g_callring_data.callring_timer_id = -1;
60126ce0:	b212      	lw	v0,60126d28 <bt_engine_hfp_sco_connect_ind_handle+0x70>
        }

        if(g_callring_data.callring_thread_exist == 1) {
60126ce2:	a280      	lbu	a0,0(v0)
60126ce4:	7401      	cmpi	a0,1
60126ce6:	610d      	btnez	60126d02 <bt_engine_hfp_sco_connect_ind_handle+0x4a>
60126ce8:	6b01      	li	v1,1
            btcall_gl_var.need_exit_thread = TRUE;
60126cea:	b20f      	lw	v0,60126d24 <bt_engine_hfp_sco_connect_ind_handle+0x6c>
60126cec:	c262      	sb	v1,2(v0)
60126cee:	2409      	beqz	a0,60126d02 <bt_engine_hfp_sco_connect_ind_handle+0x4a>
            while(g_callring_data.callring_thread_exist != 0) {
                sys_os_time_dly(1);
60126cf0:	b110      	lw	s1,60126d30 <bt_engine_hfp_sco_connect_ind_handle+0x78>
60126cf2:	b00e      	lw	s0,60126d28 <bt_engine_hfp_sco_connect_ind_handle+0x70>
60126cf4:	6c01      	li	a0,1
60126cf6:	6d00      	li	a1,0
60126cf8:	67c5      	move	a2,a1
60126cfa:	e940      	jalr	s1
60126cfc:	6f31      	li	a3,49
60126cfe:	a040      	lbu	v0,0(s0)
60126d00:	2af9      	bnez	v0,60126cf4 <bt_engine_hfp_sco_connect_ind_handle+0x3c>
60126d02:	b20d      	lw	v0,60126d34 <bt_engine_hfp_sco_connect_ind_handle+0x7c>
            }
        }
    }

    if(g_p_bt_stack_cur_info->msbc_code_flag == 1) {
60126d04:	9a40      	lw	v0,0(v0)
60126d06:	f040 a247 	lbu	v0,71(v0)
60126d0a:	7201      	cmpi	v0,1
60126d0c:	6104      	btnez	60126d16 <bt_engine_hfp_sco_connect_ind_handle+0x5e>
60126d0e:	6b01      	li	v1,1
        g_stub_8k_16k = 1;
60126d10:	b20a      	lw	v0,60126d38 <bt_engine_hfp_sco_connect_ind_handle+0x80>
60126d12:	c260      	sb	v1,0(v0)
60126d14:	1003      	b	60126d1c <bt_engine_hfp_sco_connect_ind_handle+0x64>
60126d16:	6b00      	li	v1,0
    } else {
        g_stub_8k_16k = 0;
60126d18:	b208      	lw	v0,60126d38 <bt_engine_hfp_sco_connect_ind_handle+0x80>
60126d1a:	c260      	sb	v1,0(v0)
60126d1c:	b208      	lw	v0,60126d3c <bt_engine_hfp_sco_connect_ind_handle+0x84>
    }

    btcalleg_load_hfp_mmm();
60126d1e:	eac0      	jalrc	v0
60126d20:	6474      	restore	32,ra,s0-s1
    /*有些手机创建了sco链路,但是controller没有发sco包,
     加个定时器判断是否有sco包,如果没有,主动断开sco连接*/
    //    set_single_shot_app_timer(APP_TIMER_ATTRB_CONTROL, 2000, (timer_proc) check_disconnect_sco_link);
}
60126d22:	e8a0      	jrc	ra
60126d24:	9650      	lw	a2,320(sp)
60126d26:	9fc1      	lw	a2,4(a3)
60126d28:	9664      	lw	a2,400(sp)
60126d2a:	9fc1      	lw	a2,4(a3)
60126d2c:	6c0d      	li	a0,13
60126d2e:	60a2      	bteqz	60126c74 <btcalleg_free_hfp_mmm+0x5c>
60126d30:	6009      	bteqz	60126d44 <bt_engine_hfp_sco_disconnect_ind_handle+0x4>
60126d32:	bfc2      	lwu	a2,8(a3)
60126d34:	9674      	lw	a2,464(sp)
60126d36:	9fc1      	lw	a2,4(a3)
60126d38:	95ad      	lw	a1,692(sp)
60126d3a:	9fc1      	lw	a2,4(a3)
60126d3c:	6915      	li	s1,21
60126d3e:	6012      	bteqz	60126d64 <bt_engine_hfp_sco_disconnect_ind_handle+0x24>

60126d40 <bt_engine_hfp_sco_disconnect_ind_handle>:
60126d40:	64c3      	save	24,ra

/******************************************************************************
 * \  par  Description:  断开soc链路
 * \  param[in]     null0
 * \  param[out]   null
 * \  return           null
 * \  note
 * \  <author>       <time>        <opt>
 * \  Cailizhen          2015-1          creat
 * \   Wekan       2015-3-30     reviwe
 *******************************************************************************/

void bt_engine_hfp_sco_disconnect_ind_handle(void)
{
60126d42:	b204      	lw	v0,60126d50 <bt_engine_hfp_sco_disconnect_ind_handle+0x10>
    if(btcall_gl_var.g_sco_deal_flag != 0) {
60126d44:	a240      	lbu	v0,0(v0)
60126d46:	2202      	beqz	v0,60126d4c <bt_engine_hfp_sco_disconnect_ind_handle+0xc>
60126d48:	b203      	lw	v0,60126d54 <bt_engine_hfp_sco_disconnect_ind_handle+0x14>
        btcalleg_free_hfp_mmm();
60126d4a:	eac0      	jalrc	v0
60126d4c:	6443      	restore	24,ra
    }
}
60126d4e:	e8a0      	jrc	ra
60126d50:	9650      	lw	a2,320(sp)
60126d52:	9fc1      	lw	a2,4(a3)
60126d54:	6c19      	li	a0,25
60126d56:	6012      	bteqz	60126d7c <bt_engine_hfp_sco_disconnect_ind_handle+0x3c>
Disassembly of section BANK_CONTROL_1_5:

60166800 <show_dat>:
60166800:	f00c 64f4 	save	a0-a2,32,ra,s0-s1
//dsp默认参数
const int dsp_init_set[] = {16, 8000,  1, 64,  1, 6, 15,  1, 40, 40,  1, 15,  0, -60,  0, 256, 128, 3, 10, 4, 7, 0, 0, 3};

void show_dat(char *s, uint32 *pd, uint32 len)
{
60166804:	0c11      	la	a0,60166848 <show_dat+0x48>
    uint32 i;
    PRINT_INFO_INT("addr=", (uint32)pd);
60166806:	6725      	move	s1,a1
60166808:	6e02      	li	a2,2
6016680a:	b213      	lw	v0,60166854 <show_dat+0x54>
6016680c:	ea40      	jalr	v0
6016680e:	6f4b      	li	a3,75
60166810:	6800      	li	s0,0
    for(i = 0; i < len; i++) {
60166812:	920a      	lw	v0,40(sp)
60166814:	2216      	beqz	v0,60166842 <show_dat+0x42>
60166816:	3208      	sll	v0,s0,2
        libc_print(s, pd[i], 2);
60166818:	e229      	addu	v0,s1
6016681a:	9408      	lw	a0,32(sp)
6016681c:	9aa0      	lw	a1,0(v0)
6016681e:	6e02      	li	a2,2
60166820:	b30d      	lw	v1,60166854 <show_dat+0x54>
60166822:	eb40      	jalr	v1
60166824:	6f4b      	li	a3,75
60166826:	6a07      	li	v0,7
        if((i & 0x07) == 0x07) {
60166828:	ea0c      	and	v0,s0
6016682a:	7207      	cmpi	v0,7
6016682c:	6106      	btnez	6016683a <show_dat+0x3a>
6016682e:	6c01      	li	a0,1
            sys_os_time_dly(1);
60166830:	6d00      	li	a1,0
60166832:	67c5      	move	a2,a1
60166834:	b308      	lw	v1,60166854 <show_dat+0x54>
60166836:	eb40      	jalr	v1
60166838:	6f31      	li	a3,49
6016683a:	4001      	addiu	s0,s0,1
6016683c:	920a      	lw	v0,40(sp)
6016683e:	e843      	sltu	s0,v0
60166840:	61ea      	btnez	60166816 <show_dat+0x16>
60166842:	6474      	restore	32,ra,s0-s1
        }
    }
}
60166844:	e8a0      	jrc	ra
60166846:	0000      	addiu	s0,sp,0
60166848:	493c      	addiu	s1,60
6016684a:	203e      	beqz	s0,601668c8 <init_m4k_dsp_ctl+0x60>
6016684c:	6461      	restore	8,ra,s0
6016684e:	7264      	cmpi	v0,100
60166850:	003d      	addiu	s0,sp,244
60166852:	0000      	addiu	s0,sp,0
60166854:	6009      	bteqz	60166868 <init_m4k_dsp_ctl>
60166856:	bfc2      	lwu	a2,8(a3)

60166858 <init_asqt_fifo>:
60166858:	6a00      	li	v0,0

/******************************************************************************
 * \  par  Description:   初始化fifo数据区
 * \  param[in]     null0
 * \  param[out]   null
 * \  return           null
 * \  note
 * \  <author>       <time>        <opt>
 * \   Wekan       2015-4-1      creat
 *******************************************************************************/
void init_asqt_fifo(Fifo_ctl_t *p_fifo, uint32 size, uint8 *pdata)
{
    p_fifo->in_index = 0;
6016685a:	cc40      	sh	v0,0(a0)
6016685c:	cc41      	sh	v0,2(a0)
    p_fifo->out_index = 0;
6016685e:	cc42      	sh	v0,4(a0)
    p_fifo->data_size = 0;
60166860:	cca3      	sh	a1,6(a0)
    p_fifo->total_size = size;
60166862:	e820      	jr	ra
    p_fifo->data = pdata;
}
60166864:	dcc2      	sw	a2,8(a0)
	...

60166868 <init_m4k_dsp_ctl>:
60166868:	64b2      	save	16,s0-s1

/******************************************************************************/
/*!
 * \par  Description:
 *  初始化m4k和dsp共享的数据块
 * \param[in]   en_ASQT_period 需要上传的时期的数据bit0表示时期1，类推
 * \param[out]   none
 * \return       none
 * \  <author>       <time>        <opt>
 * \   Wekan       2015-4-1      creat
 *******************************************************************************/
void init_m4k_dsp_ctl(uint8 en_ASQT_period)
{
6016686a:	6724      	move	s1,a0
6016686c:	e911      	zeb	s1
6016686e:	6800      	li	s0,0
    uint8 i;
    uint32 M4k_addr = 0;
60166870:	2104      	beqz	s1,6016687a <init_m4k_dsp_ctl+0x12>
    if(en_ASQT_period > 0) {
60166872:	b226      	lw	v0,60166908 <init_m4k_dsp_ctl+0xa0>
        M4k_addr = (uint32)g_pAsqtRam->share_buf;
60166874:	9a40      	lw	v0,0(v0)
60166876:	f002 4200 	addiu	s0,v0,4096
6016687a:	6d00      	li	a1,0
    }
    for(i = 0; i < MAX_AEC_PERIOD; i++) {
6016687c:	67e5      	move	a3,a1
6016687e:	b625      	lw	a2,60166910 <init_m4k_dsp_ctl+0xa8>
60166880:	b223      	lw	v0,6016690c <init_m4k_dsp_ctl+0xa4>
60166882:	d200      	sw	v0,0(sp)
60166884:	b324      	lw	v1,60166914 <init_m4k_dsp_ctl+0xac>
60166886:	d301      	sw	v1,4(sp)
60166888:	b224      	lw	v0,60166918 <init_m4k_dsp_ctl+0xb0>
6016688a:	653a      	move	t9,v0
6016688c:	6751      	move	v0,s1
        if((en_ASQT_period & (SET_ENABLE << i)) != 0) {
6016688e:	ed47      	srav	v0,a1
60166890:	6b01      	li	v1,1
60166892:	ea6c      	and	v0,v1
60166894:	2224      	beqz	v0,601668de <init_m4k_dsp_ctl+0x76>
60166896:	33a8      	sll	v1,a1,2
            g_asqt_parm.out_frame_cnt[i] = 0;
60166898:	9200      	lw	v0,0(sp)
6016689a:	e34d      	addu	v1,v0
6016689c:	f080 dbfc 	sw	a3,156(v1)
601668a0:	9e40      	lw	v0,0(a2)
            g_p_share_mem->Asqt_ctl[i].frame_cnt = 0;
601668a2:	34b0      	sll	a0,a1,4
601668a4:	e449      	addu	v0,a0,v0
601668a6:	dae3      	sw	a3,12(v0)
601668a8:	f0a0 db14 	sw	s0,180(v1)
            g_asqt_parm.m4k_addr[i] = M4k_addr;
601668ac:	9e40      	lw	v0,0(a2)
            g_p_share_mem->Asqt_ctl[i].block_num = ASQT_PERIOD_BLOCK;
601668ae:	e449      	addu	v0,a0,v0
601668b0:	6b04      	li	v1,4
601668b2:	ca63      	sh	v1,6(v0)
601668b4:	9e40      	lw	v0,0(a2)
            g_p_share_mem->Asqt_ctl[i].frame_size = 128; //uint16
601668b6:	e449      	addu	v0,a0,v0
601668b8:	6b80      	li	v1,128
601668ba:	da62      	sw	v1,8(v0)
601668bc:	9e60      	lw	v1,0(a2)
            g_p_share_mem->Asqt_ctl[i].dsp_addr = (uint32 *)ADDR_M4K2DSP(M4k_addr); //M4k_addr不能大于0x9fc40000;
601668be:	e46d      	addu	v1,a0,v1
601668c0:	651b      	move	t8,v1
601668c2:	9201      	lw	v0,4(sp)
601668c4:	ea0c      	and	v0,s0
601668c6:	3246      	srl	v0,1
601668c8:	6779      	move	v1,t9
601668ca:	ea6d      	or	v0,v1
601668cc:	6778      	move	v1,t8
601668ce:	db44      	sw	v0,16(v1)
601668d0:	9e40      	lw	v0,0(a2)
            g_p_share_mem->Asqt_ctl[i].period_flag = i + 1;//需要该时期的ASQT数据
601668d2:	e451      	addu	a0,v0
601668d4:	4541      	addiu	v0,a1,1
601668d6:	cc42      	sh	v0,4(a0)
601668d8:	f400 4800 	addiu	s0,1024
            M4k_addr += 256 * ASQT_PERIOD_BLOCK;
601668dc:	100d      	b	601668f8 <init_m4k_dsp_ctl+0x90>
601668de:	9e40      	lw	v0,0(a2)
        } else {
            g_p_share_mem->Asqt_ctl[i].block_num = 0;
601668e0:	33b0      	sll	v1,a1,4
601668e2:	e349      	addu	v0,v1,v0
601668e4:	cae3      	sh	a3,6(v0)
601668e6:	9e40      	lw	v0,0(a2)
            g_p_share_mem->Asqt_ctl[i].frame_size = 0;
601668e8:	e349      	addu	v0,v1,v0
601668ea:	dae2      	sw	a3,8(v0)
601668ec:	9e40      	lw	v0,0(a2)
            g_p_share_mem->Asqt_ctl[i].period_flag = 0;
601668ee:	e349      	addu	v0,v1,v0
601668f0:	cae2      	sh	a3,4(v0)
601668f2:	9e40      	lw	v0,0(a2)
            g_p_share_mem->Asqt_ctl[i].dsp_addr = NULL;
601668f4:	e34d      	addu	v1,v0
601668f6:	dbe4      	sw	a3,16(v1)
601668f8:	4541      	addiu	v0,a1,1
601668fa:	67a2      	move	a1,v0
601668fc:	ed11      	zeb	a1
601668fe:	5d06      	sltiu	a1,6
60166900:	61c5      	btnez	6016688c <init_m4k_dsp_ctl+0x24>
60166902:	6432      	restore	16,s0-s1
        }
    }
}
60166904:	e8a0      	jrc	ra
60166906:	0000      	addiu	s0,sp,0
60166908:	969c      	lw	a2,624(sp)
6016690a:	9fc1      	lw	a2,4(a3)
6016690c:	9724      	lw	a3,144(sp)
6016690e:	9fc1      	lw	a2,4(a3)
60166910:	96a0      	lw	a2,640(sp)
60166912:	9fc1      	lw	a2,4(a3)
60166914:	ffff      	daddiu	a3,sp,124
60166916:	0001      	addiu	s0,sp,4
60166918:	0000      	addiu	s0,sp,0
6016691a:	0003      	addiu	s0,sp,12

6016691c <get_bt_air_len>:
6016691c:	b205      	lw	v0,60166930 <get_bt_air_len+0x14>



uint16 get_bt_air_len(void)
{
    return g_p_bt_stack_cur_info->rmt_dev[g_p_bt_stack_cur_info->hfp_active_id].hfp_attr.air_pkt_len;
6016691e:	9a80      	lw	a0,0(v0)
60166920:	f020 a475 	lbu	v1,53(a0)
60166924:	3264      	sll	v0,v1,1
60166926:	e269      	addu	v0,v1
60166928:	324c      	sll	v0,3
6016692a:	e289      	addu	v0,a0
6016692c:	e820      	jr	ra
}
6016692e:	aa48      	lhu	v0,16(v0)
60166930:	9674      	lw	a2,464(sp)
60166932:	9fc1      	lw	a2,4(a3)

60166934 <asqt_set_dsp_init_parm>:
60166934:	64f4      	save	32,ra,s0-s1


/******************************************************************************/
/*!
 * \par  Description:设置为dsp默认的解码参数
 * \param[in]
 * \param[out]   none
 * \return       none
 * \  <author>       <time>        <opt>
 * \   Wekan       2015-4-1      creat
 * \   真实打电话，启动mmm时调用
 *******************************************************************************/
sv_configs_t *asqt_set_dsp_init_parm(void)
{
60166936:	6900      	li	s1,0
    static bool read_sv_prms_flag = FALSE;
    sv_configs_t *asqt_parm = NULL;
60166938:	0c24      	la	a0,601669c8 <asqt_set_dsp_init_parm+0x94>
    PRINT_INFO_INT("set dsp parm:", 0);
6016693a:	67b1      	move	a1,s1
6016693c:	6e02      	li	a2,2
6016693e:	b22c      	lw	v0,601669ec <asqt_set_dsp_init_parm+0xb8>
60166940:	ea40      	jalr	v0
60166942:	6f4b      	li	a3,75
60166944:	b22b      	lw	v0,601669f0 <asqt_set_dsp_init_parm+0xbc>
    if(btcall_gl_var.stub_asqt_en != 0) { //ASQT调试模式
60166946:	a24c      	lbu	v0,12(v0)
60166948:	2216      	beqz	v0,60166976 <asqt_set_dsp_init_parm+0x42>
6016694a:	b22b      	lw	v0,601669f4 <asqt_set_dsp_init_parm+0xc0>
        reset_aec_asqt();
6016694c:	eac0      	jalrc	v0
6016694e:	b22b      	lw	v0,601669f8 <asqt_set_dsp_init_parm+0xc4>
        if(g_asqt_parm.AsqtCfg.analysis_mode == ASQT_CALL_MODE) {
60166950:	4a7c      	addiu	v0,124
60166952:	9a46      	lw	v0,24(v0)
60166954:	7201      	cmpi	v0,1
60166956:	6105      	btnez	60166962 <asqt_set_dsp_init_parm+0x2e>
60166958:	b22a      	lw	v0,60166a00 <asqt_set_dsp_init_parm+0xcc>
            g_dsp_init_parm.air_pkt_len = get_bt_air_len();  //蓝牙空中报文包长度
6016695a:	eac0      	jalrc	v0
6016695c:	b328      	lw	v1,601669f8 <asqt_set_dsp_init_parm+0xc4>
6016695e:	db56      	sw	v0,88(v1)
60166960:	1003      	b	60166968 <asqt_set_dsp_init_parm+0x34>
60166962:	6b3c      	li	v1,60
        } else {
            g_dsp_init_parm.air_pkt_len = 0x3C;//调试模式下的模拟通话模式默认0x3C=60
60166964:	b226      	lw	v0,601669fc <asqt_set_dsp_init_parm+0xc8>
60166966:	da76      	sw	v1,88(v0)
60166968:	0c1d      	la	a0,601669dc <asqt_set_dsp_init_parm+0xa8>
        }
        show_dat("Dsp:", (uint32 *)&g_dsp_init_parm, sizeof(sv_prms_t) / 4);
6016696a:	b525      	lw	a1,601669fc <asqt_set_dsp_init_parm+0xc8>
6016696c:	b226      	lw	v0,60166a04 <asqt_set_dsp_init_parm+0xd0>
6016696e:	ea40      	jalr	v0
60166970:	6e20      	li	a2,32
60166972:	b126      	lw	s1,60166a08 <asqt_set_dsp_init_parm+0xd4>
        asqt_parm = &g_asqt_parm.AsqtCfg;
60166974:	101c      	b	601669ae <asqt_set_dsp_init_parm+0x7a>
60166976:	b326      	lw	v1,60166a0c <asqt_set_dsp_init_parm+0xd8>
    } else {
        if(read_sv_prms_flag != TRUE) {
60166978:	a340      	lbu	v0,0(v1)
6016697a:	7201      	cmpi	v0,1
6016697c:	6018      	bteqz	601669ae <asqt_set_dsp_init_parm+0x7a>
6016697e:	6a01      	li	v0,1
            read_sv_prms_flag = TRUE;
60166980:	c340      	sb	v0,0(v1)
60166982:	b41f      	lw	a0,601669fc <asqt_set_dsp_init_parm+0xc8>
            //先设成默认的参数，再读config.txt的配置
            libc_memcpy((uint8 *)&g_dsp_init_parm, (uint8 *)dsp_init_set, sizeof(dsp_init_set));
60166984:	b523      	lw	a1,60166a10 <asqt_set_dsp_init_parm+0xdc>
60166986:	6e60      	li	a2,96
60166988:	b223      	lw	v0,60166a14 <asqt_set_dsp_init_parm+0xe0>
6016698a:	ea40      	jalr	v0
6016698c:	6f00      	li	a3,0
6016698e:	b41c      	lw	a0,601669fc <asqt_set_dsp_init_parm+0xc8>
            actaec_init_sv_prms(&g_dsp_init_parm);
60166990:	b222      	lw	v0,60166a18 <asqt_set_dsp_init_parm+0xe4>
60166992:	ea40      	jalr	v0
60166994:	6800      	li	s0,0
60166996:	b21a      	lw	v0,601669fc <asqt_set_dsp_init_parm+0xc8>
            g_dsp_init_parm.pcm_mode = 0;//正常工作状态
60166998:	da15      	sw	s0,84(v0)
6016699a:	b21a      	lw	v0,60166a00 <asqt_set_dsp_init_parm+0xcc>
            g_dsp_init_parm.air_pkt_len = get_bt_air_len();  //蓝牙空中报文包长度
6016699c:	eac0      	jalrc	v0
6016699e:	b318      	lw	v1,601669fc <asqt_set_dsp_init_parm+0xc8>
601669a0:	db56      	sw	v0,88(v1)
601669a2:	db1f      	sw	s0,124(v1)
            g_dsp_init_parm.hfp_connect_mod = 0;
601669a4:	0c10      	la	a0,601669e4 <asqt_set_dsp_init_parm+0xb0>
            show_dat("dsp:", (uint32 *)&g_dsp_init_parm, sizeof(sv_prms_t) / 4);
601669a6:	67a3      	move	a1,v1
601669a8:	b217      	lw	v0,60166a04 <asqt_set_dsp_init_parm+0xd0>
601669aa:	ea40      	jalr	v0
601669ac:	6e20      	li	a2,32
601669ae:	b21c      	lw	v0,60166a1c <asqt_set_dsp_init_parm+0xe8>
        }

    }
    g_p_share_mem->pAEC_parm = (sv_prms_t *)ADDR_M4K2DSP(&g_dsp_init_parm); //转成dsp直接访问
601669b0:	9a80      	lw	a0,0(v0)
601669b2:	b213      	lw	v0,601669fc <asqt_set_dsp_init_parm+0xc8>
601669b4:	b31b      	lw	v1,60166a20 <asqt_set_dsp_init_parm+0xec>
601669b6:	ea6c      	and	v0,v1
601669b8:	3246      	srl	v0,1
601669ba:	b31b      	lw	v1,60166a24 <asqt_set_dsp_init_parm+0xf0>
601669bc:	ea6d      	or	v0,v1
601669be:	dc40      	sw	v0,0(a0)
601669c0:	6751      	move	v0,s1
    //兼容2015-5-25之前的库
    //要求init_m4k_dsp_ctl()先运行
//  if(g_p_share_mem->Asqt_ctl[5].dsp_addr == NULL)//因为它的偏移在96
//  {
//      g_p_share_mem->Asqt_ctl[5].dsp_addr = (uint32*)ADDR_M4K2DSP(&g_dsp_init_parm);//转成dsp直接访问
//  }
//  else
//  {
//      libc_memcpy((uint8*)ADDR_DSP2M4K(g_p_share_mem->Asqt_ctl[5].dsp_addr), (uint8*)&g_dsp_init_parm, sizeof(sv_prms_t));
//  }
    return asqt_parm;//return null表示用  config.txt的参数，否则用pc-tool的参数
}
601669c2:	6474      	restore	32,ra,s0-s1
601669c4:	e8a0      	jrc	ra
601669c6:	0000      	addiu	s0,sp,0
601669c8:	493c      	addiu	s1,60
601669ca:	203e      	beqz	s0,60166a48 <copy_dsp_aec_parm+0x20>
601669cc:	6573      	move	s3,v1
601669ce:	2074      	beqz	s0,60166ab8 <copy_dsp_aec_parm+0x90>
601669d0:	7364      	cmpi	v1,100
601669d2:	2070      	beqz	s0,60166ab4 <copy_dsp_aec_parm+0x8c>
601669d4:	6170      	btnez	60166ab6 <copy_dsp_aec_parm+0x8e>
601669d6:	6d72      	li	a1,114
601669d8:	003a      	addiu	s0,sp,232
601669da:	0000      	addiu	s0,sp,0
601669dc:	7344      	cmpi	v1,68
601669de:	3a70      	ld	v1,128(v0)
601669e0:	0000      	addiu	s0,sp,0
601669e2:	0000      	addiu	s0,sp,0
601669e4:	7364      	cmpi	v1,100
601669e6:	3a70      	ld	v1,128(v0)
601669e8:	0000      	addiu	s0,sp,0
601669ea:	0000      	addiu	s0,sp,0
601669ec:	6009      	bteqz	60166a00 <asqt_set_dsp_init_parm+0xcc>
601669ee:	bfc2      	lwu	a2,8(a3)
601669f0:	9650      	lw	a2,320(sp)
601669f2:	9fc1      	lw	a2,4(a3)
601669f4:	6bf5      	li	v1,245
601669f6:	6016      	bteqz	60166a24 <asqt_set_dsp_init_parm+0xf0>
601669f8:	9724      	lw	a3,144(sp)
601669fa:	9fc1      	lw	a2,4(a3)
601669fc:	96a4      	lw	a2,656(sp)
601669fe:	9fc1      	lw	a2,4(a3)
60166a00:	691d      	li	s1,29
60166a02:	6016      	bteqz	60166a30 <copy_dsp_aec_parm+0x8>
60166a04:	6801      	li	s0,1
60166a06:	6016      	bteqz	60166a34 <copy_dsp_aec_parm+0xc>
60166a08:	975c      	lw	a3,368(sp)
60166a0a:	9fc1      	lw	a2,4(a3)
60166a0c:	98eb      	lw	a3,44(s0)
60166a0e:	9fc1      	lw	a2,4(a3)
60166a10:	6f94      	li	a3,148
60166a12:	6016      	bteqz	60166a40 <copy_dsp_aec_parm+0x18>
60166a14:	6005      	bteqz	60166a20 <asqt_set_dsp_init_parm+0xec>
60166a16:	bfc2      	lwu	a2,8(a3)
60166a18:	6801      	li	s0,1
60166a1a:	6006      	bteqz	60166a28 <copy_dsp_aec_parm>
60166a1c:	96a0      	lw	a2,640(sp)
60166a1e:	9fc1      	lw	a2,4(a3)
60166a20:	ffff      	daddiu	a3,sp,124
60166a22:	0001      	addiu	s0,sp,4
60166a24:	0000      	addiu	s0,sp,0
60166a26:	0003      	addiu	s0,sp,12

60166a28 <copy_dsp_aec_parm>:
60166a28:	64f4      	save	32,ra,s0-s1


/******************************************************************************/
/*!
 * \par  Description:复制aec参数，主要是复制从pc端拿到的参数
 * \param[in]      in_parm源参数
 * \param[out]   dsp_parm   dsp参数指针
 * \return       none
 * \  <author>       <time>        <opt>
 * \   Wekan       2015-4-1     creat
 *******************************************************************************/
void copy_dsp_aec_parm(sv_prms_t *dsp_parm, sv_configs_t *in_parm)
{
60166a2a:	6725      	move	s1,a1
60166a2c:	6704      	move	s0,a0
    uint32 tmp_dac_weak;
    libc_memcpy((uint8 *)dsp_parm, (uint8 *)&in_parm->frame_size, (2 + 8 + 2 + 2) * 4);
60166a2e:	4d24      	addiu	a1,36
60166a30:	6e38      	li	a2,56
60166a32:	b22a      	lw	v0,60166ad8 <copy_dsp_aec_parm+0xb0>
60166a34:	ea40      	jalr	v0
60166a36:	6f00      	li	a3,0
60166a38:	9843      	lw	v0,12(s0)

    dsp_parm->aec_prms.tail_length = (dsp_parm->aec_prms.tail_length + 8) & (~0x0F);//必须是16倍
60166a3a:	4a08      	addiu	v0,8
60166a3c:	6b10      	li	v1,16
60166a3e:	eb6b      	neg	v1
60166a40:	ea6c      	and	v0,v1
60166a42:	d843      	sw	v0,12(s0)
60166a44:	2a08      	bnez	v0,60166a56 <copy_dsp_aec_parm+0x2e>
    if(dsp_parm->aec_prms.tail_length == 0) {
60166a46:	b226      	lw	v0,60166adc <copy_dsp_aec_parm+0xb4>
        if(g_app_info_state_all.stub_phy_type == STUB_PHY_USB) {
60166a48:	a259      	lbu	v0,25(v0)
60166a4a:	2a03      	bnez	v0,60166a52 <copy_dsp_aec_parm+0x2a>
60166a4c:	6a80      	li	v0,128
            dsp_parm->aec_prms.tail_length = 128;
60166a4e:	d843      	sw	v0,12(s0)
60166a50:	1002      	b	60166a56 <copy_dsp_aec_parm+0x2e>
60166a52:	6a40      	li	v0,64
        } else {
            //耳机方案
            dsp_parm->aec_prms.tail_length = 64;
60166a54:	d843      	sw	v0,12(s0)
60166a56:	9957      	lw	v0,92(s1)
        }
    }
    if(in_parm->analysis_mode == 0) {
60166a58:	2a03      	bnez	v0,60166a60 <copy_dsp_aec_parm+0x38>
60166a5a:	4241      	addiu	v0,v0,1
        dsp_parm->pcm_mode = 1;
60166a5c:	d855      	sw	v0,84(s0)
60166a5e:	1002      	b	60166a64 <copy_dsp_aec_parm+0x3c>
60166a60:	6a00      	li	v0,0
    } else {
        dsp_parm->pcm_mode = 0;
60166a62:	d855      	sw	v0,84(s0)
60166a64:	b21f      	lw	v0,60166ae0 <copy_dsp_aec_parm+0xb8>
    }
    dsp_parm->air_pkt_len = get_bt_air_len();  //蓝牙空中报文包长度
60166a66:	eac0      	jalrc	v0
60166a68:	d856      	sw	v0,88(s0)
60166a6a:	9942      	lw	v0,8(s1)

    dsp_parm->speaker_channel = in_parm->speaker_channel;
60166a6c:	d857      	sw	v0,92(s0)
60166a6e:	9942      	lw	v0,8(s1)
    if(in_parm->speaker_channel != 3) { //双声道才衰减
60166a70:	7203      	cmpi	v0,3
60166a72:	6002      	bteqz	60166a78 <copy_dsp_aec_parm+0x50>
60166a74:	6b00      	li	v1,0
        tmp_dac_weak = 0;
60166a76:	1001      	b	60166a7a <copy_dsp_aec_parm+0x52>
60166a78:	9963      	lw	v1,12(s1)
    } else {
        tmp_dac_weak = in_parm->dac_weak;
60166a7a:	434f      	addiu	v0,v1,-1
    }
    if((tmp_dac_weak > 0) && (tmp_dac_weak < 19)) {
60166a7c:	5a12      	sltiu	v0,18
60166a7e:	6005      	bteqz	60166a8a <copy_dsp_aec_parm+0x62>
60166a80:	6a02      	li	v0,2
        dsp_parm->speaker_channel_weak_sel = 2;//左
60166a82:	d858      	sw	v0,96(s0)
60166a84:	9943      	lw	v0,12(s1)
        dsp_parm->speaker_channel_weak_val = in_parm->dac_weak;
60166a86:	d859      	sw	v0,100(s0)
60166a88:	100d      	b	60166aa4 <copy_dsp_aec_parm+0x7c>
60166a8a:	6743      	move	v0,v1
    } else if((tmp_dac_weak > 32) && (tmp_dac_weak < 51)) {
60166a8c:	4adf      	addiu	v0,-33
60166a8e:	5a12      	sltiu	v0,18
60166a90:	6006      	bteqz	60166a9e <copy_dsp_aec_parm+0x76>
60166a92:	6a01      	li	v0,1
        dsp_parm->speaker_channel_weak_sel = 1;
60166a94:	d858      	sw	v0,96(s0)
60166a96:	9943      	lw	v0,12(s1)
        dsp_parm->speaker_channel_weak_val = in_parm->dac_weak - 33;
60166a98:	4adf      	addiu	v0,-33
60166a9a:	d859      	sw	v0,100(s0)
60166a9c:	1003      	b	60166aa4 <copy_dsp_aec_parm+0x7c>
60166a9e:	6a00      	li	v0,0
    } else {
        dsp_parm->speaker_channel_weak_sel = 0;
60166aa0:	d858      	sw	v0,96(s0)
60166aa2:	d859      	sw	v0,100(s0)
        dsp_parm->speaker_channel_weak_val = 0;
60166aa4:	9958      	lw	v0,96(s1)
    }

    dsp_parm->hfp_mode = in_parm->hfp_mode;//0是双工1是单工
60166aa6:	d85a      	sw	v0,104(s0)
60166aa8:	9946      	lw	v0,24(s1)
    if(in_parm->pre_agc_level < 0xFF) {
60166aaa:	5aff      	sltiu	v0,255
60166aac:	6004      	bteqz	60166ab6 <copy_dsp_aec_parm+0x8e>
60166aae:	d85b      	sw	v0,108(s0)
        dsp_parm->pre_agc_level = in_parm->pre_agc_level;
60166ab0:	9948      	lw	v0,32(s1)
        dsp_parm->pos_agc_level = in_parm->pos_agc_level;
60166ab2:	d85c      	sw	v0,112(s0)
60166ab4:	1006      	b	60166ac2 <copy_dsp_aec_parm+0x9a>
60166ab6:	9946      	lw	v0,24(s1)
    } else {
        dsp_parm->pre_agc_level = in_parm->pre_agc_level + 30;
60166ab8:	4a1e      	addiu	v0,30
60166aba:	d85b      	sw	v0,108(s0)
60166abc:	9948      	lw	v0,32(s1)
        dsp_parm->pos_agc_level = in_parm->pos_agc_level + 30;
60166abe:	4a1e      	addiu	v0,30
60166ac0:	d85c      	sw	v0,112(s0)
60166ac2:	9945      	lw	v0,20(s1)
    }
    dsp_parm->agc_pre_en = in_parm->pre_agc_enable;
60166ac4:	d85d      	sw	v0,116(s0)
60166ac6:	9947      	lw	v0,28(s1)
    dsp_parm->agc_back_en = in_parm->pos_agc_enable;
60166ac8:	d85e      	sw	v0,120(s0)
60166aca:	6a10      	li	v0,16

    dsp_parm->frame_size = 16;//固定
60166acc:	d840      	sw	v0,0(s0)
60166ace:	f723 4a10 	addiu	v0,7984
    dsp_parm->sampling_rate = 8000; //固定
60166ad2:	d841      	sw	v0,4(s0)
60166ad4:	6474      	restore	32,ra,s0-s1
}
60166ad6:	e8a0      	jrc	ra
60166ad8:	6005      	bteqz	60166ae4 <reset_dsp>
60166ada:	bfc2      	lwu	a2,8(a3)
60166adc:	a094      	lbu	a0,20(s0)
60166ade:	9fc1      	lw	a2,4(a3)
60166ae0:	691d      	li	s1,29
60166ae2:	6016      	bteqz	60166b10 <reset_dsp+0x2c>

60166ae4 <reset_dsp>:
60166ae4:	64c3      	save	24,ra



/******************************************************************************/
/*!
 * \par  Description:
 *  重启dsp，实现pc参数实时生效
 * \param[in]    call_mode 模拟或真实打电话
 * \param[out]   none
 * \return          none
 * \  <author>       <time>        <opt>
 * \   Wekan       2015-8-11      creat
 *******************************************************************************/

void reset_dsp(uint8 call_mode)
{
60166ae6:	ec11      	zeb	a0
60166ae8:	7401      	cmpi	a0,1
    if(call_mode == ASQT_CALL_MODE) {
60166aea:	610c      	btnez	60166b04 <reset_dsp+0x20>
60166aec:	b20a      	lw	v0,60166b14 <reset_dsp+0x30>
        if(g_p_btcall_info->status == BTCALL_HFP) { //正在通话才需要重启dsp
60166aee:	9a40      	lw	v0,0(v0)
60166af0:	a240      	lbu	v0,0(v0)
60166af2:	7204      	cmpi	v0,4
60166af4:	610d      	btnez	60166b10 <reset_dsp+0x2c>
60166af6:	b209      	lw	v0,60166b18 <reset_dsp+0x34>
            btcalleg_free_hfp_mmm();
60166af8:	eac0      	jalrc	v0
60166afa:	b209      	lw	v0,60166b1c <reset_dsp+0x38>
            reset_aec_asqt();
60166afc:	eac0      	jalrc	v0
60166afe:	b209      	lw	v0,60166b20 <reset_dsp+0x3c>
            btcalleg_load_hfp_mmm();
60166b00:	eac0      	jalrc	v0
60166b02:	1006      	b	60166b10 <reset_dsp+0x2c>
60166b04:	b205      	lw	v0,60166b18 <reset_dsp+0x34>
        }
    } else {
        btcalleg_free_hfp_mmm();
60166b06:	eac0      	jalrc	v0
60166b08:	b205      	lw	v0,60166b18 <reset_dsp+0x34>
        reset_aec_asqt();
60166b0a:	eac0      	jalrc	v0
60166b0c:	b206      	lw	v0,60166b20 <reset_dsp+0x3c>
        deal_load_simu_mmm();
60166b0e:	eac0      	jalrc	v0
60166b10:	6443      	restore	24,ra
    }
}
60166b12:	e8a0      	jrc	ra
60166b14:	9680      	lw	a2,512(sp)
60166b16:	9fc1      	lw	a2,4(a3)
60166b18:	6c19      	li	a0,25
60166b1a:	6012      	bteqz	60166b40 <stub_asqt_send_end+0x18>
60166b1c:	6bf5      	li	v1,245
60166b1e:	6016      	bteqz	60166b4c <stub_asqt_down_param+0x4>
60166b20:	6915      	li	s1,21
60166b22:	6012      	bteqz	60166b48 <stub_asqt_down_param>
60166b24:	6ce9      	li	a0,233
60166b26:	6016      	bteqz	60166b54 <stub_asqt_down_param+0xc>

60166b28 <stub_asqt_send_end>:
60166b28:	64c3      	save	24,ra


/******************************************************************************/
/*!
 * \par  Description:
 *  通知pc-tool，上传数据结束
 * \param[in]    none
 * \param[out]   none
 * \return       none
 * \  <author>       <time>        <opt>
 * \   Wekan       2015-4-1      creat
 *******************************************************************************/
void stub_asqt_send_end(uint8 cmd)
{
60166b2a:	ec11      	zeb	a0
60166b2c:	3480      	sll	a0,8
    stub_set_data(cmd << 8, g_pAsqtRam->stub_buf, 0);
60166b2e:	b205      	lw	v0,60166b40 <stub_asqt_send_end+0x18>
60166b30:	9aa0      	lw	a1,0(v0)
60166b32:	6e00      	li	a2,0
60166b34:	b204      	lw	v0,60166b44 <stub_asqt_send_end+0x1c>
60166b36:	ea40      	jalr	v0
60166b38:	6f04      	li	a3,4
60166b3a:	6443      	restore	24,ra
}
60166b3c:	e8a0      	jrc	ra
60166b3e:	0000      	addiu	s0,sp,0
60166b40:	969c      	lw	a2,624(sp)
60166b42:	9fc1      	lw	a2,4(a3)
60166b44:	6019      	bteqz	60166b78 <stub_asqt_down_param+0x30>
60166b46:	bfc2      	lwu	a2,8(a3)

60166b48 <stub_asqt_down_param>:
60166b48:	64f5      	save	40,ra,s0-s1




/******************************************************************************/
/*!
 * \par  Description: 小机获取参数，保存到Vram
 * \param[in]    stub_buf缓存空间--至少512
 * \param[out]   none
 * \return       -1失败,0成功
 * \  <author>       <time>        <opt>
 * \   Wekan       2015-7-13      creat
 *******************************************************************************/
int stub_asqt_down_param(uint32 *stub_buf)
{
60166b4a:	6724      	move	s1,a0
    int ret;
    uint32 i, sum;
    uint8 *p8;
    VM_SAVE_t *pParm = (VM_SAVE_t *)stub_buf;
60166b4c:	f101 6c00 	li	a0,2304
    sv_configs_t *pc_parms = (sv_configs_t *)(stub_buf + (sizeof(VM_SAVE_t) / 4 + 1));
    ret = stub_get_data(0x0900, (uint32 *)pc_parms, sizeof(sv_configs_t));
60166b50:	f080 41ac 	addiu	a1,s1,140
60166b54:	6e64      	li	a2,100
60166b56:	b224      	lw	v0,60166be4 <stub_asqt_down_param+0x9c>
60166b58:	ea40      	jalr	v0
60166b5a:	6f03      	li	a3,3
60166b5c:	d204      	sw	v0,16(sp)
60166b5e:	5200      	slti	v0,0
    if(ret > -1) {
60166b60:	612f      	btnez	60166bc0 <stub_asqt_down_param+0x78>
60166b62:	6791      	move	a0,s1
        copy_dsp_aec_parm(&pParm->dsp_cfg, (sv_configs_t *)stub_buf);
60166b64:	4c08      	addiu	a0,8
60166b66:	b221      	lw	v0,60166be8 <stub_asqt_down_param+0xa0>
60166b68:	ea40      	jalr	v0
60166b6a:	67b1      	move	a1,s1
60166b6c:	6791      	move	a0,s1
        sys_vm_read(pParm, VM_ASQT_PARM_BASE, 8);
60166b6e:	b520      	lw	a1,60166bec <stub_asqt_down_param+0xa4>
60166b70:	6e08      	li	a2,8
60166b72:	b220      	lw	v0,60166bf0 <stub_asqt_down_param+0xa8>
60166b74:	ea40      	jalr	v0
60166b76:	6f12      	li	a3,18
60166b78:	a940      	lhu	v0,0(s1)
        if(pParm->magic != 0xAA55) {
60166b7a:	f255 7215 	cmpi	v0,43605
60166b7e:	6003      	bteqz	60166b86 <stub_asqt_down_param+0x3e>
60166b80:	6a01      	li	v0,1
            pParm->times = 1;
60166b82:	c941      	sh	v0,2(s1)
60166b84:	1003      	b	60166b8c <stub_asqt_down_param+0x44>
60166b86:	a941      	lhu	v0,2(s1)
        } else {
            pParm->times++;
60166b88:	4241      	addiu	v0,v0,1
60166b8a:	c941      	sh	v0,2(s1)
60166b8c:	f5aa 6a0b 	li	v0,21931
        }
        pParm->magic = 0xAA55;
60166b90:	ea4b      	neg	v0
60166b92:	c940      	sh	v0,0(s1)
60166b94:	67b1      	move	a1,s1
        p8 = (uint8 *)&pParm->dsp_cfg;
60166b96:	4d08      	addiu	a1,8
60166b98:	6c00      	li	a0,0
        for(i = 0, sum = 0; i < sizeof(sv_prms_t); i++) {
60166b9a:	6764      	move	v1,a0
60166b9c:	e569      	addu	v0,a1,v1
            sum += p8[i];
60166b9e:	a240      	lbu	v0,0(v0)
60166ba0:	e451      	addu	a0,v0
60166ba2:	4361      	addiu	v1,v1,1
60166ba4:	5b80      	sltiu	v1,128
60166ba6:	61fa      	btnez	60166b9c <stub_asqt_down_param+0x54>
60166ba8:	d981      	sw	a0,4(s1)
        }
        pParm->cs = sum;
60166baa:	6791      	move	a0,s1
        sys_vm_write(pParm, VM_ASQT_PARM_BASE, sizeof(VM_SAVE_t));
60166bac:	b510      	lw	a1,60166bec <stub_asqt_down_param+0xa4>
60166bae:	6e88      	li	a2,136
60166bb0:	b010      	lw	s0,60166bf0 <stub_asqt_down_param+0xa8>
60166bb2:	e840      	jalr	s0
60166bb4:	6f13      	li	a3,19
60166bb6:	0c05      	la	a0,60166bc8 <stub_asqt_down_param+0x80>
        PRINT_INFO_INT("btcall-write-vm-times:", pParm->times);
60166bb8:	a9a1      	lhu	a1,2(s1)
60166bba:	6e02      	li	a2,2
60166bbc:	e840      	jalr	s0
60166bbe:	6f4b      	li	a3,75
60166bc0:	9204      	lw	v0,16(sp)
    }
    return ret;
}
60166bc2:	6475      	restore	40,ra,s0-s1
60166bc4:	e8a0      	jrc	ra
60166bc6:	0000      	addiu	s0,sp,0
60166bc8:	493c      	addiu	s1,60
60166bca:	203e      	beqz	s0,60166c48 <reset_aec_asqt+0x54>
60166bcc:	7462      	cmpi	a0,98
60166bce:	6163      	btnez	60166c96 <reset_aec_asqt+0xa2>
60166bd0:	6c6c      	li	a0,108
60166bd2:	772d      	cmpi	a3,45
60166bd4:	6972      	li	s1,114
60166bd6:	6574      	move	s3,a0
60166bd8:	762d      	cmpi	a2,45
60166bda:	2d6d      	bnez	a1,60166cb6 <set_asrc_cpu_clk+0x1e>
60166bdc:	6974      	li	s1,116
60166bde:	656d      	move	t3,a1
60166be0:	3a73      	ld	v1,152(v0)
60166be2:	0000      	addiu	s0,sp,0
60166be4:	6019      	bteqz	60166c18 <reset_aec_asqt+0x24>
60166be6:	bfc2      	lwu	a2,8(a3)
60166be8:	6a29      	li	v0,41
60166bea:	6016      	bteqz	60166c18 <reset_aec_asqt+0x24>
60166bec:	0000      	addiu	s0,sp,0
60166bee:	000f      	addiu	s0,sp,60
60166bf0:	6009      	bteqz	60166c04 <reset_aec_asqt+0x10>
60166bf2:	bfc2      	lwu	a2,8(a3)

60166bf4 <reset_aec_asqt>:
60166bf4:	64f4      	save	32,ra,s0-s1



/******************************************************************************/
/*!
 * \par  Description:复位aec调试内存值
 * \param[in]    none
 * \param[out]   none
 * \return       none
 * \  <author>       <time>        <opt>
 * \   Wekan       2015-4-1      creat
 *******************************************************************************/
int reset_aec_asqt(void)
{
60166bf6:	b121      	lw	s1,60166c78 <reset_aec_asqt+0x84>
    init_asqt_fifo(&g_asqt_parm.ppv_fifo, sizeof(g_pAsqtRam->ppv_data), (uint8 *)g_pAsqtRam->ppv_data);
60166bf8:	99c0      	lw	a2,0(s1)
60166bfa:	b41f      	lw	a0,60166c74 <reset_aec_asqt+0x80>
60166bfc:	f300 6d00 	li	a1,768
60166c00:	f400 4e00 	addiu	a2,1024
60166c04:	b01e      	lw	s0,60166c7c <reset_aec_asqt+0x88>
60166c06:	e8c0      	jalrc	s0
60166c08:	99c0      	lw	a2,0(s1)
    init_asqt_fifo(&g_asqt_parm.mic_fifo, sizeof(g_pAsqtRam->mic_data), (uint8 *)g_pAsqtRam->mic_data);
60166c0a:	b41b      	lw	a0,60166c74 <reset_aec_asqt+0x80>
60166c0c:	4c7f      	addiu	a0,127
60166c0e:	f300 6d00 	li	a1,768
60166c12:	f700 4e00 	addiu	a2,1792
60166c16:	e840      	jalr	s0
60166c18:	4c59      	addiu	a0,89
60166c1a:	99c0      	lw	a2,0(s1)
    init_asqt_fifo(&g_asqt_parm.agc_fifo, sizeof(g_pAsqtRam->agc_data), (uint8 *)g_pAsqtRam->agc_data);
60166c1c:	b416      	lw	a0,60166c74 <reset_aec_asqt+0x80>
60166c1e:	4c7f      	addiu	a0,127
60166c20:	f300 6d00 	li	a1,768
60166c24:	f201 4e00 	addiu	a2,2560
60166c28:	e840      	jalr	s0
60166c2a:	4c4d      	addiu	a0,77
60166c2c:	99c0      	lw	a2,0(s1)
    init_asqt_fifo(&g_asqt_parm.plc_fifo, sizeof(g_pAsqtRam->plc_data), (uint8 *)g_pAsqtRam->plc_data);
60166c2e:	b412      	lw	a0,60166c74 <reset_aec_asqt+0x80>
60166c30:	4c7f      	addiu	a0,127
60166c32:	f300 6d00 	li	a1,768
60166c36:	f501 4e00 	addiu	a2,3328
60166c3a:	e840      	jalr	s0
60166c3c:	4c65      	addiu	a0,101
60166c3e:	9980      	lw	a0,0(s1)
    if(stub_asqt_get_parameter(g_pAsqtRam->rev_buf, &g_asqt_parm.AsqtCfg) > -1) { //借用rev_buf
60166c40:	b10d      	lw	s1,60166c74 <reset_aec_asqt+0x80>
60166c42:	4938      	addiu	s1,56
60166c44:	f005 4c00 	addiu	a0,10240
60166c48:	b20e      	lw	v0,60166c80 <reset_aec_asqt+0x8c>
60166c4a:	ea40      	jalr	v0
60166c4c:	67b1      	move	a1,s1
60166c4e:	5200      	slti	v0,0
60166c50:	610b      	btnez	60166c68 <reset_aec_asqt+0x74>
60166c52:	b00d      	lw	s0,60166c84 <reset_aec_asqt+0x90>
        libc_memcpy((uint8 *)&g_dsp_init_parm, (uint8 *)dsp_init_set, sizeof(dsp_init_set));
60166c54:	6790      	move	a0,s0
60166c56:	b50d      	lw	a1,60166c88 <reset_aec_asqt+0x94>
60166c58:	6e60      	li	a2,96
60166c5a:	b20d      	lw	v0,60166c8c <reset_aec_asqt+0x98>
60166c5c:	ea40      	jalr	v0
60166c5e:	6f00      	li	a3,0
60166c60:	6790      	move	a0,s0
        copy_dsp_aec_parm(&g_dsp_init_parm, &g_asqt_parm.AsqtCfg);
60166c62:	b20c      	lw	v0,60166c90 <reset_aec_asqt+0x9c>
60166c64:	ea40      	jalr	v0
60166c66:	67b1      	move	a1,s1
60166c68:	b20b      	lw	v0,60166c94 <reset_aec_asqt+0xa0>
    }
    init_m4k_dsp_ctl(0x3F);// 1111111
60166c6a:	ea40      	jalr	v0
60166c6c:	6c3f      	li	a0,63
60166c6e:	6a00      	li	v0,0
    return 0;
}
60166c70:	6474      	restore	32,ra,s0-s1
60166c72:	e8a0      	jrc	ra
60166c74:	9724      	lw	a3,144(sp)
60166c76:	9fc1      	lw	a2,4(a3)
60166c78:	969c      	lw	a2,624(sp)
60166c7a:	9fc1      	lw	a2,4(a3)
60166c7c:	6859      	li	s0,89
60166c7e:	6016      	bteqz	60166cac <set_asrc_cpu_clk+0x14>
60166c80:	69fd      	li	s1,253
60166c82:	601a      	bteqz	60166cb8 <set_asrc_cpu_clk+0x20>
60166c84:	96a4      	lw	a2,656(sp)
60166c86:	9fc1      	lw	a2,4(a3)
60166c88:	6f94      	li	a3,148
60166c8a:	6016      	bteqz	60166cb8 <set_asrc_cpu_clk+0x20>
60166c8c:	6005      	bteqz	60166c98 <set_asrc_cpu_clk>
60166c8e:	bfc2      	lwu	a2,8(a3)
60166c90:	6a29      	li	v0,41
60166c92:	6016      	bteqz	60166cc0 <set_asrc_cpu_clk+0x28>
60166c94:	6869      	li	s0,105
60166c96:	6016      	bteqz	60166cc4 <set_asrc_cpu_clk+0x2c>

60166c98 <set_asrc_cpu_clk>:
60166c98:	b411      	lw	a0,60166cdc <set_asrc_cpu_clk+0x44>


/******************************************************************************/
/*!
 * \par  Description: 设置asrc-in为cpu读写
 * \param[in]    none
 * \param[out]   none
 * \return       none
 * \  <author>       <time>        <opt>
 * \   Wekan       2015-4-1      creat
 *******************************************************************************/
void set_asrc_cpu_clk(void)
{
    act_writel(act_readl(PCM_CTL) & (~(3u << 4)), PCM_CTL); //关pcm
60166c9a:	9c40      	lw	v0,0(a0)
60166c9c:	6b31      	li	v1,49
60166c9e:	eb6b      	neg	v1
60166ca0:	ea6c      	and	v0,v1
60166ca2:	dc40      	sw	v0,0(a0)
60166ca4:	b50f      	lw	a1,60166ce0 <set_asrc_cpu_clk+0x48>
    act_writel(act_readl(ASRC_IN_CTL) & (~((1u << 1) | (3u << 11))), ASRC_IN_CTL);
60166ca6:	9d40      	lw	v0,0(a1)
60166ca8:	f003 6c03 	li	a0,6147
60166cac:	ec8b      	neg	a0
60166cae:	ea8c      	and	v0,a0
60166cb0:	dd40      	sw	v0,0(a1)
60166cb2:	b30d      	lw	v1,60166ce4 <set_asrc_cpu_clk+0x4c>
    act_writel(act_readl(ASRC_OUT0_CTL) & (~((1u << 1) | (3u << 11))), ASRC_OUT0_CTL);
60166cb4:	9b40      	lw	v0,0(v1)
60166cb6:	ea8c      	and	v0,a0
60166cb8:	db40      	sw	v0,0(v1)
60166cba:	9d40      	lw	v0,0(a1)
    set_asrc_in_wclk_cpu();
60166cbc:	f502 4c02 	addiu	a0,5378
60166cc0:	ea8c      	and	v0,a0
60166cc2:	dd40      	sw	v0,0(a1)
60166cc4:	9b40      	lw	v0,0(v1)
    set_asrc_out0_rclk_cpu();
60166cc6:	ea8c      	and	v0,a0
60166cc8:	db40      	sw	v0,0(v1)
60166cca:	9d40      	lw	v0,0(a1)
    act_writel(act_readl(ASRC_IN_CTL) | (1u << 1) | (3u << 11), ASRC_IN_CTL);
60166ccc:	f303 4c03 	addiu	a0,6915
60166cd0:	ea8d      	or	v0,a0
60166cd2:	dd40      	sw	v0,0(a1)
60166cd4:	9b40      	lw	v0,0(v1)
    act_writel(act_readl(ASRC_OUT0_CTL) | (1u << 1) | (3u << 11), ASRC_OUT0_CTL);
60166cd6:	ea8d      	or	v0,a0
60166cd8:	db40      	sw	v0,0(v1)
60166cda:	e8a0      	jrc	ra
}
60166cdc:	0000      	addiu	s0,sp,0
60166cde:	c017      	sb	s0,23(s0)
60166ce0:	0000      	addiu	s0,sp,0
60166ce2:	c016      	sb	s0,22(s0)
60166ce4:	0030      	addiu	s0,sp,192
60166ce6:	c016      	sb	s0,22(s0)

60166ce8 <deal_load_simu_mmm>:
60166ce8:	64c3      	save	24,ra



/******************************************************************************/
/*!
 * \par  Description:加载模拟打电话的中间件
 * \param[in]    none
 * \param[out]   none
 * \return       none
 * \  <author>       <time>        <opt>
 * \   Wekan       2015-4-1      creat
 *******************************************************************************/
void deal_load_simu_mmm(void)
{
60166cea:	b206      	lw	v0,60166d00 <deal_load_simu_mmm+0x18>
    asqt_set_dsp_init_parm();
60166cec:	eac0      	jalrc	v0
60166cee:	b206      	lw	v0,60166d04 <deal_load_simu_mmm+0x1c>
    btcalleg_load_hfp_mmm();
60166cf0:	eac0      	jalrc	v0
60166cf2:	6b00      	li	v1,0
    btcall_gl_var.g_sco_deal_flag = 0;//避免主线程退出mmm
60166cf4:	b205      	lw	v0,60166d08 <deal_load_simu_mmm+0x20>
60166cf6:	c260      	sb	v1,0(v0)
60166cf8:	b205      	lw	v0,60166d0c <deal_load_simu_mmm+0x24>
    set_asrc_cpu_clk();
60166cfa:	eac0      	jalrc	v0
60166cfc:	6443      	restore	24,ra
}
60166cfe:	e8a0      	jrc	ra
60166d00:	6935      	li	s1,53
60166d02:	6016      	bteqz	60166d30 <.L61+0x12>
60166d04:	6915      	li	s1,21
60166d06:	6012      	bteqz	60166d2c <.L61+0xe>
60166d08:	9650      	lw	a2,320(sp)
60166d0a:	9fc1      	lw	a2,4(a3)
60166d0c:	6c99      	li	a0,153
60166d0e:	6016      	bteqz	60166d3c <.L61+0x1e>

60166d10 <stub_asqt_write_data>:
60166d10:	64f5      	save	40,ra,s0-s1

uint32 stub_asqt_write_data(uint16 cmd, void *buf, uint16 len)
{
60166d12:	ec31      	zeh	a0
60166d14:	d404      	sw	a0,16(sp)
60166d16:	ee31      	zeh	a2
60166d18:	d605      	sw	a2,20(sp)
60166d1a:	6800      	li	s0,0
    uint8 *buf_temp = NULL;
    uint8  ret_val = 0;
    uint8  err_cnt = 0;
60166d1c:	6725      	move	s1,a1

60166d1e <.L61>:

    buf_temp = (uint8 *)buf;
60166d1e:	9404      	lw	a0,16(sp)

retry:

    ret_val = stub_set_data(cmd, buf_temp, len - STUB_COMMAND_HEAD_SIZE);
60166d20:	67b1      	move	a1,s1
60166d22:	9205      	lw	v0,20(sp)
60166d24:	42c8      	addiu	a2,v0,-8
60166d26:	b208      	lw	v0,60166d44 <.L61+0x26>
60166d28:	ea40      	jalr	v0
60166d2a:	6f04      	li	a3,4
60166d2c:	6762      	move	v1,v0
60166d2e:	eb11      	zeb	v1
60166d30:	2305      	beqz	v1,60166d3c <.L61+0x1e>
    if(0 != ret_val) {
60166d32:	4041      	addiu	v0,s0,1
        err_cnt++;
60166d34:	6702      	move	s0,v0
60166d36:	e811      	zeb	s0
60166d38:	580a      	sltiu	s0,10
//      PRINT_ERR("---stub asqt write data error---");
        if(err_cnt < 10) {
60166d3a:	61f1      	btnez	60166d1e <.L61>
60166d3c:	6743      	move	v0,v1
            goto retry;
        }
    }

    return ret_val;
}
60166d3e:	6475      	restore	40,ra,s0-s1
60166d40:	e8a0      	jrc	ra
60166d42:	0000      	addiu	s0,sp,0
60166d44:	6019      	bteqz	60166d78 <asqt_init+0x30>
60166d46:	bfc2      	lwu	a2,8(a3)

60166d48 <asqt_init>:
60166d48:	64fa      	save	80,ra,s0-s1

int8 asqt_init(void)
{
60166d4a:	6a55      	li	v0,85
    asqt_interface_config_t config_info;
    uint8 asqt_version[8];
    asqt_version[0] = 'U';
60166d4c:	677d      	move	v1,sp
60166d4e:	f020 c358 	sb	v0,56(v1)
60166d52:	6a53      	li	v0,83
    asqt_version[1] = 'S';
60166d54:	f020 c359 	sb	v0,57(v1)
60166d58:	6b32      	li	v1,50
    asqt_version[2] = '2';
60166d5a:	679d      	move	a0,sp
60166d5c:	f020 c47a 	sb	v1,58(a0)
60166d60:	6a38      	li	v0,56
    asqt_version[3] = '8';
60166d62:	f020 c45b 	sb	v0,59(a0)
60166d66:	f020 c47c 	sb	v1,60(a0)
    asqt_version[4] = '2';
60166d6a:	6a41      	li	v0,65
    asqt_version[5] = 'A';
60166d6c:	f020 c45d 	sb	v0,61(a0)
60166d70:	6900      	li	s1,0
    asqt_version[6] = '\0';
60166d72:	f020 c43e 	sb	s1,62(a0)
60166d76:	f020 c43f 	sb	s1,63(a0)
    asqt_version[7] = '\0';
60166d7a:	0404      	addiu	a0,sp,16

    libc_memset((uint8 *)&config_info, 0x00, sizeof(asqt_interface_config_t));
60166d7c:	6d00      	li	a1,0
60166d7e:	6e28      	li	a2,40
60166d80:	b30d      	lw	v1,60166db4 <asqt_init+0x6c>
60166d82:	eb40      	jalr	v1
60166d84:	6f01      	li	a3,1
60166d86:	6a14      	li	v0,20
    config_info.eq_point_nums = STUB_CMD_ASQT_MAQ_EQ_NUMS;
60166d88:	d206      	sw	v0,24(sp)
60166d8a:	6800      	li	s0,0
    config_info.eq_version = 0;
60166d8c:	d007      	sw	s0,28(sp)
60166d8e:	0408      	addiu	a0,sp,32
    libc_memcpy(config_info.fw_version, asqt_version, sizeof(asqt_version));
60166d90:	050e      	addiu	a1,sp,56
60166d92:	6e08      	li	a2,8
60166d94:	b308      	lw	v1,60166db4 <asqt_init+0x6c>
60166d96:	eb40      	jalr	v1
60166d98:	67f0      	move	a3,s0
60166d9a:	679d      	move	a0,sp
    config_info.reserve[0] = 0;
60166d9c:	f020 c428 	sb	s1,40(a0)
60166da0:	f002 6c00 	li	a0,4096
    stub_asqt_write_data(STUB_CMD_ASQT_WRITE_CONFIG_INFO, &config_info, sizeof(asqt_interface_config_t));
60166da4:	0504      	addiu	a1,sp,16
60166da6:	b205      	lw	v0,60166db8 <asqt_init+0x70>
60166da8:	ea40      	jalr	v0
60166daa:	6e28      	li	a2,40
60166dac:	6750      	move	v0,s0

    return 0;
}
60166dae:	647a      	restore	80,ra,s0-s1
60166db0:	e8a0      	jrc	ra
60166db2:	0000      	addiu	s0,sp,0
60166db4:	6005      	bteqz	60166dc0 <btcall_eg_asqt_init+0x4>
60166db6:	bfc2      	lwu	a2,8(a3)
60166db8:	6d11      	li	a1,17
60166dba:	6016      	bteqz	60166de8 <btcall_eg_asqt_init+0x2c>

60166dbc <btcall_eg_asqt_init>:
60166dbc:	64f6      	save	48,ra,s0-s1

extern uint32 stub_asqt_get_volums(uint32 *stub_buf);

void btcall_eg_asqt_init(void)
{
60166dbe:	b111      	lw	s1,60166e00 <btcall_eg_asqt_init+0x44>
    uint32 pbuf[4];
    //g_agc_aec_shm_ptr指针在进入ap时已经传递给dsp
    g_p_share_mem = (dsp_m4k_share_t *)g_agc_aec_shm_ptr;
60166dc0:	b211      	lw	v0,60166e04 <btcall_eg_asqt_init+0x48>
60166dc2:	9a40      	lw	v0,0(v0)
60166dc4:	d940      	sw	v0,0(s1)
60166dc6:	b411      	lw	a0,60166e08 <btcall_eg_asqt_init+0x4c>
    libc_memset((uint8 *)&g_asqt_parm, 0x00, sizeof(g_asqt_parm));
60166dc8:	6d00      	li	a1,0
60166dca:	6ef4      	li	a2,244
60166dcc:	b010      	lw	s0,60166e0c <btcall_eg_asqt_init+0x50>
60166dce:	e840      	jalr	s0
60166dd0:	6f01      	li	a3,1
60166dd2:	9980      	lw	a0,0(s1)
    libc_memset((uint8 *)g_p_share_mem, 0x00, sizeof(dsp_m4k_share_t));
60166dd4:	6d00      	li	a1,0
60166dd6:	6e7c      	li	a2,124
60166dd8:	e840      	jalr	s0
60166dda:	6f01      	li	a3,1
60166ddc:	b30e      	lw	v1,60166e14 <btcall_eg_asqt_init+0x58>
    g_pAsqtRam = (sv_asqt_ram_t *)&g_btcall_asqt_test_buf;
60166dde:	b20d      	lw	v0,60166e10 <btcall_eg_asqt_init+0x54>
60166de0:	da60      	sw	v1,0(v0)
60166de2:	b20e      	lw	v0,60166e18 <btcall_eg_asqt_init+0x5c>

    if(btcall_gl_var.stub_asqt_en != 0) {
60166de4:	a24c      	lbu	v0,12(v0)
60166de6:	220a      	beqz	v0,60166dfc <btcall_eg_asqt_init+0x40>
60166de8:	b20d      	lw	v0,60166e1c <btcall_eg_asqt_init+0x60>
        asqt_init();
60166dea:	eac0      	jalrc	v0
60166dec:	b20d      	lw	v0,60166e1c <btcall_eg_asqt_init+0x60>
        reset_aec_asqt();
60166dee:	eac0      	jalrc	v0
60166df0:	b20d      	lw	v0,60166e20 <btcall_eg_asqt_init+0x64>
        g_asqt_parm.asqt_volume = stub_asqt_get_volums(pbuf);
60166df2:	ea40      	jalr	v0
60166df4:	0404      	addiu	a0,sp,16
60166df6:	b305      	lw	v1,60166e08 <btcall_eg_asqt_init+0x4c>
60166df8:	f0e0 db50 	sw	v0,240(v1)
60166dfc:	6476      	restore	48,ra,s0-s1
    }
}
60166dfe:	e8a0      	jrc	ra
60166e00:	96a0      	lw	a2,640(sp)
60166e02:	9fc1      	lw	a2,4(a3)
60166e04:	95a8      	lw	a1,672(sp)
60166e06:	9fc1      	lw	a2,4(a3)
60166e08:	9724      	lw	a3,144(sp)
60166e0a:	9fc1      	lw	a2,4(a3)
60166e0c:	6005      	bteqz	60166e18 <btcall_eg_asqt_init+0x5c>
60166e0e:	bfc2      	lwu	a2,8(a3)
60166e10:	969c      	lw	a2,624(sp)
60166e12:	9fc1      	lw	a2,4(a3)
60166e14:	6c00      	li	a0,0
60166e16:	bfc1      	lwu	a2,4(a3)
60166e18:	9650      	lw	a2,320(sp)
60166e1a:	9fc1      	lw	a2,4(a3)
60166e1c:	6d49      	li	a1,73
60166e1e:	6016      	bteqz	60166e4c <btcall_eg_asqt_deal+0x24>
60166e20:	6bf5      	li	v1,245
60166e22:	6016      	bteqz	60166e50 <btcall_eg_asqt_deal+0x28>
60166e24:	69c5      	li	s1,197
60166e26:	601a      	bteqz	60166e5c <btcall_eg_asqt_deal+0x34>

60166e28 <btcall_eg_asqt_deal>:
60166e28:	64f5      	save	40,ra,s0-s1

/******************************************************************************
 * \par  Description:   处理asqt功能，如果config.txt配置使能，
                                 则发异步消息给引擎，否则初始化为默认参数
 * \param[in]     null0
 * \param[out]   none
 * \return           none
 g_p_share_mem->Asqt_ctl,  g_p_share_mem->pAEC_parm  ,g_dsp_parm  ,g_pAsqtRam必须在开始前初始化好地址
 *   <author>    <time>
 *    Wekan   2015-4-01  正常通话不会用到0x16c00的空间
 *******************************************************************************/

void btcall_eg_asqt_deal(uint8 stub_tool_type)
{
60166e2a:	ec11      	zeb	a0
60166e2c:	d404      	sw	a0,16(sp)
60166e2e:	b134      	lw	s1,60166efc <btcall_eg_asqt_deal+0xd4>
    //g_agc_aec_shm_ptr指针在进入ap时已经传递给dsp
    g_p_share_mem = (dsp_m4k_share_t *)g_agc_aec_shm_ptr;
60166e30:	b234      	lw	v0,60166f00 <btcall_eg_asqt_deal+0xd8>
60166e32:	9a40      	lw	v0,0(v0)
60166e34:	d940      	sw	v0,0(s1)
60166e36:	b234      	lw	v0,60166f04 <btcall_eg_asqt_deal+0xdc>
    g_stub_tools_type = stub_tool_type;
60166e38:	677d      	move	v1,sp
60166e3a:	a370      	lbu	v1,16(v1)
60166e3c:	c260      	sb	v1,0(v0)
60166e3e:	b433      	lw	a0,60166f08 <btcall_eg_asqt_deal+0xe0>
    libc_memset((uint8 *)&g_asqt_parm, 0x00, sizeof(g_asqt_parm));
60166e40:	6d00      	li	a1,0
60166e42:	6ef4      	li	a2,244
60166e44:	b032      	lw	s0,60166f0c <btcall_eg_asqt_deal+0xe4>
60166e46:	e840      	jalr	s0
60166e48:	6f01      	li	a3,1
60166e4a:	9980      	lw	a0,0(s1)
    libc_memset((uint8 *)g_p_share_mem, 0x00, sizeof(dsp_m4k_share_t));
60166e4c:	6d00      	li	a1,0
60166e4e:	6e7c      	li	a2,124
60166e50:	e840      	jalr	s0
60166e52:	6f01      	li	a3,1
60166e54:	68ff      	li	s0,255

    asqt_peq_addr.band_peq1_addr = sys_malloc_large_data(STUB_CMD_ASQT_MAX_BYTES_EVERY_PACKAGE);
60166e56:	4001      	addiu	s0,s0,1
60166e58:	6790      	move	a0,s0
60166e5a:	6d20      	li	a1,32
60166e5c:	6e00      	li	a2,0
60166e5e:	b12e      	lw	s1,60166f14 <btcall_eg_asqt_deal+0xec>
60166e60:	e940      	jalr	s1
60166e62:	6f16      	li	a3,22
60166e64:	b32b      	lw	v1,60166f10 <btcall_eg_asqt_deal+0xe8>
60166e66:	db40      	sw	v0,0(v1)
60166e68:	6790      	move	a0,s0
    if(NULL == asqt_peq_addr.band_peq1_addr) {
//      PRINT_INFO("asqt peq1 malloc fail");
    }

    asqt_peq_addr.band_peq2_addr = sys_malloc_large_data(STUB_CMD_ASQT_MAX_BYTES_EVERY_PACKAGE);
60166e6a:	6d20      	li	a1,32
60166e6c:	6e00      	li	a2,0
60166e6e:	e940      	jalr	s1
60166e70:	6f16      	li	a3,22
60166e72:	b328      	lw	v1,60166f10 <btcall_eg_asqt_deal+0xe8>
60166e74:	db41      	sw	v0,4(v1)
60166e76:	b229      	lw	v0,60166f18 <btcall_eg_asqt_deal+0xf0>
    if(NULL == asqt_peq_addr.band_peq2_addr) {
//      PRINT_INFO("asqt peq2 malloc fail");
    }

    init_m4k_dsp_ctl(0);
60166e78:	ea40      	jalr	v0
60166e7a:	6c00      	li	a0,0
60166e7c:	9204      	lw	v0,16(sp)

    if(stub_tool_type == STUB_PC_TOOL_ASQT_MODE) {
60166e7e:	7201      	cmpi	v0,1
60166e80:	611e      	btnez	60166ebe <btcall_eg_asqt_deal+0x96>
60166e82:	0c11      	la	a0,60166ec4 <btcall_eg_asqt_deal+0x9c>
        PRINT_INFO("---start stub asqt---");
60166e84:	6d00      	li	a1,0
60166e86:	67c5      	move	a2,a1
60166e88:	e940      	jalr	s1
60166e8a:	6f4b      	li	a3,75
60166e8c:	b224      	lw	v0,60166f1c <btcall_eg_asqt_deal+0xf4>
        asqt_init();
60166e8e:	eac0      	jalrc	v0
60166e90:	6b01      	li	v1,1

        btcall_gl_var.stub_asqt_en = 1;
60166e92:	b224      	lw	v0,60166f20 <btcall_eg_asqt_deal+0xf8>
60166e94:	c26c      	sb	v1,12(v0)
60166e96:	b325      	lw	v1,60166f28 <btcall_eg_asqt_deal+0x100>
        g_pAsqtRam = (sv_asqt_ram_t *)&g_btcall_asqt_test_buf;
60166e98:	b223      	lw	v0,60166f24 <btcall_eg_asqt_deal+0xfc>
60166e9a:	da60      	sw	v1,0(v0)
60166e9c:	b024      	lw	s0,60166f2c <btcall_eg_asqt_deal+0x104>
        if(g_stub_task_timer_id == -1) { //定时器只初化一次
60166e9e:	8040      	lb	v0,0(s0)
60166ea0:	ea4f      	not	v0
60166ea2:	2a06      	bnez	v0,60166eb0 <btcall_eg_asqt_deal+0x88>
60166ea4:	6c01      	li	a0,1
            g_stub_task_timer_id = set_app_timer(APP_TIMER_ATTRB_CONTROL, 10, task_timer10ms);
60166ea6:	b623      	lw	a2,60166f30 <btcall_eg_asqt_deal+0x108>
60166ea8:	b223      	lw	v0,60166f34 <btcall_eg_asqt_deal+0x10c>
60166eaa:	ea40      	jalr	v0
60166eac:	6d0a      	li	a1,10
60166eae:	c040      	sb	v0,0(s0)
60166eb0:	0c0c      	la	a0,60166ee0 <btcall_eg_asqt_deal+0xb8>
        }
        PRINT_INFO_INT("asqt start.(0x2A00>)=", sizeof(sv_asqt_ram_t));
60166eb2:	f205 6d00 	li	a1,10752
60166eb6:	6e02      	li	a2,2
60166eb8:	b217      	lw	v0,60166f14 <btcall_eg_asqt_deal+0xec>
60166eba:	ea40      	jalr	v0
60166ebc:	6f4b      	li	a3,75
60166ebe:	6475      	restore	40,ra,s0-s1
    }
}
60166ec0:	e8a0      	jrc	ra
60166ec2:	0000      	addiu	s0,sp,0
60166ec4:	493c      	addiu	s1,60
60166ec6:	203e      	beqz	s0,60166f44 <get_asqt_peq_para_from_pc+0xc>
60166ec8:	2d2d      	bnez	a1,60166f24 <btcall_eg_asqt_deal+0xfc>
60166eca:	732d      	cmpi	v1,45
60166ecc:	6174      	btnez	60166fb6 <dsp_init_set+0x22>
60166ece:	7472      	cmpi	a0,114
60166ed0:	7320      	cmpi	v1,32
60166ed2:	7574      	cmpi	a1,116
60166ed4:	2062      	beqz	s0,60166f9a <dsp_init_set+0x6>
60166ed6:	7361      	cmpi	v1,97
60166ed8:	7471      	cmpi	a0,113
60166eda:	2d2d      	bnez	a1,60166f36 <btcall_eg_asqt_deal+0x10e>
60166edc:	002d      	addiu	s0,sp,180
60166ede:	0000      	addiu	s0,sp,0
60166ee0:	493c      	addiu	s1,60
60166ee2:	203e      	beqz	s0,60166f60 <get_asqt_peq_para_from_pc+0x28>
60166ee4:	7361      	cmpi	v1,97
60166ee6:	7471      	cmpi	a0,113
60166ee8:	7320      	cmpi	v1,32
60166eea:	6174      	btnez	60166fd4 <dsp_init_set+0x40>
60166eec:	7472      	cmpi	a0,114
60166eee:	282e      	bnez	s0,60166f4c <get_asqt_peq_para_from_pc+0x14>
60166ef0:	7830      	sd	s1,128(s0)
60166ef2:	4132      	daddiu	s1,s1,2
60166ef4:	3030      	sll	s0,s1,4
60166ef6:	293e      	bnez	s1,60166f74 <get_asqt_peq_para_from_pc+0x3c>
60166ef8:	003d      	addiu	s0,sp,244
60166efa:	0000      	addiu	s0,sp,0
60166efc:	96a0      	lw	a2,640(sp)
60166efe:	9fc1      	lw	a2,4(a3)
60166f00:	95a8      	lw	a1,672(sp)
60166f02:	9fc1      	lw	a2,4(a3)
60166f04:	95ac      	lw	a1,688(sp)
60166f06:	9fc1      	lw	a2,4(a3)
60166f08:	9724      	lw	a3,144(sp)
60166f0a:	9fc1      	lw	a2,4(a3)
60166f0c:	6005      	bteqz	60166f18 <btcall_eg_asqt_deal+0xf0>
60166f0e:	bfc2      	lwu	a2,8(a3)
60166f10:	9818      	lw	s0,96(s0)
60166f12:	9fc1      	lw	a2,4(a3)
60166f14:	6009      	bteqz	60166f28 <btcall_eg_asqt_deal+0x100>
60166f16:	bfc2      	lwu	a2,8(a3)
60166f18:	6869      	li	s0,105
60166f1a:	6016      	bteqz	60166f48 <get_asqt_peq_para_from_pc+0x10>
60166f1c:	6d49      	li	a1,73
60166f1e:	6016      	bteqz	60166f4c <get_asqt_peq_para_from_pc+0x14>
60166f20:	9650      	lw	a2,320(sp)
60166f22:	9fc1      	lw	a2,4(a3)
60166f24:	969c      	lw	a2,624(sp)
60166f26:	9fc1      	lw	a2,4(a3)
60166f28:	6c00      	li	a0,0
60166f2a:	bfc1      	lwu	a2,4(a3)
60166f2c:	9586      	lw	a1,536(sp)
60166f2e:	9fc1      	lw	a2,4(a3)
60166f30:	6541      	move	v0,s1
60166f32:	bfc2      	lwu	a2,8(a3)
60166f34:	6afd      	li	v0,253
60166f36:	60a2      	bteqz	60166e7c <btcall_eg_asqt_deal+0x54>

60166f38 <get_asqt_peq_para_from_pc>:
60166f38:	f004 64f4 	save	a0,32,ra,s0-s1

/******************************************************************************/
/*!
 * \par  Description: 获取stub调试的类型，asqt为01
 * \param[in]    none
 * \param[out]   none
 * \return       none
 * \  <author>       <time>        <opt>
 * \   Wekan       2015-4-1      creat
 *******************************************************************************/
//uint32 get_stub_type(void)
//{
//    uint32 type;
//    stub_get_data(0xFF00, &type, 4);
//    return type;
//}

void get_asqt_peq_para_from_pc(asqt_peq_status_t *p_peq_status_t)
{
60166f3c:	b111      	lw	s1,60166f80 <get_asqt_peq_para_from_pc+0x48>
    stub_asqt_read_data(STUB_CMD_ASQT_READ_EQ1_DATAS, asqt_peq_addr.band_peq1_addr, p_peq_status_t->package1_len);
60166f3e:	f202 6c00 	li	a0,4608
60166f42:	99a0      	lw	a1,0(s1)
60166f44:	9208      	lw	v0,32(sp)
60166f46:	b010      	lw	s0,60166f84 <get_asqt_peq_para_from_pc+0x4c>
60166f48:	e840      	jalr	s0
60166f4a:	9ac1      	lw	a2,4(v0)
60166f4c:	f302 6c00 	li	a0,4864

    if(STUB_CMD_ASQT_MAQ_EQ_NUMS > STUB_CMD_ASQT_EQ_NUMS_EVERY_PACKAGE) {
        stub_asqt_read_data(STUB_CMD_ASQT_READ_EQ2_DATAS, asqt_peq_addr.band_peq2_addr, p_peq_status_t->package2_len);
60166f50:	99a1      	lw	a1,4(s1)
60166f52:	9208      	lw	v0,32(sp)
60166f54:	e840      	jalr	s0
60166f56:	9ac2      	lw	a2,8(v0)
60166f58:	b30c      	lw	v1,60166f88 <get_asqt_peq_para_from_pc+0x50>
    }

    g_p_share_mem->peq_info.band_peq1   = ADDR_M4K2DSP((uint32)asqt_peq_addr.band_peq1_addr);
60166f5a:	9ba0      	lw	a1,0(v1)
60166f5c:	9940      	lw	v0,0(s1)
60166f5e:	b60c      	lw	a2,60166f8c <get_asqt_peq_para_from_pc+0x54>
60166f60:	eacc      	and	v0,a2
60166f62:	3246      	srl	v0,1
60166f64:	b40b      	lw	a0,60166f90 <get_asqt_peq_para_from_pc+0x58>
60166f66:	ea8d      	or	v0,a0
60166f68:	dd5a      	sw	v0,104(a1)
60166f6a:	9ba0      	lw	a1,0(v1)
    g_p_share_mem->peq_info.band_peq2   = ADDR_M4K2DSP((uint32)asqt_peq_addr.band_peq2_addr);
60166f6c:	9941      	lw	v0,4(s1)
60166f6e:	eacc      	and	v0,a2
60166f70:	3246      	srl	v0,1
60166f72:	ea8d      	or	v0,a0
60166f74:	dd5b      	sw	v0,108(a1)
60166f76:	9b60      	lw	v1,0(v1)
    g_p_share_mem->peq_info.change_flag = 1;
60166f78:	6a01      	li	v0,1
60166f7a:	db59      	sw	v0,100(v1)
60166f7c:	6474      	restore	32,ra,s0-s1

#if 0
    PRINT_INFO_INT("change_flag", g_p_share_mem->peq_info.change_flag);
    PRINT_DATA(asqt_peq_addr.band_peq1_addr, STUB_CMD_ASQT_MAX_BYTES_EVERY_PACKAGE);
    PRINT_DATA(asqt_peq_addr.band_peq2_addr, STUB_CMD_ASQT_MAX_BYTES_EVERY_PACKAGE);
#endif
}
60166f7e:	e8a0      	jrc	ra
60166f80:	9818      	lw	s0,96(s0)
60166f82:	9fc1      	lw	a2,4(a3)
60166f84:	69ad      	li	s1,173
60166f86:	601a      	bteqz	60166fbc <dsp_init_set+0x28>
60166f88:	96a0      	lw	a2,640(sp)
60166f8a:	9fc1      	lw	a2,4(a3)
60166f8c:	ffff      	daddiu	a3,sp,124
60166f8e:	0001      	addiu	s0,sp,4
60166f90:	0000      	addiu	s0,sp,0
60166f92:	0003      	addiu	s0,sp,12

60166f94 <dsp_init_set>:
60166f94:	0010 0000 1f40 0000 0001 0000 0040 0000     ....@.......@...
60166fa4:	0001 0000 0006 0000 000f 0000 0001 0000     ................
60166fb4:	0028 0000 0028 0000 0001 0000 000f 0000     (...(...........
60166fc4:	0000 0000 ffc4 ffff 0000 0000 0100 0000     ................
60166fd4:	0080 0000 0003 0000 000a 0000 0004 0000     ................
60166fe4:	0007 0000 0000 0000 0000 0000 0003 0000     ................
Disassembly of section BANK_CONTROL_1_6:

601a6800 <asqt_write_fifo>:
601a6800:	f00c 64f5 	save	a0-a2,40,ra,s0-s1
601a6804:	6704      	move	s0,a0
601a6806:	6c00      	li	a0,0
601a6808:	67a4      	move	a1,a0
601a680a:	67c4      	move	a2,a0
601a680c:	b21c      	lw	v0,601a687c <asqt_write_fifo+0x7c>
601a680e:	ea40      	jalr	v0
601a6810:	6f2d      	li	a3,45
601a6812:	d204      	sw	v0,16(sp)
601a6814:	6900      	li	s1,0
601a6816:	920c      	lw	v0,48(sp)
601a6818:	2222      	beqz	v0,601a685e <asqt_write_fifo+0x5e>
601a681a:	a842      	lhu	v0,4(s0)
601a681c:	a863      	lhu	v1,6(s0)
601a681e:	ea6e      	xor	v0,v1
601a6820:	2a07      	bnez	v0,601a6830 <asqt_write_fifo+0x30>
601a6822:	0c14      	la	a0,601a6870 <asqt_write_fifo+0x70>
601a6824:	67b0      	move	a1,s0
601a6826:	6e02      	li	a2,2
601a6828:	b215      	lw	v0,601a687c <asqt_write_fifo+0x7c>
601a682a:	ea40      	jalr	v0
601a682c:	6f41      	li	a3,65
601a682e:	1017      	b	601a685e <asqt_write_fifo+0x5e>
601a6830:	a860      	lhu	v1,0(s0)
601a6832:	9842      	lw	v0,8(s0)
601a6834:	e269      	addu	v0,v1
601a6836:	940b      	lw	a0,44(sp)
601a6838:	e42d      	addu	v1,a0,s1
601a683a:	a360      	lbu	v1,0(v1)
601a683c:	c260      	sb	v1,0(v0)
601a683e:	a842      	lhu	v0,4(s0)
601a6840:	4241      	addiu	v0,v0,1
601a6842:	c842      	sh	v0,4(s0)
601a6844:	a840      	lhu	v0,0(s0)
601a6846:	4241      	addiu	v0,v0,1
601a6848:	c840      	sh	v0,0(s0)
601a684a:	a860      	lhu	v1,0(s0)
601a684c:	a843      	lhu	v0,6(s0)
601a684e:	eb43      	sltu	v1,v0
601a6850:	6102      	btnez	601a6856 <asqt_write_fifo+0x56>
601a6852:	6a00      	li	v0,0
601a6854:	c840      	sh	v0,0(s0)
601a6856:	4121      	addiu	s1,s1,1
601a6858:	920c      	lw	v0,48(sp)
601a685a:	e943      	sltu	s1,v0
601a685c:	61de      	btnez	601a681a <asqt_write_fifo+0x1a>
601a685e:	9404      	lw	a0,16(sp)
601a6860:	6d00      	li	a1,0
601a6862:	67c5      	move	a2,a1
601a6864:	b206      	lw	v0,601a687c <asqt_write_fifo+0x7c>
601a6866:	ea40      	jalr	v0
601a6868:	6f2e      	li	a3,46
601a686a:	6751      	move	v0,s1
601a686c:	6475      	restore	40,ra,s0-s1
601a686e:	e8a0      	jrc	ra
601a6870:	7361      	cmpi	v1,97
601a6872:	7471      	cmpi	a0,113
601a6874:	662d      	0x662d
601a6876:	6c75      	li	a0,117
601a6878:	2e6c      	bnez	a2,601a6952 <send_data_to_asrc+0x12>
601a687a:	0026      	addiu	s0,sp,152
601a687c:	6009      	bteqz	601a6890 <asqt_read_fifo+0x10>
601a687e:	bfc2      	lwu	a2,8(a3)

601a6880 <asqt_read_fifo>:
601a6880:	f00c 64f4 	save	a0-a2,32,ra,s0-s1
601a6884:	6704      	move	s0,a0
601a6886:	6c00      	li	a0,0
601a6888:	67a4      	move	a1,a0
601a688a:	67c4      	move	a2,a0
601a688c:	b215      	lw	v0,601a68e0 <asqt_read_fifo+0x60>
601a688e:	ea40      	jalr	v0
601a6890:	6f2d      	li	a3,45
601a6892:	67a2      	move	a1,v0
601a6894:	6900      	li	s1,0
601a6896:	920a      	lw	v0,40(sp)
601a6898:	2219      	beqz	v0,601a68cc <asqt_read_fifo+0x4c>
601a689a:	a842      	lhu	v0,4(s0)
601a689c:	2217      	beqz	v0,601a68cc <asqt_read_fifo+0x4c>
601a689e:	9209      	lw	v0,36(sp)
601a68a0:	e231      	addu	a0,v0,s1
601a68a2:	a861      	lhu	v1,2(s0)
601a68a4:	9842      	lw	v0,8(s0)
601a68a6:	e269      	addu	v0,v1
601a68a8:	a240      	lbu	v0,0(v0)
601a68aa:	c440      	sb	v0,0(a0)
601a68ac:	a842      	lhu	v0,4(s0)
601a68ae:	424f      	addiu	v0,v0,-1
601a68b0:	c842      	sh	v0,4(s0)
601a68b2:	a841      	lhu	v0,2(s0)
601a68b4:	4241      	addiu	v0,v0,1
601a68b6:	c841      	sh	v0,2(s0)
601a68b8:	a861      	lhu	v1,2(s0)
601a68ba:	a843      	lhu	v0,6(s0)
601a68bc:	eb43      	sltu	v1,v0
601a68be:	6102      	btnez	601a68c4 <asqt_read_fifo+0x44>
601a68c0:	6a00      	li	v0,0
601a68c2:	c841      	sh	v0,2(s0)
601a68c4:	4121      	addiu	s1,s1,1
601a68c6:	920a      	lw	v0,40(sp)
601a68c8:	e943      	sltu	s1,v0
601a68ca:	61e7      	btnez	601a689a <asqt_read_fifo+0x1a>
601a68cc:	6785      	move	a0,a1
601a68ce:	6d00      	li	a1,0
601a68d0:	67c5      	move	a2,a1
601a68d2:	b204      	lw	v0,601a68e0 <asqt_read_fifo+0x60>
601a68d4:	ea40      	jalr	v0
601a68d6:	6f2e      	li	a3,46
601a68d8:	6751      	move	v0,s1
601a68da:	6474      	restore	32,ra,s0-s1
601a68dc:	e8a0      	jrc	ra
601a68de:	0000      	addiu	s0,sp,0
601a68e0:	6009      	bteqz	601a68f4 <get_asqt_frame_addr+0x10>
601a68e2:	bfc2      	lwu	a2,8(a3)

601a68e4 <get_asqt_frame_addr>:
601a68e4:	ec11      	zeb	a0
601a68e6:	3488      	sll	a0,2
601a68e8:	b207      	lw	v0,601a6904 <get_asqt_frame_addr+0x20>
601a68ea:	e451      	addu	a0,v0
601a68ec:	f080 9c7c 	lw	v1,156(a0)
601a68f0:	6a03      	li	v0,3
601a68f2:	ea6c      	and	v0,v1
601a68f4:	3240      	sll	v0,8
601a68f6:	f0a0 9cb4 	lw	a1,180(a0)
601a68fa:	4361      	addiu	v1,v1,1
601a68fc:	f080 dc7c 	sw	v1,156(a0)
601a6900:	e820      	jr	ra
601a6902:	e2a9      	addu	v0,a1
601a6904:	9724      	lw	a3,144(sp)
601a6906:	9fc1      	lw	a2,4(a3)

601a6908 <push_to_fifo>:
601a6908:	64e3      	save	24,ra,s0
601a690a:	6704      	move	s0,a0
601a690c:	6785      	move	a0,a1
601a690e:	ec11      	zeb	a0
601a6910:	a843      	lhu	v0,6(s0)
601a6912:	a862      	lhu	v1,4(s0)
601a6914:	f100 4b00 	addiu	v1,256
601a6918:	ea62      	slt	v0,v1
601a691a:	610a      	btnez	601a6930 <push_to_fifo+0x28>
601a691c:	b207      	lw	v0,601a6938 <push_to_fifo+0x30>
601a691e:	eac0      	jalrc	v0
601a6920:	6790      	move	a0,s0
601a6922:	67a2      	move	a1,v0
601a6924:	6eff      	li	a2,255
601a6926:	b206      	lw	v0,601a693c <push_to_fifo+0x34>
601a6928:	ea40      	jalr	v0
601a692a:	46c1      	addiu	a2,a2,1
601a692c:	6a01      	li	v0,1
601a692e:	1001      	b	601a6932 <push_to_fifo+0x2a>
601a6930:	6a00      	li	v0,0
601a6932:	6463      	restore	24,ra,s0
601a6934:	e8a0      	jrc	ra
601a6936:	0000      	addiu	s0,sp,0
601a6938:	68e5      	li	s0,229
601a693a:	601a      	bteqz	601a6970 <send_data_to_asrc+0x30>
601a693c:	6801      	li	s0,1
601a693e:	601a      	bteqz	601a6974 <send_data_to_asrc+0x34>

601a6940 <send_data_to_asrc>:
601a6940:	f004 64f4 	save	a0,32,ra,s0-s1
601a6944:	6900      	li	s1,0
601a6946:	6711      	move	s0,s1
601a6948:	4001      	addiu	s0,s0,1
601a694a:	b314      	lw	v1,601a6998 <send_data_to_asrc+0x58>
601a694c:	a340      	lbu	v0,0(v1)
601a694e:	2a09      	bnez	v0,601a6962 <send_data_to_asrc+0x22>
601a6950:	9408      	lw	a0,32(sp)
601a6952:	b513      	lw	a1,601a699c <send_data_to_asrc+0x5c>
601a6954:	b213      	lw	v0,601a69a0 <send_data_to_asrc+0x60>
601a6956:	ea40      	jalr	v0
601a6958:	6e02      	li	a2,2
601a695a:	221b      	beqz	v0,601a6992 <send_data_to_asrc+0x52>
601a695c:	6a01      	li	v0,1
601a695e:	b30f      	lw	v1,601a6998 <send_data_to_asrc+0x58>
601a6960:	c340      	sb	v0,0(v1)
601a6962:	b211      	lw	v0,601a69a4 <send_data_to_asrc+0x64>
601a6964:	9a40      	lw	v0,0(v0)
601a6966:	6b04      	li	v1,4
601a6968:	ea6c      	and	v0,v1
601a696a:	220e      	beqz	v0,601a6988 <send_data_to_asrc+0x48>
601a696c:	b30c      	lw	v1,601a699c <send_data_to_asrc+0x5c>
601a696e:	9b40      	lw	v0,0(v1)
601a6970:	3240      	sll	v0,8
601a6972:	3240      	sll	v0,8
601a6974:	db40      	sw	v0,0(v1)
601a6976:	b30d      	lw	v1,601a69a8 <send_data_to_asrc+0x68>
601a6978:	db40      	sw	v0,0(v1)
601a697a:	db40      	sw	v0,0(v1)
601a697c:	6a00      	li	v0,0
601a697e:	b307      	lw	v1,601a6998 <send_data_to_asrc+0x58>
601a6980:	c340      	sb	v0,0(v1)
601a6982:	6800      	li	s0,0
601a6984:	4121      	addiu	s1,s1,1
601a6986:	1003      	b	601a698e <send_data_to_asrc+0x4e>
601a6988:	f3e0 5809 	sltiu	s0,1001
601a698c:	6002      	bteqz	601a6992 <send_data_to_asrc+0x52>
601a698e:	59a0      	sltiu	s1,160
601a6990:	61db      	btnez	601a6948 <send_data_to_asrc+0x8>
601a6992:	6751      	move	v0,s1
601a6994:	6474      	restore	32,ra,s0-s1
601a6996:	e8a0      	jrc	ra
601a6998:	9685      	lw	a2,532(sp)
601a699a:	9fc1      	lw	a2,4(a3)
601a699c:	9688      	lw	a2,544(sp)
601a699e:	9fc1      	lw	a2,4(a3)
601a69a0:	6881      	li	s0,129
601a69a2:	601a      	bteqz	601a69d8 <stub_asqt_get_volums+0x14>
601a69a4:	0020      	addiu	s0,sp,128
601a69a6:	c016      	sb	s0,22(s0)
601a69a8:	0014      	addiu	s0,sp,80
601a69aa:	c016      	sb	s0,22(s0)

601a69ac <stub_asqt_read_data>:
601a69ac:	64c3      	save	24,ra
601a69ae:	ec31      	zeh	a0
601a69b0:	ee31      	zeh	a2
601a69b2:	b204      	lw	v0,601a69c0 <stub_asqt_read_data+0x14>
601a69b4:	ea40      	jalr	v0
601a69b6:	6f03      	li	a3,3
601a69b8:	6a00      	li	v0,0
601a69ba:	6443      	restore	24,ra
601a69bc:	e8a0      	jrc	ra
601a69be:	0000      	addiu	s0,sp,0
601a69c0:	6019      	bteqz	601a69f4 <stub_asqt_get_status+0x14>
601a69c2:	bfc2      	lwu	a2,8(a3)

601a69c4 <stub_asqt_get_volums>:
601a69c4:	64e3      	save	24,ra,s0
601a69c6:	6704      	move	s0,a0
601a69c8:	f501 6c00 	li	a0,3328
601a69cc:	67b0      	move	a1,s0
601a69ce:	6e04      	li	a2,4
601a69d0:	b203      	lw	v0,601a69dc <stub_asqt_get_volums+0x18>
601a69d2:	ea40      	jalr	v0
601a69d4:	6f03      	li	a3,3
601a69d6:	9840      	lw	v0,0(s0)
601a69d8:	6463      	restore	24,ra,s0
601a69da:	e8a0      	jrc	ra
601a69dc:	6019      	bteqz	601a6a10 <.L34+0xe>
601a69de:	bfc2      	lwu	a2,8(a3)

601a69e0 <stub_asqt_get_status>:
601a69e0:	64e3      	save	24,ra,s0
601a69e2:	6704      	move	s0,a0
601a69e4:	6cff      	li	a0,255
601a69e6:	4481      	addiu	a0,a0,1
601a69e8:	67b0      	move	a1,s0
601a69ea:	6e04      	li	a2,4
601a69ec:	b203      	lw	v0,601a69f8 <stub_asqt_get_status+0x18>
601a69ee:	ea40      	jalr	v0
601a69f0:	6f03      	li	a3,3
601a69f2:	9840      	lw	v0,0(s0)
601a69f4:	6463      	restore	24,ra,s0
601a69f6:	e8a0      	jrc	ra
601a69f8:	6019      	bteqz	601a6a2c <.L34+0x2a>
601a69fa:	bfc2      	lwu	a2,8(a3)

601a69fc <stub_asqt_get_parameter>:
601a69fc:	f008 64f4 	save	a0-a1,32,ra,s0-s1
601a6a00:	6724      	move	s1,a0

601a6a02 <.L34>:
601a6a02:	f200 6c00 	li	a0,512
601a6a06:	67b1      	move	a1,s1
601a6a08:	6e64      	li	a2,100
601a6a0a:	b218      	lw	v0,601a6a68 <.L34+0x66>
601a6a0c:	ea40      	jalr	v0
601a6a0e:	6f03      	li	a3,3
601a6a10:	6702      	move	s0,v0
601a6a12:	ea4f      	not	v0
601a6a14:	2210      	beqz	v0,601a6a36 <.L34+0x34>
601a6a16:	9209      	lw	v0,36(sp)
601a6a18:	2206      	beqz	v0,601a6a26 <.L34+0x24>
601a6a1a:	6782      	move	a0,v0
601a6a1c:	67b1      	move	a1,s1
601a6a1e:	6e64      	li	a2,100
601a6a20:	b213      	lw	v0,601a6a6c <.L34+0x6a>
601a6a22:	ea40      	jalr	v0
601a6a24:	6f00      	li	a3,0
601a6a26:	9957      	lw	v0,92(s1)
601a6a28:	b312      	lw	v1,601a6a70 <.L34+0x6e>
601a6a2a:	c340      	sb	v0,0(v1)
601a6a2c:	7064      	cmpi	s0,100
601a6a2e:	600f      	bteqz	601a6a4e <.L34+0x4c>
601a6a30:	6a01      	li	v0,1
601a6a32:	d958      	sw	v0,96(s1)
601a6a34:	100c      	b	601a6a4e <.L34+0x4c>
601a6a36:	6c32      	li	a0,50
601a6a38:	6d00      	li	a1,0
601a6a3a:	67c5      	move	a2,a1
601a6a3c:	b00e      	lw	s0,601a6a74 <.L34+0x72>
601a6a3e:	e840      	jalr	s0
601a6a40:	6f31      	li	a3,49
601a6a42:	0c05      	la	a0,601a6a54 <.L34+0x52>
601a6a44:	6d00      	li	a1,0
601a6a46:	67c5      	move	a2,a1
601a6a48:	e840      	jalr	s0
601a6a4a:	6f4b      	li	a3,75
601a6a4c:	17da      	b	601a6a02 <.L34>
601a6a4e:	6750      	move	v0,s0
601a6a50:	6474      	restore	32,ra,s0-s1
601a6a52:	e8a0      	jrc	ra
601a6a54:	7361      	cmpi	v1,97
601a6a56:	7471      	cmpi	a0,113
601a6a58:	672d      	move	s1,t5
601a6a5a:	7465      	cmpi	a0,101
601a6a5c:	702d      	cmpi	s0,45
601a6a5e:	7261      	cmpi	v0,97
601a6a60:	2d6d      	bnez	a1,601a6b3c <stub_asqt_send_result_ext+0x60>
601a6a62:	7265      	cmpi	v0,101
601a6a64:	0072      	addiu	s0,sp,456
601a6a66:	0000      	addiu	s0,sp,0
601a6a68:	6019      	bteqz	601a6a9c <stub_asqt_get_remote_voice+0x24>
601a6a6a:	bfc2      	lwu	a2,8(a3)
601a6a6c:	6005      	bteqz	601a6a78 <stub_asqt_get_remote_voice>
601a6a6e:	bfc2      	lwu	a2,8(a3)
601a6a70:	9684      	lw	a2,528(sp)
601a6a72:	9fc1      	lw	a2,4(a3)
601a6a74:	6009      	bteqz	601a6a88 <stub_asqt_get_remote_voice+0x10>
601a6a76:	bfc2      	lwu	a2,8(a3)

601a6a78 <stub_asqt_get_remote_voice>:
601a6a78:	f004 64f4 	save	a0,32,ra,s0-s1
601a6a7c:	6900      	li	s1,0
601a6a7e:	b00d      	lw	s0,601a6ab0 <stub_asqt_get_remote_voice+0x38>
601a6a80:	a842      	lhu	v0,4(s0)
601a6a82:	4a7f      	addiu	v0,127
601a6a84:	4a21      	addiu	v0,33
601a6a86:	a863      	lhu	v1,6(s0)
601a6a88:	eb42      	slt	v1,v0
601a6a8a:	610f      	btnez	601a6aaa <stub_asqt_get_remote_voice+0x32>
601a6a8c:	f300 6c00 	li	a0,768
601a6a90:	9508      	lw	a1,32(sp)
601a6a92:	6ea0      	li	a2,160
601a6a94:	b208      	lw	v0,601a6ab4 <stub_asqt_get_remote_voice+0x3c>
601a6a96:	ea40      	jalr	v0
601a6a98:	6f03      	li	a3,3
601a6a9a:	ea22      	slt	v0,s1
601a6a9c:	6106      	btnez	601a6aaa <stub_asqt_get_remote_voice+0x32>
601a6a9e:	6790      	move	a0,s0
601a6aa0:	9508      	lw	a1,32(sp)
601a6aa2:	b206      	lw	v0,601a6ab8 <stub_asqt_get_remote_voice+0x40>
601a6aa4:	ea40      	jalr	v0
601a6aa6:	6ea0      	li	a2,160
601a6aa8:	4121      	addiu	s1,s1,1
601a6aaa:	6751      	move	v0,s1
601a6aac:	6474      	restore	32,ra,s0-s1
601a6aae:	e8a0      	jrc	ra
601a6ab0:	9724      	lw	a3,144(sp)
601a6ab2:	9fc1      	lw	a2,4(a3)
601a6ab4:	6019      	bteqz	601a6ae8 <stub_asqt_send_result_ext+0xc>
601a6ab6:	bfc2      	lwu	a2,8(a3)
601a6ab8:	6801      	li	s0,1
601a6aba:	601a      	bteqz	601a6af0 <stub_asqt_send_result_ext+0x14>

601a6abc <stub_asqt_send_remote_phone_volce>:
601a6abc:	64c3      	save	24,ra
601a6abe:	67a4      	move	a1,a0
601a6ac0:	6a00      	li	v0,0
601a6ac2:	dc40      	sw	v0,0(a0)
601a6ac4:	dc41      	sw	v0,4(a0)
601a6ac6:	f600 6c00 	li	a0,1536
601a6aca:	6ea0      	li	a2,160
601a6acc:	b203      	lw	v0,601a6ad8 <stub_asqt_send_remote_phone_volce+0x1c>
601a6ace:	ea40      	jalr	v0
601a6ad0:	6f04      	li	a3,4
601a6ad2:	6443      	restore	24,ra
601a6ad4:	e8a0      	jrc	ra
601a6ad6:	0000      	addiu	s0,sp,0
601a6ad8:	6019      	bteqz	601a6b0c <stub_asqt_send_result_ext+0x30>
601a6ada:	bfc2      	lwu	a2,8(a3)

601a6adc <stub_asqt_send_result_ext>:
601a6adc:	f00c 64f5 	save	a0-a2,40,ra,s0-s1
601a6ae0:	6724      	move	s1,a0
601a6ae2:	6744      	move	v0,a0
601a6ae4:	4a08      	addiu	v0,8
601a6ae6:	d205      	sw	v0,20(sp)
601a6ae8:	f201 7500 	cmpi	a1,2560
601a6aec:	6103      	btnez	601a6af4 <stub_asqt_send_result_ext+0x18>
601a6aee:	6b01      	li	v1,1
601a6af0:	d304      	sw	v1,16(sp)
601a6af2:	1002      	b	601a6af8 <stub_asqt_send_result_ext+0x1c>
601a6af4:	6a04      	li	v0,4
601a6af6:	d204      	sw	v0,16(sp)
601a6af8:	9304      	lw	v1,16(sp)
601a6afa:	3268      	sll	v0,v1,2
601a6afc:	b313      	lw	v1,601a6b48 <stub_asqt_send_result_ext+0x6c>
601a6afe:	e269      	addu	v0,v1
601a6b00:	4a7c      	addiu	v0,124
601a6b02:	9a48      	lw	v0,32(v0)
601a6b04:	930c      	lw	v1,48(sp)
601a6b06:	ea63      	sltu	v0,v1
601a6b08:	601d      	bteqz	601a6b44 <stub_asqt_send_result_ext+0x68>
601a6b0a:	6800      	li	s0,0
601a6b0c:	d900      	sw	s0,0(s1)
601a6b0e:	d901      	sw	s0,4(s1)
601a6b10:	b20f      	lw	v0,601a6b4c <stub_asqt_send_result_ext+0x70>
601a6b12:	ea40      	jalr	v0
601a6b14:	9404      	lw	a0,16(sp)
601a6b16:	9405      	lw	a0,20(sp)
601a6b18:	67a2      	move	a1,v0
601a6b1a:	6eff      	li	a2,255
601a6b1c:	46c1      	addiu	a2,a2,1
601a6b1e:	b20d      	lw	v0,601a6b50 <stub_asqt_send_result_ext+0x74>
601a6b20:	ea40      	jalr	v0
601a6b22:	67f0      	move	a3,s0
601a6b24:	940b      	lw	a0,44(sp)
601a6b26:	67b1      	move	a1,s1
601a6b28:	6eff      	li	a2,255
601a6b2a:	46c1      	addiu	a2,a2,1
601a6b2c:	b20a      	lw	v0,601a6b54 <stub_asqt_send_result_ext+0x78>
601a6b2e:	ea40      	jalr	v0
601a6b30:	6f04      	li	a3,4
601a6b32:	9304      	lw	v1,16(sp)
601a6b34:	3268      	sll	v0,v1,2
601a6b36:	b305      	lw	v1,601a6b48 <stub_asqt_send_result_ext+0x6c>
601a6b38:	e269      	addu	v0,v1
601a6b3a:	4a7c      	addiu	v0,124
601a6b3c:	9a48      	lw	v0,32(v0)
601a6b3e:	930c      	lw	v1,48(sp)
601a6b40:	ea63      	sltu	v0,v1
601a6b42:	61e4      	btnez	601a6b0c <stub_asqt_send_result_ext+0x30>
601a6b44:	6475      	restore	40,ra,s0-s1
601a6b46:	e8a0      	jrc	ra
601a6b48:	9724      	lw	a3,144(sp)
601a6b4a:	9fc1      	lw	a2,4(a3)
601a6b4c:	68e5      	li	s0,229
601a6b4e:	601a      	bteqz	601a6b84 <stub_asqt_send_result_merger+0x2c>
601a6b50:	6005      	bteqz	601a6b5c <stub_asqt_send_result_merger+0x4>
601a6b52:	bfc2      	lwu	a2,8(a3)
601a6b54:	6019      	bteqz	601a6b88 <stub_asqt_send_result_merger+0x30>
601a6b56:	bfc2      	lwu	a2,8(a3)

601a6b58 <stub_asqt_send_result_merger>:
601a6b58:	f008 64f4 	save	a0-a1,32,ra,s0-s1
601a6b5c:	6724      	move	s1,a0
601a6b5e:	b221      	lw	v0,601a6be0 <stub_asqt_send_result_merger+0x88>
601a6b60:	4a7c      	addiu	v0,124
601a6b62:	9a4c      	lw	v0,48(v0)
601a6b64:	eaa3      	sltu	v0,a1
601a6b66:	6039      	bteqz	601a6bda <stub_asqt_send_result_merger+0x82>
601a6b68:	6a00      	li	v0,0
601a6b6a:	d940      	sw	v0,0(s1)
601a6b6c:	d941      	sw	v0,4(s1)
601a6b6e:	6711      	move	s0,s1
601a6b70:	4808      	addiu	s0,8
601a6b72:	b21d      	lw	v0,601a6be4 <stub_asqt_send_result_merger+0x8c>
601a6b74:	a240      	lbu	v0,0(v0)
601a6b76:	7201      	cmpi	v0,1
601a6b78:	6107      	btnez	601a6b88 <stub_asqt_send_result_merger+0x30>
601a6b7a:	b41a      	lw	a0,601a6be0 <stub_asqt_send_result_merger+0x88>
601a6b7c:	67b0      	move	a1,s0
601a6b7e:	6eff      	li	a2,255
601a6b80:	b31a      	lw	v1,601a6be8 <stub_asqt_send_result_merger+0x90>
601a6b82:	eb40      	jalr	v1
601a6b84:	46c1      	addiu	a2,a2,1
601a6b86:	1007      	b	601a6b96 <stub_asqt_send_result_merger+0x3e>
601a6b88:	6790      	move	a0,s0
601a6b8a:	6d00      	li	a1,0
601a6b8c:	6eff      	li	a2,255
601a6b8e:	46c1      	addiu	a2,a2,1
601a6b90:	b217      	lw	v0,601a6bec <stub_asqt_send_result_merger+0x94>
601a6b92:	ea40      	jalr	v0
601a6b94:	6f01      	li	a3,1
601a6b96:	f100 4800 	addiu	s0,256
601a6b9a:	b416      	lw	a0,601a6bf0 <stub_asqt_send_result_merger+0x98>
601a6b9c:	67b0      	move	a1,s0
601a6b9e:	6eff      	li	a2,255
601a6ba0:	b312      	lw	v1,601a6be8 <stub_asqt_send_result_merger+0x90>
601a6ba2:	eb40      	jalr	v1
601a6ba4:	46c1      	addiu	a2,a2,1
601a6ba6:	f100 4800 	addiu	s0,256
601a6baa:	b213      	lw	v0,601a6bf4 <stub_asqt_send_result_merger+0x9c>
601a6bac:	ea40      	jalr	v0
601a6bae:	6c04      	li	a0,4
601a6bb0:	6790      	move	a0,s0
601a6bb2:	67a2      	move	a1,v0
601a6bb4:	6eff      	li	a2,255
601a6bb6:	46c1      	addiu	a2,a2,1
601a6bb8:	b20d      	lw	v0,601a6bec <stub_asqt_send_result_merger+0x94>
601a6bba:	ea40      	jalr	v0
601a6bbc:	6f00      	li	a3,0
601a6bbe:	f401 6c00 	li	a0,3072
601a6bc2:	67b1      	move	a1,s1
601a6bc4:	f300 6e00 	li	a2,768
601a6bc8:	b20c      	lw	v0,601a6bf8 <stub_asqt_send_result_merger+0xa0>
601a6bca:	ea40      	jalr	v0
601a6bcc:	6f04      	li	a3,4
601a6bce:	b305      	lw	v1,601a6be0 <stub_asqt_send_result_merger+0x88>
601a6bd0:	f0a0 9b4c 	lw	v0,172(v1)
601a6bd4:	9309      	lw	v1,36(sp)
601a6bd6:	ea63      	sltu	v0,v1
601a6bd8:	61c7      	btnez	601a6b68 <stub_asqt_send_result_merger+0x10>
601a6bda:	6474      	restore	32,ra,s0-s1
601a6bdc:	e8a0      	jrc	ra
601a6bde:	0000      	addiu	s0,sp,0
601a6be0:	9724      	lw	a3,144(sp)
601a6be2:	9fc1      	lw	a2,4(a3)
601a6be4:	9684      	lw	a2,528(sp)
601a6be6:	9fc1      	lw	a2,4(a3)
601a6be8:	6881      	li	s0,129
601a6bea:	601a      	bteqz	601a6c20 <stub_asqt_send_result+0x24>
601a6bec:	6005      	bteqz	601a6bf8 <stub_asqt_send_result_merger+0xa0>
601a6bee:	bfc2      	lwu	a2,8(a3)
601a6bf0:	9808      	lw	s0,32(s0)
601a6bf2:	9fc1      	lw	a2,4(a3)
601a6bf4:	68e5      	li	s0,229
601a6bf6:	601a      	bteqz	601a6c2c <stub_asqt_send_result+0x30>
601a6bf8:	6019      	bteqz	601a6c2c <stub_asqt_send_result+0x30>
601a6bfa:	bfc2      	lwu	a2,8(a3)

601a6bfc <stub_asqt_send_result>:
601a6bfc:	f004 64f6 	save	a0,48,ra,s0-s1
601a6c00:	6a00      	li	v0,0
601a6c02:	dc40      	sw	v0,0(a0)
601a6c04:	930c      	lw	v1,48(sp)
601a6c06:	db41      	sw	v0,4(v1)
601a6c08:	b41d      	lw	a0,601a6c7c <stub_asqt_send_result+0x80>
601a6c0a:	67a3      	move	a1,v1
601a6c0c:	4d08      	addiu	a1,8
601a6c0e:	6eff      	li	a2,255
601a6c10:	b01c      	lw	s0,601a6c80 <stub_asqt_send_result+0x84>
601a6c12:	e840      	jalr	s0
601a6c14:	46c1      	addiu	a2,a2,1
601a6c16:	b41a      	lw	a0,601a6c7c <stub_asqt_send_result+0x80>
601a6c18:	4cf4      	addiu	a0,-12
601a6c1a:	950c      	lw	a1,48(sp)
601a6c1c:	f100 4d08 	addiu	a1,264
601a6c20:	6eff      	li	a2,255
601a6c22:	e840      	jalr	s0
601a6c24:	46c1      	addiu	a2,a2,1
601a6c26:	900c      	lw	s0,48(sp)
601a6c28:	f200 4800 	addiu	s0,512
601a6c2c:	0404      	addiu	a0,sp,16
601a6c2e:	40ac      	addiu	a1,s0,-4
601a6c30:	6e0c      	li	a2,12
601a6c32:	b115      	lw	s1,601a6c84 <stub_asqt_send_result+0x88>
601a6c34:	e940      	jalr	s1
601a6c36:	6f00      	li	a3,0
601a6c38:	6790      	move	a0,s0
601a6c3a:	0504      	addiu	a1,sp,16
601a6c3c:	6e0c      	li	a2,12
601a6c3e:	e940      	jalr	s1
601a6c40:	6f00      	li	a3,0
601a6c42:	480c      	addiu	s0,12
601a6c44:	b211      	lw	v0,601a6c88 <stub_asqt_send_result+0x8c>
601a6c46:	ea40      	jalr	v0
601a6c48:	6c05      	li	a0,5
601a6c4a:	6790      	move	a0,s0
601a6c4c:	67a2      	move	a1,v0
601a6c4e:	6eff      	li	a2,255
601a6c50:	46c1      	addiu	a2,a2,1
601a6c52:	e940      	jalr	s1
601a6c54:	6f00      	li	a3,0
601a6c56:	f100 4080 	addiu	a0,s0,256
601a6c5a:	b509      	lw	a1,601a6c7c <stub_asqt_send_result+0x80>
601a6c5c:	4d80      	addiu	a1,-128
601a6c5e:	4db4      	addiu	a1,-76
601a6c60:	6e2c      	li	a2,44
601a6c62:	e940      	jalr	s1
601a6c64:	6f00      	li	a3,0
601a6c66:	f400 6c00 	li	a0,1024
601a6c6a:	950c      	lw	a1,48(sp)
601a6c6c:	f320 6e10 	li	a2,816
601a6c70:	b207      	lw	v0,601a6c8c <stub_asqt_send_result+0x90>
601a6c72:	ea40      	jalr	v0
601a6c74:	6f04      	li	a3,4
601a6c76:	6476      	restore	48,ra,s0-s1
601a6c78:	e8a0      	jrc	ra
601a6c7a:	0000      	addiu	s0,sp,0
601a6c7c:	97fc      	lw	a3,1008(sp)
601a6c7e:	9fc1      	lw	a2,4(a3)
601a6c80:	6881      	li	s0,129
601a6c82:	601a      	bteqz	601a6cb8 <asqt_get_result_and_send+0x28>
601a6c84:	6005      	bteqz	601a6c90 <asqt_get_result_and_send>
601a6c86:	bfc2      	lwu	a2,8(a3)
601a6c88:	68e5      	li	s0,229
601a6c8a:	601a      	bteqz	601a6cc0 <asqt_get_result_and_send+0x30>
601a6c8c:	6019      	bteqz	601a6cc0 <asqt_get_result_and_send+0x30>
601a6c8e:	bfc2      	lwu	a2,8(a3)

601a6c90 <asqt_get_result_and_send>:
601a6c90:	f004 64f7 	save	a0,56,ra,s0-s1
601a6c94:	6c00      	li	a0,0
601a6c96:	0604      	addiu	a2,sp,16
601a6c98:	b24f      	lw	v0,601a6dd4 <asqt_get_result_and_send+0x144>
601a6c9a:	9aa0      	lw	a1,0(v0)
601a6c9c:	3388      	sll	v1,a0,2
601a6c9e:	e3cd      	addu	v1,a2
601a6ca0:	3290      	sll	v0,a0,4
601a6ca2:	e2a9      	addu	v0,a1
601a6ca4:	9a43      	lw	v0,12(v0)
601a6ca6:	db40      	sw	v0,0(v1)
601a6ca8:	4441      	addiu	v0,a0,1
601a6caa:	6782      	move	a0,v0
601a6cac:	ec11      	zeb	a0
601a6cae:	5c06      	sltiu	a0,6
601a6cb0:	61f5      	btnez	601a6c9c <asqt_get_result_and_send+0xc>
601a6cb2:	b24a      	lw	v0,601a6dd8 <asqt_get_result_and_send+0x148>
601a6cb4:	a240      	lbu	v0,0(v0)
601a6cb6:	7201      	cmpi	v0,1
601a6cb8:	612a      	btnez	601a6d0e <asqt_get_result_and_send+0x7e>
601a6cba:	b249      	lw	v0,601a6ddc <asqt_get_result_and_send+0x14c>
601a6cbc:	6702      	move	s0,v0
601a6cbe:	f080 9a7c 	lw	v1,156(v0)
601a6cc2:	9204      	lw	v0,16(sp)
601a6cc4:	eb43      	sltu	v1,v0
601a6cc6:	6023      	bteqz	601a6d0e <asqt_get_result_and_send+0x7e>
601a6cc8:	6730      	move	s1,s0
601a6cca:	b246      	lw	v0,601a6de0 <asqt_get_result_and_send+0x150>
601a6ccc:	a2b9      	lbu	a1,25(v0)
601a6cce:	2d14      	bnez	a1,601a6cf8 <asqt_get_result_and_send+0x68>
601a6cd0:	b345      	lw	v1,601a6de4 <asqt_get_result_and_send+0x154>
601a6cd2:	eb40      	jalr	v1
601a6cd4:	6790      	move	a0,s0
601a6cd6:	a842      	lhu	v0,4(s0)
601a6cd8:	5aa0      	sltiu	v0,160
601a6cda:	6113      	btnez	601a6d02 <asqt_get_result_and_send+0x72>
601a6cdc:	b040      	lw	s0,601a6ddc <asqt_get_result_and_send+0x14c>
601a6cde:	6790      	move	a0,s0
601a6ce0:	950e      	lw	a1,56(sp)
601a6ce2:	4d08      	addiu	a1,8
601a6ce4:	b241      	lw	v0,601a6de8 <asqt_get_result_and_send+0x158>
601a6ce6:	ea40      	jalr	v0
601a6ce8:	6ea0      	li	a2,160
601a6cea:	b241      	lw	v0,601a6dec <asqt_get_result_and_send+0x15c>
601a6cec:	ea40      	jalr	v0
601a6cee:	940e      	lw	a0,56(sp)
601a6cf0:	a842      	lhu	v0,4(s0)
601a6cf2:	5aa0      	sltiu	v0,160
601a6cf4:	60f4      	bteqz	601a6cde <asqt_get_result_and_send+0x4e>
601a6cf6:	1005      	b	601a6d02 <asqt_get_result_and_send+0x72>
601a6cf8:	b439      	lw	a0,601a6ddc <asqt_get_result_and_send+0x14c>
601a6cfa:	b33b      	lw	v1,601a6de4 <asqt_get_result_and_send+0x154>
601a6cfc:	eb40      	jalr	v1
601a6cfe:	6d00      	li	a1,0
601a6d00:	2206      	beqz	v0,601a6d0e <asqt_get_result_and_send+0x7e>
601a6d02:	6711      	move	s0,s1
601a6d04:	f080 995c 	lw	v0,156(s1)
601a6d08:	9304      	lw	v1,16(sp)
601a6d0a:	ea63      	sltu	v0,v1
601a6d0c:	61de      	btnez	601a6cca <asqt_get_result_and_send+0x3a>
601a6d0e:	b235      	lw	v0,601a6de0 <asqt_get_result_and_send+0x150>
601a6d10:	a259      	lbu	v0,25(v0)
601a6d12:	2a07      	bnez	v0,601a6d22 <asqt_get_result_and_send+0x92>
601a6d14:	940e      	lw	a0,56(sp)
601a6d16:	f201 6d00 	li	a1,2560
601a6d1a:	b236      	lw	v0,601a6df0 <asqt_get_result_and_send+0x160>
601a6d1c:	ea40      	jalr	v0
601a6d1e:	9605      	lw	a2,20(sp)
601a6d20:	1013      	b	601a6d48 <asqt_get_result_and_send+0xb8>
601a6d22:	b22f      	lw	v0,601a6ddc <asqt_get_result_and_send+0x14c>
601a6d24:	f0a0 9a60 	lw	v1,160(v0)
601a6d28:	9205      	lw	v0,20(sp)
601a6d2a:	eb43      	sltu	v1,v0
601a6d2c:	600d      	bteqz	601a6d48 <asqt_get_result_and_send+0xb8>
601a6d2e:	b032      	lw	s0,601a6df4 <asqt_get_result_and_send+0x164>
601a6d30:	f71f 402c 	addiu	s1,s0,-228
601a6d34:	6790      	move	a0,s0
601a6d36:	b22c      	lw	v0,601a6de4 <asqt_get_result_and_send+0x154>
601a6d38:	ea40      	jalr	v0
601a6d3a:	6d01      	li	a1,1
601a6d3c:	2205      	beqz	v0,601a6d48 <asqt_get_result_and_send+0xb8>
601a6d3e:	f0a0 9940 	lw	v0,160(s1)
601a6d42:	9305      	lw	v1,20(sp)
601a6d44:	ea63      	sltu	v0,v1
601a6d46:	61f6      	btnez	601a6d34 <asqt_get_result_and_send+0xa4>
601a6d48:	b225      	lw	v0,601a6ddc <asqt_get_result_and_send+0x14c>
601a6d4a:	f0a0 9a64 	lw	v1,164(v0)
601a6d4e:	9206      	lw	v0,24(sp)
601a6d50:	eb43      	sltu	v1,v0
601a6d52:	600d      	bteqz	601a6d6e <asqt_get_result_and_send+0xde>
601a6d54:	b029      	lw	s0,601a6df8 <asqt_get_result_and_send+0x168>
601a6d56:	f73f 4024 	addiu	s1,s0,-204
601a6d5a:	6790      	move	a0,s0
601a6d5c:	b222      	lw	v0,601a6de4 <asqt_get_result_and_send+0x154>
601a6d5e:	ea40      	jalr	v0
601a6d60:	6d02      	li	a1,2
601a6d62:	2205      	beqz	v0,601a6d6e <asqt_get_result_and_send+0xde>
601a6d64:	f0a0 9944 	lw	v0,164(s1)
601a6d68:	9306      	lw	v1,24(sp)
601a6d6a:	ea63      	sltu	v0,v1
601a6d6c:	61f6      	btnez	601a6d5a <asqt_get_result_and_send+0xca>
601a6d6e:	b21c      	lw	v0,601a6ddc <asqt_get_result_and_send+0x14c>
601a6d70:	f0a0 9a68 	lw	v1,168(v0)
601a6d74:	9207      	lw	v0,28(sp)
601a6d76:	eb43      	sltu	v1,v0
601a6d78:	600d      	bteqz	601a6d94 <asqt_get_result_and_send+0x104>
601a6d7a:	b021      	lw	s0,601a6dfc <asqt_get_result_and_send+0x16c>
601a6d7c:	f72f 4028 	addiu	s1,s0,-216
601a6d80:	6790      	move	a0,s0
601a6d82:	b219      	lw	v0,601a6de4 <asqt_get_result_and_send+0x154>
601a6d84:	ea40      	jalr	v0
601a6d86:	6d03      	li	a1,3
601a6d88:	2205      	beqz	v0,601a6d94 <asqt_get_result_and_send+0x104>
601a6d8a:	f0a0 9948 	lw	v0,168(s1)
601a6d8e:	9307      	lw	v1,28(sp)
601a6d90:	ea63      	sltu	v0,v1
601a6d92:	61f6      	btnez	601a6d80 <asqt_get_result_and_send+0xf0>
601a6d94:	b213      	lw	v0,601a6de0 <asqt_get_result_and_send+0x150>
601a6d96:	a259      	lbu	v0,25(v0)
601a6d98:	2a07      	bnez	v0,601a6da8 <asqt_get_result_and_send+0x118>
601a6d9a:	940e      	lw	a0,56(sp)
601a6d9c:	f301 6d00 	li	a1,2816
601a6da0:	b214      	lw	v0,601a6df0 <asqt_get_result_and_send+0x160>
601a6da2:	ea40      	jalr	v0
601a6da4:	9608      	lw	a2,32(sp)
601a6da6:	1004      	b	601a6db0 <asqt_get_result_and_send+0x120>
601a6da8:	940e      	lw	a0,56(sp)
601a6daa:	b216      	lw	v0,601a6e00 <asqt_get_result_and_send+0x170>
601a6dac:	ea40      	jalr	v0
601a6dae:	9508      	lw	a1,32(sp)
601a6db0:	b20b      	lw	v0,601a6ddc <asqt_get_result_and_send+0x14c>
601a6db2:	f0a0 9a70 	lw	v1,176(v0)
601a6db6:	9209      	lw	v0,36(sp)
601a6db8:	eb43      	sltu	v1,v0
601a6dba:	6009      	bteqz	601a6dce <asqt_get_result_and_send+0x13e>
601a6dbc:	b112      	lw	s1,601a6e04 <asqt_get_result_and_send+0x174>
601a6dbe:	b008      	lw	s0,601a6ddc <asqt_get_result_and_send+0x14c>
601a6dc0:	e940      	jalr	s1
601a6dc2:	940e      	lw	a0,56(sp)
601a6dc4:	f0a0 9850 	lw	v0,176(s0)
601a6dc8:	9309      	lw	v1,36(sp)
601a6dca:	ea63      	sltu	v0,v1
601a6dcc:	61f9      	btnez	601a6dc0 <asqt_get_result_and_send+0x130>
601a6dce:	6477      	restore	56,ra,s0-s1
601a6dd0:	e8a0      	jrc	ra
601a6dd2:	0000      	addiu	s0,sp,0
601a6dd4:	96a0      	lw	a2,640(sp)
601a6dd6:	9fc1      	lw	a2,4(a3)
601a6dd8:	9684      	lw	a2,528(sp)
601a6dda:	9fc1      	lw	a2,4(a3)
601a6ddc:	9724      	lw	a3,144(sp)
601a6dde:	9fc1      	lw	a2,4(a3)
601a6de0:	a094      	lbu	a0,20(s0)
601a6de2:	9fc1      	lw	a2,4(a3)
601a6de4:	6909      	li	s1,9
601a6de6:	601a      	bteqz	601a6e1c <real_call_mode_deal+0x14>
601a6de8:	6881      	li	s0,129
601a6dea:	601a      	bteqz	601a6e20 <real_call_mode_deal+0x18>
601a6dec:	6abd      	li	v0,189
601a6dee:	601a      	bteqz	601a6e24 <real_call_mode_deal+0x1c>
601a6df0:	6add      	li	v0,221
601a6df2:	601a      	bteqz	601a6e28 <real_call_mode_deal+0x20>
601a6df4:	9808      	lw	s0,32(s0)
601a6df6:	9fc1      	lw	a2,4(a3)
601a6df8:	97f0      	lw	a3,960(sp)
601a6dfa:	9fc1      	lw	a2,4(a3)
601a6dfc:	97fc      	lw	a3,1008(sp)
601a6dfe:	9fc1      	lw	a2,4(a3)
601a6e00:	6b59      	li	v1,89
601a6e02:	601a      	bteqz	601a6e38 <real_call_mode_deal+0x30>
601a6e04:	6bfd      	li	v1,253
601a6e06:	601a      	bteqz	601a6e3c <real_call_mode_deal+0x34>

601a6e08 <real_call_mode_deal>:
601a6e08:	64f5      	save	40,ra,s0-s1
601a6e0a:	ec11      	zeb	a0
601a6e0c:	d404      	sw	a0,16(sp)
601a6e0e:	ed11      	zeb	a1
601a6e10:	b22c      	lw	v0,601a6ec0 <real_call_mode_deal+0xb8>
601a6e12:	9a40      	lw	v0,0(v0)
601a6e14:	a200      	lbu	s0,0(v0)
601a6e16:	7501      	cmpi	a1,1
601a6e18:	6103      	btnez	601a6e20 <real_call_mode_deal+0x18>
601a6e1a:	6b00      	li	v1,0
601a6e1c:	b22a      	lw	v0,601a6ec4 <real_call_mode_deal+0xbc>
601a6e1e:	c260      	sb	v1,0(v0)
601a6e20:	b129      	lw	s1,601a6ec4 <real_call_mode_deal+0xbc>
601a6e22:	a140      	lbu	v0,0(s1)
601a6e24:	7205      	cmpi	v0,5
601a6e26:	6105      	btnez	601a6e32 <real_call_mode_deal+0x2a>
601a6e28:	b228      	lw	v0,601a6ec8 <real_call_mode_deal+0xc0>
601a6e2a:	ea40      	jalr	v0
601a6e2c:	6c07      	li	a0,7
601a6e2e:	6a00      	li	v0,0
601a6e30:	c140      	sb	v0,0(s1)
601a6e32:	b227      	lw	v0,601a6ecc <real_call_mode_deal+0xc4>
601a6e34:	a240      	lbu	v0,0(v0)
601a6e36:	ea0a      	cmp	v0,s0
601a6e38:	600a      	bteqz	601a6e4e <real_call_mode_deal+0x46>
601a6e3a:	7004      	cmpi	s0,4
601a6e3c:	6008      	bteqz	601a6e4e <real_call_mode_deal+0x46>
601a6e3e:	7204      	cmpi	v0,4
601a6e40:	6106      	btnez	601a6e4e <real_call_mode_deal+0x46>
601a6e42:	b222      	lw	v0,601a6ec8 <real_call_mode_deal+0xc0>
601a6e44:	ea40      	jalr	v0
601a6e46:	6c05      	li	a0,5
601a6e48:	6b05      	li	v1,5
601a6e4a:	b21f      	lw	v0,601a6ec4 <real_call_mode_deal+0xbc>
601a6e4c:	c260      	sb	v1,0(v0)
601a6e4e:	b220      	lw	v0,601a6ecc <real_call_mode_deal+0xc4>
601a6e50:	c200      	sb	s0,0(v0)
601a6e52:	9204      	lw	v0,16(sp)
601a6e54:	7205      	cmpi	v0,5
601a6e56:	612a      	btnez	601a6eac <real_call_mode_deal+0xa4>
601a6e58:	7004      	cmpi	s0,4
601a6e5a:	6128      	btnez	601a6eac <real_call_mode_deal+0xa4>
601a6e5c:	b21a      	lw	v0,601a6ec4 <real_call_mode_deal+0xbc>
601a6e5e:	a240      	lbu	v0,0(v0)
601a6e60:	2a21      	bnez	v0,601a6ea4 <real_call_mode_deal+0x9c>
601a6e62:	6702      	move	s0,v0
601a6e64:	b51b      	lw	a1,601a6ed0 <real_call_mode_deal+0xc8>
601a6e66:	b21c      	lw	v0,601a6ed4 <real_call_mode_deal+0xcc>
601a6e68:	9a80      	lw	a0,0(v0)
601a6e6a:	3208      	sll	v0,s0,2
601a6e6c:	e2a9      	addu	v0,a1
601a6e6e:	9c63      	lw	v1,12(a0)
601a6e70:	f080 da7c 	sw	v1,156(v0)
601a6e74:	4041      	addiu	v0,s0,1
601a6e76:	6702      	move	s0,v0
601a6e78:	e811      	zeb	s0
601a6e7a:	5806      	sltiu	s0,6
601a6e7c:	61f6      	btnez	601a6e6a <real_call_mode_deal+0x62>
601a6e7e:	6b01      	li	v1,1
601a6e80:	b211      	lw	v0,601a6ec4 <real_call_mode_deal+0xbc>
601a6e82:	c260      	sb	v1,0(v0)
601a6e84:	6800      	li	s0,0
601a6e86:	b214      	lw	v0,601a6ed4 <real_call_mode_deal+0xcc>
601a6e88:	9a60      	lw	v1,0(v0)
601a6e8a:	3208      	sll	v0,s0,2
601a6e8c:	e269      	addu	v0,v1
601a6e8e:	0c09      	la	a0,601a6eb0 <real_call_mode_deal+0xa8>
601a6e90:	9abc      	lw	a1,112(v0)
601a6e92:	6e02      	li	a2,2
601a6e94:	b211      	lw	v0,601a6ed8 <real_call_mode_deal+0xd0>
601a6e96:	ea40      	jalr	v0
601a6e98:	6f4b      	li	a3,75
601a6e9a:	4041      	addiu	v0,s0,1
601a6e9c:	6702      	move	s0,v0
601a6e9e:	e811      	zeb	s0
601a6ea0:	5806      	sltiu	s0,6
601a6ea2:	61f1      	btnez	601a6e86 <real_call_mode_deal+0x7e>
601a6ea4:	b20e      	lw	v0,601a6edc <real_call_mode_deal+0xd4>
601a6ea6:	9a80      	lw	a0,0(v0)
601a6ea8:	b20e      	lw	v0,601a6ee0 <real_call_mode_deal+0xd8>
601a6eaa:	eac0      	jalrc	v0
601a6eac:	6475      	restore	40,ra,s0-s1
601a6eae:	e8a0      	jrc	ra
601a6eb0:	493c      	addiu	s1,60
601a6eb2:	203e      	beqz	s0,601a6f30 <simu_call_mode_deal+0x4c>
601a6eb4:	7364      	cmpi	v1,100
601a6eb6:	2d70      	bnez	a1,601a6f98 <btcall_eg_stub_8k+0x8>
601a6eb8:	7270      	cmpi	v0,112
601a6eba:	6e69      	li	a2,105
601a6ebc:	3a74      	ld	v1,160(v0)
601a6ebe:	0000      	addiu	s0,sp,0
601a6ec0:	9680      	lw	a2,512(sp)
601a6ec2:	9fc1      	lw	a2,4(a3)
601a6ec4:	968d      	lw	a2,564(sp)
601a6ec6:	9fc1      	lw	a2,4(a3)
601a6ec8:	6b29      	li	v1,41
601a6eca:	6016      	bteqz	601a6ef8 <simu_call_mode_deal+0x14>
601a6ecc:	968c      	lw	a2,560(sp)
601a6ece:	9fc1      	lw	a2,4(a3)
601a6ed0:	9724      	lw	a3,144(sp)
601a6ed2:	9fc1      	lw	a2,4(a3)
601a6ed4:	96a0      	lw	a2,640(sp)
601a6ed6:	9fc1      	lw	a2,4(a3)
601a6ed8:	6009      	bteqz	601a6eec <simu_call_mode_deal+0x8>
601a6eda:	bfc2      	lwu	a2,8(a3)
601a6edc:	969c      	lw	a2,624(sp)
601a6ede:	9fc1      	lw	a2,4(a3)
601a6ee0:	6c91      	li	a0,145
601a6ee2:	601a      	bteqz	601a6f18 <simu_call_mode_deal+0x34>

601a6ee4 <simu_call_mode_deal>:
601a6ee4:	64f4      	save	32,ra,s0-s1
601a6ee6:	6704      	move	s0,a0
601a6ee8:	e811      	zeb	s0
601a6eea:	7003      	cmpi	s0,3
601a6eec:	610a      	btnez	601a6f02 <simu_call_mode_deal+0x1e>
601a6eee:	b116      	lw	s1,601a6f44 <simu_call_mode_deal+0x60>
601a6ef0:	a140      	lbu	v0,0(s1)
601a6ef2:	2a07      	bnez	v0,601a6f02 <simu_call_mode_deal+0x1e>
601a6ef4:	b215      	lw	v0,601a6f48 <simu_call_mode_deal+0x64>
601a6ef6:	ea40      	jalr	v0
601a6ef8:	6c05      	li	a0,5
601a6efa:	b215      	lw	v0,601a6f4c <simu_call_mode_deal+0x68>
601a6efc:	eac0      	jalrc	v0
601a6efe:	6a01      	li	v0,1
601a6f00:	c140      	sb	v0,0(s1)
601a6f02:	7005      	cmpi	s0,5
601a6f04:	611c      	btnez	601a6f3e <simu_call_mode_deal+0x5a>
601a6f06:	b010      	lw	s0,601a6f44 <simu_call_mode_deal+0x60>
601a6f08:	a040      	lbu	v0,0(s0)
601a6f0a:	7201      	cmpi	v0,1
601a6f0c:	6104      	btnez	601a6f16 <simu_call_mode_deal+0x32>
601a6f0e:	b211      	lw	v0,601a6f50 <simu_call_mode_deal+0x6c>
601a6f10:	eac0      	jalrc	v0
601a6f12:	6a00      	li	v0,0
601a6f14:	c040      	sb	v0,0(s0)
601a6f16:	b110      	lw	s1,601a6f54 <simu_call_mode_deal+0x70>
601a6f18:	b010      	lw	s0,601a6f58 <simu_call_mode_deal+0x74>
601a6f1a:	e840      	jalr	s0
601a6f1c:	9980      	lw	a0,0(s1)
601a6f1e:	7201      	cmpi	v0,1
601a6f20:	60fc      	bteqz	601a6f1a <simu_call_mode_deal+0x36>
601a6f22:	b40f      	lw	a0,601a6f5c <simu_call_mode_deal+0x78>
601a6f24:	ac42      	lhu	v0,4(a0)
601a6f26:	5a02      	sltiu	v0,2
601a6f28:	6103      	btnez	601a6f30 <simu_call_mode_deal+0x4c>
601a6f2a:	b20e      	lw	v0,601a6f60 <simu_call_mode_deal+0x7c>
601a6f2c:	eac0      	jalrc	v0
601a6f2e:	1003      	b	601a6f36 <simu_call_mode_deal+0x52>
601a6f30:	b206      	lw	v0,601a6f48 <simu_call_mode_deal+0x64>
601a6f32:	ea40      	jalr	v0
601a6f34:	6c05      	li	a0,5
601a6f36:	b208      	lw	v0,601a6f54 <simu_call_mode_deal+0x70>
601a6f38:	9a80      	lw	a0,0(v0)
601a6f3a:	b20b      	lw	v0,601a6f64 <simu_call_mode_deal+0x80>
601a6f3c:	eac0      	jalrc	v0
601a6f3e:	6474      	restore	32,ra,s0-s1
601a6f40:	e8a0      	jrc	ra
601a6f42:	0000      	addiu	s0,sp,0
601a6f44:	9587      	lw	a1,540(sp)
601a6f46:	9fc1      	lw	a2,4(a3)
601a6f48:	6b29      	li	v1,41
601a6f4a:	6016      	bteqz	601a6f78 <update_asqt_para+0x10>
601a6f4c:	6c19      	li	a0,25
601a6f4e:	6012      	bteqz	601a6f74 <update_asqt_para+0xc>
601a6f50:	6ce9      	li	a0,233
601a6f52:	6016      	bteqz	601a6f80 <update_asqt_para+0x18>
601a6f54:	969c      	lw	a2,624(sp)
601a6f56:	9fc1      	lw	a2,4(a3)
601a6f58:	6a79      	li	v0,121
601a6f5a:	601a      	bteqz	601a6f90 <btcall_eg_stub_8k>
601a6f5c:	9724      	lw	a3,144(sp)
601a6f5e:	9fc1      	lw	a2,4(a3)
601a6f60:	6941      	li	s1,65
601a6f62:	601a      	bteqz	601a6f98 <btcall_eg_stub_8k+0x8>
601a6f64:	6c91      	li	a0,145
601a6f66:	601a      	bteqz	601a6f9c <btcall_eg_stub_8k+0xc>

601a6f68 <update_asqt_para>:
601a6f68:	64c5      	save	40,ra
601a6f6a:	f102 6c00 	li	a0,4352
601a6f6e:	0504      	addiu	a1,sp,16
601a6f70:	b206      	lw	v0,601a6f88 <update_asqt_para+0x20>
601a6f72:	ea40      	jalr	v0
601a6f74:	6e0c      	li	a2,12
601a6f76:	9204      	lw	v0,16(sp)
601a6f78:	7201      	cmpi	v0,1
601a6f7a:	6103      	btnez	601a6f82 <update_asqt_para+0x1a>
601a6f7c:	b204      	lw	v0,601a6f8c <update_asqt_para+0x24>
601a6f7e:	ea40      	jalr	v0
601a6f80:	0404      	addiu	a0,sp,16
601a6f82:	6445      	restore	40,ra
601a6f84:	e8a0      	jrc	ra
601a6f86:	0000      	addiu	s0,sp,0
601a6f88:	69ad      	li	s1,173
601a6f8a:	601a      	bteqz	601a6fc0 <btcall_eg_stub_8k+0x30>
601a6f8c:	6f39      	li	a3,57
601a6f8e:	6016      	bteqz	601a6fbc <btcall_eg_stub_8k+0x2c>

601a6f90 <btcall_eg_stub_8k>:
601a6f90:	64f4      	save	32,ra,s0-s1
601a6f92:	6724      	move	s1,a0
601a6f94:	6705      	move	s0,a1
601a6f96:	6d00      	li	a1,0
601a6f98:	a040      	lbu	v0,0(s0)
601a6f9a:	7204      	cmpi	v0,4
601a6f9c:	6108      	btnez	601a6fae <btcall_eg_stub_8k+0x1e>
601a6f9e:	a440      	lbu	v0,0(a0)
601a6fa0:	7205      	cmpi	v0,5
601a6fa2:	6105      	btnez	601a6fae <btcall_eg_stub_8k+0x1e>
601a6fa4:	b20d      	lw	v0,601a6fd8 <btcall_eg_stub_8k+0x48>
601a6fa6:	a280      	lbu	a0,0(v0)
601a6fa8:	b20d      	lw	v0,601a6fdc <btcall_eg_stub_8k+0x4c>
601a6faa:	eac0      	jalrc	v0
601a6fac:	6d01      	li	a1,1
601a6fae:	a040      	lbu	v0,0(s0)
601a6fb0:	c140      	sb	v0,0(s1)
601a6fb2:	b20a      	lw	v0,601a6fd8 <btcall_eg_stub_8k+0x48>
601a6fb4:	a240      	lbu	v0,0(v0)
601a6fb6:	7201      	cmpi	v0,1
601a6fb8:	6104      	btnez	601a6fc2 <btcall_eg_stub_8k+0x32>
601a6fba:	b20a      	lw	v0,601a6fe0 <btcall_eg_stub_8k+0x50>
601a6fbc:	ea40      	jalr	v0
601a6fbe:	a080      	lbu	a0,0(s0)
601a6fc0:	1003      	b	601a6fc8 <btcall_eg_stub_8k+0x38>
601a6fc2:	b209      	lw	v0,601a6fe4 <btcall_eg_stub_8k+0x54>
601a6fc4:	ea40      	jalr	v0
601a6fc6:	a080      	lbu	a0,0(s0)
601a6fc8:	b208      	lw	v0,601a6fe8 <btcall_eg_stub_8k+0x58>
601a6fca:	a24e      	lbu	v0,14(v0)
601a6fcc:	7201      	cmpi	v0,1
601a6fce:	6102      	btnez	601a6fd4 <btcall_eg_stub_8k+0x44>
601a6fd0:	b207      	lw	v0,601a6fec <btcall_eg_stub_8k+0x5c>
601a6fd2:	eac0      	jalrc	v0
601a6fd4:	6474      	restore	32,ra,s0-s1
601a6fd6:	e8a0      	jrc	ra
601a6fd8:	9684      	lw	a2,528(sp)
601a6fda:	9fc1      	lw	a2,4(a3)
601a6fdc:	6ae5      	li	v0,229
601a6fde:	6016      	bteqz	601a700c <btcall_eg_stub_8k+0x7c>
601a6fe0:	6e09      	li	a2,9
601a6fe2:	601a      	bteqz	601a7018 <btcall_eg_stub_8k+0x88>
601a6fe4:	6ee5      	li	a2,229
601a6fe6:	601a      	bteqz	601a701c <btcall_eg_stub_8k+0x8c>
601a6fe8:	9650      	lw	a2,320(sp)
601a6fea:	9fc1      	lw	a2,4(a3)
601a6fec:	6f69      	li	a3,105
601a6fee:	601a      	bteqz	601a7024 <btcall_eg_stub_8k+0x94>
Disassembly of section BANK_CONTROL_1_7:

601e6800 <show_dat_16k>:
601e6800:	f00c 64f4 	save	a0-a2,32,ra,s0-s1
//dsp默认参数
const int dsp_init_set_16k[] = {16, 16000,  1, 64,  1, 6, 15,  1, 40, 40,  1, 15,  0, -60,  0, 256, 128, 3, 10, 4, 7, 0, 0, 3};

void show_dat_16k(char *s, uint32 *pd, uint32 len)
{
601e6804:	0c11      	la	a0,601e6848 <show_dat_16k+0x48>
    uint32 i;
    PRINT_INFO_INT("addr=", (uint32)pd);
601e6806:	6725      	move	s1,a1
601e6808:	6e02      	li	a2,2
601e680a:	b213      	lw	v0,601e6854 <show_dat_16k+0x54>
601e680c:	ea40      	jalr	v0
601e680e:	6f4b      	li	a3,75
601e6810:	6800      	li	s0,0
    for(i = 0; i < len; i++) {
601e6812:	920a      	lw	v0,40(sp)
601e6814:	2216      	beqz	v0,601e6842 <show_dat_16k+0x42>
601e6816:	3208      	sll	v0,s0,2
        libc_print(s, pd[i], 2);
601e6818:	e229      	addu	v0,s1
601e681a:	9408      	lw	a0,32(sp)
601e681c:	9aa0      	lw	a1,0(v0)
601e681e:	6e02      	li	a2,2
601e6820:	b30d      	lw	v1,601e6854 <show_dat_16k+0x54>
601e6822:	eb40      	jalr	v1
601e6824:	6f4b      	li	a3,75
601e6826:	6a07      	li	v0,7
        if((i & 0x07) == 0x07) {
601e6828:	ea0c      	and	v0,s0
601e682a:	7207      	cmpi	v0,7
601e682c:	6106      	btnez	601e683a <show_dat_16k+0x3a>
601e682e:	6c01      	li	a0,1
            sys_os_time_dly(1);
601e6830:	6d00      	li	a1,0
601e6832:	67c5      	move	a2,a1
601e6834:	b308      	lw	v1,601e6854 <show_dat_16k+0x54>
601e6836:	eb40      	jalr	v1
601e6838:	6f31      	li	a3,49
601e683a:	4001      	addiu	s0,s0,1
601e683c:	920a      	lw	v0,40(sp)
601e683e:	e843      	sltu	s0,v0
601e6840:	61ea      	btnez	601e6816 <show_dat_16k+0x16>
601e6842:	6474      	restore	32,ra,s0-s1
        }
    }
}
601e6844:	e8a0      	jrc	ra
601e6846:	0000      	addiu	s0,sp,0
601e6848:	493c      	addiu	s1,60
601e684a:	203e      	beqz	s0,601e68c8 <init_m4k_dsp_ctl_16k+0x60>
601e684c:	6461      	restore	8,ra,s0
601e684e:	7264      	cmpi	v0,100
601e6850:	003d      	addiu	s0,sp,244
601e6852:	0000      	addiu	s0,sp,0
601e6854:	6009      	bteqz	601e6868 <init_m4k_dsp_ctl_16k>
601e6856:	bfc2      	lwu	a2,8(a3)

601e6858 <init_asqt_fifo_16k>:
601e6858:	6a00      	li	v0,0

void init_asqt_fifo_16k(Fifo_ctl_t *p_fifo, uint32 size, uint8 *pdata)
{
    p_fifo->in_index = 0;
601e685a:	cc40      	sh	v0,0(a0)
601e685c:	cc41      	sh	v0,2(a0)
    p_fifo->out_index = 0;
601e685e:	cc42      	sh	v0,4(a0)
    p_fifo->data_size = 0;
601e6860:	cca3      	sh	a1,6(a0)
    p_fifo->total_size = size;
601e6862:	e820      	jr	ra
    p_fifo->data = pdata;
}
601e6864:	dcc2      	sw	a2,8(a0)
	...

601e6868 <init_m4k_dsp_ctl_16k>:
601e6868:	64b1      	save	8,s0-s1

void init_m4k_dsp_ctl_16k(uint8 flag)
{
601e686a:	ec11      	zeb	a0
601e686c:	242f      	beqz	a0,601e68cc <init_m4k_dsp_ctl_16k+0x64>
    uint32 M4k_addr = 0;

    if(flag != 0) {
601e686e:	b222      	lw	v0,601e68f4 <init_m4k_dsp_ctl_16k+0x8c>
        M4k_addr = (uint32)g_pAsqtRam_16k->share_buf;
601e6870:	9a40      	lw	v0,0(v0)
601e6872:	6722      	move	s1,v0
601e6874:	f401 4900 	addiu	s1,3072
601e6878:	b220      	lw	v0,601e68f8 <init_m4k_dsp_ctl_16k+0x90>

        g_asqt_parm_16k.m4k_addr[0] = M4k_addr;
601e687a:	651a      	move	t8,v0
601e687c:	f080 da3c 	sw	s1,156(v0)
601e6880:	b31f      	lw	v1,601e68fc <init_m4k_dsp_ctl_16k+0x94>
        g_p_share_mem_16k->Asqt_ctl[0].ready_flag = 0;
601e6882:	9b40      	lw	v0,0(v1)
601e6884:	6c00      	li	a0,0
601e6886:	da81      	sw	a0,4(v0)
601e6888:	9b40      	lw	v0,0(v1)
        g_p_share_mem_16k->Asqt_ctl[0].frame_cnt = 0;
601e688a:	da82      	sw	a0,8(v0)
601e688c:	9b40      	lw	v0,0(v1)
        g_p_share_mem_16k->Asqt_ctl[0].frame_size = 1024 * 3; //3K
601e688e:	f401 6800 	li	s0,3072
601e6892:	da03      	sw	s0,12(v0)
601e6894:	9ba0      	lw	a1,0(v1)
        g_p_share_mem_16k->Asqt_ctl[0].dsp_addr = (uint32 *)ADDR_M4K2DSP(M4k_addr +
601e6896:	6751      	move	v0,s1
601e6898:	4a08      	addiu	v0,8
601e689a:	b71a      	lw	a3,601e6900 <init_m4k_dsp_ctl_16k+0x98>
601e689c:	eaec      	and	v0,a3
601e689e:	3246      	srl	v0,1
601e68a0:	b619      	lw	a2,601e6904 <init_m4k_dsp_ctl_16k+0x9c>
601e68a2:	eacd      	or	v0,a2
601e68a4:	dd44      	sw	v0,16(a1)
601e68a6:	f401 4908 	addiu	s1,3080
                8); //M4k_addr不能大于0x9fc40000; 加8是为了在后面用stub传输是填stub头

        M4k_addr += 1024 * 3 + 8;
601e68aa:	6758      	move	v0,t8

        g_asqt_parm_16k.m4k_addr[1] = M4k_addr;
601e68ac:	f0a0 da20 	sw	s1,160(v0)
601e68b0:	9b40      	lw	v0,0(v1)
        g_p_share_mem_16k->Asqt_ctl[1].ready_flag = 0;
601e68b2:	da85      	sw	a0,20(v0)
601e68b4:	9b40      	lw	v0,0(v1)
        g_p_share_mem_16k->Asqt_ctl[1].frame_cnt = 0;
601e68b6:	da86      	sw	a0,24(v0)
601e68b8:	9b40      	lw	v0,0(v1)
        g_p_share_mem_16k->Asqt_ctl[1].frame_size = 1024 * 3; //3K
601e68ba:	da07      	sw	s0,28(v0)
601e68bc:	9b60      	lw	v1,0(v1)
        g_p_share_mem_16k->Asqt_ctl[1].dsp_addr = (uint32 *)ADDR_M4K2DSP(M4k_addr + 8); //M4k_addr不能大于0x9fc40000;
601e68be:	6751      	move	v0,s1
601e68c0:	4a08      	addiu	v0,8
601e68c2:	eaec      	and	v0,a3
601e68c4:	3246      	srl	v0,1
601e68c6:	eacd      	or	v0,a2
601e68c8:	db48      	sw	v0,32(v1)
601e68ca:	1012      	b	601e68f0 <init_m4k_dsp_ctl_16k+0x88>
601e68cc:	b40c      	lw	a0,601e68fc <init_m4k_dsp_ctl_16k+0x94>
    } else {
        g_p_share_mem_16k->Asqt_ctl[0].ready_flag = 0;
601e68ce:	9c40      	lw	v0,0(a0)
601e68d0:	6b00      	li	v1,0
601e68d2:	da61      	sw	v1,4(v0)
601e68d4:	9c40      	lw	v0,0(a0)
        g_p_share_mem_16k->Asqt_ctl[0].frame_cnt = 0;
601e68d6:	da62      	sw	v1,8(v0)
601e68d8:	9c40      	lw	v0,0(a0)
        g_p_share_mem_16k->Asqt_ctl[0].frame_size = 0;
601e68da:	da63      	sw	v1,12(v0)
601e68dc:	9c40      	lw	v0,0(a0)
        g_p_share_mem_16k->Asqt_ctl[0].dsp_addr = NULL;
601e68de:	da64      	sw	v1,16(v0)
601e68e0:	9c40      	lw	v0,0(a0)

        g_p_share_mem_16k->Asqt_ctl[1].ready_flag = 0;
601e68e2:	da65      	sw	v1,20(v0)
601e68e4:	9c40      	lw	v0,0(a0)
        g_p_share_mem_16k->Asqt_ctl[1].frame_cnt = 0;
601e68e6:	da66      	sw	v1,24(v0)
601e68e8:	9c40      	lw	v0,0(a0)
        g_p_share_mem_16k->Asqt_ctl[1].frame_size = 0;
601e68ea:	da67      	sw	v1,28(v0)
601e68ec:	9c40      	lw	v0,0(a0)
        g_p_share_mem_16k->Asqt_ctl[1].dsp_addr = NULL;
601e68ee:	da68      	sw	v1,32(v0)
601e68f0:	6431      	restore	8,s0-s1
    }
}
601e68f2:	e8a0      	jrc	ra
601e68f4:	9838      	lw	s1,96(s0)
601e68f6:	9fc1      	lw	a2,4(a3)
601e68f8:	9840      	lw	v0,0(s0)
601e68fa:	9fc1      	lw	a2,4(a3)
601e68fc:	983c      	lw	s1,112(s0)
601e68fe:	9fc1      	lw	a2,4(a3)
601e6900:	ffff      	daddiu	a3,sp,124
601e6902:	0001      	addiu	s0,sp,4
601e6904:	0000      	addiu	s0,sp,0
601e6906:	0003      	addiu	s0,sp,12

601e6908 <get_bt_air_len_16k>:
601e6908:	b205      	lw	v0,601e691c <get_bt_air_len_16k+0x14>

uint16 get_bt_air_len_16k(void)
{
    return g_p_bt_stack_cur_info->rmt_dev[g_p_bt_stack_cur_info->hfp_active_id].hfp_attr.air_pkt_len;
601e690a:	9a80      	lw	a0,0(v0)
601e690c:	f020 a475 	lbu	v1,53(a0)
601e6910:	3264      	sll	v0,v1,1
601e6912:	e269      	addu	v0,v1
601e6914:	324c      	sll	v0,3
601e6916:	e289      	addu	v0,a0
601e6918:	e820      	jr	ra
}
601e691a:	aa48      	lhu	v0,16(v0)
601e691c:	9674      	lw	a2,464(sp)
601e691e:	9fc1      	lw	a2,4(a3)

601e6920 <asqt_set_dsp_init_parm_16k>:
601e6920:	64f4      	save	32,ra,s0-s1

sv_configs_t *asqt_set_dsp_init_parm_16k(void)
{
601e6922:	6900      	li	s1,0
    static bool read_sv_prms_flag = FALSE;
    sv_configs_t *asqt_parm = NULL;
601e6924:	0c24      	la	a0,601e69b4 <asqt_set_dsp_init_parm_16k+0x94>
    PRINT_INFO_INT("set dsp parm 16k:", 0);
601e6926:	67b1      	move	a1,s1
601e6928:	6e02      	li	a2,2
601e692a:	b22d      	lw	v0,601e69dc <asqt_set_dsp_init_parm_16k+0xbc>
601e692c:	ea40      	jalr	v0
601e692e:	6f4b      	li	a3,75
601e6930:	b22c      	lw	v0,601e69e0 <asqt_set_dsp_init_parm_16k+0xc0>
    if(btcall_gl_var.stub_asqt_en != 0) { //ASQT调试模式
601e6932:	a24c      	lbu	v0,12(v0)
601e6934:	2216      	beqz	v0,601e6962 <asqt_set_dsp_init_parm_16k+0x42>
601e6936:	b22c      	lw	v0,601e69e4 <asqt_set_dsp_init_parm_16k+0xc4>
        reset_aec_asqt_16k();
601e6938:	eac0      	jalrc	v0
601e693a:	b22c      	lw	v0,601e69e8 <asqt_set_dsp_init_parm_16k+0xc8>
        if(g_asqt_parm_16k.AsqtCfg.analysis_mode == ASQT_CALL_MODE) {
601e693c:	4a7c      	addiu	v0,124
601e693e:	9a46      	lw	v0,24(v0)
601e6940:	7201      	cmpi	v0,1
601e6942:	6105      	btnez	601e694e <asqt_set_dsp_init_parm_16k+0x2e>
601e6944:	b22b      	lw	v0,601e69f0 <asqt_set_dsp_init_parm_16k+0xd0>
            g_dsp_init_parm.air_pkt_len = get_bt_air_len_16k();  //蓝牙空中报文包长度
601e6946:	eac0      	jalrc	v0
601e6948:	b329      	lw	v1,601e69e8 <asqt_set_dsp_init_parm_16k+0xc8>
601e694a:	db56      	sw	v0,88(v1)
601e694c:	1003      	b	601e6954 <asqt_set_dsp_init_parm_16k+0x34>
601e694e:	6b3c      	li	v1,60
        } else {
            g_dsp_init_parm.air_pkt_len = 0x3C;//调试模式下的模拟通话模式默认0x3C=60
601e6950:	b227      	lw	v0,601e69ec <asqt_set_dsp_init_parm_16k+0xcc>
601e6952:	da76      	sw	v1,88(v0)
601e6954:	0c1e      	la	a0,601e69cc <asqt_set_dsp_init_parm_16k+0xac>
        }
        show_dat_16k("Dsp:", (uint32 *)&g_dsp_init_parm, sizeof(sv_prms_t) / 4);
601e6956:	b526      	lw	a1,601e69ec <asqt_set_dsp_init_parm_16k+0xcc>
601e6958:	b227      	lw	v0,601e69f4 <asqt_set_dsp_init_parm_16k+0xd4>
601e695a:	ea40      	jalr	v0
601e695c:	6e20      	li	a2,32
601e695e:	b127      	lw	s1,601e69f8 <asqt_set_dsp_init_parm_16k+0xd8>
        asqt_parm = &g_asqt_parm_16k.AsqtCfg;
601e6960:	101c      	b	601e699a <asqt_set_dsp_init_parm_16k+0x7a>
601e6962:	b327      	lw	v1,601e69fc <asqt_set_dsp_init_parm_16k+0xdc>
    } else {
        if(read_sv_prms_flag != TRUE) {
601e6964:	a340      	lbu	v0,0(v1)
601e6966:	7201      	cmpi	v0,1
601e6968:	6018      	bteqz	601e699a <asqt_set_dsp_init_parm_16k+0x7a>
601e696a:	6a01      	li	v0,1
            read_sv_prms_flag = TRUE;
601e696c:	c340      	sb	v0,0(v1)
601e696e:	b420      	lw	a0,601e69ec <asqt_set_dsp_init_parm_16k+0xcc>
            //先设成默认的参数，再读config.txt的配置
            libc_memcpy((uint8 *)&g_dsp_init_parm, (uint8 *)dsp_init_set_16k, sizeof(dsp_init_set_16k));
601e6970:	b524      	lw	a1,601e6a00 <asqt_set_dsp_init_parm_16k+0xe0>
601e6972:	6e60      	li	a2,96
601e6974:	b224      	lw	v0,601e6a04 <asqt_set_dsp_init_parm_16k+0xe4>
601e6976:	ea40      	jalr	v0
601e6978:	6f00      	li	a3,0
601e697a:	b41d      	lw	a0,601e69ec <asqt_set_dsp_init_parm_16k+0xcc>
            actaec_init_sv_prms(&g_dsp_init_parm);
601e697c:	b223      	lw	v0,601e6a08 <asqt_set_dsp_init_parm_16k+0xe8>
601e697e:	ea40      	jalr	v0
601e6980:	6800      	li	s0,0
601e6982:	b21b      	lw	v0,601e69ec <asqt_set_dsp_init_parm_16k+0xcc>
            g_dsp_init_parm.pcm_mode = 0;//正常工作状态
601e6984:	da15      	sw	s0,84(v0)
601e6986:	b21b      	lw	v0,601e69f0 <asqt_set_dsp_init_parm_16k+0xd0>
            g_dsp_init_parm.air_pkt_len = get_bt_air_len_16k();  //蓝牙空中报文包长度
601e6988:	eac0      	jalrc	v0
601e698a:	b319      	lw	v1,601e69ec <asqt_set_dsp_init_parm_16k+0xcc>
601e698c:	db56      	sw	v0,88(v1)
601e698e:	db1f      	sw	s0,124(v1)
            g_dsp_init_parm.hfp_connect_mod = 0;
601e6990:	0c11      	la	a0,601e69d4 <asqt_set_dsp_init_parm_16k+0xb4>
            show_dat_16k("dsp:", (uint32 *)&g_dsp_init_parm, sizeof(sv_prms_t) / 4);
601e6992:	67a3      	move	a1,v1
601e6994:	b218      	lw	v0,601e69f4 <asqt_set_dsp_init_parm_16k+0xd4>
601e6996:	ea40      	jalr	v0
601e6998:	6e20      	li	a2,32
601e699a:	b21d      	lw	v0,601e6a0c <asqt_set_dsp_init_parm_16k+0xec>
        }

    }
    g_p_share_mem_16k->pAEC_parm = (sv_prms_t *)ADDR_M4K2DSP(&g_dsp_init_parm); //转成dsp直接访问
601e699c:	9a80      	lw	a0,0(v0)
601e699e:	b214      	lw	v0,601e69ec <asqt_set_dsp_init_parm_16k+0xcc>
601e69a0:	b31c      	lw	v1,601e6a10 <asqt_set_dsp_init_parm_16k+0xf0>
601e69a2:	ea6c      	and	v0,v1
601e69a4:	3246      	srl	v0,1
601e69a6:	b31c      	lw	v1,601e6a14 <asqt_set_dsp_init_parm_16k+0xf4>
601e69a8:	ea6d      	or	v0,v1
601e69aa:	dc40      	sw	v0,0(a0)
601e69ac:	6751      	move	v0,s1
//  //兼容2015-5-25之前的库
//  //要求init_m4k_dsp_ctl()先运行
//  if(g_p_share_mem->Asqt_ctl[5].dsp_addr == NULL)//因为它的偏移在96
//  {
//      g_p_share_mem->Asqt_ctl[5].dsp_addr = (uint32*)ADDR_M4K2DSP(&g_dsp_init_parm);//转成dsp直接访问
//  }
//  else
//  {
//      libc_memcpy((uint8*)ADDR_DSP2M4K(g_p_share_mem->Asqt_ctl[5].dsp_addr), (uint8*)&g_dsp_init_parm, sizeof(sv_prms_t));
//  }

    return asqt_parm;//return null表示用  config.txt的参数，否则用pc-tool的参数
}
601e69ae:	6474      	restore	32,ra,s0-s1
601e69b0:	e8a0      	jrc	ra
601e69b2:	0000      	addiu	s0,sp,0
601e69b4:	493c      	addiu	s1,60
601e69b6:	203e      	beqz	s0,601e6a34 <copy_dsp_aec_parm_16k+0x1c>
601e69b8:	6573      	move	s3,v1
601e69ba:	2074      	beqz	s0,601e6aa4 <copy_dsp_aec_parm_16k+0x8c>
601e69bc:	7364      	cmpi	v1,100
601e69be:	2070      	beqz	s0,601e6aa0 <copy_dsp_aec_parm_16k+0x88>
601e69c0:	6170      	btnez	601e6aa2 <copy_dsp_aec_parm_16k+0x8a>
601e69c2:	6d72      	li	a1,114
601e69c4:	3120      	sll	s1,8
601e69c6:	6b36      	li	v1,54
601e69c8:	003a      	addiu	s0,sp,232
601e69ca:	0000      	addiu	s0,sp,0
601e69cc:	7344      	cmpi	v1,68
601e69ce:	3a70      	ld	v1,128(v0)
601e69d0:	0000      	addiu	s0,sp,0
601e69d2:	0000      	addiu	s0,sp,0
601e69d4:	7364      	cmpi	v1,100
601e69d6:	3a70      	ld	v1,128(v0)
601e69d8:	0000      	addiu	s0,sp,0
601e69da:	0000      	addiu	s0,sp,0
601e69dc:	6009      	bteqz	601e69f0 <asqt_set_dsp_init_parm_16k+0xd0>
601e69de:	bfc2      	lwu	a2,8(a3)
601e69e0:	9650      	lw	a2,320(sp)
601e69e2:	9fc1      	lw	a2,4(a3)
601e69e4:	6ba9      	li	v1,169
601e69e6:	601e      	bteqz	601e6a24 <copy_dsp_aec_parm_16k+0xc>
601e69e8:	9840      	lw	v0,0(s0)
601e69ea:	9fc1      	lw	a2,4(a3)
601e69ec:	96a4      	lw	a2,656(sp)
601e69ee:	9fc1      	lw	a2,4(a3)
601e69f0:	6909      	li	s1,9
601e69f2:	601e      	bteqz	601e6a30 <copy_dsp_aec_parm_16k+0x18>
601e69f4:	6801      	li	s0,1
601e69f6:	601e      	bteqz	601e6a34 <copy_dsp_aec_parm_16k+0x1c>
601e69f8:	9878      	lw	v1,96(s0)
601e69fa:	9fc1      	lw	a2,4(a3)
601e69fc:	98ec      	lw	a3,48(s0)
601e69fe:	9fc1      	lw	a2,4(a3)
601e6a00:	6e78      	li	a2,120
601e6a02:	601e      	bteqz	601e6a40 <copy_dsp_aec_parm_16k+0x28>
601e6a04:	6005      	bteqz	601e6a10 <asqt_set_dsp_init_parm_16k+0xf0>
601e6a06:	bfc2      	lwu	a2,8(a3)
601e6a08:	6801      	li	s0,1
601e6a0a:	6006      	bteqz	601e6a18 <copy_dsp_aec_parm_16k>
601e6a0c:	983c      	lw	s1,112(s0)
601e6a0e:	9fc1      	lw	a2,4(a3)
601e6a10:	ffff      	daddiu	a3,sp,124
601e6a12:	0001      	addiu	s0,sp,4
601e6a14:	0000      	addiu	s0,sp,0
601e6a16:	0003      	addiu	s0,sp,12

601e6a18 <copy_dsp_aec_parm_16k>:
601e6a18:	64f4      	save	32,ra,s0-s1

void copy_dsp_aec_parm_16k(sv_prms_t *dsp_parm, sv_configs_t *in_parm)
{
601e6a1a:	6725      	move	s1,a1
601e6a1c:	6704      	move	s0,a0
    uint32 tmp_dac_weak;
    libc_memcpy((uint8 *)dsp_parm, (uint8 *)&in_parm->frame_size, (2 + 8 + 2 + 2) * 4);
601e6a1e:	4d24      	addiu	a1,36
601e6a20:	6e38      	li	a2,56
601e6a22:	b224      	lw	v0,601e6ab0 <copy_dsp_aec_parm_16k+0x98>
601e6a24:	ea40      	jalr	v0
601e6a26:	6f00      	li	a3,0
601e6a28:	6a40      	li	v0,64

//  dsp_parm->aec_prms.tail_length = (dsp_parm->aec_prms.tail_length + 8) & (~0x0F);//必须是16倍
//  if(dsp_parm->aec_prms.tail_length == 0)
//  {
//      if(g_app_info_state_all.stub_phy_type == STUB_PHY_USB)
//      {
    dsp_parm->aec_prms.tail_length = 64;
601e6a2a:	d843      	sw	v0,12(s0)
601e6a2c:	9957      	lw	v0,92(s1)
//      }
//      else
//      {
//          //耳机方案
//          dsp_parm->aec_prms.tail_length = 64;
//      }
//  }
    if(in_parm->analysis_mode == 0) {
601e6a2e:	2a03      	bnez	v0,601e6a36 <copy_dsp_aec_parm_16k+0x1e>
601e6a30:	4241      	addiu	v0,v0,1
        dsp_parm->pcm_mode = 1;
601e6a32:	d855      	sw	v0,84(s0)
601e6a34:	1002      	b	601e6a3a <copy_dsp_aec_parm_16k+0x22>
601e6a36:	6a00      	li	v0,0
    } else {
        dsp_parm->pcm_mode = 0;
601e6a38:	d855      	sw	v0,84(s0)
601e6a3a:	b21f      	lw	v0,601e6ab4 <copy_dsp_aec_parm_16k+0x9c>
    }
    dsp_parm->air_pkt_len = get_bt_air_len_16k();  //蓝牙空中报文包长度
601e6a3c:	eac0      	jalrc	v0
601e6a3e:	d856      	sw	v0,88(s0)
601e6a40:	9942      	lw	v0,8(s1)

    dsp_parm->speaker_channel = in_parm->speaker_channel;
601e6a42:	d857      	sw	v0,92(s0)
601e6a44:	9942      	lw	v0,8(s1)
    if(in_parm->speaker_channel != 3) { //双声道才衰减
601e6a46:	7203      	cmpi	v0,3
601e6a48:	6002      	bteqz	601e6a4e <copy_dsp_aec_parm_16k+0x36>
601e6a4a:	6b00      	li	v1,0
        tmp_dac_weak = 0;
601e6a4c:	1001      	b	601e6a50 <copy_dsp_aec_parm_16k+0x38>
601e6a4e:	9963      	lw	v1,12(s1)
    } else {
        tmp_dac_weak = in_parm->dac_weak;
601e6a50:	434f      	addiu	v0,v1,-1
    }
    if((tmp_dac_weak > 0) && (tmp_dac_weak < 19)) {
601e6a52:	5a12      	sltiu	v0,18
601e6a54:	6005      	bteqz	601e6a60 <copy_dsp_aec_parm_16k+0x48>
601e6a56:	6a02      	li	v0,2
        dsp_parm->speaker_channel_weak_sel = 2;//左
601e6a58:	d858      	sw	v0,96(s0)
601e6a5a:	9943      	lw	v0,12(s1)
        dsp_parm->speaker_channel_weak_val = in_parm->dac_weak;
601e6a5c:	d859      	sw	v0,100(s0)
601e6a5e:	100d      	b	601e6a7a <copy_dsp_aec_parm_16k+0x62>
601e6a60:	6743      	move	v0,v1
    } else if((tmp_dac_weak > 32) && (tmp_dac_weak < 51)) {
601e6a62:	4adf      	addiu	v0,-33
601e6a64:	5a12      	sltiu	v0,18
601e6a66:	6006      	bteqz	601e6a74 <copy_dsp_aec_parm_16k+0x5c>
601e6a68:	6a01      	li	v0,1
        dsp_parm->speaker_channel_weak_sel = 1;
601e6a6a:	d858      	sw	v0,96(s0)
601e6a6c:	9943      	lw	v0,12(s1)
        dsp_parm->speaker_channel_weak_val = in_parm->dac_weak - 33;
601e6a6e:	4adf      	addiu	v0,-33
601e6a70:	d859      	sw	v0,100(s0)
601e6a72:	1003      	b	601e6a7a <copy_dsp_aec_parm_16k+0x62>
601e6a74:	6a00      	li	v0,0
    } else {
        dsp_parm->speaker_channel_weak_sel = 0;
601e6a76:	d858      	sw	v0,96(s0)
601e6a78:	d859      	sw	v0,100(s0)
        dsp_parm->speaker_channel_weak_val = 0;
601e6a7a:	9958      	lw	v0,96(s1)
    }

    dsp_parm->hfp_mode = in_parm->hfp_mode;//0是双工1是单工
601e6a7c:	d85a      	sw	v0,104(s0)
601e6a7e:	9946      	lw	v0,24(s1)
    if(in_parm->pre_agc_level < 0xFF) {
601e6a80:	5aff      	sltiu	v0,255
601e6a82:	6004      	bteqz	601e6a8c <copy_dsp_aec_parm_16k+0x74>
601e6a84:	d85b      	sw	v0,108(s0)
        dsp_parm->pre_agc_level = in_parm->pre_agc_level;
601e6a86:	9948      	lw	v0,32(s1)
        dsp_parm->pos_agc_level = in_parm->pos_agc_level;
601e6a88:	d85c      	sw	v0,112(s0)
601e6a8a:	1006      	b	601e6a98 <copy_dsp_aec_parm_16k+0x80>
601e6a8c:	9946      	lw	v0,24(s1)
    } else {
        dsp_parm->pre_agc_level = in_parm->pre_agc_level + 30;
601e6a8e:	4a1e      	addiu	v0,30
601e6a90:	d85b      	sw	v0,108(s0)
601e6a92:	9948      	lw	v0,32(s1)
        dsp_parm->pos_agc_level = in_parm->pos_agc_level + 30;
601e6a94:	4a1e      	addiu	v0,30
601e6a96:	d85c      	sw	v0,112(s0)
601e6a98:	9945      	lw	v0,20(s1)
    }
    dsp_parm->agc_pre_en = in_parm->pre_agc_enable;
601e6a9a:	d85d      	sw	v0,116(s0)
601e6a9c:	9947      	lw	v0,28(s1)
    dsp_parm->agc_back_en = in_parm->pos_agc_enable;
601e6a9e:	d85e      	sw	v0,120(s0)
601e6aa0:	6a10      	li	v0,16

    dsp_parm->frame_size = 16;//固定
601e6aa2:	d840      	sw	v0,0(s0)
601e6aa4:	f667 4a10 	addiu	v0,15984
    dsp_parm->sampling_rate = 16000; //固定
601e6aa8:	d841      	sw	v0,4(s0)
601e6aaa:	6474      	restore	32,ra,s0-s1
}
601e6aac:	e8a0      	jrc	ra
601e6aae:	0000      	addiu	s0,sp,0
601e6ab0:	6005      	bteqz	601e6abc <reset_dsp_16k+0x4>
601e6ab2:	bfc2      	lwu	a2,8(a3)
601e6ab4:	6909      	li	s1,9
601e6ab6:	601e      	bteqz	601e6af4 <reset_dsp_16k+0x3c>

601e6ab8 <reset_dsp_16k>:
601e6ab8:	64c3      	save	24,ra

void reset_dsp_16k(uint8 call_mode)
{
601e6aba:	ec11      	zeb	a0
601e6abc:	7401      	cmpi	a0,1
    if(call_mode == ASQT_CALL_MODE) {
601e6abe:	610c      	btnez	601e6ad8 <reset_dsp_16k+0x20>
601e6ac0:	b20a      	lw	v0,601e6ae8 <reset_dsp_16k+0x30>
        if(g_p_btcall_info->status == BTCALL_HFP) { //正在通话才需要重启dsp
601e6ac2:	9a40      	lw	v0,0(v0)
601e6ac4:	a240      	lbu	v0,0(v0)
601e6ac6:	7204      	cmpi	v0,4
601e6ac8:	610d      	btnez	601e6ae4 <reset_dsp_16k+0x2c>
601e6aca:	b209      	lw	v0,601e6aec <reset_dsp_16k+0x34>
            btcalleg_free_hfp_mmm();
601e6acc:	eac0      	jalrc	v0
601e6ace:	b209      	lw	v0,601e6af0 <reset_dsp_16k+0x38>
            reset_aec_asqt_16k();
601e6ad0:	eac0      	jalrc	v0
601e6ad2:	b209      	lw	v0,601e6af4 <reset_dsp_16k+0x3c>
            btcalleg_load_hfp_mmm();
601e6ad4:	eac0      	jalrc	v0
601e6ad6:	1006      	b	601e6ae4 <reset_dsp_16k+0x2c>
601e6ad8:	b205      	lw	v0,601e6aec <reset_dsp_16k+0x34>
        }
    } else {
        btcalleg_free_hfp_mmm();
601e6ada:	eac0      	jalrc	v0
601e6adc:	b205      	lw	v0,601e6aec <reset_dsp_16k+0x34>
        reset_aec_asqt_16k();
601e6ade:	eac0      	jalrc	v0
601e6ae0:	b206      	lw	v0,601e6af4 <reset_dsp_16k+0x3c>
        deal_load_simu_mmm_16k();
601e6ae2:	eac0      	jalrc	v0
601e6ae4:	6443      	restore	24,ra
    }
}
601e6ae6:	e8a0      	jrc	ra
601e6ae8:	9680      	lw	a2,512(sp)
601e6aea:	9fc1      	lw	a2,4(a3)
601e6aec:	6c19      	li	a0,25
601e6aee:	6012      	bteqz	601e6b14 <stub_asqt_down_param_16k+0x18>
601e6af0:	6ba9      	li	v1,169
601e6af2:	601e      	bteqz	601e6b30 <stub_asqt_down_param_16k+0x34>
601e6af4:	6915      	li	s1,21
601e6af6:	6012      	bteqz	601e6b1c <stub_asqt_down_param_16k+0x20>
601e6af8:	6c69      	li	a0,105
601e6afa:	601e      	bteqz	601e6b38 <stub_asqt_down_param_16k+0x3c>

601e6afc <stub_asqt_down_param_16k>:
601e6afc:	64f5      	save	40,ra,s0-s1

//void stub_asqt_send_end_16k(uint8 cmd)
//{
//    stub_set_data(cmd << 8, g_pAsqtRam->stub_buf, 0);
//}

int stub_asqt_down_param_16k(uint32 *stub_buf)
{
601e6afe:	6724      	move	s1,a0
    int ret;
    uint32 i, sum;
    uint8 *p8;
    VM_SAVE_t *pParm = (VM_SAVE_t *)stub_buf;
601e6b00:	f101 6c00 	li	a0,2304
    sv_configs_t *pc_parms = (sv_configs_t *)(stub_buf + (sizeof(VM_SAVE_t) / 4 + 1));
    ret = stub_get_data(0x0900, (uint32 *)pc_parms, sizeof(sv_configs_t));
601e6b04:	f080 41ac 	addiu	a1,s1,140
601e6b08:	6e64      	li	a2,100
601e6b0a:	b224      	lw	v0,601e6b98 <stub_asqt_down_param_16k+0x9c>
601e6b0c:	ea40      	jalr	v0
601e6b0e:	6f03      	li	a3,3
601e6b10:	d204      	sw	v0,16(sp)
601e6b12:	5200      	slti	v0,0
    if(ret > -1) {
601e6b14:	612f      	btnez	601e6b74 <stub_asqt_down_param_16k+0x78>
601e6b16:	6791      	move	a0,s1
        copy_dsp_aec_parm_16k(&pParm->dsp_cfg, (sv_configs_t *)stub_buf);
601e6b18:	4c08      	addiu	a0,8
601e6b1a:	b221      	lw	v0,601e6b9c <stub_asqt_down_param_16k+0xa0>
601e6b1c:	ea40      	jalr	v0
601e6b1e:	67b1      	move	a1,s1
601e6b20:	6791      	move	a0,s1
        sys_vm_read(pParm, VM_ASQT_PARM_BASE, 8);
601e6b22:	b520      	lw	a1,601e6ba0 <stub_asqt_down_param_16k+0xa4>
601e6b24:	6e08      	li	a2,8
601e6b26:	b220      	lw	v0,601e6ba4 <stub_asqt_down_param_16k+0xa8>
601e6b28:	ea40      	jalr	v0
601e6b2a:	6f12      	li	a3,18
601e6b2c:	a940      	lhu	v0,0(s1)
        if(pParm->magic != 0xAA55) {
601e6b2e:	f255 7215 	cmpi	v0,43605
601e6b32:	6003      	bteqz	601e6b3a <stub_asqt_down_param_16k+0x3e>
601e6b34:	6a01      	li	v0,1
            pParm->times = 1;
601e6b36:	c941      	sh	v0,2(s1)
601e6b38:	1003      	b	601e6b40 <stub_asqt_down_param_16k+0x44>
601e6b3a:	a941      	lhu	v0,2(s1)
        } else {
            pParm->times++;
601e6b3c:	4241      	addiu	v0,v0,1
601e6b3e:	c941      	sh	v0,2(s1)
601e6b40:	f5aa 6a0b 	li	v0,21931
        }
        pParm->magic = 0xAA55;
601e6b44:	ea4b      	neg	v0
601e6b46:	c940      	sh	v0,0(s1)
601e6b48:	67b1      	move	a1,s1
        p8 = (uint8 *)&pParm->dsp_cfg;
601e6b4a:	4d08      	addiu	a1,8
601e6b4c:	6c00      	li	a0,0
        for(i = 0, sum = 0; i < sizeof(sv_prms_t); i++) {
601e6b4e:	6764      	move	v1,a0
601e6b50:	e569      	addu	v0,a1,v1
            sum += p8[i];
601e6b52:	a240      	lbu	v0,0(v0)
601e6b54:	e451      	addu	a0,v0
601e6b56:	4361      	addiu	v1,v1,1
601e6b58:	5b80      	sltiu	v1,128
601e6b5a:	61fa      	btnez	601e6b50 <stub_asqt_down_param_16k+0x54>
601e6b5c:	d981      	sw	a0,4(s1)
        }
        pParm->cs = sum;
601e6b5e:	6791      	move	a0,s1
        sys_vm_write(pParm, VM_ASQT_PARM_BASE, sizeof(VM_SAVE_t));
601e6b60:	b510      	lw	a1,601e6ba0 <stub_asqt_down_param_16k+0xa4>
601e6b62:	6e88      	li	a2,136
601e6b64:	b010      	lw	s0,601e6ba4 <stub_asqt_down_param_16k+0xa8>
601e6b66:	e840      	jalr	s0
601e6b68:	6f13      	li	a3,19
601e6b6a:	0c05      	la	a0,601e6b7c <stub_asqt_down_param_16k+0x80>
        PRINT_INFO_INT("btcall-write-vm-times:", pParm->times);
601e6b6c:	a9a1      	lhu	a1,2(s1)
601e6b6e:	6e02      	li	a2,2
601e6b70:	e840      	jalr	s0
601e6b72:	6f4b      	li	a3,75
601e6b74:	9204      	lw	v0,16(sp)
    }
    return ret;
}
601e6b76:	6475      	restore	40,ra,s0-s1
601e6b78:	e8a0      	jrc	ra
601e6b7a:	0000      	addiu	s0,sp,0
601e6b7c:	493c      	addiu	s1,60
601e6b7e:	203e      	beqz	s0,601e6bfc <reset_aec_asqt_16k+0x54>
601e6b80:	7462      	cmpi	a0,98
601e6b82:	6163      	btnez	601e6c4a <set_asrc_cpu_clk_16k+0x32>
601e6b84:	6c6c      	li	a0,108
601e6b86:	772d      	cmpi	a3,45
601e6b88:	6972      	li	s1,114
601e6b8a:	6574      	move	s3,a0
601e6b8c:	762d      	cmpi	a2,45
601e6b8e:	2d6d      	bnez	a1,601e6c6a <deal_load_simu_mmm_16k+0x2>
601e6b90:	6974      	li	s1,116
601e6b92:	656d      	move	t3,a1
601e6b94:	3a73      	ld	v1,152(v0)
601e6b96:	0000      	addiu	s0,sp,0
601e6b98:	6019      	bteqz	601e6bcc <reset_aec_asqt_16k+0x24>
601e6b9a:	bfc2      	lwu	a2,8(a3)
601e6b9c:	6a19      	li	v0,25
601e6b9e:	601e      	bteqz	601e6bdc <reset_aec_asqt_16k+0x34>
601e6ba0:	0000      	addiu	s0,sp,0
601e6ba2:	000f      	addiu	s0,sp,60
601e6ba4:	6009      	bteqz	601e6bb8 <reset_aec_asqt_16k+0x10>
601e6ba6:	bfc2      	lwu	a2,8(a3)

601e6ba8 <reset_aec_asqt_16k>:
601e6ba8:	64f4      	save	32,ra,s0-s1

int reset_aec_asqt_16k(void)
{
601e6baa:	b113      	lw	s1,601e6bf4 <reset_aec_asqt_16k+0x4c>
    init_asqt_fifo_16k(&g_asqt_parm_16k.ppv_fifo, sizeof(g_pAsqtRam_16k->ppv_data), (uint8 *)g_pAsqtRam_16k->ppv_data);
601e6bac:	b013      	lw	s0,601e6bf8 <reset_aec_asqt_16k+0x50>
601e6bae:	98c0      	lw	a2,0(s0)
601e6bb0:	f001 6d00 	li	a1,2048
601e6bb4:	f400 4e00 	addiu	a2,1024
601e6bb8:	b211      	lw	v0,601e6bfc <reset_aec_asqt_16k+0x54>
601e6bba:	ea40      	jalr	v0
601e6bbc:	6791      	move	a0,s1
601e6bbe:	9880      	lw	a0,0(s0)
    if(stub_asqt_get_parameter_16k(g_pAsqtRam_16k->rev_buf, &g_asqt_parm_16k.AsqtCfg) > -1) { //借用rev_buf
601e6bc0:	4938      	addiu	s1,56
601e6bc2:	f005 4c00 	addiu	a0,10240
601e6bc6:	b20f      	lw	v0,601e6c00 <reset_aec_asqt_16k+0x58>
601e6bc8:	ea40      	jalr	v0
601e6bca:	67b1      	move	a1,s1
601e6bcc:	5200      	slti	v0,0
601e6bce:	610b      	btnez	601e6be6 <reset_aec_asqt_16k+0x3e>
601e6bd0:	b00d      	lw	s0,601e6c04 <reset_aec_asqt_16k+0x5c>
        libc_memcpy((uint8 *)&g_dsp_init_parm, (uint8 *)dsp_init_set_16k, sizeof(dsp_init_set_16k));
601e6bd2:	6790      	move	a0,s0
601e6bd4:	b50d      	lw	a1,601e6c08 <reset_aec_asqt_16k+0x60>
601e6bd6:	6e60      	li	a2,96
601e6bd8:	b20d      	lw	v0,601e6c0c <reset_aec_asqt_16k+0x64>
601e6bda:	ea40      	jalr	v0
601e6bdc:	6f00      	li	a3,0
601e6bde:	6790      	move	a0,s0
        copy_dsp_aec_parm_16k(&g_dsp_init_parm, &g_asqt_parm_16k.AsqtCfg);
601e6be0:	b20c      	lw	v0,601e6c10 <reset_aec_asqt_16k+0x68>
601e6be2:	ea40      	jalr	v0
601e6be4:	67b1      	move	a1,s1
601e6be6:	b20c      	lw	v0,601e6c14 <reset_aec_asqt_16k+0x6c>
    }
    init_m4k_dsp_ctl_16k(1);//
601e6be8:	ea40      	jalr	v0
601e6bea:	6c01      	li	a0,1
601e6bec:	6a00      	li	v0,0
    return 0;
}
601e6bee:	6474      	restore	32,ra,s0-s1
601e6bf0:	e8a0      	jrc	ra
601e6bf2:	0000      	addiu	s0,sp,0
601e6bf4:	9840      	lw	v0,0(s0)
601e6bf6:	9fc1      	lw	a2,4(a3)
601e6bf8:	9838      	lw	s1,96(s0)
601e6bfa:	9fc1      	lw	a2,4(a3)
601e6bfc:	6859      	li	s0,89
601e6bfe:	601e      	bteqz	601e6c3c <set_asrc_cpu_clk_16k+0x24>
601e6c00:	69c5      	li	s1,197
601e6c02:	6022      	bteqz	601e6c48 <set_asrc_cpu_clk_16k+0x30>
601e6c04:	96a4      	lw	a2,656(sp)
601e6c06:	9fc1      	lw	a2,4(a3)
601e6c08:	6e78      	li	a2,120
601e6c0a:	601e      	bteqz	601e6c48 <set_asrc_cpu_clk_16k+0x30>
601e6c0c:	6005      	bteqz	601e6c18 <set_asrc_cpu_clk_16k>
601e6c0e:	bfc2      	lwu	a2,8(a3)
601e6c10:	6a19      	li	v0,25
601e6c12:	601e      	bteqz	601e6c50 <set_asrc_cpu_clk_16k+0x38>
601e6c14:	6869      	li	s0,105
601e6c16:	601e      	bteqz	601e6c54 <set_asrc_cpu_clk_16k+0x3c>

601e6c18 <set_asrc_cpu_clk_16k>:
601e6c18:	b411      	lw	a0,601e6c5c <set_asrc_cpu_clk_16k+0x44>

void set_asrc_cpu_clk_16k(void)
{
    act_writel(act_readl(PCM_CTL) & (~(3u << 4)), PCM_CTL); //关pcm
601e6c1a:	9c40      	lw	v0,0(a0)
601e6c1c:	6b31      	li	v1,49
601e6c1e:	eb6b      	neg	v1
601e6c20:	ea6c      	and	v0,v1
601e6c22:	dc40      	sw	v0,0(a0)
601e6c24:	b50f      	lw	a1,601e6c60 <set_asrc_cpu_clk_16k+0x48>
    act_writel(act_readl(ASRC_IN_CTL) & (~((1u << 1) | (3u << 11))), ASRC_IN_CTL);
601e6c26:	9d40      	lw	v0,0(a1)
601e6c28:	f003 6c03 	li	a0,6147
601e6c2c:	ec8b      	neg	a0
601e6c2e:	ea8c      	and	v0,a0
601e6c30:	dd40      	sw	v0,0(a1)
601e6c32:	b30d      	lw	v1,601e6c64 <set_asrc_cpu_clk_16k+0x4c>
    act_writel(act_readl(ASRC_OUT0_CTL) & (~((1u << 1) | (3u << 11))), ASRC_OUT0_CTL);
601e6c34:	9b40      	lw	v0,0(v1)
601e6c36:	ea8c      	and	v0,a0
601e6c38:	db40      	sw	v0,0(v1)
601e6c3a:	9d40      	lw	v0,0(a1)
    set_asrc_in_wclk_cpu();
601e6c3c:	f502 4c02 	addiu	a0,5378
601e6c40:	ea8c      	and	v0,a0
601e6c42:	dd40      	sw	v0,0(a1)
601e6c44:	9b40      	lw	v0,0(v1)
    set_asrc_out0_rclk_cpu();
601e6c46:	ea8c      	and	v0,a0
601e6c48:	db40      	sw	v0,0(v1)
601e6c4a:	9d40      	lw	v0,0(a1)
    act_writel(act_readl(ASRC_IN_CTL) | (1u << 1) | (3u << 11), ASRC_IN_CTL);
601e6c4c:	f303 4c03 	addiu	a0,6915
601e6c50:	ea8d      	or	v0,a0
601e6c52:	dd40      	sw	v0,0(a1)
601e6c54:	9b40      	lw	v0,0(v1)
    act_writel(act_readl(ASRC_OUT0_CTL) | (1u << 1) | (3u << 11), ASRC_OUT0_CTL);
601e6c56:	ea8d      	or	v0,a0
601e6c58:	db40      	sw	v0,0(v1)
601e6c5a:	e8a0      	jrc	ra
}
601e6c5c:	0000      	addiu	s0,sp,0
601e6c5e:	c017      	sb	s0,23(s0)
601e6c60:	0000      	addiu	s0,sp,0
601e6c62:	c016      	sb	s0,22(s0)
601e6c64:	0030      	addiu	s0,sp,192
601e6c66:	c016      	sb	s0,22(s0)

601e6c68 <deal_load_simu_mmm_16k>:
601e6c68:	64c3      	save	24,ra

void deal_load_simu_mmm_16k(void)
{
601e6c6a:	0c09      	la	a0,601e6c8c <deal_load_simu_mmm_16k+0x24>
    PRINT_INFO("SIMU");
601e6c6c:	6d00      	li	a1,0
601e6c6e:	67c5      	move	a2,a1
601e6c70:	b20a      	lw	v0,601e6c98 <deal_load_simu_mmm_16k+0x30>
601e6c72:	ea40      	jalr	v0
601e6c74:	6f4b      	li	a3,75
601e6c76:	b20a      	lw	v0,601e6c9c <deal_load_simu_mmm_16k+0x34>
    asqt_set_dsp_init_parm_16k();
601e6c78:	eac0      	jalrc	v0
601e6c7a:	b20a      	lw	v0,601e6ca0 <deal_load_simu_mmm_16k+0x38>
//  g_p_bt_stack_cur_info->msbc_code_flag = 1;     //模拟打电话，如果能跑到这儿，肯定 com_get_config_default(BTMANAGER_ENABLE_MSBC) == 1
    btcalleg_load_hfp_mmm();
601e6c7c:	eac0      	jalrc	v0
601e6c7e:	6b00      	li	v1,0
    btcall_gl_var.g_sco_deal_flag = 0;//避免主线程退出mmm
601e6c80:	b209      	lw	v0,601e6ca4 <deal_load_simu_mmm_16k+0x3c>
601e6c82:	c260      	sb	v1,0(v0)
601e6c84:	b209      	lw	v0,601e6ca8 <deal_load_simu_mmm_16k+0x40>
    set_asrc_cpu_clk_16k();
601e6c86:	eac0      	jalrc	v0
601e6c88:	6443      	restore	24,ra
}
601e6c8a:	e8a0      	jrc	ra
601e6c8c:	493c      	addiu	s1,60
601e6c8e:	203e      	beqz	s0,601e6d0c <.L50+0x52>
601e6c90:	4953      	addiu	s1,83
601e6c92:	554d      	slti	a1,77
601e6c94:	0000      	addiu	s0,sp,0
601e6c96:	0000      	addiu	s0,sp,0
601e6c98:	6009      	bteqz	601e6cac <stub_asqt_write_data_16k>
601e6c9a:	bfc2      	lwu	a2,8(a3)
601e6c9c:	6921      	li	s1,33
601e6c9e:	601e      	bteqz	601e6cdc <.L50+0x22>
601e6ca0:	6915      	li	s1,21
601e6ca2:	6012      	bteqz	601e6cc8 <.L50+0xe>
601e6ca4:	9650      	lw	a2,320(sp)
601e6ca6:	9fc1      	lw	a2,4(a3)
601e6ca8:	6c19      	li	a0,25
601e6caa:	601e      	bteqz	601e6ce8 <.L50+0x2e>

601e6cac <stub_asqt_write_data_16k>:
601e6cac:	64f6      	save	48,ra,s0-s1

uint32 stub_asqt_write_data_16k(uint16 cmd, void *buf, uint16 len)
{
601e6cae:	ec31      	zeh	a0
601e6cb0:	d404      	sw	a0,16(sp)
601e6cb2:	ee31      	zeh	a2
601e6cb4:	d605      	sw	a2,20(sp)
601e6cb6:	6900      	li	s1,0
    uint8 *buf_temp = NULL;
    uint8  ret_val = 0;
    uint8  err_cnt = 0;
601e6cb8:	d506      	sw	a1,24(sp)

601e6cba <.L50>:

    buf_temp = (uint8 *)buf;
601e6cba:	9404      	lw	a0,16(sp)

retry:

    ret_val = stub_set_data(cmd, buf_temp, len - STUB_COMMAND_HEAD_SIZE);
601e6cbc:	9506      	lw	a1,24(sp)
601e6cbe:	9205      	lw	v0,20(sp)
601e6cc0:	42c8      	addiu	a2,v0,-8
601e6cc2:	b215      	lw	v0,601e6d14 <.L50+0x5a>
601e6cc4:	ea40      	jalr	v0
601e6cc6:	6f04      	li	a3,4
601e6cc8:	6702      	move	s0,v0
601e6cca:	e811      	zeb	s0
601e6ccc:	200b      	beqz	s0,601e6ce4 <.L50+0x2a>
    if(0 != ret_val) {
601e6cce:	4141      	addiu	v0,s1,1
        err_cnt++;
601e6cd0:	6722      	move	s1,v0
601e6cd2:	e911      	zeb	s1
601e6cd4:	0c06      	la	a0,601e6cec <.L50+0x32>
        PRINT_ERR("---16Kstub asqt write data error---");
601e6cd6:	6d00      	li	a1,0
601e6cd8:	67c5      	move	a2,a1
601e6cda:	b210      	lw	v0,601e6d18 <.L50+0x5e>
601e6cdc:	ea40      	jalr	v0
601e6cde:	6f4b      	li	a3,75
601e6ce0:	590a      	sltiu	s1,10
        if(err_cnt < 10) {
601e6ce2:	61eb      	btnez	601e6cba <.L50>
601e6ce4:	6750      	move	v0,s0
            goto retry;
        }
    }

    return ret_val;
}
601e6ce6:	6476      	restore	48,ra,s0-s1
601e6ce8:	e8a0      	jrc	ra
601e6cea:	0000      	addiu	s0,sp,0
601e6cec:	453c      	daddiu	s1,a1,-4
601e6cee:	203e      	beqz	s0,601e6d6c <asqt_init_16k+0x50>
601e6cf0:	2d2d      	bnez	a1,601e6d4c <asqt_init_16k+0x30>
601e6cf2:	312d      	dsll	s1,3
601e6cf4:	4b36      	addiu	v1,54
601e6cf6:	7473      	cmpi	a0,115
601e6cf8:	6275      	sw	ra,468(sp)
601e6cfa:	6120      	btnez	601e6d3c <asqt_init_16k+0x20>
601e6cfc:	7173      	cmpi	s1,115
601e6cfe:	2074      	beqz	s0,601e6de8 <btcall_eg_asqt_deal_16k+0x58>
601e6d00:	7277      	cmpi	v0,119
601e6d02:	7469      	cmpi	a0,105
601e6d04:	2065      	beqz	s0,601e6dd0 <btcall_eg_asqt_deal_16k+0x40>
601e6d06:	6164      	btnez	601e6dd0 <btcall_eg_asqt_deal_16k+0x40>
601e6d08:	6174      	btnez	601e6df2 <btcall_eg_asqt_deal_16k+0x62>
601e6d0a:	6520      	move	at,s0
601e6d0c:	7272      	cmpi	v0,114
601e6d0e:	726f      	cmpi	v0,111
601e6d10:	2d2d      	bnez	a1,601e6d6c <asqt_init_16k+0x50>
601e6d12:	002d      	addiu	s0,sp,180
601e6d14:	6019      	bteqz	601e6d48 <asqt_init_16k+0x2c>
601e6d16:	bfc2      	lwu	a2,8(a3)
601e6d18:	6009      	bteqz	601e6d2c <asqt_init_16k+0x10>
601e6d1a:	bfc2      	lwu	a2,8(a3)

601e6d1c <asqt_init_16k>:
601e6d1c:	64fa      	save	80,ra,s0-s1

int8 asqt_init_16k(void)
{
601e6d1e:	6a55      	li	v0,85
    asqt_interface_config_t config_info;
    uint8 asqt_version[8];
    asqt_version[0] = 'U';
601e6d20:	677d      	move	v1,sp
601e6d22:	f020 c358 	sb	v0,56(v1)
601e6d26:	6a53      	li	v0,83
    asqt_version[1] = 'S';
601e6d28:	f020 c359 	sb	v0,57(v1)
601e6d2c:	6b32      	li	v1,50
    asqt_version[2] = '2';
601e6d2e:	679d      	move	a0,sp
601e6d30:	f020 c47a 	sb	v1,58(a0)
601e6d34:	6a38      	li	v0,56
    asqt_version[3] = '8';
601e6d36:	f020 c45b 	sb	v0,59(a0)
601e6d3a:	f020 c47c 	sb	v1,60(a0)
    asqt_version[4] = '2';
601e6d3e:	6a41      	li	v0,65
    asqt_version[5] = 'A';
601e6d40:	f020 c45d 	sb	v0,61(a0)
601e6d44:	6a31      	li	v0,49
    asqt_version[6] = '1';
601e6d46:	f020 c45e 	sb	v0,62(a0)
601e6d4a:	f020 c47f 	sb	v1,63(a0)
    asqt_version[7] = '2';
601e6d4e:	0404      	addiu	a0,sp,16

    libc_memset((uint8 *)&config_info, 0x00, sizeof(asqt_interface_config_t));
601e6d50:	6d00      	li	a1,0
601e6d52:	6e28      	li	a2,40
601e6d54:	b10d      	lw	s1,601e6d88 <asqt_init_16k+0x6c>
601e6d56:	e940      	jalr	s1
601e6d58:	6f01      	li	a3,1
601e6d5a:	6a14      	li	v0,20
    config_info.eq_point_nums = STUB_CMD_ASQT_MAQ_EQ_NUMS;
601e6d5c:	d206      	sw	v0,24(sp)
601e6d5e:	6800      	li	s0,0
    config_info.eq_version = 0;
601e6d60:	d007      	sw	s0,28(sp)
601e6d62:	0408      	addiu	a0,sp,32
    libc_memcpy(config_info.fw_version, asqt_version, sizeof(asqt_version));
601e6d64:	050e      	addiu	a1,sp,56
601e6d66:	6e08      	li	a2,8
601e6d68:	e940      	jalr	s1
601e6d6a:	67f0      	move	a3,s0
601e6d6c:	6a01      	li	v0,1
    config_info.reserve[0] = 1;
601e6d6e:	677d      	move	v1,sp
601e6d70:	f020 c348 	sb	v0,40(v1)
601e6d74:	f002 6c00 	li	a0,4096
    stub_asqt_write_data_16k(STUB_CMD_ASQT_WRITE_CONFIG_INFO, &config_info, sizeof(asqt_interface_config_t));
601e6d78:	0504      	addiu	a1,sp,16
601e6d7a:	b205      	lw	v0,601e6d8c <asqt_init_16k+0x70>
601e6d7c:	ea40      	jalr	v0
601e6d7e:	6e28      	li	a2,40
601e6d80:	6750      	move	v0,s0

    return 0;
}
601e6d82:	647a      	restore	80,ra,s0-s1
601e6d84:	e8a0      	jrc	ra
601e6d86:	0000      	addiu	s0,sp,0
601e6d88:	6005      	bteqz	601e6d94 <btcall_eg_asqt_deal_16k+0x4>
601e6d8a:	bfc2      	lwu	a2,8(a3)
601e6d8c:	6cad      	li	a0,173
601e6d8e:	601e      	bteqz	601e6dcc <btcall_eg_asqt_deal_16k+0x3c>

601e6d90 <btcall_eg_asqt_deal_16k>:
601e6d90:	64f5      	save	40,ra,s0-s1

void btcall_eg_asqt_deal_16k(uint8 stub_tool_type)
{
601e6d92:	ec11      	zeb	a0
601e6d94:	d404      	sw	a0,16(sp)
601e6d96:	b12a      	lw	s1,601e6e3c <btcall_eg_asqt_deal_16k+0xac>
    //g_agc_aec_shm_ptr指针在进入ap时已经传递给dsp
    g_p_share_mem_16k = (dsp_m4k_share_16k_t *)g_agc_aec_shm_ptr;
601e6d98:	b22a      	lw	v0,601e6e40 <btcall_eg_asqt_deal_16k+0xb0>
601e6d9a:	9a40      	lw	v0,0(v0)
601e6d9c:	d940      	sw	v0,0(s1)
601e6d9e:	b22a      	lw	v0,601e6e44 <btcall_eg_asqt_deal_16k+0xb4>
    g_stub_tools_type = stub_tool_type;
601e6da0:	677d      	move	v1,sp
601e6da2:	a370      	lbu	v1,16(v1)
601e6da4:	c260      	sb	v1,0(v0)
601e6da6:	b429      	lw	a0,601e6e48 <btcall_eg_asqt_deal_16k+0xb8>
    libc_memset((uint8 *)&g_asqt_parm_16k, 0x00, sizeof(g_asqt_parm_16k));
601e6da8:	6d00      	li	a1,0
601e6daa:	6ea8      	li	a2,168
601e6dac:	b028      	lw	s0,601e6e4c <btcall_eg_asqt_deal_16k+0xbc>
601e6dae:	e840      	jalr	s0
601e6db0:	6f01      	li	a3,1
601e6db2:	9980      	lw	a0,0(s1)
    libc_memset((uint8 *)g_p_share_mem_16k, 0x00, sizeof(dsp_m4k_share_16k_t));
601e6db4:	6d00      	li	a1,0
601e6db6:	6e30      	li	a2,48
601e6db8:	e840      	jalr	s0
601e6dba:	6f01      	li	a3,1
601e6dbc:	68ff      	li	s0,255

    asqt_peq_addr.band_peq1_addr = sys_malloc_large_data(STUB_CMD_ASQT_MAX_BYTES_EVERY_PACKAGE);
601e6dbe:	4001      	addiu	s0,s0,1
601e6dc0:	6790      	move	a0,s0
601e6dc2:	6d20      	li	a1,32
601e6dc4:	6e00      	li	a2,0
601e6dc6:	b124      	lw	s1,601e6e54 <btcall_eg_asqt_deal_16k+0xc4>
601e6dc8:	e940      	jalr	s1
601e6dca:	6f16      	li	a3,22
601e6dcc:	b321      	lw	v1,601e6e50 <btcall_eg_asqt_deal_16k+0xc0>
601e6dce:	db40      	sw	v0,0(v1)
601e6dd0:	6790      	move	a0,s0
    if(NULL == asqt_peq_addr.band_peq1_addr) {
//      PRINT_INFO("asqt peq1 malloc fail");
    }

    asqt_peq_addr.band_peq2_addr = sys_malloc_large_data(STUB_CMD_ASQT_MAX_BYTES_EVERY_PACKAGE);
601e6dd2:	6d20      	li	a1,32
601e6dd4:	6e00      	li	a2,0
601e6dd6:	e940      	jalr	s1
601e6dd8:	6f16      	li	a3,22
601e6dda:	b31e      	lw	v1,601e6e50 <btcall_eg_asqt_deal_16k+0xc0>
601e6ddc:	db41      	sw	v0,4(v1)
601e6dde:	b21f      	lw	v0,601e6e58 <btcall_eg_asqt_deal_16k+0xc8>
    if(NULL == asqt_peq_addr.band_peq2_addr) {
//      PRINT_INFO("asqt peq2 malloc fail");
    }

    init_m4k_dsp_ctl_16k(0);
601e6de0:	ea40      	jalr	v0
601e6de2:	6c00      	li	a0,0
601e6de4:	9204      	lw	v0,16(sp)

    if(stub_tool_type == STUB_PC_TOOL_ASQT_MODE) {
601e6de6:	7201      	cmpi	v0,1
601e6de8:	6117      	btnez	601e6e18 <btcall_eg_asqt_deal_16k+0x88>
601e6dea:	0c0d      	la	a0,601e6e1c <btcall_eg_asqt_deal_16k+0x8c>
        PRINT_INFO("---start stub asqt 16k---");
601e6dec:	6d00      	li	a1,0
601e6dee:	67c5      	move	a2,a1
601e6df0:	e940      	jalr	s1
601e6df2:	6f4b      	li	a3,75
601e6df4:	b21a      	lw	v0,601e6e5c <btcall_eg_asqt_deal_16k+0xcc>
        asqt_init_16k();
601e6df6:	eac0      	jalrc	v0
601e6df8:	6b01      	li	v1,1

        btcall_gl_var.stub_asqt_en = 1;
601e6dfa:	b21a      	lw	v0,601e6e60 <btcall_eg_asqt_deal_16k+0xd0>
601e6dfc:	c26c      	sb	v1,12(v0)
601e6dfe:	b31b      	lw	v1,601e6e68 <btcall_eg_asqt_deal_16k+0xd8>
        g_pAsqtRam_16k = (sv_asqt_ram_16k_t *)&g_btcall_asqt_test_buf;
601e6e00:	b219      	lw	v0,601e6e64 <btcall_eg_asqt_deal_16k+0xd4>
601e6e02:	da60      	sw	v1,0(v0)
601e6e04:	b01a      	lw	s0,601e6e6c <btcall_eg_asqt_deal_16k+0xdc>
        if(g_stub_task_timer_id_16k == -1) { //定时器只初化一次
601e6e06:	8040      	lb	v0,0(s0)
601e6e08:	ea4f      	not	v0
601e6e0a:	2a06      	bnez	v0,601e6e18 <btcall_eg_asqt_deal_16k+0x88>
601e6e0c:	6c01      	li	a0,1
            g_stub_task_timer_id_16k = set_app_timer(APP_TIMER_ATTRB_CONTROL, 10, task_timer10ms_16k);
601e6e0e:	b619      	lw	a2,601e6e70 <btcall_eg_asqt_deal_16k+0xe0>
601e6e10:	b219      	lw	v0,601e6e74 <btcall_eg_asqt_deal_16k+0xe4>
601e6e12:	ea40      	jalr	v0
601e6e14:	6d0a      	li	a1,10
601e6e16:	c040      	sb	v0,0(s0)
601e6e18:	6475      	restore	40,ra,s0-s1
        }
//      PRINT_INFO_INT("asqt start.(0x2A00>)=",sizeof(sv_asqt_ram_t));
    }
}
601e6e1a:	e8a0      	jrc	ra
601e6e1c:	493c      	addiu	s1,60
601e6e1e:	203e      	beqz	s0,601e6e9c <dsp_init_set_16k+0x24>
601e6e20:	2d2d      	bnez	a1,601e6e7c <dsp_init_set_16k+0x4>
601e6e22:	732d      	cmpi	v1,45
601e6e24:	6174      	btnez	601e6f0e <dsp_init_set_16k+0x96>
601e6e26:	7472      	cmpi	a0,114
601e6e28:	7320      	cmpi	v1,32
601e6e2a:	7574      	cmpi	a1,116
601e6e2c:	2062      	beqz	s0,601e6ef2 <dsp_init_set_16k+0x7a>
601e6e2e:	7361      	cmpi	v1,97
601e6e30:	7471      	cmpi	a0,113
601e6e32:	3120      	sll	s1,8
601e6e34:	6b36      	li	v1,54
601e6e36:	2d2d      	bnez	a1,601e6e92 <dsp_init_set_16k+0x1a>
601e6e38:	002d      	addiu	s0,sp,180
601e6e3a:	0000      	addiu	s0,sp,0
601e6e3c:	983c      	lw	s1,112(s0)
601e6e3e:	9fc1      	lw	a2,4(a3)
601e6e40:	95a8      	lw	a1,672(sp)
601e6e42:	9fc1      	lw	a2,4(a3)
601e6e44:	95ac      	lw	a1,688(sp)
601e6e46:	9fc1      	lw	a2,4(a3)
601e6e48:	9840      	lw	v0,0(s0)
601e6e4a:	9fc1      	lw	a2,4(a3)
601e6e4c:	6005      	bteqz	601e6e58 <btcall_eg_asqt_deal_16k+0xc8>
601e6e4e:	bfc2      	lwu	a2,8(a3)
601e6e50:	9818      	lw	s0,96(s0)
601e6e52:	9fc1      	lw	a2,4(a3)
601e6e54:	6009      	bteqz	601e6e68 <btcall_eg_asqt_deal_16k+0xd8>
601e6e56:	bfc2      	lwu	a2,8(a3)
601e6e58:	6869      	li	s0,105
601e6e5a:	601e      	bteqz	601e6e98 <dsp_init_set_16k+0x20>
601e6e5c:	6d1d      	li	a1,29
601e6e5e:	601e      	bteqz	601e6e9c <dsp_init_set_16k+0x24>
601e6e60:	9650      	lw	a2,320(sp)
601e6e62:	9fc1      	lw	a2,4(a3)
601e6e64:	9838      	lw	s1,96(s0)
601e6e66:	9fc1      	lw	a2,4(a3)
601e6e68:	6c00      	li	a0,0
601e6e6a:	bfc1      	lwu	a2,4(a3)
601e6e6c:	9588      	lw	a1,544(sp)
601e6e6e:	9fc1      	lw	a2,4(a3)
601e6e70:	6621      	0x6621
601e6e72:	bfc2      	lwu	a2,8(a3)
601e6e74:	6afd      	li	v0,253
601e6e76:	60a2      	bteqz	601e6dbc <btcall_eg_asqt_deal_16k+0x2c>

601e6e78 <dsp_init_set_16k>:
601e6e78:	0010 0000 3e80 0000 0001 0000 0040 0000     .....>......@...
601e6e88:	0001 0000 0006 0000 000f 0000 0001 0000     ................
601e6e98:	0028 0000 0028 0000 0001 0000 000f 0000     (...(...........
601e6ea8:	0000 0000 ffc4 ffff 0000 0000 0100 0000     ................
601e6eb8:	0080 0000 0003 0000 000a 0000 0004 0000     ................
601e6ec8:	0007 0000 0000 0000 0000 0000 0003 0000     ................
Disassembly of section BANK_CONTROL_1_8:

60226800 <stub_asqt_send_end_16k>:
60226800:	64c3      	save	24,ra
60226802:	ec11      	zeb	a0
60226804:	3480      	sll	a0,8
60226806:	b205      	lw	v0,60226818 <stub_asqt_send_end_16k+0x18>
60226808:	9aa0      	lw	a1,0(v0)
6022680a:	6e00      	li	a2,0
6022680c:	b204      	lw	v0,6022681c <stub_asqt_send_end_16k+0x1c>
6022680e:	ea40      	jalr	v0
60226810:	6f04      	li	a3,4
60226812:	6443      	restore	24,ra
60226814:	e8a0      	jrc	ra
60226816:	0000      	addiu	s0,sp,0
60226818:	9838      	lw	s1,96(s0)
6022681a:	9fc1      	lw	a2,4(a3)
6022681c:	6019      	bteqz	60226850 <asqt_write_fifo_16k+0x30>
6022681e:	bfc2      	lwu	a2,8(a3)

60226820 <asqt_write_fifo_16k>:
60226820:	f00c 64f5 	save	a0-a2,40,ra,s0-s1
60226824:	6704      	move	s0,a0
60226826:	6c00      	li	a0,0
60226828:	67a4      	move	a1,a0
6022682a:	67c4      	move	a2,a0
6022682c:	b21c      	lw	v0,6022689c <asqt_write_fifo_16k+0x7c>
6022682e:	ea40      	jalr	v0
60226830:	6f2d      	li	a3,45
60226832:	d204      	sw	v0,16(sp)
60226834:	6900      	li	s1,0
60226836:	920c      	lw	v0,48(sp)
60226838:	2222      	beqz	v0,6022687e <asqt_write_fifo_16k+0x5e>
6022683a:	a842      	lhu	v0,4(s0)
6022683c:	a863      	lhu	v1,6(s0)
6022683e:	ea6e      	xor	v0,v1
60226840:	2a07      	bnez	v0,60226850 <asqt_write_fifo_16k+0x30>
60226842:	0c14      	la	a0,60226890 <asqt_write_fifo_16k+0x70>
60226844:	67b0      	move	a1,s0
60226846:	6e02      	li	a2,2
60226848:	b215      	lw	v0,6022689c <asqt_write_fifo_16k+0x7c>
6022684a:	ea40      	jalr	v0
6022684c:	6f41      	li	a3,65
6022684e:	1017      	b	6022687e <asqt_write_fifo_16k+0x5e>
60226850:	a860      	lhu	v1,0(s0)
60226852:	9842      	lw	v0,8(s0)
60226854:	e269      	addu	v0,v1
60226856:	940b      	lw	a0,44(sp)
60226858:	e42d      	addu	v1,a0,s1
6022685a:	a360      	lbu	v1,0(v1)
6022685c:	c260      	sb	v1,0(v0)
6022685e:	a842      	lhu	v0,4(s0)
60226860:	4241      	addiu	v0,v0,1
60226862:	c842      	sh	v0,4(s0)
60226864:	a840      	lhu	v0,0(s0)
60226866:	4241      	addiu	v0,v0,1
60226868:	c840      	sh	v0,0(s0)
6022686a:	a860      	lhu	v1,0(s0)
6022686c:	a843      	lhu	v0,6(s0)
6022686e:	eb43      	sltu	v1,v0
60226870:	6102      	btnez	60226876 <asqt_write_fifo_16k+0x56>
60226872:	6a00      	li	v0,0
60226874:	c840      	sh	v0,0(s0)
60226876:	4121      	addiu	s1,s1,1
60226878:	920c      	lw	v0,48(sp)
6022687a:	e943      	sltu	s1,v0
6022687c:	61de      	btnez	6022683a <asqt_write_fifo_16k+0x1a>
6022687e:	9404      	lw	a0,16(sp)
60226880:	6d00      	li	a1,0
60226882:	67c5      	move	a2,a1
60226884:	b206      	lw	v0,6022689c <asqt_write_fifo_16k+0x7c>
60226886:	ea40      	jalr	v0
60226888:	6f2e      	li	a3,46
6022688a:	6751      	move	v0,s1
6022688c:	6475      	restore	40,ra,s0-s1
6022688e:	e8a0      	jrc	ra
60226890:	7361      	cmpi	v1,97
60226892:	7471      	cmpi	a0,113
60226894:	662d      	0x662d
60226896:	6c75      	li	a0,117
60226898:	2e6c      	bnez	a2,60226972 <send_data_to_asrc_16k+0x6e>
6022689a:	0026      	addiu	s0,sp,152
6022689c:	6009      	bteqz	602268b0 <asqt_read_fifo_16k+0x10>
6022689e:	bfc2      	lwu	a2,8(a3)

602268a0 <asqt_read_fifo_16k>:
602268a0:	f00c 64f4 	save	a0-a2,32,ra,s0-s1
602268a4:	6704      	move	s0,a0
602268a6:	6c00      	li	a0,0
602268a8:	67a4      	move	a1,a0
602268aa:	67c4      	move	a2,a0
602268ac:	b215      	lw	v0,60226900 <asqt_read_fifo_16k+0x60>
602268ae:	ea40      	jalr	v0
602268b0:	6f2d      	li	a3,45
602268b2:	67a2      	move	a1,v0
602268b4:	6900      	li	s1,0
602268b6:	920a      	lw	v0,40(sp)
602268b8:	2219      	beqz	v0,602268ec <asqt_read_fifo_16k+0x4c>
602268ba:	a842      	lhu	v0,4(s0)
602268bc:	2217      	beqz	v0,602268ec <asqt_read_fifo_16k+0x4c>
602268be:	9209      	lw	v0,36(sp)
602268c0:	e231      	addu	a0,v0,s1
602268c2:	a861      	lhu	v1,2(s0)
602268c4:	9842      	lw	v0,8(s0)
602268c6:	e269      	addu	v0,v1
602268c8:	a240      	lbu	v0,0(v0)
602268ca:	c440      	sb	v0,0(a0)
602268cc:	a842      	lhu	v0,4(s0)
602268ce:	424f      	addiu	v0,v0,-1
602268d0:	c842      	sh	v0,4(s0)
602268d2:	a841      	lhu	v0,2(s0)
602268d4:	4241      	addiu	v0,v0,1
602268d6:	c841      	sh	v0,2(s0)
602268d8:	a861      	lhu	v1,2(s0)
602268da:	a843      	lhu	v0,6(s0)
602268dc:	eb43      	sltu	v1,v0
602268de:	6102      	btnez	602268e4 <asqt_read_fifo_16k+0x44>
602268e0:	6a00      	li	v0,0
602268e2:	c841      	sh	v0,2(s0)
602268e4:	4121      	addiu	s1,s1,1
602268e6:	920a      	lw	v0,40(sp)
602268e8:	e943      	sltu	s1,v0
602268ea:	61e7      	btnez	602268ba <asqt_read_fifo_16k+0x1a>
602268ec:	6785      	move	a0,a1
602268ee:	6d00      	li	a1,0
602268f0:	67c5      	move	a2,a1
602268f2:	b204      	lw	v0,60226900 <asqt_read_fifo_16k+0x60>
602268f4:	ea40      	jalr	v0
602268f6:	6f2e      	li	a3,46
602268f8:	6751      	move	v0,s1
602268fa:	6474      	restore	32,ra,s0-s1
602268fc:	e8a0      	jrc	ra
602268fe:	0000      	addiu	s0,sp,0
60226900:	6009      	bteqz	60226914 <send_data_to_asrc_16k+0x10>
60226902:	bfc2      	lwu	a2,8(a3)

60226904 <send_data_to_asrc_16k>:
60226904:	f004 64f4 	save	a0,32,ra,s0-s1
60226908:	6900      	li	s1,0
6022690a:	6711      	move	s0,s1
6022690c:	4001      	addiu	s0,s0,1
6022690e:	b315      	lw	v1,60226960 <send_data_to_asrc_16k+0x5c>
60226910:	a340      	lbu	v0,0(v1)
60226912:	2a09      	bnez	v0,60226926 <send_data_to_asrc_16k+0x22>
60226914:	9408      	lw	a0,32(sp)
60226916:	b514      	lw	a1,60226964 <send_data_to_asrc_16k+0x60>
60226918:	b214      	lw	v0,60226968 <send_data_to_asrc_16k+0x64>
6022691a:	ea40      	jalr	v0
6022691c:	6e02      	li	a2,2
6022691e:	221c      	beqz	v0,60226958 <send_data_to_asrc_16k+0x54>
60226920:	6a01      	li	v0,1
60226922:	b310      	lw	v1,60226960 <send_data_to_asrc_16k+0x5c>
60226924:	c340      	sb	v0,0(v1)
60226926:	b212      	lw	v0,6022696c <send_data_to_asrc_16k+0x68>
60226928:	9a40      	lw	v0,0(v0)
6022692a:	6b04      	li	v1,4
6022692c:	ea6c      	and	v0,v1
6022692e:	220e      	beqz	v0,6022694c <send_data_to_asrc_16k+0x48>
60226930:	b30d      	lw	v1,60226964 <send_data_to_asrc_16k+0x60>
60226932:	9b40      	lw	v0,0(v1)
60226934:	3240      	sll	v0,8
60226936:	3240      	sll	v0,8
60226938:	db40      	sw	v0,0(v1)
6022693a:	b30e      	lw	v1,60226970 <send_data_to_asrc_16k+0x6c>
6022693c:	db40      	sw	v0,0(v1)
6022693e:	db40      	sw	v0,0(v1)
60226940:	6a00      	li	v0,0
60226942:	b308      	lw	v1,60226960 <send_data_to_asrc_16k+0x5c>
60226944:	c340      	sb	v0,0(v1)
60226946:	6800      	li	s0,0
60226948:	4121      	addiu	s1,s1,1
6022694a:	1003      	b	60226952 <send_data_to_asrc_16k+0x4e>
6022694c:	f3e0 5809 	sltiu	s0,1001
60226950:	6003      	bteqz	60226958 <send_data_to_asrc_16k+0x54>
60226952:	f280 5900 	sltiu	s1,640
60226956:	61da      	btnez	6022690c <send_data_to_asrc_16k+0x8>
60226958:	6751      	move	v0,s1
6022695a:	6474      	restore	32,ra,s0-s1
6022695c:	e8a0      	jrc	ra
6022695e:	0000      	addiu	s0,sp,0
60226960:	9821      	lw	s1,4(s0)
60226962:	9fc1      	lw	a2,4(a3)
60226964:	9824      	lw	s1,16(s0)
60226966:	9fc1      	lw	a2,4(a3)
60226968:	68a1      	li	s0,161
6022696a:	6022      	bteqz	602269b0 <stub_asqt_get_status_16k+0x8>
6022696c:	0020      	addiu	s0,sp,128
6022696e:	c016      	sb	s0,22(s0)
60226970:	0014      	addiu	s0,sp,80
60226972:	c016      	sb	s0,22(s0)

60226974 <stub_asqt_read_data_16k>:
60226974:	64c3      	save	24,ra
60226976:	ec31      	zeh	a0
60226978:	ee31      	zeh	a2
6022697a:	b204      	lw	v0,60226988 <stub_asqt_read_data_16k+0x14>
6022697c:	ea40      	jalr	v0
6022697e:	6f03      	li	a3,3
60226980:	6a00      	li	v0,0
60226982:	6443      	restore	24,ra
60226984:	e8a0      	jrc	ra
60226986:	0000      	addiu	s0,sp,0
60226988:	6019      	bteqz	602269bc <stub_asqt_get_status_16k+0x14>
6022698a:	bfc2      	lwu	a2,8(a3)

6022698c <stub_asqt_get_volums_16k>:
6022698c:	64e3      	save	24,ra,s0
6022698e:	6704      	move	s0,a0
60226990:	f501 6c00 	li	a0,3328
60226994:	67b0      	move	a1,s0
60226996:	6e04      	li	a2,4
60226998:	b203      	lw	v0,602269a4 <stub_asqt_get_volums_16k+0x18>
6022699a:	ea40      	jalr	v0
6022699c:	6f03      	li	a3,3
6022699e:	9840      	lw	v0,0(s0)
602269a0:	6463      	restore	24,ra,s0
602269a2:	e8a0      	jrc	ra
602269a4:	6019      	bteqz	602269d8 <.L32+0xe>
602269a6:	bfc2      	lwu	a2,8(a3)

602269a8 <stub_asqt_get_status_16k>:
602269a8:	64e3      	save	24,ra,s0
602269aa:	6704      	move	s0,a0
602269ac:	6cff      	li	a0,255
602269ae:	4481      	addiu	a0,a0,1
602269b0:	67b0      	move	a1,s0
602269b2:	6e04      	li	a2,4
602269b4:	b203      	lw	v0,602269c0 <stub_asqt_get_status_16k+0x18>
602269b6:	ea40      	jalr	v0
602269b8:	6f03      	li	a3,3
602269ba:	9840      	lw	v0,0(s0)
602269bc:	6463      	restore	24,ra,s0
602269be:	e8a0      	jrc	ra
602269c0:	6019      	bteqz	602269f4 <.L32+0x2a>
602269c2:	bfc2      	lwu	a2,8(a3)

602269c4 <stub_asqt_get_parameter_16k>:
602269c4:	f008 64f4 	save	a0-a1,32,ra,s0-s1
602269c8:	6724      	move	s1,a0

602269ca <.L32>:
602269ca:	f200 6c00 	li	a0,512
602269ce:	67b1      	move	a1,s1
602269d0:	6e64      	li	a2,100
602269d2:	b218      	lw	v0,60226a30 <.L32+0x66>
602269d4:	ea40      	jalr	v0
602269d6:	6f03      	li	a3,3
602269d8:	6702      	move	s0,v0
602269da:	ea4f      	not	v0
602269dc:	2210      	beqz	v0,602269fe <.L32+0x34>
602269de:	9209      	lw	v0,36(sp)
602269e0:	2206      	beqz	v0,602269ee <.L32+0x24>
602269e2:	6782      	move	a0,v0
602269e4:	67b1      	move	a1,s1
602269e6:	6e64      	li	a2,100
602269e8:	b213      	lw	v0,60226a34 <.L32+0x6a>
602269ea:	ea40      	jalr	v0
602269ec:	6f00      	li	a3,0
602269ee:	9957      	lw	v0,92(s1)
602269f0:	b312      	lw	v1,60226a38 <.L32+0x6e>
602269f2:	c340      	sb	v0,0(v1)
602269f4:	7064      	cmpi	s0,100
602269f6:	600f      	bteqz	60226a16 <.L32+0x4c>
602269f8:	6a01      	li	v0,1
602269fa:	d958      	sw	v0,96(s1)
602269fc:	100c      	b	60226a16 <.L32+0x4c>
602269fe:	6c32      	li	a0,50
60226a00:	6d00      	li	a1,0
60226a02:	67c5      	move	a2,a1
60226a04:	b00e      	lw	s0,60226a3c <.L32+0x72>
60226a06:	e840      	jalr	s0
60226a08:	6f31      	li	a3,49
60226a0a:	0c05      	la	a0,60226a1c <.L32+0x52>
60226a0c:	6d00      	li	a1,0
60226a0e:	67c5      	move	a2,a1
60226a10:	e840      	jalr	s0
60226a12:	6f4b      	li	a3,75
60226a14:	17da      	b	602269ca <.L32>
60226a16:	6750      	move	v0,s0
60226a18:	6474      	restore	32,ra,s0-s1
60226a1a:	e8a0      	jrc	ra
60226a1c:	7361      	cmpi	v1,97
60226a1e:	7471      	cmpi	a0,113
60226a20:	672d      	move	s1,t5
60226a22:	7465      	cmpi	a0,101
60226a24:	702d      	cmpi	s0,45
60226a26:	7261      	cmpi	v0,97
60226a28:	2d6d      	bnez	a1,60226b04 <asqt_get_result_and_send_16k>
60226a2a:	7265      	cmpi	v0,101
60226a2c:	0072      	addiu	s0,sp,456
60226a2e:	0000      	addiu	s0,sp,0
60226a30:	6019      	bteqz	60226a64 <stub_asqt_get_remote_voice_16k+0x24>
60226a32:	bfc2      	lwu	a2,8(a3)
60226a34:	6005      	bteqz	60226a40 <stub_asqt_get_remote_voice_16k>
60226a36:	bfc2      	lwu	a2,8(a3)
60226a38:	9820      	lw	s1,0(s0)
60226a3a:	9fc1      	lw	a2,4(a3)
60226a3c:	6009      	bteqz	60226a50 <stub_asqt_get_remote_voice_16k+0x10>
60226a3e:	bfc2      	lwu	a2,8(a3)

60226a40 <stub_asqt_get_remote_voice_16k>:
60226a40:	f004 64f4 	save	a0,32,ra,s0-s1
60226a44:	6900      	li	s1,0
60226a46:	b00e      	lw	s0,60226a7c <stub_asqt_get_remote_voice_16k+0x3c>
60226a48:	a842      	lhu	v0,4(s0)
60226a4a:	f280 4a00 	addiu	v0,640
60226a4e:	a863      	lhu	v1,6(s0)
60226a50:	eb42      	slt	v1,v0
60226a52:	6111      	btnez	60226a76 <stub_asqt_get_remote_voice_16k+0x36>
60226a54:	f300 6c00 	li	a0,768
60226a58:	9508      	lw	a1,32(sp)
60226a5a:	f280 6e00 	li	a2,640
60226a5e:	b209      	lw	v0,60226a80 <stub_asqt_get_remote_voice_16k+0x40>
60226a60:	ea40      	jalr	v0
60226a62:	6f03      	li	a3,3
60226a64:	ea22      	slt	v0,s1
60226a66:	6107      	btnez	60226a76 <stub_asqt_get_remote_voice_16k+0x36>
60226a68:	6790      	move	a0,s0
60226a6a:	f280 6e00 	li	a2,640
60226a6e:	b206      	lw	v0,60226a84 <stub_asqt_get_remote_voice_16k+0x44>
60226a70:	ea40      	jalr	v0
60226a72:	9508      	lw	a1,32(sp)
60226a74:	4121      	addiu	s1,s1,1
60226a76:	6751      	move	v0,s1
60226a78:	6474      	restore	32,ra,s0-s1
60226a7a:	e8a0      	jrc	ra
60226a7c:	9840      	lw	v0,0(s0)
60226a7e:	9fc1      	lw	a2,4(a3)
60226a80:	6019      	bteqz	60226ab4 <stub_asqt_send_buffer_16k+0x2c>
60226a82:	bfc2      	lwu	a2,8(a3)
60226a84:	6821      	li	s0,33
60226a86:	6022      	bteqz	60226acc <stub_asqt_send_aec_16k>

60226a88 <stub_asqt_send_buffer_16k>:
60226a88:	64c3      	save	24,ra
60226a8a:	67c4      	move	a2,a0
60226a8c:	ee11      	zeb	a2
60226a8e:	b20d      	lw	v0,60226ac0 <stub_asqt_send_buffer_16k+0x38>
60226a90:	ed59      	multu	a1,v0
60226a92:	ea10      	mfhi	v0
60226a94:	335e      	srl	v1,v0,7
60226a96:	3260      	sll	v0,v1,8
60226a98:	e26b      	subu	v0,v1
60226a9a:	e557      	subu	a1,v0
60226a9c:	f104 6a00 	li	v0,8448
60226aa0:	ed4d      	or	a1,v0
60226aa2:	36c8      	sll	a2,2
60226aa4:	b208      	lw	v0,60226ac4 <stub_asqt_send_buffer_16k+0x3c>
60226aa6:	e659      	addu	a2,v0
60226aa8:	6785      	move	a0,a1
60226aaa:	ec31      	zeh	a0
60226aac:	f080 9ebc 	lw	a1,156(a2)
60226ab0:	f401 6e00 	li	a2,3072
60226ab4:	b205      	lw	v0,60226ac8 <stub_asqt_send_buffer_16k+0x40>
60226ab6:	ea40      	jalr	v0
60226ab8:	6f04      	li	a3,4
60226aba:	6443      	restore	24,ra
60226abc:	e8a0      	jrc	ra
60226abe:	0000      	addiu	s0,sp,0
60226ac0:	8081      	lb	a0,1(s0)
60226ac2:	8080      	lb	a0,0(s0)
60226ac4:	9840      	lw	v0,0(s0)
60226ac6:	9fc1      	lw	a2,4(a3)
60226ac8:	6019      	bteqz	60226afc <stub_asqt_send_aec_16k+0x30>
60226aca:	bfc2      	lwu	a2,8(a3)

60226acc <stub_asqt_send_aec_16k>:
60226acc:	64e3      	save	24,ra,s0
60226ace:	b20a      	lw	v0,60226af4 <stub_asqt_send_aec_16k+0x28>
60226ad0:	9a80      	lw	a0,0(v0)
60226ad2:	b00a      	lw	s0,60226af8 <stub_asqt_send_aec_16k+0x2c>
60226ad4:	4c08      	addiu	a0,8
60226ad6:	67b0      	move	a1,s0
60226ad8:	6e2c      	li	a2,44
60226ada:	b209      	lw	v0,60226afc <stub_asqt_send_aec_16k+0x30>
60226adc:	ea40      	jalr	v0
60226ade:	6f00      	li	a3,0
60226ae0:	f204 6c00 	li	a0,8704
60226ae4:	67b0      	move	a1,s0
60226ae6:	6e2c      	li	a2,44
60226ae8:	b206      	lw	v0,60226b00 <stub_asqt_send_aec_16k+0x34>
60226aea:	ea40      	jalr	v0
60226aec:	6f04      	li	a3,4
60226aee:	6463      	restore	24,ra,s0
60226af0:	e8a0      	jrc	ra
60226af2:	0000      	addiu	s0,sp,0
60226af4:	9838      	lw	s1,96(s0)
60226af6:	9fc1      	lw	a2,4(a3)
60226af8:	984c      	lw	v0,48(s0)
60226afa:	9fc1      	lw	a2,4(a3)
60226afc:	6005      	bteqz	60226b08 <asqt_get_result_and_send_16k+0x4>
60226afe:	bfc2      	lwu	a2,8(a3)
60226b00:	6019      	bteqz	60226b34 <asqt_get_result_and_send_16k+0x30>
60226b02:	bfc2      	lwu	a2,8(a3)

60226b04 <asqt_get_result_and_send_16k>:
60226b04:	64f4      	save	32,ra,s0-s1
60226b06:	b11e      	lw	s1,60226b7c <asqt_get_result_and_send_16k+0x78>
60226b08:	9960      	lw	v1,0(s1)
60226b0a:	9b41      	lw	v0,4(v1)
60226b0c:	2210      	beqz	v0,60226b2e <asqt_get_result_and_send_16k+0x2a>
60226b0e:	9b02      	lw	s0,8(v1)
60226b10:	0c13      	la	a0,60226b5c <asqt_get_result_and_send_16k+0x58>
60226b12:	67b0      	move	a1,s0
60226b14:	6e02      	li	a2,2
60226b16:	b21b      	lw	v0,60226b80 <asqt_get_result_and_send_16k+0x7c>
60226b18:	ea40      	jalr	v0
60226b1a:	6f4b      	li	a3,75
60226b1c:	6c00      	li	a0,0
60226b1e:	b21a      	lw	v0,60226b84 <asqt_get_result_and_send_16k+0x80>
60226b20:	ea40      	jalr	v0
60226b22:	67b0      	move	a1,s0
60226b24:	9960      	lw	v1,0(s1)
60226b26:	6a00      	li	v0,0
60226b28:	db41      	sw	v0,4(v1)
60226b2a:	b218      	lw	v0,60226b88 <asqt_get_result_and_send_16k+0x84>
60226b2c:	eac0      	jalrc	v0
60226b2e:	b114      	lw	s1,60226b7c <asqt_get_result_and_send_16k+0x78>
60226b30:	9960      	lw	v1,0(s1)
60226b32:	9b45      	lw	v0,20(v1)
60226b34:	2210      	beqz	v0,60226b56 <asqt_get_result_and_send_16k+0x52>
60226b36:	9b06      	lw	s0,24(v1)
60226b38:	0c0d      	la	a0,60226b6c <asqt_get_result_and_send_16k+0x68>
60226b3a:	67b0      	move	a1,s0
60226b3c:	6e02      	li	a2,2
60226b3e:	b211      	lw	v0,60226b80 <asqt_get_result_and_send_16k+0x7c>
60226b40:	ea40      	jalr	v0
60226b42:	6f4b      	li	a3,75
60226b44:	6c01      	li	a0,1
60226b46:	b210      	lw	v0,60226b84 <asqt_get_result_and_send_16k+0x80>
60226b48:	ea40      	jalr	v0
60226b4a:	67b0      	move	a1,s0
60226b4c:	9960      	lw	v1,0(s1)
60226b4e:	6a00      	li	v0,0
60226b50:	db45      	sw	v0,20(v1)
60226b52:	b20e      	lw	v0,60226b88 <asqt_get_result_and_send_16k+0x84>
60226b54:	eac0      	jalrc	v0
60226b56:	6474      	restore	32,ra,s0-s1
60226b58:	e8a0      	jrc	ra
60226b5a:	0000      	addiu	s0,sp,0
60226b5c:	493c      	addiu	s1,60
60226b5e:	203e      	beqz	s0,60226bdc <real_call_mode_deal_16k+0x50>
60226b60:	7266      	cmpi	v0,102
60226b62:	6d61      	li	a1,97
60226b64:	5f65      	sltiu	a3,101
60226b66:	6e63      	li	a2,99
60226b68:	3174      	sll	s1,v1,5
60226b6a:	0000      	addiu	s0,sp,0
60226b6c:	493c      	addiu	s1,60
60226b6e:	203e      	beqz	s0,60226bec <real_call_mode_deal_16k+0x60>
60226b70:	7266      	cmpi	v0,102
60226b72:	6d61      	li	a1,97
60226b74:	5f65      	sltiu	a3,101
60226b76:	6e63      	li	a2,99
60226b78:	3274      	sll	v0,v1,5
60226b7a:	0000      	addiu	s0,sp,0
60226b7c:	983c      	lw	s1,112(s0)
60226b7e:	9fc1      	lw	a2,4(a3)
60226b80:	6009      	bteqz	60226b94 <real_call_mode_deal_16k+0x8>
60226b82:	bfc2      	lwu	a2,8(a3)
60226b84:	6a89      	li	v0,137
60226b86:	6022      	bteqz	60226bcc <real_call_mode_deal_16k+0x40>
60226b88:	6acd      	li	v0,205
60226b8a:	6022      	bteqz	60226bd0 <real_call_mode_deal_16k+0x44>

60226b8c <real_call_mode_deal_16k>:
60226b8c:	64f5      	save	40,ra,s0-s1
60226b8e:	ec11      	zeb	a0
60226b90:	d404      	sw	a0,16(sp)
60226b92:	ed11      	zeb	a1
60226b94:	b215      	lw	v0,60226be8 <real_call_mode_deal_16k+0x5c>
60226b96:	9a40      	lw	v0,0(v0)
60226b98:	a200      	lbu	s0,0(v0)
60226b9a:	7501      	cmpi	a1,1
60226b9c:	6103      	btnez	60226ba4 <real_call_mode_deal_16k+0x18>
60226b9e:	6b00      	li	v1,0
60226ba0:	b213      	lw	v0,60226bec <real_call_mode_deal_16k+0x60>
60226ba2:	c260      	sb	v1,0(v0)
60226ba4:	b112      	lw	s1,60226bec <real_call_mode_deal_16k+0x60>
60226ba6:	a140      	lbu	v0,0(s1)
60226ba8:	7205      	cmpi	v0,5
60226baa:	6105      	btnez	60226bb6 <real_call_mode_deal_16k+0x2a>
60226bac:	b211      	lw	v0,60226bf0 <real_call_mode_deal_16k+0x64>
60226bae:	ea40      	jalr	v0
60226bb0:	6c07      	li	a0,7
60226bb2:	6a00      	li	v0,0
60226bb4:	c140      	sb	v0,0(s1)
60226bb6:	b210      	lw	v0,60226bf4 <real_call_mode_deal_16k+0x68>
60226bb8:	a240      	lbu	v0,0(v0)
60226bba:	ea0a      	cmp	v0,s0
60226bbc:	600a      	bteqz	60226bd2 <real_call_mode_deal_16k+0x46>
60226bbe:	7004      	cmpi	s0,4
60226bc0:	6008      	bteqz	60226bd2 <real_call_mode_deal_16k+0x46>
60226bc2:	7204      	cmpi	v0,4
60226bc4:	6106      	btnez	60226bd2 <real_call_mode_deal_16k+0x46>
60226bc6:	b20b      	lw	v0,60226bf0 <real_call_mode_deal_16k+0x64>
60226bc8:	ea40      	jalr	v0
60226bca:	6c05      	li	a0,5
60226bcc:	6b05      	li	v1,5
60226bce:	b208      	lw	v0,60226bec <real_call_mode_deal_16k+0x60>
60226bd0:	c260      	sb	v1,0(v0)
60226bd2:	b209      	lw	v0,60226bf4 <real_call_mode_deal_16k+0x68>
60226bd4:	c200      	sb	s0,0(v0)
60226bd6:	9204      	lw	v0,16(sp)
60226bd8:	7205      	cmpi	v0,5
60226bda:	6104      	btnez	60226be4 <real_call_mode_deal_16k+0x58>
60226bdc:	7004      	cmpi	s0,4
60226bde:	6102      	btnez	60226be4 <real_call_mode_deal_16k+0x58>
60226be0:	b206      	lw	v0,60226bf8 <real_call_mode_deal_16k+0x6c>
60226be2:	eac0      	jalrc	v0
60226be4:	6475      	restore	40,ra,s0-s1
60226be6:	e8a0      	jrc	ra
60226be8:	9680      	lw	a2,512(sp)
60226bea:	9fc1      	lw	a2,4(a3)
60226bec:	9829      	lw	s1,36(s0)
60226bee:	9fc1      	lw	a2,4(a3)
60226bf0:	6b29      	li	v1,41
60226bf2:	6016      	bteqz	60226c20 <simu_call_mode_deal_16k+0x24>
60226bf4:	9828      	lw	s1,32(s0)
60226bf6:	9fc1      	lw	a2,4(a3)
60226bf8:	6b05      	li	v1,5
60226bfa:	6022      	bteqz	60226c40 <simu_call_mode_deal_16k+0x44>

60226bfc <simu_call_mode_deal_16k>:
60226bfc:	64f4      	save	32,ra,s0-s1
60226bfe:	6704      	move	s0,a0
60226c00:	e811      	zeb	s0
60226c02:	7003      	cmpi	s0,3
60226c04:	610a      	btnez	60226c1a <simu_call_mode_deal_16k+0x1e>
60226c06:	b115      	lw	s1,60226c58 <simu_call_mode_deal_16k+0x5c>
60226c08:	a140      	lbu	v0,0(s1)
60226c0a:	2a07      	bnez	v0,60226c1a <simu_call_mode_deal_16k+0x1e>
60226c0c:	b214      	lw	v0,60226c5c <simu_call_mode_deal_16k+0x60>
60226c0e:	ea40      	jalr	v0
60226c10:	6c05      	li	a0,5
60226c12:	b214      	lw	v0,60226c60 <simu_call_mode_deal_16k+0x64>
60226c14:	eac0      	jalrc	v0
60226c16:	6a01      	li	v0,1
60226c18:	c140      	sb	v0,0(s1)
60226c1a:	7005      	cmpi	s0,5
60226c1c:	611a      	btnez	60226c52 <simu_call_mode_deal_16k+0x56>
60226c1e:	b00f      	lw	s0,60226c58 <simu_call_mode_deal_16k+0x5c>
60226c20:	a040      	lbu	v0,0(s0)
60226c22:	7201      	cmpi	v0,1
60226c24:	6104      	btnez	60226c2e <simu_call_mode_deal_16k+0x32>
60226c26:	b210      	lw	v0,60226c64 <simu_call_mode_deal_16k+0x68>
60226c28:	eac0      	jalrc	v0
60226c2a:	6a00      	li	v0,0
60226c2c:	c040      	sb	v0,0(s0)
60226c2e:	b10f      	lw	s1,60226c68 <simu_call_mode_deal_16k+0x6c>
60226c30:	b00f      	lw	s0,60226c6c <simu_call_mode_deal_16k+0x70>
60226c32:	e840      	jalr	s0
60226c34:	9980      	lw	a0,0(s1)
60226c36:	7201      	cmpi	v0,1
60226c38:	60fc      	bteqz	60226c32 <simu_call_mode_deal_16k+0x36>
60226c3a:	b40e      	lw	a0,60226c70 <simu_call_mode_deal_16k+0x74>
60226c3c:	ac42      	lhu	v0,4(a0)
60226c3e:	5a02      	sltiu	v0,2
60226c40:	6103      	btnez	60226c48 <simu_call_mode_deal_16k+0x4c>
60226c42:	b20d      	lw	v0,60226c74 <simu_call_mode_deal_16k+0x78>
60226c44:	eac0      	jalrc	v0
60226c46:	1003      	b	60226c4e <simu_call_mode_deal_16k+0x52>
60226c48:	b205      	lw	v0,60226c5c <simu_call_mode_deal_16k+0x60>
60226c4a:	ea40      	jalr	v0
60226c4c:	6c05      	li	a0,5
60226c4e:	b20b      	lw	v0,60226c78 <simu_call_mode_deal_16k+0x7c>
60226c50:	eac0      	jalrc	v0
60226c52:	6474      	restore	32,ra,s0-s1
60226c54:	e8a0      	jrc	ra
60226c56:	0000      	addiu	s0,sp,0
60226c58:	9589      	lw	a1,548(sp)
60226c5a:	9fc1      	lw	a2,4(a3)
60226c5c:	6801      	li	s0,1
60226c5e:	6022      	bteqz	60226ca4 <get_asqt_peq_para_from_pc_16k+0x28>
60226c60:	6c19      	li	a0,25
60226c62:	6012      	bteqz	60226c88 <get_asqt_peq_para_from_pc_16k+0xc>
60226c64:	6c69      	li	a0,105
60226c66:	601e      	bteqz	60226ca4 <get_asqt_peq_para_from_pc_16k+0x28>
60226c68:	9838      	lw	s1,96(s0)
60226c6a:	9fc1      	lw	a2,4(a3)
60226c6c:	6a41      	li	v0,65
60226c6e:	6022      	bteqz	60226cb4 <get_asqt_peq_para_from_pc_16k+0x38>
60226c70:	9840      	lw	v0,0(s0)
60226c72:	9fc1      	lw	a2,4(a3)
60226c74:	6905      	li	s1,5
60226c76:	6022      	bteqz	60226cbc <get_asqt_peq_para_from_pc_16k+0x40>
60226c78:	6b05      	li	v1,5
60226c7a:	6022      	bteqz	60226cc0 <get_asqt_peq_para_from_pc_16k+0x44>

60226c7c <get_asqt_peq_para_from_pc_16k>:
60226c7c:	f004 64f4 	save	a0,32,ra,s0-s1
60226c80:	b111      	lw	s1,60226cc4 <get_asqt_peq_para_from_pc_16k+0x48>
60226c82:	f202 6c00 	li	a0,4608
60226c86:	99a0      	lw	a1,0(s1)
60226c88:	9208      	lw	v0,32(sp)
60226c8a:	b010      	lw	s0,60226cc8 <get_asqt_peq_para_from_pc_16k+0x4c>
60226c8c:	e840      	jalr	s0
60226c8e:	aac2      	lhu	a2,4(v0)
60226c90:	f302 6c00 	li	a0,4864
60226c94:	99a1      	lw	a1,4(s1)
60226c96:	9208      	lw	v0,32(sp)
60226c98:	e840      	jalr	s0
60226c9a:	aac4      	lhu	a2,8(v0)
60226c9c:	b30c      	lw	v1,60226ccc <get_asqt_peq_para_from_pc_16k+0x50>
60226c9e:	9ba0      	lw	a1,0(v1)
60226ca0:	9940      	lw	v0,0(s1)
60226ca2:	b60c      	lw	a2,60226cd0 <get_asqt_peq_para_from_pc_16k+0x54>
60226ca4:	eacc      	and	v0,a2
60226ca6:	3246      	srl	v0,1
60226ca8:	b40b      	lw	a0,60226cd4 <get_asqt_peq_para_from_pc_16k+0x58>
60226caa:	ea8d      	or	v0,a0
60226cac:	dd4a      	sw	v0,40(a1)
60226cae:	9ba0      	lw	a1,0(v1)
60226cb0:	9941      	lw	v0,4(s1)
60226cb2:	eacc      	and	v0,a2
60226cb4:	3246      	srl	v0,1
60226cb6:	ea8d      	or	v0,a0
60226cb8:	dd4b      	sw	v0,44(a1)
60226cba:	9b60      	lw	v1,0(v1)
60226cbc:	6a01      	li	v0,1
60226cbe:	db49      	sw	v0,36(v1)
60226cc0:	6474      	restore	32,ra,s0-s1
60226cc2:	e8a0      	jrc	ra
60226cc4:	9818      	lw	s0,96(s0)
60226cc6:	9fc1      	lw	a2,4(a3)
60226cc8:	6975      	li	s1,117
60226cca:	6022      	bteqz	60226d10 <btcall_eg_stub_16k+0x10>
60226ccc:	983c      	lw	s1,112(s0)
60226cce:	9fc1      	lw	a2,4(a3)
60226cd0:	ffff      	daddiu	a3,sp,124
60226cd2:	0001      	addiu	s0,sp,4
60226cd4:	0000      	addiu	s0,sp,0
60226cd6:	0003      	addiu	s0,sp,12

60226cd8 <update_asqt_para_16k>:
60226cd8:	64c5      	save	40,ra
60226cda:	f102 6c00 	li	a0,4352
60226cde:	0504      	addiu	a1,sp,16
60226ce0:	b206      	lw	v0,60226cf8 <update_asqt_para_16k+0x20>
60226ce2:	ea40      	jalr	v0
60226ce4:	6e0c      	li	a2,12
60226ce6:	9204      	lw	v0,16(sp)
60226ce8:	7201      	cmpi	v0,1
60226cea:	6103      	btnez	60226cf2 <update_asqt_para_16k+0x1a>
60226cec:	b204      	lw	v0,60226cfc <update_asqt_para_16k+0x24>
60226cee:	ea40      	jalr	v0
60226cf0:	0404      	addiu	a0,sp,16
60226cf2:	6445      	restore	40,ra
60226cf4:	e8a0      	jrc	ra
60226cf6:	0000      	addiu	s0,sp,0
60226cf8:	6975      	li	s1,117
60226cfa:	6022      	bteqz	60226d40 <btcall_eg_stub_16k+0x40>
60226cfc:	6c7d      	li	a0,125
60226cfe:	6022      	bteqz	60226d44 <btcall_eg_stub_16k+0x44>

60226d00 <btcall_eg_stub_16k>:
60226d00:	f004 64f4 	save	a0,32,ra,s0-s1
60226d04:	6705      	move	s0,a1
60226d06:	6900      	li	s1,0
60226d08:	a540      	lbu	v0,0(a1)
60226d0a:	7204      	cmpi	v0,4
60226d0c:	610e      	btnez	60226d2a <btcall_eg_stub_16k+0x2a>
60226d0e:	a440      	lbu	v0,0(a0)
60226d10:	7205      	cmpi	v0,5
60226d12:	610b      	btnez	60226d2a <btcall_eg_stub_16k+0x2a>
60226d14:	b215      	lw	v0,60226d68 <btcall_eg_stub_16k+0x68>
60226d16:	a280      	lbu	a0,0(v0)
60226d18:	b215      	lw	v0,60226d6c <btcall_eg_stub_16k+0x6c>
60226d1a:	eac0      	jalrc	v0
60226d1c:	0c0f      	la	a0,60226d54 <btcall_eg_stub_16k+0x54>
60226d1e:	67b1      	move	a1,s1
60226d20:	67d1      	move	a2,s1
60226d22:	b214      	lw	v0,60226d70 <btcall_eg_stub_16k+0x70>
60226d24:	ea40      	jalr	v0
60226d26:	6f4b      	li	a3,75
60226d28:	4121      	addiu	s1,s1,1
60226d2a:	a040      	lbu	v0,0(s0)
60226d2c:	9308      	lw	v1,32(sp)
60226d2e:	c340      	sb	v0,0(v1)
60226d30:	b20e      	lw	v0,60226d68 <btcall_eg_stub_16k+0x68>
60226d32:	a240      	lbu	v0,0(v0)
60226d34:	7201      	cmpi	v0,1
60226d36:	6105      	btnez	60226d42 <btcall_eg_stub_16k+0x42>
60226d38:	a080      	lbu	a0,0(s0)
60226d3a:	b20f      	lw	v0,60226d74 <btcall_eg_stub_16k+0x74>
60226d3c:	ea40      	jalr	v0
60226d3e:	67b1      	move	a1,s1
60226d40:	1003      	b	60226d48 <btcall_eg_stub_16k+0x48>
60226d42:	b20e      	lw	v0,60226d78 <btcall_eg_stub_16k+0x78>
60226d44:	ea40      	jalr	v0
60226d46:	a080      	lbu	a0,0(s0)
60226d48:	b20d      	lw	v0,60226d7c <btcall_eg_stub_16k+0x7c>
60226d4a:	a24e      	lbu	v0,14(v0)
60226d4c:	7201      	cmpi	v0,1
60226d4e:	6102      	btnez	60226d54 <btcall_eg_stub_16k+0x54>
60226d50:	b20c      	lw	v0,60226d80 <btcall_eg_stub_16k+0x80>
60226d52:	eac0      	jalrc	v0
60226d54:	6474      	restore	32,ra,s0-s1
60226d56:	e8a0      	jrc	ra
60226d58:	493c      	addiu	s1,60
60226d5a:	203e      	beqz	s0,60226dd8 <btcall_eg_stub_16k+0xd8>
60226d5c:	6572      	move	s3,v0
60226d5e:	6573      	move	s3,v1
60226d60:	2074      	beqz	s0,60226e4a <btcall_eg_stub_16k+0x14a>
60226d62:	7364      	cmpi	v1,100
60226d64:	0070      	addiu	s0,sp,448
60226d66:	0000      	addiu	s0,sp,0
60226d68:	9820      	lw	s1,0(s0)
60226d6a:	9fc1      	lw	a2,4(a3)
60226d6c:	6ab9      	li	v0,185
60226d6e:	601e      	bteqz	60226dac <btcall_eg_stub_16k+0xac>
60226d70:	6009      	bteqz	60226d84 <btcall_eg_stub_16k+0x84>
60226d72:	bfc2      	lwu	a2,8(a3)
60226d74:	6b8d      	li	v1,141
60226d76:	6022      	bteqz	60226dbc <btcall_eg_stub_16k+0xbc>
60226d78:	6bfd      	li	v1,253
60226d7a:	6022      	bteqz	60226dc0 <btcall_eg_stub_16k+0xc0>
60226d7c:	9650      	lw	a2,320(sp)
60226d7e:	9fc1      	lw	a2,4(a3)
60226d80:	6cd9      	li	a0,217
60226d82:	6022      	bteqz	60226dc8 <btcall_eg_stub_16k+0xc8>
Disassembly of section BANK_CONTROL_1_40:

60a26800 <get_engine_type_by_appid>:
60a26800:	b609      	lw	a2,60a26824 <get_engine_type_by_appid+0x24>
60a26802:	ec11      	zeb	a0
60a26804:	6d00      	li	a1,0
60a26806:	37a4      	sll	a3,a1,1
60a26808:	e7cd      	addu	v1,a3,a2
60a2680a:	a340      	lbu	v0,0(v1)
60a2680c:	ea8e      	xor	v0,a0
60a2680e:	2a02      	bnez	v0,60a26814 <get_engine_type_by_appid+0x14>
60a26810:	e820      	jr	ra
60a26812:	a341      	lbu	v0,1(v1)
60a26814:	4561      	addiu	v1,a1,1
60a26816:	67a3      	move	a1,v1
60a26818:	ed11      	zeb	a1
60a2681a:	5d06      	sltiu	a1,6
60a2681c:	61f4      	btnez	60a26806 <get_engine_type_by_appid+0x6>
60a2681e:	e820      	jr	ra
60a26820:	6a00      	li	v0,0
60a26822:	0000      	addiu	s0,sp,0
60a26824:	6854      	li	s0,84
60a26826:	60a2      	bteqz	60a2676c <btcall_eg_stub_16k+0x7ffa6c>

60a26828 <get_engine_appid_by_type>:
60a26828:	ec11      	zeb	a0
60a2682a:	6a1b      	li	v0,27
60a2682c:	2c03      	bnez	a0,60a26834 <get_engine_appid_by_type+0xc>
60a2682e:	100f      	b	60a2684e <get_engine_appid_by_type+0x26>
60a26830:	e820      	jr	ra
60a26832:	a340      	lbu	v0,0(v1)
60a26834:	b607      	lw	a2,60a26850 <get_engine_appid_by_type+0x28>
60a26836:	6d00      	li	a1,0
60a26838:	37a4      	sll	a3,a1,1
60a2683a:	e7cd      	addu	v1,a3,a2
60a2683c:	a341      	lbu	v0,1(v1)
60a2683e:	ea8e      	xor	v0,a0
60a26840:	22f7      	beqz	v0,60a26830 <get_engine_appid_by_type+0x8>
60a26842:	4561      	addiu	v1,a1,1
60a26844:	67a3      	move	a1,v1
60a26846:	ed11      	zeb	a1
60a26848:	5d06      	sltiu	a1,6
60a2684a:	61f6      	btnez	60a26838 <get_engine_appid_by_type+0x10>
60a2684c:	6a1b      	li	v0,27
60a2684e:	e8a0      	jrc	ra
60a26850:	6854      	li	s0,84
60a26852:	60a2      	bteqz	60a26798 <btcall_eg_stub_16k+0x7ffa98>

60a26854 <applib_app2eg_type>:
60a26854:	010e 0212 030f 0410 0511 0613               ............

60a26860 <applib_init>:
60a26860:	64f5      	save	40,ra,s0-s1
60a26862:	ec11      	zeb	a0
60a26864:	6705      	move	s0,a1
60a26866:	5c1b      	sltiu	a0,27
60a26868:	d404      	sw	a0,16(sp)
60a2686a:	e811      	zeb	s0
60a2686c:	6a00      	li	v0,0
60a2686e:	6056      	bteqz	60a2691c <applib_init+0xbc>
60a26870:	6b01      	li	v1,1
60a26872:	eb0e      	xor	v1,s0
60a26874:	5b01      	sltiu	v1,1
60a26876:	6758      	move	v0,t8
60a26878:	d205      	sw	v0,20(sp)
60a2687a:	220a      	beqz	v0,60a26890 <applib_init+0x30>
60a2687c:	b12d      	lw	s1,60a26930 <applib_init+0xd0>
60a2687e:	6c0a      	li	a0,10
60a26880:	6d07      	li	a1,7
60a26882:	6e00      	li	a2,0
60a26884:	e940      	jalr	s1
60a26886:	6f03      	li	a3,3
60a26888:	b42b      	lw	a0,60a26934 <applib_init+0xd4>
60a2688a:	6d00      	li	a1,0
60a2688c:	c4a3      	sb	a1,3(a0)
60a2688e:	1008      	b	60a268a0 <applib_init+0x40>
60a26890:	7002      	cmpi	s0,2
60a26892:	6106      	btnez	60a268a0 <applib_init+0x40>
60a26894:	b227      	lw	v0,60a26930 <applib_init+0xd0>
60a26896:	6c06      	li	a0,6
60a26898:	6d02      	li	a1,2
60a2689a:	6e00      	li	a2,0
60a2689c:	ea40      	jalr	v0
60a2689e:	6f03      	li	a3,3
60a268a0:	b426      	lw	a0,60a26938 <applib_init+0xd8>
60a268a2:	3308      	sll	v1,s0,2
60a268a4:	e385      	addu	s1,v1,a0
60a268a6:	b226      	lw	v0,60a2693c <applib_init+0xdc>
60a268a8:	6c00      	li	a0,0
60a268aa:	67a4      	move	a1,a0
60a268ac:	67c4      	move	a2,a0
60a268ae:	ea40      	jalr	v0
60a268b0:	6f33      	li	a3,51
60a268b2:	b224      	lw	v0,60a26940 <applib_init+0xe0>
60a268b4:	6e04      	li	a2,4
60a268b6:	6f01      	li	a3,1
60a268b8:	6791      	move	a0,s1
60a268ba:	ea40      	jalr	v0
60a268bc:	6d00      	li	a1,0
60a268be:	6a01      	li	v0,1
60a268c0:	c140      	sb	v0,0(s1)
60a268c2:	67fd      	move	a3,sp
60a268c4:	a7d0      	lbu	a2,16(a3)
60a268c6:	c102      	sb	s0,2(s1)
60a268c8:	c1c1      	sb	a2,1(s1)
60a268ca:	2802      	bnez	s0,60a268d0 <applib_init+0x70>
60a268cc:	c103      	sb	s0,3(s1)
60a268ce:	1012      	b	60a268f4 <applib_init+0x94>
60a268d0:	7003      	cmpi	s0,3
60a268d2:	6103      	btnez	60a268da <applib_init+0x7a>
60a268d4:	6803      	li	s0,3
60a268d6:	c103      	sb	s0,3(s1)
60a268d8:	100d      	b	60a268f4 <applib_init+0x94>
60a268da:	9505      	lw	a1,20(sp)
60a268dc:	b016      	lw	s0,60a26934 <applib_init+0xd4>
60a268de:	2504      	beqz	a1,60a268e8 <applib_init+0x88>
60a268e0:	6e00      	li	a2,0
60a268e2:	c143      	sb	v0,3(s1)
60a268e4:	c0c2      	sb	a2,2(s0)
60a268e6:	1006      	b	60a268f4 <applib_init+0x94>
60a268e8:	6f02      	li	a3,2
60a268ea:	c1e3      	sb	a3,3(s1)
60a268ec:	b216      	lw	v0,60a26944 <applib_init+0xe4>
60a268ee:	ea40      	jalr	v0
60a268f0:	9404      	lw	a0,16(sp)
60a268f2:	c040      	sb	v0,0(s0)
60a268f4:	6c00      	li	a0,0
60a268f6:	b012      	lw	s0,60a2693c <applib_init+0xdc>
60a268f8:	67a4      	move	a1,a0
60a268fa:	67c4      	move	a2,a0
60a268fc:	e840      	jalr	s0
60a268fe:	6f34      	li	a3,52
60a26900:	b412      	lw	a0,60a26948 <applib_init+0xe8>
60a26902:	b210      	lw	v0,60a26940 <applib_init+0xe0>
60a26904:	dc20      	sw	s1,0(a0)
60a26906:	b412      	lw	a0,60a2694c <applib_init+0xec>
60a26908:	6d01      	li	a1,1
60a2690a:	6e00      	li	a2,0
60a2690c:	ea40      	jalr	v0
60a2690e:	6f12      	li	a3,18
60a26910:	9504      	lw	a1,16(sp)
60a26912:	0c04      	la	a0,60a26920 <applib_init+0xc0>
60a26914:	6e02      	li	a2,2
60a26916:	e840      	jalr	s0
60a26918:	6f4b      	li	a3,75
60a2691a:	6a01      	li	v0,1
60a2691c:	6475      	restore	40,ra,s0-s1
60a2691e:	e8a0      	jrc	ra
60a26920:	493c      	addiu	s1,60
60a26922:	203e      	beqz	s0,60a269a0 <.LBE2+0x14>
60a26924:	7061      	cmpi	s0,97
60a26926:	2070      	beqz	s0,60a26a08 <.LBE2+0x7c>
60a26928:	6e69      	li	a2,105
60a2692a:	7469      	cmpi	a0,105
60a2692c:	003a      	addiu	s0,sp,232
60a2692e:	0000      	addiu	s0,sp,0
60a26930:	6011      	bteqz	60a26954 <applib_quit+0x4>
60a26932:	bfc2      	lwu	a2,8(a3)
60a26934:	a094      	lbu	a0,20(s0)
60a26936:	9fc1      	lw	a2,4(a3)
60a26938:	a080      	lbu	a0,0(s0)
60a2693a:	9fc1      	lw	a2,4(a3)
60a2693c:	6009      	bteqz	60a26950 <applib_quit>
60a2693e:	bfc2      	lwu	a2,8(a3)
60a26940:	6005      	bteqz	60a2694c <applib_init+0xec>
60a26942:	bfc2      	lwu	a2,8(a3)
60a26944:	6801      	li	s0,1
60a26946:	60a2      	bteqz	60a2688c <applib_init+0x2c>
60a26948:	959c      	lw	a1,624(sp)
60a2694a:	9fc1      	lw	a2,4(a3)
60a2694c:	95a0      	lw	a1,640(sp)
60a2694e:	9fc1      	lw	a2,4(a3)

60a26950 <applib_quit>:
60a26950:	64f5      	save	40,ra,s0-s1
60a26952:	b02f      	lw	s0,60a26a0c <.LBE2+0x80>
60a26954:	b12f      	lw	s1,60a26a10 <.LBE2+0x84>
60a26956:	9860      	lw	v1,0(s0)
60a26958:	0c29      	la	a0,60a269fc <.LBE2+0x70>
60a2695a:	a3a1      	lbu	a1,1(v1)
60a2695c:	6e02      	li	a2,2
60a2695e:	e940      	jalr	s1
60a26960:	6f4b      	li	a3,75
60a26962:	6d00      	li	a1,0
60a26964:	b42c      	lw	a0,60a26a14 <.LBE2+0x88>
60a26966:	b12d      	lw	s1,60a26a18 <.LBE2+0x8c>
60a26968:	67c5      	move	a2,a1
60a2696a:	e940      	jalr	s1
60a2696c:	6f13      	li	a3,19
60a2696e:	98a0      	lw	a1,0(s0)
60a26970:	a542      	lbu	v0,2(a1)
60a26972:	7202      	cmpi	v0,2
60a26974:	6104      	btnez	60a2697e <applib_quit+0x2e>
60a26976:	b42a      	lw	a0,60a26a1c <.LBE2+0x90>
60a26978:	6e00      	li	a2,0
60a2697a:	c4c0      	sb	a2,0(a0)
60a2697c:	c4c1      	sb	a2,1(a0)
60a2697e:	0404      	addiu	a0,sp,16
60a26980:	6f00      	li	a3,0
60a26982:	e940      	jalr	s1
60a26984:	6e04      	li	a2,4
60a26986:	67fd      	move	a3,sp
60a26988:	6a1b      	li	v0,27

60a2698a <.LBB2>:
60a2698a:	98a0      	lw	a1,0(s0)

60a2698c <.LBE2>:
60a2698c:	c751      	sb	v0,17(a3)
60a2698e:	a581      	lbu	a0,1(a1)
60a26990:	6b00      	li	v1,0
60a26992:	5c1b      	sltiu	a0,27
60a26994:	c770      	sb	v1,16(a3)
60a26996:	6020      	bteqz	60a269d8 <.LBE2+0x4c>
60a26998:	b522      	lw	a1,60a26a20 <.LBE2+0x94>
60a2699a:	6b00      	li	v1,0
60a2699c:	3668      	sll	a2,v1,2
60a2699e:	e6a5      	addu	s1,a2,a1
60a269a0:	a100      	lbu	s0,0(s1)
60a269a2:	7001      	cmpi	s0,1
60a269a4:	6103      	btnez	60a269ac <.LBE2+0x20>
60a269a6:	a1e1      	lbu	a3,1(s1)
60a269a8:	ef8e      	xor	a3,a0
60a269aa:	2705      	beqz	a3,60a269b6 <.LBE2+0x2a>
60a269ac:	4341      	addiu	v0,v1,1
60a269ae:	6762      	move	v1,v0
60a269b0:	eb11      	zeb	v1
60a269b2:	5b04      	sltiu	v1,4
60a269b4:	61f3      	btnez	60a2699c <.LBE2+0x10>
60a269b6:	6c00      	li	a0,0
60a269b8:	b016      	lw	s0,60a26a10 <.LBE2+0x84>
60a269ba:	67a4      	move	a1,a0
60a269bc:	67c4      	move	a2,a0
60a269be:	e840      	jalr	s0
60a269c0:	6f33      	li	a3,51
60a269c2:	b216      	lw	v0,60a26a18 <.LBE2+0x8c>
60a269c4:	6791      	move	a0,s1
60a269c6:	0504      	addiu	a1,sp,16
60a269c8:	6e04      	li	a2,4
60a269ca:	ea40      	jalr	v0
60a269cc:	6f00      	li	a3,0
60a269ce:	6c00      	li	a0,0
60a269d0:	67a4      	move	a1,a0
60a269d2:	67c4      	move	a2,a0
60a269d4:	e840      	jalr	s0
60a269d6:	6f34      	li	a3,52
60a269d8:	b50d      	lw	a1,60a26a0c <.LBE2+0x80>
60a269da:	9d80      	lw	a0,0(a1)
60a269dc:	a442      	lbu	v0,2(a0)
60a269de:	6c0a      	li	a0,10
60a269e0:	7201      	cmpi	v0,1
60a269e2:	6003      	bteqz	60a269ea <.LBE2+0x5e>
60a269e4:	7202      	cmpi	v0,2
60a269e6:	6106      	btnez	60a269f4 <.LBE2+0x68>
60a269e8:	6c06      	li	a0,6
60a269ea:	6d00      	li	a1,0
60a269ec:	b20e      	lw	v0,60a26a24 <.LBE2+0x98>
60a269ee:	67c5      	move	a2,a1
60a269f0:	ea40      	jalr	v0
60a269f2:	6f03      	li	a3,3
60a269f4:	6a01      	li	v0,1
60a269f6:	6475      	restore	40,ra,s0-s1
60a269f8:	e8a0      	jrc	ra
60a269fa:	0000      	addiu	s0,sp,0
60a269fc:	493c      	addiu	s1,60
60a269fe:	203e      	beqz	s0,60a26a7c <__set_timer+0x54>
60a26a00:	7061      	cmpi	s0,97
60a26a02:	2070      	beqz	s0,60a26ae4 <__set_timer+0xbc>
60a26a04:	7571      	cmpi	a1,113
60a26a06:	7469      	cmpi	a0,105
60a26a08:	003a      	addiu	s0,sp,232
60a26a0a:	0000      	addiu	s0,sp,0
60a26a0c:	959c      	lw	a1,624(sp)
60a26a0e:	9fc1      	lw	a2,4(a3)
60a26a10:	6009      	bteqz	60a26a24 <.LBE2+0x98>
60a26a12:	bfc2      	lwu	a2,8(a3)
60a26a14:	95a0      	lw	a1,640(sp)
60a26a16:	9fc1      	lw	a2,4(a3)
60a26a18:	6005      	bteqz	60a26a24 <.LBE2+0x98>
60a26a1a:	bfc2      	lwu	a2,8(a3)
60a26a1c:	a094      	lbu	a0,20(s0)
60a26a1e:	9fc1      	lw	a2,4(a3)
60a26a20:	a080      	lbu	a0,0(s0)
60a26a22:	9fc1      	lw	a2,4(a3)
60a26a24:	6011      	bteqz	60a26a48 <__set_timer+0x20>
60a26a26:	bfc2      	lwu	a2,8(a3)

60a26a28 <__set_timer>:
60a26a28:	64f7      	save	56,ra,s0-s1
60a26a2a:	ec11      	zeb	a0
60a26a2c:	d404      	sw	a0,16(sp)
60a26a2e:	9312      	lw	v1,72(sp)
60a26a30:	6c01      	li	a0,1
60a26a32:	ea8b      	neg	v0,a0
60a26a34:	ed11      	zeb	a1
60a26a36:	d505      	sw	a1,20(sp)
60a26a38:	d606      	sw	a2,24(sp)
60a26a3a:	d707      	sw	a3,28(sp)
60a26a3c:	d208      	sw	v0,32(sp)
60a26a3e:	651a      	move	t8,v0
60a26a40:	2346      	beqz	v1,60a26ace <__set_timer+0xa6>
60a26a42:	2f28      	bnez	a3,60a26a94 <__set_timer+0x6c>
60a26a44:	1044      	b	60a26ace <__set_timer+0xa6>
60a26a46:	67fd      	move	a3,sp
60a26a48:	af8e      	lhu	a0,28(a3)
60a26a4a:	b22c      	lw	v0,60a26af8 <__set_timer+0xd0>
60a26a4c:	67a6      	move	a1,a2
60a26a4e:	d308      	sw	v1,32(sp)
60a26a50:	c882      	sh	a0,4(s0)
60a26a52:	6f1c      	li	a3,28
60a26a54:	ea40      	jalr	v0
60a26a56:	6786      	move	a0,a2
60a26a58:	9307      	lw	v1,28(sp)
60a26a5a:	9712      	lw	a3,72(sp)
60a26a5c:	e275      	addu	a1,v0,v1
60a26a5e:	d8e3      	sw	a3,12(s0)
60a26a60:	6a04      	li	v0,4
60a26a62:	a0e0      	lbu	a3,0(s0)
60a26a64:	9604      	lw	a2,16(sp)
60a26a66:	ec4b      	neg	a0,v0
60a26a68:	ef8c      	and	a3,a0
60a26a6a:	d8a2      	sw	a1,8(s0)
60a26a6c:	6c01      	li	a0,1
60a26a6e:	6d0d      	li	a1,13
60a26a70:	ebab      	neg	v1,a1
60a26a72:	ef8d      	or	a3,a0
60a26a74:	e9cc      	and	s1,a2
60a26a76:	9605      	lw	a2,20(sp)
60a26a78:	3228      	sll	v0,s1,2
60a26a7a:	ef6c      	and	a3,v1
60a26a7c:	6d11      	li	a1,17
60a26a7e:	ef4d      	or	a3,v0
60a26a80:	eccc      	and	a0,a2
60a26a82:	ebab      	neg	v1,a1
60a26a84:	3290      	sll	v0,a0,4
60a26a86:	ef6c      	and	a3,v1
60a26a88:	ef4d      	or	a3,v0
60a26a8a:	c0e0      	sb	a3,0(s0)
60a26a8c:	67dd      	move	a2,sp
60a26a8e:	a6b8      	lbu	a1,24(a2)
60a26a90:	c0a1      	sb	a1,1(s0)
60a26a92:	1012      	b	60a26ab8 <__set_timer+0x90>
60a26a94:	b617      	lw	a2,60a26af0 <__set_timer+0xc8>
60a26a96:	6b00      	li	v1,0
60a26a98:	a680      	lbu	a0,0(a2)
60a26a9a:	240e      	beqz	a0,60a26ab8 <__set_timer+0x90>
60a26a9c:	b516      	lw	a1,60a26af4 <__set_timer+0xcc>
60a26a9e:	6903      	li	s1,3
60a26aa0:	9d00      	lw	s0,0(a1)
60a26aa2:	a0c0      	lbu	a2,0(s0)
60a26aa4:	ee2c      	and	a2,s1
60a26aa6:	26cf      	beqz	a2,60a26a46 <__set_timer+0x1e>
60a26aa8:	43e1      	addiu	a3,v1,1
60a26aaa:	6767      	move	v1,a3
60a26aac:	6744      	move	v0,a0
60a26aae:	eb91      	seb	v1
60a26ab0:	ea11      	zeb	v0
60a26ab2:	eb42      	slt	v1,v0
60a26ab4:	4810      	addiu	s0,16
60a26ab6:	61f5      	btnez	60a26aa2 <__set_timer+0x7a>
60a26ab8:	9308      	lw	v1,32(sp)
60a26aba:	ec6f      	not	a0,v1
60a26abc:	651b      	move	t8,v1
60a26abe:	2c07      	bnez	a0,60a26ace <__set_timer+0xa6>
60a26ac0:	6d00      	li	a1,0
60a26ac2:	b00e      	lw	s0,60a26af8 <__set_timer+0xd0>
60a26ac4:	0c04      	la	a0,60a26ad4 <__set_timer+0xac>
60a26ac6:	67c5      	move	a2,a1
60a26ac8:	e840      	jalr	s0
60a26aca:	6f4b      	li	a3,75
60a26acc:	17ff      	b	60a26acc <__set_timer+0xa4>
60a26ace:	6758      	move	v0,t8
60a26ad0:	6477      	restore	56,ra,s0-s1
60a26ad2:	e8a0      	jrc	ra
60a26ad4:	453c      	daddiu	s1,a1,-4
60a26ad6:	203e      	beqz	s0,60a26b54 <modify_app_timer+0x20>
60a26ad8:	6573      	move	s3,v1
60a26ada:	2074      	beqz	s0,60a26bc4 <restart_app_timer+0xc>
60a26adc:	7061      	cmpi	s0,97
60a26ade:	2070      	beqz	s0,60a26bc0 <restart_app_timer+0x8>
60a26ae0:	6974      	li	s1,116
60a26ae2:	656d      	move	t3,a1
60a26ae4:	2072      	beqz	s0,60a26bca <restart_app_timer+0x12>
60a26ae6:	6166      	btnez	60a26bb4 <stop_app_timer+0x34>
60a26ae8:	6c69      	li	a0,105
60a26aea:	2121      	beqz	s1,60a26b2e <set_single_shot_app_timer+0x16>
60a26aec:	0000      	addiu	s0,sp,0
60a26aee:	0000      	addiu	s0,sp,0
60a26af0:	95a4      	lw	a1,656(sp)
60a26af2:	9fc1      	lw	a2,4(a3)
60a26af4:	9594      	lw	a1,592(sp)
60a26af6:	9fc1      	lw	a2,4(a3)
60a26af8:	6009      	bteqz	60a26b0c <set_app_timer+0x10>
60a26afa:	bfc2      	lwu	a2,8(a3)

60a26afc <set_app_timer>:
60a26afc:	64c4      	save	32,ra
60a26afe:	3282      	srl	v0,a0,8
60a26b00:	d604      	sw	a2,16(sp)
60a26b02:	67e5      	move	a3,a1
60a26b04:	67c2      	move	a2,v0
60a26b06:	ef31      	zeh	a3
60a26b08:	ec11      	zeb	a0
60a26b0a:	6d00      	li	a1,0
60a26b0c:	1901 9a8a 	jal	60a26a28 <__set_timer>
60a26b10:	ee11      	zeb	a2
60a26b12:	6444      	restore	32,ra
60a26b14:	e8a0      	jrc	ra
	...

60a26b18 <set_single_shot_app_timer>:
60a26b18:	64c4      	save	32,ra
60a26b1a:	3282      	srl	v0,a0,8
60a26b1c:	d604      	sw	a2,16(sp)
60a26b1e:	67e5      	move	a3,a1
60a26b20:	67c2      	move	a2,v0
60a26b22:	ef31      	zeh	a3
60a26b24:	ec11      	zeb	a0
60a26b26:	6d01      	li	a1,1
60a26b28:	1901 9a8a 	jal	60a26a28 <__set_timer>
60a26b2c:	ee11      	zeb	a2
60a26b2e:	6444      	restore	32,ra
60a26b30:	e8a0      	jrc	ra
	...

60a26b34 <modify_app_timer>:
60a26b34:	64f4      	save	32,ra,s0-s1
60a26b36:	ec91      	seb	a0
60a26b38:	6705      	move	s0,a1
60a26b3a:	ea8f      	not	v0,a0
60a26b3c:	e831      	zeh	s0
60a26b3e:	2206      	beqz	v0,60a26b4c <modify_app_timer+0x18>
60a26b40:	b60d      	lw	a2,60a26b74 <modify_app_timer+0x40>
60a26b42:	67a4      	move	a1,a0
60a26b44:	a660      	lbu	v1,0(a2)
60a26b46:	ed11      	zeb	a1
60a26b48:	ed63      	sltu	a1,v1
60a26b4a:	6102      	btnez	60a26b50 <modify_app_timer+0x1c>
60a26b4c:	6a00      	li	v0,0
60a26b4e:	1010      	b	60a26b70 <modify_app_timer+0x3c>
60a26b50:	b10a      	lw	s1,60a26b78 <modify_app_timer+0x44>
60a26b52:	3790      	sll	a3,a0,4
60a26b54:	9980      	lw	a0,0(s1)
60a26b56:	6750      	move	v0,s0
60a26b58:	e4e5      	addu	s1,a0,a3
60a26b5a:	200a      	beqz	s0,60a26b70 <modify_app_timer+0x3c>
60a26b5c:	6c00      	li	a0,0
60a26b5e:	b208      	lw	v0,60a26b7c <modify_app_timer+0x48>
60a26b60:	c902      	sh	s0,4(s1)
60a26b62:	67a4      	move	a1,a0
60a26b64:	67c4      	move	a2,a0
60a26b66:	ea40      	jalr	v0
60a26b68:	6f1c      	li	a3,28
60a26b6a:	e209      	addu	v0,s0
60a26b6c:	d942      	sw	v0,8(s1)
60a26b6e:	6a01      	li	v0,1
60a26b70:	6474      	restore	32,ra,s0-s1
60a26b72:	e8a0      	jrc	ra
60a26b74:	95a4      	lw	a1,656(sp)
60a26b76:	9fc1      	lw	a2,4(a3)
60a26b78:	9594      	lw	a1,592(sp)
60a26b7a:	9fc1      	lw	a2,4(a3)
60a26b7c:	6009      	bteqz	60a26b90 <stop_app_timer+0x10>
60a26b7e:	bfc2      	lwu	a2,8(a3)

60a26b80 <stop_app_timer>:
60a26b80:	ec91      	seb	a0
60a26b82:	ea8f      	not	v0,a0
60a26b84:	2206      	beqz	v0,60a26b92 <stop_app_timer+0x12>
60a26b86:	b60b      	lw	a2,60a26bb0 <stop_app_timer+0x30>
60a26b88:	67a4      	move	a1,a0
60a26b8a:	a660      	lbu	v1,0(a2)
60a26b8c:	ed11      	zeb	a1
60a26b8e:	ed63      	sltu	a1,v1
60a26b90:	6102      	btnez	60a26b96 <stop_app_timer+0x16>
60a26b92:	e820      	jr	ra
60a26b94:	6a00      	li	v0,0
60a26b96:	3790      	sll	a3,a0,4
60a26b98:	b407      	lw	a0,60a26bb4 <stop_app_timer+0x34>
60a26b9a:	6d04      	li	a1,4
60a26b9c:	9cc0      	lw	a2,0(a0)
60a26b9e:	ebab      	neg	v1,a1
60a26ba0:	e6f1      	addu	a0,a2,a3
60a26ba2:	a4e0      	lbu	a3,0(a0)
60a26ba4:	4346      	addiu	v0,v1,6
60a26ba6:	ef6c      	and	a3,v1
60a26ba8:	ef4d      	or	a3,v0
60a26baa:	6a01      	li	v0,1
60a26bac:	e820      	jr	ra
60a26bae:	c4e0      	sb	a3,0(a0)
60a26bb0:	95a4      	lw	a1,656(sp)
60a26bb2:	9fc1      	lw	a2,4(a3)
60a26bb4:	9594      	lw	a1,592(sp)
60a26bb6:	9fc1      	lw	a2,4(a3)

60a26bb8 <restart_app_timer>:
60a26bb8:	64f4      	save	32,ra,s0-s1
60a26bba:	ec91      	seb	a0
60a26bbc:	ea8f      	not	v0,a0
60a26bbe:	2206      	beqz	v0,60a26bcc <restart_app_timer+0x14>
60a26bc0:	b610      	lw	a2,60a26c00 <restart_app_timer+0x48>
60a26bc2:	67a4      	move	a1,a0
60a26bc4:	a660      	lbu	v1,0(a2)
60a26bc6:	ed11      	zeb	a1
60a26bc8:	ed63      	sltu	a1,v1
60a26bca:	6102      	btnez	60a26bd0 <restart_app_timer+0x18>
60a26bcc:	6a00      	li	v0,0
60a26bce:	1015      	b	60a26bfa <restart_app_timer+0x42>
60a26bd0:	3690      	sll	a2,a0,4
60a26bd2:	b40d      	lw	a0,60a26c04 <restart_app_timer+0x4c>
60a26bd4:	6b04      	li	v1,4
60a26bd6:	9c00      	lw	s0,0(a0)
60a26bd8:	e96b      	neg	s1,v1
60a26bda:	e0c1      	addu	s0,a2
60a26bdc:	a0a0      	lbu	a1,0(s0)
60a26bde:	6c00      	li	a0,0
60a26be0:	ed2c      	and	a1,s1
60a26be2:	6901      	li	s1,1
60a26be4:	ed2d      	or	a1,s1
60a26be6:	b209      	lw	v0,60a26c08 <restart_app_timer+0x50>
60a26be8:	c0a0      	sb	a1,0(s0)
60a26bea:	67c4      	move	a2,a0
60a26bec:	67a4      	move	a1,a0
60a26bee:	ea40      	jalr	v0
60a26bf0:	6f1c      	li	a3,28
60a26bf2:	a8e2      	lhu	a3,4(s0)
60a26bf4:	e2f1      	addu	a0,v0,a3
60a26bf6:	d882      	sw	a0,8(s0)
60a26bf8:	6751      	move	v0,s1
60a26bfa:	6474      	restore	32,ra,s0-s1
60a26bfc:	e8a0      	jrc	ra
60a26bfe:	0000      	addiu	s0,sp,0
60a26c00:	95a4      	lw	a1,656(sp)
60a26c02:	9fc1      	lw	a2,4(a3)
60a26c04:	9594      	lw	a1,592(sp)
60a26c06:	9fc1      	lw	a2,4(a3)
60a26c08:	6009      	bteqz	60a26c1c <kill_app_timer+0x10>
60a26c0a:	bfc2      	lwu	a2,8(a3)

60a26c0c <kill_app_timer>:
60a26c0c:	ec91      	seb	a0
60a26c0e:	ea8f      	not	v0,a0
60a26c10:	2206      	beqz	v0,60a26c1e <kill_app_timer+0x12>
60a26c12:	b60a      	lw	a2,60a26c38 <kill_app_timer+0x2c>
60a26c14:	67a4      	move	a1,a0
60a26c16:	a660      	lbu	v1,0(a2)
60a26c18:	ed11      	zeb	a1
60a26c1a:	ed63      	sltu	a1,v1
60a26c1c:	6102      	btnez	60a26c22 <kill_app_timer+0x16>
60a26c1e:	e820      	jr	ra
60a26c20:	6a00      	li	v0,0
60a26c22:	b707      	lw	a3,60a26c3c <kill_app_timer+0x30>
60a26c24:	3690      	sll	a2,a0,4
60a26c26:	9f60      	lw	v1,0(a3)
60a26c28:	6d04      	li	a1,4
60a26c2a:	e3dd      	addu	a3,v1,a2
60a26c2c:	a740      	lbu	v0,0(a3)
60a26c2e:	ecab      	neg	a0,a1
60a26c30:	ea8c      	and	v0,a0
60a26c32:	c740      	sb	v0,0(a3)
60a26c34:	e820      	jr	ra
60a26c36:	6a01      	li	v0,1
60a26c38:	95a4      	lw	a1,656(sp)
60a26c3a:	9fc1      	lw	a2,4(a3)
60a26c3c:	9594      	lw	a1,592(sp)
60a26c3e:	9fc1      	lw	a2,4(a3)

60a26c40 <init_app_timers>:
60a26c40:	ed11      	zeb	a1
60a26c42:	6745      	move	v0,a1
60a26c44:	2518      	beqz	a1,60a26c76 <init_app_timers+0x36>
60a26c46:	b70d      	lw	a3,60a26c78 <init_app_timers+0x38>
60a26c48:	b60d      	lw	a2,60a26c7c <init_app_timers+0x3c>
60a26c4a:	df80      	sw	a0,0(a3)
60a26c4c:	c6a0      	sb	a1,0(a2)
60a26c4e:	6c00      	li	a0,0
60a26c50:	250e      	beqz	a1,60a26c6e <init_app_timers+0x2e>
60a26c52:	6d04      	li	a1,4
60a26c54:	edab      	neg	a1
60a26c56:	9f60      	lw	v1,0(a3)
60a26c58:	3290      	sll	v0,a0,4
60a26c5a:	e34d      	addu	v1,v0
60a26c5c:	a340      	lbu	v0,0(v1)
60a26c5e:	eaac      	and	v0,a1
60a26c60:	c340      	sb	v0,0(v1)
60a26c62:	4461      	addiu	v1,a0,1
60a26c64:	6783      	move	a0,v1
60a26c66:	a640      	lbu	v0,0(a2)
60a26c68:	ec11      	zeb	a0
60a26c6a:	ec43      	sltu	a0,v0
60a26c6c:	61f4      	btnez	60a26c56 <init_app_timers+0x16>
60a26c6e:	b405      	lw	a0,60a26c80 <init_app_timers+0x40>
60a26c70:	6e00      	li	a2,0
60a26c72:	c4c0      	sb	a2,0(a0)
60a26c74:	6a01      	li	v0,1
60a26c76:	e8a0      	jrc	ra
60a26c78:	9594      	lw	a1,592(sp)
60a26c7a:	9fc1      	lw	a2,4(a3)
60a26c7c:	95a4      	lw	a1,656(sp)
60a26c7e:	9fc1      	lw	a2,4(a3)
60a26c80:	9599      	lw	a1,612(sp)
60a26c82:	9fc1      	lw	a2,4(a3)

60a26c84 <standby_restart_all_app_timer>:
60a26c84:	f004 64f5 	save	a0,40,ra,s0-s1
60a26c88:	ed11      	zeb	a1
60a26c8a:	d504      	sw	a1,16(sp)
60a26c8c:	6900      	li	s1,0
60a26c8e:	2517      	beqz	a1,60a26cbe <standby_restart_all_app_timer+0x3a>
60a26c90:	950a      	lw	a1,40(sp)
60a26c92:	3430      	sll	a0,s1,4
60a26c94:	e581      	addu	s0,a1,a0
60a26c96:	a040      	lbu	v0,0(s0)
60a26c98:	6b03      	li	v1,3
60a26c9a:	ea6c      	and	v0,v1
60a26c9c:	7201      	cmpi	v0,1
60a26c9e:	6109      	btnez	60a26cb2 <standby_restart_all_app_timer+0x2e>
60a26ca0:	6c00      	li	a0,0
60a26ca2:	b209      	lw	v0,60a26cc4 <standby_restart_all_app_timer+0x40>
60a26ca4:	67c4      	move	a2,a0
60a26ca6:	6f1c      	li	a3,28
60a26ca8:	ea40      	jalr	v0
60a26caa:	67a4      	move	a1,a0
60a26cac:	a8e2      	lhu	a3,4(s0)
60a26cae:	e2f9      	addu	a2,v0,a3
60a26cb0:	d8c2      	sw	a2,8(s0)
60a26cb2:	4181      	addiu	a0,s1,1
60a26cb4:	6724      	move	s1,a0
60a26cb6:	9304      	lw	v1,16(sp)
60a26cb8:	e911      	zeb	s1
60a26cba:	e963      	sltu	s1,v1
60a26cbc:	61e9      	btnez	60a26c90 <standby_restart_all_app_timer+0xc>
60a26cbe:	6475      	restore	40,ra,s0-s1
60a26cc0:	e8a0      	jrc	ra
60a26cc2:	0000      	addiu	s0,sp,0
60a26cc4:	6009      	bteqz	60a26cd8 <applib_message_init+0x10>
60a26cc6:	bfc2      	lwu	a2,8(a3)

60a26cc8 <applib_message_init>:
60a26cc8:	64c3      	save	24,ra
60a26cca:	b406      	lw	a0,60a26ce0 <applib_message_init+0x18>
60a26ccc:	6d00      	li	a1,0
60a26cce:	9c60      	lw	v1,0(a0)
60a26cd0:	b205      	lw	v0,60a26ce4 <applib_message_init+0x1c>
60a26cd2:	a383      	lbu	a0,3(v1)
60a26cd4:	67c5      	move	a2,a1
60a26cd6:	ea40      	jalr	v0
60a26cd8:	6f1a      	li	a3,26
60a26cda:	6a01      	li	v0,1
60a26cdc:	6443      	restore	24,ra
60a26cde:	e8a0      	jrc	ra
60a26ce0:	959c      	lw	a1,624(sp)
60a26ce2:	9fc1      	lw	a2,4(a3)
60a26ce4:	6009      	bteqz	60a26cf8 <send_sync_msg_btmanager+0x10>
60a26ce6:	bfc2      	lwu	a2,8(a3)

60a26ce8 <send_sync_msg_btmanager>:
60a26ce8:	f00e 64f9 	save	a0-a3,72,ra,s0-s1
60a26cec:	b328      	lw	v1,60a26d8c <send_sync_msg_btmanager+0xa4>
60a26cee:	a34c      	lbu	v0,12(v1)
60a26cf0:	6900      	li	s1,0
60a26cf2:	6519      	move	t8,s1
60a26cf4:	2247      	beqz	v0,60a26d84 <send_sync_msg_btmanager+0x9c>
60a26cf6:	b527      	lw	a1,60a26d90 <send_sync_msg_btmanager+0xa8>
60a26cf8:	b027      	lw	s0,60a26d94 <send_sync_msg_btmanager+0xac>
60a26cfa:	9d80      	lw	a0,0(a1)
60a26cfc:	67d1      	move	a2,s1
60a26cfe:	67b1      	move	a1,s1
60a26d00:	e840      	jalr	s0
60a26d02:	6f14      	li	a3,20
60a26d04:	9513      	lw	a1,76(sp)
60a26d06:	0404      	addiu	a0,sp,16
60a26d08:	6e08      	li	a2,8
60a26d0a:	e840      	jalr	s0
60a26d0c:	67f1      	move	a3,s1
60a26d0e:	9212      	lw	v0,72(sp)
60a26d10:	f020 0402 	addiu	a0,sp,34
60a26d14:	2204      	beqz	v0,60a26d1e <send_sync_msg_btmanager+0x36>
60a26d16:	67a2      	move	a1,v0
60a26d18:	6e06      	li	a2,6
60a26d1a:	67f1      	move	a3,s1
60a26d1c:	1003      	b	60a26d24 <send_sync_msg_btmanager+0x3c>
60a26d1e:	67b1      	move	a1,s1
60a26d20:	6e06      	li	a2,6
60a26d22:	6f01      	li	a3,1
60a26d24:	e8c0      	jalrc	s0
60a26d26:	6d00      	li	a1,0
60a26d28:	b01b      	lw	s0,60a26d94 <send_sync_msg_btmanager+0xac>
60a26d2a:	040c      	addiu	a0,sp,48
60a26d2c:	67c5      	move	a2,a1
60a26d2e:	e840      	jalr	s0
60a26d30:	6f12      	li	a3,18
60a26d32:	960c      	lw	a2,48(sp)
60a26d34:	9414      	lw	a0,80(sp)
60a26d36:	d606      	sw	a2,24(sp)
60a26d38:	2c02      	bnez	a0,60a26d3e <send_sync_msg_btmanager+0x56>
60a26d3a:	020a      	addiu	v0,sp,40
60a26d3c:	1001      	b	60a26d40 <send_sync_msg_btmanager+0x58>
60a26d3e:	9214      	lw	v0,80(sp)
60a26d40:	d207      	sw	v0,28(sp)
60a26d42:	b216      	lw	v0,60a26d98 <send_sync_msg_btmanager+0xb0>
60a26d44:	6c03      	li	a0,3
60a26d46:	0504      	addiu	a1,sp,16
60a26d48:	6e00      	li	a2,0
60a26d4a:	ea40      	jalr	v0
60a26d4c:	6f18      	li	a3,24
60a26d4e:	5200      	slti	v0,0
60a26d50:	6002      	bteqz	60a26d56 <send_sync_msg_btmanager+0x6e>
60a26d52:	6902      	li	s1,2
60a26d54:	1009      	b	60a26d68 <send_sync_msg_btmanager+0x80>
60a26d56:	940c      	lw	a0,48(sp)
60a26d58:	9515      	lw	a1,84(sp)
60a26d5a:	b00f      	lw	s0,60a26d94 <send_sync_msg_btmanager+0xac>
60a26d5c:	6e00      	li	a2,0
60a26d5e:	e840      	jalr	s0
60a26d60:	6f14      	li	a3,20
60a26d62:	5200      	slti	v0,0
60a26d64:	6002      	bteqz	60a26d6a <send_sync_msg_btmanager+0x82>
60a26d66:	6904      	li	s1,4
60a26d68:	e92b      	neg	s1
60a26d6a:	6d00      	li	a1,0
60a26d6c:	b00a      	lw	s0,60a26d94 <send_sync_msg_btmanager+0xac>
60a26d6e:	67c5      	move	a2,a1
60a26d70:	040c      	addiu	a0,sp,48
60a26d72:	e840      	jalr	s0
60a26d74:	6f13      	li	a3,19
60a26d76:	b707      	lw	a3,60a26d90 <send_sync_msg_btmanager+0xa8>
60a26d78:	6d00      	li	a1,0
60a26d7a:	9f80      	lw	a0,0(a3)
60a26d7c:	67c5      	move	a2,a1
60a26d7e:	e840      	jalr	s0
60a26d80:	6f16      	li	a3,22
60a26d82:	6519      	move	t8,s1
60a26d84:	6758      	move	v0,t8
60a26d86:	6479      	restore	72,ra,s0-s1
60a26d88:	e8a0      	jrc	ra
60a26d8a:	0000      	addiu	s0,sp,0
60a26d8c:	a080      	lbu	a0,0(s0)
60a26d8e:	9fc1      	lw	a2,4(a3)
60a26d90:	95a0      	lw	a1,640(sp)
60a26d92:	9fc1      	lw	a2,4(a3)
60a26d94:	6005      	bteqz	60a26da0 <send_sync_msg_btmanager+0xb8>
60a26d96:	bfc2      	lwu	a2,8(a3)
60a26d98:	6009      	bteqz	60a26dac <send_sync_msg_btmanager+0xc4>
60a26d9a:	bfc2      	lwu	a2,8(a3)
Disassembly of section BANK_CONTROL_1_41:

60a66800 <com_open_config_file>:
60a66800:	64e5      	save	40,ra,s0
60a66802:	6d00      	li	a1,0
60a66804:	b011      	lw	s0,60a66848 <com_open_config_file+0x48>
60a66806:	67c5      	move	a2,a1
60a66808:	e840      	jalr	s0
60a6680a:	6f0d      	li	a3,13
60a6680c:	6782      	move	a0,v0
60a6680e:	b20e      	lw	v0,60a66844 <com_open_config_file+0x44>
60a66810:	6764      	move	v1,a0
60a66812:	da80      	sw	a0,0(v0)
60a66814:	2413      	beqz	a0,60a6683c <com_open_config_file+0x3c>
60a66816:	0504      	addiu	a1,sp,16
60a66818:	6e10      	li	a2,16
60a6681a:	e840      	jalr	s0
60a6681c:	6f11      	li	a3,17
60a6681e:	ec4f      	not	a0,v0
60a66820:	6b00      	li	v1,0
60a66822:	240c      	beqz	a0,60a6683c <com_open_config_file+0x3c>
60a66824:	677d      	move	v1,sp
60a66826:	a3b0      	lbu	a1,16(v1)
60a66828:	7563      	cmpi	a1,99
60a6682a:	6107      	btnez	60a6683a <com_open_config_file+0x3a>
60a6682c:	a3d1      	lbu	a2,17(v1)
60a6682e:	7666      	cmpi	a2,102
60a66830:	6104      	btnez	60a6683a <com_open_config_file+0x3a>
60a66832:	a3f2      	lbu	a3,18(v1)
60a66834:	6b01      	li	v1,1
60a66836:	7767      	cmpi	a3,103
60a66838:	6001      	bteqz	60a6683c <com_open_config_file+0x3c>
60a6683a:	6b00      	li	v1,0
60a6683c:	6743      	move	v0,v1
60a6683e:	6465      	restore	40,ra,s0
60a66840:	e8a0      	jrc	ra
60a66842:	0000      	addiu	s0,sp,0
60a66844:	a090      	lbu	a0,16(s0)
60a66846:	9fc1      	lw	a2,4(a3)
60a66848:	6009      	bteqz	60a6685c <com_get_config_struct+0x10>
60a6684a:	bfc2      	lwu	a2,8(a3)

60a6684c <com_get_config_struct>:
60a6684c:	f008 64f6 	save	a0-a1,48,ra,s0-s1
60a66850:	67a4      	move	a1,a0
60a66852:	ed31      	zeh	a1
60a66854:	b118      	lw	s1,60a668b4 <com_get_config_struct+0x68>
60a66856:	33ac      	sll	v1,a1,3
60a66858:	ee31      	zeh	a2
60a6685a:	d606      	sw	a2,24(sp)
60a6685c:	9980      	lw	a0,0(s1)
60a6685e:	67c3      	move	a2,v1
60a66860:	b016      	lw	s0,60a668b8 <com_get_config_struct+0x6c>
60a66862:	6d00      	li	a1,0
60a66864:	4e10      	addiu	a2,16
60a66866:	e840      	jalr	s0
60a66868:	6f0f      	li	a3,15
60a6686a:	ea4f      	not	v0
60a6686c:	6b00      	li	v1,0
60a6686e:	221f      	beqz	v0,60a668ae <com_get_config_struct+0x62>
60a66870:	9980      	lw	a0,0(s1)
60a66872:	0504      	addiu	a1,sp,16
60a66874:	6e08      	li	a2,8
60a66876:	e840      	jalr	s0
60a66878:	6f11      	li	a3,17
60a6687a:	ec4f      	not	a0,v0
60a6687c:	6b00      	li	v1,0
60a6687e:	2417      	beqz	a0,60a668ae <com_get_config_struct+0x62>
60a66880:	9604      	lw	a2,16(sp)
60a66882:	9980      	lw	a0,0(s1)
60a66884:	67a3      	move	a1,v1
60a66886:	e840      	jalr	s0
60a66888:	6f0f      	li	a3,15
60a6688a:	ee4f      	not	a2,v0
60a6688c:	6b00      	li	v1,0
60a6688e:	260f      	beqz	a2,60a668ae <com_get_config_struct+0x62>
60a66890:	9605      	lw	a2,20(sp)
60a66892:	9206      	lw	v0,24(sp)
60a66894:	9980      	lw	a0,0(s1)
60a66896:	eac3      	sltu	v0,a2
60a66898:	6003      	bteqz	60a668a0 <com_get_config_struct+0x54>
60a6689a:	950d      	lw	a1,52(sp)
60a6689c:	67c2      	move	a2,v0
60a6689e:	1001      	b	60a668a2 <com_get_config_struct+0x56>
60a668a0:	950d      	lw	a1,52(sp)
60a668a2:	e840      	jalr	s0
60a668a4:	6f11      	li	a3,17
60a668a6:	ef4f      	not	a3,v0
60a668a8:	6b00      	li	v1,0
60a668aa:	2701      	beqz	a3,60a668ae <com_get_config_struct+0x62>
60a668ac:	6b01      	li	v1,1
60a668ae:	6743      	move	v0,v1
60a668b0:	6476      	restore	48,ra,s0-s1
60a668b2:	e8a0      	jrc	ra
60a668b4:	a090      	lbu	a0,16(s0)
60a668b6:	9fc1      	lw	a2,4(a3)
60a668b8:	6009      	bteqz	60a668cc <com_get_config_default+0x10>
60a668ba:	bfc2      	lwu	a2,8(a3)

60a668bc <com_get_config_default>:
60a668bc:	64f6      	save	48,ra,s0-s1
60a668be:	67c4      	move	a2,a0
60a668c0:	b115      	lw	s1,60a66914 <com_get_config_default+0x58>
60a668c2:	ee31      	zeh	a2
60a668c4:	36cc      	sll	a2,3
60a668c6:	9980      	lw	a0,0(s1)
60a668c8:	b014      	lw	s0,60a66918 <com_get_config_default+0x5c>
60a668ca:	6d00      	li	a1,0
60a668cc:	4e10      	addiu	a2,16
60a668ce:	e840      	jalr	s0
60a668d0:	6f0f      	li	a3,15
60a668d2:	ea4f      	not	v0
60a668d4:	6b00      	li	v1,0
60a668d6:	221a      	beqz	v0,60a6690c <com_get_config_default+0x50>
60a668d8:	9980      	lw	a0,0(s1)
60a668da:	0504      	addiu	a1,sp,16
60a668dc:	6e08      	li	a2,8
60a668de:	e840      	jalr	s0
60a668e0:	6f11      	li	a3,17
60a668e2:	ec4f      	not	a0,v0
60a668e4:	6b00      	li	v1,0
60a668e6:	2412      	beqz	a0,60a6690c <com_get_config_default+0x50>
60a668e8:	9980      	lw	a0,0(s1)
60a668ea:	9604      	lw	a2,16(sp)
60a668ec:	67a3      	move	a1,v1
60a668ee:	e840      	jalr	s0
60a668f0:	6f0f      	li	a3,15
60a668f2:	ed4f      	not	a1,v0
60a668f4:	6b00      	li	v1,0
60a668f6:	250a      	beqz	a1,60a6690c <com_get_config_default+0x50>
60a668f8:	9980      	lw	a0,0(s1)
60a668fa:	6f11      	li	a3,17
60a668fc:	0506      	addiu	a1,sp,24
60a668fe:	e840      	jalr	s0
60a66900:	6e02      	li	a2,2
60a66902:	ef4f      	not	a3,v0
60a66904:	6b00      	li	v1,0
60a66906:	2702      	beqz	a3,60a6690c <com_get_config_default+0x50>
60a66908:	675d      	move	v0,sp
60a6690a:	aa6c      	lhu	v1,24(v0)
60a6690c:	6743      	move	v0,v1
60a6690e:	6476      	restore	48,ra,s0-s1
60a66910:	e8a0      	jrc	ra
60a66912:	0000      	addiu	s0,sp,0
60a66914:	a090      	lbu	a0,16(s0)
60a66916:	9fc1      	lw	a2,4(a3)
60a66918:	6009      	bteqz	60a6692c <.LBE2+0xc>
60a6691a:	bfc2      	lwu	a2,8(a3)

60a6691c <com_set_sound_out>:
60a6691c:	b202      	lw	v0,60a66924 <.LBE2+0x4>
60a6691e:	c287      	sb	a0,7(v0)

60a66920 <.LBE2>:
60a66920:	e820      	jr	ra
60a66922:	6a01      	li	v0,1
60a66924:	a094      	lbu	a0,20(s0)
60a66926:	9fc1      	lw	a2,4(a3)
Disassembly of section BANK_CONTROL_1_42:

60aa6800 <i2s_mfp_cfg>:
60aa6800:	b726      	lw	a3,60aa6898 <i2s_mfp_cfg+0x98>
60aa6802:	f200 6a01 	li	v0,513
60aa6806:	9fc0      	lw	a2,0(a3)
60aa6808:	ec4b      	neg	a0,v0
60aa680a:	ee8c      	and	a2,a0
60aa680c:	dfc0      	sw	a2,0(a3)
60aa680e:	b624      	lw	a2,60aa689c <i2s_mfp_cfg+0x9c>
60aa6810:	b325      	lw	v1,60aa68a4 <i2s_mfp_cfg+0xa4>
60aa6812:	9ea0      	lw	a1,0(a2)
60aa6814:	ed8c      	and	a1,a0
60aa6816:	dea0      	sw	a1,0(a2)
60aa6818:	b522      	lw	a1,60aa68a0 <i2s_mfp_cfg+0xa0>
60aa681a:	b424      	lw	a0,60aa68a8 <i2s_mfp_cfg+0xa8>
60aa681c:	9d40      	lw	v0,0(a1)
60aa681e:	ea6c      	and	v0,v1
60aa6820:	dd40      	sw	v0,0(a1)
60aa6822:	9d40      	lw	v0,0(a1)
60aa6824:	6bff      	li	v1,255
60aa6826:	ea8d      	or	v0,a0
60aa6828:	dd40      	sw	v0,0(a1)
60aa682a:	9f40      	lw	v0,0(a3)
60aa682c:	4382      	addiu	a0,v1,2
60aa682e:	eb8b      	neg	v1,a0
60aa6830:	ea6c      	and	v0,v1
60aa6832:	df40      	sw	v0,0(a3)
60aa6834:	9e80      	lw	a0,0(a2)
60aa6836:	b21e      	lw	v0,60aa68ac <i2s_mfp_cfg+0xac>
60aa6838:	ec6c      	and	a0,v1
60aa683a:	de80      	sw	a0,0(a2)
60aa683c:	9d80      	lw	a0,0(a1)
60aa683e:	b31d      	lw	v1,60aa68b0 <i2s_mfp_cfg+0xb0>
60aa6840:	ec4c      	and	a0,v0
60aa6842:	dd80      	sw	a0,0(a1)
60aa6844:	9d40      	lw	v0,0(a1)
60aa6846:	6c41      	li	a0,65
60aa6848:	ea6d      	or	v0,v1
60aa684a:	b31b      	lw	v1,60aa68b4 <i2s_mfp_cfg+0xb4>
60aa684c:	dd40      	sw	v0,0(a1)
60aa684e:	9b40      	lw	v0,0(v1)
60aa6850:	ec8b      	neg	a0
60aa6852:	ea8c      	and	v0,a0
60aa6854:	db40      	sw	v0,0(v1)
60aa6856:	b319      	lw	v1,60aa68b8 <i2s_mfp_cfg+0xb8>
60aa6858:	9b40      	lw	v0,0(v1)
60aa685a:	ea8c      	and	v0,a0
60aa685c:	b418      	lw	a0,60aa68bc <i2s_mfp_cfg+0xbc>
60aa685e:	db40      	sw	v0,0(v1)
60aa6860:	9c40      	lw	v0,0(a0)
60aa6862:	b318      	lw	v1,60aa68c0 <i2s_mfp_cfg+0xc0>
60aa6864:	ea6c      	and	v0,v1
60aa6866:	dc40      	sw	v0,0(a0)
60aa6868:	9c40      	lw	v0,0(a0)
60aa686a:	b317      	lw	v1,60aa68c4 <i2s_mfp_cfg+0xc4>
60aa686c:	ea6d      	or	v0,v1
60aa686e:	dc40      	sw	v0,0(a0)
60aa6870:	6b81      	li	v1,129
60aa6872:	9f40      	lw	v0,0(a3)
60aa6874:	eb6b      	neg	v1
60aa6876:	ea6c      	and	v0,v1
60aa6878:	df40      	sw	v0,0(a3)
60aa687a:	9ee0      	lw	a3,0(a2)
60aa687c:	ef6c      	and	a3,v1
60aa687e:	dee0      	sw	a3,0(a2)
60aa6880:	9d80      	lw	a0,0(a1)
60aa6882:	f59f 4b00 	addiu	v1,-640
60aa6886:	ec6c      	and	a0,v1
60aa6888:	dd80      	sw	a0,0(a1)
60aa688a:	9d40      	lw	v0,0(a1)
60aa688c:	f600 4b01 	addiu	v1,1537
60aa6890:	ea6d      	or	v0,v1
60aa6892:	dd40      	sw	v0,0(a1)
60aa6894:	e8a0      	jrc	ra
60aa6896:	0000      	addiu	s0,sp,0
60aa6898:	0014      	addiu	s0,sp,80
60aa689a:	c009      	sb	s0,9(s0)
60aa689c:	0018      	addiu	s0,sp,96
60aa689e:	c009      	sb	s0,9(s0)
60aa68a0:	0060      	addiu	s0,sp,384
60aa68a2:	c009      	sb	s0,9(s0)
60aa68a4:	ffff      	daddiu	a3,sp,124
60aa68a6:	ff3f      	daddiu	s1,sp,124
60aa68a8:	0000      	addiu	s0,sp,0
60aa68aa:	0080      	addiu	s0,sp,512
60aa68ac:	ffff      	daddiu	a3,sp,124
60aa68ae:	ffcf      	daddiu	a2,sp,60
60aa68b0:	0000      	addiu	s0,sp,0
60aa68b2:	0020      	addiu	s0,sp,128
60aa68b4:	0000      	addiu	s0,sp,0
60aa68b6:	c009      	sb	s0,9(s0)
60aa68b8:	0004      	addiu	s0,sp,16
60aa68ba:	c009      	sb	s0,9(s0)
60aa68bc:	0058      	addiu	s0,sp,352
60aa68be:	c009      	sb	s0,9(s0)
60aa68c0:	ffff      	daddiu	a3,sp,124
60aa68c2:	fff3      	daddiu	a3,sp,76
60aa68c4:	0000      	addiu	s0,sp,0
60aa68c6:	000c      	addiu	s0,sp,48
