
Example_PWC.adx:     file format elf32-nds32le
Example_PWC.adx
architecture: n1h_v3, flags 0x00000112:
EXEC_P, HAS_SYMS, D_PAGED
start address 0x00000000

Program Header:
    LOAD off    0x00001000 vaddr 0x00000000 paddr 0x00000000 align 2**12
         filesz 0x00006b38 memsz 0x00006b38 flags r-x
    LOAD off    0x00008000 vaddr 0x20004000 paddr 0x00006b40 align 2**12
         filesz 0x00000090 memsz 0x000000b8 flags rw-
private flags = 30808a52: n1 instructions

Sections:
Idx Name          Size      VMA       LMA       File off  Algn
  0 .vector       000000a4  00000000  00000000  00001000  2**2
                  CONTENTS, ALLOC, LOAD, READONLY, CODE
  1 .stub_section 00000060  000000a4  000000a4  000010a4  2**1
                  CONTENTS, ALLOC, LOAD, READONLY, CODE
  2 .text_*spi_flash.o 000017c4  00000104  00000104  00001104  2**2
                  CONTENTS, ALLOC, LOAD, READONLY, CODE
  3 .rodata_*spi_flash.o 000001c4  000018c8  000018c8  000028c8  2**2
                  CONTENTS, ALLOC, LOAD, READONLY, DATA
  4 .tcm_section  00000214  00001a8c  00001a8c  00002a8c  2**2
                  CONTENTS, ALLOC, LOAD, READONLY, CODE
  5 .driver.isr   00000670  00001ca0  00001ca0  00002ca0  2**1
                  CONTENTS, ALLOC, LOAD, READONLY, CODE
  6 .text         00003d44  00002310  00002310  00003310  2**2
                  CONTENTS, ALLOC, LOAD, READONLY, CODE
  7 .startup_section 00000394  00006054  00006054  00007054  2**2
                  CONTENTS, ALLOC, LOAD, READONLY, CODE
  8 .rodata       00000750  000063e8  000063e8  000073e8  2**2
                  CONTENTS, ALLOC, LOAD, READONLY, DATA
  9 .data         00000090  20004000  00006b40  00008000  2**2
                  CONTENTS, ALLOC, LOAD, DATA
 10 .bss          00000028  20004090  00006bd0  00008090  2**2
                  ALLOC
 11 .comment      0000002f  00000000  00000000  00008090  2**0
                  CONTENTS, READONLY
 12 .debug_aranges 000003e8  00000000  00000000  000080c0  2**3
                  CONTENTS, READONLY, DEBUGGING
 13 .debug_info   00005ecf  00000000  00000000  000084a8  2**0
                  CONTENTS, READONLY, DEBUGGING
 14 .debug_abbrev 00000b96  00000000  00000000  0000e377  2**0
                  CONTENTS, READONLY, DEBUGGING
 15 .debug_line   0000310a  00000000  00000000  0000ef0d  2**0
                  CONTENTS, READONLY, DEBUGGING
 16 .debug_frame  00000a90  00000000  00000000  00012018  2**2
                  CONTENTS, READONLY, DEBUGGING
 17 .debug_str    000123d3  00000000  00000000  00012aa8  2**0
                  CONTENTS, READONLY, DEBUGGING
 18 .debug_loc    00001522  00000000  00000000  00024e7b  2**0
                  CONTENTS, READONLY, DEBUGGING
 19 .debug_ranges 00000310  00000000  00000000  000263a0  2**3
                  CONTENTS, READONLY, DEBUGGING
 20 .debug_macro  0000365b  00000000  00000000  000266b0  2**0
                  CONTENTS, READONLY, DEBUGGING
SYMBOL TABLE:
00000000 l    d  .vector	00000000 .vector
000000a4 l    d  .stub_section	00000000 .stub_section
00000104 l    d  .text_*spi_flash.o	00000000 .text_*spi_flash.o
000018c8 l    d  .rodata_*spi_flash.o	00000000 .rodata_*spi_flash.o
00001a8c l    d  .tcm_section	00000000 .tcm_section
00001ca0 l    d  .driver.isr	00000000 .driver.isr
00002310 l    d  .text	00000000 .text
00006054 l    d  .startup_section	00000000 .startup_section
000063e8 l    d  .rodata	00000000 .rodata
20004000 l    d  .data	00000000 .data
20004090 l    d  .bss	00000000 .bss
00000000 l    d  .comment	00000000 .comment
00000000 l    d  .debug_aranges	00000000 .debug_aranges
00000000 l    d  .debug_info	00000000 .debug_info
00000000 l    d  .debug_abbrev	00000000 .debug_abbrev
00000000 l    d  .debug_line	00000000 .debug_line
00000000 l    d  .debug_frame	00000000 .debug_frame
00000000 l    d  .debug_str	00000000 .debug_str
00000000 l    d  .debug_loc	00000000 .debug_loc
00000000 l    d  .debug_ranges	00000000 .debug_ranges
00000000 l    d  .debug_macro	00000000 .debug_macro
00000000 l    df *ABS*	00000000 ./startup/crt0.o
00000000 l       .vector	00000000 exception_vector
00006398 l       .startup_section	00000000 ___start
000060d0 l       .startup_section	00000000 OS_Trap_TLB_Fill
000060e0 l       .startup_section	00000000 OS_Trap_PTE_Not_Present
000060f0 l       .startup_section	00000000 OS_Trap_TLB_Misc
00006100 l       .startup_section	00000000 OS_Trap_TLB_VLPT_Miss
00006110 l       .startup_section	00000000 OS_Trap_Machine_Error
00006120 l       .startup_section	00000000 OS_Trap_Debug_Related
00006130 l       .startup_section	00000000 OS_Trap_General_Exception
00006140 l       .startup_section	00000000 OS_Trap_Syscall
0000623a l       .startup_section	00000000 OS_Trap_Interrupt_HW0
00006244 l       .startup_section	00000000 OS_Trap_Interrupt_HW1
0000624e l       .startup_section	00000000 OS_Trap_Interrupt_HW2
00006258 l       .startup_section	00000000 OS_Trap_Interrupt_HW3
00006262 l       .startup_section	00000000 OS_Trap_Interrupt_HW4
0000626c l       .startup_section	00000000 OS_Trap_Interrupt_HW5
00006292 l       .startup_section	00000000 OS_Trap_Interrupt_HW6
0000629c l       .startup_section	00000000 OS_Trap_Interrupt_HW7
000062a6 l       .startup_section	00000000 OS_Trap_Interrupt_HW8
000062b0 l       .startup_section	00000000 OS_Trap_Interrupt_HW9
000062ba l       .startup_section	00000000 OS_Trap_Interrupt_HW10
000062c4 l       .startup_section	00000000 OS_Trap_Interrupt_HW11
000062ce l       .startup_section	00000000 OS_Trap_Interrupt_HW12
000062d8 l       .startup_section	00000000 OS_Trap_Interrupt_HW13
000062e2 l       .startup_section	00000000 OS_Trap_Interrupt_HW14
000062ec l       .startup_section	00000000 OS_Trap_Interrupt_HW15
000062f6 l       .startup_section	00000000 OS_Trap_Interrupt_HW16
00006300 l       .startup_section	00000000 OS_Trap_Interrupt_HW17
0000630a l       .startup_section	00000000 OS_Trap_Interrupt_HW18
00006314 l       .startup_section	00000000 OS_Trap_Interrupt_HW19
0000631e l       .startup_section	00000000 OS_Trap_Interrupt_HW20
00006328 l       .startup_section	00000000 OS_Trap_Interrupt_HW21
00006332 l       .startup_section	00000000 OS_Trap_Interrupt_HW22
0000633c l       .startup_section	00000000 OS_Trap_Interrupt_HW23
00006346 l       .startup_section	00000000 OS_Trap_Interrupt_HW24
00006350 l       .startup_section	00000000 OS_Trap_Interrupt_HW25
0000635a l       .startup_section	00000000 OS_Trap_Interrupt_HW26
00006364 l       .startup_section	00000000 OS_Trap_Interrupt_HW27
0000636e l       .startup_section	00000000 OS_Trap_Interrupt_HW28
00006378 l       .startup_section	00000000 OS_Trap_Interrupt_HW29
00006382 l       .startup_section	00000000 OS_Trap_Interrupt_HW30
0000638c l       .startup_section	00000000 OS_Trap_Interrupt_HW31
000000a4 l       .vector	00000000 exception_vector_end
00006054 l       .startup_section	00000000 ISR_TABLE
00006150 l       .startup_section	00000000 OS_Trap_Int_Comm
00000000 l    df *ABS*	00000000 init-default.c
00002866 l     F .text	00000002 Default_Handler
00000000 l    df *ABS*	00000000 spi_flash.c
00000104 l     F .text_*spi_flash.o	0000001a flash_udelay
0000011e l     F .text_*spi_flash.o	0000001a flash_delayms
00000138 l     F .text_*spi_flash.o	00000022 FshcGpioSet
0000015a l     F .text_*spi_flash.o	0000001a FshcInit
00000174 l     F .text_*spi_flash.o	0000001a FshcFlashBusyStatusSet
0000018e l     F .text_*spi_flash.o	00000034 FshcSendCmd
000001c2 l     F .text_*spi_flash.o	00000232 FshcSpiIOModeCfg
20004094 l     O .bss	00000012 SpiFlashInfo
000003f4 l     F .text_*spi_flash.o	00000046 SpiFlashResetCRM
0000043c l     F .text_*spi_flash.o	000000dc SpiFlashHpmModeSet
00000518 l     F .text_*spi_flash.o	0000010c SpiFlashReadId
000018c8 l     O .rodata_*spi_flash.o	000001c2 SpiFlash
00000624 l     F .text_*spi_flash.o	000000b6 SpiFlashReadStatus
000006da l     F .text_*spi_flash.o	0000002e SpiFlashIsBusy
00000708 l     F .text_*spi_flash.o	0000018a SpiFlashWriteStatus
00000892 l     F .text_*spi_flash.o	000000e0 SpiFlashIOModeCfg
00000972 l     F .text_*spi_flash.o	0000007a SpiFlashDeepPowerDown
000009ec l     F .text_*spi_flash.o	0000006a SpiFlashReleaseFromDeepPowerDown
00000a58 l     F .text_*spi_flash.o	0000018e SpiFlashWriteLock
00000be8 l     F .text_*spi_flash.o	0000000e Flash_GIE_DISABLE
00000bf6 l     F .text_*spi_flash.o	0000000a Flash_GIE_ENABLE
00000d2e l     F .text_*spi_flash.o	000001ba SpiFlashWriteUnLock
00000000 l    df *ABS*	00000000 clk.c
00000000 l    df *ABS*	00000000 gpio.c
00000000 l    df *ABS*	00000000 timeout.c
00000000 l    df *ABS*	00000000 pwc_example.c
0000237c l     F .text	0000008e PWC_GpioConfigInit
0000240a l     F .text	00000064 PWM_GpioConfigInit
0000666c l       .rodata	00000000 .LC0
00000000 l    df *ABS*	00000000 dma.c
00000000 l    df *ABS*	00000000 uarts.c
00004bc0 l     F .text	00000056 UART_BaudClkGet
00000000 l    df *ABS*	00000000 uarts_interface.c
00000000 l    df *ABS*	00000000 interrupt.c
00000000 l    df *ABS*	00000000 retarget.c
00000000 l    df *ABS*	00000000 chip_info.c
00000000 l    df *ABS*	00000000 core_d1088.c
00000000 l    df *ABS*	00000000 efuse.c
00000000 l    df *ABS*	00000000 remap.c
00000000 l    df *ABS*	00000000 timer.c
00000000 l    df *ABS*	00000000 watchdog.c
00000000 l    df *ABS*	00000000 _divdi3.o
00000000 l    df *ABS*	00000000 _udivmoddi4.o
00005130 l     F .text	00000058 fudiv_qrnnd
00000000 l    df *ABS*	00000000 lib_a-memcpy.o
00000000 l    df *ABS*	00000000 lib_a-memset.o
00000000 l    df *ABS*	00000000 printf.c
00000000 l    df *ABS*	00000000 puts.c
00000000 l    df *ABS*	00000000 vprintf.c
00005396 l     F .text	00000034 vprintf_help
200040ac l     O .bss	00000004 output_idx
200040b0 l     O .bss	00000004 output_buff
00000000 l    df *ABS*	00000000 do_printf.c
00000000 l    df *ABS*	00000000 printf_f.c
000058c0 l     F .text	00000032 sep_frac
00000000 l    df *ABS*	00000000 lib_a-strcpy.o
00000000 l    df *ABS*	00000000 lib_a-strlen.o
00000000 l    df *ABS*	00000000 abs.c
00000000 l    df *ABS*	00000000 _write.o
00000000 l    df *ABS*	00000000 libgcc2.c
00000000 l    df *ABS*	00000000 libgcc2.c
00000000 l    df *ABS*	00000000 
00000000 l       *ABS*	00000000 NDS_SAG_LMA_EILM
00000000 l       *ABS*	00000000 EILM_BEGIN
000021a0 g     F .driver.isr	00000014 PastTimeGet
00002c02 g     F .text	00000070 putchar
00002bce g     F .text	00000018 NVIC_EnableIRQ
000046a0 g     F .text	00000056 PWC_Disable
00005fc4 g     F .text	00000012 strcpy
0000602c g     F .text	00000026 .hidden __ashldi3
00001c4a g     F .tcm_section	00000054 DelayMs
00002866  w    F .text	00000002 SpdifInterrupt
20004090 g     O .bss	00000001 IsSwUartActedAsUARTFlag
00001bf8 g     F .tcm_section	00000052 __udelay
000050f0 g     F .text	0000003e .hidden __divdi3
200040a8 g     O .bss	00000004 gSysTick
000030ca g     F .text	00000062 EnableMPU
0000249a g     F .text	00000154 PwcInterruptMode
00001120 g     F .text_*spi_flash.o	0000034e SpiFlashWrite
0000533c g     F .text	0000000a printf
00002fb4 g     F .text	0000008e Clock_SysClkSelect
000014f6 g     F .text_*spi_flash.o	00000042 SpiFlashResume
0000494c g     F .text	00000212 PWM_Config
00002866  w    F .text	00000002 I2C_Interrupt
0000246e g     F .text	0000002c GetChar
000050ca g     F .text	00000024 WDG_Disable
00001724 g     F .text_*spi_flash.o	000000ce SpiFlashInit
00003f98 g     F .text	00000198 Timer_Config
00002c00  w    F .text	00000002 SwUartSend
2000406c g     O .data	00000020 DMADintTable
20004000 g     O .data	00000008 UARTS_SendByte_MAP
00002be6 g     F .text	0000001a NVIC_DisableIRQ
00001f32 g     F .driver.isr	0000009a DMA4_Interrupt
00004324 g     F .text	000000b2 Timer_InterruptFlagClear
00003f28 g     F .text	0000002a SysTickInit
00002d6a g     F .text	00000070 Clock_Config
000017f2 g     F .text_*spi_flash.o	00000006 SpiFlashInfoGet
00002866  w    F .text	00000002 BLE_Interrupt
00004640 g     F .text	0000005e PWC_Enable
00004474 g     F .text	000001cc PWC_Config
000052e0 g     F .text	0000002c memcpy
00002bae g     F .text	0000000a GIE_ENABLE
00005346 g     F .text	00000050 puts
20004091 g     O .bss	00000001 DebugPrintPort
00003ef8 g     F .text	00000030 Remap_InitTcm
000025ee g     F .text	0000016e PwcSingleOrContinueMode
00002dda g     F .text	0000001a WaitOscillateWork
00006bd0 g       *ABS*	00000000 EILM_SIZE
00002334 g     F .text	00000012 UART0_RecvWpr
0000309a g     F .text	00000010 Clock_Module1Enable
00001aa4 g     F .tcm_section	0000000a Clock_CoreClkDivGet
00004224 g     F .text	00000086 Timer_InterrputSrcEnable
00005188 g     F .text	00000158 .hidden __udivmoddi4
00002ac4 g     F .text	000000a2 __cpu_init
00002c92 g     F .text	00000024 DbgUartInit
00004130 g     F .text	00000076 Timer_Start
20004024 g     O .data	00000004 gAPLLWorkFreq
00003f52  w    F .text	00000018 SystickInterrupt
00002866  w    F .text	00000002 GpioInterrupt
00004f96 g     F .text	0000005a UART0_Recv
000021b4 g     F .driver.isr	00000020 TimeOutSet
00000d12 g     F .text_*spi_flash.o	0000001c ByteRecombineToDword
000046f8 g     F .text	000000c2 PWC_IOCTRL
00002866  w    F .text	00000002 SWInterrupt
00002866  w    F .text	00000002 SDIO0_Interrupt
0000228a  w    F .driver.isr	00000086 UART1_Interrupt
20004020 g     O .data	00000004 gSOCInFreq
00002bc6 g     F .text	00000008 GIE_STATE_GET
00002866  w    F .text	00000002 FFTInterrupt
00005418 g     F .text	000004a6 do_printf
00002066 g     F .driver.isr	0000009a DMA6_Interrupt
0000146e g     F .text_*spi_flash.o	00000038 SpiFlashGetStatus
00001ad8 g     F .tcm_section	0000006c Clock_CoreClockFreqGet
000043d8 g     F .text	0000009a PWC_GpioConfig
00002df4 g     F .text	000000a6 Clock_RcFreqGet
00002866  w    F .text	00000002 IRInterrupt
00002866  w    F .text	00000002 OS_Trap_Interrupt_SWI
00001ce4 g     F .driver.isr	00000080 DMA0_Interrupt
00002b8c g     F .text	00000022 __init
00001ad2 g     F .tcm_section	00000006 Clock_APllFreqGet
00003e5e g     F .text	0000009a Remap_AddrRemapSet
000010ba g     F .text_*spi_flash.o	00000066 SpiFlashEraseResume
2000402c g     O .data	00000020 DMAEintTable
00006004 g     F .text	00000028 .hidden __lshrdi3
2000404c g     O .data	00000020 DMATintTable
000069bc g     O .rodata	000000e0 MPUConfigTable
00002868 g     F .text	00000228 ExceptionCommHandler
000053ca g     F .text	0000004c vprintf
00004b60 g     F .text	0000005e PWM_Enable
20004058  w      .data	00000000 _FP_BASE_
20004008 g     O .data	00000008 UARTS_Recv_MAP
00002cc8 g     F .text	00000096 Chip_Init
00002e9a g     F .text	0000011a Clock_PllLock
000058f2 g     F .text	000006d2 _printf_float
00001a8c g     F .tcm_section	00000018 Clock_CoreClkDivSet
00004c16 g     F .text	000001c0 UART0_Init
00000000 g     F .vector	0000006c _start
20004058  w      .data	00000000 _SDA_BASE_
00002d5e g     F .text	0000000c Chip_MemInit
00002866  w    F .text	00000002 I2sInterrupt
00002bb8 g     F .text	0000000e GIE_DISABLE
00003042 g     F .text	00000058 Clock_UARTClkSelect
00000cfe g     F .text_*spi_flash.o	00000014 SpiFlashClkSwitch
00001bd4 g     F .tcm_section	00000010 GPIO_RegOneBitSet
00002866  w    F .text	00000002 UART0_Interrupt
00002346 g     F .text	00000012 UART1_RecvWpr
00003f6a g     F .text	0000002c ClockFreqGet
00002866  w    F .text	00000002 Timer4Interrupt
00002cb6 g     F .text	00000012 Chip_VMIDDetectDisable
00002b66 g     F .text	00000026 HardwareStackProtectEnable
00000000  w      .vector	00000000 _RELAX_END_
00002866  w    F .text	00000002 Timer2Interrupt
00001660 g     F .text_*spi_flash.o	000000c4 FlashErase
20004090 g       .bss	00000000 __bss_start
0000530c g     F .text	0000002e memset
0000275c g     F .text	0000010a main
00002866  w    F .text	00000002 Timer6Interrupt
00002322 g     F .text	00000012 UART1_InitWpr
0000508a g     F .text	00000040 UART1_SendByte
000030aa g     F .text	00000010 Clock_Module2Enable
000031d4 g     F .text	00000c8a GPIO_PortAModeSet
000047bc g     F .text	00000190 PWM_GpioConfig
000030ba g     F .text	00000010 Clock_Module3Enable
00002310 g     F .text	00000012 UART0_InitWpr
200040b4 g     O .bss	00000004 _NDS32_REENT__errno
00001fcc g     F .driver.isr	0000009a DMA5_Interrupt
0000316e g     F .text	00000066 Efuse_ReadData
00002866  w    F .text	00000002 WakeupInterrupt
00001dfe g     F .driver.isr	0000009a DMA2_Interrupt
20004019 g     O .data	00000001 IsDpllFreeRun
00002866  w    F .text	00000002 SPIS_Interrupt
0000219a g     F .driver.isr	00000006 GetSysTick1MsCnt
000021d4 g     F .driver.isr	00000030 IsTimeOut
0000504a g     F .text	00000040 UART0_SendByte
000042ac g     F .text	00000076 Timer_InterruptFlagGet
000000a4 g     F .stub_section	00000060 stub
00001b44 g     F .tcm_section	00000036 Clock_SysClockFreqGet
00000000  w      *ABS*	00000000 _ITB_BASE_
00001aae g     F .tcm_section	0000001e Clock_SysClkDivGet
00006b40 g       *ABS*	00000000 __data_lmastart
00005fec g     F .text	00000018 _write
00001b7a g     F .tcm_section	0000005a Clock_SysClkDivSet
20004090 g       .bss	00000000 _edata
000041a8 g     F .text	0000007c Timer_Pause
200040b8 g       .bss	00000000 _end
00000c00 g     F .text_*spi_flash.o	0000008a FshcClkSwitch
20004010 g     O .data	00000008 UARTS_Init_MAP
0000236a g     F .text	00000012 UART1_SendByteWpr
000017f8 g     F .text_*spi_flash.o	000000ce SpiFlashIOCtrl
00002a90 g     F .text	00000034 __c_init
00000ee8 g     F .text_*spi_flash.o	000001d2 SpiFlashRead
20004018 g     O .data	00000001 IsApllFreeRun
00002358 g     F .text	00000012 UART0_SendByteWpr
00002866  w    F .text	00000002 RtcInterrupt
00002866  w    F .text	00000002 BT_Interrupt
0000312c g     F .text	00000042 EnableIDCache
000014a6 g     F .text_*spi_flash.o	00000050 SpiFlashFshcStatusSetIdle
00001d64 g     F .driver.isr	0000009a DMA1_Interrupt
20004028 g     O .data	00000004 gPLLWorkFreq
00002866  w    F .text	00000002 SPIM_Interrupt
00005fd8 g     F .text	0000000c strlen
20004000 g       *ABS*	00000000 _stack
00002100 g     F .driver.isr	0000009a DMA7_Interrupt
00001e98 g     F .driver.isr	0000009a DMA3_Interrupt
00005fe4 g     F .text	00000006 abs
20004000 g       .data	00000000 __data_start
00001538 g     F .text_*spi_flash.o	00000128 SpiFlashErase
00002c72 g     F .text	00000020 nds_write
00001acc g     F .tcm_section	00000006 Clock_PllFreqGet
00000c8a g     F .text_*spi_flash.o	00000074 SpiFlashResumDelaySet
2000401c g     O .data	00000004 rc_clk_freq
00004dd6 g     F .text	000001c0 UART1_Init
00004ff0 g     F .text	0000005a UART1_Recv
00002866  w    F .text	00000002 Timer5Interrupt
00002866  w    F .text	00000002 UsbInterrupt
00001ca0 g     F .driver.isr	00000044 Timer3Interrupt
00001be4 g     F .tcm_section	00000012 GPIO_RegOneBitClear



Disassembly of section .vector:

00000000 <_start>:
   0:	48 00 31 cc 	j 6398 <___start>
   4:	48 00 30 66 	j 60d0 <OS_Trap_TLB_Fill>
   8:	48 00 30 6c 	j 60e0 <OS_Trap_PTE_Not_Present>
   c:	48 00 30 72 	j 60f0 <OS_Trap_TLB_Misc>
  10:	48 00 30 78 	j 6100 <OS_Trap_TLB_VLPT_Miss>
  14:	48 00 30 7e 	j 6110 <OS_Trap_Machine_Error>
  18:	48 00 30 84 	j 6120 <OS_Trap_Debug_Related>
  1c:	48 00 30 8a 	j 6130 <OS_Trap_General_Exception>
  20:	48 00 30 90 	j 6140 <OS_Trap_Syscall>
  24:	48 00 31 0b 	j 623a <OS_Trap_Interrupt_HW0>
  28:	48 00 31 0e 	j 6244 <OS_Trap_Interrupt_HW1>
  2c:	48 00 31 11 	j 624e <OS_Trap_Interrupt_HW2>
  30:	48 00 31 14 	j 6258 <OS_Trap_Interrupt_HW3>
  34:	48 00 31 17 	j 6262 <OS_Trap_Interrupt_HW4>
  38:	48 00 31 1a 	j 626c <OS_Trap_Interrupt_HW5>
  3c:	48 00 31 2b 	j 6292 <OS_Trap_Interrupt_HW6>
  40:	48 00 31 2e 	j 629c <OS_Trap_Interrupt_HW7>
  44:	48 00 31 31 	j 62a6 <OS_Trap_Interrupt_HW8>
  48:	48 00 31 34 	j 62b0 <OS_Trap_Interrupt_HW9>
  4c:	48 00 31 37 	j 62ba <OS_Trap_Interrupt_HW10>
  50:	48 00 31 3a 	j 62c4 <OS_Trap_Interrupt_HW11>
  54:	48 00 31 3d 	j 62ce <OS_Trap_Interrupt_HW12>
  58:	48 00 31 40 	j 62d8 <OS_Trap_Interrupt_HW13>
  5c:	48 00 31 43 	j 62e2 <OS_Trap_Interrupt_HW14>
  60:	48 00 31 46 	j 62ec <OS_Trap_Interrupt_HW15>
  64:	48 00 31 49 	j 62f6 <OS_Trap_Interrupt_HW16>
  68:	48 00 31 4c 	j 6300 <OS_Trap_Interrupt_HW17>
  6c:	48 00 31 4f 	j 630a <OS_Trap_Interrupt_HW18>
  70:	48 00 31 52 	j 6314 <OS_Trap_Interrupt_HW19>
  74:	48 00 31 55 	j 631e <OS_Trap_Interrupt_HW20>
  78:	48 00 31 58 	j 6328 <OS_Trap_Interrupt_HW21>
  7c:	48 00 31 5b 	j 6332 <OS_Trap_Interrupt_HW22>
  80:	48 00 31 5e 	j 633c <OS_Trap_Interrupt_HW23>
  84:	48 00 31 61 	j 6346 <OS_Trap_Interrupt_HW24>
  88:	48 00 31 64 	j 6350 <OS_Trap_Interrupt_HW25>
  8c:	48 00 31 67 	j 635a <OS_Trap_Interrupt_HW26>
  90:	48 00 31 6a 	j 6364 <OS_Trap_Interrupt_HW27>
  94:	48 00 31 6d 	j 636e <OS_Trap_Interrupt_HW28>
  98:	48 00 31 70 	j 6378 <OS_Trap_Interrupt_HW29>
  9c:	48 00 31 73 	j 6382 <OS_Trap_Interrupt_HW30>
  a0:	48 00 31 76 	j 638c <OS_Trap_Interrupt_HW31>

Disassembly of section .stub_section:

000000a4 <stub>:
  a4:	ff ff       	or33 $r7,$r7
  a6:	ff ff       	or33 $r7,$r7
  a8:	ff ff       	or33 $r7,$r7
  aa:	ff ff       	or33 $r7,$r7
  ac:	ff ff       	or33 $r7,$r7
  ae:	ff ff       	or33 $r7,$r7
  b0:	00 00 10 00 	lbi $r0,[$r0+#0x1000]
  b4:	00 00 1d 00 	lbi $r0,[$r0+#0x1d00]
  b8:	01 00 00 01 	lbi $r16,[$r0+#0x1]
  bc:	ff ff       	or33 $r7,$r7
  be:	ff ff       	or33 $r7,$r7
  c0:	c9 bd       	bnez38 $r1,3a <_ITB_BASE_+0x3a>
  c2:	be b0       	swi37 $r6,[$fp+#0xc0]
  c4:	06 07 00 00 	*unknown*
  c8:	ff ff       	or33 $r7,$r7
  ca:	ff ff       	or33 $r7,$r7
  cc:	ff ff       	or33 $r7,$r7
  ce:	ff ff       	or33 $r7,$r7
  d0:	ff ff       	or33 $r7,$r7
  d2:	ff ff       	or33 $r7,$r7
  d4:	46 48 44 03 	sethi $r4,#0x84403
  d8:	ff ff       	or33 $r7,$r7
  da:	ff ff       	or33 $r7,$r7
  dc:	ff ff       	or33 $r7,$r7
  de:	ff ff       	or33 $r7,$r7
  e0:	ff ff       	or33 $r7,$r7
  e2:	ff ff       	or33 $r7,$r7
  e4:	ff ff       	or33 $r7,$r7
  e6:	ff ff       	or33 $r7,$r7
  e8:	ff ff       	or33 $r7,$r7
  ea:	ff ff       	or33 $r7,$r7
  ec:	ff ff       	or33 $r7,$r7
  ee:	ff ff       	or33 $r7,$r7
  f0:	ff ff       	or33 $r7,$r7
  f2:	ff ff       	or33 $r7,$r7
  f4:	ff ff       	or33 $r7,$r7
  f6:	ff ff       	or33 $r7,$r7
  f8:	ff ff       	or33 $r7,$r7
  fa:	ff ff       	or33 $r7,$r7
  fc:	ff ff       	or33 $r7,$r7
  fe:	ff 00       	*unknown*
 100:	ff ff       	or33 $r7,$r7
 102:	dd 9e       	ret5 $lp

Disassembly of section .text_*spi_flash.o:

00000104 <flash_udelay>:
     104:	ef f8       	addi10.sp #-8
     106:	fa 31       	movpi45 $r1,#0x21
     108:	fe 0c       	mul33 $r0,$r1
     10a:	f0 81       	swi37.sp $r0,[+#0x4]
     10c:	d5 04       	j8 114 <flash_udelay+0x10>
     10e:	f0 01       	lwi37.sp $r0,[+#0x4]
     110:	8e 01       	subi45 $r0,#0x1
     112:	f0 81       	swi37.sp $r0,[+#0x4]
     114:	f0 01       	lwi37.sp $r0,[+#0x4]
     116:	4e 06 ff fc 	bgtz $r0,10e <flash_udelay+0xa>
     11a:	ec 08       	addi10.sp #0x8
     11c:	dd 9e       	ret5 $lp

0000011e <flash_delayms>:
     11e:	3a 6f 98 bc 	smw.adm $r6,[$sp],$r6,#0x2    ! {$r6, $lp}
     122:	d5 06       	j8 12e <flash_delayms+0x10>
     124:	44 00 03 e8 	movi $r0,#0x3e8
     128:	49 ff ff ee 	jal 104 <flash_udelay>
     12c:	80 06       	mov55 $r0,$r6
     12e:	9f 81       	subi333 $r6,$r0,#0x1
     130:	c8 fa       	bnez38 $r0,124 <flash_delayms+0x6>
     132:	3a 6f 98 84 	lmw.bim $r6,[$sp],$r6,#0x2    ! {$r6, $lp}
     136:	dd 9e       	ret5 $lp

00000138 <FshcGpioSet>:
     138:	5a 08 02 10 	bnec $r0,#0x2,158 <FshcGpioSet+0x20>
     13c:	46 04 00 10 	sethi $r0,#0x40010
     140:	00 20 00 c8 	lbi $r2,[$r0+#0xc8]
     144:	44 1f ff 80 	movi $r1,#-128
     148:	fe 8f       	or33 $r2,$r1
     14a:	10 20 00 c8 	sbi $r2,[$r0+#0xc8]
     14e:	00 20 00 cc 	lbi $r2,[$r0+#0xcc]
     152:	fe 57       	or33 $r1,$r2
     154:	10 10 00 cc 	sbi $r1,[$r0+#0xcc]
     158:	dd 9e       	ret5 $lp

0000015a <FshcInit>:
     15a:	46 14 00 07 	sethi $r1,#0x40007
     15e:	c0 06       	beqz38 $r0,16a <FshcInit+0x10>
     160:	a0 0a       	lwi333 $r0,[$r1+#0x8]
     162:	58 00 00 01 	ori $r0,$r0,#0x1
     166:	a8 0a       	swi333 $r0,[$r1+#0x8]
     168:	dd 9e       	ret5 $lp
     16a:	a0 0a       	lwi333 $r0,[$r1+#0x8]
     16c:	66 00 00 01 	bitci $r0,$r0,#0x1
     170:	a8 0a       	swi333 $r0,[$r1+#0x8]
     172:	dd 9e       	ret5 $lp

00000174 <FshcFlashBusyStatusSet>:
     174:	46 14 00 07 	sethi $r1,#0x40007
     178:	c0 06       	beqz38 $r0,184 <FshcFlashBusyStatusSet+0x10>
     17a:	a0 0a       	lwi333 $r0,[$r1+#0x8]
     17c:	58 00 00 08 	ori $r0,$r0,#0x8
     180:	a8 0a       	swi333 $r0,[$r1+#0x8]
     182:	dd 9e       	ret5 $lp
     184:	a0 0a       	lwi333 $r0,[$r1+#0x8]
     186:	66 00 00 08 	bitci $r0,$r0,#0x8
     18a:	a8 0a       	swi333 $r0,[$r1+#0x8]
     18c:	dd 9e       	ret5 $lp

0000018e <FshcSendCmd>:
     18e:	46 54 00 07 	sethi $r5,#0x40007
     192:	a8 2c       	swi333 $r0,[$r5+#0x10]
     194:	94 4e       	slli333 $r1,$r1,#0x6
     196:	fe 8f       	or33 $r2,$r1
     198:	a8 ae       	swi333 $r2,[$r5+#0x18]
     19a:	a8 ef       	swi333 $r3,[$r5+#0x1c]
     19c:	a9 2b       	swi333 $r4,[$r5+#0xc]
     19e:	84 21       	movi55 $r1,#0x1
     1a0:	14 12 80 08 	swi $r1,[$r5+#0x20]
     1a4:	46 04 00 30 	sethi $r0,#0x40030
     1a8:	84 40       	movi55 $r2,#0x0
     1aa:	b6 40       	swi450 $r2,[$r0]
     1ac:	b6 20       	swi450 $r1,[$r0]
     1ae:	84 22       	movi55 $r1,#0x2
     1b0:	b6 20       	swi450 $r1,[$r0]
     1b2:	cc 07       	bnez38 $r4,1c0 <FshcSendCmd+0x32>
     1b4:	46 04 00 07 	sethi $r0,#0x40007
     1b8:	04 00 00 0b 	lwi $r0,[$r0+#0x2c]
     1bc:	96 04       	xlsb33 $r0,$r0
     1be:	c8 fb       	bnez38 $r0,1b4 <FshcSendCmd+0x26>
     1c0:	dd 9e       	ret5 $lp

000001c2 <FshcSpiIOModeCfg>:
     1c2:	c1 0d       	beqz38 $r1,1dc <FshcSpiIOModeCfg+0x1a>
     1c4:	c0 0c       	beqz38 $r0,1dc <FshcSpiIOModeCfg+0x1a>
     1c6:	2e 10 00 3c 	lbi.gp $r1,[+#0x3c]
     1ca:	96 48       	zeb33 $r1,$r1
     1cc:	5a 18 c8 08 	bnec $r1,#0xc8,1dc <FshcSpiIOModeCfg+0x1a>
     1d0:	84 60       	movi55 $r3,#0x0
     1d2:	46 14 00 07 	sethi $r1,#0x40007
     1d6:	14 30 80 11 	swi $r3,[$r1+#0x44]
     1da:	d5 08       	j8 1ea <FshcSpiIOModeCfg+0x28>
     1dc:	46 14 00 07 	sethi $r1,#0x40007
     1e0:	84 61       	movi55 $r3,#0x1
     1e2:	14 30 80 11 	swi $r3,[$r1+#0x44]
     1e6:	14 30 80 13 	swi $r3,[$r1+#0x4c]
     1ea:	46 44 00 07 	sethi $r4,#0x40007
     1ee:	04 32 00 10 	lwi $r3,[$r4+#0x40]
     1f2:	46 1f f0 ff 	sethi $r1,#0xff0ff
     1f6:	50 10 8f ff 	addi $r1,$r1,#0xfff
     1fa:	fe 5e       	and33 $r1,$r3
     1fc:	46 30 07 00 	sethi $r3,#0x700
     200:	fe 5f       	or33 $r1,$r3
     202:	14 12 00 10 	swi $r1,[$r4+#0x40]
     206:	2e 10 00 3c 	lbi.gp $r1,[+#0x3c]
     20a:	96 48       	zeb33 $r1,$r1
     20c:	5a 10 51 11 	beqc $r1,#0x51,22e <FshcSpiIOModeCfg+0x6c>
     210:	5c f0 80 52 	slti $r15,$r1,#0x52
     214:	e8 06       	beqzs8 220 <FshcSpiIOModeCfg+0x5e>
     216:	5a 10 0e 04 	beqc $r1,#0xe,21e <FshcSpiIOModeCfg+0x5c>
     21a:	48 00 00 89 	j 32c <FshcSpiIOModeCfg+0x16a>
     21e:	d5 36       	j8 28a <FshcSpiIOModeCfg+0xc8>
     220:	5a 10 c8 35 	beqc $r1,#0xc8,28a <FshcSpiIOModeCfg+0xc8>
     224:	5a 10 e0 04 	beqc $r1,#0xe0,22c <FshcSpiIOModeCfg+0x6a>
     228:	48 00 00 82 	j 32c <FshcSpiIOModeCfg+0x16a>
     22c:	d5 2f       	j8 28a <FshcSpiIOModeCfg+0xc8>
     22e:	46 14 00 07 	sethi $r1,#0x40007
     232:	46 30 07 a7 	sethi $r3,#0x7a7
     236:	c8 15       	bnez38 $r0,260 <FshcSpiIOModeCfg+0x9e>
     238:	50 31 85 0b 	addi $r3,$r3,#0x50b
     23c:	14 30 80 0c 	swi $r3,[$r1+#0x30]
     240:	44 30 a0 06 	movi $r3,#0xa006
     244:	14 30 80 0d 	swi $r3,[$r1+#0x34]
     248:	46 30 28 01 	sethi $r3,#0x2801
     24c:	50 31 89 1f 	addi $r3,$r3,#0x91f
     250:	14 30 80 0e 	swi $r3,[$r1+#0x38]
     254:	44 30 1d df 	movi $r3,#0x1ddf
     258:	14 30 80 10 	swi $r3,[$r1+#0x40]
     25c:	48 00 00 bd 	j 3d6 <FshcSpiIOModeCfg+0x214>
     260:	50 31 85 3b 	addi $r3,$r3,#0x53b
     264:	14 30 80 0c 	swi $r3,[$r1+#0x30]
     268:	84 66       	movi55 $r3,#0x6
     26a:	14 30 80 0d 	swi $r3,[$r1+#0x34]
     26e:	46 30 28 01 	sethi $r3,#0x2801
     272:	50 31 89 1f 	addi $r3,$r3,#0x91f
     276:	14 30 80 0e 	swi $r3,[$r1+#0x38]
     27a:	46 30 00 81 	sethi $r3,#0x81
     27e:	50 31 8d df 	addi $r3,$r3,#0xddf
     282:	14 30 80 10 	swi $r3,[$r1+#0x40]
     286:	48 00 00 a8 	j 3d6 <FshcSpiIOModeCfg+0x214>
     28a:	5a 00 01 1f 	beqc $r0,#0x1,2c8 <FshcSpiIOModeCfg+0x106>
     28e:	c0 05       	beqz38 $r0,298 <FshcSpiIOModeCfg+0xd6>
     290:	5a 00 02 35 	beqc $r0,#0x2,2fa <FshcSpiIOModeCfg+0x138>
     294:	48 00 00 a1 	j 3d6 <FshcSpiIOModeCfg+0x214>
     298:	46 14 00 07 	sethi $r1,#0x40007
     29c:	46 30 07 a7 	sethi $r3,#0x7a7
     2a0:	50 31 85 0b 	addi $r3,$r3,#0x50b
     2a4:	14 30 80 0c 	swi $r3,[$r1+#0x30]
     2a8:	44 30 a0 06 	movi $r3,#0xa006
     2ac:	14 30 80 0d 	swi $r3,[$r1+#0x34]
     2b0:	46 30 28 01 	sethi $r3,#0x2801
     2b4:	50 31 89 1f 	addi $r3,$r3,#0x91f
     2b8:	14 30 80 0e 	swi $r3,[$r1+#0x38]
     2bc:	44 30 1d df 	movi $r3,#0x1ddf
     2c0:	14 30 80 10 	swi $r3,[$r1+#0x40]
     2c4:	48 00 00 89 	j 3d6 <FshcSpiIOModeCfg+0x214>
     2c8:	46 14 00 07 	sethi $r1,#0x40007
     2cc:	46 3a 37 a7 	sethi $r3,#0xa37a7
     2d0:	50 31 85 bb 	addi $r3,$r3,#0x5bb
     2d4:	14 30 80 0c 	swi $r3,[$r1+#0x30]
     2d8:	44 30 a0 06 	movi $r3,#0xa006
     2dc:	14 30 80 0d 	swi $r3,[$r1+#0x34]
     2e0:	46 30 28 01 	sethi $r3,#0x2801
     2e4:	50 31 89 0f 	addi $r3,$r3,#0x90f
     2e8:	14 30 80 0e 	swi $r3,[$r1+#0x38]
     2ec:	46 30 00 89 	sethi $r3,#0x89
     2f0:	50 31 8d df 	addi $r3,$r3,#0xddf
     2f4:	14 30 80 10 	swi $r3,[$r1+#0x40]
     2f8:	d5 6f       	j8 3d6 <FshcSpiIOModeCfg+0x214>
     2fa:	46 14 00 07 	sethi $r1,#0x40007
     2fe:	46 3a 37 a7 	sethi $r3,#0xa37a7
     302:	50 31 85 eb 	addi $r3,$r3,#0x5eb
     306:	14 30 80 0c 	swi $r3,[$r1+#0x30]
     30a:	44 30 a0 06 	movi $r3,#0xa006
     30e:	14 30 80 0d 	swi $r3,[$r1+#0x34]
     312:	46 30 28 01 	sethi $r3,#0x2801
     316:	50 31 89 0b 	addi $r3,$r3,#0x90b
     31a:	14 30 80 0e 	swi $r3,[$r1+#0x38]
     31e:	46 30 00 cd 	sethi $r3,#0xcd
     322:	50 31 8d df 	addi $r3,$r3,#0xddf
     326:	14 30 80 10 	swi $r3,[$r1+#0x40]
     32a:	d5 56       	j8 3d6 <FshcSpiIOModeCfg+0x214>
     32c:	5a 00 01 1d 	beqc $r0,#0x1,366 <FshcSpiIOModeCfg+0x1a4>
     330:	c0 04       	beqz38 $r0,338 <FshcSpiIOModeCfg+0x176>
     332:	5a 00 02 3a 	beqc $r0,#0x2,3a6 <FshcSpiIOModeCfg+0x1e4>
     336:	d5 50       	j8 3d6 <FshcSpiIOModeCfg+0x214>
     338:	46 14 00 07 	sethi $r1,#0x40007
     33c:	46 30 07 a7 	sethi $r3,#0x7a7
     340:	50 31 85 0b 	addi $r3,$r3,#0x50b
     344:	14 30 80 0c 	swi $r3,[$r1+#0x30]
     348:	44 30 a0 06 	movi $r3,#0xa006
     34c:	14 30 80 0d 	swi $r3,[$r1+#0x34]
     350:	46 30 28 01 	sethi $r3,#0x2801
     354:	50 31 89 1f 	addi $r3,$r3,#0x91f
     358:	14 30 80 0e 	swi $r3,[$r1+#0x38]
     35c:	44 30 1d df 	movi $r3,#0x1ddf
     360:	14 30 80 10 	swi $r3,[$r1+#0x40]
     364:	d5 39       	j8 3d6 <FshcSpiIOModeCfg+0x214>
     366:	46 14 00 07 	sethi $r1,#0x40007
     36a:	46 30 07 a7 	sethi $r3,#0x7a7
     36e:	50 31 85 bb 	addi $r3,$r3,#0x5bb
     372:	14 30 80 0c 	swi $r3,[$r1+#0x30]
     376:	44 30 a0 06 	movi $r3,#0xa006
     37a:	14 30 80 0d 	swi $r3,[$r1+#0x34]
     37e:	46 30 28 01 	sethi $r3,#0x2801
     382:	50 31 89 0f 	addi $r3,$r3,#0x90f
     386:	14 30 80 0e 	swi $r3,[$r1+#0x38]
     38a:	46 30 00 89 	sethi $r3,#0x89
     38e:	50 31 8d df 	addi $r3,$r3,#0xddf
     392:	14 30 80 10 	swi $r3,[$r1+#0x40]
     396:	04 40 80 10 	lwi $r4,[$r1+#0x40]
     39a:	46 30 0f 00 	sethi $r3,#0xf00
     39e:	fe e7       	or33 $r3,$r4
     3a0:	14 30 80 10 	swi $r3,[$r1+#0x40]
     3a4:	d5 19       	j8 3d6 <FshcSpiIOModeCfg+0x214>
     3a6:	46 14 00 07 	sethi $r1,#0x40007
     3aa:	46 30 07 a7 	sethi $r3,#0x7a7
     3ae:	50 31 85 eb 	addi $r3,$r3,#0x5eb
     3b2:	14 30 80 0c 	swi $r3,[$r1+#0x30]
     3b6:	44 30 a0 06 	movi $r3,#0xa006
     3ba:	14 30 80 0d 	swi $r3,[$r1+#0x34]
     3be:	46 30 28 01 	sethi $r3,#0x2801
     3c2:	50 31 89 0b 	addi $r3,$r3,#0x90b
     3c6:	14 30 80 0e 	swi $r3,[$r1+#0x38]
     3ca:	46 30 00 cd 	sethi $r3,#0xcd
     3ce:	50 31 8d df 	addi $r3,$r3,#0xddf
     3d2:	14 30 80 10 	swi $r3,[$r1+#0x40]
     3d6:	44 30 00 a0 	movi $r3,#0xa0
     3da:	46 14 00 07 	sethi $r1,#0x40007
     3de:	14 30 80 14 	swi $r3,[$r1+#0x50]
     3e2:	c2 02       	beqz38 $r2,3e6 <FshcSpiIOModeCfg+0x224>
     3e4:	c8 07       	bnez38 $r0,3f2 <FshcSpiIOModeCfg+0x230>
     3e6:	44 10 ff 06 	movi $r1,#0xff06
     3ea:	46 04 00 07 	sethi $r0,#0x40007
     3ee:	14 10 00 0d 	swi $r1,[$r0+#0x34]
     3f2:	dd 9e       	ret5 $lp

000003f4 <SpiFlashResetCRM>:
     3f4:	2e 00 00 3c 	lbi.gp $r0,[+#0x3c]
     3f8:	96 00       	zeb33 $r0,$r0
     3fa:	5a 00 bf 1f 	beqc $r0,#0xbf,438 <SpiFlashResetCRM+0x44>
     3fe:	3b ff fc bc 	smw.adm $sp,[$sp],$sp,#0x2    ! {$lp}
     402:	ef fc       	addi10.sp #-4
     404:	44 00 00 ff 	movi $r0,#0xff
     408:	84 27       	movi55 $r1,#0x7
     40a:	84 40       	movi55 $r2,#0x0
     40c:	44 30 07 00 	movi $r3,#0x700
     410:	84 80       	movi55 $r4,#0x0
     412:	49 ff fe be 	jal 18e <FshcSendCmd>
     416:	44 10 00 ff 	movi $r1,#0xff
     41a:	46 04 00 07 	sethi $r0,#0x40007
     41e:	a8 41       	swi333 $r1,[$r0+#0x4]
     420:	44 00 00 ff 	movi $r0,#0xff
     424:	84 27       	movi55 $r1,#0x7
     426:	84 40       	movi55 $r2,#0x0
     428:	44 30 05 00 	movi $r3,#0x500
     42c:	84 80       	movi55 $r4,#0x0
     42e:	49 ff fe b0 	jal 18e <FshcSendCmd>
     432:	ec 04       	addi10.sp #0x4
     434:	3b ff fc 84 	lmw.bim $sp,[$sp],$sp,#0x2    ! {$lp}
     438:	dd 9e       	ret5 $lp
	...

0000043c <SpiFlashHpmModeSet>:
     43c:	3b ff fc bc 	smw.adm $sp,[$sp],$sp,#0x2    ! {$lp}
     440:	ef fc       	addi10.sp #-4
     442:	2e 10 00 3c 	lbi.gp $r1,[+#0x3c]
     446:	96 48       	zeb33 $r1,$r1
     448:	5a 10 c8 0e 	beqc $r1,#0xc8,464 <SpiFlashHpmModeSet+0x28>
     44c:	84 41       	movi55 $r2,#0x1
     44e:	46 14 00 07 	sethi $r1,#0x40007
     452:	14 20 80 11 	swi $r2,[$r1+#0x44]
     456:	5a 00 02 04 	beqc $r0,#0x2,45e <SpiFlashHpmModeSet+0x22>
     45a:	84 00       	movi55 $r0,#0x0
     45c:	d5 5a       	j8 510 <SpiFlashHpmModeSet+0xd4>
     45e:	44 0f ff ea 	movi $r0,#-22
     462:	d5 57       	j8 510 <SpiFlashHpmModeSet+0xd4>
     464:	e6 04       	slti45 $r0,#0x4
     466:	e8 51       	beqzs8 508 <SpiFlashHpmModeSet+0xcc>
     468:	44 f0 04 74 	movi $r15,#0x474
     46c:	38 07 82 02 	lw $r0,[$r15+($r0<<#0x2)]
     470:	4a 00 00 00 	jr $r0
     474:	84 04 00 00 	.word	0x00000484
     478:	a4 04 00 00 	.word	0x000004a4
     47c:	c4 04 00 00 	.word	0x000004c4
     480:	e4 04 00 00 	.word	0x000004e4
     484:	84 20       	movi55 $r1,#0x0
     486:	46 04 00 07 	sethi $r0,#0x40007
     48a:	14 10 00 11 	swi $r1,[$r0+#0x44]
     48e:	44 00 00 a3 	movi $r0,#0xa3
     492:	fa 2f       	movpi45 $r1,#0x1f
     494:	84 40       	movi55 $r2,#0x0
     496:	44 30 07 00 	movi $r3,#0x700
     49a:	84 80       	movi55 $r4,#0x0
     49c:	49 ff fe 79 	jal 18e <FshcSendCmd>
     4a0:	84 00       	movi55 $r0,#0x0
     4a2:	d5 37       	j8 510 <SpiFlashHpmModeSet+0xd4>
     4a4:	46 04 00 07 	sethi $r0,#0x40007
     4a8:	04 00 00 11 	lwi $r0,[$r0+#0x44]
     4ac:	c8 31       	bnez38 $r0,50e <SpiFlashHpmModeSet+0xd2>
     4ae:	44 00 00 a3 	movi $r0,#0xa3
     4b2:	fa 2f       	movpi45 $r1,#0x1f
     4b4:	84 40       	movi55 $r2,#0x0
     4b6:	44 30 07 00 	movi $r3,#0x700
     4ba:	84 80       	movi55 $r4,#0x0
     4bc:	49 ff fe 69 	jal 18e <FshcSendCmd>
     4c0:	84 00       	movi55 $r0,#0x0
     4c2:	d5 27       	j8 510 <SpiFlashHpmModeSet+0xd4>
     4c4:	44 00 00 a3 	movi $r0,#0xa3
     4c8:	fa 2f       	movpi45 $r1,#0x1f
     4ca:	84 40       	movi55 $r2,#0x0
     4cc:	44 30 07 00 	movi $r3,#0x700
     4d0:	84 80       	movi55 $r4,#0x0
     4d2:	49 ff fe 5e 	jal 18e <FshcSendCmd>
     4d6:	84 20       	movi55 $r1,#0x0
     4d8:	46 04 00 07 	sethi $r0,#0x40007
     4dc:	14 10 00 11 	swi $r1,[$r0+#0x44]
     4e0:	84 00       	movi55 $r0,#0x0
     4e2:	d5 17       	j8 510 <SpiFlashHpmModeSet+0xd4>
     4e4:	44 00 00 ab 	movi $r0,#0xab
     4e8:	fa 2f       	movpi45 $r1,#0x1f
     4ea:	84 40       	movi55 $r2,#0x0
     4ec:	44 30 07 00 	movi $r3,#0x700
     4f0:	84 80       	movi55 $r4,#0x0
     4f2:	49 ff fe 4e 	jal 18e <FshcSendCmd>
     4f6:	46 04 00 07 	sethi $r0,#0x40007
     4fa:	84 21       	movi55 $r1,#0x1
     4fc:	14 10 00 11 	swi $r1,[$r0+#0x44]
     500:	14 10 00 13 	swi $r1,[$r0+#0x4c]
     504:	84 00       	movi55 $r0,#0x0
     506:	d5 05       	j8 510 <SpiFlashHpmModeSet+0xd4>
     508:	44 0f ff a8 	movi $r0,#-88
     50c:	d5 02       	j8 510 <SpiFlashHpmModeSet+0xd4>
     50e:	84 00       	movi55 $r0,#0x0
     510:	ec 04       	addi10.sp #0x4
     512:	3b ff fc 84 	lmw.bim $sp,[$sp],$sp,#0x2    ! {$lp}
     516:	dd 9e       	ret5 $lp

00000518 <SpiFlashReadId>:
     518:	3b ff fc bc 	smw.adm $sp,[$sp],$sp,#0x2    ! {$lp}
     51c:	ef fc       	addi10.sp #-4
     51e:	46 04 00 07 	sethi $r0,#0x40007
     522:	04 00 00 15 	lwi $r0,[$r0+#0x54]
     526:	96 04       	xlsb33 $r0,$r0
     528:	c0 03       	beqz38 $r0,52e <SpiFlashReadId+0x16>
     52a:	49 ff ff 65 	jal 3f4 <SpiFlashResetCRM>
     52e:	84 21       	movi55 $r1,#0x1
     530:	46 04 00 07 	sethi $r0,#0x40007
     534:	14 10 00 0a 	swi $r1,[$r0+#0x28]
     538:	44 00 00 9f 	movi $r0,#0x9f
     53c:	84 27       	movi55 $r1,#0x7
     53e:	84 40       	movi55 $r2,#0x0
     540:	44 30 06 00 	movi $r3,#0x600
     544:	84 82       	movi55 $r4,#0x2
     546:	49 ff fe 24 	jal 18e <FshcSendCmd>
     54a:	46 04 00 07 	sethi $r0,#0x40007
     54e:	04 00 00 09 	lwi $r0,[$r0+#0x24]
     552:	96 04       	xlsb33 $r0,$r0
     554:	c8 fb       	bnez38 $r0,54a <SpiFlashReadId+0x32>
     556:	46 24 00 07 	sethi $r2,#0x40007
     55a:	b4 02       	lwi450 $r0,[$r2]
     55c:	84 60       	movi55 $r3,#0x0
     55e:	46 14 00 30 	sethi $r1,#0x40030
     562:	b6 61       	swi450 $r3,[$r1]
     564:	96 40       	zeb33 $r1,$r0
     566:	3e 10 00 3c 	sbi.gp $r1,[+#0x3c]
     56a:	92 08       	srli45 $r0,#0x8
     56c:	96 01       	zeh33 $r0,$r0
     56e:	3e 18 00 3d 	addi.gp $r1,#0x3d
     572:	97 00       	zeb33 $r4,$r0
     574:	a7 48       	lbi333 $r5,[$r1+#0x0]
     576:	af 08       	sbi333 $r4,[$r1+#0x0]
     578:	92 08       	srli45 $r0,#0x8
     57a:	a7 09       	lbi333 $r4,[$r1+#0x1]
     57c:	ae 09       	sbi333 $r0,[$r1+#0x1]
     57e:	14 31 00 0a 	swi $r3,[$r2+#0x28]
     582:	84 00       	movi55 $r0,#0x0
     584:	d5 45       	j8 60e <SpiFlashReadId+0xf6>
     586:	2e 10 00 3c 	lbi.gp $r1,[+#0x3c]
     58a:	fa 42       	movpi45 $r2,#0x12
     58c:	fe 84       	mul33 $r2,$r0
     58e:	44 30 18 c8 	movi $r3,#0x18c8
     592:	38 21 88 00 	lb $r2,[$r3+($r2<<#0x0)]
     596:	97 48       	zeb33 $r5,$r1
     598:	da 3a       	bnes38 $r2,60c <SpiFlashReadId+0xf4>
     59a:	3c 3c 00 0f 	lwi.gp $r3,[+#0x3c]
     59e:	92 68       	srli45 $r3,#0x8
     5a0:	97 59       	zeh33 $r5,$r3
     5a2:	44 20 18 c8 	movi $r2,#0x18c8
     5a6:	fa 22       	movpi45 $r1,#0x12
     5a8:	fe 44       	mul33 $r1,$r0
     5aa:	99 11       	add333 $r4,$r2,$r1
     5ac:	38 11 04 01 	lh $r1,[$r2+($r1<<#0x0)]
     5b0:	40 20 a0 09 	srli $r2,$r1,#0x8
     5b4:	a4 61       	lhi333 $r1,[$r4+#0x2]
     5b6:	96 48       	zeb33 $r1,$r1
     5b8:	40 10 a0 08 	slli $r1,$r1,#0x8
     5bc:	fe 57       	or33 $r1,$r2
     5be:	d9 27       	bnes38 $r1,60c <SpiFlashReadId+0xf4>
     5c0:	a4 e4       	lhi333 $r3,[$r4+#0x8]
     5c2:	a4 25       	lhi333 $r0,[$r4+#0xa]
     5c4:	40 00 40 08 	slli $r0,$r0,#0x10
     5c8:	fe c7       	or33 $r3,$r0
     5ca:	3e 08 00 3c 	addi.gp $r0,#0x3c
     5ce:	a8 c2       	swi333 $r3,[$r0+#0x8]
     5d0:	a6 e7       	lbi333 $r3,[$r4+#0x7]
     5d2:	96 d8       	zeb33 $r3,$r3
     5d4:	ae c7       	sbi333 $r3,[$r0+#0x7]
     5d6:	00 32 00 0c 	lbi $r3,[$r4+#0xc]
     5da:	96 d8       	zeb33 $r3,$r3
     5dc:	10 30 00 0c 	sbi $r3,[$r0+#0xc]
     5e0:	00 32 00 0d 	lbi $r3,[$r4+#0xd]
     5e4:	96 d8       	zeb33 $r3,$r3
     5e6:	10 30 00 0d 	sbi $r3,[$r0+#0xd]
     5ea:	00 32 00 0e 	lbi $r3,[$r4+#0xe]
     5ee:	96 d8       	zeb33 $r3,$r3
     5f0:	10 30 00 0e 	sbi $r3,[$r0+#0xe]
     5f4:	00 22 00 0f 	lbi $r2,[$r4+#0xf]
     5f8:	96 90       	zeb33 $r2,$r2
     5fa:	10 20 00 0f 	sbi $r2,[$r0+#0xf]
     5fe:	00 12 00 10 	lbi $r1,[$r4+#0x10]
     602:	96 48       	zeb33 $r1,$r1
     604:	10 10 00 10 	sbi $r1,[$r0+#0x10]
     608:	84 00       	movi55 $r0,#0x0
     60a:	d5 09       	j8 61c <SpiFlashReadId+0x104>
     60c:	8c 01       	addi45 $r0,#0x1
     60e:	e6 19       	slti45 $r0,#0x19
     610:	e9 bb       	bnezs8 586 <SpiFlashReadId+0x6e>
     612:	84 1f       	movi55 $r0,#-1
     614:	3e 00 00 3c 	sbi.gp $r0,[+#0x3c]
     618:	44 0f ff 02 	movi $r0,#-254
     61c:	ec 04       	addi10.sp #0x4
     61e:	3b ff fc 84 	lmw.bim $sp,[$sp],$sp,#0x2    ! {$lp}
     622:	dd 9e       	ret5 $lp

00000624 <SpiFlashReadStatus>:
     624:	3a 6f a0 bc 	smw.adm $r6,[$sp],$r8,#0x2    ! {$r6~$r8, $lp}
     628:	46 04 00 07 	sethi $r0,#0x40007
     62c:	04 00 00 15 	lwi $r0,[$r0+#0x54]
     630:	96 04       	xlsb33 $r0,$r0
     632:	c0 03       	beqz38 $r0,638 <SpiFlashReadStatus+0x14>
     634:	49 ff fe e0 	jal 3f4 <SpiFlashResetCRM>
     638:	84 21       	movi55 $r1,#0x1
     63a:	46 04 00 07 	sethi $r0,#0x40007
     63e:	14 10 00 0a 	swi $r1,[$r0+#0x28]
     642:	2e 00 00 3c 	lbi.gp $r0,[+#0x3c]
     646:	96 00       	zeb33 $r0,$r0
     648:	5a 00 8c 10 	beqc $r0,#0x8c,668 <SpiFlashReadStatus+0x44>
     64c:	5c f0 00 8d 	slti $r15,$r0,#0x8d
     650:	e8 06       	beqzs8 65c <SpiFlashReadStatus+0x38>
     652:	5a 00 1c 0b 	beqc $r0,#0x1c,668 <SpiFlashReadStatus+0x44>
     656:	5a 08 51 07 	bnec $r0,#0x51,664 <SpiFlashReadStatus+0x40>
     65a:	d5 07       	j8 668 <SpiFlashReadStatus+0x44>
     65c:	5a 00 bf 06 	beqc $r0,#0xbf,668 <SpiFlashReadStatus+0x44>
     660:	5a 00 c2 04 	beqc $r0,#0xc2,668 <SpiFlashReadStatus+0x44>
     664:	84 e0       	movi55 $r7,#0x0
     666:	d5 02       	j8 66a <SpiFlashReadStatus+0x46>
     668:	84 e1       	movi55 $r7,#0x1
     66a:	84 05       	movi55 $r0,#0x5
     66c:	84 27       	movi55 $r1,#0x7
     66e:	84 40       	movi55 $r2,#0x0
     670:	44 30 06 00 	movi $r3,#0x600
     674:	84 80       	movi55 $r4,#0x0
     676:	49 ff fd 8c 	jal 18e <FshcSendCmd>
     67a:	46 04 00 07 	sethi $r0,#0x40007
     67e:	04 00 00 09 	lwi $r0,[$r0+#0x24]
     682:	96 04       	xlsb33 $r0,$r0
     684:	c8 fb       	bnez38 $r0,67a <SpiFlashReadStatus+0x56>
     686:	46 04 00 07 	sethi $r0,#0x40007
     68a:	b4 c0       	lwi450 $r6,[$r0]
     68c:	84 20       	movi55 $r1,#0x0
     68e:	46 04 00 30 	sethi $r0,#0x40030
     692:	b6 20       	swi450 $r1,[$r0]
     694:	cf 1a       	bnez38 $r7,6c8 <SpiFlashReadStatus+0xa4>
     696:	44 00 00 35 	movi $r0,#0x35
     69a:	84 27       	movi55 $r1,#0x7
     69c:	84 40       	movi55 $r2,#0x0
     69e:	44 30 06 00 	movi $r3,#0x600
     6a2:	84 80       	movi55 $r4,#0x0
     6a4:	49 ff fd 75 	jal 18e <FshcSendCmd>
     6a8:	46 14 00 07 	sethi $r1,#0x40007
     6ac:	04 10 80 09 	lwi $r1,[$r1+#0x24]
     6b0:	96 4c       	xlsb33 $r1,$r1
     6b2:	c9 fb       	bnez38 $r1,6a8 <SpiFlashReadStatus+0x84>
     6b4:	46 04 00 07 	sethi $r0,#0x40007
     6b8:	b4 00       	lwi450 $r0,[$r0]
     6ba:	84 40       	movi55 $r2,#0x0
     6bc:	46 14 00 30 	sethi $r1,#0x40030
     6c0:	b6 41       	swi450 $r2,[$r1]
     6c2:	40 00 20 08 	slli $r0,$r0,#0x8
     6c6:	ff 87       	or33 $r6,$r0
     6c8:	84 20       	movi55 $r1,#0x0
     6ca:	46 04 00 07 	sethi $r0,#0x40007
     6ce:	14 10 00 0a 	swi $r1,[$r0+#0x28]
     6d2:	80 06       	mov55 $r0,$r6
     6d4:	3a 6f a0 84 	lmw.bim $r6,[$sp],$r8,#0x2    ! {$r6~$r8, $lp}
     6d8:	dd 9e       	ret5 $lp

000006da <SpiFlashIsBusy>:
     6da:	3b ff fc bc 	smw.adm $sp,[$sp],$sp,#0x2    ! {$lp}
     6de:	ef fc       	addi10.sp #-4
     6e0:	49 ff ff a2 	jal 624 <SpiFlashReadStatus>
     6e4:	2e 10 00 3c 	lbi.gp $r1,[+#0x3c]
     6e8:	96 48       	zeb33 $r1,$r1
     6ea:	5a 18 bf 05 	bnec $r1,#0xbf,6f4 <SpiFlashIsBusy+0x1a>
     6ee:	96 3e       	bmski33 $r0,#0x7
     6f0:	c8 05       	bnez38 $r0,6fa <SpiFlashIsBusy+0x20>
     6f2:	d5 07       	j8 700 <SpiFlashIsBusy+0x26>
     6f4:	96 04       	xlsb33 $r0,$r0
     6f6:	c8 04       	bnez38 $r0,6fe <SpiFlashIsBusy+0x24>
     6f8:	d5 04       	j8 700 <SpiFlashIsBusy+0x26>
     6fa:	84 01       	movi55 $r0,#0x1
     6fc:	d5 02       	j8 700 <SpiFlashIsBusy+0x26>
     6fe:	84 01       	movi55 $r0,#0x1
     700:	ec 04       	addi10.sp #0x4
     702:	3b ff fc 84 	lmw.bim $sp,[$sp],$sp,#0x2    ! {$lp}
     706:	dd 9e       	ret5 $lp

00000708 <SpiFlashWriteStatus>:
     708:	3a 6f a0 bc 	smw.adm $r6,[$sp],$r8,#0x2    ! {$r6~$r8, $lp}
     70c:	80 c0       	mov55 $r6,$r0
     70e:	46 04 00 07 	sethi $r0,#0x40007
     712:	04 10 00 15 	lwi $r1,[$r0+#0x54]
     716:	96 4c       	xlsb33 $r1,$r1
     718:	c1 03       	beqz38 $r1,71e <SpiFlashWriteStatus+0x16>
     71a:	49 ff fe 6d 	jal 3f4 <SpiFlashResetCRM>
     71e:	2e 10 00 3c 	lbi.gp $r1,[+#0x3c]
     722:	96 48       	zeb33 $r1,$r1
     724:	5a 10 51 0e 	beqc $r1,#0x51,740 <SpiFlashWriteStatus+0x38>
     728:	5c f0 80 52 	slti $r15,$r1,#0x52
     72c:	e8 04       	beqzs8 734 <SpiFlashWriteStatus+0x2c>
     72e:	5a 18 1c 07 	bnec $r1,#0x1c,73c <SpiFlashWriteStatus+0x34>
     732:	d5 07       	j8 740 <SpiFlashWriteStatus+0x38>
     734:	5a 10 8c 06 	beqc $r1,#0x8c,740 <SpiFlashWriteStatus+0x38>
     738:	5a 10 c2 04 	beqc $r1,#0xc2,740 <SpiFlashWriteStatus+0x38>
     73c:	84 e1       	movi55 $r7,#0x1
     73e:	d5 02       	j8 742 <SpiFlashWriteStatus+0x3a>
     740:	84 e0       	movi55 $r7,#0x0
     742:	2e 10 00 3c 	lbi.gp $r1,[+#0x3c]
     746:	96 48       	zeb33 $r1,$r1
     748:	5a 10 c8 07 	beqc $r1,#0xc8,756 <SpiFlashWriteStatus+0x4e>
     74c:	2e 10 00 3c 	lbi.gp $r1,[+#0x3c]
     750:	96 48       	zeb33 $r1,$r1
     752:	5a 18 a1 70 	bnec $r1,#0xa1,832 <SpiFlashWriteStatus+0x12a>
     756:	46 04 00 07 	sethi $r0,#0x40007
     75a:	a9 81       	swi333 $r6,[$r0+#0x4]
     75c:	84 06       	movi55 $r0,#0x6
     75e:	84 27       	movi55 $r1,#0x7
     760:	84 40       	movi55 $r2,#0x0
     762:	44 30 07 00 	movi $r3,#0x700
     766:	84 80       	movi55 $r4,#0x0
     768:	49 ff fd 13 	jal 18e <FshcSendCmd>
     76c:	84 01       	movi55 $r0,#0x1
     76e:	84 27       	movi55 $r1,#0x7
     770:	84 40       	movi55 $r2,#0x0
     772:	44 30 05 00 	movi $r3,#0x500
     776:	84 80       	movi55 $r4,#0x0
     778:	49 ff fd 0b 	jal 18e <FshcSendCmd>
     77c:	84 01       	movi55 $r0,#0x1
     77e:	49 ff fc fb 	jal 174 <FshcFlashBusyStatusSet>
     782:	49 ff ff ac 	jal 6da <SpiFlashIsBusy>
     786:	c8 fe       	bnez38 $r0,782 <SpiFlashWriteStatus+0x7a>
     788:	49 ff fc f6 	jal 174 <FshcFlashBusyStatusSet>
     78c:	84 04       	movi55 $r0,#0x4
     78e:	84 27       	movi55 $r1,#0x7
     790:	84 40       	movi55 $r2,#0x0
     792:	44 30 07 00 	movi $r3,#0x700
     796:	84 80       	movi55 $r4,#0x0
     798:	49 ff fc fb 	jal 18e <FshcSendCmd>
     79c:	40 03 20 09 	srli $r0,$r6,#0x8
     7a0:	46 14 00 07 	sethi $r1,#0x40007
     7a4:	a8 09       	swi333 $r0,[$r1+#0x4]
     7a6:	84 06       	movi55 $r0,#0x6
     7a8:	84 27       	movi55 $r1,#0x7
     7aa:	84 40       	movi55 $r2,#0x0
     7ac:	44 30 07 00 	movi $r3,#0x700
     7b0:	84 80       	movi55 $r4,#0x0
     7b2:	49 ff fc ee 	jal 18e <FshcSendCmd>
     7b6:	44 00 00 31 	movi $r0,#0x31
     7ba:	84 27       	movi55 $r1,#0x7
     7bc:	84 40       	movi55 $r2,#0x0
     7be:	44 30 05 00 	movi $r3,#0x500
     7c2:	84 80       	movi55 $r4,#0x0
     7c4:	49 ff fc e5 	jal 18e <FshcSendCmd>
     7c8:	84 01       	movi55 $r0,#0x1
     7ca:	49 ff fc d5 	jal 174 <FshcFlashBusyStatusSet>
     7ce:	49 ff ff 86 	jal 6da <SpiFlashIsBusy>
     7d2:	c8 fe       	bnez38 $r0,7ce <SpiFlashWriteStatus+0xc6>
     7d4:	49 ff fc d0 	jal 174 <FshcFlashBusyStatusSet>
     7d8:	84 04       	movi55 $r0,#0x4
     7da:	84 27       	movi55 $r1,#0x7
     7dc:	84 40       	movi55 $r2,#0x0
     7de:	44 30 07 00 	movi $r3,#0x700
     7e2:	84 80       	movi55 $r4,#0x0
     7e4:	49 ff fc d5 	jal 18e <FshcSendCmd>
     7e8:	40 03 40 09 	srli $r0,$r6,#0x10
     7ec:	46 14 00 07 	sethi $r1,#0x40007
     7f0:	a8 09       	swi333 $r0,[$r1+#0x4]
     7f2:	84 06       	movi55 $r0,#0x6
     7f4:	84 27       	movi55 $r1,#0x7
     7f6:	84 40       	movi55 $r2,#0x0
     7f8:	44 30 07 00 	movi $r3,#0x700
     7fc:	84 80       	movi55 $r4,#0x0
     7fe:	49 ff fc c8 	jal 18e <FshcSendCmd>
     802:	fa 01       	movpi45 $r0,#0x11
     804:	84 27       	movi55 $r1,#0x7
     806:	84 40       	movi55 $r2,#0x0
     808:	44 30 05 00 	movi $r3,#0x500
     80c:	84 80       	movi55 $r4,#0x0
     80e:	49 ff fc c0 	jal 18e <FshcSendCmd>
     812:	84 01       	movi55 $r0,#0x1
     814:	49 ff fc b0 	jal 174 <FshcFlashBusyStatusSet>
     818:	49 ff ff 61 	jal 6da <SpiFlashIsBusy>
     81c:	c8 fe       	bnez38 $r0,818 <SpiFlashWriteStatus+0x110>
     81e:	49 ff fc ab 	jal 174 <FshcFlashBusyStatusSet>
     822:	84 04       	movi55 $r0,#0x4
     824:	84 27       	movi55 $r1,#0x7
     826:	84 40       	movi55 $r2,#0x0
     828:	44 30 07 00 	movi $r3,#0x700
     82c:	84 80       	movi55 $r4,#0x0
     82e:	49 ff fc b0 	jal 18e <FshcSendCmd>
     832:	46 04 00 07 	sethi $r0,#0x40007
     836:	a9 81       	swi333 $r6,[$r0+#0x4]
     838:	84 06       	movi55 $r0,#0x6
     83a:	84 27       	movi55 $r1,#0x7
     83c:	84 40       	movi55 $r2,#0x0
     83e:	44 30 07 00 	movi $r3,#0x700
     842:	84 80       	movi55 $r4,#0x0
     844:	49 ff fc a5 	jal 18e <FshcSendCmd>
     848:	84 01       	movi55 $r0,#0x1
     84a:	84 27       	movi55 $r1,#0x7
     84c:	84 40       	movi55 $r2,#0x0
     84e:	44 30 05 00 	movi $r3,#0x500
     852:	80 87       	mov55 $r4,$r7
     854:	49 ff fc 9d 	jal 18e <FshcSendCmd>
     858:	46 04 00 07 	sethi $r0,#0x40007
     85c:	04 00 00 0b 	lwi $r0,[$r0+#0x2c]
     860:	c8 fc       	bnez38 $r0,858 <SpiFlashWriteStatus+0x150>
     862:	84 01       	movi55 $r0,#0x1
     864:	49 ff fc 88 	jal 174 <FshcFlashBusyStatusSet>
     868:	49 ff ff 39 	jal 6da <SpiFlashIsBusy>
     86c:	c8 fe       	bnez38 $r0,868 <SpiFlashWriteStatus+0x160>
     86e:	49 ff fc 83 	jal 174 <FshcFlashBusyStatusSet>
     872:	2e 00 00 3c 	lbi.gp $r0,[+#0x3c]
     876:	96 00       	zeb33 $r0,$r0
     878:	5a 08 c8 0a 	bnec $r0,#0xc8,88c <SpiFlashWriteStatus+0x184>
     87c:	84 04       	movi55 $r0,#0x4
     87e:	84 27       	movi55 $r1,#0x7
     880:	84 40       	movi55 $r2,#0x0
     882:	44 30 07 00 	movi $r3,#0x700
     886:	84 80       	movi55 $r4,#0x0
     888:	49 ff fc 83 	jal 18e <FshcSendCmd>
     88c:	3a 6f a0 84 	lmw.bim $r6,[$sp],$r8,#0x2    ! {$r6~$r8, $lp}
     890:	dd 9e       	ret5 $lp

00000892 <SpiFlashIOModeCfg>:
     892:	3a 6f 98 bc 	smw.adm $r6,[$sp],$r6,#0x2    ! {$r6, $lp}
     896:	80 c0       	mov55 $r6,$r0
     898:	49 ff fe c6 	jal 624 <SpiFlashReadStatus>
     89c:	66 50 01 80 	bitci $r5,$r0,#0x180
     8a0:	5a 68 02 04 	bnec $r6,#0x2,8a8 <SpiFlashIOModeCfg+0x16>
     8a4:	84 61       	movi55 $r3,#0x1
     8a6:	d5 02       	j8 8aa <SpiFlashIOModeCfg+0x18>
     8a8:	84 60       	movi55 $r3,#0x0
     8aa:	2e 10 00 3c 	lbi.gp $r1,[+#0x3c]
     8ae:	96 48       	zeb33 $r1,$r1
     8b0:	5a 10 a1 24 	beqc $r1,#0xa1,8f8 <SpiFlashIOModeCfg+0x66>
     8b4:	5c f0 80 a2 	slti $r15,$r1,#0xa2
     8b8:	e8 0e       	beqzs8 8d4 <SpiFlashIOModeCfg+0x42>
     8ba:	5a 10 51 1c 	beqc $r1,#0x51,8f2 <SpiFlashIOModeCfg+0x60>
     8be:	5c f0 80 52 	slti $r15,$r1,#0x52
     8c2:	e8 04       	beqzs8 8ca <SpiFlashIOModeCfg+0x38>
     8c4:	5a 18 0e 4f 	bnec $r1,#0xe,962 <SpiFlashIOModeCfg+0xd0>
     8c8:	d5 18       	j8 8f8 <SpiFlashIOModeCfg+0x66>
     8ca:	5a 10 85 17 	beqc $r1,#0x85,8f8 <SpiFlashIOModeCfg+0x66>
     8ce:	5a 18 8c 4a 	bnec $r1,#0x8c,962 <SpiFlashIOModeCfg+0xd0>
     8d2:	d5 13       	j8 8f8 <SpiFlashIOModeCfg+0x66>
     8d4:	5a 10 c8 12 	beqc $r1,#0xc8,8f8 <SpiFlashIOModeCfg+0x66>
     8d8:	5c f0 80 c9 	slti $r15,$r1,#0xc9
     8dc:	e8 06       	beqzs8 8e8 <SpiFlashIOModeCfg+0x56>
     8de:	5a 10 bf 2d 	beqc $r1,#0xbf,938 <SpiFlashIOModeCfg+0xa6>
     8e2:	5a 18 c2 40 	bnec $r1,#0xc2,962 <SpiFlashIOModeCfg+0xd0>
     8e6:	d5 09       	j8 8f8 <SpiFlashIOModeCfg+0x66>
     8e8:	5a 10 e0 08 	beqc $r1,#0xe0,8f8 <SpiFlashIOModeCfg+0x66>
     8ec:	5a 18 ef 3b 	bnec $r1,#0xef,962 <SpiFlashIOModeCfg+0xd0>
     8f0:	d5 04       	j8 8f8 <SpiFlashIOModeCfg+0x66>
     8f2:	5a 68 02 38 	bnec $r6,#0x2,962 <SpiFlashIOModeCfg+0xd0>
     8f6:	d5 35       	j8 960 <SpiFlashIOModeCfg+0xce>
     8f8:	2e 10 00 3c 	lbi.gp $r1,[+#0x3c]
     8fc:	96 48       	zeb33 $r1,$r1
     8fe:	5a 10 c2 07 	beqc $r1,#0xc2,90c <SpiFlashIOModeCfg+0x7a>
     902:	2e 10 00 3c 	lbi.gp $r1,[+#0x3c]
     906:	96 48       	zeb33 $r1,$r1
     908:	5a 18 8c 0c 	bnec $r1,#0x8c,920 <SpiFlashIOModeCfg+0x8e>
     90c:	5a 38 01 06 	bnec $r3,#0x1,918 <SpiFlashIOModeCfg+0x86>
     910:	58 02 80 40 	ori $r0,$r5,#0x40
     914:	d8 0f       	bnes38 $r0,932 <SpiFlashIOModeCfg+0xa0>
     916:	d5 26       	j8 962 <SpiFlashIOModeCfg+0xd0>
     918:	66 00 01 c0 	bitci $r0,$r0,#0x1c0
     91c:	d8 0b       	bnes38 $r0,932 <SpiFlashIOModeCfg+0xa0>
     91e:	d5 22       	j8 962 <SpiFlashIOModeCfg+0xd0>
     920:	5a 38 01 06 	bnec $r3,#0x1,92c <SpiFlashIOModeCfg+0x9a>
     924:	58 02 82 00 	ori $r0,$r5,#0x200
     928:	d8 05       	bnes38 $r0,932 <SpiFlashIOModeCfg+0xa0>
     92a:	d5 1c       	j8 962 <SpiFlashIOModeCfg+0xd0>
     92c:	66 00 03 80 	bitci $r0,$r0,#0x380
     930:	d0 19       	beqs38 $r0,962 <SpiFlashIOModeCfg+0xd0>
     932:	49 ff fe eb 	jal 708 <SpiFlashWriteStatus>
     936:	d5 16       	j8 962 <SpiFlashIOModeCfg+0xd0>
     938:	84 80       	movi55 $r4,#0x0
     93a:	84 40       	movi55 $r2,#0x0
     93c:	5a 38 01 0a 	bnec $r3,#0x1,950 <SpiFlashIOModeCfg+0xbe>
     940:	44 00 00 38 	movi $r0,#0x38
     944:	84 27       	movi55 $r1,#0x7
     946:	44 30 07 00 	movi $r3,#0x700
     94a:	49 ff fc 22 	jal 18e <FshcSendCmd>
     94e:	d5 0a       	j8 962 <SpiFlashIOModeCfg+0xd0>
     950:	44 00 00 ff 	movi $r0,#0xff
     954:	84 21       	movi55 $r1,#0x1
     956:	44 30 00 30 	movi $r3,#0x30
     95a:	49 ff fc 1a 	jal 18e <FshcSendCmd>
     95e:	d5 02       	j8 962 <SpiFlashIOModeCfg+0xd0>
     960:	84 c1       	movi55 $r6,#0x1
     962:	3e 08 00 3f 	addi.gp $r0,#0x3f
     966:	3a 60 18 20 	smw.bi $r6,[$r0],$r6,#0x0    ! {$r6}
     96a:	84 00       	movi55 $r0,#0x0
     96c:	3a 6f 98 84 	lmw.bim $r6,[$sp],$r6,#0x2    ! {$r6, $lp}
     970:	dd 9e       	ret5 $lp

00000972 <SpiFlashDeepPowerDown>:
     972:	3b ff fc bc 	smw.adm $sp,[$sp],$sp,#0x2    ! {$lp}
     976:	ef fc       	addi10.sp #-4
     978:	46 04 00 07 	sethi $r0,#0x40007
     97c:	04 00 00 15 	lwi $r0,[$r0+#0x54]
     980:	96 04       	xlsb33 $r0,$r0
     982:	c0 03       	beqz38 $r0,988 <SpiFlashDeepPowerDown+0x16>
     984:	49 ff fd 38 	jal 3f4 <SpiFlashResetCRM>
     988:	2e 00 00 3c 	lbi.gp $r0,[+#0x3c]
     98c:	96 00       	zeb33 $r0,$r0
     98e:	5a 00 bf 2b 	beqc $r0,#0xbf,9e4 <SpiFlashDeepPowerDown+0x72>
     992:	5c f0 00 c0 	slti $r15,$r0,#0xc0
     996:	e8 08       	beqzs8 9a6 <SpiFlashDeepPowerDown+0x34>
     998:	5a 00 1c 13 	beqc $r0,#0x1c,9be <SpiFlashDeepPowerDown+0x4c>
     99c:	5a 00 8c 11 	beqc $r0,#0x8c,9be <SpiFlashDeepPowerDown+0x4c>
     9a0:	5a 08 0e 19 	bnec $r0,#0xe,9d2 <SpiFlashDeepPowerDown+0x60>
     9a4:	d5 0d       	j8 9be <SpiFlashDeepPowerDown+0x4c>
     9a6:	5a 00 c8 0c 	beqc $r0,#0xc8,9be <SpiFlashDeepPowerDown+0x4c>
     9aa:	5c f0 00 c9 	slti $r15,$r0,#0xc9
     9ae:	e8 04       	beqzs8 9b6 <SpiFlashDeepPowerDown+0x44>
     9b0:	5a 08 c2 11 	bnec $r0,#0xc2,9d2 <SpiFlashDeepPowerDown+0x60>
     9b4:	d5 05       	j8 9be <SpiFlashDeepPowerDown+0x4c>
     9b6:	5a 00 e0 04 	beqc $r0,#0xe0,9be <SpiFlashDeepPowerDown+0x4c>
     9ba:	5a 08 ef 0c 	bnec $r0,#0xef,9d2 <SpiFlashDeepPowerDown+0x60>
     9be:	44 00 00 b9 	movi $r0,#0xb9
     9c2:	84 27       	movi55 $r1,#0x7
     9c4:	84 40       	movi55 $r2,#0x0
     9c6:	44 30 07 00 	movi $r3,#0x700
     9ca:	84 80       	movi55 $r4,#0x0
     9cc:	49 ff fb e1 	jal 18e <FshcSendCmd>
     9d0:	d5 0a       	j8 9e4 <SpiFlashDeepPowerDown+0x72>
     9d2:	44 00 00 b9 	movi $r0,#0xb9
     9d6:	84 27       	movi55 $r1,#0x7
     9d8:	84 40       	movi55 $r2,#0x0
     9da:	44 30 07 00 	movi $r3,#0x700
     9de:	84 80       	movi55 $r4,#0x0
     9e0:	49 ff fb d7 	jal 18e <FshcSendCmd>
     9e4:	ec 04       	addi10.sp #0x4
     9e6:	3b ff fc 84 	lmw.bim $sp,[$sp],$sp,#0x2    ! {$lp}
     9ea:	dd 9e       	ret5 $lp

000009ec <SpiFlashReleaseFromDeepPowerDown>:
     9ec:	2e 00 00 3c 	lbi.gp $r0,[+#0x3c]
     9f0:	96 00       	zeb33 $r0,$r0
     9f2:	5a 00 bf 31 	beqc $r0,#0xbf,a54 <SpiFlashReleaseFromDeepPowerDown+0x68>
     9f6:	3b ff fc bc 	smw.adm $sp,[$sp],$sp,#0x2    ! {$lp}
     9fa:	ef fc       	addi10.sp #-4
     9fc:	5c f0 00 c0 	slti $r15,$r0,#0xc0
     a00:	e8 08       	beqzs8 a10 <SpiFlashReleaseFromDeepPowerDown+0x24>
     a02:	5a 00 1c 13 	beqc $r0,#0x1c,a28 <SpiFlashReleaseFromDeepPowerDown+0x3c>
     a06:	5a 00 8c 11 	beqc $r0,#0x8c,a28 <SpiFlashReleaseFromDeepPowerDown+0x3c>
     a0a:	5a 08 0e 19 	bnec $r0,#0xe,a3c <SpiFlashReleaseFromDeepPowerDown+0x50>
     a0e:	d5 0d       	j8 a28 <SpiFlashReleaseFromDeepPowerDown+0x3c>
     a10:	5a 00 c8 0c 	beqc $r0,#0xc8,a28 <SpiFlashReleaseFromDeepPowerDown+0x3c>
     a14:	5c f0 00 c9 	slti $r15,$r0,#0xc9
     a18:	e8 04       	beqzs8 a20 <SpiFlashReleaseFromDeepPowerDown+0x34>
     a1a:	5a 08 c2 11 	bnec $r0,#0xc2,a3c <SpiFlashReleaseFromDeepPowerDown+0x50>
     a1e:	d5 05       	j8 a28 <SpiFlashReleaseFromDeepPowerDown+0x3c>
     a20:	5a 00 e0 04 	beqc $r0,#0xe0,a28 <SpiFlashReleaseFromDeepPowerDown+0x3c>
     a24:	5a 08 ef 0c 	bnec $r0,#0xef,a3c <SpiFlashReleaseFromDeepPowerDown+0x50>
     a28:	44 00 00 ab 	movi $r0,#0xab
     a2c:	84 27       	movi55 $r1,#0x7
     a2e:	84 40       	movi55 $r2,#0x0
     a30:	44 30 07 00 	movi $r3,#0x700
     a34:	84 80       	movi55 $r4,#0x0
     a36:	49 ff fb ac 	jal 18e <FshcSendCmd>
     a3a:	d5 0a       	j8 a4e <SpiFlashReleaseFromDeepPowerDown+0x62>
     a3c:	44 00 00 ab 	movi $r0,#0xab
     a40:	84 27       	movi55 $r1,#0x7
     a42:	84 40       	movi55 $r2,#0x0
     a44:	44 30 07 00 	movi $r3,#0x700
     a48:	84 80       	movi55 $r4,#0x0
     a4a:	49 ff fb a2 	jal 18e <FshcSendCmd>
     a4e:	ec 04       	addi10.sp #0x4
     a50:	3b ff fc 84 	lmw.bim $sp,[$sp],$sp,#0x2    ! {$lp}
     a54:	dd 9e       	ret5 $lp
	...

00000a58 <SpiFlashWriteLock>:
     a58:	3a 6f a0 bc 	smw.adm $r6,[$sp],$r8,#0x2    ! {$r6~$r8, $lp}
     a5c:	46 14 00 07 	sethi $r1,#0x40007
     a60:	04 10 80 11 	lwi $r1,[$r1+#0x44]
     a64:	97 88       	zeb33 $r6,$r1
     a66:	8e 01       	subi45 $r0,#0x1
     a68:	e6 04       	slti45 $r0,#0x4
     a6a:	4e f2 00 b1 	beqz $r15,bcc <SpiFlashWriteLock+0x174>
     a6e:	44 f0 0a 78 	movi $r15,#0xa78
     a72:	38 07 82 02 	lw $r0,[$r15+($r0<<#0x2)]
     a76:	dd 00       	jr5 $r0
     a78:	88 0a 00 00 	.word	0x00000a88
     a7c:	90 0a 00 00 	.word	0x00000a90
     a80:	98 0a 00 00 	.word	0x00000a98
     a84:	a0 0a 00 00 	.word	0x00000aa0
     a88:	2e 10 00 49 	lbi.gp $r1,[+#0x49]
     a8c:	80 e1       	mov55 $r7,$r1
     a8e:	d5 0c       	j8 aa6 <SpiFlashWriteLock+0x4e>
     a90:	2e 10 00 4a 	lbi.gp $r1,[+#0x4a]
     a94:	80 e1       	mov55 $r7,$r1
     a96:	d5 08       	j8 aa6 <SpiFlashWriteLock+0x4e>
     a98:	2e 10 00 4b 	lbi.gp $r1,[+#0x4b]
     a9c:	80 e1       	mov55 $r7,$r1
     a9e:	d5 04       	j8 aa6 <SpiFlashWriteLock+0x4e>
     aa0:	2e 10 00 4c 	lbi.gp $r1,[+#0x4c]
     aa4:	80 e1       	mov55 $r7,$r1
     aa6:	5a 78 7f 04 	bnec $r7,#0x7f,aae <SpiFlashWriteLock+0x56>
     aaa:	48 00 00 94 	j bd2 <SpiFlashWriteLock+0x17a>
     aae:	49 ff fd bb 	jal 624 <SpiFlashReadStatus>
     ab2:	96 c1       	zeh33 $r3,$r0
     ab4:	66 01 81 80 	bitci $r0,$r3,#0x180
     ab8:	96 01       	zeh33 $r0,$r0
     aba:	2e 10 00 3c 	lbi.gp $r1,[+#0x3c]
     abe:	96 48       	zeb33 $r1,$r1
     ac0:	5a 10 8c 75 	beqc $r1,#0x8c,baa <SpiFlashWriteLock+0x152>
     ac4:	5c f0 80 8d 	slti $r15,$r1,#0x8d
     ac8:	e8 0f       	beqzs8 ae6 <SpiFlashWriteLock+0x8e>
     aca:	5a 10 1c 70 	beqc $r1,#0x1c,baa <SpiFlashWriteLock+0x152>
     ace:	e6 3d       	slti45 $r1,#0x1d
     ad0:	e8 06       	beqzs8 adc <SpiFlashWriteLock+0x84>
     ad2:	5a 10 0e 04 	beqc $r1,#0xe,ada <SpiFlashWriteLock+0x82>
     ad6:	48 00 00 81 	j bd8 <SpiFlashWriteLock+0x180>
     ada:	d5 18       	j8 b0a <SpiFlashWriteLock+0xb2>
     adc:	5a 10 51 17 	beqc $r1,#0x51,b0a <SpiFlashWriteLock+0xb2>
     ae0:	5a 18 85 7c 	bnec $r1,#0x85,bd8 <SpiFlashWriteLock+0x180>
     ae4:	d5 13       	j8 b0a <SpiFlashWriteLock+0xb2>
     ae6:	5a 10 c8 12 	beqc $r1,#0xc8,b0a <SpiFlashWriteLock+0xb2>
     aea:	5c f0 80 c9 	slti $r15,$r1,#0xc9
     aee:	e8 06       	beqzs8 afa <SpiFlashWriteLock+0xa2>
     af0:	5a 10 a1 21 	beqc $r1,#0xa1,b32 <SpiFlashWriteLock+0xda>
     af4:	5a 10 c2 08 	beqc $r1,#0xc2,b04 <SpiFlashWriteLock+0xac>
     af8:	d5 70       	j8 bd8 <SpiFlashWriteLock+0x180>
     afa:	5a 10 e0 08 	beqc $r1,#0xe0,b0a <SpiFlashWriteLock+0xb2>
     afe:	5a 18 ef 6d 	bnec $r1,#0xef,bd8 <SpiFlashWriteLock+0x180>
     b02:	d5 04       	j8 b0a <SpiFlashWriteLock+0xb2>
     b04:	44 0f ff 07 	movi $r0,#-249
     b08:	d5 6c       	j8 be0 <SpiFlashWriteLock+0x188>
     b0a:	66 21 c1 fc 	bitci $r2,$r3,#0x41fc
     b0e:	54 13 80 1f 	andi $r1,$r7,#0x1f
     b12:	94 4a       	slli333 $r1,$r1,#0x2
     b14:	fe 8f       	or33 $r2,$r1
     b16:	96 93       	seh33 $r2,$r2
     b18:	96 11       	zeh33 $r0,$r2
     b1a:	54 13 80 40 	andi $r1,$r7,#0x40
     b1e:	96 49       	zeh33 $r1,$r1
     b20:	c1 4c       	beqz38 $r1,bb8 <SpiFlashWriteLock+0x160>
     b22:	54 03 80 20 	andi $r0,$r7,#0x20
     b26:	96 01       	zeh33 $r0,$r0
     b28:	40 00 24 08 	slli $r0,$r0,#0x9
     b2c:	fe 17       	or33 $r0,$r2
     b2e:	96 01       	zeh33 $r0,$r0
     b30:	d5 44       	j8 bb8 <SpiFlashWriteLock+0x160>
     b32:	3c 1c 00 0f 	lwi.gp $r1,[+#0x3c]
     b36:	92 28       	srli45 $r1,#0x8
     b38:	97 49       	zeh33 $r5,$r1
     b3a:	44 20 13 40 	movi $r2,#0x1340
     b3e:	d2 08       	beqs38 $r2,b4e <SpiFlashWriteLock+0xf6>
     b40:	3c 1c 00 0f 	lwi.gp $r1,[+#0x3c]
     b44:	92 28       	srli45 $r1,#0x8
     b46:	97 49       	zeh33 $r5,$r1
     b48:	44 20 14 40 	movi $r2,#0x1440
     b4c:	da 14       	bnes38 $r2,b74 <SpiFlashWriteLock+0x11c>
     b4e:	66 21 91 fc 	bitci $r2,$r3,#0x11fc
     b52:	54 13 80 1f 	andi $r1,$r7,#0x1f
     b56:	94 4a       	slli333 $r1,$r1,#0x2
     b58:	fe 8f       	or33 $r2,$r1
     b5a:	96 93       	seh33 $r2,$r2
     b5c:	96 11       	zeh33 $r0,$r2
     b5e:	54 13 80 40 	andi $r1,$r7,#0x40
     b62:	96 49       	zeh33 $r1,$r1
     b64:	c1 2a       	beqz38 $r1,bb8 <SpiFlashWriteLock+0x160>
     b66:	42 03 94 0b 	btst $r0,$r7,#0x5
     b6a:	40 00 30 08 	slli $r0,$r0,#0xc
     b6e:	fe 17       	or33 $r0,$r2
     b70:	96 01       	zeh33 $r0,$r0
     b72:	d5 23       	j8 bb8 <SpiFlashWriteLock+0x160>
     b74:	3c 1c 00 0f 	lwi.gp $r1,[+#0x3c]
     b78:	92 28       	srli45 $r1,#0x8
     b7a:	97 49       	zeh33 $r5,$r1
     b7c:	44 20 15 40 	movi $r2,#0x1540
     b80:	da 1c       	bnes38 $r2,bb8 <SpiFlashWriteLock+0x160>
     b82:	66 21 c1 fc 	bitci $r2,$r3,#0x41fc
     b86:	54 03 80 1f 	andi $r0,$r7,#0x1f
     b8a:	94 02       	slli333 $r0,$r0,#0x2
     b8c:	fe 87       	or33 $r2,$r0
     b8e:	96 93       	seh33 $r2,$r2
     b90:	96 11       	zeh33 $r0,$r2
     b92:	54 13 80 40 	andi $r1,$r7,#0x40
     b96:	96 49       	zeh33 $r1,$r1
     b98:	c1 10       	beqz38 $r1,bb8 <SpiFlashWriteLock+0x160>
     b9a:	54 03 80 20 	andi $r0,$r7,#0x20
     b9e:	96 01       	zeh33 $r0,$r0
     ba0:	40 00 24 08 	slli $r0,$r0,#0x9
     ba4:	fe 17       	or33 $r0,$r2
     ba6:	96 01       	zeh33 $r0,$r0
     ba8:	d5 08       	j8 bb8 <SpiFlashWriteLock+0x160>
     baa:	66 21 81 bc 	bitci $r2,$r3,#0x1bc
     bae:	54 13 80 0f 	andi $r1,$r7,#0xf
     bb2:	94 4a       	slli333 $r1,$r1,#0x2
     bb4:	40 01 04 04 	or $r0,$r2,$r1
     bb8:	4c 01 80 04 	beq $r0,$r3,bc0 <SpiFlashWriteLock+0x168>
     bbc:	49 ff fd a6 	jal 708 <SpiFlashWriteStatus>
     bc0:	ce 0f       	bnez38 $r6,bde <SpiFlashWriteLock+0x186>
     bc2:	84 01       	movi55 $r0,#0x1
     bc4:	49 ff fc 3c 	jal 43c <SpiFlashHpmModeSet>
     bc8:	84 00       	movi55 $r0,#0x0
     bca:	d5 0b       	j8 be0 <SpiFlashWriteLock+0x188>
     bcc:	44 0f ff 07 	movi $r0,#-249
     bd0:	d5 08       	j8 be0 <SpiFlashWriteLock+0x188>
     bd2:	44 0f ff 07 	movi $r0,#-249
     bd6:	d5 05       	j8 be0 <SpiFlashWriteLock+0x188>
     bd8:	44 0f ff 01 	movi $r0,#-255
     bdc:	d5 02       	j8 be0 <SpiFlashWriteLock+0x188>
     bde:	84 00       	movi55 $r0,#0x0
     be0:	3a 6f a0 84 	lmw.bim $r6,[$sp],$r8,#0x2    ! {$r6~$r8, $lp}
     be4:	dd 9e       	ret5 $lp
     be6:	92 00       	nop16

00000be8 <Flash_GIE_DISABLE>:
     be8:	64 02 00 43 	setgie.d
     bec:	64 00 00 08 	dsb
     bf0:	64 00 00 08 	dsb
     bf4:	dd 9e       	ret5 $lp

00000bf6 <Flash_GIE_ENABLE>:
     bf6:	64 12 00 43 	setgie.e
     bfa:	64 00 00 08 	dsb
     bfe:	dd 9e       	ret5 $lp

00000c00 <FshcClkSwitch>:
     c00:	c8 0a       	bnez38 $r0,c14 <FshcClkSwitch+0x14>
     c02:	46 14 00 21 	sethi $r1,#0x40021
     c06:	04 00 80 09 	lwi $r0,[$r1+#0x24]
     c0a:	66 00 00 04 	bitci $r0,$r0,#0x4
     c0e:	14 00 80 09 	swi $r0,[$r1+#0x24]
     c12:	dd 9e       	ret5 $lp
     c14:	9e 89       	subi333 $r2,$r1,#0x1
     c16:	46 30 5b 8d 	sethi $r3,#0x5b8d
     c1a:	50 31 87 ff 	addi $r3,$r3,#0x7ff
     c1e:	e2 62       	slt45 $r3,$r2
     c20:	e8 05       	beqzs8 c2a <FshcClkSwitch+0x2a>
     c22:	46 10 5b 8d 	sethi $r1,#0x5b8d
     c26:	50 10 88 00 	addi $r1,$r1,#0x800
     c2a:	5a 08 02 05 	bnec $r0,#0x2,c34 <FshcClkSwitch+0x34>
     c2e:	3c 2d ff f3 	lwi.gp $r2,[+#-52]
     c32:	d5 03       	j8 c38 <FshcClkSwitch+0x38>
     c34:	3c 2d ff f4 	lwi.gp $r2,[+#-48]
     c38:	40 31 04 57 	divr $r3,$r2,$r2,$r1
     c3c:	40 21 20 08 	slli $r2,$r2,#0x8
     c40:	40 11 04 37 	divr $r1,$r1,$r2,$r1
     c44:	c9 02       	bnez38 $r1,c48 <FshcClkSwitch+0x48>
     c46:	84 25       	movi55 $r1,#0x5
     c48:	40 21 a0 08 	slli $r2,$r3,#0x8
     c4c:	fe 57       	or33 $r1,$r2
     c4e:	46 24 00 21 	sethi $r2,#0x40021
     c52:	14 11 00 14 	swi $r1,[$r2+#0x50]
     c56:	5a 08 02 09 	bnec $r0,#0x2,c68 <FshcClkSwitch+0x68>
     c5a:	04 01 00 09 	lwi $r0,[$r2+#0x24]
     c5e:	58 00 00 08 	ori $r0,$r0,#0x8
     c62:	14 01 00 09 	swi $r0,[$r2+#0x24]
     c66:	d5 09       	j8 c78 <FshcClkSwitch+0x78>
     c68:	46 14 00 21 	sethi $r1,#0x40021
     c6c:	04 00 80 09 	lwi $r0,[$r1+#0x24]
     c70:	66 00 00 08 	bitci $r0,$r0,#0x8
     c74:	14 00 80 09 	swi $r0,[$r1+#0x24]
     c78:	46 14 00 21 	sethi $r1,#0x40021
     c7c:	04 00 80 09 	lwi $r0,[$r1+#0x24]
     c80:	58 00 00 04 	ori $r0,$r0,#0x4
     c84:	14 00 80 09 	swi $r0,[$r1+#0x24]
     c88:	dd 9e       	ret5 $lp

00000c8a <SpiFlashResumDelaySet>:
     c8a:	46 14 00 21 	sethi $r1,#0x40021
     c8e:	04 10 80 09 	lwi $r1,[$r1+#0x24]
     c92:	42 10 88 0b 	btst $r1,$r1,#0x2
     c96:	c1 19       	beqz38 $r1,cc8 <SpiFlashResumDelaySet+0x3e>
     c98:	46 14 00 21 	sethi $r1,#0x40021
     c9c:	04 10 80 14 	lwi $r1,[$r1+#0x50]
     ca0:	92 28       	srli45 $r1,#0x8
     ca2:	c1 15       	beqz38 $r1,ccc <SpiFlashResumDelaySet+0x42>
     ca4:	46 14 00 21 	sethi $r1,#0x40021
     ca8:	04 20 80 14 	lwi $r2,[$r1+#0x50]
     cac:	92 48       	srli45 $r2,#0x8
     cae:	3c 1d ff f4 	lwi.gp $r1,[+#-48]
     cb2:	40 10 88 37 	divr $r1,$r1,$r1,$r2
     cb6:	46 24 31 bd 	sethi $r2,#0x431bd
     cba:	50 21 0e 83 	addi $r2,$r2,#0xe83
     cbe:	42 20 88 69 	mulr64 $r2,$r1,$r2
     cc2:	40 11 c8 09 	srli $r1,$r3,#0x12
     cc6:	d5 04       	j8 cce <SpiFlashResumDelaySet+0x44>
     cc8:	84 20       	movi55 $r1,#0x0
     cca:	d5 02       	j8 cce <SpiFlashResumDelaySet+0x44>
     ccc:	84 20       	movi55 $r1,#0x0
     cce:	c1 16       	beqz38 $r1,cfa <SpiFlashResumDelaySet+0x70>
     cd0:	fe 0c       	mul33 $r0,$r1
     cd2:	46 24 00 07 	sethi $r2,#0x40007
     cd6:	14 01 00 0f 	swi $r0,[$r2+#0x3c]
     cda:	fa 04       	movpi45 $r0,#0x14
     cdc:	fe 0c       	mul33 $r0,$r1
     cde:	96 01       	zeh33 $r0,$r0
     ce0:	94 45       	slli333 $r1,$r0,#0x5
     ce2:	04 31 00 0e 	lwi $r3,[$r2+#0x38]
     ce6:	46 0f fe 00 	sethi $r0,#0xffe00
     cea:	8c 1f       	addi45 $r0,#0x1f
     cec:	fe 1e       	and33 $r0,$r3
     cee:	fe 0f       	or33 $r0,$r1
     cf0:	14 01 00 0e 	swi $r0,[$r2+#0x38]
     cf4:	84 01       	movi55 $r0,#0x1
     cf6:	14 01 00 16 	swi $r0,[$r2+#0x58]
     cfa:	84 00       	movi55 $r0,#0x0
     cfc:	dd 9e       	ret5 $lp

00000cfe <SpiFlashClkSwitch>:
     cfe:	3b ff fc bc 	smw.adm $sp,[$sp],$sp,#0x2    ! {$lp}
     d02:	ef fc       	addi10.sp #-4
     d04:	49 ff ff 7e 	jal c00 <FshcClkSwitch>
     d08:	84 00       	movi55 $r0,#0x0
     d0a:	ec 04       	addi10.sp #0x4
     d0c:	3b ff fc 84 	lmw.bim $sp,[$sp],$sp,#0x2    ! {$lp}
     d10:	dd 9e       	ret5 $lp

00000d12 <ByteRecombineToDword>:
     d12:	a6 80       	lbi333 $r2,[$r0+#0x0]
     d14:	a6 41       	lbi333 $r1,[$r0+#0x1]
     d16:	40 10 a0 08 	slli $r1,$r1,#0x8
     d1a:	fe 8f       	or33 $r2,$r1
     d1c:	a6 42       	lbi333 $r1,[$r0+#0x2]
     d1e:	40 10 c0 08 	slli $r1,$r1,#0x10
     d22:	fe 57       	or33 $r1,$r2
     d24:	a6 03       	lbi333 $r0,[$r0+#0x3]
     d26:	40 00 60 08 	slli $r0,$r0,#0x18
     d2a:	fe 0f       	or33 $r0,$r1
     d2c:	dd 9e       	ret5 $lp

00000d2e <SpiFlashWriteUnLock>:
     d2e:	3a 6f a0 bc 	smw.adm $r6,[$sp],$r8,#0x2    ! {$r6~$r8, $lp}
     d32:	ef e8       	addi10.sp #-24
     d34:	46 24 00 07 	sethi $r2,#0x40007
     d38:	04 71 00 11 	lwi $r7,[$r2+#0x44]
     d3c:	97 f8       	zeb33 $r7,$r7
     d3e:	e6 24       	slti45 $r1,#0x4
     d40:	4e f2 00 c8 	beqz $r15,ed0 <SpiFlashWriteUnLock+0x1a2>
     d44:	a6 40       	lbi333 $r1,[$r0+#0x0]
     d46:	5a 10 35 04 	beqc $r1,#0x35,d4e <SpiFlashWriteUnLock+0x20>
     d4a:	48 00 00 c6 	j ed6 <SpiFlashWriteUnLock+0x1a8>
     d4e:	80 c0       	mov55 $r6,$r0
     d50:	49 ff fc 6a 	jal 624 <SpiFlashReadStatus>
     d54:	96 01       	zeh33 $r0,$r0
     d56:	66 20 01 80 	bitci $r2,$r0,#0x180
     d5a:	96 91       	zeh33 $r2,$r2
     d5c:	a6 71       	lbi333 $r1,[$r6+#0x1]
     d5e:	5a 10 ba 04 	beqc $r1,#0xba,d66 <SpiFlashWriteUnLock+0x38>
     d62:	48 00 00 bd 	j edc <SpiFlashWriteUnLock+0x1ae>
     d66:	2e 10 00 3c 	lbi.gp $r1,[+#0x3c]
     d6a:	96 48       	zeb33 $r1,$r1
     d6c:	5a 10 8c 77 	beqc $r1,#0x8c,e5a <SpiFlashWriteUnLock+0x12c>
     d70:	5c f0 80 8d 	slti $r15,$r1,#0x8d
     d74:	e8 0d       	beqzs8 d8e <SpiFlashWriteUnLock+0x60>
     d76:	5a 10 1c 72 	beqc $r1,#0x1c,e5a <SpiFlashWriteUnLock+0x12c>
     d7a:	e6 3d       	slti45 $r1,#0x1d
     d7c:	e8 04       	beqzs8 d84 <SpiFlashWriteUnLock+0x56>
     d7e:	5a 18 0e 75 	bnec $r1,#0xe,e68 <SpiFlashWriteUnLock+0x13a>
     d82:	d5 12       	j8 da6 <SpiFlashWriteUnLock+0x78>
     d84:	5a 10 51 11 	beqc $r1,#0x51,da6 <SpiFlashWriteUnLock+0x78>
     d88:	5a 18 85 70 	bnec $r1,#0x85,e68 <SpiFlashWriteUnLock+0x13a>
     d8c:	d5 0d       	j8 da6 <SpiFlashWriteUnLock+0x78>
     d8e:	5a 10 c8 0c 	beqc $r1,#0xc8,da6 <SpiFlashWriteUnLock+0x78>
     d92:	5c f0 80 c9 	slti $r15,$r1,#0xc9
     d96:	e8 04       	beqzs8 d9e <SpiFlashWriteUnLock+0x70>
     d98:	5a 10 a1 1e 	beqc $r1,#0xa1,dd4 <SpiFlashWriteUnLock+0xa6>
     d9c:	d5 66       	j8 e68 <SpiFlashWriteUnLock+0x13a>
     d9e:	5a 10 e0 04 	beqc $r1,#0xe0,da6 <SpiFlashWriteUnLock+0x78>
     da2:	5a 18 ef 63 	bnec $r1,#0xef,e68 <SpiFlashWriteUnLock+0x13a>
     da6:	66 20 41 fc 	bitci $r2,$r0,#0x41fc
     daa:	2e 10 00 48 	lbi.gp $r1,[+#0x48]
     dae:	96 48       	zeb33 $r1,$r1
     db0:	54 40 80 1f 	andi $r4,$r1,#0x1f
     db4:	95 22       	slli333 $r4,$r4,#0x2
     db6:	fe a7       	or33 $r2,$r4
     db8:	96 d3       	seh33 $r3,$r2
     dba:	96 99       	zeh33 $r2,$r3
     dbc:	54 40 80 40 	andi $r4,$r1,#0x40
     dc0:	97 20       	zeb33 $r4,$r4
     dc2:	c4 53       	beqz38 $r4,e68 <SpiFlashWriteUnLock+0x13a>
     dc4:	96 6e       	bmski33 $r1,#0x5
     dc6:	96 48       	zeb33 $r1,$r1
     dc8:	40 10 a4 08 	slli $r1,$r1,#0x9
     dcc:	40 21 84 04 	or $r2,$r3,$r1
     dd0:	96 91       	zeh33 $r2,$r2
     dd2:	d5 4b       	j8 e68 <SpiFlashWriteUnLock+0x13a>
     dd4:	3c 1c 00 0f 	lwi.gp $r1,[+#0x3c]
     dd8:	92 28       	srli45 $r1,#0x8
     dda:	97 49       	zeh33 $r5,$r1
     ddc:	44 30 13 40 	movi $r3,#0x1340
     de0:	d3 08       	beqs38 $r3,df0 <SpiFlashWriteUnLock+0xc2>
     de2:	3c 1c 00 0f 	lwi.gp $r1,[+#0x3c]
     de6:	92 28       	srli45 $r1,#0x8
     de8:	97 49       	zeh33 $r5,$r1
     dea:	44 30 14 40 	movi $r3,#0x1440
     dee:	db 18       	bnes38 $r3,e1e <SpiFlashWriteUnLock+0xf0>
     df0:	66 20 11 fc 	bitci $r2,$r0,#0x11fc
     df4:	2e 10 00 48 	lbi.gp $r1,[+#0x48]
     df8:	96 48       	zeb33 $r1,$r1
     dfa:	54 40 80 1f 	andi $r4,$r1,#0x1f
     dfe:	95 22       	slli333 $r4,$r4,#0x2
     e00:	fe a7       	or33 $r2,$r4
     e02:	96 d3       	seh33 $r3,$r2
     e04:	96 99       	zeh33 $r2,$r3
     e06:	54 40 80 40 	andi $r4,$r1,#0x40
     e0a:	97 20       	zeb33 $r4,$r4
     e0c:	c4 2e       	beqz38 $r4,e68 <SpiFlashWriteUnLock+0x13a>
     e0e:	42 10 94 0b 	btst $r1,$r1,#0x5
     e12:	40 10 b0 08 	slli $r1,$r1,#0xc
     e16:	40 21 84 04 	or $r2,$r3,$r1
     e1a:	96 91       	zeh33 $r2,$r2
     e1c:	d5 26       	j8 e68 <SpiFlashWriteUnLock+0x13a>
     e1e:	3c 1c 00 0f 	lwi.gp $r1,[+#0x3c]
     e22:	92 28       	srli45 $r1,#0x8
     e24:	97 49       	zeh33 $r5,$r1
     e26:	44 30 15 40 	movi $r3,#0x1540
     e2a:	db 1f       	bnes38 $r3,e68 <SpiFlashWriteUnLock+0x13a>
     e2c:	66 20 41 fc 	bitci $r2,$r0,#0x41fc
     e30:	2e 10 00 48 	lbi.gp $r1,[+#0x48]
     e34:	96 48       	zeb33 $r1,$r1
     e36:	54 40 80 1f 	andi $r4,$r1,#0x1f
     e3a:	95 22       	slli333 $r4,$r4,#0x2
     e3c:	fe a7       	or33 $r2,$r4
     e3e:	96 d3       	seh33 $r3,$r2
     e40:	96 99       	zeh33 $r2,$r3
     e42:	54 40 80 40 	andi $r4,$r1,#0x40
     e46:	97 20       	zeb33 $r4,$r4
     e48:	c4 10       	beqz38 $r4,e68 <SpiFlashWriteUnLock+0x13a>
     e4a:	96 6e       	bmski33 $r1,#0x5
     e4c:	96 48       	zeb33 $r1,$r1
     e4e:	40 10 a4 08 	slli $r1,$r1,#0x9
     e52:	40 21 84 04 	or $r2,$r3,$r1
     e56:	96 91       	zeh33 $r2,$r2
     e58:	d5 08       	j8 e68 <SpiFlashWriteUnLock+0x13a>
     e5a:	66 20 01 bc 	bitci $r2,$r0,#0x1bc
     e5e:	2e 10 00 48 	lbi.gp $r1,[+#0x48]
     e62:	96 5f       	fexti33 $r1,#0x3
     e64:	94 4a       	slli333 $r1,$r1,#0x2
     e66:	fe 8f       	or33 $r2,$r1
     e68:	a6 72       	lbi333 $r1,[$r6+#0x2]
     e6a:	5a 18 69 2a 	bnec $r1,#0x69,ebe <SpiFlashWriteUnLock+0x190>
     e6e:	2e 10 00 3c 	lbi.gp $r1,[+#0x3c]
     e72:	96 48       	zeb33 $r1,$r1
     e74:	5a 18 bf 1e 	bnec $r1,#0xbf,eb0 <SpiFlashWriteUnLock+0x182>
     e78:	d5 15       	j8 ea2 <SpiFlashWriteUnLock+0x174>
     e7a:	80 08       	mov55 $r0,$r8
     e7c:	49 ff ff 4b 	jal d12 <ByteRecombineToDword>
     e80:	46 14 00 07 	sethi $r1,#0x40007
     e84:	a8 09       	swi333 $r0,[$r1+#0x4]
     e86:	84 20       	movi55 $r1,#0x0
     e88:	46 04 00 30 	sethi $r0,#0x40030
     e8c:	b6 20       	swi450 $r1,[$r0]
     e8e:	8d 04       	addi45 $r8,#0x4
     e90:	8e c4       	subi45 $r6,#0x4
     e92:	97 b2       	seb33 $r6,$r6
     e94:	46 14 00 07 	sethi $r1,#0x40007
     e98:	04 10 80 09 	lwi $r1,[$r1+#0x24]
     e9c:	96 5e       	bmski33 $r1,#0x3
     e9e:	c9 fb       	bnez38 $r1,e94 <SpiFlashWriteUnLock+0x166>
     ea0:	d5 04       	j8 ea8 <SpiFlashWriteUnLock+0x17a>
     ea2:	50 8f 80 04 	addi $r8,$sp,#0x4
     ea6:	84 cd       	movi55 $r6,#0xd
     ea8:	4e 66 ff e9 	bgtz $r6,e7a <SpiFlashWriteUnLock+0x14c>
     eac:	84 c0       	movi55 $r6,#0x0
     eae:	d5 0b       	j8 ec4 <SpiFlashWriteUnLock+0x196>
     eb0:	84 c0       	movi55 $r6,#0x0
     eb2:	4c 20 00 09 	beq $r2,$r0,ec4 <SpiFlashWriteUnLock+0x196>
     eb6:	80 02       	mov55 $r0,$r2
     eb8:	49 ff fc 28 	jal 708 <SpiFlashWriteStatus>
     ebc:	d5 04       	j8 ec4 <SpiFlashWriteUnLock+0x196>
     ebe:	44 6f ff 08 	movi $r6,#-248
     ec2:	d5 01       	j8 ec4 <SpiFlashWriteUnLock+0x196>
     ec4:	cf 04       	bnez38 $r7,ecc <SpiFlashWriteUnLock+0x19e>
     ec6:	84 01       	movi55 $r0,#0x1
     ec8:	49 ff fa ba 	jal 43c <SpiFlashHpmModeSet>
     ecc:	80 06       	mov55 $r0,$r6
     ece:	d5 09       	j8 ee0 <SpiFlashWriteUnLock+0x1b2>
     ed0:	44 0f ff 08 	movi $r0,#-248
     ed4:	d5 06       	j8 ee0 <SpiFlashWriteUnLock+0x1b2>
     ed6:	44 0f ff 08 	movi $r0,#-248
     eda:	d5 03       	j8 ee0 <SpiFlashWriteUnLock+0x1b2>
     edc:	44 0f ff 08 	movi $r0,#-248
     ee0:	ec 18       	addi10.sp #0x18
     ee2:	3a 6f a0 84 	lmw.bim $r6,[$sp],$r8,#0x2    ! {$r6~$r8, $lp}
     ee6:	dd 9e       	ret5 $lp

00000ee8 <SpiFlashRead>:
     ee8:	3a 6f a8 bc 	smw.adm $r6,[$sp],$r10,#0x2    ! {$r6~$r10, $lp}
     eec:	ef f8       	addi10.sp #-8
     eee:	81 40       	mov55 $r10,$r0
     ef0:	80 e1       	mov55 $r7,$r1
     ef2:	81 22       	mov55 $r9,$r2
     ef4:	49 ff fe 7a 	jal be8 <Flash_GIE_DISABLE>
     ef8:	46 04 00 07 	sethi $r0,#0x40007
     efc:	04 10 00 15 	lwi $r1,[$r0+#0x54]
     f00:	96 4c       	xlsb33 $r1,$r1
     f02:	c1 03       	beqz38 $r1,f08 <SpiFlashRead+0x20>
     f04:	49 ff fa 78 	jal 3f4 <SpiFlashResetCRM>
     f08:	80 c9       	mov55 $r6,$r9
     f0a:	4e 97 00 d2 	blez $r9,10ae <SpiFlashRead+0x1c6>
     f0e:	40 14 fc 0a 	srai $r1,$r9,#0x1f
     f12:	92 3e       	srli45 $r1,#0x1e
     f14:	40 84 84 00 	add $r8,$r9,$r1
     f18:	54 84 00 03 	andi $r8,$r8,#0x3
     f1c:	8b 01       	sub45 $r8,$r1
     f1e:	46 04 00 07 	sethi $r0,#0x40007
     f22:	14 a0 00 05 	swi $r10,[$r0+#0x14]
     f26:	3e 18 00 3c 	addi.gp $r1,#0x3c
     f2a:	b4 01       	lwi450 $r0,[$r1]
     f2c:	92 18       	srli45 $r0,#0x18
     f2e:	a0 49       	lwi333 $r1,[$r1+#0x4]
     f30:	40 10 a0 08 	slli $r1,$r1,#0x8
     f34:	fe 0f       	or33 $r0,$r1
     f36:	5a 08 02 2f 	bnec $r0,#0x2,f94 <SpiFlashRead+0xac>
     f3a:	2e 00 00 3c 	lbi.gp $r0,[+#0x3c]
     f3e:	96 00       	zeb33 $r0,$r0
     f40:	5a 00 a1 6b 	beqc $r0,#0xa1,1016 <SpiFlashRead+0x12e>
     f44:	5c f0 00 a2 	slti $r15,$r0,#0xa2
     f48:	e8 0d       	beqzs8 f62 <SpiFlashRead+0x7a>
     f4a:	5a 00 1c 66 	beqc $r0,#0x1c,1016 <SpiFlashRead+0x12e>
     f4e:	e6 1d       	slti45 $r0,#0x1d
     f50:	e8 04       	beqzs8 f58 <SpiFlashRead+0x70>
     f52:	5a 08 0e 16 	bnec $r0,#0xe,f7e <SpiFlashRead+0x96>
     f56:	d5 60       	j8 1016 <SpiFlashRead+0x12e>
     f58:	5a 00 85 5f 	beqc $r0,#0x85,1016 <SpiFlashRead+0x12e>
     f5c:	5a 08 8c 11 	bnec $r0,#0x8c,f7e <SpiFlashRead+0x96>
     f60:	d5 5b       	j8 1016 <SpiFlashRead+0x12e>
     f62:	5a 00 c8 5a 	beqc $r0,#0xc8,1016 <SpiFlashRead+0x12e>
     f66:	5c f0 00 c9 	slti $r15,$r0,#0xc9
     f6a:	e8 06       	beqzs8 f76 <SpiFlashRead+0x8e>
     f6c:	5a 00 bf 0e 	beqc $r0,#0xbf,f88 <SpiFlashRead+0xa0>
     f70:	5a 08 c2 07 	bnec $r0,#0xc2,f7e <SpiFlashRead+0x96>
     f74:	d5 51       	j8 1016 <SpiFlashRead+0x12e>
     f76:	5a 00 e0 50 	beqc $r0,#0xe0,1016 <SpiFlashRead+0x12e>
     f7a:	5a 00 ef 4e 	beqc $r0,#0xef,1016 <SpiFlashRead+0x12e>
     f7e:	84 60       	movi55 $r3,#0x0
     f80:	84 40       	movi55 $r2,#0x0
     f82:	84 20       	movi55 $r1,#0x0
     f84:	84 00       	movi55 $r0,#0x0
     f86:	d5 5b       	j8 103c <SpiFlashRead+0x154>
     f88:	44 30 03 bf 	movi $r3,#0x3bf
     f8c:	84 47       	movi55 $r2,#0x7
     f8e:	84 21       	movi55 $r1,#0x1
     f90:	84 0b       	movi55 $r0,#0xb
     f92:	d5 55       	j8 103c <SpiFlashRead+0x154>
     f94:	3e 18 00 3c 	addi.gp $r1,#0x3c
     f98:	b4 01       	lwi450 $r0,[$r1]
     f9a:	92 18       	srli45 $r0,#0x18
     f9c:	a0 49       	lwi333 $r1,[$r1+#0x4]
     f9e:	40 10 a0 08 	slli $r1,$r1,#0x8
     fa2:	fe 0f       	or33 $r0,$r1
     fa4:	5a 08 01 40 	bnec $r0,#0x1,1024 <SpiFlashRead+0x13c>
     fa8:	2e 00 00 3c 	lbi.gp $r0,[+#0x3c]
     fac:	96 00       	zeb33 $r0,$r0
     fae:	5a 00 a1 27 	beqc $r0,#0xa1,ffc <SpiFlashRead+0x114>
     fb2:	5c f0 00 a2 	slti $r15,$r0,#0xa2
     fb6:	e8 10       	beqzs8 fd6 <SpiFlashRead+0xee>
     fb8:	5a 00 51 3c 	beqc $r0,#0x51,1030 <SpiFlashRead+0x148>
     fbc:	5c f0 00 52 	slti $r15,$r0,#0x52
     fc0:	e8 06       	beqzs8 fcc <SpiFlashRead+0xe4>
     fc2:	5a 00 0e 1d 	beqc $r0,#0xe,ffc <SpiFlashRead+0x114>
     fc6:	5a 08 1c 16 	bnec $r0,#0x1c,ff2 <SpiFlashRead+0x10a>
     fca:	d5 19       	j8 ffc <SpiFlashRead+0x114>
     fcc:	5a 00 85 18 	beqc $r0,#0x85,ffc <SpiFlashRead+0x114>
     fd0:	5a 08 8c 11 	bnec $r0,#0x8c,ff2 <SpiFlashRead+0x10a>
     fd4:	d5 14       	j8 ffc <SpiFlashRead+0x114>
     fd6:	5a 00 c8 13 	beqc $r0,#0xc8,ffc <SpiFlashRead+0x114>
     fda:	5c f0 00 c9 	slti $r15,$r0,#0xc9
     fde:	e8 06       	beqzs8 fea <SpiFlashRead+0x102>
     fe0:	5a 00 bf 15 	beqc $r0,#0xbf,100a <SpiFlashRead+0x122>
     fe4:	5a 08 c2 07 	bnec $r0,#0xc2,ff2 <SpiFlashRead+0x10a>
     fe8:	d5 0a       	j8 ffc <SpiFlashRead+0x114>
     fea:	5a 00 e0 09 	beqc $r0,#0xe0,ffc <SpiFlashRead+0x114>
     fee:	5a 00 ef 07 	beqc $r0,#0xef,ffc <SpiFlashRead+0x114>
     ff2:	84 60       	movi55 $r3,#0x0
     ff4:	84 40       	movi55 $r2,#0x0
     ff6:	84 20       	movi55 $r1,#0x0
     ff8:	84 00       	movi55 $r0,#0x0
     ffa:	d5 21       	j8 103c <SpiFlashRead+0x154>
     ffc:	44 30 03 8a 	movi $r3,#0x38a
    1000:	84 4f       	movi55 $r2,#0xf
    1002:	84 27       	movi55 $r1,#0x7
    1004:	44 00 00 bb 	movi $r0,#0xbb
    1008:	d5 1a       	j8 103c <SpiFlashRead+0x154>
    100a:	44 30 03 bf 	movi $r3,#0x3bf
    100e:	84 47       	movi55 $r2,#0x7
    1010:	84 21       	movi55 $r1,#0x1
    1012:	84 0b       	movi55 $r0,#0xb
    1014:	d5 14       	j8 103c <SpiFlashRead+0x154>
    1016:	44 30 03 8f 	movi $r3,#0x38f
    101a:	84 4b       	movi55 $r2,#0xb
    101c:	84 27       	movi55 $r1,#0x7
    101e:	44 00 00 eb 	movi $r0,#0xeb
    1022:	d5 0d       	j8 103c <SpiFlashRead+0x154>
    1024:	44 30 03 80 	movi $r3,#0x380
    1028:	fa 4f       	movpi45 $r2,#0x1f
    102a:	84 27       	movi55 $r1,#0x7
    102c:	84 0b       	movi55 $r0,#0xb
    102e:	d5 07       	j8 103c <SpiFlashRead+0x154>
    1030:	44 30 03 82 	movi $r3,#0x382
    1034:	fa 4f       	movpi45 $r2,#0x1f
    1036:	84 27       	movi55 $r1,#0x7
    1038:	44 00 00 3b 	movi $r0,#0x3b
    103c:	84 a1       	movi55 $r5,#0x1
    103e:	46 44 00 07 	sethi $r4,#0x40007
    1042:	14 52 00 0a 	swi $r5,[$r4+#0x28]
    1046:	50 44 ff ff 	addi $r4,$r9,#-1
    104a:	49 ff f8 a2 	jal 18e <FshcSendCmd>
    104e:	d5 25       	j8 1098 <SpiFlashRead+0x1b0>
    1050:	46 04 00 07 	sethi $r0,#0x40007
    1054:	04 00 00 09 	lwi $r0,[$r0+#0x24]
    1058:	96 04       	xlsb33 $r0,$r0
    105a:	c8 fb       	bnez38 $r0,1050 <SpiFlashRead+0x168>
    105c:	e4 c4       	sltsi45 $r6,#0x4
    105e:	84 20       	movi55 $r1,#0x0
    1060:	e9 09       	bnezs8 1072 <SpiFlashRead+0x18a>
    1062:	46 04 00 07 	sethi $r0,#0x40007
    1066:	b4 00       	lwi450 $r0,[$r0]
    1068:	aa 39       	swi333.bi $r0,[$r7],#0x4
    106a:	46 04 00 30 	sethi $r0,#0x40030
    106e:	b6 20       	swi450 $r1,[$r0]
    1070:	d5 13       	j8 1096 <SpiFlashRead+0x1ae>
    1072:	46 04 00 07 	sethi $r0,#0x40007
    1076:	b4 00       	lwi450 $r0,[$r0]
    1078:	f0 81       	swi37.sp $r0,[+#0x4]
    107a:	46 04 00 30 	sethi $r0,#0x40030
    107e:	b6 20       	swi450 $r1,[$r0]
    1080:	84 00       	movi55 $r0,#0x0
    1082:	d5 08       	j8 1092 <SpiFlashRead+0x1aa>
    1084:	b0 42       	addri36.sp $r1,#0x8
    1086:	88 20       	add45 $r1,$r0
    1088:	00 10 ff fc 	lbi $r1,[$r1+#-4]
    108c:	18 13 80 01 	sbi.bi $r1,[$r7],#0x1
    1090:	8c 01       	addi45 $r0,#0x1
    1092:	e2 08       	slt45 $r0,$r8
    1094:	e9 f8       	bnezs8 1084 <SpiFlashRead+0x19c>
    1096:	8e c4       	subi45 $r6,#0x4
    1098:	4e 66 ff dc 	bgtz $r6,1050 <SpiFlashRead+0x168>
    109c:	84 20       	movi55 $r1,#0x0
    109e:	46 04 00 07 	sethi $r0,#0x40007
    10a2:	14 10 00 0a 	swi $r1,[$r0+#0x28]
    10a6:	49 ff fd a8 	jal bf6 <Flash_GIE_ENABLE>
    10aa:	84 00       	movi55 $r0,#0x0
    10ac:	d5 03       	j8 10b2 <SpiFlashRead+0x1ca>
    10ae:	44 0f ff 06 	movi $r0,#-250
    10b2:	ec 08       	addi10.sp #0x8
    10b4:	3a 6f a8 84 	lmw.bim $r6,[$sp],$r10,#0x2    ! {$r6~$r10, $lp}
    10b8:	dd 9e       	ret5 $lp

000010ba <SpiFlashEraseResume>:
    10ba:	3a 6f 98 bc 	smw.adm $r6,[$sp],$r6,#0x2    ! {$r6, $lp}
    10be:	84 0a       	movi55 $r0,#0xa
    10c0:	49 ff f8 22 	jal 104 <flash_udelay>
    10c4:	49 ff fd 92 	jal be8 <Flash_GIE_DISABLE>
    10c8:	46 04 00 07 	sethi $r0,#0x40007
    10cc:	04 00 00 15 	lwi $r0,[$r0+#0x54]
    10d0:	96 04       	xlsb33 $r0,$r0
    10d2:	c0 03       	beqz38 $r0,10d8 <SpiFlashEraseResume+0x1e>
    10d4:	49 ff f9 90 	jal 3f4 <SpiFlashResetCRM>
    10d8:	44 00 00 7a 	movi $r0,#0x7a
    10dc:	84 27       	movi55 $r1,#0x7
    10de:	84 40       	movi55 $r2,#0x0
    10e0:	44 30 07 00 	movi $r3,#0x700
    10e4:	84 80       	movi55 $r4,#0x0
    10e6:	49 ff f8 54 	jal 18e <FshcSendCmd>
    10ea:	44 00 00 64 	movi $r0,#0x64
    10ee:	49 ff f8 0b 	jal 104 <flash_udelay>
    10f2:	49 ff fa f4 	jal 6da <SpiFlashIsBusy>
    10f6:	5c 60 00 01 	slti $r6,$r0,#0x1
    10fa:	ce 0d       	bnez38 $r6,1114 <SpiFlashEraseResume+0x5a>
    10fc:	44 00 00 75 	movi $r0,#0x75
    1100:	84 27       	movi55 $r1,#0x7
    1102:	84 40       	movi55 $r2,#0x0
    1104:	44 30 07 00 	movi $r3,#0x700
    1108:	84 80       	movi55 $r4,#0x0
    110a:	49 ff f8 42 	jal 18e <FshcSendCmd>
    110e:	fa 04       	movpi45 $r0,#0x14
    1110:	49 ff f7 fa 	jal 104 <flash_udelay>
    1114:	49 ff fd 71 	jal bf6 <Flash_GIE_ENABLE>
    1118:	80 06       	mov55 $r0,$r6
    111a:	3a 6f 98 84 	lmw.bim $r6,[$sp],$r6,#0x2    ! {$r6, $lp}
    111e:	dd 9e       	ret5 $lp

00001120 <SpiFlashWrite>:
    1120:	3a 6f ba bc 	smw.adm $r6,[$sp],$r14,#0xa    ! {$r6~$r14, $fp, $lp}
    1124:	ef ec       	addi10.sp #-20
    1126:	81 40       	mov55 $r10,$r0
    1128:	80 e1       	mov55 $r7,$r1
    112a:	81 02       	mov55 $r8,$r2
    112c:	f3 82       	swi37.sp $r3,[+#0x8]
    112e:	49 ff fd 5d 	jal be8 <Flash_GIE_DISABLE>
    1132:	46 04 00 07 	sethi $r0,#0x40007
    1136:	04 00 00 15 	lwi $r0,[$r0+#0x54]
    113a:	96 04       	xlsb33 $r0,$r0
    113c:	c0 03       	beqz38 $r0,1142 <SpiFlashWrite+0x22>
    113e:	49 ff f9 5b 	jal 3f4 <SpiFlashResetCRM>
    1142:	54 65 00 ff 	andi $r6,$r10,#0xff
    1146:	40 c4 18 00 	add $r12,$r8,$r6
    114a:	fe 32       	neg33 $r0,$r6
    114c:	96 0f       	fexti33 $r0,#0x1
    114e:	f0 81       	swi37.sp $r0,[+#0x4]
    1150:	5c 06 01 00 	slti $r0,$r12,#0x100
    1154:	c8 0a       	bnez38 $r0,1168 <SpiFlashWrite+0x48>
    1156:	40 96 20 09 	srli $r9,$r12,#0x8
    115a:	52 83 00 ff 	subri $r8,$r6,#0xff
    115e:	54 c6 00 ff 	andi $r12,$r12,#0xff
    1162:	52 63 01 00 	subri $r6,$r6,#0x100
    1166:	d5 05       	j8 1170 <SpiFlashWrite+0x50>
    1168:	80 c8       	mov55 $r6,$r8
    116a:	8f 01       	subi45 $r8,#0x1
    116c:	85 80       	movi55 $r12,#0x0
    116e:	85 21       	movi55 $r9,#0x1
    1170:	3e 18 00 3c 	addi.gp $r1,#0x3c
    1174:	b4 01       	lwi450 $r0,[$r1]
    1176:	92 18       	srli45 $r0,#0x18
    1178:	a0 49       	lwi333 $r1,[$r1+#0x4]
    117a:	40 10 a0 08 	slli $r1,$r1,#0x8
    117e:	fe 0f       	or33 $r0,$r1
    1180:	5a 08 02 5b 	bnec $r0,#0x2,1236 <SpiFlashWrite+0x116>
    1184:	2e 00 00 3c 	lbi.gp $r0,[+#0x3c]
    1188:	96 00       	zeb33 $r0,$r0
    118a:	5a 00 a1 1f 	beqc $r0,#0xa1,11c8 <SpiFlashWrite+0xa8>
    118e:	5c f0 00 a2 	slti $r15,$r0,#0xa2
    1192:	e8 0d       	beqzs8 11ac <SpiFlashWrite+0x8c>
    1194:	5a 00 1c 32 	beqc $r0,#0x1c,11f8 <SpiFlashWrite+0xd8>
    1198:	e6 1d       	slti45 $r0,#0x1d
    119a:	e8 04       	beqzs8 11a2 <SpiFlashWrite+0x82>
    119c:	5a 08 0e 41 	bnec $r0,#0xe,121e <SpiFlashWrite+0xfe>
    11a0:	d5 14       	j8 11c8 <SpiFlashWrite+0xa8>
    11a2:	5a 00 85 13 	beqc $r0,#0x85,11c8 <SpiFlashWrite+0xa8>
    11a6:	5a 08 8c 3c 	bnec $r0,#0x8c,121e <SpiFlashWrite+0xfe>
    11aa:	d5 0f       	j8 11c8 <SpiFlashWrite+0xa8>
    11ac:	5a 00 c8 0e 	beqc $r0,#0xc8,11c8 <SpiFlashWrite+0xa8>
    11b0:	5c f0 00 c9 	slti $r15,$r0,#0xc9
    11b4:	e8 06       	beqzs8 11c0 <SpiFlashWrite+0xa0>
    11b6:	5a 00 bf 21 	beqc $r0,#0xbf,11f8 <SpiFlashWrite+0xd8>
    11ba:	5a 00 c2 13 	beqc $r0,#0xc2,11e0 <SpiFlashWrite+0xc0>
    11be:	d5 30       	j8 121e <SpiFlashWrite+0xfe>
    11c0:	5a 00 e0 04 	beqc $r0,#0xe0,11c8 <SpiFlashWrite+0xa8>
    11c4:	5a 08 ef 2d 	bnec $r0,#0xef,121e <SpiFlashWrite+0xfe>
    11c8:	2e 00 00 43 	lbi.gp $r0,[+#0x43]
    11cc:	96 00       	zeb33 $r0,$r0
    11ce:	44 e0 00 17 	movi $r14,#0x17
    11d2:	85 a7       	movi55 $r13,#0x7
    11d4:	c8 39       	bnez38 $r0,1246 <SpiFlashWrite+0x126>
    11d6:	45 c0 03 40 	movi $fp,#0x340
    11da:	84 02       	movi55 $r0,#0x2
    11dc:	b6 1f       	swi450 $r0,[$sp]
    11de:	d5 46       	j8 126a <SpiFlashWrite+0x14a>
    11e0:	2e 00 00 43 	lbi.gp $r0,[+#0x43]
    11e4:	96 00       	zeb33 $r0,$r0
    11e6:	85 a7       	movi55 $r13,#0x7
    11e8:	c8 35       	bnez38 $r0,1252 <SpiFlashWrite+0x132>
    11ea:	45 c0 03 40 	movi $fp,#0x340
    11ee:	44 e0 00 17 	movi $r14,#0x17
    11f2:	84 02       	movi55 $r0,#0x2
    11f4:	b6 1f       	swi450 $r0,[$sp]
    11f6:	d5 3a       	j8 126a <SpiFlashWrite+0x14a>
    11f8:	44 00 00 38 	movi $r0,#0x38
    11fc:	84 27       	movi55 $r1,#0x7
    11fe:	84 40       	movi55 $r2,#0x0
    1200:	44 30 07 00 	movi $r3,#0x700
    1204:	84 80       	movi55 $r4,#0x0
    1206:	49 ff f7 c4 	jal 18e <FshcSendCmd>
    120a:	84 00       	movi55 $r0,#0x0
    120c:	3e 00 00 43 	sbi.gp $r0,[+#0x43]
    1210:	45 c0 03 7f 	movi $fp,#0x37f
    1214:	85 c5       	movi55 $r14,#0x5
    1216:	85 a1       	movi55 $r13,#0x1
    1218:	84 02       	movi55 $r0,#0x2
    121a:	b6 1f       	swi450 $r0,[$sp]
    121c:	d5 27       	j8 126a <SpiFlashWrite+0x14a>
    121e:	2e 00 00 43 	lbi.gp $r0,[+#0x43]
    1222:	96 00       	zeb33 $r0,$r0
    1224:	44 e0 00 17 	movi $r14,#0x17
    1228:	85 a7       	movi55 $r13,#0x7
    122a:	c8 1b       	bnez38 $r0,1260 <SpiFlashWrite+0x140>
    122c:	45 c0 03 40 	movi $fp,#0x340
    1230:	84 02       	movi55 $r0,#0x2
    1232:	b6 1f       	swi450 $r0,[$sp]
    1234:	d5 1b       	j8 126a <SpiFlashWrite+0x14a>
    1236:	45 c0 03 40 	movi $fp,#0x340
    123a:	44 e0 00 17 	movi $r14,#0x17
    123e:	85 a7       	movi55 $r13,#0x7
    1240:	84 02       	movi55 $r0,#0x2
    1242:	b6 1f       	swi450 $r0,[$sp]
    1244:	d5 13       	j8 126a <SpiFlashWrite+0x14a>
    1246:	45 c0 03 43 	movi $fp,#0x343
    124a:	44 00 00 32 	movi $r0,#0x32
    124e:	b6 1f       	swi450 $r0,[$sp]
    1250:	d5 0d       	j8 126a <SpiFlashWrite+0x14a>
    1252:	45 c0 03 4f 	movi $fp,#0x34f
    1256:	85 c5       	movi55 $r14,#0x5
    1258:	44 00 00 38 	movi $r0,#0x38
    125c:	b6 1f       	swi450 $r0,[$sp]
    125e:	d5 06       	j8 126a <SpiFlashWrite+0x14a>
    1260:	45 c0 03 43 	movi $fp,#0x343
    1264:	44 00 00 32 	movi $r0,#0x32
    1268:	b6 1f       	swi450 $r0,[$sp]
    126a:	46 04 00 07 	sethi $r0,#0x40007
    126e:	04 00 00 11 	lwi $r0,[$r0+#0x44]
    1272:	96 00       	zeb33 $r0,$r0
    1274:	f0 83       	swi37.sp $r0,[+#0xc]
    1276:	48 00 00 e9 	j 1448 <SpiFlashWrite+0x328>
    127a:	2e 00 00 3c 	lbi.gp $r0,[+#0x3c]
    127e:	96 00       	zeb33 $r0,$r0
    1280:	5a 00 a1 36 	beqc $r0,#0xa1,12ec <SpiFlashWrite+0x1cc>
    1284:	5c f0 00 a2 	slti $r15,$r0,#0xa2
    1288:	e8 10       	beqzs8 12a8 <SpiFlashWrite+0x188>
    128a:	5a 00 51 31 	beqc $r0,#0x51,12ec <SpiFlashWrite+0x1cc>
    128e:	5c f0 00 52 	slti $r15,$r0,#0x52
    1292:	e8 06       	beqzs8 129e <SpiFlashWrite+0x17e>
    1294:	5a 00 0e 2c 	beqc $r0,#0xe,12ec <SpiFlashWrite+0x1cc>
    1298:	5a 00 1c 17 	beqc $r0,#0x1c,12c6 <SpiFlashWrite+0x1a6>
    129c:	d5 30       	j8 12fc <SpiFlashWrite+0x1dc>
    129e:	5a 00 85 27 	beqc $r0,#0x85,12ec <SpiFlashWrite+0x1cc>
    12a2:	5a 08 8c 2d 	bnec $r0,#0x8c,12fc <SpiFlashWrite+0x1dc>
    12a6:	d5 23       	j8 12ec <SpiFlashWrite+0x1cc>
    12a8:	5a 00 c8 22 	beqc $r0,#0xc8,12ec <SpiFlashWrite+0x1cc>
    12ac:	5c f0 00 c9 	slti $r15,$r0,#0xc9
    12b0:	e8 06       	beqzs8 12bc <SpiFlashWrite+0x19c>
    12b2:	5a 00 bf 0a 	beqc $r0,#0xbf,12c6 <SpiFlashWrite+0x1a6>
    12b6:	5a 08 c2 23 	bnec $r0,#0xc2,12fc <SpiFlashWrite+0x1dc>
    12ba:	d5 19       	j8 12ec <SpiFlashWrite+0x1cc>
    12bc:	5a 00 e0 18 	beqc $r0,#0xe0,12ec <SpiFlashWrite+0x1cc>
    12c0:	5a 08 ef 1e 	bnec $r0,#0xef,12fc <SpiFlashWrite+0x1dc>
    12c4:	d5 14       	j8 12ec <SpiFlashWrite+0x1cc>
    12c6:	3e 18 00 3c 	addi.gp $r1,#0x3c
    12ca:	b4 01       	lwi450 $r0,[$r1]
    12cc:	92 18       	srli45 $r0,#0x18
    12ce:	a0 49       	lwi333 $r1,[$r1+#0x4]
    12d0:	40 10 a0 08 	slli $r1,$r1,#0x8
    12d4:	fe 0f       	or33 $r0,$r1
    12d6:	5a 08 02 0b 	bnec $r0,#0x2,12ec <SpiFlashWrite+0x1cc>
    12da:	84 06       	movi55 $r0,#0x6
    12dc:	84 21       	movi55 $r1,#0x1
    12de:	84 40       	movi55 $r2,#0x0
    12e0:	44 30 00 30 	movi $r3,#0x30
    12e4:	84 80       	movi55 $r4,#0x0
    12e6:	49 ff f7 54 	jal 18e <FshcSendCmd>
    12ea:	d5 09       	j8 12fc <SpiFlashWrite+0x1dc>
    12ec:	84 06       	movi55 $r0,#0x6
    12ee:	84 27       	movi55 $r1,#0x7
    12f0:	84 40       	movi55 $r2,#0x0
    12f2:	44 30 07 00 	movi $r3,#0x700
    12f6:	84 80       	movi55 $r4,#0x0
    12f8:	49 ff f7 4b 	jal 18e <FshcSendCmd>
    12fc:	46 b4 00 07 	sethi $r11,#0x40007
    1300:	14 a5 80 05 	swi $r10,[$r11+#0x14]
    1304:	80 07       	mov55 $r0,$r7
    1306:	49 ff fd 06 	jal d12 <ByteRecombineToDword>
    130a:	14 05 80 01 	swi $r0,[$r11+#0x4]
    130e:	8c e4       	addi45 $r7,#0x4
    1310:	8e c4       	subi45 $r6,#0x4
    1312:	b4 1f       	lwi450 $r0,[$sp]
    1314:	80 2d       	mov55 $r1,$r13
    1316:	80 4e       	mov55 $r2,$r14
    1318:	80 7c       	mov55 $r3,$fp
    131a:	80 88       	mov55 $r4,$r8
    131c:	49 ff f7 39 	jal 18e <FshcSendCmd>
    1320:	46 04 00 07 	sethi $r0,#0x40007
    1324:	04 00 00 09 	lwi $r0,[$r0+#0x24]
    1328:	96 1e       	bmski33 $r0,#0x3
    132a:	c8 fb       	bnez38 $r0,1320 <SpiFlashWrite+0x200>
    132c:	e4 c4       	sltsi45 $r6,#0x4
    132e:	e9 0e       	bnezs8 134a <SpiFlashWrite+0x22a>
    1330:	80 07       	mov55 $r0,$r7
    1332:	49 ff fc f0 	jal d12 <ByteRecombineToDword>
    1336:	46 14 00 07 	sethi $r1,#0x40007
    133a:	a8 09       	swi333 $r0,[$r1+#0x4]
    133c:	84 20       	movi55 $r1,#0x0
    133e:	46 04 00 30 	sethi $r0,#0x40030
    1342:	b6 20       	swi450 $r1,[$r0]
    1344:	8c e4       	addi45 $r7,#0x4
    1346:	8e c4       	subi45 $r6,#0x4
    1348:	d5 ec       	j8 1320 <SpiFlashWrite+0x200>
    134a:	4e 67 00 0f 	blez $r6,1368 <SpiFlashWrite+0x248>
    134e:	80 07       	mov55 $r0,$r7
    1350:	49 ff fc e1 	jal d12 <ByteRecombineToDword>
    1354:	46 14 00 07 	sethi $r1,#0x40007
    1358:	a8 09       	swi333 $r0,[$r1+#0x4]
    135a:	84 20       	movi55 $r1,#0x0
    135c:	46 04 00 30 	sethi $r0,#0x40030
    1360:	b6 20       	swi450 $r1,[$r0]
    1362:	f0 01       	lwi37.sp $r0,[+#0x4]
    1364:	88 e0       	add45 $r7,$r0
    1366:	d5 05       	j8 1370 <SpiFlashWrite+0x250>
    1368:	c6 04       	beqz38 $r6,1370 <SpiFlashWrite+0x250>
    136a:	f0 01       	lwi37.sp $r0,[+#0x4]
    136c:	8e 04       	subi45 $r0,#0x4
    136e:	88 e0       	add45 $r7,$r0
    1370:	46 04 00 07 	sethi $r0,#0x40007
    1374:	04 00 00 0b 	lwi $r0,[$r0+#0x2c]
    1378:	c8 fc       	bnez38 $r0,1370 <SpiFlashWrite+0x250>
    137a:	f0 02       	lwi37.sp $r0,[+#0x8]
    137c:	5a 00 01 08 	beqc $r0,#0x1,138c <SpiFlashWrite+0x26c>
    1380:	49 ff f9 ad 	jal 6da <SpiFlashIsBusy>
    1384:	c8 fe       	bnez38 $r0,1380 <SpiFlashWrite+0x260>
    1386:	49 ff f6 f7 	jal 174 <FshcFlashBusyStatusSet>
    138a:	d5 20       	j8 13ca <SpiFlashWrite+0x2aa>
    138c:	44 00 00 64 	movi $r0,#0x64
    1390:	49 ff f6 ba 	jal 104 <flash_udelay>
    1394:	44 00 00 75 	movi $r0,#0x75
    1398:	84 27       	movi55 $r1,#0x7
    139a:	84 40       	movi55 $r2,#0x0
    139c:	44 30 07 00 	movi $r3,#0x700
    13a0:	84 80       	movi55 $r4,#0x0
    13a2:	49 ff f6 f6 	jal 18e <FshcSendCmd>
    13a6:	fa 04       	movpi45 $r0,#0x14
    13a8:	49 ff f6 ae 	jal 104 <flash_udelay>
    13ac:	49 ff fc 25 	jal bf6 <Flash_GIE_ENABLE>
    13b0:	49 ff fe 85 	jal 10ba <SpiFlashEraseResume>
    13b4:	c0 fe       	beqz38 $r0,13b0 <SpiFlashWrite+0x290>
    13b6:	49 ff fc 19 	jal be8 <Flash_GIE_DISABLE>
    13ba:	46 04 00 07 	sethi $r0,#0x40007
    13be:	04 00 00 15 	lwi $r0,[$r0+#0x54]
    13c2:	96 04       	xlsb33 $r0,$r0
    13c4:	c0 03       	beqz38 $r0,13ca <SpiFlashWrite+0x2aa>
    13c6:	49 ff f8 17 	jal 3f4 <SpiFlashResetCRM>
    13ca:	89 48       	add45 $r10,$r8
    13cc:	8d 41       	addi45 $r10,#0x1
    13ce:	8f 21       	subi45 $r9,#0x1
    13d0:	4e 93 00 38 	bnez $r9,1440 <SpiFlashWrite+0x320>
    13d4:	4e c2 00 0b 	beqz $r12,13ea <SpiFlashWrite+0x2ca>
    13d8:	80 cc       	mov55 $r6,$r12
    13da:	54 06 00 03 	andi $r0,$r12,#0x3
    13de:	f0 81       	swi37.sp $r0,[+#0x4]
    13e0:	50 86 7f ff 	addi $r8,$r12,#-1
    13e4:	85 80       	movi55 $r12,#0x0
    13e6:	85 21       	movi55 $r9,#0x1
    13e8:	d5 30       	j8 1448 <SpiFlashWrite+0x328>
    13ea:	3e 18 00 3c 	addi.gp $r1,#0x3c
    13ee:	b4 01       	lwi450 $r0,[$r1]
    13f0:	92 18       	srli45 $r0,#0x18
    13f2:	a0 49       	lwi333 $r1,[$r1+#0x4]
    13f4:	40 10 a0 08 	slli $r1,$r1,#0x8
    13f8:	fe 0f       	or33 $r0,$r1
    13fa:	5a 08 02 29 	bnec $r0,#0x2,144c <SpiFlashWrite+0x32c>
    13fe:	2e 00 00 3c 	lbi.gp $r0,[+#0x3c]
    1402:	96 00       	zeb33 $r0,$r0
    1404:	5a 08 1c 24 	bnec $r0,#0x1c,144c <SpiFlashWrite+0x32c>
    1408:	46 04 00 07 	sethi $r0,#0x40007
    140c:	04 00 00 15 	lwi $r0,[$r0+#0x54]
    1410:	96 04       	xlsb33 $r0,$r0
    1412:	c0 0a       	beqz38 $r0,1426 <SpiFlashWrite+0x306>
    1414:	44 00 00 ff 	movi $r0,#0xff
    1418:	84 21       	movi55 $r1,#0x1
    141a:	84 40       	movi55 $r2,#0x0
    141c:	44 30 00 30 	movi $r3,#0x30
    1420:	84 80       	movi55 $r4,#0x0
    1422:	49 ff f6 b6 	jal 18e <FshcSendCmd>
    1426:	44 00 00 ff 	movi $r0,#0xff
    142a:	84 21       	movi55 $r1,#0x1
    142c:	84 40       	movi55 $r2,#0x0
    142e:	44 30 00 30 	movi $r3,#0x30
    1432:	84 80       	movi55 $r4,#0x0
    1434:	49 ff f6 ad 	jal 18e <FshcSendCmd>
    1438:	84 01       	movi55 $r0,#0x1
    143a:	3e 00 00 43 	sbi.gp $r0,[+#0x43]
    143e:	d5 07       	j8 144c <SpiFlashWrite+0x32c>
    1440:	44 80 00 ff 	movi $r8,#0xff
    1444:	44 60 01 00 	movi $r6,#0x100
    1448:	4e 93 ff 19 	bnez $r9,127a <SpiFlashWrite+0x15a>
    144c:	f0 03       	lwi37.sp $r0,[+#0xc]
    144e:	c8 04       	bnez38 $r0,1456 <SpiFlashWrite+0x336>
    1450:	84 01       	movi55 $r0,#0x1
    1452:	49 ff f7 f5 	jal 43c <SpiFlashHpmModeSet>
    1456:	49 ff fb d0 	jal bf6 <Flash_GIE_ENABLE>
    145a:	46 04 00 07 	sethi $r0,#0x40007
    145e:	04 00 00 0b 	lwi $r0,[$r0+#0x2c]
    1462:	96 04       	xlsb33 $r0,$r0
    1464:	c8 fb       	bnez38 $r0,145a <SpiFlashWrite+0x33a>
    1466:	ec 14       	addi10.sp #0x14
    1468:	3a 6f ba 84 	lmw.bim $r6,[$sp],$r14,#0xa    ! {$r6~$r14, $fp, $lp}
    146c:	dd 9e       	ret5 $lp

0000146e <SpiFlashGetStatus>:
    146e:	3a 6f a0 bc 	smw.adm $r6,[$sp],$r8,#0x2    ! {$r6~$r8, $lp}
    1472:	46 74 00 07 	sethi $r7,#0x40007
    1476:	04 63 80 11 	lwi $r6,[$r7+#0x44]
    147a:	97 b0       	zeb33 $r6,$r6
    147c:	49 ff fb b6 	jal be8 <Flash_GIE_DISABLE>
    1480:	04 03 80 15 	lwi $r0,[$r7+#0x54]
    1484:	96 04       	xlsb33 $r0,$r0
    1486:	c0 03       	beqz38 $r0,148c <SpiFlashGetStatus+0x1e>
    1488:	49 ff f7 b6 	jal 3f4 <SpiFlashResetCRM>
    148c:	49 ff f8 cc 	jal 624 <SpiFlashReadStatus>
    1490:	80 e0       	mov55 $r7,$r0
    1492:	ce 04       	bnez38 $r6,149a <SpiFlashGetStatus+0x2c>
    1494:	84 01       	movi55 $r0,#0x1
    1496:	49 ff f7 d3 	jal 43c <SpiFlashHpmModeSet>
    149a:	49 ff fb ae 	jal bf6 <Flash_GIE_ENABLE>
    149e:	80 07       	mov55 $r0,$r7
    14a0:	3a 6f a0 84 	lmw.bim $r6,[$sp],$r8,#0x2    ! {$r6~$r8, $lp}
    14a4:	dd 9e       	ret5 $lp

000014a6 <SpiFlashFshcStatusSetIdle>:
    14a6:	3a 6f a0 bc 	smw.adm $r6,[$sp],$r8,#0x2    ! {$r6~$r8, $lp}
    14aa:	46 74 00 07 	sethi $r7,#0x40007
    14ae:	04 63 80 11 	lwi $r6,[$r7+#0x44]
    14b2:	97 b0       	zeb33 $r6,$r6
    14b4:	49 ff fb 9a 	jal be8 <Flash_GIE_DISABLE>
    14b8:	04 03 80 15 	lwi $r0,[$r7+#0x54]
    14bc:	96 04       	xlsb33 $r0,$r0
    14be:	c0 03       	beqz38 $r0,14c4 <SpiFlashFshcStatusSetIdle+0x1e>
    14c0:	49 ff f7 9a 	jal 3f4 <SpiFlashResetCRM>
    14c4:	46 04 00 07 	sethi $r0,#0x40007
    14c8:	04 00 00 18 	lwi $r0,[$r0+#0x60]
    14cc:	c8 fc       	bnez38 $r0,14c4 <SpiFlashFshcStatusSetIdle+0x1e>
    14ce:	49 ff f6 53 	jal 174 <FshcFlashBusyStatusSet>
    14d2:	44 00 00 7a 	movi $r0,#0x7a
    14d6:	84 27       	movi55 $r1,#0x7
    14d8:	84 40       	movi55 $r2,#0x0
    14da:	44 30 07 00 	movi $r3,#0x700
    14de:	84 80       	movi55 $r4,#0x0
    14e0:	49 ff f6 57 	jal 18e <FshcSendCmd>
    14e4:	ce 04       	bnez38 $r6,14ec <SpiFlashFshcStatusSetIdle+0x46>
    14e6:	84 01       	movi55 $r0,#0x1
    14e8:	49 ff f7 aa 	jal 43c <SpiFlashHpmModeSet>
    14ec:	49 ff fb 85 	jal bf6 <Flash_GIE_ENABLE>
    14f0:	3a 6f a0 84 	lmw.bim $r6,[$sp],$r8,#0x2    ! {$r6~$r8, $lp}
    14f4:	dd 9e       	ret5 $lp

000014f6 <SpiFlashResume>:
    14f6:	3a 6f a0 bc 	smw.adm $r6,[$sp],$r8,#0x2    ! {$r6~$r8, $lp}
    14fa:	46 74 00 07 	sethi $r7,#0x40007
    14fe:	04 63 80 11 	lwi $r6,[$r7+#0x44]
    1502:	97 b0       	zeb33 $r6,$r6
    1504:	49 ff fb 72 	jal be8 <Flash_GIE_DISABLE>
    1508:	04 03 80 15 	lwi $r0,[$r7+#0x54]
    150c:	96 04       	xlsb33 $r0,$r0
    150e:	c0 03       	beqz38 $r0,1514 <SpiFlashResume+0x1e>
    1510:	49 ff f7 72 	jal 3f4 <SpiFlashResetCRM>
    1514:	44 00 00 7a 	movi $r0,#0x7a
    1518:	84 27       	movi55 $r1,#0x7
    151a:	84 40       	movi55 $r2,#0x0
    151c:	44 30 07 00 	movi $r3,#0x700
    1520:	84 80       	movi55 $r4,#0x0
    1522:	49 ff f6 36 	jal 18e <FshcSendCmd>
    1526:	ce 04       	bnez38 $r6,152e <SpiFlashResume+0x38>
    1528:	84 01       	movi55 $r0,#0x1
    152a:	49 ff f7 89 	jal 43c <SpiFlashHpmModeSet>
    152e:	49 ff fb 64 	jal bf6 <Flash_GIE_ENABLE>
    1532:	3a 6f a0 84 	lmw.bim $r6,[$sp],$r8,#0x2    ! {$r6~$r8, $lp}
    1536:	dd 9e       	ret5 $lp

00001538 <SpiFlashErase>:
    1538:	3a 6f b0 bc 	smw.adm $r6,[$sp],$r12,#0x2    ! {$r6~$r12, $lp}
    153c:	80 c0       	mov55 $r6,$r0
    153e:	81 41       	mov55 $r10,$r1
    1540:	81 22       	mov55 $r9,$r2
    1542:	46 84 00 07 	sethi $r8,#0x40007
    1546:	04 74 00 11 	lwi $r7,[$r8+#0x44]
    154a:	97 f8       	zeb33 $r7,$r7
    154c:	49 ff fb 4e 	jal be8 <Flash_GIE_DISABLE>
    1550:	04 34 00 15 	lwi $r3,[$r8+#0x54]
    1554:	96 dc       	xlsb33 $r3,$r3
    1556:	c3 03       	beqz38 $r3,155c <SpiFlashErase+0x24>
    1558:	49 ff f7 4e 	jal 3f4 <SpiFlashResetCRM>
    155c:	5a 60 01 06 	beqc $r6,#0x1,1568 <SpiFlashErase+0x30>
    1560:	c6 14       	beqz38 $r6,1588 <SpiFlashErase+0x50>
    1562:	5a 60 02 0b 	beqc $r6,#0x2,1578 <SpiFlashErase+0x40>
    1566:	d5 7a       	j8 165a <SpiFlashErase+0x122>
    1568:	40 a5 30 08 	slli $r10,$r10,#0xc
    156c:	44 b0 03 00 	movi $r11,#0x300
    1570:	fb 07       	movpi45 $r8,#0x17
    1572:	44 c0 00 20 	movi $r12,#0x20
    1576:	d5 0f       	j8 1594 <SpiFlashErase+0x5c>
    1578:	40 a5 40 08 	slli $r10,$r10,#0x10
    157c:	44 b0 03 00 	movi $r11,#0x300
    1580:	fb 07       	movpi45 $r8,#0x17
    1582:	44 c0 00 d8 	movi $r12,#0xd8
    1586:	d5 07       	j8 1594 <SpiFlashErase+0x5c>
    1588:	44 b0 07 00 	movi $r11,#0x700
    158c:	85 00       	movi55 $r8,#0x0
    158e:	85 40       	movi55 $r10,#0x0
    1590:	44 c0 00 c7 	movi $r12,#0xc7
    1594:	4e 82 00 06 	beqz $r8,15a0 <SpiFlashErase+0x68>
    1598:	46 04 00 07 	sethi $r0,#0x40007
    159c:	14 a0 00 05 	swi $r10,[$r0+#0x14]
    15a0:	2e 10 00 3c 	lbi.gp $r1,[+#0x3c]
    15a4:	96 48       	zeb33 $r1,$r1
    15a6:	5a 10 a1 22 	beqc $r1,#0xa1,15ea <SpiFlashErase+0xb2>
    15aa:	5c f0 80 a2 	slti $r15,$r1,#0xa2
    15ae:	e8 10       	beqzs8 15ce <SpiFlashErase+0x96>
    15b0:	5a 10 51 1d 	beqc $r1,#0x51,15ea <SpiFlashErase+0xb2>
    15b4:	5c f0 80 52 	slti $r15,$r1,#0x52
    15b8:	e8 06       	beqzs8 15c4 <SpiFlashErase+0x8c>
    15ba:	5a 10 0e 18 	beqc $r1,#0xe,15ea <SpiFlashErase+0xb2>
    15be:	5a 18 1c 4e 	bnec $r1,#0x1c,165a <SpiFlashErase+0x122>
    15c2:	d5 14       	j8 15ea <SpiFlashErase+0xb2>
    15c4:	5a 10 85 13 	beqc $r1,#0x85,15ea <SpiFlashErase+0xb2>
    15c8:	5a 18 8c 49 	bnec $r1,#0x8c,165a <SpiFlashErase+0x122>
    15cc:	d5 0f       	j8 15ea <SpiFlashErase+0xb2>
    15ce:	5a 10 c8 0e 	beqc $r1,#0xc8,15ea <SpiFlashErase+0xb2>
    15d2:	5c f0 80 c9 	slti $r15,$r1,#0xc9
    15d6:	e8 06       	beqzs8 15e2 <SpiFlashErase+0xaa>
    15d8:	5a 10 bf 09 	beqc $r1,#0xbf,15ea <SpiFlashErase+0xb2>
    15dc:	5a 18 c2 3f 	bnec $r1,#0xc2,165a <SpiFlashErase+0x122>
    15e0:	d5 05       	j8 15ea <SpiFlashErase+0xb2>
    15e2:	5a 10 e0 04 	beqc $r1,#0xe0,15ea <SpiFlashErase+0xb2>
    15e6:	5a 18 ef 3a 	bnec $r1,#0xef,165a <SpiFlashErase+0x122>
    15ea:	84 06       	movi55 $r0,#0x6
    15ec:	84 27       	movi55 $r1,#0x7
    15ee:	84 40       	movi55 $r2,#0x0
    15f0:	44 30 07 00 	movi $r3,#0x700
    15f4:	84 80       	movi55 $r4,#0x0
    15f6:	49 ff f5 cc 	jal 18e <FshcSendCmd>
    15fa:	80 0c       	mov55 $r0,$r12
    15fc:	84 27       	movi55 $r1,#0x7
    15fe:	80 48       	mov55 $r2,$r8
    1600:	80 6b       	mov55 $r3,$r11
    1602:	84 80       	movi55 $r4,#0x0
    1604:	49 ff f5 c5 	jal 18e <FshcSendCmd>
    1608:	46 14 00 07 	sethi $r1,#0x40007
    160c:	04 10 80 0b 	lwi $r1,[$r1+#0x2c]
    1610:	c9 fc       	bnez38 $r1,1608 <SpiFlashErase+0xd0>
    1612:	4e 92 00 03 	beqz $r9,1618 <SpiFlashErase+0xe0>
    1616:	ce 0d       	bnez38 $r6,1630 <SpiFlashErase+0xf8>
    1618:	49 ff f8 61 	jal 6da <SpiFlashIsBusy>
    161c:	c8 fe       	bnez38 $r0,1618 <SpiFlashErase+0xe0>
    161e:	49 ff f5 ab 	jal 174 <FshcFlashBusyStatusSet>
    1622:	cf 04       	bnez38 $r7,162a <SpiFlashErase+0xf2>
    1624:	84 01       	movi55 $r0,#0x1
    1626:	49 ff f7 0b 	jal 43c <SpiFlashHpmModeSet>
    162a:	49 ff fa e6 	jal bf6 <Flash_GIE_ENABLE>
    162e:	d5 16       	j8 165a <SpiFlashErase+0x122>
    1630:	44 00 00 64 	movi $r0,#0x64
    1634:	49 ff f5 68 	jal 104 <flash_udelay>
    1638:	44 00 00 75 	movi $r0,#0x75
    163c:	84 27       	movi55 $r1,#0x7
    163e:	84 40       	movi55 $r2,#0x0
    1640:	44 30 07 00 	movi $r3,#0x700
    1644:	84 80       	movi55 $r4,#0x0
    1646:	49 ff f5 a4 	jal 18e <FshcSendCmd>
    164a:	fa 04       	movpi45 $r0,#0x14
    164c:	49 ff f5 5c 	jal 104 <flash_udelay>
    1650:	49 ff fa d3 	jal bf6 <Flash_GIE_ENABLE>
    1654:	49 ff fd 33 	jal 10ba <SpiFlashEraseResume>
    1658:	c0 fe       	beqz38 $r0,1654 <SpiFlashErase+0x11c>
    165a:	3a 6f b0 84 	lmw.bim $r6,[$sp],$r12,#0x2    ! {$r6~$r12, $lp}
    165e:	dd 9e       	ret5 $lp

00001660 <FlashErase>:
    1660:	3a 6f a8 bc 	smw.adm $r6,[$sp],$r10,#0x2    ! {$r6~$r10, $lp}
    1664:	fd 30       	movd44 $r6,$r0
    1666:	54 00 0f ff 	andi $r0,$r0,#0xfff
    166a:	c0 04       	beqz38 $r0,1672 <FlashErase+0x12>
    166c:	88 e0       	add45 $r7,$r0
    166e:	66 63 0f ff 	bitci $r6,$r6,#0xfff
    1672:	54 03 8f ff 	andi $r0,$r7,#0xfff
    1676:	c0 05       	beqz38 $r0,1680 <FlashErase+0x20>
    1678:	66 73 8f ff 	bitci $r7,$r7,#0xfff
    167c:	50 73 90 00 	addi $r7,$r7,#0x1000
    1680:	3c 0c 00 11 	lwi.gp $r0,[+#0x44]
    1684:	98 77       	add333 $r1,$r6,$r7
    1686:	e2 01       	slt45 $r0,$r1
    1688:	e9 49       	bnezs8 171a <FlashErase+0xba>
    168a:	44 00 ff ff 	movi $r0,#0xffff
    168e:	e2 07       	slt45 $r0,$r7
    1690:	e8 34       	beqzs8 16f8 <FlashErase+0x98>
    1692:	2e 00 00 3c 	lbi.gp $r0,[+#0x3c]
    1696:	96 00       	zeb33 $r0,$r0
    1698:	5a 00 bf 30 	beqc $r0,#0xbf,16f8 <FlashErase+0x98>
    169c:	40 f3 00 13 	zeh $r15,$r6
    16a0:	e8 15       	beqzs8 16ca <FlashErase+0x6a>
    16a2:	44 01 00 00 	movi $r0,#0x10000
    16a6:	40 90 3c 01 	sub $r9,$r0,$r15
    16aa:	93 2c       	srli45 $r9,#0xc
    16ac:	85 00       	movi55 $r8,#0x0
    16ae:	d5 0c       	j8 16c6 <FlashErase+0x66>
    16b0:	84 01       	movi55 $r0,#0x1
    16b2:	40 13 30 09 	srli $r1,$r6,#0xc
    16b6:	84 40       	movi55 $r2,#0x0
    16b8:	49 ff ff 40 	jal 1538 <SpiFlashErase>
    16bc:	50 73 f0 00 	addi $r7,$r7,#-4096
    16c0:	50 63 10 00 	addi $r6,$r6,#0x1000
    16c4:	8d 01       	addi45 $r8,#0x1
    16c6:	e1 09       	slts45 $r8,$r9
    16c8:	e9 f4       	bnezs8 16b0 <FlashErase+0x50>
    16ca:	44 00 ff ff 	movi $r0,#0xffff
    16ce:	e2 07       	slt45 $r0,$r7
    16d0:	e8 14       	beqzs8 16f8 <FlashErase+0x98>
    16d2:	40 93 c0 09 	srli $r9,$r7,#0x10
    16d6:	85 00       	movi55 $r8,#0x0
    16d8:	d5 0e       	j8 16f4 <FlashErase+0x94>
    16da:	84 02       	movi55 $r0,#0x2
    16dc:	40 13 40 09 	srli $r1,$r6,#0x10
    16e0:	84 40       	movi55 $r2,#0x0
    16e2:	49 ff ff 2b 	jal 1538 <SpiFlashErase>
    16e6:	44 0f 00 00 	movi $r0,#-65536
    16ea:	88 e0       	add45 $r7,$r0
    16ec:	44 01 00 00 	movi $r0,#0x10000
    16f0:	88 c0       	add45 $r6,$r0
    16f2:	8d 01       	addi45 $r8,#0x1
    16f4:	e1 09       	slts45 $r8,$r9
    16f6:	e9 f2       	bnezs8 16da <FlashErase+0x7a>
    16f8:	40 83 b0 09 	srli $r8,$r7,#0xc
    16fc:	84 e0       	movi55 $r7,#0x0
    16fe:	d5 0a       	j8 1712 <FlashErase+0xb2>
    1700:	84 01       	movi55 $r0,#0x1
    1702:	40 13 30 09 	srli $r1,$r6,#0xc
    1706:	84 40       	movi55 $r2,#0x0
    1708:	49 ff ff 18 	jal 1538 <SpiFlashErase>
    170c:	50 63 10 00 	addi $r6,$r6,#0x1000
    1710:	8c e1       	addi45 $r7,#0x1
    1712:	e0 e8       	slts45 $r7,$r8
    1714:	e9 f6       	bnezs8 1700 <FlashErase+0xa0>
    1716:	84 00       	movi55 $r0,#0x0
    1718:	d5 03       	j8 171e <FlashErase+0xbe>
    171a:	44 0f ff 09 	movi $r0,#-247
    171e:	3a 6f a8 84 	lmw.bim $r6,[$sp],$r10,#0x2    ! {$r6~$r10, $lp}
    1722:	dd 9e       	ret5 $lp

00001724 <SpiFlashInit>:
    1724:	3a 6f a8 bc 	smw.adm $r6,[$sp],$r10,#0x2    ! {$r6~$r10, $lp}
    1728:	fd 30       	movd44 $r6,$r0
    172a:	fd 41       	movd44 $r8,$r2
    172c:	49 ff fa 5e 	jal be8 <Flash_GIE_DISABLE>
    1730:	80 09       	mov55 $r0,$r9
    1732:	80 26       	mov55 $r1,$r6
    1734:	49 ff fa 66 	jal c00 <FshcClkSwitch>
    1738:	80 07       	mov55 $r0,$r7
    173a:	49 ff f4 ff 	jal 138 <FshcGpioSet>
    173e:	84 01       	movi55 $r0,#0x1
    1740:	84 24       	movi55 $r1,#0x4
    1742:	49 ff f5 0c 	jal 15a <FshcInit>
    1746:	49 ff f6 57 	jal 3f4 <SpiFlashResetCRM>
    174a:	84 8a       	movi55 $r4,#0xa
    174c:	d5 13       	j8 1772 <SpiFlashInit+0x4e>
    174e:	49 ff f6 e5 	jal 518 <SpiFlashReadId>
    1752:	2e 30 00 3c 	lbi.gp $r3,[+#0x3c]
    1756:	96 d8       	zeb33 $r3,$r3
    1758:	5a 30 ff 09 	beqc $r3,#0xff,176a <SpiFlashInit+0x46>
    175c:	3c 3c 00 0f 	lwi.gp $r3,[+#0x3c]
    1760:	92 68       	srli45 $r3,#0x8
    1762:	97 59       	zeh33 $r5,$r3
    1764:	44 00 ff ff 	movi $r0,#0xffff
    1768:	d8 08       	bnes38 $r0,1778 <SpiFlashInit+0x54>
    176a:	84 01       	movi55 $r0,#0x1
    176c:	49 ff f4 d9 	jal 11e <flash_delayms>
    1770:	80 86       	mov55 $r4,$r6
    1772:	9e e1       	subi333 $r3,$r4,#0x1
    1774:	97 98       	zeb33 $r6,$r3
    1776:	cc ec       	bnez38 $r4,174e <SpiFlashInit+0x2a>
    1778:	2e 00 00 3c 	lbi.gp $r0,[+#0x3c]
    177c:	96 00       	zeb33 $r0,$r0
    177e:	5a 00 ff 09 	beqc $r0,#0xff,1790 <SpiFlashInit+0x6c>
    1782:	3c 0c 00 0f 	lwi.gp $r0,[+#0x3c]
    1786:	92 08       	srli45 $r0,#0x8
    1788:	97 41       	zeh33 $r5,$r0
    178a:	44 10 ff ff 	movi $r1,#0xffff
    178e:	d9 06       	bnes38 $r1,179a <SpiFlashInit+0x76>
    1790:	49 ff fa 33 	jal bf6 <Flash_GIE_ENABLE>
    1794:	44 6f ff 02 	movi $r6,#-254
    1798:	d5 29       	j8 17ea <SpiFlashInit+0xc6>
    179a:	84 06       	movi55 $r0,#0x6
    179c:	84 27       	movi55 $r1,#0x7
    179e:	84 40       	movi55 $r2,#0x0
    17a0:	44 30 07 00 	movi $r3,#0x700
    17a4:	84 80       	movi55 $r4,#0x0
    17a6:	49 ff f4 f4 	jal 18e <FshcSendCmd>
    17aa:	84 04       	movi55 $r0,#0x4
    17ac:	84 27       	movi55 $r1,#0x7
    17ae:	84 40       	movi55 $r2,#0x0
    17b0:	44 30 07 00 	movi $r3,#0x700
    17b4:	84 80       	movi55 $r4,#0x0
    17b6:	49 ff f4 ec 	jal 18e <FshcSendCmd>
    17ba:	80 07       	mov55 $r0,$r7
    17bc:	fa 24       	movpi45 $r1,#0x14
    17be:	49 ff f8 6a 	jal 892 <SpiFlashIOModeCfg>
    17c2:	80 c0       	mov55 $r6,$r0
    17c4:	c8 fb       	bnez38 $r0,17ba <SpiFlashInit+0x96>
    17c6:	80 07       	mov55 $r0,$r7
    17c8:	80 28       	mov55 $r1,$r8
    17ca:	84 41       	movi55 $r2,#0x1
    17cc:	49 ff f4 fb 	jal 1c2 <FshcSpiIOModeCfg>
    17d0:	4e 82 00 05 	beqz $r8,17da <SpiFlashInit+0xb6>
    17d4:	84 01       	movi55 $r0,#0x1
    17d6:	49 ff f6 33 	jal 43c <SpiFlashHpmModeSet>
    17da:	49 ff fa 0e 	jal bf6 <Flash_GIE_ENABLE>
    17de:	40 00 00 09 	nop
    17e2:	40 00 00 09 	nop
    17e6:	40 00 00 09 	nop
    17ea:	80 06       	mov55 $r0,$r6
    17ec:	3a 6f a8 84 	lmw.bim $r6,[$sp],$r10,#0x2    ! {$r6~$r10, $lp}
    17f0:	dd 9e       	ret5 $lp

000017f2 <SpiFlashInfoGet>:
    17f2:	3e 08 00 3c 	addi.gp $r0,#0x3c
    17f6:	dd 9e       	ret5 $lp

000017f8 <SpiFlashIOCtrl>:
    17f8:	3a 6f a0 bc 	smw.adm $r6,[$sp],$r8,#0x2    ! {$r6~$r8, $lp}
    17fc:	80 c0       	mov55 $r6,$r0
    17fe:	49 ff f9 f5 	jal be8 <Flash_GIE_DISABLE>
    1802:	9e 31       	subi333 $r0,$r6,#0x1
    1804:	5c 10 00 09 	slti $r1,$r0,#0x9
    1808:	c1 58       	beqz38 $r1,18b8 <SpiFlashIOCtrl+0xc0>
    180a:	44 f0 18 14 	movi $r15,#0x1814
    180e:	38 07 82 02 	lw $r0,[$r15+($r0<<#0x2)]
    1812:	dd 00       	jr5 $r0
    1814:	38 18 00 00 	.word	0x00001838
    1818:	44 18 00 00 	.word	0x00001844
    181c:	52 18 00 00 	.word	0x00001852
    1820:	70 18 00 00 	.word	0x00001870
    1824:	7c 18 00 00 	.word	0x0000187c
    1828:	84 18 00 00 	.word	0x00001884
    182c:	92 18 00 00 	.word	0x00001892
    1830:	9a 18 00 00 	.word	0x0000189a
    1834:	a2 18 00 00 	.word	0x000018a2
    1838:	00 0f 80 10 	lbi $r0,[$sp+#0x10]
    183c:	49 ff f9 0e 	jal a58 <SpiFlashWriteLock>
    1840:	80 c0       	mov55 $r6,$r0
    1842:	d5 3c       	j8 18ba <SpiFlashIOCtrl+0xc2>
    1844:	f0 04       	lwi37.sp $r0,[+#0x10]
    1846:	00 1f 80 14 	lbi $r1,[$sp+#0x14]
    184a:	49 ff fa 72 	jal d2e <SpiFlashWriteUnLock>
    184e:	80 c0       	mov55 $r6,$r0
    1850:	d5 35       	j8 18ba <SpiFlashIOCtrl+0xc2>
    1852:	04 8f 80 04 	lwi $r8,[$sp+#0x10]
    1856:	f7 05       	lwi37.sp $r7,[+#0x14]
    1858:	49 ff f6 60 	jal 518 <SpiFlashReadId>
    185c:	80 c0       	mov55 $r6,$r0
    185e:	3e 18 00 3c 	addi.gp $r1,#0x3c
    1862:	b4 01       	lwi450 $r0,[$r1]
    1864:	92 08       	srli45 $r0,#0x8
    1866:	12 04 00 00 	shi $r0,[$r8+#0x0]
    186a:	a6 08       	lbi333 $r0,[$r1+#0x0]
    186c:	ae 38       	sbi333 $r0,[$r7+#0x0]
    186e:	d5 26       	j8 18ba <SpiFlashIOCtrl+0xc2>
    1870:	f6 04       	lwi37.sp $r6,[+#0x10]
    1872:	49 ff f6 d9 	jal 624 <SpiFlashReadStatus>
    1876:	b6 06       	swi450 $r0,[$r6]
    1878:	84 c0       	movi55 $r6,#0x0
    187a:	d5 20       	j8 18ba <SpiFlashIOCtrl+0xc2>
    187c:	49 ff f5 bc 	jal 3f4 <SpiFlashResetCRM>
    1880:	84 c0       	movi55 $r6,#0x0
    1882:	d5 1c       	j8 18ba <SpiFlashIOCtrl+0xc2>
    1884:	f0 04       	lwi37.sp $r0,[+#0x10]
    1886:	02 1f 80 0a 	lhi $r1,[$sp+#0x14]
    188a:	49 ff f8 04 	jal 892 <SpiFlashIOModeCfg>
    188e:	80 c0       	mov55 $r6,$r0
    1890:	d5 15       	j8 18ba <SpiFlashIOCtrl+0xc2>
    1892:	49 ff f8 70 	jal 972 <SpiFlashDeepPowerDown>
    1896:	84 c0       	movi55 $r6,#0x0
    1898:	d5 11       	j8 18ba <SpiFlashIOCtrl+0xc2>
    189a:	49 ff f8 a9 	jal 9ec <SpiFlashReleaseFromDeepPowerDown>
    189e:	84 c0       	movi55 $r6,#0x0
    18a0:	d5 0d       	j8 18ba <SpiFlashIOCtrl+0xc2>
    18a2:	00 0f 80 10 	lbi $r0,[$sp+#0x10]
    18a6:	5a 08 01 04 	bnec $r0,#0x1,18ae <SpiFlashIOCtrl+0xb6>
    18aa:	84 02       	movi55 $r0,#0x2
    18ac:	d5 02       	j8 18b0 <SpiFlashIOCtrl+0xb8>
    18ae:	84 03       	movi55 $r0,#0x3
    18b0:	49 ff f5 c6 	jal 43c <SpiFlashHpmModeSet>
    18b4:	80 c0       	mov55 $r6,$r0
    18b6:	d5 02       	j8 18ba <SpiFlashIOCtrl+0xc2>
    18b8:	84 c0       	movi55 $r6,#0x0
    18ba:	49 ff f9 9e 	jal bf6 <Flash_GIE_ENABLE>
    18be:	80 06       	mov55 $r0,$r6
    18c0:	3a 6f a0 84 	lmw.bim $r6,[$sp],$r8,#0x2    ! {$r6~$r8, $lp}
    18c4:	dd 9e       	ret5 $lp
    18c6:	92 00       	nop16

Disassembly of section .tcm_section:

00001a8c <Clock_CoreClkDivSet>:
    1a8c:	44 20 01 00 	movi $r2,#0x100
    1a90:	40 11 00 06 	slt $r1,$r2,$r0
    1a94:	40 01 04 1b 	cmovn $r0,$r2,$r1
    1a98:	c0 05       	beqz38 $r0,1aa2 <Clock_CoreClkDivSet+0x16>
    1a9a:	8e 01       	subi45 $r0,#0x1
    1a9c:	46 14 00 21 	sethi $r1,#0x40021
    1aa0:	a8 0a       	swi333 $r0,[$r1+#0x8]
    1aa2:	dd 9e       	ret5 $lp

00001aa4 <Clock_CoreClkDivGet>:
    1aa4:	46 04 00 21 	sethi $r0,#0x40021
    1aa8:	a0 02       	lwi333 $r0,[$r0+#0x8]
    1aaa:	8c 01       	addi45 $r0,#0x1
    1aac:	dd 9e       	ret5 $lp

00001aae <Clock_SysClkDivGet>:
    1aae:	46 04 00 21 	sethi $r0,#0x40021
    1ab2:	04 00 00 09 	lwi $r0,[$r0+#0x24]
    1ab6:	42 00 34 0b 	btst $r0,$r0,#0xd
    1aba:	5a 00 01 07 	beqc $r0,#0x1,1ac8 <Clock_SysClkDivGet+0x1a>
    1abe:	46 04 00 21 	sethi $r0,#0x40021
    1ac2:	a0 03       	lwi333 $r0,[$r0+#0xc]
    1ac4:	8c 01       	addi45 $r0,#0x1
    1ac6:	dd 9e       	ret5 $lp
    1ac8:	84 01       	movi55 $r0,#0x1
    1aca:	dd 9e       	ret5 $lp

00001acc <Clock_PllFreqGet>:
    1acc:	3c 0d ff f4 	lwi.gp $r0,[+#-48]
    1ad0:	dd 9e       	ret5 $lp

00001ad2 <Clock_APllFreqGet>:
    1ad2:	3c 0d ff f3 	lwi.gp $r0,[+#-52]
    1ad6:	dd 9e       	ret5 $lp

00001ad8 <Clock_CoreClockFreqGet>:
    1ad8:	3a 6f 98 bc 	smw.adm $r6,[$sp],$r6,#0x2    ! {$r6, $lp}
    1adc:	ef f8       	addi10.sp #-8
    1ade:	46 04 00 21 	sethi $r0,#0x40021
    1ae2:	50 00 00 24 	addi $r0,$r0,#0x24
    1ae6:	b4 00       	lwi450 $r0,[$r0]
    1ae8:	96 04       	xlsb33 $r0,$r0
    1aea:	96 00       	zeb33 $r0,$r0
    1aec:	5a 08 01 1e 	bnec $r0,#0x1,1b28 <Clock_CoreClockFreqGet+0x50>
    1af0:	46 04 00 21 	sethi $r0,#0x40021
    1af4:	50 00 00 24 	addi $r0,$r0,#0x24
    1af8:	b4 00       	lwi450 $r0,[$r0]
    1afa:	92 01       	srli45 $r0,#0x1
    1afc:	96 04       	xlsb33 $r0,$r0
    1afe:	96 00       	zeb33 $r0,$r0
    1b00:	5a 08 01 0b 	bnec $r0,#0x1,1b16 <Clock_CoreClockFreqGet+0x3e>
    1b04:	49 ff ff e7 	jal 1ad2 <Clock_APllFreqGet>
    1b08:	80 c0       	mov55 $r6,$r0
    1b0a:	49 ff ff cd 	jal 1aa4 <Clock_CoreClkDivGet>
    1b0e:	40 03 00 37 	divr $r0,$r1,$r6,$r0
    1b12:	f0 81       	swi37.sp $r0,[+#0x4]
    1b14:	d5 13       	j8 1b3a <Clock_CoreClockFreqGet+0x62>
    1b16:	49 ff ff db 	jal 1acc <Clock_PllFreqGet>
    1b1a:	80 c0       	mov55 $r6,$r0
    1b1c:	49 ff ff c4 	jal 1aa4 <Clock_CoreClkDivGet>
    1b20:	40 03 00 37 	divr $r0,$r1,$r6,$r0
    1b24:	f0 81       	swi37.sp $r0,[+#0x4]
    1b26:	d5 0a       	j8 1b3a <Clock_CoreClockFreqGet+0x62>
    1b28:	84 00       	movi55 $r0,#0x0
    1b2a:	49 00 09 65 	jal 2df4 <Clock_RcFreqGet>
    1b2e:	80 c0       	mov55 $r6,$r0
    1b30:	49 ff ff ba 	jal 1aa4 <Clock_CoreClkDivGet>
    1b34:	40 03 00 37 	divr $r0,$r1,$r6,$r0
    1b38:	f0 81       	swi37.sp $r0,[+#0x4]
    1b3a:	f0 01       	lwi37.sp $r0,[+#0x4]
    1b3c:	ec 08       	addi10.sp #0x8
    1b3e:	3a 6f 98 84 	lmw.bim $r6,[$sp],$r6,#0x2    ! {$r6, $lp}
    1b42:	dd 9e       	ret5 $lp

00001b44 <Clock_SysClockFreqGet>:
    1b44:	3b ff fc bc 	smw.adm $sp,[$sp],$sp,#0x2    ! {$lp}
    1b48:	ef f4       	addi10.sp #-12
    1b4a:	49 ff ff c7 	jal 1ad8 <Clock_CoreClockFreqGet>
    1b4e:	f0 81       	swi37.sp $r0,[+#0x4]
    1b50:	46 04 00 21 	sethi $r0,#0x40021
    1b54:	50 00 00 24 	addi $r0,$r0,#0x24
    1b58:	b4 00       	lwi450 $r0,[$r0]
    1b5a:	92 0d       	srli45 $r0,#0xd
    1b5c:	96 04       	xlsb33 $r0,$r0
    1b5e:	96 00       	zeb33 $r0,$r0
    1b60:	c8 08       	bnez38 $r0,1b70 <Clock_SysClockFreqGet+0x2c>
    1b62:	49 ff ff a6 	jal 1aae <Clock_SysClkDivGet>
    1b66:	80 20       	mov55 $r1,$r0
    1b68:	f0 01       	lwi37.sp $r0,[+#0x4]
    1b6a:	40 00 04 37 	divr $r0,$r1,$r0,$r1
    1b6e:	f0 81       	swi37.sp $r0,[+#0x4]
    1b70:	f0 01       	lwi37.sp $r0,[+#0x4]
    1b72:	ec 0c       	addi10.sp #0xc
    1b74:	3b ff fc 84 	lmw.bim $sp,[$sp],$sp,#0x2    ! {$lp}
    1b78:	dd 9e       	ret5 $lp

00001b7a <Clock_SysClkDivSet>:
    1b7a:	44 20 00 40 	movi $r2,#0x40
    1b7e:	40 11 00 06 	slt $r1,$r2,$r0
    1b82:	40 01 04 1b 	cmovn $r0,$r2,$r1
    1b86:	5c 10 00 02 	slti $r1,$r0,#0x2
    1b8a:	c1 16       	beqz38 $r1,1bb6 <Clock_SysClkDivSet+0x3c>
    1b8c:	3b ff fc bc 	smw.adm $sp,[$sp],$sp,#0x2    ! {$lp}
    1b90:	ef fc       	addi10.sp #-4
    1b92:	49 ff ff a3 	jal 1ad8 <Clock_CoreClockFreqGet>
    1b96:	46 10 89 54 	sethi $r1,#0x8954
    1b9a:	50 10 83 ff 	addi $r1,$r1,#0x3ff
    1b9e:	40 00 80 06 	slt $r0,$r1,$r0
    1ba2:	c8 15       	bnez38 $r0,1bcc <Clock_SysClkDivSet+0x52>
    1ba4:	46 14 00 21 	sethi $r1,#0x40021
    1ba8:	04 00 80 09 	lwi $r0,[$r1+#0x24]
    1bac:	58 00 20 00 	ori $r0,$r0,#0x2000
    1bb0:	14 00 80 09 	swi $r0,[$r1+#0x24]
    1bb4:	d5 0c       	j8 1bcc <Clock_SysClkDivSet+0x52>
    1bb6:	8e 01       	subi45 $r0,#0x1
    1bb8:	46 14 00 21 	sethi $r1,#0x40021
    1bbc:	a8 0b       	swi333 $r0,[$r1+#0xc]
    1bbe:	04 00 80 09 	lwi $r0,[$r1+#0x24]
    1bc2:	66 00 20 00 	bitci $r0,$r0,#0x2000
    1bc6:	14 00 80 09 	swi $r0,[$r1+#0x24]
    1bca:	dd 9e       	ret5 $lp
    1bcc:	ec 04       	addi10.sp #0x4
    1bce:	3b ff fc 84 	lmw.bim $sp,[$sp],$sp,#0x2    ! {$lp}
    1bd2:	dd 9e       	ret5 $lp

00001bd4 <GPIO_RegOneBitSet>:
    1bd4:	46 34 00 10 	sethi $r3,#0x40010
    1bd8:	38 21 82 02 	lw $r2,[$r3+($r0<<#0x2)]
    1bdc:	fe 57       	or33 $r1,$r2
    1bde:	38 11 82 0a 	sw $r1,[$r3+($r0<<#0x2)]
    1be2:	dd 9e       	ret5 $lp

00001be4 <GPIO_RegOneBitClear>:
    1be4:	46 34 00 10 	sethi $r3,#0x40010
    1be8:	38 21 82 02 	lw $r2,[$r3+($r0<<#0x2)]
    1bec:	40 11 04 12 	bitc $r1,$r2,$r1
    1bf0:	38 11 82 0a 	sw $r1,[$r3+($r0<<#0x2)]
    1bf4:	dd 9e       	ret5 $lp
	...

00001bf8 <__udelay>:
    1bf8:	c0 28       	beqz38 $r0,1c48 <__udelay+0x50>
    1bfa:	3a 6f 98 bc 	smw.adm $r6,[$sp],$r6,#0x2    ! {$r6, $lp}
    1bfe:	46 14 00 21 	sethi $r1,#0x40021
    1c02:	04 10 80 09 	lwi $r1,[$r1+#0x24]
    1c06:	96 4c       	xlsb33 $r1,$r1
    1c08:	5a 18 01 11 	bnec $r1,#0x1,1c2a <__udelay+0x32>
    1c0c:	80 c0       	mov55 $r6,$r0
    1c0e:	49 ff ff 65 	jal 1ad8 <Clock_CoreClockFreqGet>
    1c12:	66 00 00 01 	bitci $r0,$r0,#0x1
    1c16:	46 14 31 bd 	sethi $r1,#0x431bd
    1c1a:	50 10 8e 83 	addi $r1,$r1,#0xe83
    1c1e:	42 00 04 69 	mulr64 $r0,$r0,$r1
    1c22:	92 33       	srli45 $r1,#0x13
    1c24:	42 00 98 24 	mul $r0,$r1,$r6
    1c28:	d5 03       	j8 1c2e <__udelay+0x36>
    1c2a:	84 26       	movi55 $r1,#0x6
    1c2c:	fe 0c       	mul33 $r0,$r1
    1c2e:	5c f0 00 97 	slti $r15,$r0,#0x97
    1c32:	e9 03       	bnezs8 1c38 <__udelay+0x40>
    1c34:	50 00 7f 6a 	addi $r0,$r0,#-150
    1c38:	4e 02 00 06 	beqz $r0,1c44 <__udelay+0x4c>
    1c3c:	50 00 7f ff 	addi $r0,$r0,#-1
    1c40:	4e 06 ff fe 	bgtz $r0,1c3c <__udelay+0x44>
    1c44:	3a 6f 98 84 	lmw.bim $r6,[$sp],$r6,#0x2    ! {$r6, $lp}
    1c48:	dd 9e       	ret5 $lp

00001c4a <DelayMs>:
    1c4a:	c0 29       	beqz38 $r0,1c9c <DelayMs+0x52>
    1c4c:	3a 6f 98 bc 	smw.adm $r6,[$sp],$r6,#0x2    ! {$r6, $lp}
    1c50:	46 14 00 21 	sethi $r1,#0x40021
    1c54:	04 10 80 09 	lwi $r1,[$r1+#0x24]
    1c58:	96 4c       	xlsb33 $r1,$r1
    1c5a:	5a 18 01 11 	bnec $r1,#0x1,1c7c <DelayMs+0x32>
    1c5e:	80 c0       	mov55 $r6,$r0
    1c60:	49 ff ff 3c 	jal 1ad8 <Clock_CoreClockFreqGet>
    1c64:	66 00 00 01 	bitci $r0,$r0,#0x1
    1c68:	46 11 06 24 	sethi $r1,#0x10624
    1c6c:	50 10 8d d3 	addi $r1,$r1,#0xdd3
    1c70:	42 00 04 69 	mulr64 $r0,$r0,$r1
    1c74:	92 27       	srli45 $r1,#0x7
    1c76:	42 00 98 24 	mul $r0,$r1,$r6
    1c7a:	d5 04       	j8 1c82 <DelayMs+0x38>
    1c7c:	44 10 17 70 	movi $r1,#0x1770
    1c80:	fe 0c       	mul33 $r0,$r1
    1c82:	5c f0 00 97 	slti $r15,$r0,#0x97
    1c86:	e9 03       	bnezs8 1c8c <DelayMs+0x42>
    1c88:	50 00 7f 6a 	addi $r0,$r0,#-150
    1c8c:	4e 02 00 06 	beqz $r0,1c98 <DelayMs+0x4e>
    1c90:	50 00 7f ff 	addi $r0,$r0,#-1
    1c94:	4e 06 ff fe 	bgtz $r0,1c90 <DelayMs+0x46>
    1c98:	3a 6f 98 84 	lmw.bim $r6,[$sp],$r6,#0x2    ! {$r6, $lp}
    1c9c:	dd 9e       	ret5 $lp
    1c9e:	92 00       	nop16

Disassembly of section .driver.isr:

00001ca0 <Timer3Interrupt>:
    1ca0:	3a 6f 98 bc 	smw.adm $r6,[$sp],$r6,#0x2    ! {$r6, $lp}
    1ca4:	ef f8       	addi10.sp #-8
    1ca6:	84 02       	movi55 $r0,#0x2
    1ca8:	84 27       	movi55 $r1,#0x7
    1caa:	49 00 13 01 	jal 42ac <Timer_InterruptFlagGet>
    1cae:	80 c0       	mov55 $r6,$r0
    1cb0:	96 16       	bmski33 $r0,#0x2
    1cb2:	c0 0b       	beqz38 $r0,1cc8 <Timer3Interrupt+0x28>
    1cb4:	84 02       	movi55 $r0,#0x2
    1cb6:	84 20       	movi55 $r1,#0x0
    1cb8:	84 40       	movi55 $r2,#0x0
    1cba:	49 00 15 1f 	jal 46f8 <PWC_IOCTRL>
    1cbe:	b6 1f       	swi450 $r0,[$sp]
    1cc0:	44 00 64 50 	movi $r0,#0x6450
    1cc4:	49 00 1b 3c 	jal 533c <printf>
    1cc8:	97 8e       	bmski33 $r6,#0x1
    1cca:	c6 09       	beqz38 $r6,1cdc <Timer3Interrupt+0x3c>
    1ccc:	84 02       	movi55 $r0,#0x2
    1cce:	84 22       	movi55 $r1,#0x2
    1cd0:	49 00 13 2a 	jal 4324 <Timer_InterruptFlagClear>
    1cd4:	44 00 64 64 	movi $r0,#0x6464
    1cd8:	49 00 1b 37 	jal 5346 <puts>
    1cdc:	ec 08       	addi10.sp #0x8
    1cde:	3a 6f 98 84 	lmw.bim $r6,[$sp],$r6,#0x2    ! {$r6, $lp}
    1ce2:	dd 9e       	ret5 $lp

00001ce4 <DMA0_Interrupt>:
    1ce4:	3a 6f 98 bc 	smw.adm $r6,[$sp],$r6,#0x2    ! {$r6, $lp}
    1ce8:	46 04 00 0d 	sethi $r0,#0x4000d
    1cec:	b4 00       	lwi450 $r0,[$r0]
    1cee:	42 00 48 0b 	btst $r0,$r0,#0x12
    1cf2:	c0 0a       	beqz38 $r0,1d06 <DMA0_Interrupt+0x22>
    1cf4:	46 04 00 0d 	sethi $r0,#0x4000d
    1cf8:	a0 07       	lwi333 $r0,[$r0+#0x1c]
    1cfa:	96 04       	xlsb33 $r0,$r0
    1cfc:	c0 05       	beqz38 $r0,1d06 <DMA0_Interrupt+0x22>
    1cfe:	3c 0c 00 05 	lwi.gp $r0,[+#0x14]
    1d02:	c0 02       	beqz38 $r0,1d06 <DMA0_Interrupt+0x22>
    1d04:	dd 20       	jral5 $r0
    1d06:	46 04 00 0d 	sethi $r0,#0x4000d
    1d0a:	b4 00       	lwi450 $r0,[$r0]
    1d0c:	42 00 4c 0b 	btst $r0,$r0,#0x13
    1d10:	c0 17       	beqz38 $r0,1d3e <DMA0_Interrupt+0x5a>
    1d12:	46 04 00 0d 	sethi $r0,#0x4000d
    1d16:	a0 07       	lwi333 $r0,[$r0+#0x1c]
    1d18:	42 00 04 0b 	btst $r0,$r0,#0x1
    1d1c:	c0 11       	beqz38 $r0,1d3e <DMA0_Interrupt+0x5a>
    1d1e:	3c 0d ff fd 	lwi.gp $r0,[+#-12]
    1d22:	c0 0e       	beqz38 $r0,1d3e <DMA0_Interrupt+0x5a>
    1d24:	46 64 00 0d 	sethi $r6,#0x4000d
    1d28:	b4 06       	lwi450 $r0,[$r6]
    1d2a:	42 00 4c 09 	bclr $r0,$r0,#0x13
    1d2e:	b6 06       	swi450 $r0,[$r6]
    1d30:	3c 0d ff fd 	lwi.gp $r0,[+#-12]
    1d34:	dd 20       	jral5 $r0
    1d36:	b4 06       	lwi450 $r0,[$r6]
    1d38:	42 00 4c 08 	bset $r0,$r0,#0x13
    1d3c:	b6 06       	swi450 $r0,[$r6]
    1d3e:	46 04 00 0d 	sethi $r0,#0x4000d
    1d42:	b4 00       	lwi450 $r0,[$r0]
    1d44:	42 00 50 0b 	btst $r0,$r0,#0x14
    1d48:	c0 0b       	beqz38 $r0,1d5e <DMA0_Interrupt+0x7a>
    1d4a:	46 04 00 0d 	sethi $r0,#0x4000d
    1d4e:	a0 07       	lwi333 $r0,[$r0+#0x1c]
    1d50:	42 00 08 0b 	btst $r0,$r0,#0x2
    1d54:	c0 05       	beqz38 $r0,1d5e <DMA0_Interrupt+0x7a>
    1d56:	3c 0d ff f5 	lwi.gp $r0,[+#-44]
    1d5a:	c0 02       	beqz38 $r0,1d5e <DMA0_Interrupt+0x7a>
    1d5c:	dd 20       	jral5 $r0
    1d5e:	3a 6f 98 84 	lmw.bim $r6,[$sp],$r6,#0x2    ! {$r6, $lp}
    1d62:	dd 9e       	ret5 $lp

00001d64 <DMA1_Interrupt>:
    1d64:	3a 6f 98 bc 	smw.adm $r6,[$sp],$r6,#0x2    ! {$r6, $lp}
    1d68:	46 04 00 0d 	sethi $r0,#0x4000d
    1d6c:	04 00 00 08 	lwi $r0,[$r0+#0x20]
    1d70:	42 00 48 0b 	btst $r0,$r0,#0x12
    1d74:	c0 0c       	beqz38 $r0,1d8c <DMA1_Interrupt+0x28>
    1d76:	46 04 00 0d 	sethi $r0,#0x4000d
    1d7a:	50 00 00 20 	addi $r0,$r0,#0x20
    1d7e:	a0 07       	lwi333 $r0,[$r0+#0x1c]
    1d80:	96 04       	xlsb33 $r0,$r0
    1d82:	c0 05       	beqz38 $r0,1d8c <DMA1_Interrupt+0x28>
    1d84:	3c 0c 00 06 	lwi.gp $r0,[+#0x18]
    1d88:	c0 02       	beqz38 $r0,1d8c <DMA1_Interrupt+0x28>
    1d8a:	dd 20       	jral5 $r0
    1d8c:	46 04 00 0d 	sethi $r0,#0x4000d
    1d90:	04 00 00 08 	lwi $r0,[$r0+#0x20]
    1d94:	42 00 4c 0b 	btst $r0,$r0,#0x13
    1d98:	c0 1d       	beqz38 $r0,1dd2 <DMA1_Interrupt+0x6e>
    1d9a:	46 04 00 0d 	sethi $r0,#0x4000d
    1d9e:	50 00 00 20 	addi $r0,$r0,#0x20
    1da2:	a0 07       	lwi333 $r0,[$r0+#0x1c]
    1da4:	42 00 04 0b 	btst $r0,$r0,#0x1
    1da8:	c0 15       	beqz38 $r0,1dd2 <DMA1_Interrupt+0x6e>
    1daa:	3c 0d ff fe 	lwi.gp $r0,[+#-8]
    1dae:	c0 12       	beqz38 $r0,1dd2 <DMA1_Interrupt+0x6e>
    1db0:	46 64 00 0d 	sethi $r6,#0x4000d
    1db4:	04 03 00 08 	lwi $r0,[$r6+#0x20]
    1db8:	42 00 4c 09 	bclr $r0,$r0,#0x13
    1dbc:	14 03 00 08 	swi $r0,[$r6+#0x20]
    1dc0:	3c 0d ff fe 	lwi.gp $r0,[+#-8]
    1dc4:	dd 20       	jral5 $r0
    1dc6:	04 03 00 08 	lwi $r0,[$r6+#0x20]
    1dca:	42 00 4c 08 	bset $r0,$r0,#0x13
    1dce:	14 03 00 08 	swi $r0,[$r6+#0x20]
    1dd2:	46 04 00 0d 	sethi $r0,#0x4000d
    1dd6:	04 00 00 08 	lwi $r0,[$r0+#0x20]
    1dda:	42 00 50 0b 	btst $r0,$r0,#0x14
    1dde:	c0 0d       	beqz38 $r0,1df8 <DMA1_Interrupt+0x94>
    1de0:	46 04 00 0d 	sethi $r0,#0x4000d
    1de4:	50 00 00 20 	addi $r0,$r0,#0x20
    1de8:	a0 07       	lwi333 $r0,[$r0+#0x1c]
    1dea:	42 00 08 0b 	btst $r0,$r0,#0x2
    1dee:	c0 05       	beqz38 $r0,1df8 <DMA1_Interrupt+0x94>
    1df0:	3c 0d ff f6 	lwi.gp $r0,[+#-40]
    1df4:	c0 02       	beqz38 $r0,1df8 <DMA1_Interrupt+0x94>
    1df6:	dd 20       	jral5 $r0
    1df8:	3a 6f 98 84 	lmw.bim $r6,[$sp],$r6,#0x2    ! {$r6, $lp}
    1dfc:	dd 9e       	ret5 $lp

00001dfe <DMA2_Interrupt>:
    1dfe:	3a 6f 98 bc 	smw.adm $r6,[$sp],$r6,#0x2    ! {$r6, $lp}
    1e02:	46 04 00 0d 	sethi $r0,#0x4000d
    1e06:	04 00 00 10 	lwi $r0,[$r0+#0x40]
    1e0a:	42 00 48 0b 	btst $r0,$r0,#0x12
    1e0e:	c0 0c       	beqz38 $r0,1e26 <DMA2_Interrupt+0x28>
    1e10:	46 04 00 0d 	sethi $r0,#0x4000d
    1e14:	50 00 00 40 	addi $r0,$r0,#0x40
    1e18:	a0 07       	lwi333 $r0,[$r0+#0x1c]
    1e1a:	96 04       	xlsb33 $r0,$r0
    1e1c:	c0 05       	beqz38 $r0,1e26 <DMA2_Interrupt+0x28>
    1e1e:	3c 0c 00 07 	lwi.gp $r0,[+#0x1c]
    1e22:	c0 02       	beqz38 $r0,1e26 <DMA2_Interrupt+0x28>
    1e24:	dd 20       	jral5 $r0
    1e26:	46 04 00 0d 	sethi $r0,#0x4000d
    1e2a:	04 00 00 10 	lwi $r0,[$r0+#0x40]
    1e2e:	42 00 4c 0b 	btst $r0,$r0,#0x13
    1e32:	c0 1d       	beqz38 $r0,1e6c <DMA2_Interrupt+0x6e>
    1e34:	46 04 00 0d 	sethi $r0,#0x4000d
    1e38:	50 00 00 40 	addi $r0,$r0,#0x40
    1e3c:	a0 07       	lwi333 $r0,[$r0+#0x1c]
    1e3e:	42 00 04 0b 	btst $r0,$r0,#0x1
    1e42:	c0 15       	beqz38 $r0,1e6c <DMA2_Interrupt+0x6e>
    1e44:	3c 0d ff ff 	lwi.gp $r0,[+#-4]
    1e48:	c0 12       	beqz38 $r0,1e6c <DMA2_Interrupt+0x6e>
    1e4a:	46 64 00 0d 	sethi $r6,#0x4000d
    1e4e:	04 03 00 10 	lwi $r0,[$r6+#0x40]
    1e52:	42 00 4c 09 	bclr $r0,$r0,#0x13
    1e56:	14 03 00 10 	swi $r0,[$r6+#0x40]
    1e5a:	3c 0d ff ff 	lwi.gp $r0,[+#-4]
    1e5e:	dd 20       	jral5 $r0
    1e60:	04 03 00 10 	lwi $r0,[$r6+#0x40]
    1e64:	42 00 4c 08 	bset $r0,$r0,#0x13
    1e68:	14 03 00 10 	swi $r0,[$r6+#0x40]
    1e6c:	46 04 00 0d 	sethi $r0,#0x4000d
    1e70:	04 00 00 10 	lwi $r0,[$r0+#0x40]
    1e74:	42 00 50 0b 	btst $r0,$r0,#0x14
    1e78:	c0 0d       	beqz38 $r0,1e92 <DMA2_Interrupt+0x94>
    1e7a:	46 04 00 0d 	sethi $r0,#0x4000d
    1e7e:	50 00 00 40 	addi $r0,$r0,#0x40
    1e82:	a0 07       	lwi333 $r0,[$r0+#0x1c]
    1e84:	42 00 08 0b 	btst $r0,$r0,#0x2
    1e88:	c0 05       	beqz38 $r0,1e92 <DMA2_Interrupt+0x94>
    1e8a:	3c 0d ff f7 	lwi.gp $r0,[+#-36]
    1e8e:	c0 02       	beqz38 $r0,1e92 <DMA2_Interrupt+0x94>
    1e90:	dd 20       	jral5 $r0
    1e92:	3a 6f 98 84 	lmw.bim $r6,[$sp],$r6,#0x2    ! {$r6, $lp}
    1e96:	dd 9e       	ret5 $lp

00001e98 <DMA3_Interrupt>:
    1e98:	3a 6f 98 bc 	smw.adm $r6,[$sp],$r6,#0x2    ! {$r6, $lp}
    1e9c:	46 04 00 0d 	sethi $r0,#0x4000d
    1ea0:	04 00 00 18 	lwi $r0,[$r0+#0x60]
    1ea4:	42 00 48 0b 	btst $r0,$r0,#0x12
    1ea8:	c0 0c       	beqz38 $r0,1ec0 <DMA3_Interrupt+0x28>
    1eaa:	46 04 00 0d 	sethi $r0,#0x4000d
    1eae:	50 00 00 60 	addi $r0,$r0,#0x60
    1eb2:	a0 07       	lwi333 $r0,[$r0+#0x1c]
    1eb4:	96 04       	xlsb33 $r0,$r0
    1eb6:	c0 05       	beqz38 $r0,1ec0 <DMA3_Interrupt+0x28>
    1eb8:	3c 0c 00 08 	lwi.gp $r0,[+#0x20]
    1ebc:	c0 02       	beqz38 $r0,1ec0 <DMA3_Interrupt+0x28>
    1ebe:	dd 20       	jral5 $r0
    1ec0:	46 04 00 0d 	sethi $r0,#0x4000d
    1ec4:	04 00 00 18 	lwi $r0,[$r0+#0x60]
    1ec8:	42 00 4c 0b 	btst $r0,$r0,#0x13
    1ecc:	c0 1d       	beqz38 $r0,1f06 <DMA3_Interrupt+0x6e>
    1ece:	46 04 00 0d 	sethi $r0,#0x4000d
    1ed2:	50 00 00 60 	addi $r0,$r0,#0x60
    1ed6:	a0 07       	lwi333 $r0,[$r0+#0x1c]
    1ed8:	42 00 04 0b 	btst $r0,$r0,#0x1
    1edc:	c0 15       	beqz38 $r0,1f06 <DMA3_Interrupt+0x6e>
    1ede:	3c 0c 00 00 	lwi.gp $r0,[+#0x0]
    1ee2:	c0 12       	beqz38 $r0,1f06 <DMA3_Interrupt+0x6e>
    1ee4:	46 64 00 0d 	sethi $r6,#0x4000d
    1ee8:	04 03 00 18 	lwi $r0,[$r6+#0x60]
    1eec:	42 00 4c 09 	bclr $r0,$r0,#0x13
    1ef0:	14 03 00 18 	swi $r0,[$r6+#0x60]
    1ef4:	3c 0c 00 00 	lwi.gp $r0,[+#0x0]
    1ef8:	dd 20       	jral5 $r0
    1efa:	04 03 00 18 	lwi $r0,[$r6+#0x60]
    1efe:	42 00 4c 08 	bset $r0,$r0,#0x13
    1f02:	14 03 00 18 	swi $r0,[$r6+#0x60]
    1f06:	46 04 00 0d 	sethi $r0,#0x4000d
    1f0a:	04 00 00 18 	lwi $r0,[$r0+#0x60]
    1f0e:	42 00 50 0b 	btst $r0,$r0,#0x14
    1f12:	c0 0d       	beqz38 $r0,1f2c <DMA3_Interrupt+0x94>
    1f14:	46 04 00 0d 	sethi $r0,#0x4000d
    1f18:	50 00 00 60 	addi $r0,$r0,#0x60
    1f1c:	a0 07       	lwi333 $r0,[$r0+#0x1c]
    1f1e:	42 00 08 0b 	btst $r0,$r0,#0x2
    1f22:	c0 05       	beqz38 $r0,1f2c <DMA3_Interrupt+0x94>
    1f24:	3c 0d ff f8 	lwi.gp $r0,[+#-32]
    1f28:	c0 02       	beqz38 $r0,1f2c <DMA3_Interrupt+0x94>
    1f2a:	dd 20       	jral5 $r0
    1f2c:	3a 6f 98 84 	lmw.bim $r6,[$sp],$r6,#0x2    ! {$r6, $lp}
    1f30:	dd 9e       	ret5 $lp

00001f32 <DMA4_Interrupt>:
    1f32:	3a 6f 98 bc 	smw.adm $r6,[$sp],$r6,#0x2    ! {$r6, $lp}
    1f36:	46 04 00 0d 	sethi $r0,#0x4000d
    1f3a:	04 00 00 20 	lwi $r0,[$r0+#0x80]
    1f3e:	42 00 48 0b 	btst $r0,$r0,#0x12
    1f42:	c0 0c       	beqz38 $r0,1f5a <DMA4_Interrupt+0x28>
    1f44:	46 04 00 0d 	sethi $r0,#0x4000d
    1f48:	50 00 00 80 	addi $r0,$r0,#0x80
    1f4c:	a0 07       	lwi333 $r0,[$r0+#0x1c]
    1f4e:	96 04       	xlsb33 $r0,$r0
    1f50:	c0 05       	beqz38 $r0,1f5a <DMA4_Interrupt+0x28>
    1f52:	3c 0c 00 09 	lwi.gp $r0,[+#0x24]
    1f56:	c0 02       	beqz38 $r0,1f5a <DMA4_Interrupt+0x28>
    1f58:	dd 20       	jral5 $r0
    1f5a:	46 04 00 0d 	sethi $r0,#0x4000d
    1f5e:	04 00 00 20 	lwi $r0,[$r0+#0x80]
    1f62:	42 00 4c 0b 	btst $r0,$r0,#0x13
    1f66:	c0 1d       	beqz38 $r0,1fa0 <DMA4_Interrupt+0x6e>
    1f68:	46 04 00 0d 	sethi $r0,#0x4000d
    1f6c:	50 00 00 80 	addi $r0,$r0,#0x80
    1f70:	a0 07       	lwi333 $r0,[$r0+#0x1c]
    1f72:	42 00 04 0b 	btst $r0,$r0,#0x1
    1f76:	c0 15       	beqz38 $r0,1fa0 <DMA4_Interrupt+0x6e>
    1f78:	3c 0c 00 01 	lwi.gp $r0,[+#0x4]
    1f7c:	c0 12       	beqz38 $r0,1fa0 <DMA4_Interrupt+0x6e>
    1f7e:	46 64 00 0d 	sethi $r6,#0x4000d
    1f82:	04 03 00 20 	lwi $r0,[$r6+#0x80]
    1f86:	42 00 4c 09 	bclr $r0,$r0,#0x13
    1f8a:	14 03 00 20 	swi $r0,[$r6+#0x80]
    1f8e:	3c 0c 00 01 	lwi.gp $r0,[+#0x4]
    1f92:	dd 20       	jral5 $r0
    1f94:	04 03 00 20 	lwi $r0,[$r6+#0x80]
    1f98:	42 00 4c 08 	bset $r0,$r0,#0x13
    1f9c:	14 03 00 20 	swi $r0,[$r6+#0x80]
    1fa0:	46 04 00 0d 	sethi $r0,#0x4000d
    1fa4:	04 00 00 20 	lwi $r0,[$r0+#0x80]
    1fa8:	42 00 50 0b 	btst $r0,$r0,#0x14
    1fac:	c0 0d       	beqz38 $r0,1fc6 <DMA4_Interrupt+0x94>
    1fae:	46 04 00 0d 	sethi $r0,#0x4000d
    1fb2:	50 00 00 80 	addi $r0,$r0,#0x80
    1fb6:	a0 07       	lwi333 $r0,[$r0+#0x1c]
    1fb8:	42 00 08 0b 	btst $r0,$r0,#0x2
    1fbc:	c0 05       	beqz38 $r0,1fc6 <DMA4_Interrupt+0x94>
    1fbe:	3c 0d ff f9 	lwi.gp $r0,[+#-28]
    1fc2:	c0 02       	beqz38 $r0,1fc6 <DMA4_Interrupt+0x94>
    1fc4:	dd 20       	jral5 $r0
    1fc6:	3a 6f 98 84 	lmw.bim $r6,[$sp],$r6,#0x2    ! {$r6, $lp}
    1fca:	dd 9e       	ret5 $lp

00001fcc <DMA5_Interrupt>:
    1fcc:	3a 6f 98 bc 	smw.adm $r6,[$sp],$r6,#0x2    ! {$r6, $lp}
    1fd0:	46 04 00 0d 	sethi $r0,#0x4000d
    1fd4:	04 00 00 28 	lwi $r0,[$r0+#0xa0]
    1fd8:	42 00 48 0b 	btst $r0,$r0,#0x12
    1fdc:	c0 0c       	beqz38 $r0,1ff4 <DMA5_Interrupt+0x28>
    1fde:	46 04 00 0d 	sethi $r0,#0x4000d
    1fe2:	50 00 00 a0 	addi $r0,$r0,#0xa0
    1fe6:	a0 07       	lwi333 $r0,[$r0+#0x1c]
    1fe8:	96 04       	xlsb33 $r0,$r0
    1fea:	c0 05       	beqz38 $r0,1ff4 <DMA5_Interrupt+0x28>
    1fec:	3c 0c 00 0a 	lwi.gp $r0,[+#0x28]
    1ff0:	c0 02       	beqz38 $r0,1ff4 <DMA5_Interrupt+0x28>
    1ff2:	dd 20       	jral5 $r0
    1ff4:	46 04 00 0d 	sethi $r0,#0x4000d
    1ff8:	04 00 00 28 	lwi $r0,[$r0+#0xa0]
    1ffc:	42 00 4c 0b 	btst $r0,$r0,#0x13
    2000:	c0 1d       	beqz38 $r0,203a <DMA5_Interrupt+0x6e>
    2002:	46 04 00 0d 	sethi $r0,#0x4000d
    2006:	50 00 00 a0 	addi $r0,$r0,#0xa0
    200a:	a0 07       	lwi333 $r0,[$r0+#0x1c]
    200c:	42 00 04 0b 	btst $r0,$r0,#0x1
    2010:	c0 15       	beqz38 $r0,203a <DMA5_Interrupt+0x6e>
    2012:	3c 0c 00 02 	lwi.gp $r0,[+#0x8]
    2016:	c0 12       	beqz38 $r0,203a <DMA5_Interrupt+0x6e>
    2018:	46 64 00 0d 	sethi $r6,#0x4000d
    201c:	04 03 00 28 	lwi $r0,[$r6+#0xa0]
    2020:	42 00 4c 09 	bclr $r0,$r0,#0x13
    2024:	14 03 00 28 	swi $r0,[$r6+#0xa0]
    2028:	3c 0c 00 02 	lwi.gp $r0,[+#0x8]
    202c:	dd 20       	jral5 $r0
    202e:	04 03 00 28 	lwi $r0,[$r6+#0xa0]
    2032:	42 00 4c 08 	bset $r0,$r0,#0x13
    2036:	14 03 00 28 	swi $r0,[$r6+#0xa0]
    203a:	46 04 00 0d 	sethi $r0,#0x4000d
    203e:	04 00 00 28 	lwi $r0,[$r0+#0xa0]
    2042:	42 00 50 0b 	btst $r0,$r0,#0x14
    2046:	c0 0d       	beqz38 $r0,2060 <DMA5_Interrupt+0x94>
    2048:	46 04 00 0d 	sethi $r0,#0x4000d
    204c:	50 00 00 a0 	addi $r0,$r0,#0xa0
    2050:	a0 07       	lwi333 $r0,[$r0+#0x1c]
    2052:	42 00 08 0b 	btst $r0,$r0,#0x2
    2056:	c0 05       	beqz38 $r0,2060 <DMA5_Interrupt+0x94>
    2058:	3c 0d ff fa 	lwi.gp $r0,[+#-24]
    205c:	c0 02       	beqz38 $r0,2060 <DMA5_Interrupt+0x94>
    205e:	dd 20       	jral5 $r0
    2060:	3a 6f 98 84 	lmw.bim $r6,[$sp],$r6,#0x2    ! {$r6, $lp}
    2064:	dd 9e       	ret5 $lp

00002066 <DMA6_Interrupt>:
    2066:	3a 6f 98 bc 	smw.adm $r6,[$sp],$r6,#0x2    ! {$r6, $lp}
    206a:	46 04 00 0d 	sethi $r0,#0x4000d
    206e:	04 00 00 30 	lwi $r0,[$r0+#0xc0]
    2072:	42 00 48 0b 	btst $r0,$r0,#0x12
    2076:	c0 0c       	beqz38 $r0,208e <DMA6_Interrupt+0x28>
    2078:	46 04 00 0d 	sethi $r0,#0x4000d
    207c:	50 00 00 c0 	addi $r0,$r0,#0xc0
    2080:	a0 07       	lwi333 $r0,[$r0+#0x1c]
    2082:	96 04       	xlsb33 $r0,$r0
    2084:	c0 05       	beqz38 $r0,208e <DMA6_Interrupt+0x28>
    2086:	3c 0c 00 0b 	lwi.gp $r0,[+#0x2c]
    208a:	c0 02       	beqz38 $r0,208e <DMA6_Interrupt+0x28>
    208c:	dd 20       	jral5 $r0
    208e:	46 04 00 0d 	sethi $r0,#0x4000d
    2092:	04 00 00 30 	lwi $r0,[$r0+#0xc0]
    2096:	42 00 4c 0b 	btst $r0,$r0,#0x13
    209a:	c0 1d       	beqz38 $r0,20d4 <DMA6_Interrupt+0x6e>
    209c:	46 04 00 0d 	sethi $r0,#0x4000d
    20a0:	50 00 00 c0 	addi $r0,$r0,#0xc0
    20a4:	a0 07       	lwi333 $r0,[$r0+#0x1c]
    20a6:	42 00 04 0b 	btst $r0,$r0,#0x1
    20aa:	c0 15       	beqz38 $r0,20d4 <DMA6_Interrupt+0x6e>
    20ac:	3c 0c 00 03 	lwi.gp $r0,[+#0xc]
    20b0:	c0 12       	beqz38 $r0,20d4 <DMA6_Interrupt+0x6e>
    20b2:	46 64 00 0d 	sethi $r6,#0x4000d
    20b6:	04 03 00 30 	lwi $r0,[$r6+#0xc0]
    20ba:	42 00 4c 09 	bclr $r0,$r0,#0x13
    20be:	14 03 00 30 	swi $r0,[$r6+#0xc0]
    20c2:	3c 0c 00 03 	lwi.gp $r0,[+#0xc]
    20c6:	dd 20       	jral5 $r0
    20c8:	04 03 00 30 	lwi $r0,[$r6+#0xc0]
    20cc:	42 00 4c 08 	bset $r0,$r0,#0x13
    20d0:	14 03 00 30 	swi $r0,[$r6+#0xc0]
    20d4:	46 04 00 0d 	sethi $r0,#0x4000d
    20d8:	04 00 00 30 	lwi $r0,[$r0+#0xc0]
    20dc:	42 00 50 0b 	btst $r0,$r0,#0x14
    20e0:	c0 0d       	beqz38 $r0,20fa <DMA6_Interrupt+0x94>
    20e2:	46 04 00 0d 	sethi $r0,#0x4000d
    20e6:	50 00 00 c0 	addi $r0,$r0,#0xc0
    20ea:	a0 07       	lwi333 $r0,[$r0+#0x1c]
    20ec:	42 00 08 0b 	btst $r0,$r0,#0x2
    20f0:	c0 05       	beqz38 $r0,20fa <DMA6_Interrupt+0x94>
    20f2:	3c 0d ff fb 	lwi.gp $r0,[+#-20]
    20f6:	c0 02       	beqz38 $r0,20fa <DMA6_Interrupt+0x94>
    20f8:	dd 20       	jral5 $r0
    20fa:	3a 6f 98 84 	lmw.bim $r6,[$sp],$r6,#0x2    ! {$r6, $lp}
    20fe:	dd 9e       	ret5 $lp

00002100 <DMA7_Interrupt>:
    2100:	3a 6f 98 bc 	smw.adm $r6,[$sp],$r6,#0x2    ! {$r6, $lp}
    2104:	46 04 00 0d 	sethi $r0,#0x4000d
    2108:	04 00 00 38 	lwi $r0,[$r0+#0xe0]
    210c:	42 00 48 0b 	btst $r0,$r0,#0x12
    2110:	c0 0c       	beqz38 $r0,2128 <DMA7_Interrupt+0x28>
    2112:	46 04 00 0d 	sethi $r0,#0x4000d
    2116:	50 00 00 e0 	addi $r0,$r0,#0xe0
    211a:	a0 07       	lwi333 $r0,[$r0+#0x1c]
    211c:	96 04       	xlsb33 $r0,$r0
    211e:	c0 05       	beqz38 $r0,2128 <DMA7_Interrupt+0x28>
    2120:	3c 0c 00 0c 	lwi.gp $r0,[+#0x30]
    2124:	c0 02       	beqz38 $r0,2128 <DMA7_Interrupt+0x28>
    2126:	dd 20       	jral5 $r0
    2128:	46 04 00 0d 	sethi $r0,#0x4000d
    212c:	04 00 00 38 	lwi $r0,[$r0+#0xe0]
    2130:	42 00 4c 0b 	btst $r0,$r0,#0x13
    2134:	c0 1d       	beqz38 $r0,216e <DMA7_Interrupt+0x6e>
    2136:	46 04 00 0d 	sethi $r0,#0x4000d
    213a:	50 00 00 e0 	addi $r0,$r0,#0xe0
    213e:	a0 07       	lwi333 $r0,[$r0+#0x1c]
    2140:	42 00 04 0b 	btst $r0,$r0,#0x1
    2144:	c0 15       	beqz38 $r0,216e <DMA7_Interrupt+0x6e>
    2146:	3c 0c 00 04 	lwi.gp $r0,[+#0x10]
    214a:	c0 12       	beqz38 $r0,216e <DMA7_Interrupt+0x6e>
    214c:	46 64 00 0d 	sethi $r6,#0x4000d
    2150:	04 03 00 38 	lwi $r0,[$r6+#0xe0]
    2154:	42 00 4c 09 	bclr $r0,$r0,#0x13
    2158:	14 03 00 38 	swi $r0,[$r6+#0xe0]
    215c:	3c 0c 00 04 	lwi.gp $r0,[+#0x10]
    2160:	dd 20       	jral5 $r0
    2162:	04 03 00 38 	lwi $r0,[$r6+#0xe0]
    2166:	42 00 4c 08 	bset $r0,$r0,#0x13
    216a:	14 03 00 38 	swi $r0,[$r6+#0xe0]
    216e:	46 04 00 0d 	sethi $r0,#0x4000d
    2172:	04 00 00 38 	lwi $r0,[$r0+#0xe0]
    2176:	42 00 50 0b 	btst $r0,$r0,#0x14
    217a:	c0 0d       	beqz38 $r0,2194 <DMA7_Interrupt+0x94>
    217c:	46 04 00 0d 	sethi $r0,#0x4000d
    2180:	50 00 00 e0 	addi $r0,$r0,#0xe0
    2184:	a0 07       	lwi333 $r0,[$r0+#0x1c]
    2186:	42 00 08 0b 	btst $r0,$r0,#0x2
    218a:	c0 05       	beqz38 $r0,2194 <DMA7_Interrupt+0x94>
    218c:	3c 0d ff fc 	lwi.gp $r0,[+#-16]
    2190:	c0 02       	beqz38 $r0,2194 <DMA7_Interrupt+0x94>
    2192:	dd 20       	jral5 $r0
    2194:	3a 6f 98 84 	lmw.bim $r6,[$sp],$r6,#0x2    ! {$r6, $lp}
    2198:	dd 9e       	ret5 $lp

0000219a <GetSysTick1MsCnt>:
    219a:	3c 0c 00 14 	lwi.gp $r0,[+#0x50]
    219e:	dd 9e       	ret5 $lp

000021a0 <PastTimeGet>:
    21a0:	3a 6f 98 bc 	smw.adm $r6,[$sp],$r6,#0x2    ! {$r6, $lp}
    21a4:	80 c0       	mov55 $r6,$r0
    21a6:	49 ff ff fa 	jal 219a <GetSysTick1MsCnt>
    21aa:	a0 71       	lwi333 $r1,[$r6+#0x4]
    21ac:	8a 01       	sub45 $r0,$r1
    21ae:	3a 6f 98 84 	lmw.bim $r6,[$sp],$r6,#0x2    ! {$r6, $lp}
    21b2:	dd 9e       	ret5 $lp

000021b4 <TimeOutSet>:
    21b4:	3a 6f a0 bc 	smw.adm $r6,[$sp],$r8,#0x2    ! {$r6~$r8, $lp}
    21b8:	fd 30       	movd44 $r6,$r0
    21ba:	49 ff ff f0 	jal 219a <GetSysTick1MsCnt>
    21be:	a8 31       	swi333 $r0,[$r6+#0x4]
    21c0:	49 ff ff ed 	jal 219a <GetSysTick1MsCnt>
    21c4:	88 07       	add45 $r0,$r7
    21c6:	b6 06       	swi450 $r0,[$r6]
    21c8:	84 00       	movi55 $r0,#0x0
    21ca:	10 03 00 08 	sbi $r0,[$r6+#0x8]
    21ce:	3a 6f a0 84 	lmw.bim $r6,[$sp],$r8,#0x2    ! {$r6~$r8, $lp}
    21d2:	dd 9e       	ret5 $lp

000021d4 <IsTimeOut>:
    21d4:	3a 6f a0 bc 	smw.adm $r6,[$sp],$r8,#0x2    ! {$r6~$r8, $lp}
    21d8:	00 60 00 08 	lbi $r6,[$r0+#0x8]
    21dc:	ce 0f       	bnez38 $r6,21fa <IsTimeOut+0x26>
    21de:	80 e0       	mov55 $r7,$r0
    21e0:	49 ff ff dd 	jal 219a <GetSysTick1MsCnt>
    21e4:	b4 27       	lwi450 $r1,[$r7]
    21e6:	40 00 80 06 	slt $r0,$r1,$r0
    21ea:	c0 05       	beqz38 $r0,21f4 <IsTimeOut+0x20>
    21ec:	84 01       	movi55 $r0,#0x1
    21ee:	10 03 80 08 	sbi $r0,[$r7+#0x8]
    21f2:	d5 05       	j8 21fc <IsTimeOut+0x28>
    21f4:	00 63 80 08 	lbi $r6,[$r7+#0x8]
    21f8:	d5 02       	j8 21fc <IsTimeOut+0x28>
    21fa:	84 c1       	movi55 $r6,#0x1
    21fc:	80 06       	mov55 $r0,$r6
    21fe:	3a 6f a0 84 	lmw.bim $r6,[$sp],$r8,#0x2    ! {$r6~$r8, $lp}
    2202:	dd 9e       	ret5 $lp
    2204:	46 04 00 05 	sethi $r0,#0x40005
    2208:	a0 03       	lwi333 $r0,[$r0+#0xc]
    220a:	42 00 04 0b 	btst $r0,$r0,#0x1
    220e:	c0 0e       	beqz38 $r0,222a <IsTimeOut+0x56>
    2210:	46 04 00 05 	sethi $r0,#0x40005
    2214:	a0 05       	lwi333 $r0,[$r0+#0x14]
    2216:	96 04       	xlsb33 $r0,$r0
    2218:	c0 09       	beqz38 $r0,222a <IsTimeOut+0x56>
    221a:	46 14 00 05 	sethi $r1,#0x40005
    221e:	00 00 80 0c 	lbi $r0,[$r1+#0xc]
    2222:	58 00 00 04 	ori $r0,$r0,#0x4
    2226:	10 00 80 0c 	sbi $r0,[$r1+#0xc]
    222a:	46 04 00 05 	sethi $r0,#0x40005
    222e:	a0 03       	lwi333 $r0,[$r0+#0xc]
    2230:	42 00 0c 0b 	btst $r0,$r0,#0x3
    2234:	c0 0f       	beqz38 $r0,2252 <IsTimeOut+0x7e>
    2236:	46 04 00 05 	sethi $r0,#0x40005
    223a:	a0 05       	lwi333 $r0,[$r0+#0x14]
    223c:	54 00 00 3c 	andi $r0,$r0,#0x3c
    2240:	c0 09       	beqz38 $r0,2252 <IsTimeOut+0x7e>
    2242:	46 14 00 05 	sethi $r1,#0x40005
    2246:	00 00 80 0c 	lbi $r0,[$r1+#0xc]
    224a:	58 00 00 10 	ori $r0,$r0,#0x10
    224e:	10 00 80 0c 	sbi $r0,[$r1+#0xc]
    2252:	46 04 00 05 	sethi $r0,#0x40005
    2256:	a0 05       	lwi333 $r0,[$r0+#0x14]
    2258:	42 00 20 0b 	btst $r0,$r0,#0x8
    225c:	c0 09       	beqz38 $r0,226e <IsTimeOut+0x9a>
    225e:	46 14 00 05 	sethi $r1,#0x40005
    2262:	00 00 80 1c 	lbi $r0,[$r1+#0x1c]
    2266:	58 00 00 04 	ori $r0,$r0,#0x4
    226a:	10 00 80 1c 	sbi $r0,[$r1+#0x1c]
    226e:	46 04 00 05 	sethi $r0,#0x40005
    2272:	a0 05       	lwi333 $r0,[$r0+#0x14]
    2274:	96 0e       	bmski33 $r0,#0x1
    2276:	c0 09       	beqz38 $r0,2288 <IsTimeOut+0xb4>
    2278:	46 14 00 05 	sethi $r1,#0x40005
    227c:	00 00 80 0c 	lbi $r0,[$r1+#0xc]
    2280:	58 00 00 40 	ori $r0,$r0,#0x40
    2284:	10 00 80 0c 	sbi $r0,[$r1+#0xc]
    2288:	dd 9e       	ret5 $lp

0000228a <UART1_Interrupt>:
    228a:	46 04 00 06 	sethi $r0,#0x40006
    228e:	a0 03       	lwi333 $r0,[$r0+#0xc]
    2290:	42 00 04 0b 	btst $r0,$r0,#0x1
    2294:	c0 0e       	beqz38 $r0,22b0 <UART1_Interrupt+0x26>
    2296:	46 04 00 06 	sethi $r0,#0x40006
    229a:	a0 05       	lwi333 $r0,[$r0+#0x14]
    229c:	96 04       	xlsb33 $r0,$r0
    229e:	c0 09       	beqz38 $r0,22b0 <UART1_Interrupt+0x26>
    22a0:	46 14 00 06 	sethi $r1,#0x40006
    22a4:	00 00 80 0c 	lbi $r0,[$r1+#0xc]
    22a8:	58 00 00 04 	ori $r0,$r0,#0x4
    22ac:	10 00 80 0c 	sbi $r0,[$r1+#0xc]
    22b0:	46 04 00 06 	sethi $r0,#0x40006
    22b4:	a0 03       	lwi333 $r0,[$r0+#0xc]
    22b6:	42 00 0c 0b 	btst $r0,$r0,#0x3
    22ba:	c0 0f       	beqz38 $r0,22d8 <UART1_Interrupt+0x4e>
    22bc:	46 04 00 06 	sethi $r0,#0x40006
    22c0:	a0 05       	lwi333 $r0,[$r0+#0x14]
    22c2:	54 00 00 3c 	andi $r0,$r0,#0x3c
    22c6:	c0 09       	beqz38 $r0,22d8 <UART1_Interrupt+0x4e>
    22c8:	46 14 00 06 	sethi $r1,#0x40006
    22cc:	00 00 80 0c 	lbi $r0,[$r1+#0xc]
    22d0:	58 00 00 10 	ori $r0,$r0,#0x10
    22d4:	10 00 80 0c 	sbi $r0,[$r1+#0xc]
    22d8:	46 04 00 06 	sethi $r0,#0x40006
    22dc:	a0 05       	lwi333 $r0,[$r0+#0x14]
    22de:	42 00 20 0b 	btst $r0,$r0,#0x8
    22e2:	c0 09       	beqz38 $r0,22f4 <UART1_Interrupt+0x6a>
    22e4:	46 14 00 06 	sethi $r1,#0x40006
    22e8:	00 00 80 1c 	lbi $r0,[$r1+#0x1c]
    22ec:	58 00 00 04 	ori $r0,$r0,#0x4
    22f0:	10 00 80 1c 	sbi $r0,[$r1+#0x1c]
    22f4:	46 04 00 06 	sethi $r0,#0x40006
    22f8:	a0 05       	lwi333 $r0,[$r0+#0x14]
    22fa:	96 0e       	bmski33 $r0,#0x1
    22fc:	c0 09       	beqz38 $r0,230e <UART1_Interrupt+0x84>
    22fe:	46 14 00 06 	sethi $r1,#0x40006
    2302:	00 00 80 0c 	lbi $r0,[$r1+#0xc]
    2306:	58 00 00 40 	ori $r0,$r0,#0x40
    230a:	10 00 80 0c 	sbi $r0,[$r1+#0xc]
    230e:	dd 9e       	ret5 $lp

Disassembly of section .text:

00002310 <UART0_InitWpr>:
    2310:	3b ff fc bc 	smw.adm $sp,[$sp],$sp,#0x2    ! {$lp}
    2314:	ef fc       	addi10.sp #-4
    2316:	49 00 14 80 	jal 4c16 <UART0_Init>
    231a:	ec 04       	addi10.sp #0x4
    231c:	3b ff fc 84 	lmw.bim $sp,[$sp],$sp,#0x2    ! {$lp}
    2320:	dd 9e       	ret5 $lp

00002322 <UART1_InitWpr>:
    2322:	3b ff fc bc 	smw.adm $sp,[$sp],$sp,#0x2    ! {$lp}
    2326:	ef fc       	addi10.sp #-4
    2328:	49 00 15 57 	jal 4dd6 <UART1_Init>
    232c:	ec 04       	addi10.sp #0x4
    232e:	3b ff fc 84 	lmw.bim $sp,[$sp],$sp,#0x2    ! {$lp}
    2332:	dd 9e       	ret5 $lp

00002334 <UART0_RecvWpr>:
    2334:	3b ff fc bc 	smw.adm $sp,[$sp],$sp,#0x2    ! {$lp}
    2338:	ef fc       	addi10.sp #-4
    233a:	49 00 16 2e 	jal 4f96 <UART0_Recv>
    233e:	ec 04       	addi10.sp #0x4
    2340:	3b ff fc 84 	lmw.bim $sp,[$sp],$sp,#0x2    ! {$lp}
    2344:	dd 9e       	ret5 $lp

00002346 <UART1_RecvWpr>:
    2346:	3b ff fc bc 	smw.adm $sp,[$sp],$sp,#0x2    ! {$lp}
    234a:	ef fc       	addi10.sp #-4
    234c:	49 00 16 52 	jal 4ff0 <UART1_Recv>
    2350:	ec 04       	addi10.sp #0x4
    2352:	3b ff fc 84 	lmw.bim $sp,[$sp],$sp,#0x2    ! {$lp}
    2356:	dd 9e       	ret5 $lp

00002358 <UART0_SendByteWpr>:
    2358:	3b ff fc bc 	smw.adm $sp,[$sp],$sp,#0x2    ! {$lp}
    235c:	ef fc       	addi10.sp #-4
    235e:	49 00 16 76 	jal 504a <UART0_SendByte>
    2362:	ec 04       	addi10.sp #0x4
    2364:	3b ff fc 84 	lmw.bim $sp,[$sp],$sp,#0x2    ! {$lp}
    2368:	dd 9e       	ret5 $lp

0000236a <UART1_SendByteWpr>:
    236a:	3b ff fc bc 	smw.adm $sp,[$sp],$sp,#0x2    ! {$lp}
    236e:	ef fc       	addi10.sp #-4
    2370:	49 00 16 8d 	jal 508a <UART1_SendByte>
    2374:	ec 04       	addi10.sp #0x4
    2376:	3b ff fc 84 	lmw.bim $sp,[$sp],$sp,#0x2    ! {$lp}
    237a:	dd 9e       	ret5 $lp

0000237c <PWC_GpioConfigInit>:
    237c:	3a 6f 98 bc 	smw.adm $r6,[$sp],$r6,#0x2    ! {$r6, $lp}
    2380:	80 c0       	mov55 $r6,$r0
    2382:	5a 08 02 14 	bnec $r0,#0x2,23aa <PWC_GpioConfigInit+0x2e>
    2386:	44 00 20 00 	movi $r0,#0x2000
    238a:	84 20       	movi55 $r1,#0x0
    238c:	49 00 07 24 	jal 31d4 <GPIO_PortAModeSet>
    2390:	84 05       	movi55 $r0,#0x5
    2392:	44 10 20 00 	movi $r1,#0x2000
    2396:	49 ff fc 1f 	jal 1bd4 <GPIO_RegOneBitSet>
    239a:	84 02       	movi55 $r0,#0x2
    239c:	84 2d       	movi55 $r1,#0xd
    239e:	49 00 10 1d 	jal 43d8 <PWC_GpioConfig>
    23a2:	44 00 63 e8 	movi $r0,#0x63e8
    23a6:	49 00 17 d0 	jal 5346 <puts>
    23aa:	5a 68 03 0f 	bnec $r6,#0x3,23c8 <PWC_GpioConfigInit+0x4c>
    23ae:	84 05       	movi55 $r0,#0x5
    23b0:	44 10 20 00 	movi $r1,#0x2000
    23b4:	49 ff fc 10 	jal 1bd4 <GPIO_RegOneBitSet>
    23b8:	84 03       	movi55 $r0,#0x3
    23ba:	84 2d       	movi55 $r1,#0xd
    23bc:	49 00 10 0e 	jal 43d8 <PWC_GpioConfig>
    23c0:	44 00 63 e8 	movi $r0,#0x63e8
    23c4:	49 00 17 c1 	jal 5346 <puts>
    23c8:	5a 68 04 0f 	bnec $r6,#0x4,23e6 <PWC_GpioConfigInit+0x6a>
    23cc:	84 05       	movi55 $r0,#0x5
    23ce:	44 10 20 00 	movi $r1,#0x2000
    23d2:	49 ff fc 01 	jal 1bd4 <GPIO_RegOneBitSet>
    23d6:	84 04       	movi55 $r0,#0x4
    23d8:	84 2d       	movi55 $r1,#0xd
    23da:	49 00 0f ff 	jal 43d8 <PWC_GpioConfig>
    23de:	44 00 63 e8 	movi $r0,#0x63e8
    23e2:	49 00 17 b2 	jal 5346 <puts>
    23e6:	5a 68 05 0f 	bnec $r6,#0x5,2404 <PWC_GpioConfigInit+0x88>
    23ea:	84 05       	movi55 $r0,#0x5
    23ec:	44 10 20 00 	movi $r1,#0x2000
    23f0:	49 ff fb f2 	jal 1bd4 <GPIO_RegOneBitSet>
    23f4:	84 05       	movi55 $r0,#0x5
    23f6:	84 2d       	movi55 $r1,#0xd
    23f8:	49 00 0f f0 	jal 43d8 <PWC_GpioConfig>
    23fc:	44 00 63 e8 	movi $r0,#0x63e8
    2400:	49 00 17 a3 	jal 5346 <puts>
    2404:	3a 6f 98 84 	lmw.bim $r6,[$sp],$r6,#0x2    ! {$r6, $lp}
    2408:	dd 9e       	ret5 $lp

0000240a <PWM_GpioConfigInit>:
    240a:	3a 6f 98 bc 	smw.adm $r6,[$sp],$r6,#0x2    ! {$r6, $lp}
    240e:	80 c0       	mov55 $r6,$r0
    2410:	5a 08 02 0b 	bnec $r0,#0x2,2426 <PWM_GpioConfigInit+0x1c>
    2414:	84 00       	movi55 $r0,#0x0
    2416:	84 21       	movi55 $r1,#0x1
    2418:	84 41       	movi55 $r2,#0x1
    241a:	49 00 11 d1 	jal 47bc <PWM_GpioConfig>
    241e:	44 00 63 f8 	movi $r0,#0x63f8
    2422:	49 00 17 92 	jal 5346 <puts>
    2426:	5a 68 03 0b 	bnec $r6,#0x3,243c <PWM_GpioConfigInit+0x32>
    242a:	84 01       	movi55 $r0,#0x1
    242c:	84 20       	movi55 $r1,#0x0
    242e:	84 41       	movi55 $r2,#0x1
    2430:	49 00 11 c6 	jal 47bc <PWM_GpioConfig>
    2434:	44 00 64 0c 	movi $r0,#0x640c
    2438:	49 00 17 87 	jal 5346 <puts>
    243c:	5a 68 04 0b 	bnec $r6,#0x4,2452 <PWM_GpioConfigInit+0x48>
    2440:	84 02       	movi55 $r0,#0x2
    2442:	84 20       	movi55 $r1,#0x0
    2444:	84 41       	movi55 $r2,#0x1
    2446:	49 00 11 bb 	jal 47bc <PWM_GpioConfig>
    244a:	44 00 64 20 	movi $r0,#0x6420
    244e:	49 00 17 7c 	jal 5346 <puts>
    2452:	5a 68 05 0b 	bnec $r6,#0x5,2468 <PWM_GpioConfigInit+0x5e>
    2456:	84 03       	movi55 $r0,#0x3
    2458:	84 20       	movi55 $r1,#0x0
    245a:	84 41       	movi55 $r2,#0x1
    245c:	49 00 11 b0 	jal 47bc <PWM_GpioConfig>
    2460:	44 00 64 38 	movi $r0,#0x6438
    2464:	49 00 17 71 	jal 5346 <puts>
    2468:	3a 6f 98 84 	lmw.bim $r6,[$sp],$r6,#0x2    ! {$r6, $lp}
    246c:	dd 9e       	ret5 $lp

0000246e <GetChar>:
    246e:	3b ff fc bc 	smw.adm $sp,[$sp],$sp,#0x2    ! {$lp}
    2472:	ef f4       	addi10.sp #-12
    2474:	84 00       	movi55 $r0,#0x0
    2476:	10 0f 80 07 	sbi $r0,[$sp+#0x7]
    247a:	d5 08       	j8 248a <GetChar+0x1c>
    247c:	50 0f 80 07 	addi $r0,$sp,#0x7
    2480:	84 21       	movi55 $r1,#0x1
    2482:	84 4a       	movi55 $r2,#0xa
    2484:	3c 3d ff ed 	lwi.gp $r3,[+#-76]
    2488:	dd 23       	jral5 $r3
    248a:	00 0f 80 07 	lbi $r0,[$sp+#0x7]
    248e:	c0 f7       	beqz38 $r0,247c <GetChar+0xe>
    2490:	96 02       	seb33 $r0,$r0
    2492:	ec 0c       	addi10.sp #0xc
    2494:	3b ff fc 84 	lmw.bim $sp,[$sp],$sp,#0x2    ! {$lp}
    2498:	dd 9e       	ret5 $lp

0000249a <PwcInterruptMode>:
    249a:	3a 6f a8 bc 	smw.adm $r6,[$sp],$r10,#0x2    ! {$r6~$r10, $lp}
    249e:	ef c0       	addi10.sp #-64
    24a0:	81 40       	mov55 $r10,$r0
    24a2:	46 00 00 06 	sethi $r0,#0x6
    24a6:	04 00 01 9b 	lwi $r0,[$r0+#0x66c]
    24aa:	f0 87       	swi37.sp $r0,[+#0x1c]
    24ac:	84 e3       	movi55 $r7,#0x3
    24ae:	b6 ff       	swi450 $r7,[$sp]
    24b0:	85 22       	movi55 $r9,#0x2
    24b2:	14 9f 80 01 	swi $r9,[$sp+#0x4]
    24b6:	44 80 2e e0 	movi $r8,#0x2ee0
    24ba:	14 8f 80 02 	swi $r8,[$sp+#0x8]
    24be:	46 60 72 70 	sethi $r6,#0x7270
    24c2:	50 63 0e 00 	addi $r6,$r6,#0xe00
    24c6:	f6 83       	swi37.sp $r6,[+#0xc]
    24c8:	44 00 64 7c 	movi $r0,#0x647c
    24cc:	49 00 17 38 	jal 533c <printf>
    24d0:	44 00 64 b4 	movi $r0,#0x64b4
    24d4:	49 00 17 39 	jal 5346 <puts>
    24d8:	44 00 64 ec 	movi $r0,#0x64ec
    24dc:	49 00 17 35 	jal 5346 <puts>
    24e0:	44 00 64 f8 	movi $r0,#0x64f8
    24e4:	49 00 17 31 	jal 5346 <puts>
    24e8:	44 00 65 04 	movi $r0,#0x6504
    24ec:	49 00 17 2d 	jal 5346 <puts>
    24f0:	44 00 65 10 	movi $r0,#0x6510
    24f4:	49 00 17 29 	jal 5346 <puts>
    24f8:	44 00 65 1c 	movi $r0,#0x651c
    24fc:	49 00 17 25 	jal 5346 <puts>
    2500:	44 00 65 28 	movi $r0,#0x6528
    2504:	49 00 17 21 	jal 5346 <puts>
    2508:	fa 07       	movpi45 $r0,#0x17
    250a:	49 00 03 6e 	jal 2be6 <NVIC_DisableIRQ>
    250e:	fa 08       	movpi45 $r0,#0x18
    2510:	49 00 03 6b 	jal 2be6 <NVIC_DisableIRQ>
    2514:	00 0f 80 1e 	lbi $r0,[$sp+#0x1e]
    2518:	49 00 03 5b 	jal 2bce <NVIC_EnableIRQ>
    251c:	84 02       	movi55 $r0,#0x2
    251e:	49 ff ff 2f 	jal 237c <PWC_GpioConfigInit>
    2522:	84 03       	movi55 $r0,#0x3
    2524:	49 ff ff 73 	jal 240a <PWM_GpioConfigInit>
    2528:	10 9f 80 36 	sbi $r9,[$sp+#0x36]
    252c:	10 af 80 30 	sbi $r10,[$sp+#0x30]
    2530:	84 00       	movi55 $r0,#0x0
    2532:	10 0f 80 34 	sbi $r0,[$sp+#0x34]
    2536:	12 8f 80 19 	shi $r8,[$sp+#0x32]
    253a:	10 7f 80 35 	sbi $r7,[$sp+#0x35]
    253e:	84 21       	movi55 $r1,#0x1
    2540:	10 1f 80 20 	sbi $r1,[$sp+#0x20]
    2544:	84 26       	movi55 $r1,#0x6
    2546:	10 1f 80 21 	sbi $r1,[$sp+#0x21]
    254a:	10 0f 80 2a 	sbi $r0,[$sp+#0x2a]
    254e:	f6 89       	swi37.sp $r6,[+#0x24]
    2550:	44 00 00 32 	movi $r0,#0x32
    2554:	12 0f 80 14 	shi $r0,[$sp+#0x28]
    2558:	84 03       	movi55 $r0,#0x3
    255a:	b0 48       	addri36.sp $r1,#0x20
    255c:	49 00 11 f8 	jal 494c <PWM_Config>
    2560:	84 03       	movi55 $r0,#0x3
    2562:	49 00 12 ff 	jal 4b60 <PWM_Enable>
    2566:	84 02       	movi55 $r0,#0x2
    2568:	b0 4c       	addri36.sp $r1,#0x30
    256a:	49 00 0f 85 	jal 4474 <PWC_Config>
    256e:	84 02       	movi55 $r0,#0x2
    2570:	84 24       	movi55 $r1,#0x4
    2572:	49 00 0e 59 	jal 4224 <Timer_InterrputSrcEnable>
    2576:	84 00       	movi55 $r0,#0x0
    2578:	10 0f 80 10 	sbi $r0,[$sp+#0x10]
    257c:	b0 04       	addri36.sp $r0,#0x10
    257e:	84 21       	movi55 $r1,#0x1
    2580:	44 20 00 64 	movi $r2,#0x64
    2584:	3c 3d ff ed 	lwi.gp $r3,[+#-76]
    2588:	dd 23       	jral5 $r3
    258a:	00 0f 80 10 	lbi $r0,[$sp+#0x10]
    258e:	5a 08 78 0a 	bnec $r0,#0x78,25a2 <PwcInterruptMode+0x108>
    2592:	44 00 65 60 	movi $r0,#0x6560
    2596:	49 00 16 d8 	jal 5346 <puts>
    259a:	84 02       	movi55 $r0,#0x2
    259c:	49 00 10 82 	jal 46a0 <PWC_Disable>
    25a0:	d5 23       	j8 25e6 <PwcInterruptMode+0x14c>
    25a2:	5a 08 73 09 	bnec $r0,#0x73,25b4 <PwcInterruptMode+0x11a>
    25a6:	44 00 65 64 	movi $r0,#0x6564
    25aa:	49 00 16 ce 	jal 5346 <puts>
    25ae:	84 02       	movi55 $r0,#0x2
    25b0:	49 00 10 48 	jal 4640 <PWC_Enable>
    25b4:	00 0f 80 10 	lbi $r0,[$sp+#0x10]
    25b8:	5a 08 70 0a 	bnec $r0,#0x70,25cc <PwcInterruptMode+0x132>
    25bc:	44 00 65 6c 	movi $r0,#0x656c
    25c0:	49 00 16 c3 	jal 5346 <puts>
    25c4:	84 02       	movi55 $r0,#0x2
    25c6:	84 21       	movi55 $r1,#0x1
    25c8:	49 00 0d f0 	jal 41a8 <Timer_Pause>
    25cc:	00 0f 80 10 	lbi $r0,[$sp+#0x10]
    25d0:	5a 08 72 d3 	bnec $r0,#0x72,2576 <PwcInterruptMode+0xdc>
    25d4:	44 00 65 74 	movi $r0,#0x6574
    25d8:	49 00 16 b7 	jal 5346 <puts>
    25dc:	84 02       	movi55 $r0,#0x2
    25de:	84 20       	movi55 $r1,#0x0
    25e0:	49 00 0d e4 	jal 41a8 <Timer_Pause>
    25e4:	d5 c9       	j8 2576 <PwcInterruptMode+0xdc>
    25e6:	ec 40       	addi10.sp #0x40
    25e8:	3a 6f a8 84 	lmw.bim $r6,[$sp],$r10,#0x2    ! {$r6~$r10, $lp}
    25ec:	dd 9e       	ret5 $lp

000025ee <PwcSingleOrContinueMode>:
    25ee:	3a 6f a8 bc 	smw.adm $r6,[$sp],$r10,#0x2    ! {$r6~$r10, $lp}
    25f2:	ef 80       	addi10.sp #-128
    25f4:	81 40       	mov55 $r10,$r0
    25f6:	b0 dc       	addri36.sp $r3,#0x70
    25f8:	44 10 66 70 	movi $r1,#0x6670
    25fc:	3b 00 cc 00 	lmw.bi $r16,[$r1],$r19,#0x0    ! {$r16~$r19}
    2600:	3b 01 cc 20 	smw.bi $r16,[$r3],$r19,#0x0    ! {$r16~$r19}
    2604:	b0 90       	addri36.sp $r2,#0x40
    2606:	44 10 66 80 	movi $r1,#0x6680
    260a:	3b 00 e4 04 	lmw.bim $r16,[$r1],$r25,#0x0    ! {$r16~$r25}
    260e:	80 02       	mov55 $r0,$r2
    2610:	3b 00 64 24 	smw.bim $r16,[$r0],$r25,#0x0    ! {$r16~$r25}
    2614:	3b 00 c4 00 	lmw.bi $r16,[$r1],$r17,#0x0    ! {$r16~$r17}
    2618:	3b 00 44 20 	smw.bi $r16,[$r0],$r17,#0x0    ! {$r16~$r17}
    261c:	04 81 80 02 	lwi $r8,[$r3+#0x8]
    2620:	f6 18       	lwi37.sp $r6,[+#0x60]
    2622:	84 e3       	movi55 $r7,#0x3
    2624:	b6 ff       	swi450 $r7,[$sp]
    2626:	85 22       	movi55 $r9,#0x2
    2628:	14 9f 80 01 	swi $r9,[$sp+#0x4]
    262c:	14 8f 80 02 	swi $r8,[$sp+#0x8]
    2630:	f6 83       	swi37.sp $r6,[+#0xc]
    2632:	44 00 64 7c 	movi $r0,#0x647c
    2636:	49 00 16 83 	jal 533c <printf>
    263a:	84 02       	movi55 $r0,#0x2
    263c:	49 ff fe a0 	jal 237c <PWC_GpioConfigInit>
    2640:	84 03       	movi55 $r0,#0x3
    2642:	49 ff fe e4 	jal 240a <PWM_GpioConfigInit>
    2646:	10 9f 80 36 	sbi $r9,[$sp+#0x36]
    264a:	10 af 80 30 	sbi $r10,[$sp+#0x30]
    264e:	84 00       	movi55 $r0,#0x0
    2650:	10 0f 80 34 	sbi $r0,[$sp+#0x34]
    2654:	12 8f 80 19 	shi $r8,[$sp+#0x32]
    2658:	10 7f 80 35 	sbi $r7,[$sp+#0x35]
    265c:	84 21       	movi55 $r1,#0x1
    265e:	10 1f 80 20 	sbi $r1,[$sp+#0x20]
    2662:	84 26       	movi55 $r1,#0x6
    2664:	10 1f 80 21 	sbi $r1,[$sp+#0x21]
    2668:	10 0f 80 2a 	sbi $r0,[$sp+#0x2a]
    266c:	f6 89       	swi37.sp $r6,[+#0x24]
    266e:	44 00 00 32 	movi $r0,#0x32
    2672:	12 0f 80 14 	shi $r0,[$sp+#0x28]
    2676:	84 03       	movi55 $r0,#0x3
    2678:	b0 48       	addri36.sp $r1,#0x20
    267a:	49 00 11 69 	jal 494c <PWM_Config>
    267e:	84 03       	movi55 $r0,#0x3
    2680:	49 00 12 70 	jal 4b60 <PWM_Enable>
    2684:	84 02       	movi55 $r0,#0x2
    2686:	b0 4c       	addri36.sp $r1,#0x30
    2688:	49 00 0e f6 	jal 4474 <PWC_Config>
    268c:	44 00 65 7c 	movi $r0,#0x657c
    2690:	49 00 16 5b 	jal 5346 <puts>
    2694:	44 00 64 ec 	movi $r0,#0x64ec
    2698:	49 00 16 57 	jal 5346 <puts>
    269c:	44 00 64 f8 	movi $r0,#0x64f8
    26a0:	49 00 16 53 	jal 5346 <puts>
    26a4:	44 00 65 04 	movi $r0,#0x6504
    26a8:	49 00 16 4f 	jal 5346 <puts>
    26ac:	44 00 65 10 	movi $r0,#0x6510
    26b0:	49 00 16 4b 	jal 5346 <puts>
    26b4:	44 00 65 1c 	movi $r0,#0x651c
    26b8:	49 00 16 47 	jal 5346 <puts>
    26bc:	44 00 65 28 	movi $r0,#0x6528
    26c0:	49 00 16 43 	jal 5346 <puts>
    26c4:	84 02       	movi55 $r0,#0x2
    26c6:	84 21       	movi55 $r1,#0x1
    26c8:	84 40       	movi55 $r2,#0x0
    26ca:	49 00 10 17 	jal 46f8 <PWC_IOCTRL>
    26ce:	c0 0b       	beqz38 $r0,26e4 <PwcSingleOrContinueMode+0xf6>
    26d0:	84 02       	movi55 $r0,#0x2
    26d2:	84 20       	movi55 $r1,#0x0
    26d4:	84 40       	movi55 $r2,#0x0
    26d6:	49 00 10 11 	jal 46f8 <PWC_IOCTRL>
    26da:	b6 1f       	swi450 $r0,[$sp]
    26dc:	44 00 65 b4 	movi $r0,#0x65b4
    26e0:	49 00 16 2e 	jal 533c <printf>
    26e4:	84 00       	movi55 $r0,#0x0
    26e6:	10 0f 80 14 	sbi $r0,[$sp+#0x14]
    26ea:	b0 05       	addri36.sp $r0,#0x14
    26ec:	84 21       	movi55 $r1,#0x1
    26ee:	44 20 00 64 	movi $r2,#0x64
    26f2:	3c 3d ff ed 	lwi.gp $r3,[+#-76]
    26f6:	dd 23       	jral5 $r3
    26f8:	00 0f 80 14 	lbi $r0,[$sp+#0x14]
    26fc:	5a 08 78 0a 	bnec $r0,#0x78,2710 <PwcSingleOrContinueMode+0x122>
    2700:	44 00 65 60 	movi $r0,#0x6560
    2704:	49 00 16 21 	jal 5346 <puts>
    2708:	84 02       	movi55 $r0,#0x2
    270a:	49 00 0f cb 	jal 46a0 <PWC_Disable>
    270e:	d5 23       	j8 2754 <PwcSingleOrContinueMode+0x166>
    2710:	5a 08 73 09 	bnec $r0,#0x73,2722 <PwcSingleOrContinueMode+0x134>
    2714:	44 00 65 64 	movi $r0,#0x6564
    2718:	49 00 16 17 	jal 5346 <puts>
    271c:	84 02       	movi55 $r0,#0x2
    271e:	49 00 0f 91 	jal 4640 <PWC_Enable>
    2722:	00 0f 80 14 	lbi $r0,[$sp+#0x14]
    2726:	5a 08 70 0a 	bnec $r0,#0x70,273a <PwcSingleOrContinueMode+0x14c>
    272a:	44 00 65 6c 	movi $r0,#0x656c
    272e:	49 00 16 0c 	jal 5346 <puts>
    2732:	84 02       	movi55 $r0,#0x2
    2734:	84 21       	movi55 $r1,#0x1
    2736:	49 00 0d 39 	jal 41a8 <Timer_Pause>
    273a:	00 0f 80 14 	lbi $r0,[$sp+#0x14]
    273e:	5a 08 72 c3 	bnec $r0,#0x72,26c4 <PwcSingleOrContinueMode+0xd6>
    2742:	44 00 65 74 	movi $r0,#0x6574
    2746:	49 00 16 00 	jal 5346 <puts>
    274a:	84 02       	movi55 $r0,#0x2
    274c:	84 20       	movi55 $r1,#0x0
    274e:	49 00 0d 2d 	jal 41a8 <Timer_Pause>
    2752:	d5 b9       	j8 26c4 <PwcSingleOrContinueMode+0xd6>
    2754:	ec 80       	addi10.sp #0x80
    2756:	3a 6f a8 84 	lmw.bim $r6,[$sp],$r10,#0x2    ! {$r6~$r10, $lp}
    275a:	dd 9e       	ret5 $lp

0000275c <main>:
    275c:	3b ff fc bc 	smw.adm $sp,[$sp],$sp,#0x2    ! {$lp}
    2760:	ef f4       	addi10.sp #-12
    2762:	84 01       	movi55 $r0,#0x1
    2764:	49 00 02 b2 	jal 2cc8 <Chip_Init>
    2768:	49 00 14 b1 	jal 50ca <WDG_Disable>
    276c:	84 01       	movi55 $r0,#0x1
    276e:	46 10 16 e3 	sethi $r1,#0x16e3
    2772:	50 10 86 00 	addi $r1,$r1,#0x600
    2776:	49 00 02 fa 	jal 2d6a <Clock_Config>
    277a:	44 04 65 00 	movi $r0,#0x46500
    277e:	49 00 03 8e 	jal 2e9a <Clock_PllLock>
    2782:	84 1f       	movi55 $r0,#-1
    2784:	84 20       	movi55 $r1,#0x0
    2786:	49 00 04 8a 	jal 309a <Clock_Module1Enable>
    278a:	fa 0f       	movpi45 $r0,#0x1f
    278c:	49 00 04 8f 	jal 30aa <Clock_Module2Enable>
    2790:	44 00 00 7f 	movi $r0,#0x7f
    2794:	49 00 04 93 	jal 30ba <Clock_Module3Enable>
    2798:	84 01       	movi55 $r0,#0x1
    279a:	49 00 04 0d 	jal 2fb4 <Clock_SysClkSelect>
    279e:	84 01       	movi55 $r0,#0x1
    27a0:	49 00 04 51 	jal 3042 <Clock_UARTClkSelect>
    27a4:	84 00       	movi55 $r0,#0x0
    27a6:	84 2c       	movi55 $r1,#0xc
    27a8:	49 00 0b a8 	jal 3ef8 <Remap_InitTcm>
    27ac:	46 00 4c 4b 	sethi $r0,#0x4c4b
    27b0:	50 00 04 00 	addi $r0,$r0,#0x400
    27b4:	84 22       	movi55 $r1,#0x2
    27b6:	84 40       	movi55 $r2,#0x0
    27b8:	84 61       	movi55 $r3,#0x1
    27ba:	49 ff f7 b5 	jal 1724 <SpiFlashInit>
    27be:	84 01       	movi55 $r0,#0x1
    27c0:	49 00 04 41 	jal 3042 <Clock_UARTClkSelect>
    27c4:	46 00 10 00 	sethi $r0,#0x1000
    27c8:	84 21       	movi55 $r1,#0x1
    27ca:	49 00 05 05 	jal 31d4 <GPIO_PortAModeSet>
    27ce:	46 00 20 00 	sethi $r0,#0x2000
    27d2:	84 26       	movi55 $r1,#0x6
    27d4:	49 00 05 00 	jal 31d4 <GPIO_PortAModeSet>
    27d8:	84 01       	movi55 $r0,#0x1
    27da:	44 13 e8 00 	movi $r1,#0x3e800
    27de:	84 48       	movi55 $r2,#0x8
    27e0:	84 60       	movi55 $r3,#0x0
    27e2:	84 81       	movi55 $r4,#0x1
    27e4:	49 00 02 57 	jal 2c92 <DbgUartInit>
    27e8:	44 00 65 dc 	movi $r0,#0x65dc
    27ec:	b6 1f       	swi450 $r0,[$sp]
    27ee:	44 00 65 e8 	movi $r0,#0x65e8
    27f2:	f0 81       	swi37.sp $r0,[+#0x4]
    27f4:	44 00 65 c8 	movi $r0,#0x65c8
    27f8:	49 00 15 a2 	jal 533c <printf>
    27fc:	49 00 0b 96 	jal 3f28 <SysTickInit>
    2800:	49 00 01 d7 	jal 2bae <GIE_ENABLE>
    2804:	44 00 65 28 	movi $r0,#0x6528
    2808:	49 00 15 9f 	jal 5346 <puts>
    280c:	44 00 65 f4 	movi $r0,#0x65f4
    2810:	49 00 15 9b 	jal 5346 <puts>
    2814:	44 00 66 04 	movi $r0,#0x6604
    2818:	49 00 15 97 	jal 5346 <puts>
    281c:	44 00 66 14 	movi $r0,#0x6614
    2820:	49 00 15 93 	jal 5346 <puts>
    2824:	44 00 66 30 	movi $r0,#0x6630
    2828:	49 00 15 8f 	jal 5346 <puts>
    282c:	44 00 66 50 	movi $r0,#0x6650
    2830:	49 00 15 8b 	jal 5346 <puts>
    2834:	44 00 65 28 	movi $r0,#0x6528
    2838:	49 00 15 87 	jal 5346 <puts>
    283c:	49 ff fe 19 	jal 246e <GetChar>
    2840:	96 00       	zeb33 $r0,$r0
    2842:	5a 08 31 06 	bnec $r0,#0x31,284e <main+0xf2>
    2846:	84 01       	movi55 $r0,#0x1
    2848:	49 ff fe d3 	jal 25ee <PwcSingleOrContinueMode>
    284c:	d5 f8       	j8 283c <main+0xe0>
    284e:	5a 08 32 06 	bnec $r0,#0x32,285a <main+0xfe>
    2852:	84 00       	movi55 $r0,#0x0
    2854:	49 ff fe cd 	jal 25ee <PwcSingleOrContinueMode>
    2858:	d5 f2       	j8 283c <main+0xe0>
    285a:	5a 08 33 f1 	bnec $r0,#0x33,283c <main+0xe0>
    285e:	84 00       	movi55 $r0,#0x0
    2860:	49 ff fe 1d 	jal 249a <PwcInterruptMode>
    2864:	d5 ec       	j8 283c <main+0xe0>

00002866 <BLE_Interrupt>:
    2866:	d5 00       	j8 2866 <BLE_Interrupt>

00002868 <ExceptionCommHandler>:
    2868:	3a 6f a4 bc 	smw.adm $r6,[$sp],$r9,#0x2    ! {$r6~$r9, $lp}
    286c:	ef f4       	addi10.sp #-12
    286e:	80 c0       	mov55 $r6,$r0
    2870:	81 01       	mov55 $r8,$r1
    2872:	44 00 66 b0 	movi $r0,#0x66b0
    2876:	49 00 15 68 	jal 5346 <puts>
    287a:	64 72 64 02 	mfsr $r7,$itype
    287e:	64 92 a4 02 	mfsr $r9,$ipc
    2882:	97 df       	fexti33 $r7,#0x3
    2884:	5a 88 07 5d 	bnec $r8,#0x7,293e <ExceptionCommHandler+0xd6>
    2888:	44 00 66 cc 	movi $r0,#0x66cc
    288c:	49 00 15 58 	jal 533c <printf>
    2890:	cf 06       	bnez38 $r7,289c <ExceptionCommHandler+0x34>
    2892:	44 00 66 d8 	movi $r0,#0x66d8
    2896:	49 00 15 58 	jal 5346 <puts>
    289a:	d5 52       	j8 293e <ExceptionCommHandler+0xd6>
    289c:	5a 78 01 07 	bnec $r7,#0x1,28aa <ExceptionCommHandler+0x42>
    28a0:	44 00 67 10 	movi $r0,#0x6710
    28a4:	49 00 15 51 	jal 5346 <puts>
    28a8:	d5 4b       	j8 293e <ExceptionCommHandler+0xd6>
    28aa:	5a 78 02 07 	bnec $r7,#0x2,28b8 <ExceptionCommHandler+0x50>
    28ae:	44 00 67 28 	movi $r0,#0x6728
    28b2:	49 00 15 4a 	jal 5346 <puts>
    28b6:	d5 44       	j8 293e <ExceptionCommHandler+0xd6>
    28b8:	5a 78 03 07 	bnec $r7,#0x3,28c6 <ExceptionCommHandler+0x5e>
    28bc:	44 00 67 30 	movi $r0,#0x6730
    28c0:	49 00 15 43 	jal 5346 <puts>
    28c4:	d5 3d       	j8 293e <ExceptionCommHandler+0xd6>
    28c6:	5a 78 04 07 	bnec $r7,#0x4,28d4 <ExceptionCommHandler+0x6c>
    28ca:	44 00 67 3c 	movi $r0,#0x673c
    28ce:	49 00 15 3c 	jal 5346 <puts>
    28d2:	d5 36       	j8 293e <ExceptionCommHandler+0xd6>
    28d4:	5a 78 05 07 	bnec $r7,#0x5,28e2 <ExceptionCommHandler+0x7a>
    28d8:	44 00 67 50 	movi $r0,#0x6750
    28dc:	49 00 15 35 	jal 5346 <puts>
    28e0:	d5 2f       	j8 293e <ExceptionCommHandler+0xd6>
    28e2:	5a 78 06 07 	bnec $r7,#0x6,28f0 <ExceptionCommHandler+0x88>
    28e6:	44 00 67 68 	movi $r0,#0x6768
    28ea:	49 00 15 2e 	jal 5346 <puts>
    28ee:	d5 28       	j8 293e <ExceptionCommHandler+0xd6>
    28f0:	5a 78 07 07 	bnec $r7,#0x7,28fe <ExceptionCommHandler+0x96>
    28f4:	44 00 67 78 	movi $r0,#0x6778
    28f8:	49 00 15 27 	jal 5346 <puts>
    28fc:	d5 21       	j8 293e <ExceptionCommHandler+0xd6>
    28fe:	5a 78 08 07 	bnec $r7,#0x8,290c <ExceptionCommHandler+0xa4>
    2902:	44 00 67 90 	movi $r0,#0x6790
    2906:	49 00 15 20 	jal 5346 <puts>
    290a:	d5 1a       	j8 293e <ExceptionCommHandler+0xd6>
    290c:	5a 78 09 07 	bnec $r7,#0x9,291a <ExceptionCommHandler+0xb2>
    2910:	44 00 67 a0 	movi $r0,#0x67a0
    2914:	49 00 15 19 	jal 5346 <puts>
    2918:	d5 13       	j8 293e <ExceptionCommHandler+0xd6>
    291a:	5a 78 0a 07 	bnec $r7,#0xa,2928 <ExceptionCommHandler+0xc0>
    291e:	44 00 67 c8 	movi $r0,#0x67c8
    2922:	49 00 15 12 	jal 5346 <puts>
    2926:	d5 0c       	j8 293e <ExceptionCommHandler+0xd6>
    2928:	5a 78 0b 07 	bnec $r7,#0xb,2936 <ExceptionCommHandler+0xce>
    292c:	44 00 67 e4 	movi $r0,#0x67e4
    2930:	49 00 15 0b 	jal 5346 <puts>
    2934:	d5 05       	j8 293e <ExceptionCommHandler+0xd6>
    2936:	44 00 68 04 	movi $r0,#0x6804
    293a:	49 00 15 06 	jal 5346 <puts>
    293e:	b7 3f       	swi450 $r9,[$sp]
    2940:	44 00 68 10 	movi $r0,#0x6810
    2944:	49 00 14 fc 	jal 533c <printf>
    2948:	b4 06       	lwi450 $r0,[$r6]
    294a:	b6 1f       	swi450 $r0,[$sp]
    294c:	44 00 68 20 	movi $r0,#0x6820
    2950:	49 00 14 f6 	jal 533c <printf>
    2954:	a0 31       	lwi333 $r0,[$r6+#0x4]
    2956:	b6 1f       	swi450 $r0,[$sp]
    2958:	44 00 68 30 	movi $r0,#0x6830
    295c:	49 00 14 f0 	jal 533c <printf>
    2960:	a0 32       	lwi333 $r0,[$r6+#0x8]
    2962:	b6 1f       	swi450 $r0,[$sp]
    2964:	44 00 68 40 	movi $r0,#0x6840
    2968:	49 00 14 ea 	jal 533c <printf>
    296c:	a0 33       	lwi333 $r0,[$r6+#0xc]
    296e:	b6 1f       	swi450 $r0,[$sp]
    2970:	44 00 68 50 	movi $r0,#0x6850
    2974:	49 00 14 e4 	jal 533c <printf>
    2978:	a0 34       	lwi333 $r0,[$r6+#0x10]
    297a:	b6 1f       	swi450 $r0,[$sp]
    297c:	44 00 68 60 	movi $r0,#0x6860
    2980:	49 00 14 de 	jal 533c <printf>
    2984:	a0 35       	lwi333 $r0,[$r6+#0x14]
    2986:	b6 1f       	swi450 $r0,[$sp]
    2988:	44 00 68 70 	movi $r0,#0x6870
    298c:	49 00 14 d8 	jal 533c <printf>
    2990:	a0 36       	lwi333 $r0,[$r6+#0x18]
    2992:	b6 1f       	swi450 $r0,[$sp]
    2994:	44 00 68 80 	movi $r0,#0x6880
    2998:	49 00 14 d2 	jal 533c <printf>
    299c:	a0 37       	lwi333 $r0,[$r6+#0x1c]
    299e:	b6 1f       	swi450 $r0,[$sp]
    29a0:	44 00 68 90 	movi $r0,#0x6890
    29a4:	49 00 14 cc 	jal 533c <printf>
    29a8:	04 03 00 08 	lwi $r0,[$r6+#0x20]
    29ac:	b6 1f       	swi450 $r0,[$sp]
    29ae:	44 00 68 a0 	movi $r0,#0x68a0
    29b2:	49 00 14 c5 	jal 533c <printf>
    29b6:	04 03 00 09 	lwi $r0,[$r6+#0x24]
    29ba:	b6 1f       	swi450 $r0,[$sp]
    29bc:	44 00 68 b0 	movi $r0,#0x68b0
    29c0:	49 00 14 be 	jal 533c <printf>
    29c4:	04 03 00 0a 	lwi $r0,[$r6+#0x28]
    29c8:	b6 1f       	swi450 $r0,[$sp]
    29ca:	44 00 68 c0 	movi $r0,#0x68c0
    29ce:	49 00 14 b7 	jal 533c <printf>
    29d2:	04 03 00 0b 	lwi $r0,[$r6+#0x2c]
    29d6:	b6 1f       	swi450 $r0,[$sp]
    29d8:	44 00 68 d0 	movi $r0,#0x68d0
    29dc:	49 00 14 b0 	jal 533c <printf>
    29e0:	04 03 00 0c 	lwi $r0,[$r6+#0x30]
    29e4:	b6 1f       	swi450 $r0,[$sp]
    29e6:	44 00 68 e0 	movi $r0,#0x68e0
    29ea:	49 00 14 a9 	jal 533c <printf>
    29ee:	04 03 00 0d 	lwi $r0,[$r6+#0x34]
    29f2:	b6 1f       	swi450 $r0,[$sp]
    29f4:	44 00 68 f0 	movi $r0,#0x68f0
    29f8:	49 00 14 a2 	jal 533c <printf>
    29fc:	04 03 00 0e 	lwi $r0,[$r6+#0x38]
    2a00:	b6 1f       	swi450 $r0,[$sp]
    2a02:	44 00 69 00 	movi $r0,#0x6900
    2a06:	49 00 14 9b 	jal 533c <printf>
    2a0a:	04 03 00 0f 	lwi $r0,[$r6+#0x3c]
    2a0e:	b6 1f       	swi450 $r0,[$sp]
    2a10:	44 00 69 10 	movi $r0,#0x6910
    2a14:	49 00 14 94 	jal 533c <printf>
    2a18:	04 03 00 10 	lwi $r0,[$r6+#0x40]
    2a1c:	b6 1f       	swi450 $r0,[$sp]
    2a1e:	44 00 69 20 	movi $r0,#0x6920
    2a22:	49 00 14 8d 	jal 533c <printf>
    2a26:	04 03 00 11 	lwi $r0,[$r6+#0x44]
    2a2a:	b6 1f       	swi450 $r0,[$sp]
    2a2c:	44 00 69 30 	movi $r0,#0x6930
    2a30:	49 00 14 86 	jal 533c <printf>
    2a34:	04 03 00 12 	lwi $r0,[$r6+#0x48]
    2a38:	b6 1f       	swi450 $r0,[$sp]
    2a3a:	44 00 69 40 	movi $r0,#0x6940
    2a3e:	49 00 14 7f 	jal 533c <printf>
    2a42:	04 03 00 13 	lwi $r0,[$r6+#0x4c]
    2a46:	b6 1f       	swi450 $r0,[$sp]
    2a48:	44 00 69 50 	movi $r0,#0x6950
    2a4c:	49 00 14 78 	jal 533c <printf>
    2a50:	04 03 00 14 	lwi $r0,[$r6+#0x50]
    2a54:	b6 1f       	swi450 $r0,[$sp]
    2a56:	44 00 69 60 	movi $r0,#0x6960
    2a5a:	49 00 14 71 	jal 533c <printf>
    2a5e:	04 03 00 15 	lwi $r0,[$r6+#0x54]
    2a62:	b6 1f       	swi450 $r0,[$sp]
    2a64:	44 00 69 70 	movi $r0,#0x6970
    2a68:	49 00 14 6a 	jal 533c <printf>
    2a6c:	04 03 00 16 	lwi $r0,[$r6+#0x58]
    2a70:	b6 1f       	swi450 $r0,[$sp]
    2a72:	44 00 69 80 	movi $r0,#0x6980
    2a76:	49 00 14 63 	jal 533c <printf>
    2a7a:	b7 1f       	swi450 $r8,[$sp]
    2a7c:	44 00 69 90 	movi $r0,#0x6990
    2a80:	49 00 14 5e 	jal 533c <printf>
    2a84:	b6 ff       	swi450 $r7,[$sp]
    2a86:	44 00 69 a4 	movi $r0,#0x69a4
    2a8a:	49 00 14 59 	jal 533c <printf>
    2a8e:	d5 00       	j8 2a8e <ExceptionCommHandler+0x226>

00002a90 <__c_init>:
    2a90:	3b ff fc bc 	smw.adm $sp,[$sp],$sp,#0x2    ! {$lp}
    2a94:	ef fc       	addi10.sp #-4
    2a96:	3e 2f ff a8 	addi.gp $r2,#-88
    2a9a:	80 02       	mov55 $r0,$r2
    2a9c:	44 10 6b 40 	movi $r1,#0x6b40
    2aa0:	3e 38 00 38 	addi.gp $r3,#0x38
    2aa4:	9a 9a       	sub333 $r2,$r3,$r2
    2aa6:	49 00 14 1d 	jal 52e0 <memcpy>
    2aaa:	3e 28 00 38 	addi.gp $r2,#0x38
    2aae:	80 02       	mov55 $r0,$r2
    2ab0:	84 20       	movi55 $r1,#0x0
    2ab2:	3e 38 00 60 	addi.gp $r3,#0x60
    2ab6:	9a 9a       	sub333 $r2,$r3,$r2
    2ab8:	49 00 14 2a 	jal 530c <memset>
    2abc:	ec 04       	addi10.sp #0x4
    2abe:	3b ff fc 84 	lmw.bim $sp,[$sp],$sp,#0x2    ! {$lp}
    2ac2:	dd 9e       	ret5 $lp

00002ac4 <__cpu_init>:
    2ac4:	64 04 00 02 	mfsr $r0,$mmu_ctl
    2ac8:	42 00 5c 08 	bset $r0,$r0,#0x17
    2acc:	64 04 00 03 	mtsr $r0,$mmu_ctl
    2ad0:	84 00       	movi55 $r0,#0x0
    2ad2:	64 03 00 03 	mtsr $r0,$int_mask
    2ad6:	64 02 24 02 	mfsr $r0,$ivb
    2ada:	96 04       	xlsb33 $r0,$r0
    2adc:	c0 04       	beqz38 $r0,2ae4 <__cpu_init+0x20>
    2ade:	84 00       	movi55 $r0,#0x0
    2ae0:	64 03 00 03 	mtsr $r0,$int_mask
    2ae4:	84 00       	movi55 $r0,#0x0
    2ae6:	64 02 24 03 	mtsr $r0,$ivb
    2aea:	64 02 00 02 	mfsr $r0,$psw
    2aee:	66 10 00 06 	bitci $r1,$r0,#0x6
    2af2:	44 07 00 08 	movi $r0,#0x70008
    2af6:	fe 0f       	or33 $r0,$r1
    2af8:	64 02 00 03 	mtsr $r0,$psw
    2afc:	64 00 00 08 	dsb
    2b00:	64 02 24 02 	mfsr $r0,$ivb
    2b04:	96 04       	xlsb33 $r0,$r0
    2b06:	c0 14       	beqz38 $r0,2b2e <__cpu_init+0x6a>
    2b08:	84 00       	movi55 $r0,#0x0
    2b0a:	64 02 28 03 	mtsr $r0,$int_ctrl
    2b0e:	64 02 24 02 	mfsr $r0,$ivb
    2b12:	54 00 00 0e 	andi $r0,$r0,#0xe
    2b16:	5a 08 0a 08 	bnec $r0,#0xa,2b26 <__cpu_init+0x62>
    2b1a:	84 1f       	movi55 $r0,#-1
    2b1c:	64 03 60 03 	mtsr $r0,$int_pri
    2b20:	64 03 64 03 	mtsr $r0,$int_pri2
    2b24:	d5 05       	j8 2b2e <__cpu_init+0x6a>
    2b26:	44 00 00 e4 	movi $r0,#0xe4
    2b2a:	64 03 60 03 	mtsr $r0,$int_pri
    2b2e:	64 50 a0 02 	mfsr $r5,$fucop_exist
    2b32:	46 08 00 00 	sethi $r0,#0x80000
    2b36:	8c 01       	addi45 $r0,#0x1
    2b38:	ff 46       	and33 $r5,$r0
    2b3a:	d8 11       	bnes38 $r0,2b5c <__cpu_init+0x98>
    2b3c:	64 08 a0 02 	mfsr $r0,$fucpr
    2b40:	58 00 00 01 	ori $r0,$r0,#0x1
    2b44:	64 08 a0 03 	mtsr $r0,$fucpr
    2b48:	64 00 00 08 	dsb
    2b4c:	6a 00 07 01 	fmfcsr $r0
    2b50:	58 00 10 00 	ori $r0,$r0,#0x1000
    2b54:	6a 00 07 09 	fmtcsr $r0
    2b58:	64 00 00 08 	dsb
    2b5c:	64 03 24 02 	mfsr $r0,$int_pend2
    2b60:	64 03 24 03 	mtsr $r0,$int_pend2
    2b64:	dd 9e       	ret5 $lp

00002b66 <HardwareStackProtectEnable>:
    2b66:	64 00 80 02 	mfsr $r0,$msc_cfg
    2b6a:	42 00 6c 0b 	btst $r0,$r0,#0x1b
    2b6e:	c0 0e       	beqz38 $r0,2b8a <HardwareStackProtectEnable+0x24>
    2b70:	64 08 c0 02 	mfsr $r0,$hsp_ctl
    2b74:	66 00 00 0f 	bitci $r0,$r0,#0xf
    2b78:	64 08 c0 03 	mtsr $r0,$hsp_ctl
    2b7c:	46 02 00 03 	sethi $r0,#0x20003
    2b80:	64 08 c4 03 	mtsr $r0,$sp_bound
    2b84:	84 05       	movi55 $r0,#0x5
    2b86:	64 08 c0 03 	mtsr $r0,$hsp_ctl
    2b8a:	dd 9e       	ret5 $lp

00002b8c <__init>:
    2b8c:	3b ff fc bc 	smw.adm $sp,[$sp],$sp,#0x2    ! {$lp}
    2b90:	ef fc       	addi10.sp #-4
    2b92:	49 ff ff 99 	jal 2ac4 <__cpu_init>
    2b96:	49 00 02 cb 	jal 312c <EnableIDCache>
    2b9a:	49 ff ff e6 	jal 2b66 <HardwareStackProtectEnable>
    2b9e:	49 00 00 e0 	jal 2d5e <Chip_MemInit>
    2ba2:	49 ff ff 77 	jal 2a90 <__c_init>
    2ba6:	ec 04       	addi10.sp #0x4
    2ba8:	3b ff fc 84 	lmw.bim $sp,[$sp],$sp,#0x2    ! {$lp}
    2bac:	dd 9e       	ret5 $lp

00002bae <GIE_ENABLE>:
    2bae:	64 12 00 43 	setgie.e
    2bb2:	64 00 00 08 	dsb
    2bb6:	dd 9e       	ret5 $lp

00002bb8 <GIE_DISABLE>:
    2bb8:	64 02 00 43 	setgie.d
    2bbc:	64 00 00 08 	dsb
    2bc0:	64 00 00 08 	dsb
    2bc4:	dd 9e       	ret5 $lp

00002bc6 <GIE_STATE_GET>:
    2bc6:	64 02 00 02 	mfsr $r0,$psw
    2bca:	96 04       	xlsb33 $r0,$r0
    2bcc:	dd 9e       	ret5 $lp

00002bce <NVIC_EnableIRQ>:
    2bce:	5c f0 00 20 	slti $r15,$r0,#0x20
    2bd2:	e8 09       	beqzs8 2be4 <NVIC_EnableIRQ+0x16>
    2bd4:	64 13 04 02 	mfsr $r1,$int_mask2
    2bd8:	84 41       	movi55 $r2,#0x1
    2bda:	40 01 00 0c 	sll $r0,$r2,$r0
    2bde:	fe 0f       	or33 $r0,$r1
    2be0:	64 03 04 03 	mtsr $r0,$int_mask2
    2be4:	dd 9e       	ret5 $lp

00002be6 <NVIC_DisableIRQ>:
    2be6:	5c f0 00 20 	slti $r15,$r0,#0x20
    2bea:	e8 0a       	beqzs8 2bfe <NVIC_DisableIRQ+0x18>
    2bec:	64 23 04 02 	mfsr $r2,$int_mask2
    2bf0:	84 21       	movi55 $r1,#0x1
    2bf2:	40 00 80 0c 	sll $r0,$r1,$r0
    2bf6:	40 01 00 12 	bitc $r0,$r2,$r0
    2bfa:	64 03 04 03 	mtsr $r0,$int_mask2
    2bfe:	dd 9e       	ret5 $lp

00002c00 <SwUartSend>:
    2c00:	dd 9e       	ret5 $lp

00002c02 <putchar>:
    2c02:	3a 6f 98 bc 	smw.adm $r6,[$sp],$r6,#0x2    ! {$r6, $lp}
    2c06:	ef f0       	addi10.sp #-16
    2c08:	f0 81       	swi37.sp $r0,[+#0x4]
    2c0a:	2e 00 00 38 	lbi.gp $r0,[+#0x38]
    2c0e:	c0 13       	beqz38 $r0,2c34 <putchar+0x32>
    2c10:	00 0f 80 04 	lbi $r0,[$sp+#0x4]
    2c14:	5a 08 0a 0b 	bnec $r0,#0xa,2c2a <putchar+0x28>
    2c18:	44 00 0a 0d 	movi $r0,#0xa0d
    2c1c:	12 0f 80 06 	shi $r0,[$sp+#0xc]
    2c20:	b0 03       	addri36.sp $r0,#0xc
    2c22:	84 22       	movi55 $r1,#0x2
    2c24:	49 ff ff ee 	jal 2c00 <SwUartSend>
    2c28:	d5 20       	j8 2c68 <putchar+0x66>
    2c2a:	b0 01       	addri36.sp $r0,#0x4
    2c2c:	84 21       	movi55 $r1,#0x1
    2c2e:	49 ff ff e9 	jal 2c00 <SwUartSend>
    2c32:	d5 1b       	j8 2c68 <putchar+0x66>
    2c34:	f0 01       	lwi37.sp $r0,[+#0x4]
    2c36:	5a 08 0a 11 	bnec $r0,#0xa,2c58 <putchar+0x56>
    2c3a:	3e 6f ff a8 	addi.gp $r6,#-88
    2c3e:	2e 00 00 39 	lbi.gp $r0,[+#0x39]
    2c42:	38 13 02 02 	lw $r1,[$r6+($r0<<#0x2)]
    2c46:	84 0d       	movi55 $r0,#0xd
    2c48:	dd 21       	jral5 $r1
    2c4a:	2e 00 00 39 	lbi.gp $r0,[+#0x39]
    2c4e:	38 13 02 02 	lw $r1,[$r6+($r0<<#0x2)]
    2c52:	84 0a       	movi55 $r0,#0xa
    2c54:	dd 21       	jral5 $r1
    2c56:	d5 09       	j8 2c68 <putchar+0x66>
    2c58:	2e 20 00 39 	lbi.gp $r2,[+#0x39]
    2c5c:	3e 1f ff a8 	addi.gp $r1,#-88
    2c60:	38 10 8a 02 	lw $r1,[$r1+($r2<<#0x2)]
    2c64:	96 00       	zeb33 $r0,$r0
    2c66:	dd 21       	jral5 $r1
    2c68:	f0 01       	lwi37.sp $r0,[+#0x4]
    2c6a:	ec 10       	addi10.sp #0x10
    2c6c:	3a 6f 98 84 	lmw.bim $r6,[$sp],$r6,#0x2    ! {$r6, $lp}
    2c70:	dd 9e       	ret5 $lp

00002c72 <nds_write>:
    2c72:	3a 6f a0 bc 	smw.adm $r6,[$sp],$r8,#0x2    ! {$r6~$r8, $lp}
    2c76:	81 00       	mov55 $r8,$r0
    2c78:	80 e1       	mov55 $r7,$r1
    2c7a:	84 c0       	movi55 $r6,#0x0
    2c7c:	d5 06       	j8 2c88 <nds_write+0x16>
    2c7e:	38 04 18 00 	lb $r0,[$r8+($r6<<#0x0)]
    2c82:	49 ff ff c0 	jal 2c02 <putchar>
    2c86:	8c c1       	addi45 $r6,#0x1
    2c88:	e0 c7       	slts45 $r6,$r7
    2c8a:	e9 fa       	bnezs8 2c7e <nds_write+0xc>
    2c8c:	3a 6f a0 84 	lmw.bim $r6,[$sp],$r8,#0x2    ! {$r6~$r8, $lp}
    2c90:	dd 9e       	ret5 $lp

00002c92 <DbgUartInit>:
    2c92:	3b ff fc bc 	smw.adm $sp,[$sp],$sp,#0x2    ! {$lp}
    2c96:	ef fc       	addi10.sp #-4
    2c98:	3e 00 00 39 	sbi.gp $r0,[+#0x39]
    2c9c:	3e 5f ff b8 	addi.gp $r5,#-72
    2ca0:	38 52 82 02 	lw $r5,[$r5+($r0<<#0x2)]
    2ca4:	80 01       	mov55 $r0,$r1
    2ca6:	80 22       	mov55 $r1,$r2
    2ca8:	80 43       	mov55 $r2,$r3
    2caa:	80 64       	mov55 $r3,$r4
    2cac:	dd 25       	jral5 $r5
    2cae:	ec 04       	addi10.sp #0x4
    2cb0:	3b ff fc 84 	lmw.bim $sp,[$sp],$sp,#0x2    ! {$lp}
    2cb4:	dd 9e       	ret5 $lp

00002cb6 <Chip_VMIDDetectDisable>:
    2cb6:	46 14 00 2e 	sethi $r1,#0x4002e
    2cba:	02 00 80 2e 	lhi $r0,[$r1+#0x5c]
    2cbe:	66 00 00 08 	bitci $r0,$r0,#0x8
    2cc2:	12 00 80 2e 	shi $r0,[$r1+#0x5c]
    2cc6:	dd 9e       	ret5 $lp

00002cc8 <Chip_Init>:
    2cc8:	3b ff fc bc 	smw.adm $sp,[$sp],$sp,#0x2    ! {$lp}
    2ccc:	ef fc       	addi10.sp #-4
    2cce:	49 ff ff f4 	jal 2cb6 <Chip_VMIDDetectDisable>
    2cd2:	46 04 00 10 	sethi $r0,#0x40010
    2cd6:	04 20 00 25 	lwi $r2,[$r0+#0x94]
    2cda:	46 13 cf c0 	sethi $r1,#0x3cfc0
    2cde:	8c 3f       	addi45 $r1,#0x1f
    2ce0:	fe 57       	or33 $r1,$r2
    2ce2:	14 10 00 25 	swi $r1,[$r0+#0x94]
    2ce6:	04 10 00 27 	lwi $r1,[$r0+#0x9c]
    2cea:	58 10 80 cf 	ori $r1,$r1,#0xcf
    2cee:	14 10 00 27 	swi $r1,[$r0+#0x9c]
    2cf2:	00 10 00 bc 	lbi $r1,[$r0+#0xbc]
    2cf6:	58 10 80 01 	ori $r1,$r1,#0x1
    2cfa:	10 10 00 bc 	sbi $r1,[$r0+#0xbc]
    2cfe:	00 10 00 c0 	lbi $r1,[$r0+#0xc0]
    2d02:	58 10 80 01 	ori $r1,$r1,#0x1
    2d06:	10 10 00 c0 	sbi $r1,[$r0+#0xc0]
    2d0a:	00 10 00 c4 	lbi $r1,[$r0+#0xc4]
    2d0e:	58 10 80 01 	ori $r1,$r1,#0x1
    2d12:	10 10 00 c4 	sbi $r1,[$r0+#0xc4]
    2d16:	00 10 00 c8 	lbi $r1,[$r0+#0xc8]
    2d1a:	58 10 80 40 	ori $r1,$r1,#0x40
    2d1e:	10 10 00 c8 	sbi $r1,[$r0+#0xc8]
    2d22:	00 10 00 cc 	lbi $r1,[$r0+#0xcc]
    2d26:	58 10 80 40 	ori $r1,$r1,#0x40
    2d2a:	10 10 00 cc 	sbi $r1,[$r0+#0xcc]
    2d2e:	84 0e       	movi55 $r0,#0xe
    2d30:	49 00 02 1f 	jal 316e <Efuse_ReadData>
    2d34:	96 26       	bmski33 $r0,#0x4
    2d36:	96 00       	zeb33 $r0,$r0
    2d38:	c0 0f       	beqz38 $r0,2d56 <Chip_Init+0x8e>
    2d3a:	84 0e       	movi55 $r0,#0xe
    2d3c:	49 00 02 19 	jal 316e <Efuse_ReadData>
    2d40:	46 24 00 21 	sethi $r2,#0x40021
    2d44:	96 1f       	fexti33 $r0,#0x3
    2d46:	94 44       	slli333 $r1,$r0,#0x4
    2d48:	02 01 00 3a 	lhi $r0,[$r2+#0x74]
    2d4c:	66 00 00 f0 	bitci $r0,$r0,#0xf0
    2d50:	fe 0f       	or33 $r0,$r1
    2d52:	12 01 00 3a 	shi $r0,[$r2+#0x74]
    2d56:	ec 04       	addi10.sp #0x4
    2d58:	3b ff fc 84 	lmw.bim $sp,[$sp],$sp,#0x2    ! {$lp}
    2d5c:	dd 9e       	ret5 $lp

00002d5e <Chip_MemInit>:
    2d5e:	84 20       	movi55 $r1,#0x0
    2d60:	46 04 00 30 	sethi $r0,#0x40030
    2d64:	14 10 00 1f 	swi $r1,[$r0+#0x7c]
    2d68:	dd 9e       	ret5 $lp

00002d6a <Clock_Config>:
    2d6a:	80 41       	mov55 $r2,$r1
    2d6c:	c0 10       	beqz38 $r0,2d8c <Clock_Config+0x22>
    2d6e:	46 04 00 21 	sethi $r0,#0x40021
    2d72:	04 10 00 1c 	lwi $r1,[$r0+#0x70]
    2d76:	42 10 d0 08 	bset $r1,$r1,#0x14
    2d7a:	14 10 00 1c 	swi $r1,[$r0+#0x70]
    2d7e:	04 10 00 1c 	lwi $r1,[$r0+#0x70]
    2d82:	42 10 d4 08 	bset $r1,$r1,#0x15
    2d86:	14 10 00 1c 	swi $r1,[$r0+#0x70]
    2d8a:	d5 0f       	j8 2da8 <Clock_Config+0x3e>
    2d8c:	46 04 00 21 	sethi $r0,#0x40021
    2d90:	04 10 00 1c 	lwi $r1,[$r0+#0x70]
    2d94:	42 10 d4 09 	bclr $r1,$r1,#0x15
    2d98:	14 10 00 1c 	swi $r1,[$r0+#0x70]
    2d9c:	04 10 00 1c 	lwi $r1,[$r0+#0x70]
    2da0:	42 10 d0 08 	bset $r1,$r1,#0x14
    2da4:	14 10 00 1c 	swi $r1,[$r0+#0x70]
    2da8:	46 04 31 bd 	sethi $r0,#0x431bd
    2dac:	50 00 0e 83 	addi $r0,$r0,#0xe83
    2db0:	42 01 00 69 	mulr64 $r0,$r2,$r0
    2db4:	40 00 b4 09 	srli $r0,$r1,#0xd
    2db8:	8e 01       	subi45 $r0,#0x1
    2dba:	46 14 00 32 	sethi $r1,#0x40032
    2dbe:	a8 09       	swi333 $r0,[$r1+#0x4]
    2dc0:	46 14 00 26 	sethi $r1,#0x40026
    2dc4:	a8 09       	swi333 $r0,[$r1+#0x4]
    2dc6:	40 01 3c 09 	srli $r0,$r2,#0xf
    2dca:	8e 01       	subi45 $r0,#0x1
    2dcc:	46 14 00 21 	sethi $r1,#0x40021
    2dd0:	14 00 80 08 	swi $r0,[$r1+#0x20]
    2dd4:	3c 2f ff f2 	swi.gp $r2,[+#-56]
    2dd8:	dd 9e       	ret5 $lp

00002dda <WaitOscillateWork>:
    2dda:	46 04 00 21 	sethi $r0,#0x40021
    2dde:	04 00 00 1c 	lwi $r0,[$r0+#0x70]
    2de2:	42 00 54 0b 	btst $r0,$r0,#0x15
    2de6:	c0 06       	beqz38 $r0,2df2 <WaitOscillateWork+0x18>
    2de8:	46 04 00 21 	sethi $r0,#0x40021
    2dec:	04 00 00 1e 	lwi $r0,[$r0+#0x78]
    2df0:	c0 fc       	beqz38 $r0,2de8 <WaitOscillateWork+0xe>
    2df2:	dd 9e       	ret5 $lp

00002df4 <Clock_RcFreqGet>:
    2df4:	c8 05       	bnez38 $r0,2dfe <Clock_RcFreqGet+0xa>
    2df6:	3c 0d ff f1 	lwi.gp $r0,[+#-60]
    2dfa:	5a 08 01 4f 	bnec $r0,#0x1,2e98 <Clock_RcFreqGet+0xa4>
    2dfe:	46 04 00 21 	sethi $r0,#0x40021
    2e02:	84 20       	movi55 $r1,#0x0
    2e04:	14 10 00 16 	swi $r1,[$r0+#0x58]
    2e08:	00 10 00 54 	lbi $r1,[$r0+#0x54]
    2e0c:	58 10 80 02 	ori $r1,$r1,#0x2
    2e10:	10 10 00 54 	sbi $r1,[$r0+#0x54]
    2e14:	00 10 00 54 	lbi $r1,[$r0+#0x54]
    2e18:	58 10 80 01 	ori $r1,$r1,#0x1
    2e1c:	10 10 00 54 	sbi $r1,[$r0+#0x54]
    2e20:	04 00 00 09 	lwi $r0,[$r0+#0x24]
    2e24:	96 04       	xlsb33 $r0,$r0
    2e26:	c8 09       	bnez38 $r0,2e38 <Clock_RcFreqGet+0x44>
    2e28:	46 10 00 f4 	sethi $r1,#0xf4
    2e2c:	50 10 82 40 	addi $r1,$r1,#0x240
    2e30:	d5 08       	j8 2e40 <Clock_RcFreqGet+0x4c>
    2e32:	8e 21       	subi45 $r1,#0x1
    2e34:	c9 06       	bnez38 $r1,2e40 <Clock_RcFreqGet+0x4c>
    2e36:	d5 2d       	j8 2e90 <Clock_RcFreqGet+0x9c>
    2e38:	46 10 09 89 	sethi $r1,#0x989
    2e3c:	50 10 86 80 	addi $r1,$r1,#0x680
    2e40:	46 04 00 21 	sethi $r0,#0x40021
    2e44:	04 00 00 17 	lwi $r0,[$r0+#0x5c]
    2e48:	96 04       	xlsb33 $r0,$r0
    2e4a:	c0 f4       	beqz38 $r0,2e32 <Clock_RcFreqGet+0x3e>
    2e4c:	3a 6f a0 bc 	smw.adm $r6,[$sp],$r8,#0x2    ! {$r6~$r8, $lp}
    2e50:	46 64 00 21 	sethi $r6,#0x40021
    2e54:	04 03 00 18 	lwi $r0,[$r6+#0x60]
    2e58:	04 43 00 08 	lwi $r4,[$r6+#0x20]
    2e5c:	04 73 00 19 	lwi $r7,[$r6+#0x64]
    2e60:	3c 1d ff f2 	lwi.gp $r1,[+#-56]
    2e64:	42 00 04 69 	mulr64 $r0,$r0,$r1
    2e68:	8e 20       	subi45 $r1,#0x0
    2e6a:	9c a1       	addi333 $r2,$r4,#0x1
    2e6c:	84 60       	movi55 $r3,#0x0
    2e6e:	49 00 11 41 	jal 50f0 <__divdi3>
    2e72:	9c b9       	addi333 $r2,$r7,#0x1
    2e74:	84 60       	movi55 $r3,#0x0
    2e76:	49 00 11 3d 	jal 50f0 <__divdi3>
    2e7a:	3c 0f ff f1 	swi.gp $r0,[+#-60]
    2e7e:	00 03 00 54 	lbi $r0,[$r6+#0x54]
    2e82:	58 00 00 02 	ori $r0,$r0,#0x2
    2e86:	10 03 00 54 	sbi $r0,[$r6+#0x54]
    2e8a:	3c 0d ff f1 	lwi.gp $r0,[+#-60]
    2e8e:	d5 03       	j8 2e94 <Clock_RcFreqGet+0xa0>
    2e90:	84 00       	movi55 $r0,#0x0
    2e92:	dd 9e       	ret5 $lp
    2e94:	3a 6f a0 84 	lmw.bim $r6,[$sp],$r8,#0x2    ! {$r6~$r8, $lp}
    2e98:	dd 9e       	ret5 $lp

00002e9a <Clock_PllLock>:
    2e9a:	3a 6f 98 bc 	smw.adm $r6,[$sp],$r6,#0x2    ! {$r6, $lp}
    2e9e:	80 c0       	mov55 $r6,$r0
    2ea0:	84 00       	movi55 $r0,#0x0
    2ea2:	3e 07 ff c1 	sbi.gp $r0,[+#-63]
    2ea6:	49 ff ff 9a 	jal 2dda <WaitOscillateWork>
    2eaa:	44 04 65 00 	movi $r0,#0x46500
    2eae:	40 00 18 06 	slt $r0,$r0,$r6
    2eb2:	c0 23       	beqz38 $r0,2ef8 <Clock_PllLock+0x5e>
    2eb4:	84 04       	movi55 $r0,#0x4
    2eb6:	49 00 01 5c 	jal 316e <Efuse_ReadData>
    2eba:	92 03       	srli45 $r0,#0x3
    2ebc:	96 0f       	fexti33 $r0,#0x1
    2ebe:	5a 08 01 09 	bnec $r0,#0x1,2ed0 <Clock_PllLock+0x36>
    2ec2:	44 04 c2 c0 	movi $r0,#0x4c2c0
    2ec6:	40 10 18 06 	slt $r1,$r0,$r6
    2eca:	40 60 04 1b 	cmovn $r6,$r0,$r1
    2ece:	d5 15       	j8 2ef8 <Clock_PllLock+0x5e>
    2ed0:	5a 08 02 09 	bnec $r0,#0x2,2ee2 <Clock_PllLock+0x48>
    2ed4:	44 05 20 80 	movi $r0,#0x52080
    2ed8:	40 10 18 06 	slt $r1,$r0,$r6
    2edc:	40 60 04 1b 	cmovn $r6,$r0,$r1
    2ee0:	d5 0c       	j8 2ef8 <Clock_PllLock+0x5e>
    2ee2:	5a 08 03 09 	bnec $r0,#0x3,2ef4 <Clock_PllLock+0x5a>
    2ee6:	44 05 7e 40 	movi $r0,#0x57e40
    2eea:	40 10 18 06 	slt $r1,$r0,$r6
    2eee:	40 60 04 1b 	cmovn $r6,$r0,$r1
    2ef2:	d5 03       	j8 2ef8 <Clock_PllLock+0x5e>
    2ef4:	44 64 65 00 	movi $r6,#0x46500
    2ef8:	46 14 00 26 	sethi $r1,#0x40026
    2efc:	a4 08       	lhi333 $r0,[$r1+#0x0]
    2efe:	66 00 00 01 	bitci $r0,$r0,#0x1
    2f02:	ac 08       	shi333 $r0,[$r1+#0x0]
    2f04:	84 00       	movi55 $r0,#0x0
    2f06:	14 00 80 12 	swi $r0,[$r1+#0x48]
    2f0a:	84 01       	movi55 $r0,#0x1
    2f0c:	14 00 80 0c 	swi $r0,[$r1+#0x30]
    2f10:	44 30 03 e8 	movi $r3,#0x3e8
    2f14:	fe f4       	mul33 $r3,$r6
    2f16:	a0 89       	lwi333 $r2,[$r1+#0x4]
    2f18:	9c 11       	addi333 $r0,$r2,#0x1
    2f1a:	3c 2d ff f2 	lwi.gp $r2,[+#-56]
    2f1e:	40 21 00 57 	divr $r2,$r2,$r2,$r0
    2f22:	40 21 88 57 	divr $r2,$r2,$r3,$r2
    2f26:	40 21 20 08 	slli $r2,$r2,#0x8
    2f2a:	a8 8a       	swi333 $r2,[$r1+#0x8]
    2f2c:	44 00 04 0b 	movi $r0,#0x40b
    2f30:	a8 0f       	swi333 $r0,[$r1+#0x1c]
    2f32:	a4 08       	lhi333 $r0,[$r1+#0x0]
    2f34:	58 00 00 06 	ori $r0,$r0,#0x6
    2f38:	ac 08       	shi333 $r0,[$r1+#0x0]
    2f3a:	44 00 01 c0 	movi $r0,#0x1c0
    2f3e:	a8 0b       	swi333 $r0,[$r1+#0xc]
    2f40:	44 0c 56 80 	movi $r0,#-240000
    2f44:	98 70       	add333 $r1,$r6,$r0
    2f46:	44 01 d4 c0 	movi $r0,#0x1d4c0
    2f4a:	40 00 04 06 	slt $r0,$r0,$r1
    2f4e:	c8 0a       	bnez38 $r0,2f62 <Clock_PllLock+0xc8>
    2f50:	46 14 00 26 	sethi $r1,#0x40026
    2f54:	a4 08       	lhi333 $r0,[$r1+#0x0]
    2f56:	66 00 0c 00 	bitci $r0,$r0,#0xc00
    2f5a:	58 00 04 00 	ori $r0,$r0,#0x400
    2f5e:	ac 08       	shi333 $r0,[$r1+#0x0]
    2f60:	d5 18       	j8 2f90 <Clock_PllLock+0xf6>
    2f62:	44 0e 2b 40 	movi $r0,#-120000
    2f66:	88 c0       	add45 $r6,$r0
    2f68:	44 01 d4 bf 	movi $r0,#0x1d4bf
    2f6c:	40 60 18 06 	slt $r6,$r0,$r6
    2f70:	ce 08       	bnez38 $r6,2f80 <Clock_PllLock+0xe6>
    2f72:	46 14 00 26 	sethi $r1,#0x40026
    2f76:	a4 08       	lhi333 $r0,[$r1+#0x0]
    2f78:	66 00 0c 00 	bitci $r0,$r0,#0xc00
    2f7c:	ac 08       	shi333 $r0,[$r1+#0x0]
    2f7e:	d5 09       	j8 2f90 <Clock_PllLock+0xf6>
    2f80:	46 14 00 26 	sethi $r1,#0x40026
    2f84:	a4 08       	lhi333 $r0,[$r1+#0x0]
    2f86:	66 00 0c 00 	bitci $r0,$r0,#0xc00
    2f8a:	58 00 08 00 	ori $r0,$r0,#0x800
    2f8e:	ac 08       	shi333 $r0,[$r1+#0x0]
    2f90:	46 14 00 26 	sethi $r1,#0x40026
    2f94:	a4 08       	lhi333 $r0,[$r1+#0x0]
    2f96:	58 00 00 01 	ori $r0,$r0,#0x1
    2f9a:	ac 08       	shi333 $r0,[$r1+#0x0]
    2f9c:	46 04 00 26 	sethi $r0,#0x40026
    2fa0:	04 00 00 0d 	lwi $r0,[$r0+#0x34]
    2fa4:	96 04       	xlsb33 $r0,$r0
    2fa6:	c0 fb       	beqz38 $r0,2f9c <Clock_PllLock+0x102>
    2fa8:	3c 3f ff f4 	swi.gp $r3,[+#-48]
    2fac:	84 01       	movi55 $r0,#0x1
    2fae:	3a 6f 98 84 	lmw.bim $r6,[$sp],$r6,#0x2    ! {$r6, $lp}
    2fb2:	dd 9e       	ret5 $lp

00002fb4 <Clock_SysClkSelect>:
    2fb4:	c8 0b       	bnez38 $r0,2fca <Clock_SysClkSelect+0x16>
    2fb6:	46 14 00 21 	sethi $r1,#0x40021
    2fba:	04 00 80 09 	lwi $r0,[$r1+#0x24]
    2fbe:	66 00 00 01 	bitci $r0,$r0,#0x1
    2fc2:	14 00 80 09 	swi $r0,[$r1+#0x24]
    2fc6:	84 01       	movi55 $r0,#0x1
    2fc8:	dd 9e       	ret5 $lp
    2fca:	5a 08 01 1d 	bnec $r0,#0x1,3004 <Clock_SysClkSelect+0x50>
    2fce:	2e 07 ff c1 	lbi.gp $r0,[+#-63]
    2fd2:	5a 00 01 09 	beqc $r0,#0x1,2fe4 <Clock_SysClkSelect+0x30>
    2fd6:	c8 32       	bnez38 $r0,303a <Clock_SysClkSelect+0x86>
    2fd8:	46 14 00 26 	sethi $r1,#0x40026
    2fdc:	04 10 80 0d 	lwi $r1,[$r1+#0x34]
    2fe0:	96 4c       	xlsb33 $r1,$r1
    2fe2:	c1 2f       	beqz38 $r1,3040 <Clock_SysClkSelect+0x8c>
    2fe4:	46 04 00 21 	sethi $r0,#0x40021
    2fe8:	04 10 00 09 	lwi $r1,[$r0+#0x24]
    2fec:	66 10 80 02 	bitci $r1,$r1,#0x2
    2ff0:	14 10 00 09 	swi $r1,[$r0+#0x24]
    2ff4:	04 10 00 09 	lwi $r1,[$r0+#0x24]
    2ff8:	58 10 80 01 	ori $r1,$r1,#0x1
    2ffc:	14 10 00 09 	swi $r1,[$r0+#0x24]
    3000:	84 01       	movi55 $r0,#0x1
    3002:	dd 9e       	ret5 $lp
    3004:	2e 07 ff c0 	lbi.gp $r0,[+#-64]
    3008:	5a 00 01 09 	beqc $r0,#0x1,301a <Clock_SysClkSelect+0x66>
    300c:	c8 19       	bnez38 $r0,303e <Clock_SysClkSelect+0x8a>
    300e:	46 14 00 32 	sethi $r1,#0x40032
    3012:	04 10 80 0d 	lwi $r1,[$r1+#0x34]
    3016:	96 4c       	xlsb33 $r1,$r1
    3018:	c1 14       	beqz38 $r1,3040 <Clock_SysClkSelect+0x8c>
    301a:	46 04 00 21 	sethi $r0,#0x40021
    301e:	04 10 00 09 	lwi $r1,[$r0+#0x24]
    3022:	58 10 80 02 	ori $r1,$r1,#0x2
    3026:	14 10 00 09 	swi $r1,[$r0+#0x24]
    302a:	04 10 00 09 	lwi $r1,[$r0+#0x24]
    302e:	58 10 80 01 	ori $r1,$r1,#0x1
    3032:	14 10 00 09 	swi $r1,[$r0+#0x24]
    3036:	84 01       	movi55 $r0,#0x1
    3038:	dd 9e       	ret5 $lp
    303a:	84 00       	movi55 $r0,#0x0
    303c:	dd 9e       	ret5 $lp
    303e:	84 00       	movi55 $r0,#0x0
    3040:	dd 9e       	ret5 $lp

00003042 <Clock_UARTClkSelect>:
    3042:	c8 0a       	bnez38 $r0,3056 <Clock_UARTClkSelect+0x14>
    3044:	46 14 00 21 	sethi $r1,#0x40021
    3048:	04 00 80 09 	lwi $r0,[$r1+#0x24]
    304c:	66 00 01 00 	bitci $r0,$r0,#0x100
    3050:	14 00 80 09 	swi $r0,[$r1+#0x24]
    3054:	dd 9e       	ret5 $lp
    3056:	5a 08 01 11 	bnec $r0,#0x1,3078 <Clock_UARTClkSelect+0x36>
    305a:	46 04 00 21 	sethi $r0,#0x40021
    305e:	04 10 00 09 	lwi $r1,[$r0+#0x24]
    3062:	66 10 80 80 	bitci $r1,$r1,#0x80
    3066:	14 10 00 09 	swi $r1,[$r0+#0x24]
    306a:	04 10 00 09 	lwi $r1,[$r0+#0x24]
    306e:	58 10 81 00 	ori $r1,$r1,#0x100
    3072:	14 10 00 09 	swi $r1,[$r0+#0x24]
    3076:	dd 9e       	ret5 $lp
    3078:	5a 08 02 10 	bnec $r0,#0x2,3098 <Clock_UARTClkSelect+0x56>
    307c:	46 04 00 21 	sethi $r0,#0x40021
    3080:	04 10 00 09 	lwi $r1,[$r0+#0x24]
    3084:	58 10 80 80 	ori $r1,$r1,#0x80
    3088:	14 10 00 09 	swi $r1,[$r0+#0x24]
    308c:	04 10 00 09 	lwi $r1,[$r0+#0x24]
    3090:	58 10 81 00 	ori $r1,$r1,#0x100
    3094:	14 10 00 09 	swi $r1,[$r0+#0x24]
    3098:	dd 9e       	ret5 $lp

0000309a <Clock_Module1Enable>:
    309a:	46 24 00 21 	sethi $r2,#0x40021
    309e:	04 11 00 0c 	lwi $r1,[$r2+#0x30]
    30a2:	fe 0f       	or33 $r0,$r1
    30a4:	14 01 00 0c 	swi $r0,[$r2+#0x30]
    30a8:	dd 9e       	ret5 $lp

000030aa <Clock_Module2Enable>:
    30aa:	46 24 00 21 	sethi $r2,#0x40021
    30ae:	04 11 00 0d 	lwi $r1,[$r2+#0x34]
    30b2:	fe 0f       	or33 $r0,$r1
    30b4:	14 01 00 0d 	swi $r0,[$r2+#0x34]
    30b8:	dd 9e       	ret5 $lp

000030ba <Clock_Module3Enable>:
    30ba:	46 24 00 21 	sethi $r2,#0x40021
    30be:	04 11 00 0e 	lwi $r1,[$r2+#0x38]
    30c2:	fe 0f       	or33 $r0,$r1
    30c4:	14 01 00 0e 	swi $r0,[$r2+#0x38]
    30c8:	dd 9e       	ret5 $lp

000030ca <EnableMPU>:
    30ca:	84 00       	movi55 $r0,#0x0
    30cc:	d5 25       	j8 3116 <EnableMPU+0x4c>
    30ce:	fa 2c       	movpi45 $r1,#0x1c
    30d0:	fe 44       	mul33 $r1,$r0
    30d2:	44 20 69 bc 	movi $r2,#0x69bc
    30d6:	38 11 04 02 	lw $r1,[$r2+($r1<<#0x0)]
    30da:	c1 1d       	beqz38 $r1,3114 <EnableMPU+0x4a>
    30dc:	fa 2c       	movpi45 $r1,#0x1c
    30de:	80 62       	mov55 $r3,$r2
    30e0:	42 30 04 73 	maddr32 $r3,$r0,$r1
    30e4:	a1 1b       	lwi333 $r4,[$r3+#0xc]
    30e6:	a0 5c       	lwi333 $r1,[$r3+#0x10]
    30e8:	94 4e       	slli333 $r1,$r1,#0x6
    30ea:	a0 9d       	lwi333 $r2,[$r3+#0x14]
    30ec:	94 94       	slli333 $r2,$r2,#0x4
    30ee:	fe 57       	or33 $r1,$r2
    30f0:	a0 9e       	lwi333 $r2,[$r3+#0x18]
    30f2:	94 91       	slli333 $r2,$r2,#0x1
    30f4:	fe 57       	or33 $r1,$r2
    30f6:	fe 67       	or33 $r1,$r4
    30f8:	58 10 80 01 	ori $r1,$r1,#0x1
    30fc:	64 14 60 03 	mtsr $r1,$tlb_data
    3100:	a0 5a       	lwi333 $r1,[$r3+#0x8]
    3102:	64 14 40 03 	mtsr $r1,$tlb_vpn
    3106:	64 00 00 08 	dsb
    310a:	a0 59       	lwi333 $r1,[$r3+#0x4]
    310c:	64 00 80 2e 	tlbop $r1,targetwrite
    3110:	64 00 00 09 	isb
    3114:	8c 01       	addi45 $r0,#0x1
    3116:	e6 08       	slti45 $r0,#0x8
    3118:	e9 db       	bnezs8 30ce <EnableMPU+0x4>
    311a:	64 02 00 02 	mfsr $r0,$psw
    311e:	58 00 00 c0 	ori $r0,$r0,#0xc0
    3122:	64 02 00 03 	mtsr $r0,$psw
    3126:	64 00 00 09 	isb
    312a:	dd 9e       	ret5 $lp

0000312c <EnableIDCache>:
    312c:	3b ff fc bc 	smw.adm $sp,[$sp],$sp,#0x2    ! {$lp}
    3130:	ef fc       	addi10.sp #-4
    3132:	49 ff ff cc 	jal 30ca <EnableMPU>
    3136:	64 05 00 02 	mfsr $r0,$cache_ctl
    313a:	58 00 00 01 	ori $r0,$r0,#0x1
    313e:	64 05 00 03 	mtsr $r0,$cache_ctl
    3142:	64 00 00 09 	isb
    3146:	64 05 00 02 	mfsr $r0,$cache_ctl
    314a:	58 00 00 02 	ori $r0,$r0,#0x2
    314e:	64 05 00 03 	mtsr $r0,$cache_ctl
    3152:	64 00 00 09 	isb
    3156:	64 04 00 02 	mfsr $r0,$mmu_ctl
    315a:	58 00 00 06 	ori $r0,$r0,#0x6
    315e:	64 04 00 03 	mtsr $r0,$mmu_ctl
    3162:	64 00 00 09 	isb
    3166:	ec 04       	addi10.sp #0x4
    3168:	3b ff fc 84 	lmw.bim $sp,[$sp],$sp,#0x2    ! {$lp}
    316c:	dd 9e       	ret5 $lp

0000316e <Efuse_ReadData>:
    316e:	84 41       	movi55 $r2,#0x1
    3170:	46 14 00 23 	sethi $r1,#0x40023
    3174:	a8 8e       	swi333 $r2,[$r1+#0x18]
    3176:	5c f0 00 3b 	slti $r15,$r0,#0x3b
    317a:	e8 28       	beqzs8 31ca <Efuse_ReadData+0x5c>
    317c:	3a 6f a0 bc 	smw.adm $r6,[$sp],$r8,#0x2    ! {$r6~$r8, $lp}
    3180:	80 c0       	mov55 $r6,$r0
    3182:	46 74 00 23 	sethi $r7,#0x40023
    3186:	a4 3c       	lhi333 $r0,[$r7+#0x8]
    3188:	58 00 20 00 	ori $r0,$r0,#0x2000
    318c:	ac 3c       	shi333 $r0,[$r7+#0x8]
    318e:	84 01       	movi55 $r0,#0x1
    3190:	49 ff f5 34 	jal 1bf8 <__udelay>
    3194:	a4 3c       	lhi333 $r0,[$r7+#0x8]
    3196:	66 00 01 ff 	bitci $r0,$r0,#0x1ff
    319a:	fe 37       	or33 $r0,$r6
    319c:	ac 3c       	shi333 $r0,[$r7+#0x8]
    319e:	a4 3c       	lhi333 $r0,[$r7+#0x8]
    31a0:	58 00 40 00 	ori $r0,$r0,#0x4000
    31a4:	ac 3c       	shi333 $r0,[$r7+#0x8]
    31a6:	a4 3c       	lhi333 $r0,[$r7+#0x8]
    31a8:	66 00 40 00 	bitci $r0,$r0,#0x4000
    31ac:	ac 3c       	shi333 $r0,[$r7+#0x8]
    31ae:	84 01       	movi55 $r0,#0x1
    31b0:	49 ff f5 24 	jal 1bf8 <__udelay>
    31b4:	46 04 00 23 	sethi $r0,#0x40023
    31b8:	a0 04       	lwi333 $r0,[$r0+#0x10]
    31ba:	42 00 04 0b 	btst $r0,$r0,#0x1
    31be:	c0 fb       	beqz38 $r0,31b4 <Efuse_ReadData+0x46>
    31c0:	46 04 00 23 	sethi $r0,#0x40023
    31c4:	a0 03       	lwi333 $r0,[$r0+#0xc]
    31c6:	96 00       	zeb33 $r0,$r0
    31c8:	d5 03       	j8 31ce <Efuse_ReadData+0x60>
    31ca:	84 00       	movi55 $r0,#0x0
    31cc:	dd 9e       	ret5 $lp
    31ce:	3a 6f a0 84 	lmw.bim $r6,[$sp],$r8,#0x2    ! {$r6~$r8, $lp}
    31d2:	dd 9e       	ret5 $lp

000031d4 <GPIO_PortAModeSet>:
    31d4:	3a 6f 98 bc 	smw.adm $r6,[$sp],$r6,#0x2    ! {$r6, $lp}
    31d8:	80 c1       	mov55 $r6,$r1
    31da:	44 10 40 00 	movi $r1,#0x4000
    31de:	4c 00 82 ad 	beq $r0,$r1,3738 <GPIO_PortAModeSet+0x564>
    31e2:	e0 20       	slts45 $r1,$r0
    31e4:	e9 4d       	bnezs8 327e <GPIO_PortAModeSet+0xaa>
    31e6:	5a 08 40 04 	bnec $r0,#0x40,31ee <GPIO_PortAModeSet+0x1a>
    31ea:	48 00 01 14 	j 3412 <GPIO_PortAModeSet+0x23e>
    31ee:	5e f0 00 41 	sltsi $r15,$r0,#0x41
    31f2:	e8 23       	beqzs8 3238 <GPIO_PortAModeSet+0x64>
    31f4:	5a 08 04 04 	bnec $r0,#0x4,31fc <GPIO_PortAModeSet+0x28>
    31f8:	48 00 00 ae 	j 3354 <GPIO_PortAModeSet+0x180>
    31fc:	e4 05       	sltsi45 $r0,#0x5
    31fe:	e8 0f       	beqzs8 321c <GPIO_PortAModeSet+0x48>
    3200:	5a 08 01 04 	bnec $r0,#0x1,3208 <GPIO_PortAModeSet+0x34>
    3204:	48 00 00 8f 	j 3322 <GPIO_PortAModeSet+0x14e>
    3208:	5a 08 02 04 	bnec $r0,#0x2,3210 <GPIO_PortAModeSet+0x3c>
    320c:	48 00 00 97 	j 333a <GPIO_PortAModeSet+0x166>
    3210:	46 18 00 00 	sethi $r1,#0x80000
    3214:	4c 00 c6 22 	bne $r0,$r1,3e58 <GPIO_PortAModeSet+0xc84>
    3218:	48 00 05 ec 	j 3df0 <GPIO_PortAModeSet+0xc1c>
    321c:	5a 08 10 04 	bnec $r0,#0x10,3224 <GPIO_PortAModeSet+0x50>
    3220:	48 00 00 b7 	j 338e <GPIO_PortAModeSet+0x1ba>
    3224:	5a 08 20 04 	bnec $r0,#0x20,322c <GPIO_PortAModeSet+0x58>
    3228:	48 00 00 c2 	j 33ac <GPIO_PortAModeSet+0x1d8>
    322c:	5a 00 08 04 	beqc $r0,#0x8,3234 <GPIO_PortAModeSet+0x60>
    3230:	48 00 06 14 	j 3e58 <GPIO_PortAModeSet+0xc84>
    3234:	48 00 00 9e 	j 3370 <GPIO_PortAModeSet+0x19c>
    3238:	44 10 04 00 	movi $r1,#0x400
    323c:	4c 00 81 b8 	beq $r0,$r1,35ac <GPIO_PortAModeSet+0x3d8>
    3240:	5e f0 04 01 	sltsi $r15,$r0,#0x401
    3244:	e8 0f       	beqzs8 3262 <GPIO_PortAModeSet+0x8e>
    3246:	5a 09 00 04 	bnec $r0,#0x100,324e <GPIO_PortAModeSet+0x7a>
    324a:	48 00 01 52 	j 34ee <GPIO_PortAModeSet+0x31a>
    324e:	5a 0a 00 04 	bnec $r0,#0x200,3256 <GPIO_PortAModeSet+0x82>
    3252:	48 00 01 7d 	j 354c <GPIO_PortAModeSet+0x378>
    3256:	5a 00 80 04 	beqc $r0,#0x80,325e <GPIO_PortAModeSet+0x8a>
    325a:	48 00 05 ff 	j 3e58 <GPIO_PortAModeSet+0xc84>
    325e:	48 00 01 11 	j 3480 <GPIO_PortAModeSet+0x2ac>
    3262:	44 10 10 00 	movi $r1,#0x1000
    3266:	4c 00 82 05 	beq $r0,$r1,3670 <GPIO_PortAModeSet+0x49c>
    326a:	44 10 20 00 	movi $r1,#0x2000
    326e:	4c 00 82 34 	beq $r0,$r1,36d6 <GPIO_PortAModeSet+0x502>
    3272:	44 10 08 00 	movi $r1,#0x800
    3276:	4c 00 c5 f1 	bne $r0,$r1,3e58 <GPIO_PortAModeSet+0xc84>
    327a:	48 00 01 ca 	j 360e <GPIO_PortAModeSet+0x43a>
    327e:	46 10 04 00 	sethi $r1,#0x400
    3282:	4c 00 83 ec 	beq $r0,$r1,3a5a <GPIO_PortAModeSet+0x886>
    3286:	e0 20       	slts45 $r1,$r0
    3288:	e9 23       	bnezs8 32ce <GPIO_PortAModeSet+0xfa>
    328a:	44 14 00 00 	movi $r1,#0x40000
    328e:	4c 00 83 16 	beq $r0,$r1,38ba <GPIO_PortAModeSet+0x6e6>
    3292:	e0 20       	slts45 $r1,$r0
    3294:	e9 0f       	bnezs8 32b2 <GPIO_PortAModeSet+0xde>
    3296:	44 11 00 00 	movi $r1,#0x10000
    329a:	4c 00 82 b1 	beq $r0,$r1,37fc <GPIO_PortAModeSet+0x628>
    329e:	44 12 00 00 	movi $r1,#0x20000
    32a2:	4c 00 82 dc 	beq $r0,$r1,385a <GPIO_PortAModeSet+0x686>
    32a6:	44 10 80 00 	movi $r1,#0x8000
    32aa:	4c 00 c5 d7 	bne $r0,$r1,3e58 <GPIO_PortAModeSet+0xc84>
    32ae:	48 00 02 76 	j 379a <GPIO_PortAModeSet+0x5c6>
    32b2:	46 10 01 00 	sethi $r1,#0x100
    32b6:	4c 00 83 64 	beq $r0,$r1,397e <GPIO_PortAModeSet+0x7aa>
    32ba:	46 10 02 00 	sethi $r1,#0x200
    32be:	4c 00 83 97 	beq $r0,$r1,39ec <GPIO_PortAModeSet+0x818>
    32c2:	46 10 00 80 	sethi $r1,#0x80
    32c6:	4c 00 c5 c9 	bne $r0,$r1,3e58 <GPIO_PortAModeSet+0xc84>
    32ca:	48 00 03 29 	j 391c <GPIO_PortAModeSet+0x748>
    32ce:	46 10 40 00 	sethi $r1,#0x4000
    32d2:	4c 00 84 8a 	beq $r0,$r1,3be6 <GPIO_PortAModeSet+0xa12>
    32d6:	e0 20       	slts45 $r1,$r0
    32d8:	e9 0f       	bnezs8 32f6 <GPIO_PortAModeSet+0x122>
    32da:	46 10 10 00 	sethi $r1,#0x1000
    32de:	4c 00 84 25 	beq $r0,$r1,3b28 <GPIO_PortAModeSet+0x954>
    32e2:	46 10 20 00 	sethi $r1,#0x2000
    32e6:	4c 00 84 50 	beq $r0,$r1,3b86 <GPIO_PortAModeSet+0x9b2>
    32ea:	46 10 08 00 	sethi $r1,#0x800
    32ee:	4c 00 c5 b5 	bne $r0,$r1,3e58 <GPIO_PortAModeSet+0xc84>
    32f2:	48 00 03 eb 	j 3ac8 <GPIO_PortAModeSet+0x8f4>
    32f6:	46 11 00 00 	sethi $r1,#0x10000
    32fa:	4c 00 84 da 	beq $r0,$r1,3cae <GPIO_PortAModeSet+0xada>
    32fe:	e0 20       	slts45 $r1,$r0
    3300:	e9 07       	bnezs8 330e <GPIO_PortAModeSet+0x13a>
    3302:	46 10 80 00 	sethi $r1,#0x8000
    3306:	4c 00 84 a1 	beq $r0,$r1,3c48 <GPIO_PortAModeSet+0xa74>
    330a:	48 00 05 a7 	j 3e58 <GPIO_PortAModeSet+0xc84>
    330e:	46 12 00 00 	sethi $r1,#0x20000
    3312:	4c 00 85 05 	beq $r0,$r1,3d1c <GPIO_PortAModeSet+0xb48>
    3316:	46 14 00 00 	sethi $r1,#0x40000
    331a:	4c 00 85 36 	beq $r0,$r1,3d86 <GPIO_PortAModeSet+0xbb2>
    331e:	48 00 05 9d 	j 3e58 <GPIO_PortAModeSet+0xc84>
    3322:	46 14 00 10 	sethi $r1,#0x40010
    3326:	97 9f       	fexti33 $r6,#0x3
    3328:	04 00 80 3a 	lwi $r0,[$r1+#0xe8]
    332c:	66 00 00 0f 	bitci $r0,$r0,#0xf
    3330:	ff 87       	or33 $r6,$r0
    3332:	14 60 80 3a 	swi $r6,[$r1+#0xe8]
    3336:	48 00 05 91 	j 3e58 <GPIO_PortAModeSet+0xc84>
    333a:	46 14 00 10 	sethi $r1,#0x40010
    333e:	97 9f       	fexti33 $r6,#0x3
    3340:	95 b4       	slli333 $r6,$r6,#0x4
    3342:	04 00 80 3a 	lwi $r0,[$r1+#0xe8]
    3346:	66 00 00 f0 	bitci $r0,$r0,#0xf0
    334a:	fe 37       	or33 $r0,$r6
    334c:	14 00 80 3a 	swi $r0,[$r1+#0xe8]
    3350:	48 00 05 84 	j 3e58 <GPIO_PortAModeSet+0xc84>
    3354:	46 14 00 10 	sethi $r1,#0x40010
    3358:	97 9f       	fexti33 $r6,#0x3
    335a:	40 63 20 08 	slli $r6,$r6,#0x8
    335e:	04 00 80 3a 	lwi $r0,[$r1+#0xe8]
    3362:	66 00 0f 00 	bitci $r0,$r0,#0xf00
    3366:	fe 37       	or33 $r0,$r6
    3368:	14 00 80 3a 	swi $r0,[$r1+#0xe8]
    336c:	48 00 05 76 	j 3e58 <GPIO_PortAModeSet+0xc84>
    3370:	46 14 00 10 	sethi $r1,#0x40010
    3374:	97 9f       	fexti33 $r6,#0x3
    3376:	40 63 30 08 	slli $r6,$r6,#0xc
    337a:	04 20 80 3a 	lwi $r2,[$r1+#0xe8]
    337e:	44 0f 0f ff 	movi $r0,#-61441
    3382:	fe 16       	and33 $r0,$r2
    3384:	fe 37       	or33 $r0,$r6
    3386:	14 00 80 3a 	swi $r0,[$r1+#0xe8]
    338a:	48 00 05 67 	j 3e58 <GPIO_PortAModeSet+0xc84>
    338e:	46 14 00 10 	sethi $r1,#0x40010
    3392:	97 97       	fexti33 $r6,#0x2
    3394:	40 63 40 08 	slli $r6,$r6,#0x10
    3398:	04 20 80 3a 	lwi $r2,[$r1+#0xe8]
    339c:	44 08 ff ff 	movi $r0,#-458753
    33a0:	fe 16       	and33 $r0,$r2
    33a2:	fe 37       	or33 $r0,$r6
    33a4:	14 00 80 3a 	swi $r0,[$r1+#0xe8]
    33a8:	48 00 05 58 	j 3e58 <GPIO_PortAModeSet+0xc84>
    33ac:	fa 30       	movpi45 $r1,#0x20
    33ae:	5a 68 06 1e 	bnec $r6,#0x6,33ea <GPIO_PortAModeSet+0x216>
    33b2:	84 06       	movi55 $r0,#0x6
    33b4:	49 ff f4 18 	jal 1be4 <GPIO_RegOneBitClear>
    33b8:	84 05       	movi55 $r0,#0x5
    33ba:	fa 30       	movpi45 $r1,#0x20
    33bc:	49 ff f4 14 	jal 1be4 <GPIO_RegOneBitClear>
    33c0:	fa 13       	movpi45 $r0,#0x23
    33c2:	fa 30       	movpi45 $r1,#0x20
    33c4:	49 ff f4 10 	jal 1be4 <GPIO_RegOneBitClear>
    33c8:	46 14 00 10 	sethi $r1,#0x40010
    33cc:	04 20 80 3a 	lwi $r2,[$r1+#0xe8]
    33d0:	46 0f f8 ff 	sethi $r0,#0xff8ff
    33d4:	50 00 0f ff 	addi $r0,$r0,#0xfff
    33d8:	fe 16       	and33 $r0,$r2
    33da:	14 00 80 3a 	swi $r0,[$r1+#0xe8]
    33de:	84 07       	movi55 $r0,#0x7
    33e0:	fa 30       	movpi45 $r1,#0x20
    33e2:	49 ff f3 f9 	jal 1bd4 <GPIO_RegOneBitSet>
    33e6:	48 00 05 39 	j 3e58 <GPIO_PortAModeSet+0xc84>
    33ea:	84 07       	movi55 $r0,#0x7
    33ec:	49 ff f3 fc 	jal 1be4 <GPIO_RegOneBitClear>
    33f0:	46 14 00 10 	sethi $r1,#0x40010
    33f4:	97 97       	fexti33 $r6,#0x2
    33f6:	40 63 50 08 	slli $r6,$r6,#0x14
    33fa:	04 20 80 3a 	lwi $r2,[$r1+#0xe8]
    33fe:	46 0f f8 ff 	sethi $r0,#0xff8ff
    3402:	50 00 0f ff 	addi $r0,$r0,#0xfff
    3406:	fe 16       	and33 $r0,$r2
    3408:	fe 37       	or33 $r0,$r6
    340a:	14 00 80 3a 	swi $r0,[$r1+#0xe8]
    340e:	48 00 05 25 	j 3e58 <GPIO_PortAModeSet+0xc84>
    3412:	44 10 00 40 	movi $r1,#0x40
    3416:	5a 68 06 21 	bnec $r6,#0x6,3458 <GPIO_PortAModeSet+0x284>
    341a:	84 06       	movi55 $r0,#0x6
    341c:	49 ff f3 e4 	jal 1be4 <GPIO_RegOneBitClear>
    3420:	84 05       	movi55 $r0,#0x5
    3422:	44 10 00 40 	movi $r1,#0x40
    3426:	49 ff f3 df 	jal 1be4 <GPIO_RegOneBitClear>
    342a:	fa 13       	movpi45 $r0,#0x23
    342c:	44 10 00 40 	movi $r1,#0x40
    3430:	49 ff f3 da 	jal 1be4 <GPIO_RegOneBitClear>
    3434:	46 14 00 10 	sethi $r1,#0x40010
    3438:	04 20 80 3a 	lwi $r2,[$r1+#0xe8]
    343c:	46 0f 8f ff 	sethi $r0,#0xf8fff
    3440:	50 00 0f ff 	addi $r0,$r0,#0xfff
    3444:	fe 16       	and33 $r0,$r2
    3446:	14 00 80 3a 	swi $r0,[$r1+#0xe8]
    344a:	84 07       	movi55 $r0,#0x7
    344c:	44 10 00 40 	movi $r1,#0x40
    3450:	49 ff f3 c2 	jal 1bd4 <GPIO_RegOneBitSet>
    3454:	48 00 05 02 	j 3e58 <GPIO_PortAModeSet+0xc84>
    3458:	84 07       	movi55 $r0,#0x7
    345a:	49 ff f3 c5 	jal 1be4 <GPIO_RegOneBitClear>
    345e:	46 14 00 10 	sethi $r1,#0x40010
    3462:	97 97       	fexti33 $r6,#0x2
    3464:	40 63 60 08 	slli $r6,$r6,#0x18
    3468:	04 20 80 3a 	lwi $r2,[$r1+#0xe8]
    346c:	46 0f 8f ff 	sethi $r0,#0xf8fff
    3470:	50 00 0f ff 	addi $r0,$r0,#0xfff
    3474:	fe 16       	and33 $r0,$r2
    3476:	fe 37       	or33 $r0,$r6
    3478:	14 00 80 3a 	swi $r0,[$r1+#0xe8]
    347c:	48 00 04 ee 	j 3e58 <GPIO_PortAModeSet+0xc84>
    3480:	44 10 00 80 	movi $r1,#0x80
    3484:	5a 68 06 21 	bnec $r6,#0x6,34c6 <GPIO_PortAModeSet+0x2f2>
    3488:	84 06       	movi55 $r0,#0x6
    348a:	49 ff f3 ad 	jal 1be4 <GPIO_RegOneBitClear>
    348e:	84 05       	movi55 $r0,#0x5
    3490:	44 10 00 80 	movi $r1,#0x80
    3494:	49 ff f3 a8 	jal 1be4 <GPIO_RegOneBitClear>
    3498:	fa 13       	movpi45 $r0,#0x23
    349a:	44 10 00 80 	movi $r1,#0x80
    349e:	49 ff f3 a3 	jal 1be4 <GPIO_RegOneBitClear>
    34a2:	46 14 00 10 	sethi $r1,#0x40010
    34a6:	04 20 80 3a 	lwi $r2,[$r1+#0xe8]
    34aa:	46 08 ff ff 	sethi $r0,#0x8ffff
    34ae:	50 00 0f ff 	addi $r0,$r0,#0xfff
    34b2:	fe 16       	and33 $r0,$r2
    34b4:	14 00 80 3a 	swi $r0,[$r1+#0xe8]
    34b8:	84 07       	movi55 $r0,#0x7
    34ba:	44 10 00 80 	movi $r1,#0x80
    34be:	49 ff f3 8b 	jal 1bd4 <GPIO_RegOneBitSet>
    34c2:	48 00 04 cb 	j 3e58 <GPIO_PortAModeSet+0xc84>
    34c6:	84 07       	movi55 $r0,#0x7
    34c8:	49 ff f3 8e 	jal 1be4 <GPIO_RegOneBitClear>
    34cc:	46 14 00 10 	sethi $r1,#0x40010
    34d0:	97 97       	fexti33 $r6,#0x2
    34d2:	40 63 70 08 	slli $r6,$r6,#0x1c
    34d6:	04 20 80 3a 	lwi $r2,[$r1+#0xe8]
    34da:	46 08 ff ff 	sethi $r0,#0x8ffff
    34de:	50 00 0f ff 	addi $r0,$r0,#0xfff
    34e2:	fe 16       	and33 $r0,$r2
    34e4:	fe 37       	or33 $r0,$r6
    34e6:	14 00 80 3a 	swi $r0,[$r1+#0xe8]
    34ea:	48 00 04 b7 	j 3e58 <GPIO_PortAModeSet+0xc84>
    34ee:	44 10 01 00 	movi $r1,#0x100
    34f2:	5a 68 05 1e 	bnec $r6,#0x5,352e <GPIO_PortAModeSet+0x35a>
    34f6:	84 06       	movi55 $r0,#0x6
    34f8:	49 ff f3 76 	jal 1be4 <GPIO_RegOneBitClear>
    34fc:	84 05       	movi55 $r0,#0x5
    34fe:	44 10 01 00 	movi $r1,#0x100
    3502:	49 ff f3 71 	jal 1be4 <GPIO_RegOneBitClear>
    3506:	fa 13       	movpi45 $r0,#0x23
    3508:	44 10 01 00 	movi $r1,#0x100
    350c:	49 ff f3 6c 	jal 1be4 <GPIO_RegOneBitClear>
    3510:	46 14 00 10 	sethi $r1,#0x40010
    3514:	04 00 80 3b 	lwi $r0,[$r1+#0xec]
    3518:	66 00 00 07 	bitci $r0,$r0,#0x7
    351c:	14 00 80 3b 	swi $r0,[$r1+#0xec]
    3520:	84 07       	movi55 $r0,#0x7
    3522:	44 10 01 00 	movi $r1,#0x100
    3526:	49 ff f3 57 	jal 1bd4 <GPIO_RegOneBitSet>
    352a:	48 00 04 97 	j 3e58 <GPIO_PortAModeSet+0xc84>
    352e:	84 07       	movi55 $r0,#0x7
    3530:	49 ff f3 5a 	jal 1be4 <GPIO_RegOneBitClear>
    3534:	46 14 00 10 	sethi $r1,#0x40010
    3538:	97 97       	fexti33 $r6,#0x2
    353a:	04 00 80 3b 	lwi $r0,[$r1+#0xec]
    353e:	66 00 00 07 	bitci $r0,$r0,#0x7
    3542:	ff 87       	or33 $r6,$r0
    3544:	14 60 80 3b 	swi $r6,[$r1+#0xec]
    3548:	48 00 04 88 	j 3e58 <GPIO_PortAModeSet+0xc84>
    354c:	44 10 02 00 	movi $r1,#0x200
    3550:	5a 68 05 1e 	bnec $r6,#0x5,358c <GPIO_PortAModeSet+0x3b8>
    3554:	84 06       	movi55 $r0,#0x6
    3556:	49 ff f3 47 	jal 1be4 <GPIO_RegOneBitClear>
    355a:	84 05       	movi55 $r0,#0x5
    355c:	44 10 02 00 	movi $r1,#0x200
    3560:	49 ff f3 42 	jal 1be4 <GPIO_RegOneBitClear>
    3564:	fa 13       	movpi45 $r0,#0x23
    3566:	44 10 02 00 	movi $r1,#0x200
    356a:	49 ff f3 3d 	jal 1be4 <GPIO_RegOneBitClear>
    356e:	46 14 00 10 	sethi $r1,#0x40010
    3572:	04 00 80 3b 	lwi $r0,[$r1+#0xec]
    3576:	66 00 00 70 	bitci $r0,$r0,#0x70
    357a:	14 00 80 3b 	swi $r0,[$r1+#0xec]
    357e:	84 07       	movi55 $r0,#0x7
    3580:	44 10 02 00 	movi $r1,#0x200
    3584:	49 ff f3 28 	jal 1bd4 <GPIO_RegOneBitSet>
    3588:	48 00 04 68 	j 3e58 <GPIO_PortAModeSet+0xc84>
    358c:	84 07       	movi55 $r0,#0x7
    358e:	49 ff f3 2b 	jal 1be4 <GPIO_RegOneBitClear>
    3592:	46 14 00 10 	sethi $r1,#0x40010
    3596:	97 97       	fexti33 $r6,#0x2
    3598:	95 b4       	slli333 $r6,$r6,#0x4
    359a:	04 00 80 3b 	lwi $r0,[$r1+#0xec]
    359e:	66 00 00 70 	bitci $r0,$r0,#0x70
    35a2:	fe 37       	or33 $r0,$r6
    35a4:	14 00 80 3b 	swi $r0,[$r1+#0xec]
    35a8:	48 00 04 58 	j 3e58 <GPIO_PortAModeSet+0xc84>
    35ac:	44 10 04 00 	movi $r1,#0x400
    35b0:	5a 68 06 1e 	bnec $r6,#0x6,35ec <GPIO_PortAModeSet+0x418>
    35b4:	84 06       	movi55 $r0,#0x6
    35b6:	49 ff f3 17 	jal 1be4 <GPIO_RegOneBitClear>
    35ba:	84 05       	movi55 $r0,#0x5
    35bc:	44 10 04 00 	movi $r1,#0x400
    35c0:	49 ff f3 12 	jal 1be4 <GPIO_RegOneBitClear>
    35c4:	fa 13       	movpi45 $r0,#0x23
    35c6:	44 10 04 00 	movi $r1,#0x400
    35ca:	49 ff f3 0d 	jal 1be4 <GPIO_RegOneBitClear>
    35ce:	46 14 00 10 	sethi $r1,#0x40010
    35d2:	04 00 80 3b 	lwi $r0,[$r1+#0xec]
    35d6:	66 00 07 00 	bitci $r0,$r0,#0x700
    35da:	14 00 80 3b 	swi $r0,[$r1+#0xec]
    35de:	84 07       	movi55 $r0,#0x7
    35e0:	44 10 04 00 	movi $r1,#0x400
    35e4:	49 ff f2 f8 	jal 1bd4 <GPIO_RegOneBitSet>
    35e8:	48 00 04 38 	j 3e58 <GPIO_PortAModeSet+0xc84>
    35ec:	84 07       	movi55 $r0,#0x7
    35ee:	49 ff f2 fb 	jal 1be4 <GPIO_RegOneBitClear>
    35f2:	46 14 00 10 	sethi $r1,#0x40010
    35f6:	97 97       	fexti33 $r6,#0x2
    35f8:	40 63 20 08 	slli $r6,$r6,#0x8
    35fc:	04 00 80 3b 	lwi $r0,[$r1+#0xec]
    3600:	66 00 07 00 	bitci $r0,$r0,#0x700
    3604:	fe 37       	or33 $r0,$r6
    3606:	14 00 80 3b 	swi $r0,[$r1+#0xec]
    360a:	48 00 04 27 	j 3e58 <GPIO_PortAModeSet+0xc84>
    360e:	44 10 08 00 	movi $r1,#0x800
    3612:	5a 68 06 1e 	bnec $r6,#0x6,364e <GPIO_PortAModeSet+0x47a>
    3616:	84 06       	movi55 $r0,#0x6
    3618:	49 ff f2 e6 	jal 1be4 <GPIO_RegOneBitClear>
    361c:	84 05       	movi55 $r0,#0x5
    361e:	44 10 08 00 	movi $r1,#0x800
    3622:	49 ff f2 e1 	jal 1be4 <GPIO_RegOneBitClear>
    3626:	fa 13       	movpi45 $r0,#0x23
    3628:	44 10 08 00 	movi $r1,#0x800
    362c:	49 ff f2 dc 	jal 1be4 <GPIO_RegOneBitClear>
    3630:	46 14 00 10 	sethi $r1,#0x40010
    3634:	04 00 80 3b 	lwi $r0,[$r1+#0xec]
    3638:	66 00 70 00 	bitci $r0,$r0,#0x7000
    363c:	14 00 80 3b 	swi $r0,[$r1+#0xec]
    3640:	84 07       	movi55 $r0,#0x7
    3642:	44 10 08 00 	movi $r1,#0x800
    3646:	49 ff f2 c7 	jal 1bd4 <GPIO_RegOneBitSet>
    364a:	48 00 04 07 	j 3e58 <GPIO_PortAModeSet+0xc84>
    364e:	84 07       	movi55 $r0,#0x7
    3650:	49 ff f2 ca 	jal 1be4 <GPIO_RegOneBitClear>
    3654:	46 14 00 10 	sethi $r1,#0x40010
    3658:	97 97       	fexti33 $r6,#0x2
    365a:	40 63 30 08 	slli $r6,$r6,#0xc
    365e:	04 00 80 3b 	lwi $r0,[$r1+#0xec]
    3662:	66 00 70 00 	bitci $r0,$r0,#0x7000
    3666:	fe 37       	or33 $r0,$r6
    3668:	14 00 80 3b 	swi $r0,[$r1+#0xec]
    366c:	48 00 03 f6 	j 3e58 <GPIO_PortAModeSet+0xc84>
    3670:	44 10 10 00 	movi $r1,#0x1000
    3674:	5a 68 03 1f 	bnec $r6,#0x3,36b2 <GPIO_PortAModeSet+0x4de>
    3678:	84 06       	movi55 $r0,#0x6
    367a:	49 ff f2 b5 	jal 1be4 <GPIO_RegOneBitClear>
    367e:	84 05       	movi55 $r0,#0x5
    3680:	44 10 10 00 	movi $r1,#0x1000
    3684:	49 ff f2 b0 	jal 1be4 <GPIO_RegOneBitClear>
    3688:	fa 13       	movpi45 $r0,#0x23
    368a:	44 10 10 00 	movi $r1,#0x1000
    368e:	49 ff f2 ab 	jal 1be4 <GPIO_RegOneBitClear>
    3692:	46 14 00 10 	sethi $r1,#0x40010
    3696:	04 20 80 3b 	lwi $r2,[$r1+#0xec]
    369a:	44 0c ff ff 	movi $r0,#-196609
    369e:	fe 16       	and33 $r0,$r2
    36a0:	14 00 80 3b 	swi $r0,[$r1+#0xec]
    36a4:	84 07       	movi55 $r0,#0x7
    36a6:	44 10 10 00 	movi $r1,#0x1000
    36aa:	49 ff f2 95 	jal 1bd4 <GPIO_RegOneBitSet>
    36ae:	48 00 03 d5 	j 3e58 <GPIO_PortAModeSet+0xc84>
    36b2:	84 07       	movi55 $r0,#0x7
    36b4:	49 ff f2 98 	jal 1be4 <GPIO_RegOneBitClear>
    36b8:	46 14 00 10 	sethi $r1,#0x40010
    36bc:	97 8f       	fexti33 $r6,#0x1
    36be:	40 63 40 08 	slli $r6,$r6,#0x10
    36c2:	04 20 80 3b 	lwi $r2,[$r1+#0xec]
    36c6:	44 0c ff ff 	movi $r0,#-196609
    36ca:	fe 16       	and33 $r0,$r2
    36cc:	fe 37       	or33 $r0,$r6
    36ce:	14 00 80 3b 	swi $r0,[$r1+#0xec]
    36d2:	48 00 03 c3 	j 3e58 <GPIO_PortAModeSet+0xc84>
    36d6:	44 10 20 00 	movi $r1,#0x2000
    36da:	5a 68 02 1e 	bnec $r6,#0x2,3716 <GPIO_PortAModeSet+0x542>
    36de:	84 06       	movi55 $r0,#0x6
    36e0:	49 ff f2 82 	jal 1be4 <GPIO_RegOneBitClear>
    36e4:	84 05       	movi55 $r0,#0x5
    36e6:	44 10 20 00 	movi $r1,#0x2000
    36ea:	49 ff f2 7d 	jal 1be4 <GPIO_RegOneBitClear>
    36ee:	fa 13       	movpi45 $r0,#0x23
    36f0:	44 10 20 00 	movi $r1,#0x2000
    36f4:	49 ff f2 78 	jal 1be4 <GPIO_RegOneBitClear>
    36f8:	46 14 00 10 	sethi $r1,#0x40010
    36fc:	04 00 80 3b 	lwi $r0,[$r1+#0xec]
    3700:	42 00 50 09 	bclr $r0,$r0,#0x14
    3704:	14 00 80 3b 	swi $r0,[$r1+#0xec]
    3708:	84 07       	movi55 $r0,#0x7
    370a:	44 10 20 00 	movi $r1,#0x2000
    370e:	49 ff f2 63 	jal 1bd4 <GPIO_RegOneBitSet>
    3712:	48 00 03 a3 	j 3e58 <GPIO_PortAModeSet+0xc84>
    3716:	84 07       	movi55 $r0,#0x7
    3718:	49 ff f2 66 	jal 1be4 <GPIO_RegOneBitClear>
    371c:	46 14 00 10 	sethi $r1,#0x40010
    3720:	97 b4       	xlsb33 $r6,$r6
    3722:	40 63 50 08 	slli $r6,$r6,#0x14
    3726:	04 00 80 3b 	lwi $r0,[$r1+#0xec]
    372a:	42 00 50 09 	bclr $r0,$r0,#0x14
    372e:	fe 37       	or33 $r0,$r6
    3730:	14 00 80 3b 	swi $r0,[$r1+#0xec]
    3734:	48 00 03 92 	j 3e58 <GPIO_PortAModeSet+0xc84>
    3738:	44 10 40 00 	movi $r1,#0x4000
    373c:	5a 68 02 1e 	bnec $r6,#0x2,3778 <GPIO_PortAModeSet+0x5a4>
    3740:	84 06       	movi55 $r0,#0x6
    3742:	49 ff f2 51 	jal 1be4 <GPIO_RegOneBitClear>
    3746:	84 05       	movi55 $r0,#0x5
    3748:	44 10 40 00 	movi $r1,#0x4000
    374c:	49 ff f2 4c 	jal 1be4 <GPIO_RegOneBitClear>
    3750:	fa 13       	movpi45 $r0,#0x23
    3752:	44 10 40 00 	movi $r1,#0x4000
    3756:	49 ff f2 47 	jal 1be4 <GPIO_RegOneBitClear>
    375a:	46 14 00 10 	sethi $r1,#0x40010
    375e:	04 00 80 3b 	lwi $r0,[$r1+#0xec]
    3762:	42 00 60 09 	bclr $r0,$r0,#0x18
    3766:	14 00 80 3b 	swi $r0,[$r1+#0xec]
    376a:	84 07       	movi55 $r0,#0x7
    376c:	44 10 40 00 	movi $r1,#0x4000
    3770:	49 ff f2 32 	jal 1bd4 <GPIO_RegOneBitSet>
    3774:	48 00 03 72 	j 3e58 <GPIO_PortAModeSet+0xc84>
    3778:	84 07       	movi55 $r0,#0x7
    377a:	49 ff f2 35 	jal 1be4 <GPIO_RegOneBitClear>
    377e:	46 14 00 10 	sethi $r1,#0x40010
    3782:	97 b4       	xlsb33 $r6,$r6
    3784:	40 63 60 08 	slli $r6,$r6,#0x18
    3788:	04 00 80 3b 	lwi $r0,[$r1+#0xec]
    378c:	42 00 60 09 	bclr $r0,$r0,#0x18
    3790:	fe 37       	or33 $r0,$r6
    3792:	14 00 80 3b 	swi $r0,[$r1+#0xec]
    3796:	48 00 03 61 	j 3e58 <GPIO_PortAModeSet+0xc84>
    379a:	44 10 80 00 	movi $r1,#0x8000
    379e:	5a 68 02 1e 	bnec $r6,#0x2,37da <GPIO_PortAModeSet+0x606>
    37a2:	84 06       	movi55 $r0,#0x6
    37a4:	49 ff f2 20 	jal 1be4 <GPIO_RegOneBitClear>
    37a8:	84 05       	movi55 $r0,#0x5
    37aa:	44 10 80 00 	movi $r1,#0x8000
    37ae:	49 ff f2 1b 	jal 1be4 <GPIO_RegOneBitClear>
    37b2:	fa 13       	movpi45 $r0,#0x23
    37b4:	44 10 80 00 	movi $r1,#0x8000
    37b8:	49 ff f2 16 	jal 1be4 <GPIO_RegOneBitClear>
    37bc:	46 14 00 10 	sethi $r1,#0x40010
    37c0:	04 00 80 3b 	lwi $r0,[$r1+#0xec]
    37c4:	42 00 70 09 	bclr $r0,$r0,#0x1c
    37c8:	14 00 80 3b 	swi $r0,[$r1+#0xec]
    37cc:	84 07       	movi55 $r0,#0x7
    37ce:	44 10 80 00 	movi $r1,#0x8000
    37d2:	49 ff f2 01 	jal 1bd4 <GPIO_RegOneBitSet>
    37d6:	48 00 03 41 	j 3e58 <GPIO_PortAModeSet+0xc84>
    37da:	84 07       	movi55 $r0,#0x7
    37dc:	49 ff f2 04 	jal 1be4 <GPIO_RegOneBitClear>
    37e0:	46 14 00 10 	sethi $r1,#0x40010
    37e4:	97 b4       	xlsb33 $r6,$r6
    37e6:	40 63 70 08 	slli $r6,$r6,#0x1c
    37ea:	04 00 80 3b 	lwi $r0,[$r1+#0xec]
    37ee:	42 00 70 09 	bclr $r0,$r0,#0x1c
    37f2:	fe 37       	or33 $r0,$r6
    37f4:	14 00 80 3b 	swi $r0,[$r1+#0xec]
    37f8:	48 00 03 30 	j 3e58 <GPIO_PortAModeSet+0xc84>
    37fc:	44 11 00 00 	movi $r1,#0x10000
    3800:	5a 68 03 1e 	bnec $r6,#0x3,383c <GPIO_PortAModeSet+0x668>
    3804:	84 06       	movi55 $r0,#0x6
    3806:	49 ff f1 ef 	jal 1be4 <GPIO_RegOneBitClear>
    380a:	84 05       	movi55 $r0,#0x5
    380c:	44 11 00 00 	movi $r1,#0x10000
    3810:	49 ff f1 ea 	jal 1be4 <GPIO_RegOneBitClear>
    3814:	fa 14       	movpi45 $r0,#0x24
    3816:	44 11 00 00 	movi $r1,#0x10000
    381a:	49 ff f1 e5 	jal 1be4 <GPIO_RegOneBitClear>
    381e:	46 14 00 10 	sethi $r1,#0x40010
    3822:	04 00 80 3c 	lwi $r0,[$r1+#0xf0]
    3826:	66 00 00 03 	bitci $r0,$r0,#0x3
    382a:	14 00 80 3c 	swi $r0,[$r1+#0xf0]
    382e:	84 07       	movi55 $r0,#0x7
    3830:	44 11 00 00 	movi $r1,#0x10000
    3834:	49 ff f1 d0 	jal 1bd4 <GPIO_RegOneBitSet>
    3838:	48 00 03 10 	j 3e58 <GPIO_PortAModeSet+0xc84>
    383c:	84 07       	movi55 $r0,#0x7
    383e:	49 ff f1 d3 	jal 1be4 <GPIO_RegOneBitClear>
    3842:	46 14 00 10 	sethi $r1,#0x40010
    3846:	97 8f       	fexti33 $r6,#0x1
    3848:	04 00 80 3c 	lwi $r0,[$r1+#0xf0]
    384c:	66 00 00 03 	bitci $r0,$r0,#0x3
    3850:	ff 87       	or33 $r6,$r0
    3852:	14 60 80 3c 	swi $r6,[$r1+#0xf0]
    3856:	48 00 03 01 	j 3e58 <GPIO_PortAModeSet+0xc84>
    385a:	44 12 00 00 	movi $r1,#0x20000
    385e:	5a 68 05 1e 	bnec $r6,#0x5,389a <GPIO_PortAModeSet+0x6c6>
    3862:	84 06       	movi55 $r0,#0x6
    3864:	49 ff f1 c0 	jal 1be4 <GPIO_RegOneBitClear>
    3868:	84 05       	movi55 $r0,#0x5
    386a:	44 12 00 00 	movi $r1,#0x20000
    386e:	49 ff f1 bb 	jal 1be4 <GPIO_RegOneBitClear>
    3872:	fa 14       	movpi45 $r0,#0x24
    3874:	44 12 00 00 	movi $r1,#0x20000
    3878:	49 ff f1 b6 	jal 1be4 <GPIO_RegOneBitClear>
    387c:	46 14 00 10 	sethi $r1,#0x40010
    3880:	04 00 80 3c 	lwi $r0,[$r1+#0xf0]
    3884:	66 00 00 70 	bitci $r0,$r0,#0x70
    3888:	14 00 80 3c 	swi $r0,[$r1+#0xf0]
    388c:	84 07       	movi55 $r0,#0x7
    388e:	44 12 00 00 	movi $r1,#0x20000
    3892:	49 ff f1 a1 	jal 1bd4 <GPIO_RegOneBitSet>
    3896:	48 00 02 e1 	j 3e58 <GPIO_PortAModeSet+0xc84>
    389a:	84 07       	movi55 $r0,#0x7
    389c:	49 ff f1 a4 	jal 1be4 <GPIO_RegOneBitClear>
    38a0:	46 14 00 10 	sethi $r1,#0x40010
    38a4:	97 97       	fexti33 $r6,#0x2
    38a6:	95 b4       	slli333 $r6,$r6,#0x4
    38a8:	04 00 80 3c 	lwi $r0,[$r1+#0xf0]
    38ac:	66 00 00 70 	bitci $r0,$r0,#0x70
    38b0:	fe 37       	or33 $r0,$r6
    38b2:	14 00 80 3c 	swi $r0,[$r1+#0xf0]
    38b6:	48 00 02 d1 	j 3e58 <GPIO_PortAModeSet+0xc84>
    38ba:	44 14 00 00 	movi $r1,#0x40000
    38be:	5a 68 04 1e 	bnec $r6,#0x4,38fa <GPIO_PortAModeSet+0x726>
    38c2:	84 06       	movi55 $r0,#0x6
    38c4:	49 ff f1 90 	jal 1be4 <GPIO_RegOneBitClear>
    38c8:	84 05       	movi55 $r0,#0x5
    38ca:	44 14 00 00 	movi $r1,#0x40000
    38ce:	49 ff f1 8b 	jal 1be4 <GPIO_RegOneBitClear>
    38d2:	fa 14       	movpi45 $r0,#0x24
    38d4:	44 14 00 00 	movi $r1,#0x40000
    38d8:	49 ff f1 86 	jal 1be4 <GPIO_RegOneBitClear>
    38dc:	46 14 00 10 	sethi $r1,#0x40010
    38e0:	04 00 80 3c 	lwi $r0,[$r1+#0xf0]
    38e4:	66 00 03 00 	bitci $r0,$r0,#0x300
    38e8:	14 00 80 3c 	swi $r0,[$r1+#0xf0]
    38ec:	84 07       	movi55 $r0,#0x7
    38ee:	44 14 00 00 	movi $r1,#0x40000
    38f2:	49 ff f1 71 	jal 1bd4 <GPIO_RegOneBitSet>
    38f6:	48 00 02 b1 	j 3e58 <GPIO_PortAModeSet+0xc84>
    38fa:	84 07       	movi55 $r0,#0x7
    38fc:	49 ff f1 74 	jal 1be4 <GPIO_RegOneBitClear>
    3900:	46 14 00 10 	sethi $r1,#0x40010
    3904:	97 8f       	fexti33 $r6,#0x1
    3906:	40 63 20 08 	slli $r6,$r6,#0x8
    390a:	04 00 80 3c 	lwi $r0,[$r1+#0xf0]
    390e:	66 00 03 00 	bitci $r0,$r0,#0x300
    3912:	fe 37       	or33 $r0,$r6
    3914:	14 00 80 3c 	swi $r0,[$r1+#0xf0]
    3918:	48 00 02 a0 	j 3e58 <GPIO_PortAModeSet+0xc84>
    391c:	46 10 00 80 	sethi $r1,#0x80
    3920:	5a 68 04 1e 	bnec $r6,#0x4,395c <GPIO_PortAModeSet+0x788>
    3924:	84 06       	movi55 $r0,#0x6
    3926:	49 ff f1 5f 	jal 1be4 <GPIO_RegOneBitClear>
    392a:	84 05       	movi55 $r0,#0x5
    392c:	46 10 00 80 	sethi $r1,#0x80
    3930:	49 ff f1 5a 	jal 1be4 <GPIO_RegOneBitClear>
    3934:	fa 14       	movpi45 $r0,#0x24
    3936:	46 10 00 80 	sethi $r1,#0x80
    393a:	49 ff f1 55 	jal 1be4 <GPIO_RegOneBitClear>
    393e:	46 14 00 10 	sethi $r1,#0x40010
    3942:	04 00 80 3c 	lwi $r0,[$r1+#0xf0]
    3946:	66 00 30 00 	bitci $r0,$r0,#0x3000
    394a:	14 00 80 3c 	swi $r0,[$r1+#0xf0]
    394e:	84 07       	movi55 $r0,#0x7
    3950:	46 10 00 80 	sethi $r1,#0x80
    3954:	49 ff f1 40 	jal 1bd4 <GPIO_RegOneBitSet>
    3958:	48 00 02 80 	j 3e58 <GPIO_PortAModeSet+0xc84>
    395c:	84 07       	movi55 $r0,#0x7
    395e:	49 ff f1 43 	jal 1be4 <GPIO_RegOneBitClear>
    3962:	46 14 00 10 	sethi $r1,#0x40010
    3966:	97 8f       	fexti33 $r6,#0x1
    3968:	40 63 30 08 	slli $r6,$r6,#0xc
    396c:	04 00 80 3c 	lwi $r0,[$r1+#0xf0]
    3970:	66 00 30 00 	bitci $r0,$r0,#0x3000
    3974:	fe 37       	or33 $r0,$r6
    3976:	14 00 80 3c 	swi $r0,[$r1+#0xf0]
    397a:	48 00 02 6f 	j 3e58 <GPIO_PortAModeSet+0xc84>
    397e:	46 10 01 00 	sethi $r1,#0x100
    3982:	5a 68 0f 21 	bnec $r6,#0xf,39c4 <GPIO_PortAModeSet+0x7f0>
    3986:	84 06       	movi55 $r0,#0x6
    3988:	49 ff f1 2e 	jal 1be4 <GPIO_RegOneBitClear>
    398c:	84 05       	movi55 $r0,#0x5
    398e:	46 10 01 00 	sethi $r1,#0x100
    3992:	49 ff f1 29 	jal 1be4 <GPIO_RegOneBitClear>
    3996:	fa 14       	movpi45 $r0,#0x24
    3998:	46 10 01 00 	sethi $r1,#0x100
    399c:	49 ff f1 24 	jal 1be4 <GPIO_RegOneBitClear>
    39a0:	46 14 00 10 	sethi $r1,#0x40010
    39a4:	04 20 80 3c 	lwi $r2,[$r1+#0xf0]
    39a8:	46 0f ff 0f 	sethi $r0,#0xfff0f
    39ac:	50 00 0f ff 	addi $r0,$r0,#0xfff
    39b0:	fe 16       	and33 $r0,$r2
    39b2:	14 00 80 3c 	swi $r0,[$r1+#0xf0]
    39b6:	84 07       	movi55 $r0,#0x7
    39b8:	46 10 01 00 	sethi $r1,#0x100
    39bc:	49 ff f1 0c 	jal 1bd4 <GPIO_RegOneBitSet>
    39c0:	48 00 02 4c 	j 3e58 <GPIO_PortAModeSet+0xc84>
    39c4:	84 07       	movi55 $r0,#0x7
    39c6:	49 ff f1 0f 	jal 1be4 <GPIO_RegOneBitClear>
    39ca:	46 14 00 10 	sethi $r1,#0x40010
    39ce:	97 9f       	fexti33 $r6,#0x3
    39d0:	40 63 40 08 	slli $r6,$r6,#0x10
    39d4:	04 20 80 3c 	lwi $r2,[$r1+#0xf0]
    39d8:	46 0f ff 0f 	sethi $r0,#0xfff0f
    39dc:	50 00 0f ff 	addi $r0,$r0,#0xfff
    39e0:	fe 16       	and33 $r0,$r2
    39e2:	fe 37       	or33 $r0,$r6
    39e4:	14 00 80 3c 	swi $r0,[$r1+#0xf0]
    39e8:	48 00 02 38 	j 3e58 <GPIO_PortAModeSet+0xc84>
    39ec:	46 10 02 00 	sethi $r1,#0x200
    39f0:	5a 68 0f 21 	bnec $r6,#0xf,3a32 <GPIO_PortAModeSet+0x85e>
    39f4:	84 06       	movi55 $r0,#0x6
    39f6:	49 ff f0 f7 	jal 1be4 <GPIO_RegOneBitClear>
    39fa:	84 05       	movi55 $r0,#0x5
    39fc:	46 10 02 00 	sethi $r1,#0x200
    3a00:	49 ff f0 f2 	jal 1be4 <GPIO_RegOneBitClear>
    3a04:	fa 14       	movpi45 $r0,#0x24
    3a06:	46 10 02 00 	sethi $r1,#0x200
    3a0a:	49 ff f0 ed 	jal 1be4 <GPIO_RegOneBitClear>
    3a0e:	46 14 00 10 	sethi $r1,#0x40010
    3a12:	04 20 80 3c 	lwi $r2,[$r1+#0xf0]
    3a16:	46 0f f0 ff 	sethi $r0,#0xff0ff
    3a1a:	50 00 0f ff 	addi $r0,$r0,#0xfff
    3a1e:	fe 16       	and33 $r0,$r2
    3a20:	14 00 80 3c 	swi $r0,[$r1+#0xf0]
    3a24:	84 07       	movi55 $r0,#0x7
    3a26:	46 10 02 00 	sethi $r1,#0x200
    3a2a:	49 ff f0 d5 	jal 1bd4 <GPIO_RegOneBitSet>
    3a2e:	48 00 02 15 	j 3e58 <GPIO_PortAModeSet+0xc84>
    3a32:	84 07       	movi55 $r0,#0x7
    3a34:	49 ff f0 d8 	jal 1be4 <GPIO_RegOneBitClear>
    3a38:	46 14 00 10 	sethi $r1,#0x40010
    3a3c:	97 9f       	fexti33 $r6,#0x3
    3a3e:	40 63 50 08 	slli $r6,$r6,#0x14
    3a42:	04 20 80 3c 	lwi $r2,[$r1+#0xf0]
    3a46:	46 0f f0 ff 	sethi $r0,#0xff0ff
    3a4a:	50 00 0f ff 	addi $r0,$r0,#0xfff
    3a4e:	fe 16       	and33 $r0,$r2
    3a50:	fe 37       	or33 $r0,$r6
    3a52:	14 00 80 3c 	swi $r0,[$r1+#0xf0]
    3a56:	48 00 02 01 	j 3e58 <GPIO_PortAModeSet+0xc84>
    3a5a:	46 10 04 00 	sethi $r1,#0x400
    3a5e:	5a 68 0e 21 	bnec $r6,#0xe,3aa0 <GPIO_PortAModeSet+0x8cc>
    3a62:	84 06       	movi55 $r0,#0x6
    3a64:	49 ff f0 c0 	jal 1be4 <GPIO_RegOneBitClear>
    3a68:	84 05       	movi55 $r0,#0x5
    3a6a:	46 10 04 00 	sethi $r1,#0x400
    3a6e:	49 ff f0 bb 	jal 1be4 <GPIO_RegOneBitClear>
    3a72:	fa 14       	movpi45 $r0,#0x24
    3a74:	46 10 04 00 	sethi $r1,#0x400
    3a78:	49 ff f0 b6 	jal 1be4 <GPIO_RegOneBitClear>
    3a7c:	46 14 00 10 	sethi $r1,#0x40010
    3a80:	04 20 80 3c 	lwi $r2,[$r1+#0xf0]
    3a84:	46 0f 0f ff 	sethi $r0,#0xf0fff
    3a88:	50 00 0f ff 	addi $r0,$r0,#0xfff
    3a8c:	fe 16       	and33 $r0,$r2
    3a8e:	14 00 80 3c 	swi $r0,[$r1+#0xf0]
    3a92:	84 07       	movi55 $r0,#0x7
    3a94:	46 10 04 00 	sethi $r1,#0x400
    3a98:	49 ff f0 9e 	jal 1bd4 <GPIO_RegOneBitSet>
    3a9c:	48 00 01 de 	j 3e58 <GPIO_PortAModeSet+0xc84>
    3aa0:	84 07       	movi55 $r0,#0x7
    3aa2:	49 ff f0 a1 	jal 1be4 <GPIO_RegOneBitClear>
    3aa6:	46 14 00 10 	sethi $r1,#0x40010
    3aaa:	97 9f       	fexti33 $r6,#0x3
    3aac:	40 63 60 08 	slli $r6,$r6,#0x18
    3ab0:	04 20 80 3c 	lwi $r2,[$r1+#0xf0]
    3ab4:	46 0f 0f ff 	sethi $r0,#0xf0fff
    3ab8:	50 00 0f ff 	addi $r0,$r0,#0xfff
    3abc:	fe 16       	and33 $r0,$r2
    3abe:	fe 37       	or33 $r0,$r6
    3ac0:	14 00 80 3c 	swi $r0,[$r1+#0xf0]
    3ac4:	48 00 01 ca 	j 3e58 <GPIO_PortAModeSet+0xc84>
    3ac8:	46 10 08 00 	sethi $r1,#0x800
    3acc:	5a 68 0d 1e 	bnec $r6,#0xd,3b08 <GPIO_PortAModeSet+0x934>
    3ad0:	84 06       	movi55 $r0,#0x6
    3ad2:	49 ff f0 89 	jal 1be4 <GPIO_RegOneBitClear>
    3ad6:	84 05       	movi55 $r0,#0x5
    3ad8:	46 10 08 00 	sethi $r1,#0x800
    3adc:	49 ff f0 84 	jal 1be4 <GPIO_RegOneBitClear>
    3ae0:	fa 14       	movpi45 $r0,#0x24
    3ae2:	46 10 08 00 	sethi $r1,#0x800
    3ae6:	49 ff f0 7f 	jal 1be4 <GPIO_RegOneBitClear>
    3aea:	46 14 00 10 	sethi $r1,#0x40010
    3aee:	04 00 80 3c 	lwi $r0,[$r1+#0xf0]
    3af2:	94 04       	slli333 $r0,$r0,#0x4
    3af4:	92 04       	srli45 $r0,#0x4
    3af6:	14 00 80 3c 	swi $r0,[$r1+#0xf0]
    3afa:	84 07       	movi55 $r0,#0x7
    3afc:	46 10 08 00 	sethi $r1,#0x800
    3b00:	49 ff f0 6a 	jal 1bd4 <GPIO_RegOneBitSet>
    3b04:	48 00 01 aa 	j 3e58 <GPIO_PortAModeSet+0xc84>
    3b08:	84 07       	movi55 $r0,#0x7
    3b0a:	49 ff f0 6d 	jal 1be4 <GPIO_RegOneBitClear>
    3b0e:	46 14 00 10 	sethi $r1,#0x40010
    3b12:	40 63 70 08 	slli $r6,$r6,#0x1c
    3b16:	04 00 80 3c 	lwi $r0,[$r1+#0xf0]
    3b1a:	94 04       	slli333 $r0,$r0,#0x4
    3b1c:	92 04       	srli45 $r0,#0x4
    3b1e:	fe 37       	or33 $r0,$r6
    3b20:	14 00 80 3c 	swi $r0,[$r1+#0xf0]
    3b24:	48 00 01 9a 	j 3e58 <GPIO_PortAModeSet+0xc84>
    3b28:	46 10 10 00 	sethi $r1,#0x1000
    3b2c:	5a 68 0d 1e 	bnec $r6,#0xd,3b68 <GPIO_PortAModeSet+0x994>
    3b30:	84 06       	movi55 $r0,#0x6
    3b32:	49 ff f0 59 	jal 1be4 <GPIO_RegOneBitClear>
    3b36:	84 05       	movi55 $r0,#0x5
    3b38:	46 10 10 00 	sethi $r1,#0x1000
    3b3c:	49 ff f0 54 	jal 1be4 <GPIO_RegOneBitClear>
    3b40:	fa 14       	movpi45 $r0,#0x24
    3b42:	46 10 10 00 	sethi $r1,#0x1000
    3b46:	49 ff f0 4f 	jal 1be4 <GPIO_RegOneBitClear>
    3b4a:	46 14 00 10 	sethi $r1,#0x40010
    3b4e:	04 00 80 3d 	lwi $r0,[$r1+#0xf4]
    3b52:	66 00 00 0f 	bitci $r0,$r0,#0xf
    3b56:	14 00 80 3d 	swi $r0,[$r1+#0xf4]
    3b5a:	84 07       	movi55 $r0,#0x7
    3b5c:	46 10 10 00 	sethi $r1,#0x1000
    3b60:	49 ff f0 3a 	jal 1bd4 <GPIO_RegOneBitSet>
    3b64:	48 00 01 7a 	j 3e58 <GPIO_PortAModeSet+0xc84>
    3b68:	84 07       	movi55 $r0,#0x7
    3b6a:	49 ff f0 3d 	jal 1be4 <GPIO_RegOneBitClear>
    3b6e:	46 14 00 10 	sethi $r1,#0x40010
    3b72:	97 9f       	fexti33 $r6,#0x3
    3b74:	04 00 80 3d 	lwi $r0,[$r1+#0xf4]
    3b78:	66 00 00 0f 	bitci $r0,$r0,#0xf
    3b7c:	ff 87       	or33 $r6,$r0
    3b7e:	14 60 80 3d 	swi $r6,[$r1+#0xf4]
    3b82:	48 00 01 6b 	j 3e58 <GPIO_PortAModeSet+0xc84>
    3b86:	46 10 20 00 	sethi $r1,#0x2000
    3b8a:	5a 68 0b 1e 	bnec $r6,#0xb,3bc6 <GPIO_PortAModeSet+0x9f2>
    3b8e:	84 06       	movi55 $r0,#0x6
    3b90:	49 ff f0 2a 	jal 1be4 <GPIO_RegOneBitClear>
    3b94:	84 05       	movi55 $r0,#0x5
    3b96:	46 10 20 00 	sethi $r1,#0x2000
    3b9a:	49 ff f0 25 	jal 1be4 <GPIO_RegOneBitClear>
    3b9e:	fa 14       	movpi45 $r0,#0x24
    3ba0:	46 10 20 00 	sethi $r1,#0x2000
    3ba4:	49 ff f0 20 	jal 1be4 <GPIO_RegOneBitClear>
    3ba8:	46 14 00 10 	sethi $r1,#0x40010
    3bac:	04 00 80 3d 	lwi $r0,[$r1+#0xf4]
    3bb0:	66 00 00 f0 	bitci $r0,$r0,#0xf0
    3bb4:	14 00 80 3d 	swi $r0,[$r1+#0xf4]
    3bb8:	84 07       	movi55 $r0,#0x7
    3bba:	46 10 20 00 	sethi $r1,#0x2000
    3bbe:	49 ff f0 0b 	jal 1bd4 <GPIO_RegOneBitSet>
    3bc2:	48 00 01 4b 	j 3e58 <GPIO_PortAModeSet+0xc84>
    3bc6:	84 07       	movi55 $r0,#0x7
    3bc8:	49 ff f0 0e 	jal 1be4 <GPIO_RegOneBitClear>
    3bcc:	46 14 00 10 	sethi $r1,#0x40010
    3bd0:	97 9f       	fexti33 $r6,#0x3
    3bd2:	95 b4       	slli333 $r6,$r6,#0x4
    3bd4:	04 00 80 3d 	lwi $r0,[$r1+#0xf4]
    3bd8:	66 00 00 f0 	bitci $r0,$r0,#0xf0
    3bdc:	fe 37       	or33 $r0,$r6
    3bde:	14 00 80 3d 	swi $r0,[$r1+#0xf4]
    3be2:	48 00 01 3b 	j 3e58 <GPIO_PortAModeSet+0xc84>
    3be6:	46 10 40 00 	sethi $r1,#0x4000
    3bea:	5a 68 07 1e 	bnec $r6,#0x7,3c26 <GPIO_PortAModeSet+0xa52>
    3bee:	84 06       	movi55 $r0,#0x6
    3bf0:	49 ff ef fa 	jal 1be4 <GPIO_RegOneBitClear>
    3bf4:	84 05       	movi55 $r0,#0x5
    3bf6:	46 10 40 00 	sethi $r1,#0x4000
    3bfa:	49 ff ef f5 	jal 1be4 <GPIO_RegOneBitClear>
    3bfe:	fa 14       	movpi45 $r0,#0x24
    3c00:	46 10 40 00 	sethi $r1,#0x4000
    3c04:	49 ff ef f0 	jal 1be4 <GPIO_RegOneBitClear>
    3c08:	46 14 00 10 	sethi $r1,#0x40010
    3c0c:	04 00 80 3d 	lwi $r0,[$r1+#0xf4]
    3c10:	66 00 07 00 	bitci $r0,$r0,#0x700
    3c14:	14 00 80 3d 	swi $r0,[$r1+#0xf4]
    3c18:	84 07       	movi55 $r0,#0x7
    3c1a:	46 10 40 00 	sethi $r1,#0x4000
    3c1e:	49 ff ef db 	jal 1bd4 <GPIO_RegOneBitSet>
    3c22:	48 00 01 1b 	j 3e58 <GPIO_PortAModeSet+0xc84>
    3c26:	84 07       	movi55 $r0,#0x7
    3c28:	49 ff ef de 	jal 1be4 <GPIO_RegOneBitClear>
    3c2c:	46 14 00 10 	sethi $r1,#0x40010
    3c30:	97 97       	fexti33 $r6,#0x2
    3c32:	40 63 20 08 	slli $r6,$r6,#0x8
    3c36:	04 00 80 3d 	lwi $r0,[$r1+#0xf4]
    3c3a:	66 00 07 00 	bitci $r0,$r0,#0x700
    3c3e:	fe 37       	or33 $r0,$r6
    3c40:	14 00 80 3d 	swi $r0,[$r1+#0xf4]
    3c44:	48 00 01 0a 	j 3e58 <GPIO_PortAModeSet+0xc84>
    3c48:	46 10 80 00 	sethi $r1,#0x8000
    3c4c:	5a 68 0a 1f 	bnec $r6,#0xa,3c8a <GPIO_PortAModeSet+0xab6>
    3c50:	84 06       	movi55 $r0,#0x6
    3c52:	49 ff ef c9 	jal 1be4 <GPIO_RegOneBitClear>
    3c56:	84 05       	movi55 $r0,#0x5
    3c58:	46 10 80 00 	sethi $r1,#0x8000
    3c5c:	49 ff ef c4 	jal 1be4 <GPIO_RegOneBitClear>
    3c60:	fa 14       	movpi45 $r0,#0x24
    3c62:	46 10 80 00 	sethi $r1,#0x8000
    3c66:	49 ff ef bf 	jal 1be4 <GPIO_RegOneBitClear>
    3c6a:	46 14 00 10 	sethi $r1,#0x40010
    3c6e:	04 20 80 3d 	lwi $r2,[$r1+#0xf4]
    3c72:	44 0f 0f ff 	movi $r0,#-61441
    3c76:	fe 16       	and33 $r0,$r2
    3c78:	14 00 80 3d 	swi $r0,[$r1+#0xf4]
    3c7c:	84 07       	movi55 $r0,#0x7
    3c7e:	46 10 80 00 	sethi $r1,#0x8000
    3c82:	49 ff ef a9 	jal 1bd4 <GPIO_RegOneBitSet>
    3c86:	48 00 00 e9 	j 3e58 <GPIO_PortAModeSet+0xc84>
    3c8a:	84 07       	movi55 $r0,#0x7
    3c8c:	49 ff ef ac 	jal 1be4 <GPIO_RegOneBitClear>
    3c90:	46 14 00 10 	sethi $r1,#0x40010
    3c94:	97 9f       	fexti33 $r6,#0x3
    3c96:	40 63 30 08 	slli $r6,$r6,#0xc
    3c9a:	04 20 80 3d 	lwi $r2,[$r1+#0xf4]
    3c9e:	44 0f 0f ff 	movi $r0,#-61441
    3ca2:	fe 16       	and33 $r0,$r2
    3ca4:	fe 37       	or33 $r0,$r6
    3ca6:	14 00 80 3d 	swi $r0,[$r1+#0xf4]
    3caa:	48 00 00 d7 	j 3e58 <GPIO_PortAModeSet+0xc84>
    3cae:	46 11 00 00 	sethi $r1,#0x10000
    3cb2:	5a 68 0a 21 	bnec $r6,#0xa,3cf4 <GPIO_PortAModeSet+0xb20>
    3cb6:	84 06       	movi55 $r0,#0x6
    3cb8:	49 ff ef 96 	jal 1be4 <GPIO_RegOneBitClear>
    3cbc:	84 05       	movi55 $r0,#0x5
    3cbe:	46 11 00 00 	sethi $r1,#0x10000
    3cc2:	49 ff ef 91 	jal 1be4 <GPIO_RegOneBitClear>
    3cc6:	fa 14       	movpi45 $r0,#0x24
    3cc8:	46 11 00 00 	sethi $r1,#0x10000
    3ccc:	49 ff ef 8c 	jal 1be4 <GPIO_RegOneBitClear>
    3cd0:	46 14 00 10 	sethi $r1,#0x40010
    3cd4:	04 20 80 3d 	lwi $r2,[$r1+#0xf4]
    3cd8:	46 0f ff 0f 	sethi $r0,#0xfff0f
    3cdc:	50 00 0f ff 	addi $r0,$r0,#0xfff
    3ce0:	fe 16       	and33 $r0,$r2
    3ce2:	14 00 80 3d 	swi $r0,[$r1+#0xf4]
    3ce6:	84 07       	movi55 $r0,#0x7
    3ce8:	46 11 00 00 	sethi $r1,#0x10000
    3cec:	49 ff ef 74 	jal 1bd4 <GPIO_RegOneBitSet>
    3cf0:	48 00 00 b4 	j 3e58 <GPIO_PortAModeSet+0xc84>
    3cf4:	84 07       	movi55 $r0,#0x7
    3cf6:	49 ff ef 77 	jal 1be4 <GPIO_RegOneBitClear>
    3cfa:	46 14 00 10 	sethi $r1,#0x40010
    3cfe:	97 9f       	fexti33 $r6,#0x3
    3d00:	40 63 40 08 	slli $r6,$r6,#0x10
    3d04:	04 20 80 3d 	lwi $r2,[$r1+#0xf4]
    3d08:	46 0f ff 0f 	sethi $r0,#0xfff0f
    3d0c:	50 00 0f ff 	addi $r0,$r0,#0xfff
    3d10:	fe 16       	and33 $r0,$r2
    3d12:	fe 37       	or33 $r0,$r6
    3d14:	14 00 80 3d 	swi $r0,[$r1+#0xf4]
    3d18:	48 00 00 a0 	j 3e58 <GPIO_PortAModeSet+0xc84>
    3d1c:	46 12 00 00 	sethi $r1,#0x20000
    3d20:	5a 68 0a 20 	bnec $r6,#0xa,3d60 <GPIO_PortAModeSet+0xb8c>
    3d24:	84 06       	movi55 $r0,#0x6
    3d26:	49 ff ef 5f 	jal 1be4 <GPIO_RegOneBitClear>
    3d2a:	84 05       	movi55 $r0,#0x5
    3d2c:	46 12 00 00 	sethi $r1,#0x20000
    3d30:	49 ff ef 5a 	jal 1be4 <GPIO_RegOneBitClear>
    3d34:	fa 14       	movpi45 $r0,#0x24
    3d36:	46 12 00 00 	sethi $r1,#0x20000
    3d3a:	49 ff ef 55 	jal 1be4 <GPIO_RegOneBitClear>
    3d3e:	46 14 00 10 	sethi $r1,#0x40010
    3d42:	04 20 80 3d 	lwi $r2,[$r1+#0xf4]
    3d46:	46 0f f0 ff 	sethi $r0,#0xff0ff
    3d4a:	50 00 0f ff 	addi $r0,$r0,#0xfff
    3d4e:	fe 16       	and33 $r0,$r2
    3d50:	14 00 80 3d 	swi $r0,[$r1+#0xf4]
    3d54:	84 07       	movi55 $r0,#0x7
    3d56:	46 12 00 00 	sethi $r1,#0x20000
    3d5a:	49 ff ef 3d 	jal 1bd4 <GPIO_RegOneBitSet>
    3d5e:	d5 7d       	j8 3e58 <GPIO_PortAModeSet+0xc84>
    3d60:	84 07       	movi55 $r0,#0x7
    3d62:	49 ff ef 41 	jal 1be4 <GPIO_RegOneBitClear>
    3d66:	46 14 00 10 	sethi $r1,#0x40010
    3d6a:	97 9f       	fexti33 $r6,#0x3
    3d6c:	40 63 50 08 	slli $r6,$r6,#0x14
    3d70:	04 20 80 3d 	lwi $r2,[$r1+#0xf4]
    3d74:	46 0f f0 ff 	sethi $r0,#0xff0ff
    3d78:	50 00 0f ff 	addi $r0,$r0,#0xfff
    3d7c:	fe 16       	and33 $r0,$r2
    3d7e:	fe 37       	or33 $r0,$r6
    3d80:	14 00 80 3d 	swi $r0,[$r1+#0xf4]
    3d84:	d5 6a       	j8 3e58 <GPIO_PortAModeSet+0xc84>
    3d86:	46 14 00 00 	sethi $r1,#0x40000
    3d8a:	5a 68 08 20 	bnec $r6,#0x8,3dca <GPIO_PortAModeSet+0xbf6>
    3d8e:	84 06       	movi55 $r0,#0x6
    3d90:	49 ff ef 2a 	jal 1be4 <GPIO_RegOneBitClear>
    3d94:	84 05       	movi55 $r0,#0x5
    3d96:	46 14 00 00 	sethi $r1,#0x40000
    3d9a:	49 ff ef 25 	jal 1be4 <GPIO_RegOneBitClear>
    3d9e:	fa 14       	movpi45 $r0,#0x24
    3da0:	46 14 00 00 	sethi $r1,#0x40000
    3da4:	49 ff ef 20 	jal 1be4 <GPIO_RegOneBitClear>
    3da8:	46 14 00 10 	sethi $r1,#0x40010
    3dac:	04 20 80 3d 	lwi $r2,[$r1+#0xf4]
    3db0:	46 0f 8f ff 	sethi $r0,#0xf8fff
    3db4:	50 00 0f ff 	addi $r0,$r0,#0xfff
    3db8:	fe 16       	and33 $r0,$r2
    3dba:	14 00 80 3d 	swi $r0,[$r1+#0xf4]
    3dbe:	84 07       	movi55 $r0,#0x7
    3dc0:	46 14 00 00 	sethi $r1,#0x40000
    3dc4:	49 ff ef 08 	jal 1bd4 <GPIO_RegOneBitSet>
    3dc8:	d5 48       	j8 3e58 <GPIO_PortAModeSet+0xc84>
    3dca:	84 07       	movi55 $r0,#0x7
    3dcc:	49 ff ef 0c 	jal 1be4 <GPIO_RegOneBitClear>
    3dd0:	46 14 00 10 	sethi $r1,#0x40010
    3dd4:	97 97       	fexti33 $r6,#0x2
    3dd6:	40 63 60 08 	slli $r6,$r6,#0x18
    3dda:	04 20 80 3d 	lwi $r2,[$r1+#0xf4]
    3dde:	46 0f 8f ff 	sethi $r0,#0xf8fff
    3de2:	50 00 0f ff 	addi $r0,$r0,#0xfff
    3de6:	fe 16       	and33 $r0,$r2
    3de8:	fe 37       	or33 $r0,$r6
    3dea:	14 00 80 3d 	swi $r0,[$r1+#0xf4]
    3dee:	d5 35       	j8 3e58 <GPIO_PortAModeSet+0xc84>
    3df0:	46 18 00 00 	sethi $r1,#0x80000
    3df4:	5a 68 08 20 	bnec $r6,#0x8,3e34 <GPIO_PortAModeSet+0xc60>
    3df8:	84 06       	movi55 $r0,#0x6
    3dfa:	49 ff ee f5 	jal 1be4 <GPIO_RegOneBitClear>
    3dfe:	84 05       	movi55 $r0,#0x5
    3e00:	46 18 00 00 	sethi $r1,#0x80000
    3e04:	49 ff ee f0 	jal 1be4 <GPIO_RegOneBitClear>
    3e08:	fa 14       	movpi45 $r0,#0x24
    3e0a:	46 18 00 00 	sethi $r1,#0x80000
    3e0e:	49 ff ee eb 	jal 1be4 <GPIO_RegOneBitClear>
    3e12:	46 14 00 10 	sethi $r1,#0x40010
    3e16:	04 20 80 3d 	lwi $r2,[$r1+#0xf4]
    3e1a:	46 08 ff ff 	sethi $r0,#0x8ffff
    3e1e:	50 00 0f ff 	addi $r0,$r0,#0xfff
    3e22:	fe 16       	and33 $r0,$r2
    3e24:	14 00 80 3d 	swi $r0,[$r1+#0xf4]
    3e28:	84 07       	movi55 $r0,#0x7
    3e2a:	46 18 00 00 	sethi $r1,#0x80000
    3e2e:	49 ff ee d3 	jal 1bd4 <GPIO_RegOneBitSet>
    3e32:	d5 13       	j8 3e58 <GPIO_PortAModeSet+0xc84>
    3e34:	84 07       	movi55 $r0,#0x7
    3e36:	49 ff ee d7 	jal 1be4 <GPIO_RegOneBitClear>
    3e3a:	46 14 00 10 	sethi $r1,#0x40010
    3e3e:	97 97       	fexti33 $r6,#0x2
    3e40:	40 63 70 08 	slli $r6,$r6,#0x1c
    3e44:	04 20 80 3d 	lwi $r2,[$r1+#0xf4]
    3e48:	46 08 ff ff 	sethi $r0,#0x8ffff
    3e4c:	50 00 0f ff 	addi $r0,$r0,#0xfff
    3e50:	fe 16       	and33 $r0,$r2
    3e52:	fe 37       	or33 $r0,$r6
    3e54:	14 00 80 3d 	swi $r0,[$r1+#0xf4]
    3e58:	3a 6f 98 84 	lmw.bim $r6,[$sp],$r6,#0x2    ! {$r6, $lp}
    3e5c:	dd 9e       	ret5 $lp

00003e5e <Remap_AddrRemapSet>:
    3e5e:	8c 63       	addi45 $r3,#0x3
    3e60:	66 31 80 03 	bitci $r3,$r3,#0x3
    3e64:	54 40 8f ff 	andi $r4,$r1,#0xfff
    3e68:	cc 42       	bnez38 $r4,3eec <Remap_AddrRemapSet+0x8e>
    3e6a:	54 41 0f ff 	andi $r4,$r2,#0xfff
    3e6e:	cc 41       	bnez38 $r4,3ef0 <Remap_AddrRemapSet+0x92>
    3e70:	c8 14       	bnez38 $r0,3e98 <Remap_AddrRemapSet+0x3a>
    3e72:	92 2c       	srli45 $r1,#0xc
    3e74:	46 04 00 30 	sethi $r0,#0x40030
    3e78:	14 10 00 13 	swi $r1,[$r0+#0x4c]
    3e7c:	92 4c       	srli45 $r2,#0xc
    3e7e:	14 20 00 14 	swi $r2,[$r0+#0x50]
    3e82:	92 62       	srli45 $r3,#0x2
    3e84:	14 30 00 15 	swi $r3,[$r0+#0x54]
    3e88:	00 10 00 48 	lbi $r1,[$r0+#0x48]
    3e8c:	58 10 80 01 	ori $r1,$r1,#0x1
    3e90:	10 10 00 48 	sbi $r1,[$r0+#0x48]
    3e94:	84 00       	movi55 $r0,#0x0
    3e96:	dd 9e       	ret5 $lp
    3e98:	5a 08 01 15 	bnec $r0,#0x1,3ec2 <Remap_AddrRemapSet+0x64>
    3e9c:	92 2c       	srli45 $r1,#0xc
    3e9e:	46 04 00 30 	sethi $r0,#0x40030
    3ea2:	14 10 00 16 	swi $r1,[$r0+#0x58]
    3ea6:	92 4c       	srli45 $r2,#0xc
    3ea8:	14 20 00 17 	swi $r2,[$r0+#0x5c]
    3eac:	92 62       	srli45 $r3,#0x2
    3eae:	14 30 00 18 	swi $r3,[$r0+#0x60]
    3eb2:	00 10 00 48 	lbi $r1,[$r0+#0x48]
    3eb6:	58 10 80 02 	ori $r1,$r1,#0x2
    3eba:	10 10 00 48 	sbi $r1,[$r0+#0x48]
    3ebe:	84 00       	movi55 $r0,#0x0
    3ec0:	dd 9e       	ret5 $lp
    3ec2:	5a 08 02 19 	bnec $r0,#0x2,3ef4 <Remap_AddrRemapSet+0x96>
    3ec6:	92 2c       	srli45 $r1,#0xc
    3ec8:	46 04 00 30 	sethi $r0,#0x40030
    3ecc:	14 10 00 19 	swi $r1,[$r0+#0x64]
    3ed0:	92 4c       	srli45 $r2,#0xc
    3ed2:	14 20 00 1a 	swi $r2,[$r0+#0x68]
    3ed6:	92 62       	srli45 $r3,#0x2
    3ed8:	14 30 00 1b 	swi $r3,[$r0+#0x6c]
    3edc:	00 10 00 48 	lbi $r1,[$r0+#0x48]
    3ee0:	58 10 80 04 	ori $r1,$r1,#0x4
    3ee4:	10 10 00 48 	sbi $r1,[$r0+#0x48]
    3ee8:	84 00       	movi55 $r0,#0x0
    3eea:	dd 9e       	ret5 $lp
    3eec:	84 1f       	movi55 $r0,#-1
    3eee:	dd 9e       	ret5 $lp
    3ef0:	84 1f       	movi55 $r0,#-1
    3ef2:	dd 9e       	ret5 $lp
    3ef4:	84 00       	movi55 $r0,#0x0
    3ef6:	dd 9e       	ret5 $lp

00003ef8 <Remap_InitTcm>:
    3ef8:	3a 6f a0 bc 	smw.adm $r6,[$sp],$r8,#0x2    ! {$r6~$r8, $lp}
    3efc:	80 e0       	mov55 $r7,$r0
    3efe:	8c 23       	addi45 $r1,#0x3
    3f00:	40 20 88 09 	srli $r2,$r1,#0x2
    3f04:	40 81 08 08 	slli $r8,$r2,#0x2
    3f08:	46 62 00 00 	sethi $r6,#0x20000
    3f0c:	fd 03       	movd44 $r0,$r6
    3f0e:	40 21 30 08 	slli $r2,$r2,#0xc
    3f12:	49 00 09 e7 	jal 52e0 <memcpy>
    3f16:	84 00       	movi55 $r0,#0x0
    3f18:	80 27       	mov55 $r1,$r7
    3f1a:	80 46       	mov55 $r2,$r6
    3f1c:	80 68       	mov55 $r3,$r8
    3f1e:	49 ff ff a0 	jal 3e5e <Remap_AddrRemapSet>
    3f22:	3a 6f a0 84 	lmw.bim $r6,[$sp],$r8,#0x2    ! {$r6~$r8, $lp}
    3f26:	dd 9e       	ret5 $lp

00003f28 <SysTickInit>:
    3f28:	3b ff fc bc 	smw.adm $sp,[$sp],$sp,#0x2    ! {$lp}
    3f2c:	ef fc       	addi10.sp #-4
    3f2e:	84 00       	movi55 $r0,#0x0
    3f30:	44 10 03 e8 	movi $r1,#0x3e8
    3f34:	84 40       	movi55 $r2,#0x0
    3f36:	49 00 00 31 	jal 3f98 <Timer_Config>
    3f3a:	84 00       	movi55 $r0,#0x0
    3f3c:	49 00 00 fa 	jal 4130 <Timer_Start>
    3f40:	49 ff f6 37 	jal 2bae <GIE_ENABLE>
    3f44:	84 00       	movi55 $r0,#0x0
    3f46:	49 ff f6 44 	jal 2bce <NVIC_EnableIRQ>
    3f4a:	ec 04       	addi10.sp #0x4
    3f4c:	3b ff fc 84 	lmw.bim $sp,[$sp],$sp,#0x2    ! {$lp}
    3f50:	dd 9e       	ret5 $lp

00003f52 <SystickInterrupt>:
    3f52:	46 14 00 2b 	sethi $r1,#0x4002b
    3f56:	b4 01       	lwi450 $r0,[$r1]
    3f58:	58 00 20 00 	ori $r0,$r0,#0x2000
    3f5c:	b6 01       	swi450 $r0,[$r1]
    3f5e:	3c 0c 00 14 	lwi.gp $r0,[+#0x50]
    3f62:	8c 01       	addi45 $r0,#0x1
    3f64:	3c 0e 00 14 	swi.gp $r0,[+#0x50]
    3f68:	dd 9e       	ret5 $lp

00003f6a <ClockFreqGet>:
    3f6a:	3b ff fc bc 	smw.adm $sp,[$sp],$sp,#0x2    ! {$lp}
    3f6e:	ef fc       	addi10.sp #-4
    3f70:	5a 08 02 0d 	bnec $r0,#0x2,3f8a <ClockFreqGet+0x20>
    3f74:	46 04 00 21 	sethi $r0,#0x40021
    3f78:	04 00 00 09 	lwi $r0,[$r0+#0x24]
    3f7c:	42 00 38 0b 	btst $r0,$r0,#0xe
    3f80:	c0 05       	beqz38 $r0,3f8a <ClockFreqGet+0x20>
    3f82:	84 01       	movi55 $r0,#0x1
    3f84:	49 ff f7 38 	jal 2df4 <Clock_RcFreqGet>
    3f88:	d5 03       	j8 3f8e <ClockFreqGet+0x24>
    3f8a:	49 ff ed dd 	jal 1b44 <Clock_SysClockFreqGet>
    3f8e:	ec 04       	addi10.sp #0x4
    3f90:	3b ff fc 84 	lmw.bim $sp,[$sp],$sp,#0x2    ! {$lp}
    3f94:	dd 9e       	ret5 $lp
	...

00003f98 <Timer_Config>:
    3f98:	3a 6f a8 bc 	smw.adm $r6,[$sp],$r10,#0x2    ! {$r6~$r10, $lp}
    3f9c:	81 40       	mov55 $r10,$r0
    3f9e:	81 01       	mov55 $r8,$r1
    3fa0:	81 22       	mov55 $r9,$r2
    3fa2:	e6 06       	slti45 $r0,#0x6
    3fa4:	e8 25       	beqzs8 3fee <Timer_Config+0x56>
    3fa6:	44 f0 3f b0 	movi $r15,#0x3fb0
    3faa:	38 07 aa 02 	lw $r0,[$r15+($r10<<#0x2)]
    3fae:	dd 00       	jr5 $r0
    3fb0:	c8 3f 00 00 	.word	0x00003fc8
    3fb4:	f2 3f 00 00 	.word	0x00003ff2
    3fb8:	ce 3f 00 00 	.word	0x00003fce
    3fbc:	d4 3f 00 00 	.word	0x00003fd4
    3fc0:	de 3f 00 00 	.word	0x00003fde
    3fc4:	e4 3f 00 00 	.word	0x00003fe4
    3fc8:	46 64 00 2b 	sethi $r6,#0x4002b
    3fcc:	d5 17       	j8 3ffa <Timer_Config+0x62>
    3fce:	46 64 00 2c 	sethi $r6,#0x4002c
    3fd2:	d5 14       	j8 3ffa <Timer_Config+0x62>
    3fd4:	46 64 00 2c 	sethi $r6,#0x4002c
    3fd8:	50 63 08 00 	addi $r6,$r6,#0x800
    3fdc:	d5 0f       	j8 3ffa <Timer_Config+0x62>
    3fde:	46 64 00 2f 	sethi $r6,#0x4002f
    3fe2:	d5 0c       	j8 3ffa <Timer_Config+0x62>
    3fe4:	46 64 00 2f 	sethi $r6,#0x4002f
    3fe8:	50 63 08 00 	addi $r6,$r6,#0x800
    3fec:	d5 07       	j8 3ffa <Timer_Config+0x62>
    3fee:	84 c0       	movi55 $r6,#0x0
    3ff0:	d5 05       	j8 3ffa <Timer_Config+0x62>
    3ff2:	46 64 00 2b 	sethi $r6,#0x4002b
    3ff6:	50 63 08 00 	addi $r6,$r6,#0x800
    3ffa:	4e 62 00 96 	beqz $r6,4126 <Timer_Config+0x18e>
    3ffe:	80 0a       	mov55 $r0,$r10
    4000:	49 ff ff b5 	jal 3f6a <ClockFreqGet>
    4004:	46 14 31 bd 	sethi $r1,#0x431bd
    4008:	50 10 8e 83 	addi $r1,$r1,#0xe83
    400c:	42 00 04 69 	mulr64 $r0,$r0,$r1
    4010:	92 32       	srli45 $r1,#0x12
    4012:	84 1f       	movi55 $r0,#-1
    4014:	40 00 04 17 	divr $r0,$r0,$r0,$r1
    4018:	40 00 20 06 	slt $r0,$r0,$r8
    401c:	c0 0f       	beqz38 $r0,403a <Timer_Config+0xa2>
    401e:	80 0a       	mov55 $r0,$r10
