Archive member included to satisfy reference by file (symbol)

..\..\platform\libs\libplatform.a(audio.o)
                              Output\obj\platform\bsp\bsp_dac.o (adpll_init)
..\..\platform\libs\libplatform.a(audio_echo.o)
                              Output\obj\platform\bsp\bsp_sys.o (karaok_var_init)
..\..\platform\libs\libplatform.a(audio_eq.o)
                              Output\obj\platform\bsp\bsp_eq.o (music_set_eq_is_done)
..\..\platform\libs\libplatform.a(audio_src.o)
                              ..\..\platform\libs\libplatform.a(audio_echo.o) (audio_src_init)
..\..\platform\libs\libplatform.a(dac.o)
                              Output\obj\platform\bsp\bsp_aux.o (dac_fade_in)
..\..\platform\libs\libplatform.a(dac_dnr.o)
                              ..\..\platform\libs\libplatform.a(dac.o) (noise_detect)
..\..\platform\libs\libplatform.a(s_dac.o)
                              ..\..\platform\libs\libplatform.a(audio_echo.o) (dnr_voice_maxpow)
..\..\platform\libs\libplatform.a(sdadc.o)
                              Output\obj\platform\bsp\bsp_audio.o (sdadc_dummy)
..\..\platform\libs\libplatform.a(bt.o)
                              Output\obj\platform\bsp\bsp_bt.o (bt_send_msg)
..\..\platform\libs\libplatform.a(bt_aec.o)
                              ..\..\platform\libs\libplatform.a(sdadc.o) (aec_far_detect)
..\..\platform\libs\libplatform.a(bt_alc.o)
                              Output\obj\platform\bsp\bsp_audio.o (bt_alc_process)
..\..\platform\libs\libplatform.a(bt_rec.o)
                              ..\..\platform\libs\libplatform.a(bt.o) (bt_rec_en)
..\..\platform\libs\libplatform.a(bt_sco.o)
                              Output\obj\platform\functions\sfunc_bt_call.o (bt_voice_init)
..\..\platform\libs\libplatform.a(bt_wnr.o)
                              ..\..\platform\libs\libplatform.a(bt_sco.o) (wnr_init)
..\..\platform\libs\libplatform.a(s_wnr.o)
                              ..\..\platform\libs\libplatform.a(bt_aec.o) (wnr_detect)
..\..\platform\libs\libplatform.a(cm.o)
                              Output\obj\platform\bsp\bsp_bt.o (cm_sync)
..\..\platform\libs\libplatform.a(os_flash.o)
                              ..\..\platform\libs\libplatform.a(cm.o) (os_spiflash_read)
..\..\platform\libs\libplatform.a(xcfg.o)
                              Output\obj\platform\bsp\bsp_sys.o (xcfg_init)
..\..\platform\libs\libplatform.a(device.o)
                              Output\obj\platform\bsp\bsp_sys.o (dev_init)
..\..\platform\libs\libplatform.a(fmrx_ang.o)
                              Output\obj\platform\functions\func_lowpwr.o (fmrx_analog_init)
..\..\platform\libs\libplatform.a(main.o)
                              Output\obj\platform\bsp\bsp_bt.o (delay_5ms)
..\..\platform\libs\libplatform.a(music.o)
                              Output\obj\platform\bsp\bsp_music.o (get_music_dec_sta)
..\..\platform\libs\libplatform.a(music_res.o)
                              Output\obj\platform\bsp\bsp_music.o (mp3_res_play_kick)
..\..\platform\libs\libplatform.a(stream.o)
                              ..\..\platform\libs\libplatform.a(music.o) (msc_stream_end)
..\..\platform\libs\libplatform.a(interrupt.o)
                              ..\..\platform\libs\libplatform.a(audio_src.o) (src_isr_func_set)
..\..\platform\libs\libplatform.a(startup.o)
                              ..\..\platform\libs\libplatform.a(interrupt.o) (user_timer_isr_en)
..\..\platform\libs\libplatform.a(sys_hook.o)
                              ..\..\platform\libs\libplatform.a(startup.o) (sys_hook_init)
..\..\platform\libs\libplatform.a(reset.o)
                              (_start)
..\..\platform\libs\libplatform.a(rtc.o)
                              Output\obj\platform\bsp\bsp_key.o (irtc_sfr_write)
..\..\platform\libs\libplatform.a(spiflash.o)
                              ..\..\platform\libs\libplatform.a(os_flash.o) (spiflash_read)
..\..\platform\libs\libplatform.a(charge.o)
                              Output\obj\platform\bsp\bsp_charge.o (charge_stop)
..\..\platform\libs\libplatform.a(debug.o)
                              ..\..\platform\libs\libplatform.a(main.o) (debug_set)
..\..\platform\libs\libplatform.a(gpio.o)
                              Output\obj\platform\bsp\bsp_sys.o (gpio_cfg_init)
..\..\platform\libs\libplatform.a(key.o)
                              Output\obj\platform\bsp\bsp_key.o (key_var_init)
..\..\platform\libs\libplatform.a(lock.o)
                              ..\..\platform\libs\libplatform.a(main.o) (lock_init)
..\..\platform\libs\libplatform.a(power.o)
                              Output\obj\platform\functions\func_lowpwr.o (pmu_ldo_mode)
..\..\platform\libs\libplatform.a(s_sys.o)
                              ..\..\platform\libs\libplatform.a(main.o) (s_bcnt)
..\..\platform\libs\libplatform.a(saradc.o)
                              Output\obj\platform\bsp\bsp_key.o (saradc_setup_time_set)
..\..\platform\libs\libplatform.a(sys.o)
                              Output\obj\platform\bsp\bsp_cm.o (sys_get_rand_key)
..\..\platform\libs\libplatform.a(sys_clk.o)
                              Output\obj\platform\bsp\bsp_bt.o (get_cur_sysclk)
..\..\platform\libs\libplatform.a(sys_msg.o)
                              Output\obj\platform\bsp\bsp_sys.o (msg_queue_init)
..\..\platform\libs\libplatform.a(update.o)
                              Output\obj\platform\functions\sfunc_bt_ota.o (updateota_init)
..\..\platform\libs\libplatform.a(voltage_trim.o)
                              ..\..\platform\libs\libplatform.a(main.o) (voltage_trim_value_init)
..\..\platform\libs\libplatform.a(weak_symbol.o)
                              ..\..\platform\libs\libplatform.a(audio_eq.o) (mic_eq_get_bass_tbl)
..\..\platform\libs\libplatform.a(thread_driver.o)
                              ..\..\platform\libs\libplatform.a(stream.o) (os_mq_stream_read_post)
..\..\platform\libs\libplatform.a(audio_pcm.o)
                              ..\..\platform\libs\libplatform.a(sdadc.o) (os_mq_aupcm_post)
..\..\platform\libs\libplatform.a(bt_ota.o)
                              ..\..\platform\libs\libplatform.a(update.o) (bt_pf_read)
..\..\platform\libs\libplatform.a(i2s.o)
                              ..\..\platform\libs\libplatform.a(interrupt.o) (i2s_isr)
..\..\platform\libs\libbtstack.a(bb.o)
                              ..\..\platform\libs\libplatform.a(startup.o) (bthw_get_heap_info)
..\..\platform\libs\libbtstack.a(bb_rf.o)
                              Output\obj\platform\bsp\bsp_sys.o (bt_get_hvbko)
..\..\platform\libs\libbtstack.a(ble.o)
                              ..\..\platform\libs\libbtstack.a(bb.o) (ble_init)
..\..\platform\libs\libbtstack.a(ble_con.o)
                              ..\..\platform\libs\libbtstack.a(ble.o) (hwble_init)
..\..\platform\libs\libbtstack.a(ble_evt.o)
                              ..\..\platform\libs\libbtstack.a(ble_con.o) (ble_evt_free_do)
..\..\platform\libs\libbtstack.a(ble_lc.o)
                              ..\..\platform\libs\libbtstack.a(ble_con.o) (ble_lc_check_update_evt_sent)
..\..\platform\libs\libbtstack.a(ble_lm.o)
                              ..\..\platform\libs\libbtstack.a(ble_con.o) (ble_lm_adv_data_update)
..\..\platform\libs\libbtstack.a(ble_sleep.o)
                              ..\..\platform\libs\libbtstack.a(bb.o) (lld_sleep_check)
..\..\platform\libs\libbtstack.a(bt21.o)
                              ..\..\platform\libs\libbtstack.a(bb.o) (bt21_init)
..\..\platform\libs\libbtstack.a(ext_acl.o)
                              ..\..\platform\libs\libbtstack.a(bb.o) (p_acl_conn)
..\..\platform\libs\libbtstack.a(ext_afh.o)
                              ..\..\platform\libs\libbtstack.a(bb.o) (lc_afh_map)
..\..\platform\libs\libbtstack.a(ext_bt.o)
                              ..\..\platform\libs\libbtstack.a(bt21.o) (ext_lc_clock_isr)
..\..\platform\libs\libbtstack.a(ext_flush.o)
                              ..\..\platform\libs\libbtstack.a(ext_bt.o) (lc_flush_sbc_buf)
..\..\platform\libs\libbtstack.a(ext_init.o)
                              ..\..\platform\libs\libbtstack.a(bb.o) (hwbt_reset)
..\..\platform\libs\libbtstack.a(ext_plc.o)
                              ..\..\platform\libs\libplatform.a(audio_echo.o) (plc_buf)
..\..\platform\libs\libbtstack.a(ext_scan.o)
                              ..\..\platform\libs\libbtstack.a(ext_init.o) (ext_lc_get_scan_rssi)
..\..\platform\libs\libbtstack.a(ext_sco.o)
                              Output\obj\platform\bsp\bsp_audio.o (bt_sco_process)
..\..\platform\libs\libbtstack.a(ext_tws.o)
                              ..\..\platform\libs\libplatform.a(interrupt.o) (tws_timer_isr)
..\..\platform\libs\libbtstack.a(ext_util.o)
                              ..\..\platform\libs\libbtstack.a(ext_init.o) (hwbt_set_bd_addr)
..\..\platform\libs\libbtstack.a(lc.o)
                              ..\..\platform\libs\libbtstack.a(bt21.o) (lc_init)
..\..\platform\libs\libbtstack.a(lc_acl.o)
                              ..\..\platform\libs\libbtstack.a(ext_init.o) (lc_acl_init_fifo)
..\..\platform\libs\libbtstack.a(lc_afh.o)
                              ..\..\platform\libs\libbtstack.a(ext_init.o) (lc_afh_init)
..\..\platform\libs\libbtstack.a(lc_cqddr.o)
                              ..\..\platform\libs\libbtstack.a(lc.o) (lc_init_cqddr)
..\..\platform\libs\libbtstack.a(lc_lmppdu.o)
                              ..\..\platform\libs\libbtstack.a(lc.o) (lc_send_lmp)
..\..\platform\libs\libbtstack.a(lc_proc.o)
                              ..\..\platform\libs\libbtstack.a(lc.o) (lc_state)
..\..\platform\libs\libbtstack.a(lc_pwrctrl.o)
                              ..\..\platform\libs\libbtstack.a(lc_proc.o) (lc_epc_response_ind)
..\..\platform\libs\libbtstack.a(lc_sco.o)
                              ..\..\platform\libs\libbtstack.a(lc.o) (lc_sco_init)
..\..\platform\libs\libbtstack.a(lc_util.o)
                              ..\..\platform\libs\libbtstack.a(ext_init.o) (lc_util_rsw_en)
..\..\platform\libs\libbtstack.a(lm.o)
                              ..\..\platform\libs\libbtstack.a(bt21.o) (lm_init)
..\..\platform\libs\libbtstack.a(lm_key.o)
                              ..\..\platform\libs\libbtstack.a(lc.o) (E1)
..\..\platform\libs\libbtstack.a(lm_proc.o)
                              ..\..\platform\libs\libbtstack.a(lm.o) (lm_state)
..\..\platform\libs\libbtstack.a(lm_sco.o)
                              ..\..\platform\libs\libbtstack.a(lc_sco.o) (lm_get_sync_param)
..\..\platform\libs\libbtstack.a(lm_sleep.o)
                              ..\..\platform\libs\libbtstack.a(ext_init.o) (lm_sleep_init)
..\..\platform\libs\libbtstack.a(lm_sniff.o)
                              ..\..\platform\libs\libbtstack.a(lm.o) (lm_init_sniff)
..\..\platform\libs\libbtstack.a(lm_sp.o)
                              ..\..\platform\libs\libbtstack.a(lc.o) (lm_sp_get_pairing_mode)
..\..\platform\libs\libbtstack.a(lm_util.o)
                              ..\..\platform\libs\libbtstack.a(lm_sco.o) (lm_util_get_offset_clkn)
..\..\platform\libs\libbtstack.a(bb_buf.o)
                              ..\..\platform\libs\libbtstack.a(bt21.o) (bb_buf_init)
..\..\platform\libs\libbtstack.a(bb_utils.o)
                              ..\..\platform\libs\libbtstack.a(lc.o) (bb_slot_to_ticks)
..\..\platform\libs\libbtstack.a(complex.o)
                              ..\..\platform\libs\libbtstack.a(bb_rf.o) (complexSubtract)
..\..\platform\libs\libbtstack.a(nanos.o)
                              ..\..\platform\libs\libbtstack.a(bb.o) (nanos_event_set)
..\..\platform\libs\libbtstack.a(hcic.o)
                              ..\..\platform\libs\libbtstack.a(lm_proc.o) (hci_host_buf_size_set)
..\..\platform\libs\libbtstack.a(hcic_msg.o)
                              ..\..\platform\libs\libbtstack.a(hcic.o) (hci_cmd_aligned_unpk)
..\..\platform\libs\libbtstack.a(hcic_proc.o)
                              ..\..\platform\libs\libbtstack.a(hcic.o) (hci_state)
..\..\platform\libs\libbtstack.a(vs.o)
                              ..\..\platform\libs\libbtstack.a(bt21.o) (vs_init)
..\..\platform\libs\libbtstack.a(vs_proc.o)
                              ..\..\platform\libs\libbtstack.a(vs.o) (vs_state)
..\..\platform\libs\libbtstack.a(btstack_api.o)
                              Output\obj\platform\bsp\bsp_sys.o (bt_init)
..\..\platform\libs\libbtstack.a(btstack_chipset_inner.o)
                              ..\..\platform\libs\libbtstack.a(btstack_api.o) (btstack_chipset_inner_instance)
..\..\platform\libs\libbtstack.a(btstack_gatt_server.o)
                              ..\..\platform\libs\libbtstack.a(btstack_api.o) (btstack_ble_send)
..\..\platform\libs\libbtstack.a(btstack_hal.o)
                              ..\..\platform\libs\libbtstack.a(bb.o) (hal_tick_set_handler)
..\..\platform\libs\libbtstack.a(btstack_main.o)
                              ..\..\platform\libs\libbtstack.a(btstack_api.o) (btstack_main)
..\..\platform\libs\libbtstack.a(btstack_misc.o)
                              ..\..\platform\libs\libbtstack.a(btstack_hal.o) (huart_get_rxcnt)
..\..\platform\libs\libbtstack.a(hci_transport_hcic.o)
                              ..\..\platform\libs\libbtstack.a(btstack_api.o) (hci_init_var)
..\..\platform\libs\libbtstack.a(weak_symbol.o)
                              ..\..\platform\libs\libbtstack.a(ext_init.o) (bt_sniff_featuer_disable)
..\..\platform\libs\libbtstack.a(btstack_link_ctrl.o)
                              ..\..\platform\libs\libbtstack.a(btstack_api.o) (get_link_ctrl_context_for_bd_addr)
..\..\platform\libs\libbtstack.a(btstack_memory.o)
                              ..\..\platform\libs\libbtstack.a(btstack_api.o) (btstack_memory_init)
..\..\platform\libs\libbtstack.a(btstack_memory_pool.o)
                              ..\..\platform\libs\libbtstack.a(btstack_memory.o) (btstack_memory_pool_get)
..\..\platform\libs\libbtstack.a(btstack_run_loop.o)
                              ..\..\platform\libs\libbtstack.a(btstack_link_ctrl.o) (btstack_run_loop_set_timer_handler)
..\..\platform\libs\libbtstack.a(btstack_tws.o)
                              ..\..\platform\libs\libbtstack.a(btstack_main.o) (btstack_tws_init)
..\..\platform\libs\libbtstack.a(btstack_util.o)
                              ..\..\platform\libs\libbtstack.a(btstack_api.o) (reverse_bd_addr)
..\..\platform\libs\libbtstack.a(a2dp.o)
                              ..\..\platform\libs\libbtstack.a(btstack_api.o) (a2dp_get_playing_connection)
..\..\platform\libs\libbtstack.a(a2dp_play.o)
                              ..\..\platform\libs\libbtstack.a(a2dp.o) (sbc_play_init)
..\..\platform\libs\libbtstack.a(a2dp_send.o)
                              ..\..\platform\libs\libbtstack.a(a2dp.o) (sbc_res_init)
..\..\platform\libs\libbtstack.a(avctp.o)
                              ..\..\platform\libs\libbtstack.a(btstack_api.o) (avctp_play_pause_for_conn)
..\..\platform\libs\libbtstack.a(avdtp.o)
                              ..\..\platform\libs\libbtstack.a(a2dp.o) (avdtp_init)
..\..\platform\libs\libbtstack.a(btstack_link_key_db.o)
                              ..\..\platform\libs\libbtstack.a(btstack_api.o) (btstack_open_link_info)
..\..\platform\libs\libbtstack.a(hfp.o)
                              ..\..\platform\libs\libbtstack.a(btstack_main.o) (hfp_var_init)
..\..\platform\libs\libbtstack.a(hfp_hf.o)
                              ..\..\platform\libs\libbtstack.a(hfp.o) (hfp_is_list_curr_calls)
..\..\platform\libs\libbtstack.a(hid_device.o)
                              Output\obj\platform\bsp\bsp_bt.o (bt_hid_is_connected)
..\..\platform\libs\libbtstack.a(hid_usage.o)
                              ..\..\platform\libs\libbtstack.a(hid_device.o) (hid_report_init)
..\..\platform\libs\libbtstack.a(rfcomm.o)
                              ..\..\platform\libs\libbtstack.a(btstack_main.o) (rfcomm_init)
..\..\platform\libs\libbtstack.a(sdp_client.o)
                              ..\..\platform\libs\libbtstack.a(a2dp.o) (sdp_client_query)
..\..\platform\libs\libbtstack.a(sdp_server.o)
                              ..\..\platform\libs\libbtstack.a(btstack_main.o) (sdp_init)
..\..\platform\libs\libbtstack.a(sdp_tbl.o)
                              ..\..\platform\libs\libbtstack.a(btstack_main.o) (device_id_sdp_service_buffer)
..\..\platform\libs\libbtstack.a(sdp_util.o)
                              ..\..\platform\libs\libbtstack.a(sdp_server.o) (de_get_size_type)
..\..\platform\libs\libbtstack.a(spp.o)
                              Output\obj\platform\bsp\bsp_eq.o (bt_spp_tx)
..\..\platform\libs\libbtstack.a(hci.o)
                              ..\..\platform\libs\libbtstack.a(btstack_api.o) (hci_connection_for_handle)
..\..\platform\libs\libbtstack.a(hci_cmd.o)
                              ..\..\platform\libs\libbtstack.a(hci.o) (hci_cmd_create_from_template)
..\..\platform\libs\libbtstack.a(hci_dump.o)
                              ..\..\platform\libs\libbtstack.a(btstack_api.o) (hci_dump_open)
..\..\platform\libs\libbtstack.a(hci_sco.o)
                              ..\..\platform\libs\libbtstack.a(btstack_api.o) (sco_buffer_init)
..\..\platform\libs\libbtstack.a(l2cap.o)
                              ..\..\platform\libs\libbtstack.a(btstack_api.o) (l2cap_send_test_key)
..\..\platform\libs\libbtstack.a(l2cap_signaling.o)
                              ..\..\platform\libs\libbtstack.a(l2cap.o) (l2cap_next_sig_id)
..\..\platform\libs\libbtstack.a(l2cap_test.o)
                              ..\..\platform\libs\libbtstack.a(hci.o) (l2cap_end_of_test)
..\..\platform\libs\libbtstack.a(btstack_asm.o)
                              ..\..\platform\libs\libbtstack.a(bb.o) (nanos_env)
..\..\platform\libs\libbtstack.a(ext_rsw.o)
                              ..\..\platform\libs\libbtstack.a(lc_proc.o) (lc_rsw_req)
..\..\platform\libs\libbtstack.a(ext_sniff.o)
                              ..\..\platform\libs\libbtstack.a(lc.o) (lc_sniff_entry_transition_mode)
..\..\platform\libs\libbtstack.a(ext_tsco.o)
                              ..\..\platform\libs\libbtstack.a(lc_proc.o) (lc_tsco_remote_setup)
..\..\platform\libs\libbtstack.a(lc_scan.o)
                              ..\..\platform\libs\libbtstack.a(lm_proc.o) (lc_scan_set_eir)
..\..\platform\libs\libbtstack.a(lm_hmac.o)
                              ..\..\platform\libs\libbtstack.a(lm_sp.o) (lm_n_is_zero)
..\..\platform\libs\libbtstack.a(btstack_linked_list.o)
                              ..\..\platform\libs\libbtstack.a(rfcomm.o) (btstack_linked_list_empty)
..\..\platform\libs\libdrivers.a(diskio.o)
                              ..\..\platform\libs\libplatform.a(device.o) (fsdisk_callback_init)
..\..\platform\libs\libdrivers.a(pff.o)
                              ..\..\platform\libs\libplatform.a(update.o) (pf_read)
..\..\platform\libs\libdrivers.a(pff_fat.o)
                              ..\..\platform\libs\libdrivers.a(pff.o) (fclst_init)
..\..\platform\libs\libdrivers.a(usb_device_run_loop.o)
                              ..\..\platform\libs\libdrivers.a(pff.o) (ep2_isoc)
..\..\platform\libs\libdrivers.a(usb_device_storage.o)
                              ..\..\platform\libs\libdrivers.a(usb_device_run_loop.o) (uds_run_loop_execute)
..\..\platform\libs\libdrivers.a(usb_device_table.o)
                              ..\..\platform\libs\libdrivers.a(usb_device_run_loop.o) (desc_config_hid)
..\..\platform\libs\libdrivers.a(usb_host_manage.o)
                              ..\..\platform\libs\libplatform.a(device.o) (usb_host_init)
..\..\platform\libs\libdrivers.a(usb_host_storage.o)
                              ..\..\platform\libs\libdrivers.a(usb_host_manage.o) (uhs_start)
..\..\platform\libs\libdrivers.a(usb_comm.o)
                              ..\..\platform\libs\libdrivers.a(usb_host_storage.o) (usb_interrupt_disable)
..\..\platform\libs\libdrivers.a(usb_detect.o)
                              ..\..\platform\libs\libdrivers.a(usb_host_manage.o) (usbchk_switch_otg_device)
..\..\platform\libs\libdrivers.a(usb_device_audio.o)
                              ..\..\platform\libs\libdrivers.a(usb_device_run_loop.o) (uda_run_loop_execute)
..\..\platform\libs\libdrivers.a(usb_device_enum.o)
                              ..\..\platform\libs\libdrivers.a(usb_device_run_loop.o) (ude_run_loop_execute)
..\..\platform\libs\libdrivers.a(usb_device_ep.o)
                              ..\..\platform\libs\libdrivers.a(usb_device_audio.o) (usb_set_cur_ep)
..\..\platform\libs\libdrivers.a(usb_device_hid.o)
                              ..\..\platform\libs\libdrivers.a(usb_device_enum.o) (ude_hid_setvalid)
..\..\platform\libs\libdrivers.a(usb_host_enum.o)
                              ..\..\platform\libs\libdrivers.a(usb_host_manage.o) (uhe_start)
..\..\platform\libs\libcodecs.a(aviobuf.o)
                              ..\..\platform\libs\libplatform.a(music_res.o) (avio_get_sample_index)
..\..\platform\libs\libcodecs.a(codecs_com.o)
                              ..\..\platform\libs\libplatform.a(music.o) (codec_info)
..\..\platform\libs\libcodecs.a(drc.o)
                              ..\..\platform\libs\libplatform.a(dac.o) (drc_init)
..\..\platform\libs\libcodecs.a(s_drc.o)
                              ..\..\platform\libs\libcodecs.a(drc.o) (pow2_coef_cal_s)
..\..\platform\libs\libcodecs.a(wsola.o)
                              ..\..\platform\libs\libplatform.a(audio_echo.o) (magic_voice_init)
..\..\platform\libs\libcodecs.a(mp3_dec.o)
                              ..\..\platform\libs\libplatform.a(music.o) (mp3_get_total_time)
..\..\platform\libs\libcodecs.a(bt_sbc.o)
                              ..\..\platform\libs\libbtstack.a(avdtp.o) (sbc_cache_is_empty)
..\..\platform\libs\libcodecs.a(sbc.o)
                              ..\..\platform\libs\libbtstack.a(a2dp_play.o) (sbc_crc8)
..\..\platform\libs\libcodecs.a(sbc_dec.o)
                              ..\..\platform\libs\libcodecs.a(bt_sbc.o) (sbc_unpack_reset)
..\..\platform\libs\libcodecs.a(sbcen_io.o)
                              ..\..\platform\libs\libcodecs.a(bt_sbc.o) (sbcen_obuf)
..\..\platform\libs\libcodecs.a(avio.o)
                              ..\..\platform\libs\libcodecs.a(aviobuf.o) (swapw_buf)
..\..\platform\libs\libcodecs.a(s_wsola.o)
                              ..\..\platform\libs\libcodecs.a(wsola.o) (mav_pos_fast_s)
..\..\platform\libs\libcodecs.a(bit.o)
                              ..\..\platform\libs\libcodecs.a(mp3_dec.o) (mp3_stream_bit_init)
..\..\platform\libs\libcodecs.a(frame.o)
                              ..\..\platform\libs\libcodecs.a(mp3_dec.o) (mad_frame_finish)
..\..\platform\libs\libcodecs.a(layer12.o)
                              ..\..\platform\libs\libcodecs.a(frame.o) (mad_layer_I)
..\..\platform\libs\libcodecs.a(layer3.o)
                              ..\..\platform\libs\libcodecs.a(frame.o) (III_sideinfo)
..\..\platform\libs\libcodecs.a(huffman.o)
                              ..\..\platform\libs\libcodecs.a(layer3.o) (mad_huff_pair_table)

Allocating common symbols
Common symbol       size              file

uhe_0               0x28              ..\..\platform\libs\libdrivers.a(usb_host_manage.o)
pmutex_dac          0x4               ..\..\platform\libs\libplatform.a(startup.o)
tmr5ms_cnt          0x2               ..\..\platform\libs\libplatform.a(interrupt.o)
tws_ticks_env       0x24              ..\..\platform\libs\libbtstack.a(ext_tws.o)
bt_sco_rec_en       0x4               ..\..\platform\libs\libplatform.a(bt_rec.o)
iokey2_gpio         0x8               Output\obj\projects\earphone\port\port_key.o
sbcdec_frame        0x4               ..\..\platform\libs\libplatform.a(music.o)
pmutex_cm           0x4               ..\..\platform\libs\libplatform.a(startup.o)
psem_aubuf1         0x4               ..\..\platform\libs\libplatform.a(startup.o)
iokey1_gpio         0x8               Output\obj\projects\earphone\port\port_key.o
rf_cfg              0x8               Output\obj\platform\bsp\bsp_bt.o
btstack_cb          0x5               ..\..\platform\libs\libbtstack.a(btstack_api.o)
psem_src            0x4               ..\..\platform\libs\libplatform.a(startup.o)
win_buf             0x200             ..\..\platform\libs\libdrivers.a(diskio.o)
pmq_btstack         0x4               ..\..\platform\libs\libplatform.a(startup.o)
epcb1_tx            0x18              ..\..\platform\libs\libdrivers.a(usb_device_run_loop.o)
dac_avol_table      0x4               Output\obj\platform\bsp\bsp_dac.o
psem_usb            0x4               ..\..\platform\libs\libplatform.a(startup.o)
uds_0               0x34              ..\..\platform\libs\libdrivers.a(usb_device_run_loop.o)
temp_fifo_cnt       0x4               ..\..\platform\libs\libplatform.a(bt_aec.o)
iokey3_gpio         0x8               Output\obj\projects\earphone\port\port_key.o
unpack_header       0x4               ..\..\platform\libs\libcodecs.a(sbc_dec.o)
psem_sd             0x4               ..\..\platform\libs\libplatform.a(startup.o)
pmq_music           0x4               ..\..\platform\libs\libplatform.a(startup.o)
pmutex_pff          0x4               ..\..\platform\libs\libplatform.a(startup.o)
sum                 0x8               ..\..\platform\libs\libcodecs.a(drc.o)
f_ude               0x1               Output\obj\platform\functions\func_usbdev.o
sys                 0xc               ..\..\platform\libs\libplatform.a(main.o)
pmq_aupcm           0x4               ..\..\platform\libs\libplatform.a(startup.o)
bthw_soft_flag      0x4               ..\..\platform\libs\libplatform.a(bt.o)
usb_device_qualifier
                    0xa               ..\..\platform\libs\libdrivers.a(usb_device_enum.o)
bt_sbc_flag         0x4               ..\..\platform\libs\libcodecs.a(bt_sbc.o)
pmq_driver          0x4               ..\..\platform\libs\libplatform.a(startup.o)
tmr0_counter        0x4               ..\..\platform\libs\libplatform.a(interrupt.o)
bt_plc_buf          0x1e0             ..\..\platform\libs\libcodecs.a(bt_sbc.o)
epcb3_tx            0x18              ..\..\platform\libs\libdrivers.a(usb_device_run_loop.o)
udh_0               0x8               ..\..\platform\libs\libdrivers.a(usb_device_run_loop.o)
f_bt                0x6               Output\obj\platform\functions\func_bt.o
m_drc               0x38              ..\..\platform\libs\libcodecs.a(drc.o)
f_bt_ring           0x20              Output\obj\platform\functions\sfunc_bt_ring.o
temp_far_rptr       0x4               ..\..\platform\libs\libplatform.a(bt_aec.o)
micl2gnd_flag       0x4               Output\obj\platform\bsp\bsp_sys.o
psem_mschw          0x4               ..\..\platform\libs\libplatform.a(startup.o)
sbcen_cb            0x8               ..\..\platform\libs\libcodecs.a(sbcen_io.o)
user_timer_isr_en   0x4               ..\..\platform\libs\libplatform.a(startup.o)
epcb2_tx            0x18              ..\..\platform\libs\libdrivers.a(usb_device_run_loop.o)
stm_avio            0xc               ..\..\platform\libs\libplatform.a(stream.o)
mav_cb              0x28              ..\..\platform\libs\libcodecs.a(wsola.o)
plc_buf             0x654             ..\..\platform\libs\libbtstack.a(ext_plc.o)
bt_thread_res       0x4               ..\..\platform\libs\libplatform.a(bt.o)
kara_cb             0x28              ..\..\platform\libs\libplatform.a(audio_echo.o)
eq_dbg_cb           0x8               Output\obj\platform\bsp\bsp_eq.o
bt_timer_isr_en     0x4               ..\..\platform\libs\libplatform.a(startup.o)
box_cb              0xc               Output\obj\platform\gui\gui.o
eq_rx_buf           0x10e             Output\obj\platform\bsp\bsp_eq.o
psem_aec            0x4               ..\..\platform\libs\libplatform.a(startup.o)
psem_aubuf          0x4               ..\..\platform\libs\libplatform.a(startup.o)
epcb2_rx            0x18              ..\..\platform\libs\libdrivers.a(usb_device_run_loop.o)
linein_gpio         0x8               Output\obj\projects\earphone\port\port_linein.o
ms_tick             0x4               ..\..\platform\libs\libplatform.a(interrupt.o)
audio_src_cb        0x14              ..\..\platform\libs\libplatform.a(audio_src.o)
bt_rec_en           0x4               ..\..\platform\libs\libplatform.a(bt_rec.o)
psem_btstack        0x4               ..\..\platform\libs\libplatform.a(startup.o)
psem_plc            0x4               ..\..\platform\libs\libplatform.a(startup.o)
dac_dvol_table      0x4               Output\obj\platform\bsp\bsp_dac.o
p_hci_transport     0x4               ..\..\platform\libs\libbtstack.a(hci_transport_hcic.o)
iokey0_gpio         0x8               Output\obj\projects\earphone\port\port_key.o
sco_hci_rx_buf      0x3c0             ..\..\platform\libs\libbtstack.a(ext_sco.o)
pmutex_irtc         0x4               ..\..\platform\libs\libplatform.a(startup.o)
uhs_0               0x48              ..\..\platform\libs\libdrivers.a(usb_host_manage.o)
uda_0               0x10              ..\..\platform\libs\libdrivers.a(usb_device_run_loop.o)
fft_led_flag        0x4               Output\obj\projects\earphone\port\port_led.o
bt_src_done_flag    0x4               ..\..\platform\libs\libplatform.a(bt_rec.o)
epcb1_rx            0x18              ..\..\platform\libs\libdrivers.a(usb_device_run_loop.o)
hwble_env           0x24              ..\..\platform\libs\libbtstack.a(ble_con.o)
stm_cb              0x18              ..\..\platform\libs\libplatform.a(stream.o)
adc_linein_flag     0x4               Output\obj\projects\earphone\port\port_linein.o
psem_bthw           0x4               ..\..\platform\libs\libplatform.a(startup.o)
ude_0               0x28              ..\..\platform\libs\libdrivers.a(usb_device_run_loop.o)
sys_trim            0x8               ..\..\platform\libs\libplatform.a(voltage_trim.o)
psem_twshw          0x4               ..\..\platform\libs\libplatform.a(startup.o)
eps                 0x24              ..\..\platform\libs\libdrivers.a(usb_device_ep.o)
diskio              0x10              ..\..\platform\libs\libdrivers.a(diskio.o)
ext_plc_cb          0x44              ..\..\platform\libs\libbtstack.a(ext_plc.o)
iir_coef            0x38              ..\..\platform\libs\libplatform.a(audio_echo.o)
pmutex_uart         0x4               ..\..\platform\libs\libplatform.a(startup.o)
dsk_cb              0x4               ..\..\platform\libs\libdrivers.a(diskio.o)
xcfg_cb             0x119             Output\obj\platform\bsp\bsp_sys.o
dac_pow_level       0x1               Output\obj\projects\earphone\port\port_led.o
sdadc_cb            0x14              ..\..\platform\libs\libplatform.a(sdadc.o)
btstack_st          0x2c              ..\..\platform\libs\libbtstack.a(btstack_api.o)
src_isr_process     0x4               ..\..\platform\libs\libplatform.a(interrupt.o)
lun_0               0x18              ..\..\platform\libs\libdrivers.a(usb_device_run_loop.o)

Discarded input sections

 .text          0x0000000000000000        0x0 Output\obj\platform\bsp\bsp_audio.o
 .data          0x0000000000000000        0x0 Output\obj\platform\bsp\bsp_audio.o
 .bss           0x0000000000000000        0x0 Output\obj\platform\bsp\bsp_audio.o
 .text.get_aux_channel_cfg
                0x0000000000000000        0x4 Output\obj\platform\bsp\bsp_audio.o
 .text          0x0000000000000000        0x0 Output\obj\platform\bsp\bsp_aux.o
 .data          0x0000000000000000        0x0 Output\obj\platform\bsp\bsp_aux.o
 .bss           0x0000000000000000        0x0 Output\obj\platform\bsp\bsp_aux.o
 .text          0x0000000000000000        0x0 Output\obj\platform\bsp\bsp_ble.o
 .data          0x0000000000000000        0x0 Output\obj\platform\bsp\bsp_ble.o
 .bss           0x0000000000000000        0x0 Output\obj\platform\bsp\bsp_ble.o
 .comment       0x0000000000000000       0x12 Output\obj\platform\bsp\bsp_ble.o
 .text          0x0000000000000000        0x0 Output\obj\platform\bsp\bsp_bt.o
 .bss           0x0000000000000000        0x0 Output\obj\platform\bsp\bsp_bt.o
 .text.bsp_bt_close
                0x0000000000000000        0x2 Output\obj\platform\bsp\bsp_bt.o
 .text.bt_get_rf_param
                0x0000000000000000        0x4 Output\obj\platform\bsp\bsp_bt.o
 .sdata         0x0000000000000000        0xf Output\obj\platform\bsp\bsp_bt.o
 .text          0x0000000000000000        0x0 Output\obj\platform\bsp\bsp_car_audio.o
 .data          0x0000000000000000        0x0 Output\obj\platform\bsp\bsp_car_audio.o
 .bss           0x0000000000000000        0x0 Output\obj\platform\bsp\bsp_car_audio.o
 .comment       0x0000000000000000       0x12 Output\obj\platform\bsp\bsp_car_audio.o
 .text          0x0000000000000000        0x0 Output\obj\platform\bsp\bsp_charge.o
 .data          0x0000000000000000        0x0 Output\obj\platform\bsp\bsp_charge.o
 .bss           0x0000000000000000        0x0 Output\obj\platform\bsp\bsp_charge.o
 .text          0x0000000000000000        0x0 Output\obj\platform\bsp\bsp_cm.o
 .data          0x0000000000000000        0x0 Output\obj\platform\bsp\bsp_cm.o
 .bss           0x0000000000000000        0x0 Output\obj\platform\bsp\bsp_cm.o
 .text          0x0000000000000000        0x0 Output\obj\platform\bsp\bsp_dac.o
 .data          0x0000000000000000        0x0 Output\obj\platform\bsp\bsp_dac.o
 .bss           0x0000000000000000        0x0 Output\obj\platform\bsp\bsp_dac.o
 .text          0x0000000000000000        0x0 Output\obj\platform\bsp\bsp_eq.o
 .data          0x0000000000000000        0x0 Output\obj\platform\bsp\bsp_eq.o
 .text.huart_rx_done
                0x0000000000000000        0x2 Output\obj\platform\bsp\bsp_eq.o
 .text.huart_rx_set_dir
                0x0000000000000000        0x2 Output\obj\platform\bsp\bsp_eq.o
 .text.huart_tx_set_dir
                0x0000000000000000        0x2 Output\obj\platform\bsp\bsp_eq.o
 .text.music_bass_coef_set
                0x0000000000000000        0xa Output\obj\platform\bsp\bsp_eq.o
 .text.music_treble_coef_set
                0x0000000000000000        0xa Output\obj\platform\bsp\bsp_eq.o
 .text.wait_eq_set_done
                0x0000000000000000       0x36 Output\obj\platform\bsp\bsp_eq.o
 .sdata         0x0000000000000000        0x4 Output\obj\platform\bsp\bsp_eq.o
 .text          0x0000000000000000        0x0 Output\obj\platform\bsp\bsp_fmrx.o
 .data          0x0000000000000000        0x0 Output\obj\platform\bsp\bsp_fmrx.o
 .bss           0x0000000000000000        0x0 Output\obj\platform\bsp\bsp_fmrx.o
 .comment       0x0000000000000000       0x12 Output\obj\platform\bsp\bsp_fmrx.o
 .text          0x0000000000000000        0x0 Output\obj\platform\bsp\bsp_fmtx.o
 .data          0x0000000000000000        0x0 Output\obj\platform\bsp\bsp_fmtx.o
 .bss           0x0000000000000000        0x0 Output\obj\platform\bsp\bsp_fmtx.o
 .comment       0x0000000000000000       0x12 Output\obj\platform\bsp\bsp_fmtx.o
 .text          0x0000000000000000        0x0 Output\obj\platform\bsp\bsp_fs.o
 .data          0x0000000000000000        0x0 Output\obj\platform\bsp\bsp_fs.o
 .bss           0x0000000000000000        0x0 Output\obj\platform\bsp\bsp_fs.o
 .text          0x0000000000000000        0x0 Output\obj\platform\bsp\bsp_i2c.o
 .data          0x0000000000000000        0x0 Output\obj\platform\bsp\bsp_i2c.o
 .bss           0x0000000000000000        0x0 Output\obj\platform\bsp\bsp_i2c.o
 .comment       0x0000000000000000       0x12 Output\obj\platform\bsp\bsp_i2c.o
 .text          0x0000000000000000        0x0 Output\obj\platform\bsp\bsp_i2s.o
 .data          0x0000000000000000        0x0 Output\obj\platform\bsp\bsp_i2s.o
 .bss           0x0000000000000000        0x0 Output\obj\platform\bsp\bsp_i2s.o
 .comment       0x0000000000000000       0x12 Output\obj\platform\bsp\bsp_i2s.o
 .text          0x0000000000000000        0x0 Output\obj\platform\bsp\bsp_i2s_ta5711.o
 .data          0x0000000000000000        0x0 Output\obj\platform\bsp\bsp_i2s_ta5711.o
 .bss           0x0000000000000000        0x0 Output\obj\platform\bsp\bsp_i2s_ta5711.o
 .comment       0x0000000000000000       0x12 Output\obj\platform\bsp\bsp_i2s_ta5711.o
 .text          0x0000000000000000        0x0 Output\obj\platform\bsp\bsp_i2s_wm8978.o
 .data          0x0000000000000000        0x0 Output\obj\platform\bsp\bsp_i2s_wm8978.o
 .bss           0x0000000000000000        0x0 Output\obj\platform\bsp\bsp_i2s_wm8978.o
 .comment       0x0000000000000000       0x12 Output\obj\platform\bsp\bsp_i2s_wm8978.o
 .text          0x0000000000000000        0x0 Output\obj\platform\bsp\bsp_iap.o
 .data          0x0000000000000000        0x0 Output\obj\platform\bsp\bsp_iap.o
 .bss           0x0000000000000000        0x0 Output\obj\platform\bsp\bsp_iap.o
 .text.iphone_power_set
                0x0000000000000000       0x12 Output\obj\platform\bsp\bsp_iap.o
 .comment       0x0000000000000000       0x12 Output\obj\platform\bsp\bsp_iap.o
 .text          0x0000000000000000        0x0 Output\obj\platform\bsp\bsp_id3_tag.o
 .data          0x0000000000000000        0x0 Output\obj\platform\bsp\bsp_id3_tag.o
 .bss           0x0000000000000000        0x0 Output\obj\platform\bsp\bsp_id3_tag.o
 .comment       0x0000000000000000       0x12 Output\obj\platform\bsp\bsp_id3_tag.o
 .text          0x0000000000000000        0x0 Output\obj\platform\bsp\bsp_ir.o
 .data          0x0000000000000000        0x0 Output\obj\platform\bsp\bsp_ir.o
 .bss           0x0000000000000000        0x0 Output\obj\platform\bsp\bsp_ir.o
 .text.irrx_isr
                0x0000000000000000        0x2 Output\obj\platform\bsp\bsp_ir.o
 .comment       0x0000000000000000       0x12 Output\obj\platform\bsp\bsp_ir.o
 .text          0x0000000000000000        0x0 Output\obj\platform\bsp\bsp_karaok.o
 .data          0x0000000000000000        0x0 Output\obj\platform\bsp\bsp_karaok.o
 .bss           0x0000000000000000        0x0 Output\obj\platform\bsp\bsp_karaok.o
 .comment       0x0000000000000000       0x12 Output\obj\platform\bsp\bsp_karaok.o
 .text          0x0000000000000000        0x0 Output\obj\platform\bsp\bsp_key.o
 .data          0x0000000000000000        0x0 Output\obj\platform\bsp\bsp_key.o
 .bss           0x0000000000000000        0x0 Output\obj\platform\bsp\bsp_key.o
 .com_text.detect
                0x0000000000000000        0x2 Output\obj\platform\bsp\bsp_key.o
 .sdata         0x0000000000000000        0x6 Output\obj\platform\bsp\bsp_key.o
 .text          0x0000000000000000        0x0 Output\obj\platform\bsp\bsp_lcd.o
 .data          0x0000000000000000        0x0 Output\obj\platform\bsp\bsp_lcd.o
 .bss           0x0000000000000000        0x0 Output\obj\platform\bsp\bsp_lcd.o
 .comment       0x0000000000000000       0x12 Output\obj\platform\bsp\bsp_lcd.o
 .text          0x0000000000000000        0x0 Output\obj\platform\bsp\bsp_led.o
 .data          0x0000000000000000        0x0 Output\obj\platform\bsp\bsp_led.o
 .bss           0x0000000000000000        0x0 Output\obj\platform\bsp\bsp_led.o
 .text          0x0000000000000000        0x0 Output\obj\platform\bsp\bsp_music.o
 .data          0x0000000000000000        0x0 Output\obj\platform\bsp\bsp_music.o
 .bss           0x0000000000000000        0x0 Output\obj\platform\bsp\bsp_music.o
 .text          0x0000000000000000        0x0 Output\obj\platform\bsp\bsp_param.o
 .data          0x0000000000000000        0x0 Output\obj\platform\bsp\bsp_param.o
 .bss           0x0000000000000000        0x0 Output\obj\platform\bsp\bsp_param.o
 .text          0x0000000000000000        0x0 Output\obj\platform\bsp\bsp_record.o
 .data          0x0000000000000000        0x0 Output\obj\platform\bsp\bsp_record.o
 .bss           0x0000000000000000        0x0 Output\obj\platform\bsp\bsp_record.o
 .comment       0x0000000000000000       0x12 Output\obj\platform\bsp\bsp_record.o
 .text          0x0000000000000000        0x0 Output\obj\platform\bsp\bsp_spp.o
 .data          0x0000000000000000        0x0 Output\obj\platform\bsp\bsp_spp.o
 .bss           0x0000000000000000        0x0 Output\obj\platform\bsp\bsp_spp.o
 .text          0x0000000000000000        0x0 Output\obj\platform\bsp\bsp_sys.o
 .data          0x0000000000000000        0x0 Output\obj\platform\bsp\bsp_sys.o
 .bss           0x0000000000000000        0x0 Output\obj\platform\bsp\bsp_sys.o
 .text          0x0000000000000000        0x0 Output\obj\platform\bsp\fmrx\fmrx_external.o
 .data          0x0000000000000000        0x0 Output\obj\platform\bsp\fmrx\fmrx_external.o
 .bss           0x0000000000000000        0x0 Output\obj\platform\bsp\fmrx\fmrx_external.o
 .comment       0x0000000000000000       0x12 Output\obj\platform\bsp\fmrx\fmrx_external.o
 .text          0x0000000000000000        0x0 Output\obj\platform\bsp\fmrx\qn8035.o
 .data          0x0000000000000000        0x0 Output\obj\platform\bsp\fmrx\qn8035.o
 .bss           0x0000000000000000        0x0 Output\obj\platform\bsp\fmrx\qn8035.o
 .comment       0x0000000000000000       0x12 Output\obj\platform\bsp\fmrx\qn8035.o
 .text          0x0000000000000000        0x0 Output\obj\platform\functions\func.o
 .data          0x0000000000000000        0x0 Output\obj\platform\functions\func.o
 .bss           0x0000000000000000        0x0 Output\obj\platform\functions\func.o
 .text          0x0000000000000000        0x0 Output\obj\platform\functions\func_aux.o
 .data          0x0000000000000000        0x0 Output\obj\platform\functions\func_aux.o
 .bss           0x0000000000000000        0x0 Output\obj\platform\functions\func_aux.o
 .comment       0x0000000000000000       0x12 Output\obj\platform\functions\func_aux.o
 .text          0x0000000000000000        0x0 Output\obj\platform\functions\func_bt.o
 .data          0x0000000000000000        0x0 Output\obj\platform\functions\func_bt.o
 .bss           0x0000000000000000        0x0 Output\obj\platform\functions\func_bt.o
 .text          0x0000000000000000        0x0 Output\obj\platform\functions\func_bt_hid.o
 .data          0x0000000000000000        0x0 Output\obj\platform\functions\func_bt_hid.o
 .bss           0x0000000000000000        0x0 Output\obj\platform\functions\func_bt_hid.o
 .text          0x0000000000000000        0x0 Output\obj\platform\functions\func_clock.o
 .data          0x0000000000000000        0x0 Output\obj\platform\functions\func_clock.o
 .bss           0x0000000000000000        0x0 Output\obj\platform\functions\func_clock.o
 .comment       0x0000000000000000       0x12 Output\obj\platform\functions\func_clock.o
 .text          0x0000000000000000        0x0 Output\obj\platform\functions\func_fmam_freq.o
 .data          0x0000000000000000        0x0 Output\obj\platform\functions\func_fmam_freq.o
 .bss           0x0000000000000000        0x0 Output\obj\platform\functions\func_fmam_freq.o
 .comment       0x0000000000000000       0x12 Output\obj\platform\functions\func_fmam_freq.o
 .text          0x0000000000000000        0x0 Output\obj\platform\functions\func_fmrx.o
 .data          0x0000000000000000        0x0 Output\obj\platform\functions\func_fmrx.o
 .bss           0x0000000000000000        0x0 Output\obj\platform\functions\func_fmrx.o
 .text          0x0000000000000000        0x0 Output\obj\platform\functions\func_idle.o
 .data          0x0000000000000000        0x0 Output\obj\platform\functions\func_idle.o
 .bss           0x0000000000000000        0x0 Output\obj\platform\functions\func_idle.o
 .comment       0x0000000000000000       0x12 Output\obj\platform\functions\func_idle.o
 .text          0x0000000000000000        0x0 Output\obj\platform\functions\func_lowpwr.o
 .data          0x0000000000000000        0x0 Output\obj\platform\functions\func_lowpwr.o
 .bss           0x0000000000000000        0x0 Output\obj\platform\functions\func_lowpwr.o
 .text          0x0000000000000000        0x0 Output\obj\platform\functions\func_music.o
 .data          0x0000000000000000        0x0 Output\obj\platform\functions\func_music.o
 .bss           0x0000000000000000        0x0 Output\obj\platform\functions\func_music.o
 .text          0x0000000000000000        0x0 Output\obj\platform\functions\func_speaker.o
 .data          0x0000000000000000        0x0 Output\obj\platform\functions\func_speaker.o
 .bss           0x0000000000000000        0x0 Output\obj\platform\functions\func_speaker.o
 .comment       0x0000000000000000       0x12 Output\obj\platform\functions\func_speaker.o
 .text          0x0000000000000000        0x0 Output\obj\platform\functions\func_update.o
 .data          0x0000000000000000        0x0 Output\obj\platform\functions\func_update.o
 .bss           0x0000000000000000        0x0 Output\obj\platform\functions\func_update.o
 .comment       0x0000000000000000       0x12 Output\obj\platform\functions\func_update.o
 .text          0x0000000000000000        0x0 Output\obj\platform\functions\func_usbdev.o
 .data          0x0000000000000000        0x0 Output\obj\platform\functions\func_usbdev.o
 .bss           0x0000000000000000        0x0 Output\obj\platform\functions\func_usbdev.o
 .comment       0x0000000000000000       0x12 Output\obj\platform\functions\func_usbdev.o
 COMMON         0x0000000000000000        0x1 Output\obj\platform\functions\func_usbdev.o
 .text          0x0000000000000000        0x0 Output\obj\platform\functions\sfunc_bt_call.o
 .data          0x0000000000000000        0x0 Output\obj\platform\functions\sfunc_bt_call.o
 .bss           0x0000000000000000        0x0 Output\obj\platform\functions\sfunc_bt_call.o
 .text          0x0000000000000000        0x0 Output\obj\platform\functions\sfunc_bt_ota.o
 .data          0x0000000000000000        0x0 Output\obj\platform\functions\sfunc_bt_ota.o
 .bss           0x0000000000000000        0x0 Output\obj\platform\functions\sfunc_bt_ota.o
 .text          0x0000000000000000        0x0 Output\obj\platform\functions\sfunc_bt_ring.o
 .data          0x0000000000000000        0x0 Output\obj\platform\functions\sfunc_bt_ring.o
 .bss           0x0000000000000000        0x0 Output\obj\platform\functions\sfunc_bt_ring.o
 .text          0x0000000000000000        0x0 Output\obj\platform\functions\sfunc_record.o
 .data          0x0000000000000000        0x0 Output\obj\platform\functions\sfunc_record.o
 .bss           0x0000000000000000        0x0 Output\obj\platform\functions\sfunc_record.o
 .com_text.func.record
                0x0000000000000000        0x8 Output\obj\platform\functions\sfunc_record.o
 .text          0x0000000000000000        0x0 Output\obj\platform\gui\gui.o
 .data          0x0000000000000000        0x0 Output\obj\platform\gui\gui.o
 .bss           0x0000000000000000        0x0 Output\obj\platform\gui\gui.o
 .text.gui_box_flicker_clr
                0x0000000000000000       0x1a Output\obj\platform\gui\gui.o
 .text          0x0000000000000000        0x0 Output\obj\platform\gui\ledseg\ledseg_7p7s.o
 .data          0x0000000000000000        0x0 Output\obj\platform\gui\ledseg\ledseg_7p7s.o
 .bss           0x0000000000000000        0x0 Output\obj\platform\gui\ledseg\ledseg_7p7s.o
 .comment       0x0000000000000000       0x12 Output\obj\platform\gui\ledseg\ledseg_7p7s.o
 .text          0x0000000000000000        0x0 Output\obj\platform\gui\ledseg\ledseg_common.o
 .data          0x0000000000000000        0x0 Output\obj\platform\gui\ledseg\ledseg_common.o
 .bss           0x0000000000000000        0x0 Output\obj\platform\gui\ledseg\ledseg_common.o
 .comment       0x0000000000000000       0x12 Output\obj\platform\gui\ledseg\ledseg_common.o
 .text          0x0000000000000000        0x0 Output\obj\platform\libs\strong_symbol.o
 .data          0x0000000000000000        0x0 Output\obj\platform\libs\strong_symbol.o
 .bss           0x0000000000000000        0x0 Output\obj\platform\libs\strong_symbol.o
 .text.usb_dev_isr
                0x0000000000000000        0x2 Output\obj\platform\libs\strong_symbol.o
 .text.lock_code_usbdev
                0x0000000000000000        0x2 Output\obj\platform\libs\strong_symbol.o
 .text.mp3en_process
                0x0000000000000000        0x2 Output\obj\platform\libs\strong_symbol.o
 .text.lock_code_mp3enc
                0x0000000000000000        0x2 Output\obj\platform\libs\strong_symbol.o
 .text.mpa_encode_process
                0x0000000000000000        0x2 Output\obj\platform\libs\strong_symbol.o
 .text.lock_code_mp2enc
                0x0000000000000000        0x2 Output\obj\platform\libs\strong_symbol.o
 .text.unlock_code_mp2enc
                0x0000000000000000        0x2 Output\obj\platform\libs\strong_symbol.o
 .text.mp2_encode_frame
                0x0000000000000000        0x4 Output\obj\platform\libs\strong_symbol.o
 .text.lock_code_karaok
                0x0000000000000000        0x4 Output\obj\platform\libs\strong_symbol.o
 .text.unlock_code_karaok
                0x0000000000000000        0x2 Output\obj\platform\libs\strong_symbol.o
 .text.sbc_encode_init
                0x0000000000000000        0x4 Output\obj\platform\libs\strong_symbol.o
 .text.fmrx_rec_start
                0x0000000000000000        0x2 Output\obj\platform\libs\strong_symbol.o
 .text.fmrx_rec_stop
                0x0000000000000000        0x2 Output\obj\platform\libs\strong_symbol.o
 .text.fmrx_rec_enable
                0x0000000000000000        0x2 Output\obj\platform\libs\strong_symbol.o
 .text.sd0_init
                0x0000000000000000        0x4 Output\obj\platform\libs\strong_symbol.o
 .text.sd0_read
                0x0000000000000000        0x4 Output\obj\platform\libs\strong_symbol.o
 .text.sd0_write
                0x0000000000000000        0x4 Output\obj\platform\libs\strong_symbol.o
 .text.huart_init
                0x0000000000000000        0x2 Output\obj\platform\libs\strong_symbol.o
 .text.mav_kick_start
                0x0000000000000000        0x2 Output\obj\platform\libs\strong_symbol.o
 .text.spdif_smprate_detect
                0x0000000000000000        0x4 Output\obj\platform\libs\strong_symbol.o
 .text.spdif_isr
                0x0000000000000000        0x2 Output\obj\platform\libs\strong_symbol.o
 .text          0x0000000000000000        0x0 Output\obj\projects\earphone\config.o
 .data          0x0000000000000000        0x0 Output\obj\projects\earphone\config.o
 .bss           0x0000000000000000        0x0 Output\obj\projects\earphone\config.o
 .text          0x0000000000000000        0x0 Output\obj\projects\earphone\display\display_aux.o
 .data          0x0000000000000000        0x0 Output\obj\projects\earphone\display\display_aux.o
 .bss           0x0000000000000000        0x0 Output\obj\projects\earphone\display\display_aux.o
 .comment       0x0000000000000000       0x12 Output\obj\projects\earphone\display\display_aux.o
 .text          0x0000000000000000        0x0 Output\obj\projects\earphone\display\display_bt.o
 .data          0x0000000000000000        0x0 Output\obj\projects\earphone\display\display_bt.o
 .bss           0x0000000000000000        0x0 Output\obj\projects\earphone\display\display_bt.o
 .comment       0x0000000000000000       0x12 Output\obj\projects\earphone\display\display_bt.o
 .text          0x0000000000000000        0x0 Output\obj\projects\earphone\display\display_clock.o
 .data          0x0000000000000000        0x0 Output\obj\projects\earphone\display\display_clock.o
 .bss           0x0000000000000000        0x0 Output\obj\projects\earphone\display\display_clock.o
 .comment       0x0000000000000000       0x12 Output\obj\projects\earphone\display\display_clock.o
 .text          0x0000000000000000        0x0 Output\obj\projects\earphone\display\display_fmam_freq.o
 .data          0x0000000000000000        0x0 Output\obj\projects\earphone\display\display_fmam_freq.o
 .bss           0x0000000000000000        0x0 Output\obj\projects\earphone\display\display_fmam_freq.o
 .comment       0x0000000000000000       0x12 Output\obj\projects\earphone\display\display_fmam_freq.o
 .text          0x0000000000000000        0x0 Output\obj\projects\earphone\display\display_fmrx.o
 .data          0x0000000000000000        0x0 Output\obj\projects\earphone\display\display_fmrx.o
 .bss           0x0000000000000000        0x0 Output\obj\projects\earphone\display\display_fmrx.o
 .comment       0x0000000000000000       0x12 Output\obj\projects\earphone\display\display_fmrx.o
 .text          0x0000000000000000        0x0 Output\obj\projects\earphone\display\display_idle.o
 .data          0x0000000000000000        0x0 Output\obj\projects\earphone\display\display_idle.o
 .bss           0x0000000000000000        0x0 Output\obj\projects\earphone\display\display_idle.o
 .comment       0x0000000000000000       0x12 Output\obj\projects\earphone\display\display_idle.o
 .text          0x0000000000000000        0x0 Output\obj\projects\earphone\display\display_music.o
 .data          0x0000000000000000        0x0 Output\obj\projects\earphone\display\display_music.o
 .bss           0x0000000000000000        0x0 Output\obj\projects\earphone\display\display_music.o
 .comment       0x0000000000000000       0x12 Output\obj\projects\earphone\display\display_music.o
 .text          0x0000000000000000        0x0 Output\obj\projects\earphone\display\display_record.o
 .data          0x0000000000000000        0x0 Output\obj\projects\earphone\display\display_record.o
 .bss           0x0000000000000000        0x0 Output\obj\projects\earphone\display\display_record.o
 .comment       0x0000000000000000       0x12 Output\obj\projects\earphone\display\display_record.o
 .text          0x0000000000000000        0x0 Output\obj\projects\earphone\display\display_speaker.o
 .data          0x0000000000000000        0x0 Output\obj\projects\earphone\display\display_speaker.o
 .bss           0x0000000000000000        0x0 Output\obj\projects\earphone\display\display_speaker.o
 .comment       0x0000000000000000       0x12 Output\obj\projects\earphone\display\display_speaker.o
 .text          0x0000000000000000        0x0 Output\obj\projects\earphone\display\display_usbdev.o
 .data          0x0000000000000000        0x0 Output\obj\projects\earphone\display\display_usbdev.o
 .bss           0x0000000000000000        0x0 Output\obj\projects\earphone\display\display_usbdev.o
 .comment       0x0000000000000000       0x12 Output\obj\projects\earphone\display\display_usbdev.o
 .text          0x0000000000000000        0x0 Output\obj\projects\earphone\display\ledseg\display_ledseg.o
 .data          0x0000000000000000        0x0 Output\obj\projects\earphone\display\ledseg\display_ledseg.o
 .bss           0x0000000000000000        0x0 Output\obj\projects\earphone\display\ledseg\display_ledseg.o
 .comment       0x0000000000000000       0x12 Output\obj\projects\earphone\display\ledseg\display_ledseg.o
 .text          0x0000000000000000        0x0 Output\obj\projects\earphone\main.o
 .data          0x0000000000000000        0x0 Output\obj\projects\earphone\main.o
 .bss           0x0000000000000000        0x0 Output\obj\projects\earphone\main.o
 .text.get_test_sbc_addr
                0x0000000000000000        0x4 Output\obj\projects\earphone\main.o
 .text.get_test_sbc_len
                0x0000000000000000        0x4 Output\obj\projects\earphone\main.o
 .text          0x0000000000000000        0x0 Output\obj\projects\earphone\message\msg_aux.o
 .data          0x0000000000000000        0x0 Output\obj\projects\earphone\message\msg_aux.o
 .bss           0x0000000000000000        0x0 Output\obj\projects\earphone\message\msg_aux.o
 .comment       0x0000000000000000       0x12 Output\obj\projects\earphone\message\msg_aux.o
 .text          0x0000000000000000        0x0 Output\obj\projects\earphone\message\msg_bt.o
 .data          0x0000000000000000        0x0 Output\obj\projects\earphone\message\msg_bt.o
 .bss           0x0000000000000000        0x0 Output\obj\projects\earphone\message\msg_bt.o
 .text          0x0000000000000000        0x0 Output\obj\projects\earphone\message\msg_clock.o
 .data          0x0000000000000000        0x0 Output\obj\projects\earphone\message\msg_clock.o
 .bss           0x0000000000000000        0x0 Output\obj\projects\earphone\message\msg_clock.o
 .comment       0x0000000000000000       0x12 Output\obj\projects\earphone\message\msg_clock.o
 .text          0x0000000000000000        0x0 Output\obj\projects\earphone\message\msg_fmam_freq.o
 .data          0x0000000000000000        0x0 Output\obj\projects\earphone\message\msg_fmam_freq.o
 .bss           0x0000000000000000        0x0 Output\obj\projects\earphone\message\msg_fmam_freq.o
 .comment       0x0000000000000000       0x12 Output\obj\projects\earphone\message\msg_fmam_freq.o
 .text          0x0000000000000000        0x0 Output\obj\projects\earphone\message\msg_fmrx.o
 .data          0x0000000000000000        0x0 Output\obj\projects\earphone\message\msg_fmrx.o
 .bss           0x0000000000000000        0x0 Output\obj\projects\earphone\message\msg_fmrx.o
 .comment       0x0000000000000000       0x12 Output\obj\projects\earphone\message\msg_fmrx.o
 .text          0x0000000000000000        0x0 Output\obj\projects\earphone\message\msg_idle.o
 .data          0x0000000000000000        0x0 Output\obj\projects\earphone\message\msg_idle.o
 .bss           0x0000000000000000        0x0 Output\obj\projects\earphone\message\msg_idle.o
 .comment       0x0000000000000000       0x12 Output\obj\projects\earphone\message\msg_idle.o
 .text          0x0000000000000000        0x0 Output\obj\projects\earphone\message\msg_music.o
 .data          0x0000000000000000        0x0 Output\obj\projects\earphone\message\msg_music.o
 .bss           0x0000000000000000        0x0 Output\obj\projects\earphone\message\msg_music.o
 .comment       0x0000000000000000       0x12 Output\obj\projects\earphone\message\msg_music.o
 .text          0x0000000000000000        0x0 Output\obj\projects\earphone\message\msg_record.o
 .data          0x0000000000000000        0x0 Output\obj\projects\earphone\message\msg_record.o
 .bss           0x0000000000000000        0x0 Output\obj\projects\earphone\message\msg_record.o
 .comment       0x0000000000000000       0x12 Output\obj\projects\earphone\message\msg_record.o
 .text          0x0000000000000000        0x0 Output\obj\projects\earphone\message\msg_speaker.o
 .data          0x0000000000000000        0x0 Output\obj\projects\earphone\message\msg_speaker.o
 .bss           0x0000000000000000        0x0 Output\obj\projects\earphone\message\msg_speaker.o
 .comment       0x0000000000000000       0x12 Output\obj\projects\earphone\message\msg_speaker.o
 .text          0x0000000000000000        0x0 Output\obj\projects\earphone\message\msg_usbdev.o
 .data          0x0000000000000000        0x0 Output\obj\projects\earphone\message\msg_usbdev.o
 .bss           0x0000000000000000        0x0 Output\obj\projects\earphone\message\msg_usbdev.o
 .comment       0x0000000000000000       0x12 Output\obj\projects\earphone\message\msg_usbdev.o
 .text          0x0000000000000000        0x0 Output\obj\projects\earphone\plugin\eq_table.o
 .data          0x0000000000000000        0x0 Output\obj\projects\earphone\plugin\eq_table.o
 .bss           0x0000000000000000        0x0 Output\obj\projects\earphone\plugin\eq_table.o
 .text          0x0000000000000000        0x0 Output\obj\projects\earphone\plugin\multi_lang.o
 .data          0x0000000000000000        0x0 Output\obj\projects\earphone\plugin\multi_lang.o
 .bss           0x0000000000000000        0x0 Output\obj\projects\earphone\plugin\multi_lang.o
 .text          0x0000000000000000        0x0 Output\obj\projects\earphone\plugin\plugin.o
 .data          0x0000000000000000        0x0 Output\obj\projects\earphone\plugin\plugin.o
 .bss           0x0000000000000000        0x0 Output\obj\projects\earphone\plugin\plugin.o
 .text          0x0000000000000000        0x0 Output\obj\projects\earphone\port\port_ir.o
 .data          0x0000000000000000        0x0 Output\obj\projects\earphone\port\port_ir.o
 .bss           0x0000000000000000        0x0 Output\obj\projects\earphone\port\port_ir.o
 .comment       0x0000000000000000       0x12 Output\obj\projects\earphone\port\port_ir.o
 .text          0x0000000000000000        0x0 Output\obj\projects\earphone\port\port_key.o
 .data          0x0000000000000000        0x0 Output\obj\projects\earphone\port\port_key.o
 .bss           0x0000000000000000        0x0 Output\obj\projects\earphone\port\port_key.o
 .text          0x0000000000000000        0x0 Output\obj\projects\earphone\port\port_led.o
 .data          0x0000000000000000        0x0 Output\obj\projects\earphone\port\port_led.o
 .bss           0x0000000000000000        0x0 Output\obj\projects\earphone\port\port_led.o
 .text          0x0000000000000000        0x0 Output\obj\projects\earphone\port\port_ledseg.o
 .data          0x0000000000000000        0x0 Output\obj\projects\earphone\port\port_ledseg.o
 .bss           0x0000000000000000        0x0 Output\obj\projects\earphone\port\port_ledseg.o
 .comment       0x0000000000000000       0x12 Output\obj\projects\earphone\port\port_ledseg.o
 .text          0x0000000000000000        0x0 Output\obj\projects\earphone\port\port_linein.o
 .data          0x0000000000000000        0x0 Output\obj\projects\earphone\port\port_linein.o
 .bss           0x0000000000000000        0x0 Output\obj\projects\earphone\port\port_linein.o
 .text          0x0000000000000000        0x0 Output\obj\projects\earphone\port\port_mute.o
 .data          0x0000000000000000        0x0 Output\obj\projects\earphone\port\port_mute.o
 .bss           0x0000000000000000        0x0 Output\obj\projects\earphone\port\port_mute.o
 .text          0x0000000000000000        0x0 Output\obj\projects\earphone\port\port_pwm.o
 .data          0x0000000000000000        0x0 Output\obj\projects\earphone\port\port_pwm.o
 .bss           0x0000000000000000        0x0 Output\obj\projects\earphone\port\port_pwm.o
 .comment       0x0000000000000000       0x12 Output\obj\projects\earphone\port\port_pwm.o
 .text          0x0000000000000000        0x0 Output\obj\projects\earphone\port\port_sd.o
 .data          0x0000000000000000        0x0 Output\obj\projects\earphone\port\port_sd.o
 .bss           0x0000000000000000        0x0 Output\obj\projects\earphone\port\port_sd.o
 .com_text.sdio.init
                0x0000000000000000        0x2 Output\obj\projects\earphone\port\port_sd.o
 .comment       0x0000000000000000       0x12 Output\obj\projects\earphone\port\port_sd.o
 .text          0x0000000000000000        0x0 Output\obj\projects\earphone\port\port_update.o
 .data          0x0000000000000000        0x0 Output\obj\projects\earphone\port\port_update.o
 .bss           0x0000000000000000        0x0 Output\obj\projects\earphone\port\port_update.o
 .text          0x0000000000000000        0x0 ..\..\platform\libs\libplatform.a(audio.o)
 .data          0x0000000000000000        0x0 ..\..\platform\libs\libplatform.a(audio.o)
 .bss           0x0000000000000000        0x0 ..\..\platform\libs\libplatform.a(audio.o)
 .wmadec.windows
                0x0000000000000000       0x64 ..\..\platform\libs\libplatform.a(audio.o)
 .usbdev.com    0x0000000000000000       0x48 ..\..\platform\libs\libplatform.a(audio.o)
 .text          0x0000000000000000        0x0 ..\..\platform\libs\libplatform.a(audio_echo.o)
 .data          0x0000000000000000        0x0 ..\..\platform\libs\libplatform.a(audio_echo.o)
 .com_text.sdadc
                0x0000000000000000      0x4c4 ..\..\platform\libs\libplatform.a(audio_echo.o)
 .text.func.speaker
                0x0000000000000000       0xc2 ..\..\platform\libs\libplatform.a(audio_echo.o)
 .com_text.func.speaker
                0x0000000000000000       0xa6 ..\..\platform\libs\libplatform.a(audio_echo.o)
 .text.iir_lp_filter_init
                0x0000000000000000       0x50 ..\..\platform\libs\libplatform.a(audio_echo.o)
 .text.thread_echo_set_priority
                0x0000000000000000       0x10 ..\..\platform\libs\libplatform.a(audio_echo.o)
 .text.rec_no_echo_fun
                0x0000000000000000        0xa ..\..\platform\libs\libplatform.a(audio_echo.o)
 .text.karaok_mic_first_music_vol_fade_enable
                0x0000000000000000       0x18 ..\..\platform\libs\libplatform.a(audio_echo.o)
 .text.karaok_mic_first_music_vol_fade_disable
                0x0000000000000000        0xa ..\..\platform\libs\libplatform.a(audio_echo.o)
 .text.karaok   0x0000000000000000      0x3a6 ..\..\platform\libs\libplatform.a(audio_echo.o)
 .text.func.process
                0x0000000000000000       0xec ..\..\platform\libs\libplatform.a(audio_echo.o)
 .text.karaok_voice_rm_enable
                0x0000000000000000       0x5a ..\..\platform\libs\libplatform.a(audio_echo.o)
 .text.karaok_voice_rm_disable
                0x0000000000000000       0x38 ..\..\platform\libs\libplatform.a(audio_echo.o)
 .text.karaok_voice_rm_switch
                0x0000000000000000       0x1c ..\..\platform\libs\libplatform.a(audio_echo.o)
 .text.karaok_get_voice_rm_sta
                0x0000000000000000        0xc ..\..\platform\libs\libplatform.a(audio_echo.o)
 .com_text.karaok
                0x0000000000000000       0x14 ..\..\platform\libs\libplatform.a(audio_echo.o)
 .text.karaok_aux_rec_enable
                0x0000000000000000       0x12 ..\..\platform\libs\libplatform.a(audio_echo.o)
 .text.karaok_aux_rec_disable
                0x0000000000000000       0x10 ..\..\platform\libs\libplatform.a(audio_echo.o)
 .text.karaok_fmrx_rec_enable
                0x0000000000000000       0x12 ..\..\platform\libs\libplatform.a(audio_echo.o)
 .text.karaok_fmrx_rec_disable
                0x0000000000000000       0x10 ..\..\platform\libs\libplatform.a(audio_echo.o)
 .com_text.karaok.rec
                0x0000000000000000       0xc4 ..\..\platform\libs\libplatform.a(audio_echo.o)
 .text.karaok_rec_init
                0x0000000000000000       0x34 ..\..\platform\libs\libplatform.a(audio_echo.o)
 .text.kara_rec_stop
                0x0000000000000000       0x10 ..\..\platform\libs\libplatform.a(audio_echo.o)
 .text.kara_rec_start
                0x0000000000000000       0x12 ..\..\platform\libs\libplatform.a(audio_echo.o)
 .text.kara_sco_start
                0x0000000000000000       0x14 ..\..\platform\libs\libplatform.a(audio_echo.o)
 .text.kara_sco_stop
                0x0000000000000000        0xa ..\..\platform\libs\libplatform.a(audio_echo.o)
 .com_rodata.str
                0x0000000000000000        0x2 ..\..\platform\libs\libplatform.a(audio_echo.o)
 .rec.obuf      0x0000000000000000      0x806 ..\..\platform\libs\libplatform.a(audio_echo.o)
 .text          0x0000000000000000        0x0 ..\..\platform\libs\libplatform.a(audio_eq.o)
 .data          0x0000000000000000        0x0 ..\..\platform\libs\libplatform.a(audio_eq.o)
 .bss           0x0000000000000000        0x0 ..\..\platform\libs\libplatform.a(audio_eq.o)
 .text.sdadc.eq
                0x0000000000000000      0x470 ..\..\platform\libs\libplatform.a(audio_eq.o)
 .text.eq.fix   0x0000000000000000        0xa ..\..\platform\libs\libplatform.a(audio_eq.o)
 .text.eq.mic   0x0000000000000000      0x31c ..\..\platform\libs\libplatform.a(audio_eq.o)
 .text.digital_vol_set_before_eq
                0x0000000000000000       0x18 ..\..\platform\libs\libplatform.a(audio_eq.o)
 .com_text.eq   0x0000000000000000       0x2c ..\..\platform\libs\libplatform.a(audio_eq.o)
 .text.uart     0x0000000000000000       0x44 ..\..\platform\libs\libplatform.a(audio_eq.o)
 .com_text.eq.isr
                0x0000000000000000       0x7c ..\..\platform\libs\libplatform.a(audio_eq.o)
 .text.huart_eq_init
                0x0000000000000000       0x9a ..\..\platform\libs\libplatform.a(audio_eq.o)
 .text          0x0000000000000000        0x0 ..\..\platform\libs\libplatform.a(audio_src.o)
 .data          0x0000000000000000        0x0 ..\..\platform\libs\libplatform.a(audio_src.o)
 .bss           0x0000000000000000        0x0 ..\..\platform\libs\libplatform.a(audio_src.o)
 .com_text.audio
                0x0000000000000000      0x136 ..\..\platform\libs\libplatform.a(audio_src.o)
 .text.audio    0x0000000000000000       0x88 ..\..\platform\libs\libplatform.a(audio_src.o)
 .debug_frame   0x0000000000000000      0x100 ..\..\platform\libs\libplatform.a(audio_src.o)
 .debug_info    0x0000000000000000      0xd91 ..\..\platform\libs\libplatform.a(audio_src.o)
 .debug_abbrev  0x0000000000000000      0x2cc ..\..\platform\libs\libplatform.a(audio_src.o)
 .debug_loc     0x0000000000000000      0x14b ..\..\platform\libs\libplatform.a(audio_src.o)
 .debug_aranges
                0x0000000000000000       0x50 ..\..\platform\libs\libplatform.a(audio_src.o)
 .debug_ranges  0x0000000000000000       0x40 ..\..\platform\libs\libplatform.a(audio_src.o)
 .debug_line    0x0000000000000000      0x293 ..\..\platform\libs\libplatform.a(audio_src.o)
 .debug_str     0x0000000000000000      0x82e ..\..\platform\libs\libplatform.a(audio_src.o)
 .comment       0x0000000000000000       0x12 ..\..\platform\libs\libplatform.a(audio_src.o)
 COMMON         0x0000000000000000       0x14 ..\..\platform\libs\libplatform.a(audio_src.o)
 .text          0x0000000000000000        0x0 ..\..\platform\libs\libplatform.a(dac.o)
 .data          0x0000000000000000        0x0 ..\..\platform\libs\libplatform.a(dac.o)
 .bss           0x0000000000000000        0x0 ..\..\platform\libs\libplatform.a(dac.o)
 .text.dac.hiz  0x0000000000000000       0x78 ..\..\platform\libs\libplatform.a(dac.o)
 .text.dac_drc_exit
                0x0000000000000000        0xa ..\..\platform\libs\libplatform.a(dac.o)
 .text          0x0000000000000000        0x0 ..\..\platform\libs\libplatform.a(dac_dnr.o)
 .data          0x0000000000000000        0x0 ..\..\platform\libs\libplatform.a(dac_dnr.o)
 .text          0x0000000000000000        0x0 ..\..\platform\libs\libplatform.a(s_dac.o)
 .data          0x0000000000000000        0x0 ..\..\platform\libs\libplatform.a(s_dac.o)
 .bss           0x0000000000000000        0x0 ..\..\platform\libs\libplatform.a(s_dac.o)
 .com_text.iir  0x0000000000000000       0x6c ..\..\platform\libs\libplatform.a(s_dac.o)
 .text          0x0000000000000000        0x0 ..\..\platform\libs\libplatform.a(sdadc.o)
 .data          0x0000000000000000        0x0 ..\..\platform\libs\libplatform.a(sdadc.o)
 .bss           0x0000000000000000        0x0 ..\..\platform\libs\libplatform.a(sdadc.o)
 .text          0x0000000000000000        0x0 ..\..\platform\libs\libplatform.a(bt.o)
 .data          0x0000000000000000        0x0 ..\..\platform\libs\libplatform.a(bt.o)
 .bss           0x0000000000000000        0x0 ..\..\platform\libs\libplatform.a(bt.o)
 .text.btstack_tws_is_need_discon
                0x0000000000000000        0x4 ..\..\platform\libs\libplatform.a(bt.o)
 .text.update   0x0000000000000000        0x4 ..\..\platform\libs\libplatform.a(bt.o)
 .text.stack.api.tws_conn
                0x0000000000000000       0x22 ..\..\platform\libs\libplatform.a(bt.o)
 .text          0x0000000000000000        0x0 ..\..\platform\libs\libplatform.a(bt_aec.o)
 .data          0x0000000000000000        0x0 ..\..\platform\libs\libplatform.a(bt_aec.o)
 .bss           0x0000000000000000        0x0 ..\..\platform\libs\libplatform.a(bt_aec.o)
 .text          0x0000000000000000        0x0 ..\..\platform\libs\libplatform.a(bt_alc.o)
 .data          0x0000000000000000        0x0 ..\..\platform\libs\libplatform.a(bt_alc.o)
 .bss           0x0000000000000000        0x0 ..\..\platform\libs\libplatform.a(bt_alc.o)
 .text          0x0000000000000000        0x0 ..\..\platform\libs\libplatform.a(bt_rec.o)
 .data          0x0000000000000000        0x0 ..\..\platform\libs\libplatform.a(bt_rec.o)
 .bss           0x0000000000000000        0x0 ..\..\platform\libs\libplatform.a(bt_rec.o)
 .text.bt_music_rec_start
                0x0000000000000000       0x1c ..\..\platform\libs\libplatform.a(bt_rec.o)
 .text.bt_music_rec_stop
                0x0000000000000000       0x18 ..\..\platform\libs\libplatform.a(bt_rec.o)
 .text.bt_sco_rec_start
                0x0000000000000000       0x20 ..\..\platform\libs\libplatform.a(bt_rec.o)
 .text.bt_sco_rec_stop
                0x0000000000000000        0xa ..\..\platform\libs\libplatform.a(bt_rec.o)
 .com_text.bt_rec.isr
                0x0000000000000000       0x46 ..\..\platform\libs\libplatform.a(bt_rec.o)
 .com_text.bt_rec
                0x0000000000000000      0x22a ..\..\platform\libs\libplatform.a(bt_rec.o)
 .text.bt_sbc_src_init
                0x0000000000000000       0xce ..\..\platform\libs\libplatform.a(bt_rec.o)
 .text.bt_src_exit
                0x0000000000000000       0x46 ..\..\platform\libs\libplatform.a(bt_rec.o)
 .bt_voice.sco  0x0000000000000000       0xac ..\..\platform\libs\libplatform.a(bt_rec.o)
 .com_rodata.bt_rec
                0x0000000000000000        0x2 ..\..\platform\libs\libplatform.a(bt_rec.o)
 .rec.sco       0x0000000000000000      0x2c8 ..\..\platform\libs\libplatform.a(bt_rec.o)
 .rodata.str1.4
                0x0000000000000000        0xf ..\..\platform\libs\libplatform.a(bt_rec.o)
 .text          0x0000000000000000        0x0 ..\..\platform\libs\libplatform.a(bt_sco.o)
 .data          0x0000000000000000        0x0 ..\..\platform\libs\libplatform.a(bt_sco.o)
 .bss           0x0000000000000000        0x0 ..\..\platform\libs\libplatform.a(bt_sco.o)
 .text          0x0000000000000000        0x0 ..\..\platform\libs\libplatform.a(bt_wnr.o)
 .data          0x0000000000000000        0x0 ..\..\platform\libs\libplatform.a(bt_wnr.o)
 .bss           0x0000000000000000        0x0 ..\..\platform\libs\libplatform.a(bt_wnr.o)
 .text          0x0000000000000000        0x0 ..\..\platform\libs\libplatform.a(s_wnr.o)
 .data          0x0000000000000000        0x0 ..\..\platform\libs\libplatform.a(s_wnr.o)
 .bss           0x0000000000000000        0x0 ..\..\platform\libs\libplatform.a(s_wnr.o)
 .text          0x0000000000000000        0x0 ..\..\platform\libs\libplatform.a(cm.o)
 .data          0x0000000000000000        0x0 ..\..\platform\libs\libplatform.a(cm.o)
 .text.cm_read8
                0x0000000000000000       0x1e ..\..\platform\libs\libplatform.a(cm.o)
 .text.cm_read16
                0x0000000000000000       0x1e ..\..\platform\libs\libplatform.a(cm.o)
 .text.cm_read32
                0x0000000000000000       0x1a ..\..\platform\libs\libplatform.a(cm.o)
 .text.cm_write8
                0x0000000000000000       0x1e ..\..\platform\libs\libplatform.a(cm.o)
 .text.cm_write16
                0x0000000000000000       0x1e ..\..\platform\libs\libplatform.a(cm.o)
 .text.cm_write32
                0x0000000000000000       0x1a ..\..\platform\libs\libplatform.a(cm.o)
 .text.cm_clear
                0x0000000000000000       0x64 ..\..\platform\libs\libplatform.a(cm.o)
 .text          0x0000000000000000        0x0 ..\..\platform\libs\libplatform.a(os_flash.o)
 .data          0x0000000000000000        0x0 ..\..\platform\libs\libplatform.a(os_flash.o)
 .bss           0x0000000000000000        0x0 ..\..\platform\libs\libplatform.a(os_flash.o)
 .text          0x0000000000000000        0x0 ..\..\platform\libs\libplatform.a(xcfg.o)
 .data          0x0000000000000000        0x0 ..\..\platform\libs\libplatform.a(xcfg.o)
 .bss           0x0000000000000000        0x0 ..\..\platform\libs\libplatform.a(xcfg.o)
 .text          0x0000000000000000        0x0 ..\..\platform\libs\libplatform.a(device.o)
 .data          0x0000000000000000        0x0 ..\..\platform\libs\libplatform.a(device.o)
 .bss           0x0000000000000000        0x0 ..\..\platform\libs\libplatform.a(device.o)
 .text.device   0x0000000000000000       0x7e ..\..\platform\libs\libplatform.a(device.o)
 .text.dev_is_invalid
                0x0000000000000000        0xe ..\..\platform\libs\libplatform.a(device.o)
 .text          0x0000000000000000        0x0 ..\..\platform\libs\libplatform.a(fmrx_ang.o)
 .data          0x0000000000000000        0x0 ..\..\platform\libs\libplatform.a(fmrx_ang.o)
 .bss           0x0000000000000000        0x0 ..\..\platform\libs\libplatform.a(fmrx_ang.o)
 .text.fmrx_set_rf_cap
                0x0000000000000000       0x16 ..\..\platform\libs\libplatform.a(fmrx_ang.o)
 .text          0x0000000000000000        0x0 ..\..\platform\libs\libplatform.a(main.o)
 .data          0x0000000000000000        0x0 ..\..\platform\libs\libplatform.a(main.o)
 .bss           0x0000000000000000        0x0 ..\..\platform\libs\libplatform.a(main.o)
 .com_text.ledseg
                0x0000000000000000       0x3c ..\..\platform\libs\libplatform.a(main.o)
 .com_text.ledseg.table
                0x0000000000000000        0xc ..\..\platform\libs\libplatform.a(main.o)
 .text          0x0000000000000000        0x0 ..\..\platform\libs\libplatform.a(music.o)
 .data          0x0000000000000000        0x0 ..\..\platform\libs\libplatform.a(music.o)
 .bss           0x0000000000000000        0x0 ..\..\platform\libs\libplatform.a(music.o)
 .com_text.music.spf
                0x0000000000000000        0xc ..\..\platform\libs\libplatform.a(music.o)
 .text          0x0000000000000000        0x0 ..\..\platform\libs\libplatform.a(music_res.o)
 .data          0x0000000000000000        0x0 ..\..\platform\libs\libplatform.a(music_res.o)
 .bss           0x0000000000000000        0x0 ..\..\platform\libs\libplatform.a(music_res.o)
 .text.spires.loop
                0x0000000000000000        0xa ..\..\platform\libs\libplatform.a(music_res.o)
 .text          0x0000000000000000        0x0 ..\..\platform\libs\libplatform.a(stream.o)
 .data          0x0000000000000000        0x0 ..\..\platform\libs\libplatform.a(stream.o)
 .bss           0x0000000000000000        0x0 ..\..\platform\libs\libplatform.a(stream.o)
 .text          0x0000000000000000        0x0 ..\..\platform\libs\libplatform.a(interrupt.o)
 .data          0x0000000000000000        0x0 ..\..\platform\libs\libplatform.a(interrupt.o)
 .bss           0x0000000000000000        0x0 ..\..\platform\libs\libplatform.a(interrupt.o)
 .text.sys_irq_init
                0x0000000000000000       0x92 ..\..\platform\libs\libplatform.a(interrupt.o)
 .text.timer1_irq_init
                0x0000000000000000       0x32 ..\..\platform\libs\libplatform.a(interrupt.o)
 .text.spdif_irq_init
                0x0000000000000000       0x36 ..\..\platform\libs\libplatform.a(interrupt.o)
 .text.irrx_irq_init
                0x0000000000000000       0x34 ..\..\platform\libs\libplatform.a(interrupt.o)
 .text.i2s_irq_init
                0x0000000000000000       0x38 ..\..\platform\libs\libplatform.a(interrupt.o)
 .text.huart_irq_init
                0x0000000000000000       0x36 ..\..\platform\libs\libplatform.a(interrupt.o)
 .text          0x0000000000000000        0x0 ..\..\platform\libs\libplatform.a(startup.o)
 .data          0x0000000000000000        0x0 ..\..\platform\libs\libplatform.a(startup.o)
 .com_text.thread.api
                0x0000000000000000       0x4c ..\..\platform\libs\libplatform.a(startup.o)
 .text.bt_set_timer_enable
                0x0000000000000000       0x24 ..\..\platform\libs\libplatform.a(startup.o)
 .com_text.user
                0x0000000000000000        0x2 ..\..\platform\libs\libplatform.a(startup.o)
 .text          0x0000000000000000        0x0 ..\..\platform\libs\libplatform.a(sys_hook.o)
 .data          0x0000000000000000        0x0 ..\..\platform\libs\libplatform.a(sys_hook.o)
 .bss           0x0000000000000000        0x0 ..\..\platform\libs\libplatform.a(sys_hook.o)
 .text          0x0000000000000000        0x0 ..\..\platform\libs\libplatform.a(reset.o)
 .data          0x0000000000000000        0x0 ..\..\platform\libs\libplatform.a(reset.o)
 .bss           0x0000000000000000        0x0 ..\..\platform\libs\libplatform.a(reset.o)
 .text          0x0000000000000000        0x0 ..\..\platform\libs\libplatform.a(rtc.o)
 .data          0x0000000000000000        0x0 ..\..\platform\libs\libplatform.a(rtc.o)
 .bss           0x0000000000000000        0x0 ..\..\platform\libs\libplatform.a(rtc.o)
 .text          0x0000000000000000        0x0 ..\..\platform\libs\libplatform.a(spiflash.o)
 .data          0x0000000000000000        0x0 ..\..\platform\libs\libplatform.a(spiflash.o)
 .bss           0x0000000000000000        0x0 ..\..\platform\libs\libplatform.a(spiflash.o)
 .text          0x0000000000000000        0x0 ..\..\platform\libs\libplatform.a(charge.o)
 .data          0x0000000000000000        0x0 ..\..\platform\libs\libplatform.a(charge.o)
 .text          0x0000000000000000        0x0 ..\..\platform\libs\libplatform.a(debug.o)
 .data          0x0000000000000000        0x0 ..\..\platform\libs\libplatform.a(debug.o)
 .bss           0x0000000000000000        0x0 ..\..\platform\libs\libplatform.a(debug.o)
 .text.debug_dump_info_nanos_schedule
                0x0000000000000000        0x2 ..\..\platform\libs\libplatform.a(debug.o)
 .text.debug_dump_info_nanos_timer
                0x0000000000000000        0x2 ..\..\platform\libs\libplatform.a(debug.o)
 .text          0x0000000000000000        0x0 ..\..\platform\libs\libplatform.a(gpio.o)
 .data          0x0000000000000000        0x0 ..\..\platform\libs\libplatform.a(gpio.o)
 .bss           0x0000000000000000        0x0 ..\..\platform\libs\libplatform.a(gpio.o)
 .text.adcch_io_pu10k_enable
                0x0000000000000000       0xba ..\..\platform\libs\libplatform.a(gpio.o)
 .text          0x0000000000000000        0x0 ..\..\platform\libs\libplatform.a(key.o)
 .data          0x0000000000000000        0x0 ..\..\platform\libs\libplatform.a(key.o)
 .bss           0x0000000000000000        0x0 ..\..\platform\libs\libplatform.a(key.o)
 .text          0x0000000000000000        0x0 ..\..\platform\libs\libplatform.a(lock.o)
 .data          0x0000000000000000        0x0 ..\..\platform\libs\libplatform.a(lock.o)
 .text.lock_wh_rlc44q
                0x0000000000000000       0x18 ..\..\platform\libs\libplatform.a(lock.o)
 .text.lock_wh_rlc44o
                0x0000000000000000       0x18 ..\..\platform\libs\libplatform.a(lock.o)
 .text.lock_wh_rlc16
                0x0000000000000000       0x18 ..\..\platform\libs\libplatform.a(lock.o)
 .text.lock_code_wavdec
                0x0000000000000000       0x18 ..\..\platform\libs\libplatform.a(lock.o)
 .text.lock_code_wmadec
                0x0000000000000000       0x18 ..\..\platform\libs\libplatform.a(lock.o)
 .text.lock_code_apedec
                0x0000000000000000       0x18 ..\..\platform\libs\libplatform.a(lock.o)
 .text.lock_code_flacdec
                0x0000000000000000       0x18 ..\..\platform\libs\libplatform.a(lock.o)
 .text.lock_code_mp3enc
                0x0000000000000000       0x18 ..\..\platform\libs\libplatform.a(lock.o)
 .text.unlock_code_mp3enc
                0x0000000000000000       0x3a ..\..\platform\libs\libplatform.a(lock.o)
 .text.lock_code_mp2enc
                0x0000000000000000       0x72 ..\..\platform\libs\libplatform.a(lock.o)
 .text.unlock_code_mp2enc
                0x0000000000000000       0x38 ..\..\platform\libs\libplatform.a(lock.o)
 .com_text.cache
                0x0000000000000000       0xc4 ..\..\platform\libs\libplatform.a(lock.o)
 .text.unlock_code_karaok
                0x0000000000000000       0x38 ..\..\platform\libs\libplatform.a(lock.o)
 .text.lock_code_usbdev
                0x0000000000000000       0x5e ..\..\platform\libs\libplatform.a(lock.o)
 .text.unlock_code_usbdev
                0x0000000000000000        0x8 ..\..\platform\libs\libplatform.a(lock.o)
 .text          0x0000000000000000        0x0 ..\..\platform\libs\libplatform.a(power.o)
 .data          0x0000000000000000        0x0 ..\..\platform\libs\libplatform.a(power.o)
 .bss           0x0000000000000000        0x0 ..\..\platform\libs\libplatform.a(power.o)
 .com_text.voltage
                0x0000000000000000      0x222 ..\..\platform\libs\libplatform.a(power.o)
 .com_text.bsp  0x0000000000000000      0x312 ..\..\platform\libs\libplatform.a(power.o)
 .sbss          0x0000000000000000        0x8 ..\..\platform\libs\libplatform.a(power.o)
 .text          0x0000000000000000        0x0 ..\..\platform\libs\libplatform.a(s_sys.o)
 .data          0x0000000000000000        0x0 ..\..\platform\libs\libplatform.a(s_sys.o)
 .bss           0x0000000000000000        0x0 ..\..\platform\libs\libplatform.a(s_sys.o)
 .text          0x0000000000000000        0x0 ..\..\platform\libs\libplatform.a(saradc.o)
 .data          0x0000000000000000        0x0 ..\..\platform\libs\libplatform.a(saradc.o)
 .bss           0x0000000000000000        0x0 ..\..\platform\libs\libplatform.a(saradc.o)
 .text          0x0000000000000000        0x0 ..\..\platform\libs\libplatform.a(sys.o)
 .data          0x0000000000000000        0x0 ..\..\platform\libs\libplatform.a(sys.o)
 .bss           0x0000000000000000        0x0 ..\..\platform\libs\libplatform.a(sys.o)
 .text.sys_clk_output
                0x0000000000000000      0x150 ..\..\platform\libs\libplatform.a(sys.o)
 .text.__divdi3
                0x0000000000000000       0xca ..\..\platform\libs\libplatform.a(sys.o)
 .text.get_random
                0x0000000000000000       0x46 ..\..\platform\libs\libplatform.a(sys.o)
 .text.random_init
                0x0000000000000000        0xa ..\..\platform\libs\libplatform.a(sys.o)
 .text          0x0000000000000000        0x0 ..\..\platform\libs\libplatform.a(sys_clk.o)
 .data          0x0000000000000000        0x0 ..\..\platform\libs\libplatform.a(sys_clk.o)
 .bss           0x0000000000000000        0x0 ..\..\platform\libs\libplatform.a(sys_clk.o)
 .text.set_sd0baud
                0x0000000000000000        0x6 ..\..\platform\libs\libplatform.a(sys_clk.o)
 .text.set_uart0_baud
                0x0000000000000000       0x40 ..\..\platform\libs\libplatform.a(sys_clk.o)
 .text          0x0000000000000000        0x0 ..\..\platform\libs\libplatform.a(sys_msg.o)
 .data          0x0000000000000000        0x0 ..\..\platform\libs\libplatform.a(sys_msg.o)
 .bss           0x0000000000000000        0x0 ..\..\platform\libs\libplatform.a(sys_msg.o)
 .text          0x0000000000000000        0x0 ..\..\platform\libs\libplatform.a(update.o)
 .data          0x0000000000000000        0x0 ..\..\platform\libs\libplatform.a(update.o)
 .bss           0x0000000000000000        0x0 ..\..\platform\libs\libplatform.a(update.o)
 .text          0x0000000000000000        0x0 ..\..\platform\libs\libplatform.a(voltage_trim.o)
 .data          0x0000000000000000        0x0 ..\..\platform\libs\libplatform.a(voltage_trim.o)
 .bss           0x0000000000000000        0x0 ..\..\platform\libs\libplatform.a(voltage_trim.o)
 .text          0x0000000000000000        0x0 ..\..\platform\libs\libplatform.a(weak_symbol.o)
 .data          0x0000000000000000        0x0 ..\..\platform\libs\libplatform.a(weak_symbol.o)
 .bss           0x0000000000000000        0x0 ..\..\platform\libs\libplatform.a(weak_symbol.o)
 .text.cm_loadparam
                0x0000000000000000        0x4 ..\..\platform\libs\libplatform.a(weak_symbol.o)
 .com_text.bsp.sys
                0x0000000000000000        0x4 ..\..\platform\libs\libplatform.a(weak_symbol.o)
 .text.music_eq_get_bass_tbl
                0x0000000000000000        0x4 ..\..\platform\libs\libplatform.a(weak_symbol.o)
 .text.music_eq_get_treble_tbl
                0x0000000000000000        0x4 ..\..\platform\libs\libplatform.a(weak_symbol.o)
 .text.mic_eq_get_bass_tbl
                0x0000000000000000        0x4 ..\..\platform\libs\libplatform.a(weak_symbol.o)
 .text.mic_eq_get_treble_tbl
                0x0000000000000000        0x4 ..\..\platform\libs\libplatform.a(weak_symbol.o)
 .text.bass_treble_get_coef_tbl
                0x0000000000000000        0x4 ..\..\platform\libs\libplatform.a(weak_symbol.o)
 .com_text.key.table
                0x0000000000000000        0x8 ..\..\platform\libs\libplatform.a(weak_symbol.o)
 .text          0x0000000000000000        0x0 ..\..\platform\libs\libplatform.a(thread_driver.o)
 .data          0x0000000000000000        0x0 ..\..\platform\libs\libplatform.a(thread_driver.o)
 .bss           0x0000000000000000        0x0 ..\..\platform\libs\libplatform.a(thread_driver.o)
 .usbdev.com    0x0000000000000000       0x9e ..\..\platform\libs\libplatform.a(thread_driver.o)
 .text          0x0000000000000000        0x0 ..\..\platform\libs\libplatform.a(audio_pcm.o)
 .data          0x0000000000000000        0x0 ..\..\platform\libs\libplatform.a(audio_pcm.o)
 .bss           0x0000000000000000        0x0 ..\..\platform\libs\libplatform.a(audio_pcm.o)
 .com_text.mav  0x0000000000000000       0x28 ..\..\platform\libs\libplatform.a(audio_pcm.o)
 .text          0x0000000000000000        0x0 ..\..\platform\libs\libplatform.a(bt_ota.o)
 .data          0x0000000000000000        0x0 ..\..\platform\libs\libplatform.a(bt_ota.o)
 .bss           0x0000000000000000        0x0 ..\..\platform\libs\libplatform.a(bt_ota.o)
 .text          0x0000000000000000        0x0 ..\..\platform\libs\libplatform.a(i2s.o)
 .data          0x0000000000000000        0x0 ..\..\platform\libs\libplatform.a(i2s.o)
 .bss           0x0000000000000000        0x0 ..\..\platform\libs\libplatform.a(i2s.o)
 .com_text.i2s  0x0000000000000000       0x9e ..\..\platform\libs\libplatform.a(i2s.o)
 .text.i2s_init
                0x0000000000000000      0x1b8 ..\..\platform\libs\libplatform.a(i2s.o)
 .text.i2s_exit
                0x0000000000000000       0x7c ..\..\platform\libs\libplatform.a(i2s.o)
 .sbss          0x0000000000000000        0x4 ..\..\platform\libs\libplatform.a(i2s.o)
 .sdata         0x0000000000000000        0xe ..\..\platform\libs\libplatform.a(i2s.o)
 .debug_frame   0x0000000000000000       0x70 ..\..\platform\libs\libplatform.a(i2s.o)
 .debug_info    0x0000000000000000      0xdfa ..\..\platform\libs\libplatform.a(i2s.o)
 .debug_abbrev  0x0000000000000000      0x285 ..\..\platform\libs\libplatform.a(i2s.o)
 .debug_loc     0x0000000000000000      0x103 ..\..\platform\libs\libplatform.a(i2s.o)
 .debug_aranges
                0x0000000000000000       0x30 ..\..\platform\libs\libplatform.a(i2s.o)
 .debug_ranges  0x0000000000000000       0x20 ..\..\platform\libs\libplatform.a(i2s.o)
 .debug_line    0x0000000000000000      0x2a5 ..\..\platform\libs\libplatform.a(i2s.o)
 .debug_str     0x0000000000000000      0x833 ..\..\platform\libs\libplatform.a(i2s.o)
 .comment       0x0000000000000000       0x12 ..\..\platform\libs\libplatform.a(i2s.o)
 .text          0x0000000000000000        0x0 ..\..\platform\libs\libbtstack.a(bb.o)
 .data          0x0000000000000000        0x0 ..\..\platform\libs\libbtstack.a(bb.o)
 .bss           0x0000000000000000        0x0 ..\..\platform\libs\libbtstack.a(bb.o)
 .text.spi_init
                0x0000000000000000       0x4e ..\..\platform\libs\libbtstack.a(bb.o)
 .com_text.bb.putc
                0x0000000000000000       0x4c ..\..\platform\libs\libbtstack.a(bb.o)
 .text          0x0000000000000000        0x0 ..\..\platform\libs\libbtstack.a(bb_rf.o)
 .data          0x0000000000000000        0x0 ..\..\platform\libs\libbtstack.a(bb_rf.o)
 .bss           0x0000000000000000        0x0 ..\..\platform\libs\libbtstack.a(bb_rf.o)
 .text.rf_release
                0x0000000000000000        0x2 ..\..\platform\libs\libbtstack.a(bb_rf.o)
 .text.rf_txpwr_cs_get
                0x0000000000000000        0x4 ..\..\platform\libs\libbtstack.a(bb_rf.o)
 .text.rf_txpwr_dbm_get
                0x0000000000000000       0x26 ..\..\platform\libs\libbtstack.a(bb_rf.o)
 .text          0x0000000000000000        0x0 ..\..\platform\libs\libbtstack.a(ble.o)
 .data          0x0000000000000000        0x0 ..\..\platform\libs\libbtstack.a(ble.o)
 .bss           0x0000000000000000        0x0 ..\..\platform\libs\libbtstack.a(ble.o)
 .com_rodata.bb.isr
                0x0000000000000000        0xe ..\..\platform\libs\libbtstack.a(ble.o)
 .text          0x0000000000000000        0x0 ..\..\platform\libs\libbtstack.a(ble_con.o)
 .data          0x0000000000000000        0x0 ..\..\platform\libs\libbtstack.a(ble_con.o)
 .bss           0x0000000000000000        0x0 ..\..\platform\libs\libbtstack.a(ble_con.o)
 .text.hwble_get_bd_address
                0x0000000000000000       0x2c ..\..\platform\libs\libbtstack.a(ble_con.o)
 .text.hwble_set_bd_address
                0x0000000000000000       0x44 ..\..\platform\libs\libbtstack.a(ble_con.o)
 .text          0x0000000000000000        0x0 ..\..\platform\libs\libbtstack.a(ble_evt.o)
 .data          0x0000000000000000        0x0 ..\..\platform\libs\libbtstack.a(ble_evt.o)
 .bss           0x0000000000000000        0x0 ..\..\platform\libs\libbtstack.a(ble_evt.o)
 .text          0x0000000000000000        0x0 ..\..\platform\libs\libbtstack.a(ble_lc.o)
 .data          0x0000000000000000        0x0 ..\..\platform\libs\libbtstack.a(ble_lc.o)
 .bss           0x0000000000000000        0x0 ..\..\platform\libs\libbtstack.a(ble_lc.o)
 .text          0x0000000000000000        0x0 ..\..\platform\libs\libbtstack.a(ble_lm.o)
 .data          0x0000000000000000        0x0 ..\..\platform\libs\libbtstack.a(ble_lm.o)
 .bss           0x0000000000000000        0x0 ..\..\platform\libs\libbtstack.a(ble_lm.o)
 .btmem.bb.llm  0x0000000000000000       0x94 ..\..\platform\libs\libbtstack.a(ble_lm.o)
 .text          0x0000000000000000        0x0 ..\..\platform\libs\libbtstack.a(ble_sleep.o)
 .data          0x0000000000000000        0x0 ..\..\platform\libs\libbtstack.a(ble_sleep.o)
 .bss           0x0000000000000000        0x0 ..\..\platform\libs\libbtstack.a(ble_sleep.o)
 .text          0x0000000000000000        0x0 ..\..\platform\libs\libbtstack.a(bt21.o)
 .data          0x0000000000000000        0x0 ..\..\platform\libs\libbtstack.a(bt21.o)
 .bss           0x0000000000000000        0x0 ..\..\platform\libs\libbtstack.a(bt21.o)
 .text          0x0000000000000000        0x0 ..\..\platform\libs\libbtstack.a(ext_acl.o)
 .data          0x0000000000000000        0x0 ..\..\platform\libs\libbtstack.a(ext_acl.o)
 .bss           0x0000000000000000        0x0 ..\..\platform\libs\libbtstack.a(ext_acl.o)
 .text          0x0000000000000000        0x0 ..\..\platform\libs\libbtstack.a(ext_afh.o)
 .data          0x0000000000000000        0x0 ..\..\platform\libs\libbtstack.a(ext_afh.o)
 .bss           0x0000000000000000        0x0 ..\..\platform\libs\libbtstack.a(ext_afh.o)
 .text          0x0000000000000000        0x0 ..\..\platform\libs\libbtstack.a(ext_bt.o)
 .data          0x0000000000000000        0x0 ..\..\platform\libs\libbtstack.a(ext_bt.o)
 .bss           0x0000000000000000        0x0 ..\..\platform\libs\libbtstack.a(ext_bt.o)
 .text          0x0000000000000000        0x0 ..\..\platform\libs\libbtstack.a(ext_flush.o)
 .data          0x0000000000000000        0x0 ..\..\platform\libs\libbtstack.a(ext_flush.o)
 .bss           0x0000000000000000        0x0 ..\..\platform\libs\libbtstack.a(ext_flush.o)
 .text          0x0000000000000000        0x0 ..\..\platform\libs\libbtstack.a(ext_init.o)
 .data          0x0000000000000000        0x0 ..\..\platform\libs\libbtstack.a(ext_init.o)
 .bss           0x0000000000000000        0x0 ..\..\platform\libs\libbtstack.a(ext_init.o)
 .text.lc_set_tx_disable
                0x0000000000000000       0x3e ..\..\platform\libs\libbtstack.a(ext_init.o)
 .rodata.str1.4
                0x0000000000000000       0x14 ..\..\platform\libs\libbtstack.a(ext_init.o)
 .text          0x0000000000000000        0x0 ..\..\platform\libs\libbtstack.a(ext_plc.o)
 .data          0x0000000000000000        0x0 ..\..\platform\libs\libbtstack.a(ext_plc.o)
 .text          0x0000000000000000        0x0 ..\..\platform\libs\libbtstack.a(ext_scan.o)
 .data          0x0000000000000000        0x0 ..\..\platform\libs\libbtstack.a(ext_scan.o)
 .bss           0x0000000000000000        0x0 ..\..\platform\libs\libbtstack.a(ext_scan.o)
 .text          0x0000000000000000        0x0 ..\..\platform\libs\libbtstack.a(ext_sco.o)
 .data          0x0000000000000000        0x0 ..\..\platform\libs\libbtstack.a(ext_sco.o)
 .bss           0x0000000000000000        0x0 ..\..\platform\libs\libbtstack.a(ext_sco.o)
 .com_rodata.bb.sco
                0x0000000000000000       0x3c ..\..\platform\libs\libbtstack.a(ext_sco.o)
 .text          0x0000000000000000        0x0 ..\..\platform\libs\libbtstack.a(ext_tws.o)
 .data          0x0000000000000000        0x0 ..\..\platform\libs\libbtstack.a(ext_tws.o)
 .bss           0x0000000000000000        0x0 ..\..\platform\libs\libbtstack.a(ext_tws.o)
 .text          0x0000000000000000        0x0 ..\..\platform\libs\libbtstack.a(ext_util.o)
 .data          0x0000000000000000        0x0 ..\..\platform\libs\libbtstack.a(ext_util.o)
 .bss           0x0000000000000000        0x0 ..\..\platform\libs\libbtstack.a(ext_util.o)
 .text.hwbt_get_class_of_device
                0x0000000000000000       0x1c ..\..\platform\libs\libbtstack.a(ext_util.o)
 .text.lc_enable_test_mode
                0x0000000000000000        0x4 ..\..\platform\libs\libbtstack.a(ext_util.o)
 .text.lc_read_rssi_range
                0x0000000000000000       0x22 ..\..\platform\libs\libbtstack.a(ext_util.o)
 .text.lc_dec_power_requested
                0x0000000000000000       0x3e ..\..\platform\libs\libbtstack.a(ext_util.o)
 .text.lc_get_link_quality
                0x0000000000000000       0x20 ..\..\platform\libs\libbtstack.a(ext_util.o)
 .text.lc_get_current_tx_power
                0x0000000000000000       0x1c ..\..\platform\libs\libbtstack.a(ext_util.o)
 .text.lc_get_max_tx_power
                0x0000000000000000       0x10 ..\..\platform\libs\libbtstack.a(ext_util.o)
 .text          0x0000000000000000        0x0 ..\..\platform\libs\libbtstack.a(lc.o)
 .data          0x0000000000000000        0x0 ..\..\platform\libs\libbtstack.a(lc.o)
 .bss           0x0000000000000000        0x0 ..\..\platform\libs\libbtstack.a(lc.o)
 .text.lc_common_cmd_complete_send
                0x0000000000000000       0x3c ..\..\platform\libs\libbtstack.a(lc.o)
 .com_text.bb.lc
                0x0000000000000000       0x4a ..\..\platform\libs\libbtstack.a(lc.o)
 .text.lc_rsw_non_epr_back
                0x0000000000000000       0x2a ..\..\platform\libs\libbtstack.a(lc.o)
 .text.lc_afh_switch_off
                0x0000000000000000       0x82 ..\..\platform\libs\libbtstack.a(lc.o)
 .text.lc_resp_num_comp
                0x0000000000000000       0xae ..\..\platform\libs\libbtstack.a(lc.o)
 .text          0x0000000000000000        0x0 ..\..\platform\libs\libbtstack.a(lc_acl.o)
 .data          0x0000000000000000        0x0 ..\..\platform\libs\libbtstack.a(lc_acl.o)
 .bss           0x0000000000000000        0x0 ..\..\platform\libs\libbtstack.a(lc_acl.o)
 .text.lc_acl_set_flush_timeout
                0x0000000000000000      0x100 ..\..\platform\libs\libbtstack.a(lc_acl.o)
 .text.lc_acl_get_flush_timeout
                0x0000000000000000       0x14 ..\..\platform\libs\libbtstack.a(lc_acl.o)
 .text.lc_acl_get_role
                0x0000000000000000       0x14 ..\..\platform\libs\libbtstack.a(lc_acl.o)
 .text.lc_acl_get_max_packet_size
                0x0000000000000000       0x6c ..\..\platform\libs\libbtstack.a(lc_acl.o)
 .text          0x0000000000000000        0x0 ..\..\platform\libs\libbtstack.a(lc_afh.o)
 .data          0x0000000000000000        0x0 ..\..\platform\libs\libbtstack.a(lc_afh.o)
 .bss           0x0000000000000000        0x0 ..\..\platform\libs\libbtstack.a(lc_afh.o)
 .text.lc_afh_get_assess_mode
                0x0000000000000000        0xa ..\..\platform\libs\libbtstack.a(lc_afh.o)
 .text.lc_afh_setAssessmentMode
                0x0000000000000000       0x18 ..\..\platform\libs\libbtstack.a(lc_afh.o)
 .text.lc_afh_set_reassess_intv
                0x0000000000000000        0xa ..\..\platform\libs\libbtstack.a(lc_afh.o)
 .text.lc_afh_set_nb_reassess_chnls
                0x0000000000000000        0xa ..\..\platform\libs\libbtstack.a(lc_afh.o)
 .text          0x0000000000000000        0x0 ..\..\platform\libs\libbtstack.a(lc_cqddr.o)
 .data          0x0000000000000000        0x0 ..\..\platform\libs\libbtstack.a(lc_cqddr.o)
 .bss           0x0000000000000000        0x0 ..\..\platform\libs\libbtstack.a(lc_cqddr.o)
 .text.lc_init_cqddr_algorithm
                0x0000000000000000        0x2 ..\..\platform\libs\libbtstack.a(lc_cqddr.o)
 .com_text.bb.btisr
                0x0000000000000000        0x2 ..\..\platform\libs\libbtstack.a(lc_cqddr.o)
 .text.lc_cqddr_start
                0x0000000000000000        0x2 ..\..\platform\libs\libbtstack.a(lc_cqddr.o)
 .text.lc_cqddr_clean_stats
                0x0000000000000000        0x2 ..\..\platform\libs\libbtstack.a(lc_cqddr.o)
 .text          0x0000000000000000        0x0 ..\..\platform\libs\libbtstack.a(lc_lmppdu.o)
 .data          0x0000000000000000        0x0 ..\..\platform\libs\libbtstack.a(lc_lmppdu.o)
 .bss           0x0000000000000000        0x0 ..\..\platform\libs\libbtstack.a(lc_lmppdu.o)
 .text.lc_send_pdu_qos_req
                0x0000000000000000       0x70 ..\..\platform\libs\libbtstack.a(lc_lmppdu.o)
 .text          0x0000000000000000        0x0 ..\..\platform\libs\libbtstack.a(lc_proc.o)
 .data          0x0000000000000000        0x0 ..\..\platform\libs\libbtstack.a(lc_proc.o)
 .bss           0x0000000000000000        0x0 ..\..\platform\libs\libbtstack.a(lc_proc.o)
 .text          0x0000000000000000        0x0 ..\..\platform\libs\libbtstack.a(lc_pwrctrl.o)
 .data          0x0000000000000000        0x0 ..\..\platform\libs\libbtstack.a(lc_pwrctrl.o)
 .bss           0x0000000000000000        0x0 ..\..\platform\libs\libbtstack.a(lc_pwrctrl.o)
 .text.lc_epc_get_supported
                0x0000000000000000       0x18 ..\..\platform\libs\libbtstack.a(lc_pwrctrl.o)
 .text          0x0000000000000000        0x0 ..\..\platform\libs\libbtstack.a(lc_sco.o)
 .data          0x0000000000000000        0x0 ..\..\platform\libs\libbtstack.a(lc_sco.o)
 .bss           0x0000000000000000        0x0 ..\..\platform\libs\libbtstack.a(lc_sco.o)
 .text.lc_sco_is_exist_for_handle
                0x0000000000000000       0x2e ..\..\platform\libs\libbtstack.a(lc_sco.o)
 .text.lc_sco_con_modify_con
                0x0000000000000000       0x4a ..\..\platform\libs\libbtstack.a(lc_sco.o)
 .text.lc_sco_con_get_min_interval
                0x0000000000000000       0x3c ..\..\platform\libs\libbtstack.a(lc_sco.o)
 .text          0x0000000000000000        0x0 ..\..\platform\libs\libbtstack.a(lc_util.o)
 .data          0x0000000000000000        0x0 ..\..\platform\libs\libbtstack.a(lc_util.o)
 .bss           0x0000000000000000        0x0 ..\..\platform\libs\libbtstack.a(lc_util.o)
 .text          0x0000000000000000        0x0 ..\..\platform\libs\libbtstack.a(lm.o)
 .data          0x0000000000000000        0x0 ..\..\platform\libs\libbtstack.a(lm.o)
 .bss           0x0000000000000000        0x0 ..\..\platform\libs\libbtstack.a(lm.o)
 .text          0x0000000000000000        0x0 ..\..\platform\libs\libbtstack.a(lm_key.o)
 .data          0x0000000000000000        0x0 ..\..\platform\libs\libbtstack.a(lm_key.o)
 .bss           0x0000000000000000        0x0 ..\..\platform\libs\libbtstack.a(lm_key.o)
 .text          0x0000000000000000        0x0 ..\..\platform\libs\libbtstack.a(lm_proc.o)
 .data          0x0000000000000000        0x0 ..\..\platform\libs\libbtstack.a(lm_proc.o)
 .bss           0x0000000000000000        0x0 ..\..\platform\libs\libbtstack.a(lm_proc.o)
 .text          0x0000000000000000        0x0 ..\..\platform\libs\libbtstack.a(lm_sco.o)
 .data          0x0000000000000000        0x0 ..\..\platform\libs\libbtstack.a(lm_sco.o)
 .bss           0x0000000000000000        0x0 ..\..\platform\libs\libbtstack.a(lm_sco.o)
 .text.lm_get_synchdl
                0x0000000000000000       0x42 ..\..\platform\libs\libbtstack.a(lm_sco.o)
 .text.lm_get_sync_conhdl
                0x0000000000000000       0x94 ..\..\platform\libs\libbtstack.a(lm_sco.o)
 .text.lm_get_sync_pkt_types
                0x0000000000000000       0x36 ..\..\platform\libs\libbtstack.a(lm_sco.o)
 .text.lm_get_nb_sync_link
                0x0000000000000000        0xa ..\..\platform\libs\libbtstack.a(lm_sco.o)
 .text.lm_get_min_sync_intv
                0x0000000000000000       0x5c ..\..\platform\libs\libbtstack.a(lm_sco.o)
 .text          0x0000000000000000        0x0 ..\..\platform\libs\libbtstack.a(lm_sleep.o)
 .data          0x0000000000000000        0x0 ..\..\platform\libs\libbtstack.a(lm_sleep.o)
 .bss           0x0000000000000000        0x0 ..\..\platform\libs\libbtstack.a(lm_sleep.o)
 .text          0x0000000000000000        0x0 ..\..\platform\libs\libbtstack.a(lm_sniff.o)
 .data          0x0000000000000000        0x0 ..\..\platform\libs\libbtstack.a(lm_sniff.o)
 .bss           0x0000000000000000        0x0 ..\..\platform\libs\libbtstack.a(lm_sniff.o)
 .text          0x0000000000000000        0x0 ..\..\platform\libs\libbtstack.a(lm_sp.o)
 .data          0x0000000000000000        0x0 ..\..\platform\libs\libbtstack.a(lm_sp.o)
 .bss           0x0000000000000000        0x0 ..\..\platform\libs\libbtstack.a(lm_sp.o)
 .text.lm_get_oob_local_data
                0x0000000000000000       0x40 ..\..\platform\libs\libbtstack.a(lm_sp.o)
 .text          0x0000000000000000        0x0 ..\..\platform\libs\libbtstack.a(lm_util.o)
 .data          0x0000000000000000        0x0 ..\..\platform\libs\libbtstack.a(lm_util.o)
 .bss           0x0000000000000000        0x0 ..\..\platform\libs\libbtstack.a(lm_util.o)
 .text.LM_SetConnectionAcceptTimeout
                0x0000000000000000        0xa ..\..\platform\libs\libbtstack.a(lm_util.o)
 .text.LM_SetAuthenticationEnable
                0x0000000000000000        0xa ..\..\platform\libs\libbtstack.a(lm_util.o)
 .text.LM_GetQoSParam
                0x0000000000000000      0x176 ..\..\platform\libs\libbtstack.a(lm_util.o)
 .text.LM_CreateMasterKey
                0x0000000000000000       0x64 ..\..\platform\libs\libbtstack.a(lm_util.o)
 .text.LM_CreateMasterKeyRand
                0x0000000000000000       0x10 ..\..\platform\libs\libbtstack.a(lm_util.o)
 .text.LM_CreateMasterEncRand
                0x0000000000000000       0x10 ..\..\platform\libs\libbtstack.a(lm_util.o)
 .text.LM_SetMasterEncKeySize
                0x0000000000000000        0xa ..\..\platform\libs\libbtstack.a(lm_util.o)
 .text.LM_ExtractMaxEncKeySize
                0x0000000000000000       0x34 ..\..\platform\libs\libbtstack.a(lm_util.o)
 .text.lm_read_stored_link_key
                0x0000000000000000        0x4 ..\..\platform\libs\libbtstack.a(lm_util.o)
 .text.lm_erase_stored_link_key
                0x0000000000000000        0x4 ..\..\platform\libs\libbtstack.a(lm_util.o)
 .text.lm_store_link_key
                0x0000000000000000        0x4 ..\..\platform\libs\libbtstack.a(lm_util.o)
 .text.LM_SetDefaultPolicySettings
                0x0000000000000000       0x16 ..\..\platform\libs\libbtstack.a(lm_util.o)
 .text.LM_GetMaxOf
                0x0000000000000000       0x10 ..\..\platform\libs\libbtstack.a(lm_util.o)
 .text.LM_CheckSuppCommands
                0x0000000000000000       0x24 ..\..\platform\libs\libbtstack.a(lm_util.o)
 .text.LM_CheckErrataAdopted
                0x0000000000000000       0x10 ..\..\platform\libs\libbtstack.a(lm_util.o)
 .text.LM_MaskPageScanBit
                0x0000000000000000        0x6 ..\..\platform\libs\libbtstack.a(lm_util.o)
 .text          0x0000000000000000        0x0 ..\..\platform\libs\libbtstack.a(bb_buf.o)
 .data          0x0000000000000000        0x0 ..\..\platform\libs\libbtstack.a(bb_buf.o)
 .bss           0x0000000000000000        0x0 ..\..\platform\libs\libbtstack.a(bb_buf.o)
 .text          0x0000000000000000        0x0 ..\..\platform\libs\libbtstack.a(bb_utils.o)
 .data          0x0000000000000000        0x0 ..\..\platform\libs\libbtstack.a(bb_utils.o)
 .bss           0x0000000000000000        0x0 ..\..\platform\libs\libbtstack.a(bb_utils.o)
 .text.bb_addr_cmp
                0x0000000000000000       0x20 ..\..\platform\libs\libbtstack.a(bb_utils.o)
 .rodata.bb.lm  0x0000000000000000        0x6 ..\..\platform\libs\libbtstack.a(bb_utils.o)
 .text          0x0000000000000000        0x0 ..\..\platform\libs\libbtstack.a(complex.o)
 .data          0x0000000000000000        0x0 ..\..\platform\libs\libbtstack.a(complex.o)
 .bss           0x0000000000000000        0x0 ..\..\platform\libs\libbtstack.a(complex.o)
 .text.complexAdd
                0x0000000000000000        0xa ..\..\platform\libs\libbtstack.a(complex.o)
 .text          0x0000000000000000        0x0 ..\..\platform\libs\libbtstack.a(nanos.o)
 .data          0x0000000000000000        0x0 ..\..\platform\libs\libbtstack.a(nanos.o)
 .bss           0x0000000000000000        0x0 ..\..\platform\libs\libbtstack.a(nanos.o)
 .text.nanos_msg_discard
                0x0000000000000000        0x4 ..\..\platform\libs\libbtstack.a(nanos.o)
 .text          0x0000000000000000        0x0 ..\..\platform\libs\libbtstack.a(hcic.o)
 .data          0x0000000000000000        0x0 ..\..\platform\libs\libbtstack.a(hcic.o)
 .bss           0x0000000000000000        0x0 ..\..\platform\libs\libbtstack.a(hcic.o)
 .text.hci_voice_setting_set
                0x0000000000000000       0x56 ..\..\platform\libs\libbtstack.a(hcic.o)
 .text          0x0000000000000000        0x0 ..\..\platform\libs\libbtstack.a(hcic_msg.o)
 .data          0x0000000000000000        0x0 ..\..\platform\libs\libbtstack.a(hcic_msg.o)
 .bss           0x0000000000000000        0x0 ..\..\platform\libs\libbtstack.a(hcic_msg.o)
 .text.hci_llc_basic_cmd_unpk
                0x0000000000000000       0x20 ..\..\platform\libs\libbtstack.a(hcic_msg.o)
 .text.hci_set_evt_filt_cmd_unpk
                0x0000000000000000        0xe ..\..\platform\libs\libbtstack.a(hcic_msg.o)
 .text          0x0000000000000000        0x0 ..\..\platform\libs\libbtstack.a(hcic_proc.o)
 .data          0x0000000000000000        0x0 ..\..\platform\libs\libbtstack.a(hcic_proc.o)
 .bss           0x0000000000000000        0x0 ..\..\platform\libs\libbtstack.a(hcic_proc.o)
 .text          0x0000000000000000        0x0 ..\..\platform\libs\libbtstack.a(vs.o)
 .data          0x0000000000000000        0x0 ..\..\platform\libs\libbtstack.a(vs.o)
 .bss           0x0000000000000000        0x0 ..\..\platform\libs\libbtstack.a(vs.o)
 .text.vs_reset
                0x0000000000000000       0x16 ..\..\platform\libs\libbtstack.a(vs.o)
 .text          0x0000000000000000        0x0 ..\..\platform\libs\libbtstack.a(vs_proc.o)
 .data          0x0000000000000000        0x0 ..\..\platform\libs\libbtstack.a(vs_proc.o)
 .bss           0x0000000000000000        0x0 ..\..\platform\libs\libbtstack.a(vs_proc.o)
 .text          0x0000000000000000        0x0 ..\..\platform\libs\libbtstack.a(btstack_api.o)
 .data          0x0000000000000000        0x0 ..\..\platform\libs\libbtstack.a(btstack_api.o)
 .bss           0x0000000000000000        0x0 ..\..\platform\libs\libbtstack.a(btstack_api.o)
 .text.le_is_connect
                0x0000000000000000       0x18 ..\..\platform\libs\libbtstack.a(btstack_api.o)
 .text.le_enable_adv
                0x0000000000000000        0x2 ..\..\platform\libs\libbtstack.a(btstack_api.o)
 .text.le_disable_adv
                0x0000000000000000        0x2 ..\..\platform\libs\libbtstack.a(btstack_api.o)
 .text          0x0000000000000000        0x0 ..\..\platform\libs\libbtstack.a(btstack_chipset_inner.o)
 .data          0x0000000000000000        0x0 ..\..\platform\libs\libbtstack.a(btstack_chipset_inner.o)
 .bss           0x0000000000000000        0x0 ..\..\platform\libs\libbtstack.a(btstack_chipset_inner.o)
 .text          0x0000000000000000        0x0 ..\..\platform\libs\libbtstack.a(btstack_gatt_server.o)
 .data          0x0000000000000000        0x0 ..\..\platform\libs\libbtstack.a(btstack_gatt_server.o)
 .bss           0x0000000000000000        0x0 ..\..\platform\libs\libbtstack.a(btstack_gatt_server.o)
 .text          0x0000000000000000        0x0 ..\..\platform\libs\libbtstack.a(btstack_hal.o)
 .data          0x0000000000000000        0x0 ..\..\platform\libs\libbtstack.a(btstack_hal.o)
 .bss           0x0000000000000000        0x0 ..\..\platform\libs\libbtstack.a(btstack_hal.o)
 .text.stack.hal
                0x0000000000000000       0x92 ..\..\platform\libs\libbtstack.a(btstack_hal.o)
 .com_text.stack.util
                0x0000000000000000       0x12 ..\..\platform\libs\libbtstack.a(btstack_hal.o)
 .text          0x0000000000000000        0x0 ..\..\platform\libs\libbtstack.a(btstack_main.o)
 .data          0x0000000000000000        0x0 ..\..\platform\libs\libbtstack.a(btstack_main.o)
 .bss           0x0000000000000000        0x0 ..\..\platform\libs\libbtstack.a(btstack_main.o)
 .text          0x0000000000000000        0x0 ..\..\platform\libs\libbtstack.a(btstack_misc.o)
 .data          0x0000000000000000        0x0 ..\..\platform\libs\libbtstack.a(btstack_misc.o)
 .bss           0x0000000000000000        0x0 ..\..\platform\libs\libbtstack.a(btstack_misc.o)
 .text.huart    0x0000000000000000        0x2 ..\..\platform\libs\libbtstack.a(btstack_misc.o)
 .text          0x0000000000000000        0x0 ..\..\platform\libs\libbtstack.a(hci_transport_hcic.o)
 .data          0x0000000000000000        0x0 ..\..\platform\libs\libbtstack.a(hci_transport_hcic.o)
 .bss           0x0000000000000000        0x0 ..\..\platform\libs\libbtstack.a(hci_transport_hcic.o)
 .text          0x0000000000000000        0x0 ..\..\platform\libs\libbtstack.a(weak_symbol.o)
 .data          0x0000000000000000        0x0 ..\..\platform\libs\libbtstack.a(weak_symbol.o)
 .bss           0x0000000000000000        0x0 ..\..\platform\libs\libbtstack.a(weak_symbol.o)
 .text.bt_get_tws_info
                0x0000000000000000        0x4 ..\..\platform\libs\libbtstack.a(weak_symbol.o)
 .text.ble_init_att_do
                0x0000000000000000        0x2 ..\..\platform\libs\libbtstack.a(weak_symbol.o)
 .text.ble_init_att
                0x0000000000000000        0x2 ..\..\platform\libs\libbtstack.a(weak_symbol.o)
 .text.ble_get_profile_data
                0x0000000000000000        0x4 ..\..\platform\libs\libbtstack.a(weak_symbol.o)
 .text.ble_get_adv_data
                0x0000000000000000        0x4 ..\..\platform\libs\libbtstack.a(weak_symbol.o)
 .text.ble_att_write_callback
                0x0000000000000000        0x4 ..\..\platform\libs\libbtstack.a(weak_symbol.o)
 .text.ble_get_scan_data
                0x0000000000000000        0x4 ..\..\platform\libs\libbtstack.a(weak_symbol.o)
 .text          0x0000000000000000        0x0 ..\..\platform\libs\libbtstack.a(btstack_link_ctrl.o)
 .data          0x0000000000000000        0x0 ..\..\platform\libs\libbtstack.a(btstack_link_ctrl.o)
 .bss           0x0000000000000000        0x0 ..\..\platform\libs\libbtstack.a(btstack_link_ctrl.o)
 .text          0x0000000000000000        0x0 ..\..\platform\libs\libbtstack.a(btstack_memory.o)
 .data          0x0000000000000000        0x0 ..\..\platform\libs\libbtstack.a(btstack_memory.o)
 .text          0x0000000000000000        0x0 ..\..\platform\libs\libbtstack.a(btstack_memory_pool.o)
 .data          0x0000000000000000        0x0 ..\..\platform\libs\libbtstack.a(btstack_memory_pool.o)
 .bss           0x0000000000000000        0x0 ..\..\platform\libs\libbtstack.a(btstack_memory_pool.o)
 .text          0x0000000000000000        0x0 ..\..\platform\libs\libbtstack.a(btstack_run_loop.o)
 .data          0x0000000000000000        0x0 ..\..\platform\libs\libbtstack.a(btstack_run_loop.o)
 .bss           0x0000000000000000        0x0 ..\..\platform\libs\libbtstack.a(btstack_run_loop.o)
 .text          0x0000000000000000        0x0 ..\..\platform\libs\libbtstack.a(btstack_tws.o)
 .data          0x0000000000000000        0x0 ..\..\platform\libs\libbtstack.a(btstack_tws.o)
 .text          0x0000000000000000        0x0 ..\..\platform\libs\libbtstack.a(btstack_util.o)
 .data          0x0000000000000000        0x0 ..\..\platform\libs\libbtstack.a(btstack_util.o)
 .bss           0x0000000000000000        0x0 ..\..\platform\libs\libbtstack.a(btstack_util.o)
 .text.log_info_hexdump
                0x0000000000000000        0x2 ..\..\platform\libs\libbtstack.a(btstack_util.o)
 .text.log_info_key
                0x0000000000000000        0x2 ..\..\platform\libs\libbtstack.a(btstack_util.o)
 .text.sscanf_bd_addr
                0x0000000000000000       0xa2 ..\..\platform\libs\libbtstack.a(btstack_util.o)
 .text          0x0000000000000000        0x0 ..\..\platform\libs\libbtstack.a(a2dp.o)
 .data          0x0000000000000000        0x0 ..\..\platform\libs\libbtstack.a(a2dp.o)
 .bss           0x0000000000000000        0x0 ..\..\platform\libs\libbtstack.a(a2dp.o)
 .text.get_a2dp_connection_context_for_l2cap_cid
                0x0000000000000000       0x5a ..\..\platform\libs\libbtstack.a(a2dp.o)
 .text          0x0000000000000000        0x0 ..\..\platform\libs\libbtstack.a(a2dp_play.o)
 .data          0x0000000000000000        0x0 ..\..\platform\libs\libbtstack.a(a2dp_play.o)
 .bss           0x0000000000000000        0x0 ..\..\platform\libs\libbtstack.a(a2dp_play.o)
 .text          0x0000000000000000        0x0 ..\..\platform\libs\libbtstack.a(a2dp_send.o)
 .data          0x0000000000000000        0x0 ..\..\platform\libs\libbtstack.a(a2dp_send.o)
 .bss           0x0000000000000000        0x0 ..\..\platform\libs\libbtstack.a(a2dp_send.o)
 .text          0x0000000000000000        0x0 ..\..\platform\libs\libbtstack.a(avctp.o)
 .data          0x0000000000000000        0x0 ..\..\platform\libs\libbtstack.a(avctp.o)
 .bss           0x0000000000000000        0x0 ..\..\platform\libs\libbtstack.a(avctp.o)
 .text          0x0000000000000000        0x0 ..\..\platform\libs\libbtstack.a(avdtp.o)
 .data          0x0000000000000000        0x0 ..\..\platform\libs\libbtstack.a(avdtp.o)
 .bss           0x0000000000000000        0x0 ..\..\platform\libs\libbtstack.a(avdtp.o)
 .text          0x0000000000000000        0x0 ..\..\platform\libs\libbtstack.a(btstack_link_key_db.o)
 .data          0x0000000000000000        0x0 ..\..\platform\libs\libbtstack.a(btstack_link_key_db.o)
 .text          0x0000000000000000        0x0 ..\..\platform\libs\libbtstack.a(hfp.o)
 .data          0x0000000000000000        0x0 ..\..\platform\libs\libbtstack.a(hfp.o)
 .bss           0x0000000000000000        0x0 ..\..\platform\libs\libbtstack.a(hfp.o)
 .text.hfp_emit_string_event
                0x0000000000000000       0x6e ..\..\platform\libs\libbtstack.a(hfp.o)
 .text          0x0000000000000000        0x0 ..\..\platform\libs\libbtstack.a(hfp_hf.o)
 .data          0x0000000000000000        0x0 ..\..\platform\libs\libbtstack.a(hfp_hf.o)
 .bss           0x0000000000000000        0x0 ..\..\platform\libs\libbtstack.a(hfp_hf.o)
 .text.hfp_hf_register_packet_handler
                0x0000000000000000       0x14 ..\..\platform\libs\libbtstack.a(hfp_hf.o)
 .text          0x0000000000000000        0x0 ..\..\platform\libs\libbtstack.a(hid_device.o)
 .data          0x0000000000000000        0x0 ..\..\platform\libs\libbtstack.a(hid_device.o)
 .bss           0x0000000000000000        0x0 ..\..\platform\libs\libbtstack.a(hid_device.o)
 .text.hid_device_send_contro_message
                0x0000000000000000        0x8 ..\..\platform\libs\libbtstack.a(hid_device.o)
 .text          0x0000000000000000        0x0 ..\..\platform\libs\libbtstack.a(hid_usage.o)
 .data          0x0000000000000000        0x0 ..\..\platform\libs\libbtstack.a(hid_usage.o)
 .bss           0x0000000000000000        0x0 ..\..\platform\libs\libbtstack.a(hid_usage.o)
 .text          0x0000000000000000        0x0 ..\..\platform\libs\libbtstack.a(rfcomm.o)
 .data          0x0000000000000000        0x0 ..\..\platform\libs\libbtstack.a(rfcomm.o)
 .bss           0x0000000000000000        0x0 ..\..\platform\libs\libbtstack.a(rfcomm.o)
 .text.rfcomm_set_required_security_level
                0x0000000000000000        0xa ..\..\platform\libs\libbtstack.a(rfcomm.o)
 .text.rfcomm_release_packet_buffer
                0x0000000000000000        0x8 ..\..\platform\libs\libbtstack.a(rfcomm.o)
 .text.rfcomm_get_max_frame_size
                0x0000000000000000       0x1c ..\..\platform\libs\libbtstack.a(rfcomm.o)
 .text.rfcomm_create_channel_with_initial_credits
                0x0000000000000000        0xe ..\..\platform\libs\libbtstack.a(rfcomm.o)
 .text.rfcomm_register_service_with_initial_credits
                0x0000000000000000       0x3e ..\..\platform\libs\libbtstack.a(rfcomm.o)
 .text.rfcomm_unregister_service
                0x0000000000000000       0x5a ..\..\platform\libs\libbtstack.a(rfcomm.o)
 .text.rfcomm_decline_connection
                0x0000000000000000       0x32 ..\..\platform\libs\libbtstack.a(rfcomm.o)
 .text.rfcomm_grant_credits
                0x0000000000000000       0x3a ..\..\platform\libs\libbtstack.a(rfcomm.o)
 .text.crc8_check
                0x0000000000000000       0x3c ..\..\platform\libs\libbtstack.a(rfcomm.o)
 .text.rfcomm_send_local_line_status
                0x0000000000000000       0x66 ..\..\platform\libs\libbtstack.a(rfcomm.o)
 .text.rfcomm_send_modem_status
                0x0000000000000000       0x2a ..\..\platform\libs\libbtstack.a(rfcomm.o)
 .text.rfcomm_query_port_configuration
                0x0000000000000000       0x5c ..\..\platform\libs\libbtstack.a(rfcomm.o)
 .text.rfcomm_send_port_configuration
                0x0000000000000000       0x9e ..\..\platform\libs\libbtstack.a(rfcomm.o)
 .text          0x0000000000000000        0x0 ..\..\platform\libs\libbtstack.a(sdp_client.o)
 .data          0x0000000000000000        0x0 ..\..\platform\libs\libbtstack.a(sdp_client.o)
 .bss           0x0000000000000000        0x0 ..\..\platform\libs\libbtstack.a(sdp_client.o)
 .text.remove_sdp_client_context
                0x0000000000000000        0xa ..\..\platform\libs\libbtstack.a(sdp_client.o)
 .text.de_state_init
                0x0000000000000000       0x10 ..\..\platform\libs\libbtstack.a(sdp_client.o)
 .text.sdp_client_free
                0x0000000000000000       0x14 ..\..\platform\libs\libbtstack.a(sdp_client.o)
 .text          0x0000000000000000        0x0 ..\..\platform\libs\libbtstack.a(sdp_server.o)
 .data          0x0000000000000000        0x0 ..\..\platform\libs\libbtstack.a(sdp_server.o)
 .bss           0x0000000000000000        0x0 ..\..\platform\libs\libbtstack.a(sdp_server.o)
 .text.remove_sdp_server_context
                0x0000000000000000        0xa ..\..\platform\libs\libbtstack.a(sdp_server.o)
 .text          0x0000000000000000        0x0 ..\..\platform\libs\libbtstack.a(sdp_tbl.o)
 .data          0x0000000000000000        0x0 ..\..\platform\libs\libbtstack.a(sdp_tbl.o)
 .bss           0x0000000000000000        0x0 ..\..\platform\libs\libbtstack.a(sdp_tbl.o)
 .text          0x0000000000000000        0x0 ..\..\platform\libs\libbtstack.a(sdp_util.o)
 .data          0x0000000000000000        0x0 ..\..\platform\libs\libbtstack.a(sdp_util.o)
 .bss           0x0000000000000000        0x0 ..\..\platform\libs\libbtstack.a(sdp_util.o)
 .text          0x0000000000000000        0x0 ..\..\platform\libs\libbtstack.a(spp.o)
 .data          0x0000000000000000        0x0 ..\..\platform\libs\libbtstack.a(spp.o)
 .bss           0x0000000000000000        0x0 ..\..\platform\libs\libbtstack.a(spp.o)
 .text          0x0000000000000000        0x0 ..\..\platform\libs\libbtstack.a(hci.o)
 .data          0x0000000000000000        0x0 ..\..\platform\libs\libbtstack.a(hci.o)
 .text.hci_request_sco_can_send_now_event
                0x0000000000000000       0x16 ..\..\platform\libs\libbtstack.a(hci.o)
 .text.gap_advertisements_get_address
                0x0000000000000000       0x2e ..\..\platform\libs\libbtstack.a(hci.o)
 .text.hci_register_sco_packet_handler
                0x0000000000000000        0xc ..\..\platform\libs\libbtstack.a(hci.o)
 .text.gap_local_bd_addr
                0x0000000000000000       0x16 ..\..\platform\libs\libbtstack.a(hci.o)
 .text.hci_close
                0x0000000000000000       0x5a ..\..\platform\libs\libbtstack.a(hci.o)
 .rodata.stack.hci_init
                0x0000000000000000       0x11 ..\..\platform\libs\libbtstack.a(hci.o)
 .text          0x0000000000000000        0x0 ..\..\platform\libs\libbtstack.a(hci_cmd.o)
 .data          0x0000000000000000        0x0 ..\..\platform\libs\libbtstack.a(hci_cmd.o)
 .bss           0x0000000000000000        0x0 ..\..\platform\libs\libbtstack.a(hci_cmd.o)
 .text          0x0000000000000000        0x0 ..\..\platform\libs\libbtstack.a(hci_dump.o)
 .data          0x0000000000000000        0xc ..\..\platform\libs\libbtstack.a(hci_dump.o)
 .bss           0x0000000000000000        0x0 ..\..\platform\libs\libbtstack.a(hci_dump.o)
 .text.stack.util
                0x0000000000000000       0x86 ..\..\platform\libs\libbtstack.a(hci_dump.o)
 .text.hci_dump_close
                0x0000000000000000        0x2 ..\..\platform\libs\libbtstack.a(hci_dump.o)
 .text.hci_dump_enable_log_level
                0x0000000000000000       0x18 ..\..\platform\libs\libbtstack.a(hci_dump.o)
 .rodata.str1.4
                0x0000000000000000       0x12 ..\..\platform\libs\libbtstack.a(hci_dump.o)
 .text          0x0000000000000000        0x0 ..\..\platform\libs\libbtstack.a(hci_sco.o)
 .data          0x0000000000000000        0x0 ..\..\platform\libs\libbtstack.a(hci_sco.o)
 .bss           0x0000000000000000        0x0 ..\..\platform\libs\libbtstack.a(hci_sco.o)
 .com_text.sco  0x0000000000000000        0x4 ..\..\platform\libs\libbtstack.a(hci_sco.o)
 .com_rodata.sco
                0x0000000000000000        0x2 ..\..\platform\libs\libbtstack.a(hci_sco.o)
 .text          0x0000000000000000        0x0 ..\..\platform\libs\libbtstack.a(l2cap.o)
 .data          0x0000000000000000        0x0 ..\..\platform\libs\libbtstack.a(l2cap.o)
 .bss           0x0000000000000000        0x0 ..\..\platform\libs\libbtstack.a(l2cap.o)
 .text.l2cap_register_packet_handler
                0x0000000000000000        0x2 ..\..\platform\libs\libbtstack.a(l2cap.o)
 .text.l2cap_send_connectionless
                0x0000000000000000       0x68 ..\..\platform\libs\libbtstack.a(l2cap.o)
 .text.l2cap_send_echo_request
                0x0000000000000000       0x12 ..\..\platform\libs\libbtstack.a(l2cap.o)
 .text.l2cap_max_le_mtu
                0x0000000000000000        0x6 ..\..\platform\libs\libbtstack.a(l2cap.o)
 .text.l2cap_unregister_service
                0x0000000000000000       0x4c ..\..\platform\libs\libbtstack.a(l2cap.o)
 .text          0x0000000000000000        0x0 ..\..\platform\libs\libbtstack.a(l2cap_signaling.o)
 .data          0x0000000000000000        0x0 ..\..\platform\libs\libbtstack.a(l2cap_signaling.o)
 .bss           0x0000000000000000        0x0 ..\..\platform\libs\libbtstack.a(l2cap_signaling.o)
 .text          0x0000000000000000        0x0 ..\..\platform\libs\libbtstack.a(l2cap_test.o)
 .data          0x0000000000000000        0x0 ..\..\platform\libs\libbtstack.a(l2cap_test.o)
 .bss           0x0000000000000000        0x0 ..\..\platform\libs\libbtstack.a(l2cap_test.o)
 .text          0x0000000000000000        0x0 ..\..\platform\libs\libbtstack.a(btstack_asm.o)
 .data          0x0000000000000000        0x0 ..\..\platform\libs\libbtstack.a(btstack_asm.o)
 .bss           0x0000000000000000        0x0 ..\..\platform\libs\libbtstack.a(btstack_asm.o)
 .text          0x0000000000000000        0x0 ..\..\platform\libs\libbtstack.a(ext_rsw.o)
 .data          0x0000000000000000        0x0 ..\..\platform\libs\libbtstack.a(ext_rsw.o)
 .bss           0x0000000000000000        0x0 ..\..\platform\libs\libbtstack.a(ext_rsw.o)
 .text          0x0000000000000000        0x0 ..\..\platform\libs\libbtstack.a(ext_sniff.o)
 .data          0x0000000000000000        0x0 ..\..\platform\libs\libbtstack.a(ext_sniff.o)
 .bss           0x0000000000000000        0x0 ..\..\platform\libs\libbtstack.a(ext_sniff.o)
 .text          0x0000000000000000        0x0 ..\..\platform\libs\libbtstack.a(ext_tsco.o)
 .data          0x0000000000000000        0x0 ..\..\platform\libs\libbtstack.a(ext_tsco.o)
 .com_text.bb.tws.sco
                0x0000000000000000      0x44c ..\..\platform\libs\libbtstack.a(ext_tsco.o)
 .text.lc_tsco_send_setup
                0x0000000000000000      0x118 ..\..\platform\libs\libbtstack.a(ext_tsco.o)
 .text.lc_tsco_send_kill
                0x0000000000000000       0x94 ..\..\platform\libs\libbtstack.a(ext_tsco.o)
 .text.lc_tsco_init
                0x0000000000000000       0x32 ..\..\platform\libs\libbtstack.a(ext_tsco.o)
 .text          0x0000000000000000        0x0 ..\..\platform\libs\libbtstack.a(lc_scan.o)
 .data          0x0000000000000000        0x0 ..\..\platform\libs\libbtstack.a(lc_scan.o)
 .bss           0x0000000000000000        0x0 ..\..\platform\libs\libbtstack.a(lc_scan.o)
 .text.lc_scan_inqtxpwr_set
                0x0000000000000000       0x1c ..\..\platform\libs\libbtstack.a(lc_scan.o)
 .text.lc_scan_inqtxpwr_get
                0x0000000000000000       0x12 ..\..\platform\libs\libbtstack.a(lc_scan.o)
 .text.lc_scan_get_page_timeout
                0x0000000000000000        0xa ..\..\platform\libs\libbtstack.a(lc_scan.o)
 .text.lc_scan_set_page_scan_repetition_mode
                0x0000000000000000       0x14 ..\..\platform\libs\libbtstack.a(lc_scan.o)
 .text          0x0000000000000000        0x0 ..\..\platform\libs\libbtstack.a(lm_hmac.o)
 .data          0x0000000000000000        0x0 ..\..\platform\libs\libbtstack.a(lm_hmac.o)
 .bss           0x0000000000000000        0x0 ..\..\platform\libs\libbtstack.a(lm_hmac.o)
 .text          0x0000000000000000        0x0 ..\..\platform\libs\libbtstack.a(btstack_linked_list.o)
 .data          0x0000000000000000        0x0 ..\..\platform\libs\libbtstack.a(btstack_linked_list.o)
 .bss           0x0000000000000000        0x0 ..\..\platform\libs\libbtstack.a(btstack_linked_list.o)
 .text          0x0000000000000000        0x0 ..\..\platform\libs\libdrivers.a(diskio.o)
 .data          0x0000000000000000        0x0 ..\..\platform\libs\libdrivers.a(diskio.o)
 .bss           0x0000000000000000        0x0 ..\..\platform\libs\libdrivers.a(diskio.o)
 .text.fsdisk_callback_init
                0x0000000000000000       0x5c ..\..\platform\libs\libdrivers.a(diskio.o)
 .text.disk_initialize
                0x0000000000000000       0x1e ..\..\platform\libs\libdrivers.a(diskio.o)
 .text          0x0000000000000000        0x0 ..\..\platform\libs\libdrivers.a(pff.o)
 .data          0x0000000000000000        0x0 ..\..\platform\libs\libdrivers.a(pff.o)
 .bss           0x0000000000000000        0x0 ..\..\platform\libs\libdrivers.a(pff.o)
 .text.check_fs
                0x0000000000000000       0x4c ..\..\platform\libs\libdrivers.a(pff.o)
 .text.pf_mount
                0x0000000000000000      0x37e ..\..\platform\libs\libdrivers.a(pff.o)
 .text.pf_mkdir
                0x0000000000000000      0x1ec ..\..\platform\libs\libdrivers.a(pff.o)
 .text.pf_unlink
                0x0000000000000000      0x180 ..\..\platform\libs\libdrivers.a(pff.o)
 .text.pf_sync_do
                0x0000000000000000      0x16c ..\..\platform\libs\libdrivers.a(pff.o)
 .text.pf_sync  0x0000000000000000       0x26 ..\..\platform\libs\libdrivers.a(pff.o)
 .text.pf_close
                0x0000000000000000       0x22 ..\..\platform\libs\libdrivers.a(pff.o)
 .text.pf_write
                0x0000000000000000      0x288 ..\..\platform\libs\libdrivers.a(pff.o)
 .text.pf_readdir
                0x0000000000000000      0x302 ..\..\platform\libs\libdrivers.a(pff.o)
 .text.pf_get_long_fname
                0x0000000000000000      0x2c4 ..\..\platform\libs\libdrivers.a(pff.o)
 .text.pf_rootdir
                0x0000000000000000       0x42 ..\..\platform\libs\libdrivers.a(pff.o)
 .text.pf_open_exist
                0x0000000000000000       0x66 ..\..\platform\libs\libdrivers.a(pff.o)
 .text.pf_opendir_exist
                0x0000000000000000       0x4c ..\..\platform\libs\libdrivers.a(pff.o)
 .text          0x0000000000000000        0x0 ..\..\platform\libs\libdrivers.a(pff_fat.o)
 .data          0x0000000000000000        0x0 ..\..\platform\libs\libdrivers.a(pff_fat.o)
 .bss           0x0000000000000000        0x0 ..\..\platform\libs\libdrivers.a(pff_fat.o)
 .text.save_filepiont_do
                0x0000000000000000       0x92 ..\..\platform\libs\libdrivers.a(pff_fat.o)
 .text.restore_dir_entry
                0x0000000000000000       0x86 ..\..\platform\libs\libdrivers.a(pff_fat.o)
 .text.pf_setdir_root.constprop.7
                0x0000000000000000       0x32 ..\..\platform\libs\libdrivers.a(pff_fat.o)
 .text.load_dir_point
                0x0000000000000000       0x6a ..\..\platform\libs\libdrivers.a(pff_fat.o)
 .text.save_dir_point
                0x0000000000000000       0x64 ..\..\platform\libs\libdrivers.a(pff_fat.o)
 .text.restore_file_point
                0x0000000000000000      0x110 ..\..\platform\libs\libdrivers.a(pff_fat.o)
 .text.load_file_point
                0x0000000000000000       0x74 ..\..\platform\libs\libdrivers.a(pff_fat.o)
 .text.load_file_dpath
                0x0000000000000000       0x44 ..\..\platform\libs\libdrivers.a(pff_fat.o)
 .text.find_dir_index
                0x0000000000000000       0x4e ..\..\platform\libs\libdrivers.a(pff_fat.o)
 .text.save_file_point
                0x0000000000000000       0xd0 ..\..\platform\libs\libdrivers.a(pff_fat.o)
 .text.save_file_dpath
                0x0000000000000000       0x64 ..\..\platform\libs\libdrivers.a(pff_fat.o)
 .text.dpath_init
                0x0000000000000000       0x8a ..\..\platform\libs\libdrivers.a(pff_fat.o)
 .text.fs_scan_set
                0x0000000000000000       0x22 ..\..\platform\libs\libdrivers.a(pff_fat.o)
 .text.fs_mkdir
                0x0000000000000000        0xa ..\..\platform\libs\libdrivers.a(pff_fat.o)
 .text.fs_mkdir_lfn
                0x0000000000000000        0x8 ..\..\platform\libs\libdrivers.a(pff_fat.o)
 .text.fs_open_lfn
                0x0000000000000000       0x54 ..\..\platform\libs\libdrivers.a(pff_fat.o)
 .text.fs_get_file_ssect
                0x0000000000000000       0x10 ..\..\platform\libs\libdrivers.a(pff_fat.o)
 .text.fs_get_name_from_fileinfo
                0x0000000000000000       0x4c ..\..\platform\libs\libdrivers.a(pff_fat.o)
 .text.fs_get_short_fname
                0x0000000000000000       0x12 ..\..\platform\libs\libdrivers.a(pff_fat.o)
 .text.fs_get_short_dir_name
                0x0000000000000000       0x12 ..\..\platform\libs\libdrivers.a(pff_fat.o)
 .text.fs_get_filename
                0x0000000000000000       0x84 ..\..\platform\libs\libdrivers.a(pff_fat.o)
 .text.fs_get_dir_name
                0x0000000000000000       0x84 ..\..\platform\libs\libdrivers.a(pff_fat.o)
 .text.fs_mount
                0x0000000000000000       0x1e ..\..\platform\libs\libdrivers.a(pff_fat.o)
 .text.fs_get_file_count
                0x0000000000000000        0xc ..\..\platform\libs\libdrivers.a(pff_fat.o)
 .text.fs_get_ftime
                0x0000000000000000        0xa ..\..\platform\libs\libdrivers.a(pff_fat.o)
 .text.fs_create_time_inc
                0x0000000000000000       0x10 ..\..\platform\libs\libdrivers.a(pff_fat.o)
 .text.fs_var_init
                0x0000000000000000       0x16 ..\..\platform\libs\libdrivers.a(pff_fat.o)
 .text.fs_scan_files
                0x0000000000000000      0x356 ..\..\platform\libs\libdrivers.a(pff_fat.o)
 .text.fs_get_total_files
                0x0000000000000000       0x94 ..\..\platform\libs\libdrivers.a(pff_fat.o)
 .text.fs_getdir_files
                0x0000000000000000       0x66 ..\..\platform\libs\libdrivers.a(pff_fat.o)
 .text.fs_open_num
                0x0000000000000000       0x9e ..\..\platform\libs\libdrivers.a(pff_fat.o)
 .text.fs_open_dir_num
                0x0000000000000000       0x8e ..\..\platform\libs\libdrivers.a(pff_fat.o)
 .text.pf_delete
                0x0000000000000000       0x72 ..\..\platform\libs\libdrivers.a(pff_fat.o)
 .text.fs_get_dir_fstart
                0x0000000000000000       0x10 ..\..\platform\libs\libdrivers.a(pff_fat.o)
 .text.fs_get_dirs_count
                0x0000000000000000        0xa ..\..\platform\libs\libdrivers.a(pff_fat.o)
 .text.fs_get_file_size
                0x0000000000000000        0xa ..\..\platform\libs\libdrivers.a(pff_fat.o)
 .text.fs_get_type
                0x0000000000000000        0xa ..\..\platform\libs\libdrivers.a(pff_fat.o)
 .text.fs_get_fname_extension
                0x0000000000000000       0x12 ..\..\platform\libs\libdrivers.a(pff_fat.o)
 .text.fs_get_dir_depth
                0x0000000000000000        0xa ..\..\platform\libs\libdrivers.a(pff_fat.o)
 .text.fs_save_file_info
                0x0000000000000000       0x12 ..\..\platform\libs\libdrivers.a(pff_fat.o)
 .text.fs_load_file_info
                0x0000000000000000       0x14 ..\..\platform\libs\libdrivers.a(pff_fat.o)
 .text.fs_get_filename_for_number_do
                0x0000000000000000      0x100 ..\..\platform\libs\libdrivers.a(pff_fat.o)
 .text.fs_get_filename_for_number
                0x0000000000000000       0x3a ..\..\platform\libs\libdrivers.a(pff_fat.o)
 .text.fs_get_dirname_for_number
                0x0000000000000000       0x3a ..\..\platform\libs\libdrivers.a(pff_fat.o)
 .pff.scan.tempbuf
                0x0000000000000000      0x9aa ..\..\platform\libs\libdrivers.a(pff_fat.o)
 .text          0x0000000000000000        0x0 ..\..\platform\libs\libdrivers.a(usb_device_run_loop.o)
 .data          0x0000000000000000        0x0 ..\..\platform\libs\libdrivers.a(usb_device_run_loop.o)
 .bss           0x0000000000000000        0x0 ..\..\platform\libs\libdrivers.a(usb_device_run_loop.o)
 .text.usb_device_exit
                0x0000000000000000       0x2a ..\..\platform\libs\libdrivers.a(usb_device_run_loop.o)
 .text.usb_device_init
                0x0000000000000000      0x126 ..\..\platform\libs\libdrivers.a(usb_device_run_loop.o)
 .text.usb_device_enter
                0x0000000000000000       0x70 ..\..\platform\libs\libdrivers.a(usb_device_run_loop.o)
 .usbdev.com    0x0000000000000000      0x268 ..\..\platform\libs\libdrivers.a(usb_device_run_loop.o)
 .com_text.usb.device
                0x0000000000000000       0x6a ..\..\platform\libs\libdrivers.a(usb_device_run_loop.o)
 .com_text.irq  0x0000000000000000       0x10 ..\..\platform\libs\libdrivers.a(usb_device_run_loop.o)
 .buf.usb.hid   0x0000000000000000        0x8 ..\..\platform\libs\libdrivers.a(usb_device_run_loop.o)
 .buf.usb.isoc  0x0000000000000000      0x140 ..\..\platform\libs\libdrivers.a(usb_device_run_loop.o)
 .usb.device.desc.buf
                0x0000000000000000      0x400 ..\..\platform\libs\libdrivers.a(usb_device_run_loop.o)
 .comment       0x0000000000000000       0x12 ..\..\platform\libs\libdrivers.a(usb_device_run_loop.o)
 COMMON         0x0000000000000000      0x104 ..\..\platform\libs\libdrivers.a(usb_device_run_loop.o)
 .text          0x0000000000000000        0x0 ..\..\platform\libs\libdrivers.a(usb_device_storage.o)
 .data          0x0000000000000000        0x0 ..\..\platform\libs\libdrivers.a(usb_device_storage.o)
 .bss           0x0000000000000000        0x0 ..\..\platform\libs\libdrivers.a(usb_device_storage.o)
 .usbdev.com    0x0000000000000000      0x72c ..\..\platform\libs\libdrivers.a(usb_device_storage.o)
 .rodata.str1.4
                0x0000000000000000       0x19 ..\..\platform\libs\libdrivers.a(usb_device_storage.o)
 .comment       0x0000000000000000       0x12 ..\..\platform\libs\libdrivers.a(usb_device_storage.o)
 .text          0x0000000000000000        0x0 ..\..\platform\libs\libdrivers.a(usb_device_table.o)
 .data          0x0000000000000000        0x0 ..\..\platform\libs\libdrivers.a(usb_device_table.o)
 .bss           0x0000000000000000        0x0 ..\..\platform\libs\libdrivers.a(usb_device_table.o)
 .usbdev.com.table
                0x0000000000000000      0x182 ..\..\platform\libs\libdrivers.a(usb_device_table.o)
 .comment       0x0000000000000000       0x12 ..\..\platform\libs\libdrivers.a(usb_device_table.o)
 .text          0x0000000000000000        0x0 ..\..\platform\libs\libdrivers.a(usb_host_manage.o)
 .data          0x0000000000000000        0x0 ..\..\platform\libs\libdrivers.a(usb_host_manage.o)
 .bss           0x0000000000000000        0x0 ..\..\platform\libs\libdrivers.a(usb_host_manage.o)
 .text.usb_host_var_init
                0x0000000000000000       0x34 ..\..\platform\libs\libdrivers.a(usb_host_manage.o)
 .text.uhs_is_iphone
                0x0000000000000000       0x12 ..\..\platform\libs\libdrivers.a(usb_host_manage.o)
 .text.usb.host.init
                0x0000000000000000       0xb8 ..\..\platform\libs\libdrivers.a(usb_host_manage.o)
 .com_text.irq  0x0000000000000000       0x26 ..\..\platform\libs\libdrivers.a(usb_host_manage.o)
 .text.udisk_suspend
                0x0000000000000000       0x34 ..\..\platform\libs\libdrivers.a(usb_host_manage.o)
 .text.udisk_resume
                0x0000000000000000       0x5a ..\..\platform\libs\libdrivers.a(usb_host_manage.o)
 .text.udisk_read
                0x0000000000000000       0x92 ..\..\platform\libs\libdrivers.a(usb_host_manage.o)
 .text.udisk_write
                0x0000000000000000       0x64 ..\..\platform\libs\libdrivers.a(usb_host_manage.o)
 .text          0x0000000000000000        0x0 ..\..\platform\libs\libdrivers.a(usb_host_storage.o)
 .data          0x0000000000000000        0x0 ..\..\platform\libs\libdrivers.a(usb_host_storage.o)
 .bss           0x0000000000000000        0x0 ..\..\platform\libs\libdrivers.a(usb_host_storage.o)
 .text.do_transfer
                0x0000000000000000       0xcc ..\..\platform\libs\libdrivers.a(usb_host_storage.o)
 .text.do_receive
                0x0000000000000000      0x106 ..\..\platform\libs\libdrivers.a(usb_host_storage.o)
 .text.do_request
                0x0000000000000000      0x20e ..\..\platform\libs\libdrivers.a(usb_host_storage.o)
 .text.do_scsi_request
                0x0000000000000000      0x120 ..\..\platform\libs\libdrivers.a(usb_host_storage.o)
 .text.uhs_start
                0x0000000000000000      0x1b0 ..\..\platform\libs\libdrivers.a(usb_host_storage.o)
 .text.uhs_read
                0x0000000000000000       0x70 ..\..\platform\libs\libdrivers.a(usb_host_storage.o)
 .text.uhs_write
                0x0000000000000000       0x70 ..\..\platform\libs\libdrivers.a(usb_host_storage.o)
 .text.uhs_init
                0x0000000000000000       0x26 ..\..\platform\libs\libdrivers.a(usb_host_storage.o)
 .rodata        0x0000000000000000       0x3f ..\..\platform\libs\libdrivers.a(usb_host_storage.o)
 .sdata         0x0000000000000000       0x17 ..\..\platform\libs\libdrivers.a(usb_host_storage.o)
 .comment       0x0000000000000000       0x12 ..\..\platform\libs\libdrivers.a(usb_host_storage.o)
 .text          0x0000000000000000        0x0 ..\..\platform\libs\libdrivers.a(usb_comm.o)
 .data          0x0000000000000000        0x0 ..\..\platform\libs\libdrivers.a(usb_comm.o)
 .bss           0x0000000000000000        0x0 ..\..\platform\libs\libdrivers.a(usb_comm.o)
 .text.usb_init
                0x0000000000000000       0x8e ..\..\platform\libs\libdrivers.a(usb_comm.o)
 .text.usb_host_enter
                0x0000000000000000       0x64 ..\..\platform\libs\libdrivers.a(usb_comm.o)
 .com_text.usb  0x0000000000000000       0x20 ..\..\platform\libs\libdrivers.a(usb_comm.o)
 .com_text.irq  0x0000000000000000       0x18 ..\..\platform\libs\libdrivers.a(usb_comm.o)
 .buf.usb.ctrl  0x0000000000000000       0x40 ..\..\platform\libs\libdrivers.a(usb_comm.o)
 .com_text.epsize.table
                0x0000000000000000        0x4 ..\..\platform\libs\libdrivers.a(usb_comm.o)
 .comment       0x0000000000000000       0x12 ..\..\platform\libs\libdrivers.a(usb_comm.o)
 .text          0x0000000000000000        0x0 ..\..\platform\libs\libdrivers.a(usb_detect.o)
 .data          0x0000000000000000        0x0 ..\..\platform\libs\libdrivers.a(usb_detect.o)
 .bss           0x0000000000000000        0x0 ..\..\platform\libs\libdrivers.a(usb_detect.o)
 .text          0x0000000000000000        0x0 ..\..\platform\libs\libdrivers.a(usb_device_audio.o)
 .data          0x0000000000000000        0x0 ..\..\platform\libs\libdrivers.a(usb_device_audio.o)
 .bss           0x0000000000000000        0x0 ..\..\platform\libs\libdrivers.a(usb_device_audio.o)
 .usbdev.com    0x0000000000000000      0x5b0 ..\..\platform\libs\libdrivers.a(usb_device_audio.o)
 .ude.aubuf     0x0000000000000000      0x8d4 ..\..\platform\libs\libdrivers.a(usb_device_audio.o)
 .usbdev.com.table
                0x0000000000000000        0x3 ..\..\platform\libs\libdrivers.a(usb_device_audio.o)
 .comment       0x0000000000000000       0x12 ..\..\platform\libs\libdrivers.a(usb_device_audio.o)
 .text          0x0000000000000000        0x0 ..\..\platform\libs\libdrivers.a(usb_device_enum.o)
 .data          0x0000000000000000        0x0 ..\..\platform\libs\libdrivers.a(usb_device_enum.o)
 .bss           0x0000000000000000        0x0 ..\..\platform\libs\libdrivers.a(usb_device_enum.o)
 .usbdev.com    0x0000000000000000      0x93a ..\..\platform\libs\libdrivers.a(usb_device_enum.o)
 .comment       0x0000000000000000       0x12 ..\..\platform\libs\libdrivers.a(usb_device_enum.o)
 COMMON         0x0000000000000000        0xa ..\..\platform\libs\libdrivers.a(usb_device_enum.o)
 .text          0x0000000000000000        0x0 ..\..\platform\libs\libdrivers.a(usb_device_ep.o)
 .data          0x0000000000000000        0x0 ..\..\platform\libs\libdrivers.a(usb_device_ep.o)
 .bss           0x0000000000000000        0x0 ..\..\platform\libs\libdrivers.a(usb_device_ep.o)
 .usbdev.com    0x0000000000000000      0x3e6 ..\..\platform\libs\libdrivers.a(usb_device_ep.o)
 .comment       0x0000000000000000       0x12 ..\..\platform\libs\libdrivers.a(usb_device_ep.o)
 COMMON         0x0000000000000000       0x24 ..\..\platform\libs\libdrivers.a(usb_device_ep.o)
 .text          0x0000000000000000        0x0 ..\..\platform\libs\libdrivers.a(usb_device_hid.o)
 .data          0x0000000000000000        0x0 ..\..\platform\libs\libdrivers.a(usb_device_hid.o)
 .bss           0x0000000000000000        0x0 ..\..\platform\libs\libdrivers.a(usb_device_hid.o)
 .com_text.usbdev
                0x0000000000000000       0x22 ..\..\platform\libs\libdrivers.a(usb_device_hid.o)
 .usbdev.com    0x0000000000000000      0x122 ..\..\platform\libs\libdrivers.a(usb_device_hid.o)
 .comment       0x0000000000000000       0x12 ..\..\platform\libs\libdrivers.a(usb_device_hid.o)
 .text          0x0000000000000000        0x0 ..\..\platform\libs\libdrivers.a(usb_host_enum.o)
 .data          0x0000000000000000        0x0 ..\..\platform\libs\libdrivers.a(usb_host_enum.o)
 .bss           0x0000000000000000        0x0 ..\..\platform\libs\libdrivers.a(usb_host_enum.o)
 .text.wait_transfering
                0x0000000000000000       0x3e ..\..\platform\libs\libdrivers.a(usb_host_enum.o)
 .text.do_receive
                0x0000000000000000       0x82 ..\..\platform\libs\libdrivers.a(usb_host_enum.o)
 .text.do_skip_rxdata
                0x0000000000000000       0x4e ..\..\platform\libs\libdrivers.a(usb_host_enum.o)
 .text.do_request
                0x0000000000000000      0x284 ..\..\platform\libs\libdrivers.a(usb_host_enum.o)
 .rodata        0x0000000000000000       0x48 ..\..\platform\libs\libdrivers.a(usb_host_enum.o)
 .text.uhe_reset
                0x0000000000000000       0x32 ..\..\platform\libs\libdrivers.a(usb_host_enum.o)
 .text.uhe_start
                0x0000000000000000      0x206 ..\..\platform\libs\libdrivers.a(usb_host_enum.o)
 .text.uhe_clear_feature
                0x0000000000000000       0x50 ..\..\platform\libs\libdrivers.a(usb_host_enum.o)
 .text.uhe_init
                0x0000000000000000       0x28 ..\..\platform\libs\libdrivers.a(usb_host_enum.o)
 .sdata         0x0000000000000000       0x40 ..\..\platform\libs\libdrivers.a(usb_host_enum.o)
 .comment       0x0000000000000000       0x12 ..\..\platform\libs\libdrivers.a(usb_host_enum.o)
 .text          0x0000000000000000        0x0 ..\..\platform\libs\libcodecs.a(aviobuf.o)
 .data          0x0000000000000000        0x0 ..\..\platform\libs\libcodecs.a(aviobuf.o)
 .bss           0x0000000000000000        0x0 ..\..\platform\libs\libcodecs.a(aviobuf.o)
 .text          0x0000000000000000        0x0 ..\..\platform\libs\libcodecs.a(codecs_com.o)
 .data          0x0000000000000000        0x0 ..\..\platform\libs\libcodecs.a(codecs_com.o)
 .bss           0x0000000000000000        0x0 ..\..\platform\libs\libcodecs.a(codecs_com.o)
 .com_text.qskip
                0x0000000000000000       0x12 ..\..\platform\libs\libcodecs.a(codecs_com.o)
 .text          0x0000000000000000        0x0 ..\..\platform\libs\libcodecs.a(drc.o)
 .data          0x0000000000000000        0x0 ..\..\platform\libs\libcodecs.a(drc.o)
 .bss           0x0000000000000000        0x0 ..\..\platform\libs\libcodecs.a(drc.o)
 .com_text.dac.drc
                0x0000000000000000       0xf0 ..\..\platform\libs\libcodecs.a(drc.o)
 .com_rodata.dac.drc
                0x0000000000000000       0x38 ..\..\platform\libs\libcodecs.a(drc.o)
 .text          0x0000000000000000        0x0 ..\..\platform\libs\libcodecs.a(s_drc.o)
 .data          0x0000000000000000        0x0 ..\..\platform\libs\libcodecs.a(s_drc.o)
 .bss           0x0000000000000000        0x0 ..\..\platform\libs\libcodecs.a(s_drc.o)
 .com_text.dac.drc
                0x0000000000000000      0x14c ..\..\platform\libs\libcodecs.a(s_drc.o)
 .text          0x0000000000000000        0x0 ..\..\platform\libs\libcodecs.a(wsola.o)
 .data          0x0000000000000000        0x0 ..\..\platform\libs\libcodecs.a(wsola.o)
 .bss           0x0000000000000000        0x0 ..\..\platform\libs\libcodecs.a(wsola.o)
 .com_text.mav  0x0000000000000000      0x386 ..\..\platform\libs\libcodecs.a(wsola.o)
 .text.mav      0x0000000000000000      0x170 ..\..\platform\libs\libcodecs.a(wsola.o)
 .rodata        0x0000000000000000       0x10 ..\..\platform\libs\libcodecs.a(wsola.o)
 .com_rodata.mav
                0x0000000000000000       0x81 ..\..\platform\libs\libcodecs.a(wsola.o)
 .comment       0x0000000000000000       0x12 ..\..\platform\libs\libcodecs.a(wsola.o)
 COMMON         0x0000000000000000       0x28 ..\..\platform\libs\libcodecs.a(wsola.o)
 .text          0x0000000000000000        0x0 ..\..\platform\libs\libcodecs.a(mp3_dec.o)
 .data          0x0000000000000000        0x0 ..\..\platform\libs\libcodecs.a(mp3_dec.o)
 .bss           0x0000000000000000        0x0 ..\..\platform\libs\libcodecs.a(mp3_dec.o)
 .text          0x0000000000000000        0x0 ..\..\platform\libs\libcodecs.a(bt_sbc.o)
 .data          0x0000000000000000        0x0 ..\..\platform\libs\libcodecs.a(bt_sbc.o)
 .bss           0x0000000000000000        0x0 ..\..\platform\libs\libcodecs.a(bt_sbc.o)
 .data          0x0000000000000000        0x0 ..\..\platform\libs\libcodecs.a(sbc.o)
 .bss           0x0000000000000000        0x0 ..\..\platform\libs\libcodecs.a(sbc.o)
 .text          0x0000000000000000        0x0 ..\..\platform\libs\libcodecs.a(sbc_dec.o)
 .data          0x0000000000000000        0x0 ..\..\platform\libs\libcodecs.a(sbc_dec.o)
 .bss           0x0000000000000000        0x0 ..\..\platform\libs\libcodecs.a(sbc_dec.o)
 .text          0x0000000000000000      0x1a8 ..\..\platform\libs\libcodecs.a(sbcen_io.o)
 .data          0x0000000000000000        0x0 ..\..\platform\libs\libcodecs.a(sbcen_io.o)
 .bss           0x0000000000000000        0x0 ..\..\platform\libs\libcodecs.a(sbcen_io.o)
 COMMON         0x0000000000000000        0x8 ..\..\platform\libs\libcodecs.a(sbcen_io.o)
 .text          0x0000000000000000        0x0 ..\..\platform\libs\libcodecs.a(avio.o)
 .data          0x0000000000000000        0x0 ..\..\platform\libs\libcodecs.a(avio.o)
 .bss           0x0000000000000000        0x0 ..\..\platform\libs\libcodecs.a(avio.o)
 .text          0x0000000000000000        0x0 ..\..\platform\libs\libcodecs.a(s_wsola.o)
 .data          0x0000000000000000        0x0 ..\..\platform\libs\libcodecs.a(s_wsola.o)
 .bss           0x0000000000000000        0x0 ..\..\platform\libs\libcodecs.a(s_wsola.o)
 .com_text.mav  0x0000000000000000       0x22 ..\..\platform\libs\libcodecs.a(s_wsola.o)
 .text          0x0000000000000000        0x0 ..\..\platform\libs\libcodecs.a(bit.o)
 .data          0x0000000000000000        0x0 ..\..\platform\libs\libcodecs.a(bit.o)
 .bss           0x0000000000000000        0x0 ..\..\platform\libs\libcodecs.a(bit.o)
 .text          0x0000000000000000        0x0 ..\..\platform\libs\libcodecs.a(frame.o)
 .data          0x0000000000000000        0x0 ..\..\platform\libs\libcodecs.a(frame.o)
 .bss           0x0000000000000000        0x0 ..\..\platform\libs\libcodecs.a(frame.o)
 .text          0x0000000000000000        0x0 ..\..\platform\libs\libcodecs.a(layer12.o)
 .data          0x0000000000000000        0x0 ..\..\platform\libs\libcodecs.a(layer12.o)
 .bss           0x0000000000000000        0x0 ..\..\platform\libs\libcodecs.a(layer12.o)
 .text          0x0000000000000000        0x0 ..\..\platform\libs\libcodecs.a(layer3.o)
 .data          0x0000000000000000        0x0 ..\..\platform\libs\libcodecs.a(layer3.o)
 .bss           0x0000000000000000        0x0 ..\..\platform\libs\libcodecs.a(layer3.o)
 .text          0x0000000000000000        0x0 ..\..\platform\libs\libcodecs.a(huffman.o)
 .data          0x0000000000000000        0x0 ..\..\platform\libs\libcodecs.a(huffman.o)
 .bss           0x0000000000000000        0x0 ..\..\platform\libs\libcodecs.a(huffman.o)

Memory Configuration

Name             Origin             Length             Attributes
init             0x0000000010000000 0x0000000000000200
flash            0x0000000010000200 0x00000000000c0000 xr
comm             0x0000000000020000 0x0000000000008800 xr
bcomm            0x000000000001e000 0x0000000000002000 xr
stack            0x0000000000010800 0x0000000000000400
data             0x0000000000010c00 0x0000000000006400
heap             0x0000000000028800 0x0000000000003000
aram             0x0000000000050000 0x0000000000004000
bram             0x0000000000018000 0x0000000000006000
cram             0x000000000002b800 0x0000000000004800
dram             0x0000000000054000 0x0000000000003000
eram             0x0000000000057000 0x0000000000000a00
fram             0x0000000000017000 0x0000000000001000
*default*        0x0000000000000000 0xffffffffffffffff

Linker script and memory map

LOAD Output\obj\platform\bsp\bsp_audio.o
LOAD Output\obj\platform\bsp\bsp_aux.o
LOAD Output\obj\platform\bsp\bsp_ble.o
LOAD Output\obj\platform\bsp\bsp_bt.o
LOAD Output\obj\platform\bsp\bsp_car_audio.o
LOAD Output\obj\platform\bsp\bsp_charge.o
LOAD Output\obj\platform\bsp\bsp_cm.o
LOAD Output\obj\platform\bsp\bsp_dac.o
LOAD Output\obj\platform\bsp\bsp_eq.o
LOAD Output\obj\platform\bsp\bsp_fmrx.o
LOAD Output\obj\platform\bsp\bsp_fmtx.o
LOAD Output\obj\platform\bsp\bsp_fs.o
LOAD Output\obj\platform\bsp\bsp_i2c.o
LOAD Output\obj\platform\bsp\bsp_i2s.o
LOAD Output\obj\platform\bsp\bsp_i2s_ta5711.o
LOAD Output\obj\platform\bsp\bsp_i2s_wm8978.o
LOAD Output\obj\platform\bsp\bsp_iap.o
LOAD Output\obj\platform\bsp\bsp_id3_tag.o
LOAD Output\obj\platform\bsp\bsp_ir.o
LOAD Output\obj\platform\bsp\bsp_karaok.o
LOAD Output\obj\platform\bsp\bsp_key.o
LOAD Output\obj\platform\bsp\bsp_lcd.o
LOAD Output\obj\platform\bsp\bsp_led.o
LOAD Output\obj\platform\bsp\bsp_music.o
LOAD Output\obj\platform\bsp\bsp_param.o
LOAD Output\obj\platform\bsp\bsp_record.o
LOAD Output\obj\platform\bsp\bsp_spp.o
LOAD Output\obj\platform\bsp\bsp_sys.o
LOAD Output\obj\platform\bsp\fmrx\fmrx_external.o
LOAD Output\obj\platform\bsp\fmrx\qn8035.o
LOAD Output\obj\platform\functions\func.o
LOAD Output\obj\platform\functions\func_aux.o
LOAD Output\obj\platform\functions\func_bt.o
LOAD Output\obj\platform\functions\func_bt_hid.o
LOAD Output\obj\platform\functions\func_clock.o
LOAD Output\obj\platform\functions\func_fmam_freq.o
LOAD Output\obj\platform\functions\func_fmrx.o
LOAD Output\obj\platform\functions\func_idle.o
LOAD Output\obj\platform\functions\func_lowpwr.o
LOAD Output\obj\platform\functions\func_music.o
LOAD Output\obj\platform\functions\func_speaker.o
LOAD Output\obj\platform\functions\func_update.o
LOAD Output\obj\platform\functions\func_usbdev.o
LOAD Output\obj\platform\functions\sfunc_bt_call.o
LOAD Output\obj\platform\functions\sfunc_bt_ota.o
LOAD Output\obj\platform\functions\sfunc_bt_ring.o
LOAD Output\obj\platform\functions\sfunc_record.o
LOAD Output\obj\platform\gui\gui.o
LOAD Output\obj\platform\gui\ledseg\ledseg_7p7s.o
LOAD Output\obj\platform\gui\ledseg\ledseg_common.o
LOAD Output\obj\platform\libs\strong_symbol.o
LOAD Output\obj\projects\earphone\config.o
LOAD Output\obj\projects\earphone\display\display_aux.o
LOAD Output\obj\projects\earphone\display\display_bt.o
LOAD Output\obj\projects\earphone\display\display_clock.o
LOAD Output\obj\projects\earphone\display\display_fmam_freq.o
LOAD Output\obj\projects\earphone\display\display_fmrx.o
LOAD Output\obj\projects\earphone\display\display_idle.o
LOAD Output\obj\projects\earphone\display\display_music.o
LOAD Output\obj\projects\earphone\display\display_record.o
LOAD Output\obj\projects\earphone\display\display_speaker.o
LOAD Output\obj\projects\earphone\display\display_usbdev.o
LOAD Output\obj\projects\earphone\display\ledseg\display_ledseg.o
LOAD Output\obj\projects\earphone\main.o
LOAD Output\obj\projects\earphone\message\msg_aux.o
LOAD Output\obj\projects\earphone\message\msg_bt.o
LOAD Output\obj\projects\earphone\message\msg_clock.o
LOAD Output\obj\projects\earphone\message\msg_fmam_freq.o
LOAD Output\obj\projects\earphone\message\msg_fmrx.o
LOAD Output\obj\projects\earphone\message\msg_idle.o
LOAD Output\obj\projects\earphone\message\msg_music.o
LOAD Output\obj\projects\earphone\message\msg_record.o
LOAD Output\obj\projects\earphone\message\msg_speaker.o
LOAD Output\obj\projects\earphone\message\msg_usbdev.o
LOAD Output\obj\projects\earphone\plugin\eq_table.o
LOAD Output\obj\projects\earphone\plugin\multi_lang.o
LOAD Output\obj\projects\earphone\plugin\plugin.o
LOAD Output\obj\projects\earphone\port\port_ir.o
LOAD Output\obj\projects\earphone\port\port_key.o
LOAD Output\obj\projects\earphone\port\port_led.o
LOAD Output\obj\projects\earphone\port\port_ledseg.o
LOAD Output\obj\projects\earphone\port\port_linein.o
LOAD Output\obj\projects\earphone\port\port_mute.o
LOAD Output\obj\projects\earphone\port\port_pwm.o
LOAD Output\obj\projects\earphone\port\port_sd.o
LOAD Output\obj\projects\earphone\port\port_update.o
                0x00000000000c0000                __max_flash_size = 0xc0000
                0x0000000000008800                __comm_ram_size = 0x8800
                0x0000000000003000                __heap_ram_size = 0x3000
                0x0000000000004800                __cram_ram_size = 0x4800
                0x0000000010000000                __base = 0x10000000
                0x0000000000050000                __aram_vma = 0x50000
                0x0000000000018000                __bram_vma = 0x18000
                0x0000000000054000                __dram_vma = 0x54000
                0x0000000000057000                __eram_vma = 0x57000
                0x0000000000017000                __fram_vma = 0x17000
                0x0000000000020000                __comm_vma = 0x20000
                0x0000000000028800                __heap_vma = (__comm_vma + __comm_ram_size)
                0x000000000002b800                __cram_vma = (__heap_vma + __heap_ram_size)
                0x000000000001e000                __bcomm_vma = (__bram_vma + 0x6000)

.init           0x0000000010000000       0x44
 *(.reset)
 .reset         0x0000000010000000       0x44 ..\..\platform\libs\libplatform.a(reset.o)
                0x0000000010000000                _start

.bcomm          0x000000000001e000     0x2000 load address 0x0000000010000200
 *(.com_text.bb.btisr)
 .com_text.bb.btisr
                0x000000000001e000       0x32 ..\..\platform\libs\libbtstack.a(bb.o)
                0x000000000001e000                bthw_soft_isr
                0x000000000001e00a                bthw_isr_do
 .com_text.bb.btisr
                0x000000000001e032       0x68 ..\..\platform\libs\libbtstack.a(bt21.o)
                0x000000000001e032                bt21_isr
 .com_text.bb.btisr
                0x000000000001e09a     0x15e4 ..\..\platform\libs\libbtstack.a(ext_bt.o)
                0x000000000001e09a                bt_check_slot_overlap
                0x000000000001e09e                ext_lc_ack_received
                0x000000000001e298                ext_lc_rx_sync
                0x000000000001e33a                ext_lc_rx_clock
                0x000000000001ed8a                ext_lc_get_next_active_acl
                0x000000000001eeba                ext_lc_clock_isr
 .com_text.bb.btisr
                0x000000000001f67e      0x17c ..\..\platform\libs\libbtstack.a(ext_scan.o)
                0x000000000001f698                ext_lc_get_scan_rssi
                0x000000000001f6c2                lc_scan_check_program_allowed
                0x000000000001f728                ext_lc_scan
                0x000000000001f77e                ext_lc_rx_isr
 .com_text.bb.btisr
                0x000000000001f7fa      0x150 ..\..\platform\libs\libbtstack.a(ext_tws.o)
                0x000000000001f7fa                lc_tws_hssi_instant
                0x000000000001f914                lc_get_ticks_status
 .com_text.bb.btisr
                0x000000000001f94a       0xa8 ..\..\platform\libs\libbtstack.a(avdtp.o)
                0x000000000001f94a                a2dp_get_cache_status
 *(.com_text.bb.rf)
 .com_text.bb.rf
                0x000000000001f9f2      0x110 ..\..\platform\libs\libbtstack.a(bb_rf.o)
                0x000000000001f9f2                rf_cacl_rssi
                0x000000000001fa22                rf_set_agc
                0x000000000001fa24                rf_deep_sleep_exit
 *(.com_text.bb.sco)
 .com_text.bb.sco
                0x000000000001fb02      0x13e ..\..\platform\libs\libbtstack.a(ext_bt.o)
                0x000000000001fb02                ext_lc_sco_rx
 .com_text.bb.sco
                0x000000000001fc40      0x24c ..\..\platform\libs\libbtstack.a(ext_sco.o)
                0x000000000001fc6c                bt_codec_isr
                0x000000000001fd0e                lc_sco_codec_pkt
                0x000000000001fdd4                lc_sco_codec_frame
                0x000000000001fe70                lc_sco_lost_frame
                0x0000000000020000                . = ALIGN (0x200)
 *fill*         0x000000000001fe8c      0x174 

.comm           0x0000000000020000     0x6a00 load address 0x0000000010002200
 *(.vector)
 .vector        0x0000000000020000      0x1f8 ..\..\platform\libs\libplatform.a(reset.o)
 *(.plt)
 *(.com_text*)
 .com_text.charge
                0x00000000000201f8       0x90 Output\obj\platform\bsp\bsp_charge.o
                0x00000000000201f8                charge_disp_sta
                0x0000000000020268                charge_get_vusb
 .com_text.dac  0x0000000000020288       0x28 Output\obj\platform\bsp\bsp_dac.o
                0x0000000000020288                dac_set_mute_callback
 .com_text.stream
                0x00000000000202b0        0x8 Output\obj\platform\bsp\bsp_fs.o
                0x00000000000202b0                stream_read
                0x00000000000202b4                stream_seek
 .com_text.port.key
                0x00000000000202b8      0x110 Output\obj\platform\bsp\bsp_key.o
                0x000000000002034c                get_adc_val
 .com_text.port.vbat
                0x00000000000203c8       0x78 Output\obj\platform\bsp\bsp_key.o
                0x00000000000203c8                get_vbat_val
 .com_text.bsp.key
                0x0000000000020440      0x17a Output\obj\platform\bsp\bsp_key.o
                0x0000000000020440                check_key_return
                0x000000000002048c                get_pwroff_pressed_time
                0x00000000000204a0                get_poweron_flag
                0x00000000000204b4                set_poweron_flag
                0x00000000000204c0                bsp_key_process
                0x00000000000204e0                bsp_key_scan
 *fill*         0x00000000000205ba        0x2 
 .com_text.key.table
                0x00000000000205bc        0x8 Output\obj\platform\bsp\bsp_key.o
                0x00000000000205bc                key_shake_table
 .com_text.led  0x00000000000205c4       0x14 Output\obj\platform\bsp\bsp_led.o
                0x00000000000205c4                tmr5ms_set_sync
 .com_text.led_disp
                0x00000000000205d8      0x5a0 Output\obj\platform\bsp\bsp_led.o
                0x00000000000205d8                get_led_sta
                0x00000000000205ec                led_cfg_set_on
                0x0000000000020628                led_cfg_set_off
                0x0000000000020668                bled2_set_on
                0x00000000000206b8                bled2_set_off
                0x000000000002070a                rled2_set_on
                0x000000000002075e                rled2_set_off
                0x00000000000207b0                port_2led_scan
                0x00000000000208ee                bled_set_off
                0x000000000002090e                bled_set_on
                0x000000000002092e                rled_set_off
                0x000000000002094e                rled_set_on
                0x000000000002096e                led_scan
                0x0000000000020a3e                charge_led_off
                0x0000000000020a4c                charge_led_on
                0x0000000000020a5a                led_set_sta
                0x0000000000020ab8                led_cfg_set_sta
                0x0000000000020b04                led_lowbat
                0x0000000000020b58                led_lowbat_recover
 .com_text.detect
                0x0000000000020b78       0xae Output\obj\platform\bsp\bsp_sys.o
                0x0000000000020b78                linein_micl_is_online
                0x0000000000020ba2                linein_detect
                0x0000000000020bda                pwrkey_5s_on_check
 .com_text.timer
                0x0000000000020c26      0x100 Output\obj\platform\bsp\bsp_sys.o
                0x0000000000020c26                usr_tmr1ms_isr
                0x0000000000020c32                usr_tmr5ms_isr
                0x0000000000020d0e                timer1_isr
 .com_text.bsp.sys
                0x0000000000020d26       0x7a Output\obj\platform\bsp\bsp_sys.o
                0x0000000000020d26                bsp_loudspeaker_mute
                0x0000000000020d3e                bsp_loudspeaker_unmute
                0x0000000000020d4a                bsp_get_mute_sta
                0x0000000000020d56                powerkey_out_set
 .com_text.bthid
                0x0000000000020da0       0x18 Output\obj\platform\functions\func_bt_hid.o
                0x0000000000020da0                is_bthid_mode
 .com_text.sleep
                0x0000000000020db8       0x3a Output\obj\platform\functions\func_lowpwr.o
                0x0000000000020db8                lowpwr_tout_ticks
                0x0000000000020ddc                sys_sleep_check
 .com_text.display
                0x0000000000020df2       0x6e Output\obj\platform\gui\gui.o
                0x0000000000020df2                gui_box_isr
 .com_text.bt_rec
                0x0000000000020e60        0x6 Output\obj\platform\libs\strong_symbol.o
                0x0000000000020e60                karaok_rec_fill_buf
                0x0000000000020e64                bt_sco_rec_mix_do
 .com_text.bb.tws.sco
                0x0000000000020e66       0x10 Output\obj\platform\libs\strong_symbol.o
                0x0000000000020e66                ext_lc_tsco_slot_check
                0x0000000000020e68                ext_lc_tsco_get_active_acl
                0x0000000000020e6c                ext_lc_tsco_rx
                0x0000000000020e70                ext_lc_tsco_tx_ack
                0x0000000000020e74                ext_lc_tsco_put_txpkt
 .com_text.plugin
                0x0000000000020e76        0x4 Output\obj\projects\earphone\plugin\plugin.o
                0x0000000000020e76                plugin_tmr5ms_isr
                0x0000000000020e78                plugin_tmr1ms_isr
 .com_text.bsp.sys
                0x0000000000020e7a       0x3a Output\obj\projects\earphone\plugin\plugin.o
                0x0000000000020e7a                lefmic_zero_detect
                0x0000000000020e9e                bt_hfp_ring_number_en
                0x0000000000020ea8                is_func_fmrx_en
                0x0000000000020eac                is_sd_support
                0x0000000000020eb0                is_usb_support
 .com_text.port.vbat
                0x0000000000020eb4        0x2 Output\obj\projects\earphone\plugin\plugin.o
                0x0000000000020eb4                plugin_vbat_filter
 .com_text.port.key
                0x0000000000020eb6        0x2 Output\obj\projects\earphone\plugin\plugin.o
                0x0000000000020eb6                plugin_saradc_sel_channel
 .com_text.bsp.key
                0x0000000000020eb8       0x58 Output\obj\projects\earphone\port\port_key.o
                0x0000000000020eb8                key_msg_remap
 .com_text.key  0x0000000000020f10       0x7c Output\obj\projects\earphone\port\port_key.o
                0x0000000000020f10                check_key_double_configure
 .com_text.adkey
                0x0000000000020f8c       0x3c Output\obj\projects\earphone\port\port_key.o
                0x0000000000020f8c                get_adkey_configure
 .com_text.pwrkey
                0x0000000000020fc8       0x16 Output\obj\projects\earphone\port\port_key.o
                0x0000000000020fc8                get_pwrkey_configure
 .com_text.port.key
                0x0000000000020fde      0x166 Output\obj\projects\earphone\port\port_key.o
                0x0000000000020fde                iokey_cfg_port_pressed
                0x0000000000020ffc                iokey_cfg_port_out_low
                0x0000000000021020                iokey_cfg_midkey_pressed
                0x0000000000021068                get_iokey
 .com_text.adkey.table
                0x0000000000021144       0x1a Output\obj\projects\earphone\port\port_key.o
                0x0000000000021144                adkey_table
 *fill*         0x000000000002115e        0x2 
 .com_text.key.table
                0x0000000000021160       0x26 Output\obj\projects\earphone\port\port_key.o
                0x0000000000021160                key_config_table
                0x0000000000021174                key_sta_table
 *fill*         0x0000000000021186        0x2 
 .com_text.pwrkey.table
                0x0000000000021188        0xc Output\obj\projects\earphone\port\port_key.o
                0x0000000000021188                pwrkey_table
 .com_text.led_disp
                0x0000000000021194      0x1be Output\obj\projects\earphone\port\port_led.o
                0x0000000000021194                led_cfg_set_on_0
                0x00000000000211b8                led_cfg_set_off_0
                0x00000000000211dc                led_cfg_port_init_0
                0x00000000000211de                led_bt_sleep
                0x000000000002121e                led_cfg_is_on_0
                0x000000000002123c                bled_fft_dac_pow
 .com_text.bsp.sys
                0x0000000000021352        0xc Output\obj\projects\earphone\port\port_led.o
                0x0000000000021352                is_led_scan_enable
 .com_text.linein
                0x000000000002135e       0x8e Output\obj\projects\earphone\port\port_linein.o
                0x000000000002135e                linein_is_online
                0x00000000000213aa                is_detect_linein_busy
                0x00000000000213b8                is_sleep_dac_off_enable
                0x00000000000213d2                is_linein_det_mux_micl
 .com_text.mute
                0x00000000000213ec       0x90 Output\obj\projects\earphone\port\port_mute.o
                0x00000000000213ec                loudspeaker_mute
                0x0000000000021420                loudspeaker_unmute
                0x0000000000021454                loudspeaker_disable
 .com_text.dac  0x000000000002147c      0x162 ..\..\platform\libs\libplatform.a(audio.o)
                0x000000000002147c                obuf_put_one_sample
                0x00000000000214ac                obuf_put_one_sample_w
                0x0000000000021504                obuf1_put_one_sample_w
                0x000000000002154e                obuf_put_samples_w
                0x00000000000215c8                obuf_put_samples
 .com_text.karaok.proc
                0x00000000000215de       0x6e ..\..\platform\libs\libplatform.a(audio_echo.o)
                0x00000000000215de                karaok_set_src0_vol
                0x00000000000215fc                karaok_muisc_vol_fade_auto
 .com_text.dac  0x000000000002164c      0x802 ..\..\platform\libs\libplatform.a(dac.o)
                0x000000000002164c                dac_analog_fade_out
                0x000000000002172a                dac_is_fade_in_done
                0x000000000002173e                dac_fade_in_wait
                0x0000000000021788                dac_fade_in
                0x000000000002180a                dac_fade_out
                0x000000000002187a                dac_set_analog_vol
                0x000000000002192c                dac_analog_fade_auto_do
                0x0000000000021990                dac_dnr_detect
                0x0000000000021ae6                dac_pcm_pow_calc
                0x0000000000021af2                dac_fade_process
                0x0000000000021bc4                dac_set_volume
                0x0000000000021c88                dac_unmute_set_delay
                0x0000000000021c90                dac_set_dvol
                0x0000000000021d14                dac_set_balance
                0x0000000000021d40                dac_put_zero
                0x0000000000021d60                dac_w4_aubuf_empty
                0x0000000000021d90                dac_aubufsize_set
                0x0000000000021e1e                dac_aubuf_clr
 .com_text.bsp.dac
                0x0000000000021e4e       0x2e ..\..\platform\libs\libplatform.a(dac.o)
                0x0000000000021e4e                dac_spr_set
 .com_text.dac.dnr
                0x0000000000021e7c       0xa4 ..\..\platform\libs\libplatform.a(dac_dnr.o)
                0x0000000000021e7c                noise_detect_do
                0x0000000000021ef2                noise_detect
                0x0000000000021efc                mic_noise_detect
                0x0000000000021f06                mic_first_detect
                0x0000000000021f10                dnr_set_flag
 .com_text.dac.dnr
                0x0000000000021f20       0xe4 ..\..\platform\libs\libplatform.a(s_dac.o)
                0x0000000000021f20                dnr_voice_maxpow
 .com_text.sdadc
                0x0000000000022004      0x196 ..\..\platform\libs\libplatform.a(sdadc.o)
                0x0000000000022004                sdadc_dummy
                0x0000000000022006                sdadc_pcm_2_dac
                0x0000000000022044                sdadc_pcm_2_src1
                0x0000000000022082                lefmic_zero_detect_do
                0x00000000000220e8                sdadc_process
 .com_text.isr.sdadc
                0x000000000002219a       0x54 ..\..\platform\libs\libplatform.a(sdadc.o)
                0x000000000002219a                sdadc_isr
 .com_text.bthw
                0x00000000000221ee       0x82 ..\..\platform\libs\libplatform.a(bt.o)
                0x00000000000221ee                btstack_uart_lock
                0x0000000000022200                btstack_uart_unlock
                0x0000000000022210                bthw_soft_kick
                0x0000000000022228                thread_bthw_entry
 .com_text.stack.thread
                0x0000000000022270       0x32 ..\..\platform\libs\libplatform.a(bt.o)
                0x0000000000022270                thread_btstack_pend
                0x0000000000022292                thread_btstack_post
 .com_text.stack.run_loop
                0x00000000000222a2       0x56 ..\..\platform\libs\libplatform.a(bt.o)
                0x00000000000222a2                thread_btstack_entry
 .com_text.aec  0x00000000000222f8       0x2e ..\..\platform\libs\libplatform.a(bt_aec.o)
                0x00000000000222f8                aec_far_detect
 .com_text.bb.cvsd
                0x0000000000022326       0x2a ..\..\platform\libs\libplatform.a(bt_aec.o)
                0x0000000000022326                bt_aec_process
 .com_text.bb.cvsd
                0x0000000000022350       0x2a ..\..\platform\libs\libplatform.a(bt_alc.o)
                0x0000000000022350                bt_alc_process
 .com_text.bt_rec.
                0x000000000002237a       0x48 ..\..\platform\libs\libplatform.a(bt_rec.o)
                0x000000000002237a                bt_src_out_process
 .com_text.isr.voice
                0x00000000000223c2       0x24 ..\..\platform\libs\libplatform.a(bt_sco.o)
                0x00000000000223c2                bt_voice_isr
 .com_text.spiflash
                0x00000000000223e6       0x86 ..\..\platform\libs\libplatform.a(os_flash.o)
                0x00000000000223e6                os_spiflash_read
                0x000000000002241c                os_spiflash_program
                0x0000000000022448                os_spiflash_erase
 .com_text.device
                0x000000000002246c       0xf4 ..\..\platform\libs\libplatform.a(device.o)
                0x000000000002246c                dev_is_online
                0x000000000002247a                udisk_is_online
                0x0000000000022486                dev_online_filter
                0x00000000000224f8                dev_offline_filter
 .com_text.delay
                0x0000000000022560       0x58 ..\..\platform\libs\libplatform.a(main.o)
                0x0000000000022560                delay_5ms
                0x000000000002257a                delay_ms
                0x00000000000225a0                delay_us
 .com_text.exception
                0x00000000000225b8       0x84 ..\..\platform\libs\libplatform.a(main.o)
                0x000000000002260a                exception_isr
 .com_text.music
                0x000000000002263c      0x2d4 ..\..\platform\libs\libplatform.a(music.o)
                0x00000000000226a4                os_msc_sem_pend
                0x00000000000226b6                os_msc_sem_post
                0x00000000000226c6                os_tws_sem_pend
                0x00000000000226d8                os_tws_sem_post
                0x00000000000226e8                music_set_cur_time
                0x00000000000226f0                music_get_cur_time
                0x00000000000226f8                get_music_dec_sta
                0x0000000000022704                music_slot_kick
                0x0000000000022742                music_enc_control
                0x0000000000022766                music_decode
                0x00000000000227e0                thread_music_entry
 .com_text.sbc  0x0000000000022910       0x34 ..\..\platform\libs\libplatform.a(music.o)
                0x0000000000022910                music_sbc_play
 .com_text.aec  0x0000000000022944        0xc ..\..\platform\libs\libplatform.a(music.o)
                0x0000000000022944                aec_kick_start
                0x000000000002294a                alc_kick_start
 .com_text.bb.plc
                0x0000000000022950        0x6 ..\..\platform\libs\libplatform.a(music.o)
                0x0000000000022950                plc_kick_start
 .com_text.stream
                0x0000000000022956      0x36c ..\..\platform\libs\libplatform.a(stream.o)
                0x00000000000229aa                msc_stream_read
                0x00000000000229e0                msc_stream_seek
                0x0000000000022a1e                msc_stream_fill
                0x0000000000022a54                os_stream_fill
                0x0000000000022af2                os_stream_read
                0x0000000000022bb8                os_stream_seek
                0x0000000000022ca2                os_stream_end
 .com_text.irq  0x0000000000022cc2      0x1ee ..\..\platform\libs\libplatform.a(interrupt.o)
                0x0000000000022cc2                bthw_isr
                0x0000000000022cdc                bt_codec_mix_isr
                0x0000000000022cf2                timer0_isr
                0x0000000000022d5a                mschw_isr
                0x0000000000022d7c                aubuf_isr
                0x0000000000022dea                register_isr
                0x0000000000022e26                cpu_irq_comm_do
                0x0000000000022e72                src_isr_func_set
                0x0000000000022e94                tick_get
                0x0000000000022e9c                tick_check_expire
 .com_text.tws.isr
                0x0000000000022eb0       0x16 ..\..\platform\libs\libplatform.a(interrupt.o)
                0x0000000000022eb0                tws_soft_isr
 .com_text.timer
                0x0000000000022ec6       0x3a ..\..\platform\libs\libplatform.a(interrupt.o)
                0x0000000000022ec6                timer2_isr
                0x0000000000022eca                usr_tmr_sync
                0x0000000000022ee4                usr_tmr_tick
 .com_text.timer
                0x0000000000022f00       0x10 ..\..\platform\libs\libplatform.a(startup.o)
 .com_text.usb.api
                0x0000000000022f10       0x4a ..\..\platform\libs\libplatform.a(startup.o)
                0x0000000000022f10                uhs_wait_pending
                0x0000000000022f3a                os_sem_uhs_post
                0x0000000000022f4a                os_sem_uhs_trytake
 .com_text.stack
                0x0000000000022f5a       0x7a ..\..\platform\libs\libplatform.a(sys_hook.o)
                0x0000000000022f5a                os_scheduler_stack_check
 .com_text.irq  0x0000000000022fd4        0xe ..\..\platform\libs\libplatform.a(reset.o)
                0x0000000000022fd4                cpu_irq_comm
 .com_text.util.isr
                0x0000000000022fe2        0x6 ..\..\platform\libs\libplatform.a(reset.o)
                0x0000000000022fe2                kick_soft_isr
 .com_text.irtc
                0x0000000000022fe8      0x184 ..\..\platform\libs\libplatform.a(rtc.o)
                0x0000000000022fe8                irtc_time_write
                0x0000000000023028                irtc_time_read
                0x0000000000023066                irtc_sfr_write
                0x00000000000230a6                irtc_sfr_read
                0x00000000000230e4                rtcram_write
                0x0000000000023128                rtcram_read
 .com_text.spiflash
                0x000000000002316c      0x188 ..\..\platform\libs\libplatform.a(spiflash.o)
                0x000000000002320c                spiflash_read
                0x0000000000023270                spiflash_program
                0x00000000000232c4                spiflash_erase
 .com_text.charge
                0x00000000000232f4      0x436 ..\..\platform\libs\libplatform.a(charge.o)
                0x00000000000232f4                charge_dc_detect
                0x00000000000233de                charge_start
                0x00000000000234e6                charge_stop
                0x0000000000023578                charge_off_detect
                0x000000000002363c                charge_detect
 .com_text.debug
                0x000000000002372a      0x20e ..\..\platform\libs\libplatform.a(debug.o)
                0x0000000000023876                switch_bank_printk
 .com_text.lowpwr.sleep
                0x0000000000023938        0xc ..\..\platform\libs\libplatform.a(gpio.o)
                0x0000000000023938                wakeup_get_status
 .com_text.bsp.key
                0x0000000000023944      0x1d6 ..\..\platform\libs\libplatform.a(key.o)
                0x0000000000023944                key_process
                0x0000000000023aa8                key_double_process
 .com_text.voltage.trim
                0x0000000000023b1a       0x10 ..\..\platform\libs\libplatform.a(power.o)
                0x0000000000023b1a                pmu_get_vddio
                0x0000000000023b22                pmu_get_vbg
 .com_text.sys  0x0000000000023b2a       0x4a ..\..\platform\libs\libplatform.a(s_sys.o)
                0x0000000000023b2a                s_ff1
                0x0000000000023b30                s_fl1
                0x0000000000023b36                s_log2
                0x0000000000023b3e                s_clb
                0x0000000000023b44                s_bcnt
                0x0000000000023b4a                s_ror
                0x0000000000023b50                s_swapw
                0x0000000000023b56                s_bitrvti
                0x0000000000023b5c                mul_r
                0x0000000000023b68                s_abs
                0x0000000000023b6e                s_clip16
 .com_text.saradc
                0x0000000000023b74       0x34 ..\..\platform\libs\libplatform.a(saradc.o)
                0x0000000000023b74                saradc_kick_convert
                0x0000000000023b9e                is_saradc_convert_finish
 .com_text.sys  0x0000000000023ba8       0x2e ..\..\platform\libs\libplatform.a(sys_clk.o)
                0x0000000000023ba8                set_peripherals_clkdiv_safety
 .com_text.msg.queue
                0x0000000000023bd6      0x152 ..\..\platform\libs\libplatform.a(sys_msg.o)
                0x0000000000023bd6                msg_queue_clear
                0x0000000000023be6                msg_enqueue
                0x0000000000023c34                msg_dequeue
                0x0000000000023c8a                msg_queue_detach
 .com_text.rec  0x0000000000023d28        0x2 ..\..\platform\libs\libplatform.a(weak_symbol.o)
                0x0000000000023d28                puts_rec_obuf
 .com_text.thread.driver
                0x0000000000023d2a      0x128 ..\..\platform\libs\libplatform.a(thread_driver.o)
                0x0000000000023d2a                os_mq_stream_read_post
                0x0000000000023d50                os_mq_stream_seek_post
                0x0000000000023d76                os_mq_stream_end_post
                0x0000000000023d9c                os_mq_stream_fill_post
                0x0000000000023dc2                thread_driver_entry
 .com_text.aupcm
                0x0000000000023e52       0x24 ..\..\platform\libs\libplatform.a(audio_pcm.o)
                0x0000000000023e52                os_mq_aupcm_post
 .com_text.thread.aupcm
                0x0000000000023e76       0x7a ..\..\platform\libs\libplatform.a(audio_pcm.o)
                0x0000000000023e76                thread_aupcm_entry
 .com_text.bb.loop
                0x0000000000023ef0       0x16 ..\..\platform\libs\libbtstack.a(bb.o)
                0x0000000000023ef0                bb_run_loop
 .com_text.bb.sleep
                0x0000000000023f06      0x166 ..\..\platform\libs\libbtstack.a(bb.o)
                0x0000000000023f06                bb_pend_proc_get
                0x0000000000023f0e                bb_pend_proc_set
                0x0000000000023f3a                bb_wakeup
                0x0000000000023f68                bb_pend_proc_clr
                0x0000000000023f98                bb_is_sleep
                0x0000000000024050                bb_wakeup_end
 .com_text.rf   0x000000000002406c        0xe ..\..\platform\libs\libbtstack.a(bb_rf.o)
 .com_text.bb.leisr
                0x000000000002407a        0x2 ..\..\platform\libs\libbtstack.a(ble.o)
                0x000000000002407a                ble_isr
 .com_text.bb.leisr
                0x000000000002407c        0x4 ..\..\platform\libs\libbtstack.a(ble_evt.o)
                0x000000000002407c                ble_evt_free_do
                0x000000000002407e                ble_evt_instant
 .com_text.bb.leisr
                0x0000000000024080        0x2 ..\..\platform\libs\libbtstack.a(ble_lc.o)
                0x0000000000024080                ble_lc_check_update_evt_sent
 .com_text.bb.leisr
                0x0000000000024082        0x2 ..\..\platform\libs\libbtstack.a(ble_lm.o)
                0x0000000000024082                ble_lm_adv_data_update
 .com_text.bb.bttx
                0x0000000000024084       0x5c ..\..\platform\libs\libbtstack.a(ext_acl.o)
                0x0000000000024084                ext_lc_acl_flush_txptr
 .com_text.bbs.btisr
                0x00000000000240e0      0x116 ..\..\platform\libs\libbtstack.a(ext_bt.o)
                0x00000000000241dc                ext_lc_proc_sniff_link
 .com_text.bb.sniff
                0x00000000000241f6       0xfc ..\..\platform\libs\libbtstack.a(ext_bt.o)
                0x00000000000241f6                ext_lc_sniff_winsz_do_fix
                0x000000000002426c                ext_lc_delta_clk_fix
                0x00000000000242c2                ext_lc_acl_flow_stop_msg
 .com_text.bb.btrx
                0x00000000000242f2      0x1ec ..\..\platform\libs\libbtstack.a(ext_bt.o)
                0x00000000000242f2                ext_lc_data_rx
 .com_text.sbc.tx
                0x00000000000244de       0xd8 ..\..\platform\libs\libbtstack.a(ext_flush.o)
                0x00000000000244de                lc_flush_sbc_buf
 .com_text.bb.bt
                0x00000000000245b6       0x8e ..\..\platform\libs\libbtstack.a(ext_init.o)
                0x00000000000245b6                hwbt_init_link
 .com_text.bb.cvsd
                0x0000000000024644       0x3a ..\..\platform\libs\libbtstack.a(ext_sco.o)
                0x0000000000024644                bt_sco_process
 .com_text.bb.tws
                0x000000000002467e      0x158 ..\..\platform\libs\libbtstack.a(ext_tws.o)
                0x000000000002467e                tws_timer_isr
 .com_text.bb.sniff
                0x00000000000247d6       0x3e ..\..\platform\libs\libbtstack.a(ext_util.o)
                0x00000000000247d6                lc_get_lmp_in_sniff
 .com_text.bb.sw
                0x0000000000024814       0x20 ..\..\platform\libs\libbtstack.a(ext_util.o)
                0x0000000000024814                lc_role_switch_allowed
 .com_text.bb.bt
                0x0000000000024834       0x20 ..\..\platform\libs\libbtstack.a(lc_acl.o)
                0x0000000000024834                lc_acl_set_poll_interval
 .com_text.bb.lc
                0x0000000000024854       0x7a ..\..\platform\libs\libbtstack.a(lc_acl.o)
                0x0000000000024854                lc_send_unsniff_msg
 .com_text.bb.btsw
                0x00000000000248ce       0x24 ..\..\platform\libs\libbtstack.a(lc_util.o)
                0x00000000000248ce                lc_util_rsw_en
 .com_text.bb.lm_sco
                0x00000000000248f2       0x34 ..\..\platform\libs\libbtstack.a(lm_sco.o)
                0x00000000000248f2                lm_sco_get_index_for_conhdl
 .com_text.bb.sleep
                0x0000000000024926       0x48 ..\..\platform\libs\libbtstack.a(lm_sleep.o)
                0x0000000000024926                lm_sleep_wakeup
                0x000000000002496c                lm_sleep_wakeup_end
 .com_text.nanos
                0x000000000002496e       0x5e ..\..\platform\libs\libbtstack.a(nanos.o)
                0x000000000002496e                nanos_time
                0x0000000000024988                nanos_event_set
                0x000000000002499c                nanos_timer_hw_set
 .com_text.bb.sleep
                0x00000000000249cc       0x30 ..\..\platform\libs\libbtstack.a(btstack_api.o)
                0x00000000000249cc                bt_pb_check
                0x00000000000249d0                bt_is_sleep
                0x00000000000249e8                btstack_is_sleep_status
 .com_text.stack.api
                0x00000000000249fc      0x1b2 ..\..\platform\libs\libbtstack.a(btstack_api.o)
                0x00000000000249fc                bt_is_testmode
                0x0000000000024a0a                bt_is_l2cap_disconnected
                0x0000000000024a24                bt_is_disconnecting
                0x0000000000024a3e                btstack_status_update
                0x0000000000024a52                btstack_set_play_status
                0x0000000000024a8a                btstack_get_play_status
                0x0000000000024a98                bt_get_status
                0x0000000000024b26                bt_get_disp_status
                0x0000000000024b78                le_get_status
                0x0000000000024b88                bt_tws_is_slave
 .com_text.stack.run_loop
                0x0000000000024bae       0xea ..\..\platform\libs\libbtstack.a(btstack_api.o)
                0x0000000000024bae                btstack_msg
                0x0000000000024bbe                btstack_message
 .com_text.sco  0x0000000000024c98       0x4a ..\..\platform\libs\libbtstack.a(btstack_api.o)
                0x0000000000024c98                sco_is_bypass
                0x0000000000024cb8                sco_is_msbc_on
 .com_text.stack.ticks
                0x0000000000024ce2       0x16 ..\..\platform\libs\libbtstack.a(btstack_hal.o)
                0x0000000000024ce2                sys_tick_handler
 .com_text.stack.uart_isr
                0x0000000000024cf8       0x72 ..\..\platform\libs\libbtstack.a(btstack_hal.o)
                0x0000000000024cf8                bt_uart_isr
 .com_text.isr  0x0000000000024d6a       0x12 ..\..\platform\libs\libbtstack.a(btstack_hal.o)
                0x0000000000024d6a                bt_timer_isr
 .com_text.huart
                0x0000000000024d7c        0xe ..\..\platform\libs\libbtstack.a(btstack_misc.o)
                0x0000000000024d7c                huart_get_rxcnt
                0x0000000000024d80                huart_getchar
                0x0000000000024d84                huart_tx
                0x0000000000024d86                huart_tx_done
 .com_text.stack.hcic
                0x0000000000024d8a        0xe ..\..\platform\libs\libbtstack.a(hci_transport_hcic.o)
                0x0000000000024d8a                hcic_can_send_packet_now
 .com_text.bt_rec
                0x0000000000024d98        0x2 ..\..\platform\libs\libbtstack.a(weak_symbol.o)
                0x0000000000024d98                bt_sco_rec_mix
 .com_text.stack.run_loop
                0x0000000000024d9a       0x8c ..\..\platform\libs\libbtstack.a(btstack_run_loop.o)
                0x0000000000024d9a                btstack_cmp_abs_tick
                0x0000000000024da0                btstack_run_loop_execute_once
 .com_text.stack.thread
                0x0000000000024e26        0xc ..\..\platform\libs\libbtstack.a(btstack_run_loop.o)
                0x0000000000024e26                btstack_run_loop_embedded_trigger
 .com_text.stack.ticks
                0x0000000000024e32       0x1e ..\..\platform\libs\libbtstack.a(btstack_run_loop.o)
 .com_text.sbc.play
                0x0000000000024e50      0x2d6 ..\..\platform\libs\libbtstack.a(a2dp_play.o)
                0x0000000000024e50                sbc_cache_env_reset
                0x0000000000024efa                sbc_cache_reset
                0x0000000000024fa4                sbc_play_reset
                0x0000000000025026                tws_ticks_trigger
                0x0000000000025074                tws_get_play_ticks
                0x00000000000250e2                tws_get_near_state
                0x00000000000250f6                tws_trigger_isr
 .com_text.sbc_cache
                0x0000000000025126      0x43c ..\..\platform\libs\libbtstack.a(a2dp_play.o)
                0x0000000000025126                sbc_lost_list_not_empty
                0x0000000000025132                sbc_cache_fill
 .com_text.sbc_play
                0x0000000000025562       0x48 ..\..\platform\libs\libbtstack.a(a2dp_play.o)
                0x0000000000025562                tws_cache_is_empty
 .com_text.a2dp_play
                0x00000000000255aa        0x2 ..\..\platform\libs\libbtstack.a(a2dp_play.o)
                0x00000000000255aa                tws_play_sync
 .com_text.sbc  0x00000000000255ac      0x19a ..\..\platform\libs\libbtstack.a(a2dp_play.o)
                0x00000000000255ac                avdtp_check_tws_reset
                0x000000000002560e                sbc_cache_before_rx
 .com_text.sbc.send
                0x0000000000025746      0x1e8 ..\..\platform\libs\libbtstack.a(a2dp_play.o)
                0x0000000000025746                tws_send_pkt
 .com_text.sbc  0x000000000002592e       0xac ..\..\platform\libs\libbtstack.a(a2dp_send.o)
                0x000000000002592e                a2dp_tx_sbc
                0x0000000000025930                sbc_get_tx_cid
                0x0000000000025938                sbc_get_tx_lid
                0x0000000000025940                acl_check_tx
                0x000000000002597e                sbc_tx_valid
                0x000000000002599e                sbc_tx_empty
                0x00000000000259b0                sbc_tx_alloc
                0x00000000000259ca                sbc_tx_free
 .com_text.stack.sbc
                0x00000000000259da       0xa6 ..\..\platform\libs\libbtstack.a(avdtp.o)
                0x00000000000259da                avdtp_fill_sbc_buffer
                0x0000000000025a24                avdtp_fill_tws_buffer
 .com_text.sbc  0x0000000000025a80      0x3c0 ..\..\platform\libs\libbtstack.a(avdtp.o)
                0x0000000000025a80                sbc_rx_reset
                0x0000000000025a8e                sbc_rx_w4_reset
                0x0000000000025abc                sbc_is_rx_reset
                0x0000000000025b02                sbc_rx_is_full
                0x0000000000025b18                avdtp_fill_reset
                0x0000000000025b70                btstack_check_sbc_fill
                0x0000000000025b96                acl_pending_sbc_data
                0x0000000000025ba8                acl_check_rx
                0x0000000000025d26                avdtp_clear_sbc
                0x0000000000025d90                avdtp_fill_sbc
 .com_text.stack.hci
                0x0000000000025e40       0x5c ..\..\platform\libs\libbtstack.a(hci.o)
                0x0000000000025e40                hci_connection_for_handle
                0x0000000000025e64                hci_can_send_command_packet_now
 .com_text.sco  0x0000000000025e9c        0xc ..\..\platform\libs\libbtstack.a(hci.o)
                0x0000000000025e9c                hci_get_sco_voice_setting
 .com_text.stack.handler
                0x0000000000025ea8      0x184 ..\..\platform\libs\libbtstack.a(hci.o)
 .com_text.stack.handler.l2cap
                0x000000000002602c       0x38 ..\..\platform\libs\libbtstack.a(l2cap.o)
                0x000000000002602c                l2cap_get_channel_for_local_cid
                0x0000000000026044                l2cap_get_channel_for_remote_cid
 .com_text.bb.scan
                0x0000000000026064       0x58 ..\..\platform\libs\libbtstack.a(lc_scan.o)
                0x0000000000026064                lc_scan_check_page_enable
 .com_text.stack.linked_list
                0x00000000000260bc       0x50 ..\..\platform\libs\libbtstack.a(btstack_linked_list.o)
                0x00000000000260bc                btstack_linked_list_empty
                0x00000000000260c4                btstack_linked_list_iterator_init
                0x00000000000260d0                btstack_linked_list_iterator_has_next
                0x00000000000260ee                btstack_linked_list_iterator_next
 .com_text.usb.host
                0x000000000002610c       0x6c ..\..\platform\libs\libdrivers.a(usb_host_manage.o)
                0x000000000002610c                udisk_insert
                0x000000000002612e                udisk_remove
 .com_text.usb.dectect
                0x0000000000026178      0x106 ..\..\platform\libs\libdrivers.a(usb_detect.o)
                0x0000000000026178                usbchk_switch_otg_device
                0x0000000000026192                usbchk_switch_otg_host
                0x00000000000261ac                usbchk_only_host
                0x00000000000261c4                usbchk_only_device
                0x00000000000261de                usbchk_connect
 .com_text.avio
                0x000000000002627e      0x2ec ..\..\platform\libs\libcodecs.a(aviobuf.o)
                0x00000000000262e8                avio_seek
                0x000000000002638e                avio_skip
                0x0000000000026392                avio_tell
                0x0000000000026398                avio_feof
                0x00000000000263ba                avio_r8
                0x00000000000263e8                avio_read
                0x0000000000026458                avio_rl16
                0x0000000000026478                avio_rl24
                0x0000000000026498                avio_rl32
                0x00000000000264b8                avio_rl64
                0x00000000000264d8                avio_rb16
                0x00000000000264f8                avio_rb24
                0x0000000000026518                avio_rb32
                0x0000000000026538                avio_peek
 .com_text.deccom
                0x000000000002656a       0x2a ..\..\platform\libs\libcodecs.a(codecs_com.o)
                0x000000000002656a                calc_codec_playtime
                0x0000000000026584                update_codec_playtime_callback
 .com_text.code
                0x0000000000026594       0x68 ..\..\platform\libs\libcodecs.a(bt_sbc.o)
                0x0000000000026594                sbc_cache_is_empty
                0x00000000000265d2                sbc_tws_kick_play
 .com_text.sbc.exit
                0x00000000000265fc        0x8 ..\..\platform\libs\libcodecs.a(bt_sbc.o)
                0x00000000000265fc                sbc_dec_end
 .com_text.sbcdec
                0x0000000000026604       0x4c ..\..\platform\libs\libcodecs.a(bt_sbc.o)
                0x0000000000026604                sbc_dec_reset
 *(.com_rodata*)
 .com_rodata.exception
                0x0000000000026650       0x1f ..\..\platform\libs\libplatform.a(main.o)
 *fill*         0x000000000002666f        0x1 
 .com_rodata.bb
                0x0000000000026670       0x40 ..\..\platform\libs\libbtstack.a(ext_bt.o)
                0x0000000000026670                acl_packet_size
                0x0000000000026690                acl_edr_packet_size
 .com_rodata.bb.tws
                0x00000000000266b0       0x30 ..\..\platform\libs\libbtstack.a(ext_tws.o)
 .com_rodata.bb.tbl
                0x00000000000266e0        0x9 ..\..\platform\libs\libbtstack.a(ext_util.o)
 *fill*         0x00000000000266e9        0x3 
 .com_rodata.hci.trans
                0x00000000000266ec       0x20 ..\..\platform\libs\libbtstack.a(hci_transport_hcic.o)
 .com_rodata.sbc.play
                0x000000000002670c       0x49 ..\..\platform\libs\libbtstack.a(a2dp_play.o)
                0x000000000002670c                sbc_dummy_frame
 *fill*         0x0000000000026755        0x3 
 .com_rodata.sbc
                0x0000000000026758       0x11 ..\..\platform\libs\libbtstack.a(a2dp_send.o)
                0x0000000000026758                str_dbg_send
                0x000000000002675c                sbc_header
 *fill*         0x0000000000026769        0x3 
 .com_rodata.btstakc.hci
                0x000000000002676c        0x8 ..\..\platform\libs\libbtstack.a(hci_cmd.o)
                0x000000000002676c                hci_num_of_packet_complete
 *debug.o(.rodata*)
 .rodata        0x0000000000026774       0x14 ..\..\platform\libs\libplatform.a(debug.o)
 .rodata.str1.4
                0x0000000000026788       0xb8 ..\..\platform\libs\libplatform.a(debug.o)
 *(.data*)
 .data          0x0000000000026840       0x10 Output\obj\platform\bsp\bsp_bt.o
                0x0000000000026840                bt_cfg
 *(.sdata*)
 .sdata         0x0000000000026850        0x4 Output\obj\platform\bsp\bsp_audio.o
                0x0000000000026850                btmic_ch_tbl
 .sdata         0x0000000000026854        0x4 Output\obj\platform\bsp\bsp_sys.o
                0x0000000000026854                maxvol_tbl
 .sdata         0x0000000000026858        0x8 Output\obj\projects\earphone\plugin\eq_table.o
                0x0000000000026858                music_eq_tbl
 .sdata         0x0000000000026860       0x21 ..\..\platform\libs\libplatform.a(audio_eq.o)
 .sdata         0x0000000000026881        0x1 ..\..\platform\libs\libplatform.a(dac.o)
 *fill*         0x0000000000026882        0x2 
 .sdata         0x0000000000026884        0x4 ..\..\platform\libs\libbtstack.a(bb_rf.o)
 .sdata         0x0000000000026888        0x3 ..\..\platform\libs\libbtstack.a(lc_sco.o)
 *fill*         0x000000000002688b        0x1 
 .sdata         0x000000000002688c        0xc ..\..\platform\libs\libbtstack.a(btstack_hal.o)
 .sdata         0x0000000000026898        0x6 ..\..\platform\libs\libbtstack.a(btstack_main.o)
 .sdata         0x000000000002689e        0x1 ..\..\platform\libs\libbtstack.a(avdtp.o)
 *fill*         0x000000000002689f        0x1 
 .sdata         0x00000000000268a0        0x2 ..\..\platform\libs\libbtstack.a(hfp.o)
 *fill*         0x00000000000268a2        0x2 
 .sdata         0x00000000000268a4        0xf ..\..\platform\libs\libbtstack.a(sdp_client.o)
 *fill*         0x00000000000268b3        0x1 
 .sdata         0x00000000000268b4        0x4 ..\..\platform\libs\libbtstack.a(sdp_server.o)
 .sdata         0x00000000000268b8        0x6 ..\..\platform\libs\libbtstack.a(hci.o)
 *fill*         0x00000000000268be        0x2 
 .sdata         0x00000000000268c0        0x4 ..\..\platform\libs\libbtstack.a(l2cap.o)
 .sdata         0x00000000000268c4        0x3 ..\..\platform\libs\libbtstack.a(l2cap_signaling.o)
 *fill*         0x00000000000268c7        0x1 
 .sdata         0x00000000000268c8        0x8 ..\..\platform\libs\libbtstack.a(l2cap_test.o)
 .sdata         0x00000000000268d0        0x8 ..\..\platform\libs\libcodecs.a(bt_sbc.o)
                0x00000000000268d4                tbl_msbc_enc_header
 *(.load_text)
 *(.load_rodata)
                0x0000000000026a00                . = ALIGN (0x200)
 *fill*         0x00000000000268d8      0x128 

.flash          0x0000000010008c00    0x4a800
                0x0000000010008c00                __code_start_sbcdec = .
 *(.sbcdec*)
 .sbcdec.code.pcm
                0x0000000010008c00        0x2 Output\obj\platform\libs\strong_symbol.o
                0x0000000010008c00                bt_sbc_pcm_output
 .sbcdec.code   0x0000000010008c02       0x32 ..\..\platform\libs\libplatform.a(audio.o)
                0x0000000010008c02                adpll_adjust_speed
 .sbcdec.code   0x0000000010008c34        0xc ..\..\platform\libs\libplatform.a(music.o)
                0x0000000010008c34                msbc_kick_start
 .sbcdec.code   0x0000000010008c40      0x2e0 ..\..\platform\libs\libbtstack.a(a2dp_play.o)
                0x0000000010008c40                sbc_cache_free
                0x0000000010008cf4                sbc_cache_read
                0x0000000010008e14                tws_deg_clock
                0x0000000010008e76                sbc_dec_frame
                0x0000000010008e86                tws_is_first_pkt
                0x0000000010008ea4                tws_decoder_waiting
 .sbcdec.code   0x0000000010008f20      0x494 ..\..\platform\libs\libcodecs.a(bt_sbc.o)
                0x0000000010008f20                sbc_set_dac_sample
                0x0000000010008f42                bt_msbc_hw_init
                0x0000000010008f6a                bt_msbc_pcm_output
                0x0000000010008fa6                msbc_enc_frame
                0x0000000010008fd6                btmsbc_fill_callback
                0x0000000010009062                btsbc_fill_callback
                0x000000001000914c                sbc_tws_dec_frame
                0x0000000010009186                sbc_nor_dec_frame
                0x000000001000938e                bt_msbc_process
 .sbcdec.init   0x00000000100093b4       0x50 ..\..\platform\libs\libcodecs.a(bt_sbc.o)
                0x00000000100093b4                sbc_dec_init
 .sbcdec.code   0x0000000010009404      0x6fc ..\..\platform\libs\libcodecs.a(sbc_dec.o)
                0x000000001000957a                sbc_hwdec_init
                0x00000000100097a6                sbc_hwdec_kick
                0x0000000010009836                sbc_read_header
                0x0000000010009872                sbc_unpack_reset
                0x0000000010009888                sbc_decode
                0x0000000010009ae8                sbcdec_end
 .sbcdec.init   0x0000000010009b00       0x4a ..\..\platform\libs\libcodecs.a(sbc_dec.o)
                0x0000000010009b00                sbcdec_init
 *(.sbc_com*)
 *fill*         0x0000000010009b4a        0x2 
 .sbc_com.pll   0x0000000010009b4c       0x20 ..\..\platform\libs\libplatform.a(audio.o)
                0x0000000010009b4c                adpll_ajust_table
 .sbc_com.clac_bits
                0x0000000010009b6c      0x49e ..\..\platform\libs\libcodecs.a(sbc.o)
                0x0000000010009ffa                sbc_calculate_bits
 .sbc_com.crc   0x000000001000a00a       0x5a ..\..\platform\libs\libcodecs.a(sbc.o)
                0x000000001000a00a                sbc_crc8
 .sbc_com.info  0x000000001000a064       0x68 ..\..\platform\libs\libcodecs.a(sbc.o)
                0x000000001000a064                sbc_get_frame_length
 *fill*         0x000000001000a0cc        0x0 
 .sbc_com.crc_table
                0x000000001000a0cc      0x100 ..\..\platform\libs\libcodecs.a(sbc.o)
                0x000000001000a0cc                crc_table
 .sbc_com.table
                0x000000001000a1cc       0x30 ..\..\platform\libs\libcodecs.a(sbc.o)
                0x000000001000a200                . = ALIGN (0x200)
 *fill*         0x000000001000a1fc        0x4 
                0x000000001000a200                __code_end_sbcdec = .
                0x000000001000a200                __code_start_mp3dec = .
 *(.mp3dec*)
 .mp3dec.dac    0x000000001000a200       0x5c ..\..\platform\libs\libplatform.a(music.o)
                0x000000001000a200                mpeg_pcm_output
 .mp3dec.sync   0x000000001000a25c       0x1c ..\..\platform\libs\libplatform.a(music.o)
                0x000000001000a25c                mp3_sync_sysclk_recover
                0x000000001000a272                mp3_sync_set_sysclk
 .mp3dec.id3    0x000000001000a278      0x10e ..\..\platform\libs\libcodecs.a(mp3_dec.o)
                0x000000001000a278                mp3_id3v2_match
                0x000000001000a2ee                mp3_id3v2_tag_len
                0x000000001000a326                mp3_id3v2_parse
 .mp3dec.dec    0x000000001000a386      0x1ae ..\..\platform\libs\libcodecs.a(mp3_dec.o)
                0x000000001000a386                mp3_get_total_time
                0x000000001000a3ba                mp3_read_init
                0x000000001000a45c                mp3_dec_init
                0x000000001000a48a                spi_mp3_dec_init
                0x000000001000a4ec                mp3_end
                0x000000001000a516                mp3_dec_frame
 .mp3dec.mad.bits
                0x000000001000a534      0x2a8 ..\..\platform\libs\libcodecs.a(bit.o)
                0x000000001000a534                mad_bit_init
                0x000000001000a550                mad_bit_set
                0x000000001000a572                mad_bit_reset
                0x000000001000a58a                mad_load_bit_add
                0x000000001000a592                mad_fill_bitbuf
                0x000000001000a5f4                mad_bit_skip
                0x000000001000a6c2                mad_bit_read
                0x000000001000a798                mp3_head_bit_init
                0x000000001000a7b8                mp3_stream_bit_init
 .mp3dec.frame  0x000000001000a7dc      0x9fc ..\..\platform\libs\libcodecs.a(frame.o)
                0x000000001000a7dc                mad_frame_finish
                0x000000001000a7e2                mp3_decode_header
                0x000000001000a99a                mp3_sync
                0x000000001000aa7a                mp3_get_frame_len
                0x000000001000aac6                avio_skip_peek
                0x000000001000abea                mp3_maindata_start
                0x000000001000ac24                mp3_check_maindata_len
                0x000000001000ac32                mp3_frame_end
                0x000000001000ac6c                mp3_save_point
                0x000000001000aca4                mp3_q_jump
                0x000000001000acda                mad_frame_decode
 .mp3dec.dec.fram_tbl
                0x000000001000b1d8      0x138 ..\..\platform\libs\libcodecs.a(frame.o)
                0x000000001000b1d8                bitrate_table
                0x000000001000b304                samplerate_table
 .mp3dec.layer12
                0x000000001000b310       0xd2 ..\..\platform\libs\libcodecs.a(layer12.o)
 .mp3dec.layer2
                0x000000001000b3e2      0x598 ..\..\platform\libs\libcodecs.a(layer12.o)
                0x000000001000b446                mad_layer_II
 .mp3dec.layer1
                0x000000001000b97a      0x2ae ..\..\platform\libs\libcodecs.a(layer12.o)
                0x000000001000b97a                mad_layer_I
 .mp3dec.layer2.table
                0x000000001000bc28      0x1fc ..\..\platform\libs\libcodecs.a(layer12.o)
 .mp3dec.layer3
                0x000000001000be24      0xf84 ..\..\platform\libs\libcodecs.a(layer3.o)
                0x000000001000be24                III_sideinfo
                0x000000001000c088                III_scalefactors_lsf
                0x000000001000c2b0                III_scalefactors
                0x000000001000c448                III_exponents
                0x000000001000c58a                III_huffdecode
                0x000000001000caa0                III_decode
                0x000000001000cd9e                mad_layer_III
 *fill*         0x000000001000cda8        0x0 
 .mp3dec.layer3.nsfb_table
                0x000000001000cda8       0x48 ..\..\platform\libs\libcodecs.a(layer3.o)
                0x000000001000cda8                nsfb_table
 .mp3dec.layer3.pretab
                0x000000001000cdf0       0x16 ..\..\platform\libs\libcodecs.a(layer3.o)
                0x000000001000cdf0                pretab
 *fill*         0x000000001000ce06        0x2 
 .mp3dec.layer3.sfb_table
                0x000000001000ce08      0x31e ..\..\platform\libs\libcodecs.a(layer3.o)
                0x000000001000ce08                sfbwidth_table
                0x000000001000ce74                sfb_8000_mixed
                0x000000001000ce9c                sfb_8000_short
                0x000000001000cec4                sfb_8000_long
                0x000000001000cedc                sfb_16000_mixed
                0x000000001000cf00                sfb_22050_mixed
                0x000000001000cf24                sfb_24000_mixed
                0x000000001000cf48                sfb_16000_short
                0x000000001000cf70                sfb_22050_short
                0x000000001000cf98                sfb_24000_short
                0x000000001000cfc0                sfb_22050_long
                0x000000001000cfd8                sfb_24000_long
                0x000000001000cff0                sfb_32000_mixed
                0x000000001000d018                sfb_44100_mixed
                0x000000001000d040                sfb_48000_mixed
                0x000000001000d068                sfb_32000_short
                0x000000001000d090                sfb_44100_short
                0x000000001000d0b8                sfb_48000_short
                0x000000001000d0e0                sfb_32000_long
                0x000000001000d0f8                sfb_44100_long
                0x000000001000d110                sfb_48000_long
 *fill*         0x000000001000d126        0x2 
 .mp3dec.layer3.sflen_table
                0x000000001000d128       0x20 ..\..\platform\libs\libcodecs.a(layer3.o)
                0x000000001000d128                sflen_table
 .mp3dec.huffman
                0x000000001000d148     0x1228 ..\..\platform\libs\libcodecs.a(huffman.o)
                0x000000001000d148                mad_huff_pair_table
                0x000000001000d248                mad_huff_quad_table
                0x000000001000d250                hufftab24
                0x000000001000d554                hufftab16
                0x000000001000d878                hufftab15
                0x000000001000db70                hufftab13
                0x000000001000de8c                hufftab12
                0x000000001000df4c                hufftab11
                0x000000001000e01c                hufftab10
                0x000000001000e0e8                hufftab9
                0x000000001000e154                hufftab8
                0x000000001000e1d8                hufftab7
                0x000000001000e258                hufftab6
                0x000000001000e290                hufftab5
                0x000000001000e2c4                hufftab3
                0x000000001000e2e4                hufftab2
                0x000000001000e304                hufftab1
                0x000000001000e314                hufftab0
                0x000000001000e318                hufftabB
                0x000000001000e338                hufftabA
                0x000000001000e400                . = ALIGN (0x200)
 *fill*         0x000000001000e370       0x90 
                0x000000001000e400                __code_end_mp3dec = .
                0x000000001000e400                __code_start_sniff = .
 *(.sniff*)
 .sniff.bb.entry
                0x000000001000e400      0x254 ..\..\platform\libs\libbtstack.a(ext_sniff.o)
                0x000000001000e488                lc_sniff_entry_transition_mode
                0x000000001000e532                lc_sniff_entry
                0x000000001000e800                . = ALIGN (0x200)
 *fill*         0x000000001000e654      0x1ac 
                0x000000001000e800                __code_end_sniff = .
                0x000000001000e800                __code_start_wavdec = .
 *(.wavdec*)
                0x000000001000e800                . = ALIGN (0x200)
                0x000000001000e800                __code_end_wavdec = .
                0x000000001000e800                __code_start_wmadec = .
 *(.wmadec*)
                0x000000001000e800                . = ALIGN (0x200)
                0x000000001000e800                __code_end_wmadec = .
                0x000000001000e800                __code_start_apedec = .
 *(.apedec*)
 .apedec.swapw  0x000000001000e800       0x76 ..\..\platform\libs\libcodecs.a(avio.o)
                0x000000001000e800                swapw_buf
                0x000000001000ea00                . = ALIGN (0x200)
 *fill*         0x000000001000e876      0x18a 
                0x000000001000ea00                __code_end_apedec = .
                0x000000001000ea00                __code_start_flacdec = .
 *(.flacdec*)
                0x000000001000ea00                . = ALIGN (0x200)
                0x000000001000ea00                __code_end_flacdec = .
                0x000000001000ea00                __code_start_mp3enc = .
 *(.mp3enc*)
                0x000000001000ea00                . = ALIGN (0x200)
                0x000000001000ea00                __code_end_mp3enc = .
                0x000000001000ea00                __code_start_mp2enc = .
 *(.mp2enc*)
                0x000000001000ea00                . = ALIGN (0x200)
                0x000000001000ea00                __code_end_mp2enc = .
                0x000000001000ea00                __code_start_usbdev = .
 *(.usbdev*)
                0x000000001000ea00                . = ALIGN (0x200)
                0x000000001000ea00                __code_end_usbdev = .
                0x000000001000ea00                __code_start_wma_rlc44q = .
 *(.wma_huff_rlc44q_table)
                0x000000001000ea00                . = ALIGN (0x200)
                0x000000001000ea00                __code_end_wma_rlc44q = .
                0x000000001000ea00                __code_start_wma_rlc44o = .
 *(.wma_huff_rlc44o_table)
                0x000000001000ea00                . = ALIGN (0x200)
                0x000000001000ea00                __code_end_wma_rlc44o = .
                0x000000001000ea00                __code_start_wma_rlc16 = .
 *(.wma_huff_rlc16_table)
                0x000000001000ea00                . = ALIGN (0x200)
                0x000000001000ea00                __code_end_wma_rlc16 = .
                0x000000001000ea00                __code_start_sleep = .
 *(.saradc_text*)
 .saradc_text.init
                0x000000001000ea00       0x9e Output\obj\platform\bsp\bsp_key.o
                0x000000001000ea00                bsp_saradc_init
 .saradc_text.init
                0x000000001000ea9e       0x26 ..\..\platform\libs\libplatform.a(interrupt.o)
                0x000000001000ea9e                saradc_irq_init
 .saradc_text.init
                0x000000001000eac4       0xc2 ..\..\platform\libs\libplatform.a(saradc.o)
                0x000000001000eac4                saradc_setup_time_set
                0x000000001000eaf0                saradc_init
                0x000000001000eb80                saradc_baud_set
 .saradc_text.exit
                0x000000001000eb86       0x66 ..\..\platform\libs\libplatform.a(saradc.o)
                0x000000001000eb86                saradc_exit
 *(.sleep_text*)
 .sleep_text.led
                0x000000001000ebec       0x1c Output\obj\platform\bsp\bsp_led.o
                0x000000001000ebec                port_2led_is_sleep_en
 .sleep_text.timer
                0x000000001000ec08       0xb2 Output\obj\platform\functions\func_lowpwr.o
                0x000000001000ec08                sleep_timer
 .sleep_text.bb
                0x000000001000ecba      0x2a4 ..\..\platform\libs\libbtstack.a(bb.o)
                0x000000001000ecba                delay_15us
                0x000000001000ecc8                bb_sleep
 .sleep_text.bb
                0x000000001000ef5e      0x526 ..\..\platform\libs\libbtstack.a(bb_rf.o)
                0x000000001000f478                rf_sleep
 .sleep_text.bb.rf
                0x000000001000f484       0x52 ..\..\platform\libs\libbtstack.a(bb_rf.o)
                0x000000001000f484                rf_deep_sleep_init
 .sleep_text.bb.ble
                0x000000001000f4d6        0x4 ..\..\platform\libs\libbtstack.a(ble_sleep.o)
                0x000000001000f4d6                lld_sleep_check
 .sleep_text.sleep
                0x000000001000f4da       0x24 ..\..\platform\libs\libbtstack.a(lm_sleep.o)
                0x000000001000f4da                lm_sleep_check
                0x000000001000f4e4                lm_sleep_enter
 .sleep_text.sleep
                0x000000001000f4fe        0xe ..\..\platform\libs\libbtstack.a(btstack_api.o)
                0x000000001000f4fe                bt_sleep_proc
                0x000000001000f600                . = ALIGN (0x200)
 *fill*         0x000000001000f50c       0xf4 
                0x000000001000f600                __code_end_sleep = .
                0x000000001000f600                __code_start_bb_test = .
 *(.bb_test*)
 .bb_test.rx    0x000000001000f600      0x20c ..\..\platform\libs\libbtstack.a(ext_bt.o)
                0x000000001000f600                ext_lc_test_rx
 .bb_test.lmp   0x000000001000f80c      0x636 ..\..\platform\libs\libbtstack.a(ext_util.o)
                0x000000001000fa60                lc_test_mode_cntl
 *fill*         0x000000001000fe42        0x2 
 .bb_test_rodata.lmp
                0x000000001000fe44       0x90 ..\..\platform\libs\libbtstack.a(ext_util.o)
 *(.bb_test_rodata*)
                0x0000000010010000                . = ALIGN (0x200)
 *fill*         0x000000001000fed4      0x12c 
                0x0000000010010000                __code_end_bb_test = .
                0x0000000010010000                __code_start_bt_voice = .
 *(.bt_voice*)
 .bt_voice.plc  0x0000000010010000       0x42 ..\..\platform\libs\libplatform.a(bt.o)
                0x0000000010010000                os_plc_sem_post
                0x0000000010010010                os_plc_sem_pend
 .bt_voice.aec  0x0000000010010042      0x494 ..\..\platform\libs\libplatform.a(bt_aec.o)
                0x0000000010010082                os_aec_sem_post
                0x0000000010010092                os_aec_sem_pend
                0x00000000100100c4                aec_isr
                0x0000000010010172                aec_process
 .bt_voice.alc  0x00000000100104d6      0x4b4 ..\..\platform\libs\libplatform.a(bt_alc.o)
                0x00000000100104d6                os_alc_sem_post
                0x00000000100104e6                os_alc_sem_pend
                0x0000000010010518                alc_isr
                0x0000000010010538                alc_fade_in
                0x0000000010010596                alc_fade_out
                0x0000000010010612                alc_process
 .bt_voice.sco  0x000000001001098a       0x4e ..\..\platform\libs\libplatform.a(bt_sco.o)
                0x000000001001098a                bt_sco_fill_aubuf
 .bt_voice.wnr  0x00000000100109d8       0x66 ..\..\platform\libs\libplatform.a(bt_wnr.o)
                0x00000000100109d8                wnr_div32_16
 .bt_voice.wnr  0x0000000010010a3e      0x146 ..\..\platform\libs\libplatform.a(s_wnr.o)
                0x0000000010010a3e                wnr_detect
                0x0000000010010ade                wnr_process
 .bt_voice.plc  0x0000000010010b84      0x548 ..\..\platform\libs\libbtstack.a(ext_plc.o)
                0x0000000010010d7e                plc_savespeech
                0x0000000010010e1a                plc_add2history
                0x0000000010010eac                plc_dofe
 .bt_voice.plc  0x00000000100110cc       0xde ..\..\platform\libs\libbtstack.a(ext_sco.o)
                0x00000000100110cc                bt_plc_process
 .bt_voice.sco  0x00000000100111aa      0x212 ..\..\platform\libs\libbtstack.a(hci_sco.o)
                0x00000000100111aa                sco_fill_dacbuf
                0x000000001001123e                sco_fill_far_buffer
                0x0000000010011400                . = ALIGN (0x200)
 *fill*         0x00000000100113bc       0x44 
                0x0000000010011400                __code_end_bt_voice = .
                0x0000000010011400                __code_start_update = .
 *(.text.update*)
 .text.update_complete
                0x0000000010011400        0xe Output\obj\projects\earphone\main.o
                0x0000000010011400                update_complete
 .text.updateset_reset
                0x000000001001140e        0x4 Output\obj\projects\earphone\port\port_update.o
                0x000000001001140e                updateset_reset
 .text.update_sd0baud
                0x0000000010011412       0x3a ..\..\platform\libs\libplatform.a(sys_clk.o)
                0x0000000010011412                update_sd0baud
 .text.update   0x000000001001144c      0xa8c ..\..\platform\libs\libplatform.a(update.o)
                0x0000000010011a94                updatefile_init
                0x0000000010011b64                update_status
                0x0000000010011b7c                updateota_init
                0x0000000010011c9e                updateproc
 *fill*         0x0000000010011ed8      0x128 
 .text.update   0x0000000010012000      0x1f6 ..\..\platform\libs\libbtstack.a(bb.o)
                0x0000000010012000                bb_save
                0x0000000010012200                . = ALIGN (0x200)
 *fill*         0x00000000100121f6        0xa 
                0x0000000010012200                __code_end_update = .
 *(.irq_init.aligned)
 .irq_init.aligned
                0x0000000010012200       0x58 ..\..\platform\libs\libplatform.a(interrupt.o)
                0x0000000010012200                bt_cvsd_irq_init
                0x0000000010012202                mschw_irq_init
 *(.text*)
 .text.audio_path_init
                0x0000000010012258       0xc8 Output\obj\platform\bsp\bsp_audio.o
                0x0000000010012258                audio_path_init
 .text.audio_path_start
                0x0000000010012320       0x88 Output\obj\platform\bsp\bsp_audio.o
                0x0000000010012320                audio_path_start
 .text.audio_path_exit
                0x00000000100123a8       0x98 Output\obj\platform\bsp\bsp_audio.o
                0x00000000100123a8                audio_path_exit
 .text.bsp.aux  0x0000000010012440      0x14c Output\obj\platform\bsp\bsp_aux.o
                0x0000000010012440                bsp_aux_anl2pa_start
                0x000000001001248a                bsp_aux_anl2pa_stop
                0x00000000100124b0                bsp_aux_start
                0x00000000100124f8                bsp_aux_stop
                0x000000001001252a                bsp_aux_wav_res_start
                0x000000001001255c                bsp_aux_wav_res_exit
                0x0000000010012584                aux_var_init
 .text.bsp_bt_init
                0x000000001001258c      0x166 Output\obj\platform\bsp\bsp_bt.o
                0x000000001001258c                bsp_bt_init
 .text.bsp_bt_w4_connect
                0x00000000100126f2       0x52 Output\obj\platform\bsp\bsp_bt.o
                0x00000000100126f2                bsp_bt_w4_connect
 .text.bsp_bt_pwrkey5s_check
                0x0000000010012744       0x24 Output\obj\platform\bsp\bsp_bt.o
                0x0000000010012744                bsp_bt_pwrkey5s_check
 .text.bsp_bt_pwrkey5s_clr
                0x0000000010012768       0x28 Output\obj\platform\bsp\bsp_bt.o
                0x0000000010012768                bsp_bt_pwrkey5s_clr
 .text.bsp_bt_vol_change
                0x0000000010012790       0x32 Output\obj\platform\bsp\bsp_bt.o
                0x0000000010012790                bsp_bt_vol_change
 .text.bsp_bt_hid_tog_conn
                0x00000000100127c2       0x36 Output\obj\platform\bsp\bsp_bt.o
                0x00000000100127c2                bsp_bt_hid_tog_conn
 .text.bsp_bt_hid_photo
                0x00000000100127f8       0x22 Output\obj\platform\bsp\bsp_bt.o
                0x00000000100127f8                bsp_bt_hid_photo
 .text.a2dp_get_vol
                0x000000001001281a       0x2a Output\obj\platform\bsp\bsp_bt.o
                0x000000001001281a                a2dp_get_vol
 .text.hfp_get_mic_gain
                0x0000000010012844        0x4 Output\obj\platform\bsp\bsp_bt.o
                0x0000000010012844                hfp_get_mic_gain
 .text.hfp_get_spk_gain
                0x0000000010012848        0x8 Output\obj\platform\bsp\bsp_bt.o
                0x0000000010012848                hfp_get_spk_gain
 .text.hfp_get_bat_level
                0x0000000010012850       0x44 Output\obj\platform\bsp\bsp_bt.o
                0x0000000010012850                hfp_get_bat_level
 .text.bt_get_tws_info
                0x0000000010012894       0x10 Output\obj\platform\bsp\bsp_bt.o
                0x0000000010012894                bt_get_tws_info
 .text.bt_set_tws_info
                0x00000000100128a4       0x36 Output\obj\platform\bsp\bsp_bt.o
                0x00000000100128a4                bt_set_tws_info
 .text.bt_emit_notice
                0x00000000100128da      0x1fa Output\obj\platform\bsp\bsp_bt.o
                0x00000000100128da                bt_emit_notice
 .text.bt_get_func_sta
                0x0000000010012ad4       0x14 Output\obj\platform\bsp\bsp_bt.o
                0x0000000010012ad4                bt_get_func_sta
 .text.bt_set_func_sta
                0x0000000010012ae8       0x20 Output\obj\platform\bsp\bsp_bt.o
                0x0000000010012ae8                bt_set_func_sta
 .text.bt_get_local_name
                0x0000000010012b08       0x22 Output\obj\platform\bsp\bsp_bt.o
                0x0000000010012b08                bt_get_local_name
 .text.bt_get_local_bd_addr
                0x0000000010012b2a       0x36 Output\obj\platform\bsp\bsp_bt.o
                0x0000000010012b2a                bt_get_local_bd_addr
 .text.bt_get_rand_seed
                0x0000000010012b60        0x8 Output\obj\platform\bsp\bsp_bt.o
                0x0000000010012b60                bt_get_rand_seed
 .text.bt_get_guid
                0x0000000010012b68       0x6a Output\obj\platform\bsp\bsp_bt.o
                0x0000000010012b68                bt_get_guid
 .text.bt_get_link_info
                0x0000000010012bd2       0x30 Output\obj\platform\bsp\bsp_bt.o
                0x0000000010012bd2                bt_get_link_info
 .text.bt_put_link_info
                0x0000000010012c02       0x30 Output\obj\platform\bsp\bsp_bt.o
                0x0000000010012c02                bt_put_link_info
 .text.bt_get_ext_link_info
                0x0000000010012c32        0x8 Output\obj\platform\bsp\bsp_bt.o
                0x0000000010012c32                bt_get_ext_link_info
 .text.bt_put_ext_link_info
                0x0000000010012c3a        0x8 Output\obj\platform\bsp\bsp_bt.o
                0x0000000010012c3a                bt_put_ext_link_info
 .text.bt_sync_link_info
                0x0000000010012c42        0x4 Output\obj\platform\bsp\bsp_bt.o
                0x0000000010012c42                bt_sync_link_info
 .text.charge_off
                0x0000000010012c46       0x1a Output\obj\platform\bsp\bsp_charge.o
                0x0000000010012c46                charge_off
 .text.charge_set_stop_time
                0x0000000010012c60        0xc Output\obj\platform\bsp\bsp_charge.o
                0x0000000010012c60                charge_set_stop_time
 .text.charge_init
                0x0000000010012c6c       0x7e Output\obj\platform\bsp\bsp_charge.o
                0x0000000010012c6c                charge_init
 .text.cm_loadparam
                0x0000000010012cea       0x8e Output\obj\platform\bsp\bsp_cm.o
                0x0000000010012cea                cm_loadparam
 .text.cm_factory
                0x0000000010012d78       0xc0 Output\obj\platform\bsp\bsp_cm.o
                0x0000000010012d78                cm_factory
 .text.bsp.dac  0x0000000010012e38      0x140 Output\obj\platform\bsp\bsp_dac.o
                0x0000000010012e38                bsp_change_volume
                0x0000000010012e66                bsp_set_volume
                0x0000000010012ebe                bsp_volume_inc
                0x0000000010012eda                bsp_volume_dec
                0x0000000010012ee4                dac_set_anl_offset
                0x0000000010012f1a                dac_set_vol_table
                0x0000000010012f44                dac_init
 .text.dac      0x0000000010012f78        0xe Output\obj\platform\bsp\bsp_dac.o
                0x0000000010012f78                dac_pull_down_delay
 *fill*         0x0000000010012f86        0x2 
 .text.bsp.dac.table
                0x0000000010012f88       0x6e Output\obj\platform\bsp\bsp_dac.o
                0x0000000010012f88                dac_vol_tbl_16
                0x0000000010012f9c                dac_vol_tbl_32
                0x0000000010012fc0                dac_vol_tbl_50
 .text.tx_ack.constprop.0
                0x0000000010012ff6       0x50 Output\obj\platform\bsp\bsp_eq.o
 .text.music    0x0000000010013046       0x16 Output\obj\platform\bsp\bsp_eq.o
                0x0000000010013046                music_set_eq_by_num
 .text.eq_tx_ack
                0x000000001001305c       0x2a Output\obj\platform\bsp\bsp_eq.o
                0x000000001001305c                eq_tx_ack
 .text.eq_tx_version
                0x0000000010013086       0x54 Output\obj\platform\bsp\bsp_eq.o
                0x0000000010013086                eq_tx_version
 .text.eq_parse_cmd
                0x00000000100130da       0xdc Output\obj\platform\bsp\bsp_eq.o
                0x00000000100130da                eq_parse_cmd
 .text.eq_dbg_init
                0x00000000100131b6       0x34 Output\obj\platform\bsp\bsp_eq.o
                0x00000000100131b6                eq_dbg_init
 .text.music_eq_get_bass_tbl
                0x00000000100131ea        0x8 Output\obj\platform\bsp\bsp_eq.o
                0x00000000100131ea                music_eq_get_bass_tbl
 .text.music_eq_get_treble_tbl
                0x00000000100131f2        0x8 Output\obj\platform\bsp\bsp_eq.o
                0x00000000100131f2                music_eq_get_treble_tbl
 .text.bsp_eq_init
                0x00000000100131fa        0x2 Output\obj\platform\bsp\bsp_eq.o
                0x00000000100131fa                bsp_eq_init
 .text.bsp.power
                0x00000000100131fc      0x384 Output\obj\platform\bsp\bsp_key.o
                0x00000000100131fc                pwrkey_get_status
                0x000000001001325a                power_off_check
                0x00000000100133b0                power_on_check
 .text.is_lowpower_vbat_warning
                0x0000000010013580       0xb2 Output\obj\platform\bsp\bsp_key.o
                0x0000000010013580                is_lowpower_vbat_warning
 .text.get_double_key_time
                0x0000000010013632       0x18 Output\obj\platform\bsp\bsp_key.o
                0x0000000010013632                get_double_key_time
 .text.bsp.key.init
                0x000000001001364a       0x58 Output\obj\platform\bsp\bsp_key.o
                0x000000001001364a                key_init
 .text.led_disp
                0x00000000100136a2       0xb6 Output\obj\platform\bsp\bsp_led.o
                0x00000000100136a2                led_cfg_port_init
                0x00000000100136e8                led_init
                0x000000001001371c                led_off
                0x000000001001372a                led_on
                0x000000001001373a                rled_on
                0x000000001001374a                rled_off
 .text.led2_port_init
                0x0000000010013758       0x50 Output\obj\platform\bsp\bsp_led.o
                0x0000000010013758                led2_port_init
 .text.charge_bled_on
                0x00000000100137a8        0xe Output\obj\platform\bsp\bsp_led.o
                0x00000000100137a8                charge_bled_on
 .text.led_lowbat_follow_warning
                0x00000000100137b6       0x42 Output\obj\platform\bsp\bsp_led.o
                0x00000000100137b6                led_lowbat_follow_warning
 .text.mp3_res_play
                0x00000000100137f8      0x124 Output\obj\platform\bsp\bsp_music.o
                0x00000000100137f8                mp3_res_play
 .text.wav_res_play
                0x000000001001391c       0x64 Output\obj\platform\bsp\bsp_music.o
                0x000000001001391c                wav_res_play
 .text.bsp.param
                0x0000000010013980      0x192 Output\obj\platform\bsp\bsp_param.o
                0x0000000010013980                bsp_param_write
                0x0000000010013984                bsp_param_read
                0x0000000010013988                bsp_param_sync
                0x000000001001398c                param_msc_num_write
                0x00000000100139a6                param_msc_num_read
                0x00000000100139f6                param_fmrx_chcur_write
                0x0000000010013a06                param_fmrx_chcur_read
                0x0000000010013a16                param_fmrx_chcnt_write
                0x0000000010013a26                param_fmrx_chcnt_read
                0x0000000010013a36                param_fmrx_chbuf_write
                0x0000000010013a46                param_fmrx_chbuf_read
                0x0000000010013a56                param_sys_vol_write
                0x0000000010013a64                param_sys_vol_read
                0x0000000010013a72                param_init
                0x0000000010013aee                param_lang_id_write
                0x0000000010013afc                param_lang_id_read
                0x0000000010013b0a                param_sync
                0x0000000010013b0e                param_get_xosc_addr
 .text.bt_app_cmd_process
                0x0000000010013b12      0x15a Output\obj\platform\bsp\bsp_spp.o
                0x0000000010013b12                bt_app_cmd_process
 .text.spp_rx_callback
                0x0000000010013c6c        0x4 Output\obj\platform\bsp\bsp_spp.o
                0x0000000010013c6c                spp_rx_callback
 .text.bsp.sys.init
                0x0000000010013c70      0x520 Output\obj\platform\bsp\bsp_sys.o
                0x0000000010013d96                rtc_init
                0x0000000010013e4e                tws_pwrkey_820k_check
                0x0000000010013ee8                tws_gpiox_2_gnd_check
                0x0000000010013fc0                tws_lr_xcfg_sel
                0x000000001001401e                bsp_update_init
                0x0000000010014076                bsp_sys_init
 .text.bsp.sys  0x0000000010014190       0x9a Output\obj\platform\bsp\bsp_sys.o
                0x0000000010014190                bsp_sys_mute
                0x00000000100141c8                bsp_sys_unmute
                0x000000001001420a                bsp_clr_mute_sta
 .text.uart0_mapping_sel
                0x000000001001422a       0x4e Output\obj\platform\bsp\bsp_sys.o
                0x000000001001422a                uart0_mapping_sel
 .text.bsp_get_xosc_xcfg
                0x0000000010014278       0x20 Output\obj\platform\bsp\bsp_sys.o
                0x0000000010014278                bsp_get_xosc_xcfg
 .text.func.msg
                0x0000000010014298      0x3d4 Output\obj\platform\functions\func.o
                0x0000000010014298                lowpower_vbat_process
                0x00000000100143ea                func_message
 .text.func.process
                0x000000001001466c        0xa Output\obj\platform\functions\func.o
                0x000000001001466c                func_process
 .text.func     0x0000000010014676      0x102 Output\obj\platform\functions\func.o
                0x0000000010014676                func_enter
                0x00000000100146c4                func_exit
                0x000000001001471c                func_run
 .text.func_bt_mp3_res_play
                0x0000000010014778       0x20 Output\obj\platform\functions\func_bt.o
                0x0000000010014778                func_bt_mp3_res_play
 .text.func_bt_tws_set_channel
                0x0000000010014798       0x48 Output\obj\platform\functions\func_bt.o
 *fill*         0x00000000100147e0       0x20 
 .text.func_bt_chkclr_warning
                0x0000000010014800       0x80 Output\obj\platform\functions\func_bt.o
                0x0000000010014800                func_bt_chkclr_warning
 .text.func_bt_switch_voice_lang
                0x0000000010014880       0x5a Output\obj\platform\functions\func_bt.o
                0x0000000010014880                func_bt_switch_voice_lang
 .text.func_bt_warning
                0x00000000100148da      0x27c Output\obj\platform\functions\func_bt.o
                0x00000000100148da                func_bt_warning
 .text.func_bt_disp_status
                0x0000000010014b56      0x12a Output\obj\platform\functions\func_bt.o
                0x0000000010014b56                func_bt_disp_status
 .text.func.bt  0x0000000010014c80      0x24a Output\obj\platform\functions\func_bt.o
                0x0000000010014c80                func_bt_status
                0x0000000010014cb6                func_bt
 .text.func_bt_hid_warning
                0x0000000010014eca       0x9e Output\obj\platform\functions\func_bt_hid.o
                0x0000000010014eca                func_bt_hid_warning
 .text.func.bt  0x0000000010014f68      0x128 Output\obj\platform\functions\func_bt_hid.o
                0x0000000010014f68                func_bthid
 *fill*         0x0000000010015090      0x170 
 .text.lowpwr.sleep
                0x0000000010015200      0x6b4 Output\obj\platform\functions\func_lowpwr.o
                0x0000000010015200                sleep_process
                0x0000000010015600                func_sleepmode
 *fill*         0x00000000100158b4      0x14c 
 .text.lowpwr.pwroff
                0x0000000010015a00      0x4dc Output\obj\platform\functions\func_lowpwr.o
                0x0000000010015a00                sfunc_lowbat
                0x0000000010015c00                sfunc_pwrdown
                0x0000000010015d92                func_pwroff
 .text.sco_audio_init
                0x0000000010015edc       0xd2 Output\obj\platform\functions\sfunc_bt_call.o
                0x0000000010015edc                sco_audio_init
 .text.sco_audio_exit
                0x0000000010015fae       0x2a Output\obj\platform\functions\sfunc_bt_call.o
                0x0000000010015fae                sco_audio_exit
 .text.func.bt  0x0000000010015fd8       0x5c Output\obj\platform\functions\sfunc_bt_call.o
                0x0000000010015fd8                sfunc_bt_call
 .text.func.btring
                0x0000000010016034       0x3e Output\obj\platform\functions\sfunc_bt_ota.o
                0x0000000010016034                sfunc_bt_ota
 .text.func.btring
                0x0000000010016072      0x1d4 Output\obj\platform\functions\sfunc_bt_ring.o
                0x00000000100160aa                hfp_get_bnip_number
                0x00000000100160f4                sfunc_bt_ring
 .text.rec_wave_process
                0x0000000010016246        0x2 Output\obj\platform\functions\sfunc_record.o
                0x0000000010016246                rec_wave_process
 .text.gui_init
                0x0000000010016248       0x12 Output\obj\platform\gui\gui.o
                0x0000000010016248                gui_init
 .text.gui      0x000000001001625a      0x1c6 Output\obj\platform\gui\gui.o
                0x000000001001625a                gui_box_flicker_set
                0x0000000010016274                gui_box_process
                0x00000000100162d0                gui_box_display
                0x00000000100162d2                gui_box_clear
                0x00000000100162e4                gui_box_show_vol
                0x0000000010016310                gui_box_show_eq
                0x0000000010016330                gui_box_show_playmode
                0x0000000010016350                gui_box_show_num
                0x0000000010016374                gui_box_show_chan
                0x0000000010016394                gui_box_show_inputnum
                0x0000000010016400                gui_box_show_freq
 .text.ude_ep_reset
                0x0000000010016420        0x2 Output\obj\platform\libs\strong_symbol.o
                0x0000000010016420                ude_ep_reset
 .text.ude_control_flow
                0x0000000010016422        0x2 Output\obj\platform\libs\strong_symbol.o
                0x0000000010016422                ude_control_flow
 .text.ude_isoc_tx_process
                0x0000000010016424        0x2 Output\obj\platform\libs\strong_symbol.o
                0x0000000010016424                ude_isoc_tx_process
 .text.ude_isoc_rx_process
                0x0000000010016426        0x2 Output\obj\platform\libs\strong_symbol.o
                0x0000000010016426                ude_isoc_rx_process
 .text.music_enc_process
                0x0000000010016428        0x2 Output\obj\platform\libs\strong_symbol.o
                0x0000000010016428                music_enc_process
 .text.adpcm_encode_process
                0x000000001001642a        0x2 Output\obj\platform\libs\strong_symbol.o
                0x000000001001642a                adpcm_encode_process
 .text.msbc_encode_init
                0x000000001001642c        0x4 Output\obj\platform\libs\strong_symbol.o
                0x000000001001642c                msbc_encode_init
 .text.sbc_encode_process
                0x0000000010016430        0x2 Output\obj\platform\libs\strong_symbol.o
                0x0000000010016430                sbc_encode_process
 .text.wav_dec_init
                0x0000000010016432        0x4 Output\obj\platform\libs\strong_symbol.o
                0x0000000010016432                wav_dec_init
 .text.wav_dec_frame
                0x0000000010016436        0x4 Output\obj\platform\libs\strong_symbol.o
                0x0000000010016436                wav_dec_frame
 .text.lock_code_wavdec
                0x000000001001643a        0x2 Output\obj\platform\libs\strong_symbol.o
                0x000000001001643a                lock_code_wavdec
 .text.wma_dec_init
                0x000000001001643c        0x4 Output\obj\platform\libs\strong_symbol.o
                0x000000001001643c                wma_dec_init
 .text.wma_dec_frame
                0x0000000010016440        0x4 Output\obj\platform\libs\strong_symbol.o
                0x0000000010016440                wma_dec_frame
 .text.lock_code_wmadec
                0x0000000010016444        0x2 Output\obj\platform\libs\strong_symbol.o
                0x0000000010016444                lock_code_wmadec
 .text.ape_dec_init
                0x0000000010016446        0x4 Output\obj\platform\libs\strong_symbol.o
                0x0000000010016446                ape_dec_init
 .text.ape_dec_frame
                0x000000001001644a        0x4 Output\obj\platform\libs\strong_symbol.o
                0x000000001001644a                ape_dec_frame
 .text.lock_code_apedec
                0x000000001001644e        0x2 Output\obj\platform\libs\strong_symbol.o
                0x000000001001644e                lock_code_apedec
 .text.flac_dec_init
                0x0000000010016450        0x4 Output\obj\platform\libs\strong_symbol.o
                0x0000000010016450                flac_dec_init
 .text.flac_dec_frame
                0x0000000010016454        0x4 Output\obj\platform\libs\strong_symbol.o
                0x0000000010016454                flac_dec_frame
 .text.lock_code_flacdec
                0x0000000010016458        0x2 Output\obj\platform\libs\strong_symbol.o
                0x0000000010016458                lock_code_flacdec
 .text.sbcio_dec_init
                0x000000001001645a        0x4 Output\obj\platform\libs\strong_symbol.o
                0x000000001001645a                sbcio_dec_init
 .text.sbcio_dec_frame
                0x000000001001645e        0x4 Output\obj\platform\libs\strong_symbol.o
                0x000000001001645e                sbcio_dec_frame
 .text.usb_isr  0x0000000010016462        0x2 Output\obj\platform\libs\strong_symbol.o
                0x0000000010016462                usb_isr
 .text.usb_init
                0x0000000010016464        0x2 Output\obj\platform\libs\strong_symbol.o
                0x0000000010016464                usb_init
 .text.sd_disk_init
                0x0000000010016466        0x2 Output\obj\platform\libs\strong_symbol.o
                0x0000000010016466                sd_disk_init
 .text.sdctl_isr
                0x0000000010016468        0x2 Output\obj\platform\libs\strong_symbol.o
                0x0000000010016468                sdctl_isr
 .text.sd0_stop
                0x000000001001646a        0x4 Output\obj\platform\libs\strong_symbol.o
                0x000000001001646a                sd0_stop
 .text.fs_get_file_size
                0x000000001001646e        0x4 Output\obj\platform\libs\strong_symbol.o
                0x000000001001646e                fs_get_file_size
 .text.fs_save_file_info
                0x0000000010016472        0x2 Output\obj\platform\libs\strong_symbol.o
                0x0000000010016472                fs_save_file_info
 .text.fs_load_file_info
                0x0000000010016474        0x2 Output\obj\platform\libs\strong_symbol.o
                0x0000000010016474                fs_load_file_info
 .text.lc_tsco_init
                0x0000000010016476        0x2 Output\obj\platform\libs\strong_symbol.o
                0x0000000010016476                lc_tsco_init
 .text.lc_tsco_send_setup
                0x0000000010016478        0x2 Output\obj\platform\libs\strong_symbol.o
                0x0000000010016478                lc_tsco_send_setup
 .text.lc_tsco_send_kill
                0x000000001001647a        0x2 Output\obj\platform\libs\strong_symbol.o
                0x000000001001647a                lc_tsco_send_kill
 .text.magic_voice_process
                0x000000001001647c        0x2 Output\obj\platform\libs\strong_symbol.o
                0x000000001001647c                magic_voice_process
 .text.spdif_process
                0x000000001001647e        0x2 Output\obj\platform\libs\strong_symbol.o
                0x000000001001647e                spdif_process
 .text.bt_sco_fill_remote_buf
                0x0000000010016480        0x2 Output\obj\platform\libs\strong_symbol.o
                0x0000000010016480                bt_sco_fill_remote_buf
 .text.drc_process
                0x0000000010016482        0x2 Output\obj\platform\libs\strong_symbol.o
                0x0000000010016482                drc_process
 .text.func     0x0000000010016484        0x4 Output\obj\projects\earphone\config.o
                0x0000000010016484                get_funcs_total
 .text.bt_get_rf_param
                0x0000000010016488       0x26 Output\obj\projects\earphone\main.o
                0x0000000010016488                bt_get_rf_param
 .text.sys_error_hook
                0x00000000100164ae        0xe Output\obj\projects\earphone\main.o
                0x00000000100164ae                sys_error_hook
 .text.startup.main
                0x00000000100164bc       0x14 Output\obj\projects\earphone\main.o
                0x00000000100164bc                main
 .text.func.bt.msg
                0x00000000100164d0      0x34c Output\obj\projects\earphone\message\msg_bt.o
                0x00000000100164d0                func_bt_message
                0x00000000100167aa                func_bthid_message
 .text.func.btring.msg
                0x000000001001681c       0xd8 Output\obj\projects\earphone\message\msg_bt.o
                0x000000001001681c                sfunc_bt_ring_message
 .text.sfunc_bt_call_message
                0x00000000100168f4      0x1da Output\obj\projects\earphone\message\msg_bt.o
                0x00000000100168f4                sfunc_bt_call_message
 .text.multi_lang_init
                0x0000000010016ace        0x2 Output\obj\projects\earphone\plugin\multi_lang.o
                0x0000000010016ace                multi_lang_init
 .text.res_get_ring_num
                0x0000000010016ad0       0x20 Output\obj\projects\earphone\plugin\multi_lang.o
                0x0000000010016ad0                res_get_ring_num
 .text.plugin_init
                0x0000000010016af0      0x11c Output\obj\projects\earphone\plugin\plugin.o
                0x0000000010016af0                plugin_init
 .text.plugin_var_init
                0x0000000010016c0c      0x12a Output\obj\projects\earphone\plugin\plugin.o
                0x0000000010016c0c                plugin_var_init
 .text.sleep_wakeup_config
                0x0000000010016d36       0x94 Output\obj\projects\earphone\plugin\plugin.o
                0x0000000010016d36                sleep_wakeup_config
 .text.get_wav_res_digvol
                0x0000000010016dca        0x8 Output\obj\projects\earphone\plugin\plugin.o
                0x0000000010016dca                get_wav_res_digvol
 .text.maxvol_tone_play
                0x0000000010016dd2       0x58 Output\obj\projects\earphone\plugin\plugin.o
                0x0000000010016dd2                maxvol_tone_play
 .text.minvol_tone_play
                0x0000000010016e2a       0x10 Output\obj\projects\earphone\plugin\plugin.o
                0x0000000010016e2a                minvol_tone_play
 .text.adjvol_tone_play
                0x0000000010016e3a       0x1e Output\obj\projects\earphone\plugin\plugin.o
                0x0000000010016e3a                adjvol_tone_play
 .text.plugin_music_eq
                0x0000000010016e58       0x18 Output\obj\projects\earphone\plugin\plugin.o
                0x0000000010016e58                plugin_music_eq
 .text.plugin_saradc_init
                0x0000000010016e70        0x2 Output\obj\projects\earphone\plugin\plugin.o
                0x0000000010016e70                plugin_saradc_init
 .text.plugin_lowbat_vol_reduce
                0x0000000010016e72        0x2 Output\obj\projects\earphone\plugin\plugin.o
                0x0000000010016e72                plugin_lowbat_vol_reduce
 .text.plugin_lowbat_vol_recover
                0x0000000010016e74        0x2 Output\obj\projects\earphone\plugin\plugin.o
                0x0000000010016e74                plugin_lowbat_vol_recover
 .text.key.init
                0x0000000010016e76       0xfe Output\obj\projects\earphone\port\port_key.o
                0x0000000010016e76                iokey_cfg_port_init
                0x0000000010016e9a                io_key_init
 .text.led_disp
                0x0000000010016f74      0x20c Output\obj\projects\earphone\port\port_led.o
                0x0000000010016f74                led_power_up
                0x0000000010016f9e                led_power_down
                0x0000000010017008                led_idle
                0x000000001001701a                led_bt_init
                0x0000000010017044                led_bt_idle
                0x000000001001706e                led_bt_reconnect
                0x0000000010017098                led_bt_connected
                0x00000000100170c2                led_bt_play
                0x00000000100170ec                led_bt_ring
                0x0000000010017116                led_bt_call
                0x0000000010017140                led_bt_scan
                0x0000000010017142                led_fm_scan
                0x0000000010017154                led_music_busy
                0x0000000010017156                led_record
                0x0000000010017168                led_fm_play
                0x000000001001716a                led_aux_play
                0x000000001001716c                led_music_play
                0x000000001001716e                led_bt_pb_sleep
 .text.led_func_init
                0x0000000010017180      0x104 Output\obj\projects\earphone\port\port_led.o
                0x0000000010017180                led_func_init
 .text.linein_detect_init
                0x0000000010017284       0x82 Output\obj\projects\earphone\port\port_linein.o
                0x0000000010017284                linein_detect_init
 .text.loudspeaker_mute_init
                0x0000000010017306       0x6a Output\obj\projects\earphone\port\port_mute.o
                0x0000000010017306                loudspeaker_mute_init
 .text.adpll_init
                0x0000000010017370       0xc6 ..\..\platform\libs\libplatform.a(audio.o)
                0x0000000010017370                adpll_init
 .text.adpll_spr_set
                0x0000000010017436       0x8a ..\..\platform\libs\libplatform.a(audio.o)
                0x0000000010017436                adpll_spr_set
 .text.audio    0x00000000100174c0      0xc00 ..\..\platform\libs\libplatform.a(audio.o)
                0x00000000100174c0                set_aux_analog_gain
                0x0000000010017516                set_mic_analog_gain
                0x0000000010017576                aux_analog_channel_select
                0x0000000010017774                aux_analog_channel_close
                0x0000000010017870                analog_mic2pa_start
                0x0000000010017994                analog_mic2pa_exit
                0x0000000010017a70                analog_aux2pa_start_do
                0x0000000010017bf8                analog_aux2pa_start
                0x0000000010017c08                analog_aux2pa_mono_start
                0x0000000010017c18                analog_aux2pa_exit
                0x0000000010017ca8                analog_aux2pa_dig2anl_enable
                0x0000000010017cde                analog_aux2pa_dig2anl_disable
                0x0000000010017d18                sdadc_analog_aux_start
                0x0000000010017e30                sdadc_analog_aux_exit
                0x0000000010017ea4                sdadc_analog_mic_start
                0x000000001001802e                sdadc_analog_mic_exit
 *fill*         0x00000000100180c0        0x0 
 .text.audio.table
                0x00000000100180c0       0x1a ..\..\platform\libs\libplatform.a(audio.o)
                0x00000000100180c0                mic_anl_table
 .text.karaok.var
                0x00000000100180da       0x30 ..\..\platform\libs\libplatform.a(audio_echo.o)
                0x00000000100180da                karaok_var_init
 .text.music_eq_fade_out
                0x000000001001810a       0x1c ..\..\platform\libs\libplatform.a(audio_eq.o)
 .text.eq.msc   0x0000000010018126      0x3a8 ..\..\platform\libs\libplatform.a(audio_eq.o)
                0x0000000010018126                music_set_eq_is_done
                0x0000000010018130                music_set_eq_gain
                0x000000001001813a                music_set_eq
                0x000000001001845e                music_set_eq_by_res
                0x00000000100184ca                music_eq_off
 .text.dac      0x00000000100184ce      0x96c ..\..\platform\libs\libplatform.a(dac.o)
                0x0000000010018520                dac_analog_fade_in
                0x0000000010018568                dac_fade_wait
                0x00000000100185a2                dac_dnr_set_sta
                0x00000000100185c8                dac_dnr_get_sta
                0x00000000100185d8                dac_cb_init
                0x000000001001869c                dac_power_fade2min
                0x00000000100186e4                dac_power_fade2max
                0x0000000010018714                dac_start_1
                0x000000001001889a                dac_start_2
                0x0000000010018992                dac_set_mono
                0x00000000100189e4                dac_set_dual
                0x0000000010018a2c                dac_channel_enable
                0x0000000010018a3e                dac_channel_disable
                0x0000000010018ac0                dac_power_on
                0x0000000010018b78                dac_mono_init
                0x0000000010018bd8                dac_channel_exchange
                0x0000000010018c0a                dac_obuf_init
                0x0000000010018c58                dac_restart
                0x0000000010018cae                dac_src1_init
                0x0000000010018ce8                dac_power_off
                0x0000000010018dd6                src1_w4_aubuf_empty
                0x0000000010018e22                dac_drc_init
 .text.dac_digital_enable
                0x0000000010018e3a       0x4c ..\..\platform\libs\libplatform.a(dac.o)
                0x0000000010018e3a                dac_digital_enable
 .text.dac_digital_disable
                0x0000000010018e86       0x4a ..\..\platform\libs\libplatform.a(dac.o)
                0x0000000010018e86                dac_digital_disable
 .text.dac_mix2mono
                0x0000000010018ed0       0x4a ..\..\platform\libs\libplatform.a(dac.o)
                0x0000000010018ed0                dac_mix2mono
 .text.dac_mix2mono_invert
                0x0000000010018f1a       0x50 ..\..\platform\libs\libplatform.a(dac.o)
                0x0000000010018f1a                dac_mix2mono_invert
 .text.dac_src1_spr_set
                0x0000000010018f6a       0x32 ..\..\platform\libs\libplatform.a(dac.o)
                0x0000000010018f6a                dac_src1_spr_set
 .text.dac.dnr  0x0000000010018f9c       0x64 ..\..\platform\libs\libplatform.a(dac_dnr.o)
                0x0000000010018f9c                dac_dnr_init
                0x0000000010018fbc                mic_first_init
                0x0000000010018fde                mic_dnr_init
 .text.sdadc    0x0000000010019000      0x524 ..\..\platform\libs\libplatform.a(sdadc.o)
                0x0000000010019000                sdadc_spr_set
                0x0000000010019088                sdadc_set_digital_gain
                0x00000000100190d0                sdadc_init
                0x00000000100192d6                sdadc_start
                0x00000000100193ea                sdadc_exit
 .text.sdadc_var_init
                0x0000000010019524       0x1c ..\..\platform\libs\libplatform.a(sdadc.o)
                0x0000000010019524                sdadc_var_init
 *fill*         0x0000000010019540        0x0 
 .text.sdadc.table
                0x0000000010019540        0xa ..\..\platform\libs\libplatform.a(sdadc.o)
                0x0000000010019540                sdadc_spr_index_tbl
 .text.bt_hid_wait_tx_complete
                0x000000001001954a       0x2c ..\..\platform\libs\libplatform.a(bt.o)
 .text.stack.api
                0x0000000010019576      0x23c ..\..\platform\libs\libplatform.a(bt.o)
                0x0000000010019576                bt_send_msg
                0x00000000100195a2                bt_setup
                0x00000000100195e0                bt_connect
                0x0000000010019606                bt_disconnect
                0x000000001001962c                bt_off
                0x0000000010019678                bt_hid_connect
                0x00000000100196a2                bt_hid_disconnect
                0x00000000100196c8                bt_hid_key
                0x00000000100196f6                bt_hid_consumer
                0x0000000010019724                bt_set_scan
                0x0000000010019738                bt_set_tws_scan
                0x0000000010019752                bt_audio_bypass
                0x0000000010019782                bt_audio_enable
 .text.bt_wait_disconnect
                0x00000000100197b2       0x38 ..\..\platform\libs\libplatform.a(bt.o)
                0x00000000100197b2                bt_wait_disconnect
 .text.stack.api.tws_search
                0x00000000100197ea       0x1a ..\..\platform\libs\libplatform.a(bt.o)
                0x00000000100197ea                bt_tws_search_slave
 .text.stack.api.tws_dis
                0x0000000010019804       0x22 ..\..\platform\libs\libplatform.a(bt.o)
                0x0000000010019804                bt_tws_disconnect
 .text.aec_init
                0x0000000010019826      0x18c ..\..\platform\libs\libplatform.a(bt_aec.o)
                0x0000000010019826                aec_init
 .text.alc      0x00000000100199b2      0x1b2 ..\..\platform\libs\libplatform.a(bt_alc.o)
                0x00000000100199b2                alc_init
 .text.bt_voice_init
                0x0000000010019b64       0x46 ..\..\platform\libs\libplatform.a(bt_sco.o)
                0x0000000010019b64                bt_voice_init
 .text.bt_voice_exit
                0x0000000010019baa       0x48 ..\..\platform\libs\libplatform.a(bt_sco.o)
                0x0000000010019baa                bt_voice_exit
 .text.wnr      0x0000000010019bf2        0x8 ..\..\platform\libs\libplatform.a(bt_wnr.o)
                0x0000000010019bf2                wnr_init
 .text.cm_next_freepage
                0x0000000010019bfa       0x34 ..\..\platform\libs\libplatform.a(cm.o)
 .text.cm_loadpage
                0x0000000010019c2e       0x16 ..\..\platform\libs\libplatform.a(cm.o)
 .text.cm_write_cfgpage
                0x0000000010019c44       0x72 ..\..\platform\libs\libplatform.a(cm.o)
 .text.cm_check_loadpage
                0x0000000010019cb6       0x9e ..\..\platform\libs\libplatform.a(cm.o)
 .text.cm_check_page
                0x0000000010019d54       0x7a ..\..\platform\libs\libplatform.a(cm.o)
 .text.cm_movepage
                0x0000000010019dce       0x50 ..\..\platform\libs\libplatform.a(cm.o)
 .text.cm_release
                0x0000000010019e1e       0x74 ..\..\platform\libs\libplatform.a(cm.o)
 .text.cm_get_startaddr
                0x0000000010019e92        0x8 ..\..\platform\libs\libplatform.a(cm.o)
                0x0000000010019e92                cm_get_startaddr
 .text.cm_get_area
                0x0000000010019e9a       0x12 ..\..\platform\libs\libplatform.a(cm.o)
                0x0000000010019e9a                cm_get_area
 .text.cm_release_all
                0x0000000010019eac       0xb0 ..\..\platform\libs\libplatform.a(cm.o)
                0x0000000010019eac                cm_release_all
 .text.cm_sync  0x0000000010019f5c       0x6a ..\..\platform\libs\libplatform.a(cm.o)
                0x0000000010019f5c                cm_sync
 .text.cm_read  0x0000000010019fc6       0x58 ..\..\platform\libs\libplatform.a(cm.o)
                0x0000000010019fc6                cm_read
 .text.cm_write
                0x000000001001a01e       0x62 ..\..\platform\libs\libplatform.a(cm.o)
                0x000000001001a01e                cm_write
 .text.cm_init  0x000000001001a080      0x1e4 ..\..\platform\libs\libplatform.a(cm.o)
                0x000000001001a080                cm_init
 .text.xcfg_init
                0x000000001001a264       0x5e ..\..\platform\libs\libplatform.a(xcfg.o)
                0x000000001001a264                xcfg_init
 .text.sd_disable
                0x000000001001a2c2       0x18 ..\..\platform\libs\libplatform.a(device.o)
                0x000000001001a2c2                sd_disable
 .text.usb_disable
                0x000000001001a2da       0x24 ..\..\platform\libs\libplatform.a(device.o)
                0x000000001001a2da                usb_disable
 .text.device.init
                0x000000001001a2fe       0xc8 ..\..\platform\libs\libplatform.a(device.o)
                0x000000001001a2fe                dev_init
                0x000000001001a36e                dev_delay_times
                0x000000001001a380                dev_delay_online_times
                0x000000001001a38e                dev_delay_offline_times
                0x000000001001a39c                dev_clr_sta
 .text.fmrx_set_pll
                0x000000001001a3c6      0x100 ..\..\platform\libs\libplatform.a(fmrx_ang.o)
                0x000000001001a3c6                fmrx_set_pll
 .text.fmrx_analog_init
                0x000000001001a4c6      0x32c ..\..\platform\libs\libplatform.a(fmrx_ang.o)
                0x000000001001a4c6                fmrx_analog_init
 .text.uart0_printf_map_to_PA7
                0x000000001001a7f2       0x18 ..\..\platform\libs\libplatform.a(main.o)
                0x000000001001a7f2                uart0_printf_map_to_PA7
 .text.platform_main
                0x000000001001a80a      0x116 ..\..\platform\libs\libplatform.a(main.o)
                0x000000001001a80a                platform_main
 .text.main_startup
                0x000000001001a920       0x4e ..\..\platform\libs\libplatform.a(main.o)
                0x000000001001a920                main_startup
 .text.music    0x000000001001a96e      0x182 ..\..\platform\libs\libplatform.a(music.o)
                0x000000001001a9f6                music_set_total_time
                0x000000001001a9fe                music_get_total_time
                0x000000001001aa42                mp3_get_cbr_total_time
                0x000000001001aa5e                music_control
 .text.music.init
                0x000000001001aaf0      0x3ea ..\..\platform\libs\libplatform.a(music.o)
                0x000000001001ab08                wav_decode_init
                0x000000001001ab6c                mp3_decode_init
                0x000000001001abe0                msbc_init
                0x000000001001ac22                sbcio_decode_init
                0x000000001001aca4                ape_decode_init
                0x000000001001ad00                flac_decode_init
                0x000000001001ad5c                wma_decode_init
                0x000000001001adb8                spi_mp3_decode_init
                0x000000001001ae20                sbc_decode_init
                0x000000001001ae82                music_decode_init
                0x000000001001aeb2                sbc_decode_exit
 .text.thread_pff_take
                0x000000001001aeda       0x12 ..\..\platform\libs\libplatform.a(music.o)
                0x000000001001aeda                thread_pff_take
 .text.thread_pff_release
                0x000000001001aeec       0x10 ..\..\platform\libs\libplatform.a(music.o)
                0x000000001001aeec                thread_pff_release
 .text.spires   0x000000001001aefc      0x208 ..\..\platform\libs\libplatform.a(music_res.o)
                0x000000001001aefc                spi_res_decrypt
                0x000000001001af8c                register_spi_read_function
                0x000000001001af94                spi_stream_read
                0x000000001001b01e                spi_stream_seek
                0x000000001001b042                spi_save_file_info
                0x000000001001b052                spi_load_file_info
                0x000000001001b064                wav_res_is_play
                0x000000001001b072                obuf1_puts_sample
                0x000000001001b0c4                wav_res_dec_process
 .text.mp3_res_play_kick
                0x000000001001b104       0x7a ..\..\platform\libs\libplatform.a(music_res.o)
                0x000000001001b104                mp3_res_play_kick
 .text.obuf1_puts_zero
                0x000000001001b17e       0x2a ..\..\platform\libs\libplatform.a(music_res.o)
                0x000000001001b17e                obuf1_puts_zero
 .text.wav_res_play_kick
                0x000000001001b1a8      0x17c ..\..\platform\libs\libplatform.a(music_res.o)
                0x000000001001b1a8                wav_res_play_kick
 .text.wav_res_stop
                0x000000001001b324       0x86 ..\..\platform\libs\libplatform.a(music_res.o)
                0x000000001001b324                wav_res_stop
 .text.msc_stream_start
                0x000000001001b3aa       0x46 ..\..\platform\libs\libplatform.a(stream.o)
                0x000000001001b3aa                msc_stream_start
 .text.msc_stream_end
                0x000000001001b3f0       0x2a ..\..\platform\libs\libplatform.a(stream.o)
                0x000000001001b3f0                msc_stream_end
 .text.timer0_init
                0x000000001001b41a       0x64 ..\..\platform\libs\libplatform.a(interrupt.o)
                0x000000001001b41a                timer0_init
 .text.soft_irq_init
                0x000000001001b47e       0x44 ..\..\platform\libs\libplatform.a(interrupt.o)
                0x000000001001b47e                soft_irq_init
 .text.bthw_irq_init
                0x000000001001b4c2       0x34 ..\..\platform\libs\libplatform.a(interrupt.o)
                0x000000001001b4c2                bthw_irq_init
 .text.sd0_irq_init
                0x000000001001b4f6       0x34 ..\..\platform\libs\libplatform.a(interrupt.o)
                0x000000001001b4f6                sd0_irq_init
 .text.usb_irq_init
                0x000000001001b52a       0x28 ..\..\platform\libs\libplatform.a(interrupt.o)
                0x000000001001b52a                usb_irq_init
 .text.sdadc_irq_init
                0x000000001001b552       0x34 ..\..\platform\libs\libplatform.a(interrupt.o)
                0x000000001001b552                sdadc_irq_init
 .text.tws_irq_init
                0x000000001001b586       0x36 ..\..\platform\libs\libplatform.a(interrupt.o)
                0x000000001001b586                tws_irq_init
 .text.aubuf_irq_init
                0x000000001001b5bc       0x34 ..\..\platform\libs\libplatform.a(interrupt.o)
                0x000000001001b5bc                aubuf_irq_init
 .text.thread_main_entry
                0x000000001001b5f0      0x266 ..\..\platform\libs\libplatform.a(startup.o)
 .text.sys_set_tmr_enable
                0x000000001001b856        0xe ..\..\platform\libs\libplatform.a(startup.o)
                0x000000001001b856                sys_set_tmr_enable
 .text.thread_idle_create
                0x000000001001b864       0x3c ..\..\platform\libs\libplatform.a(startup.o)
                0x000000001001b864                thread_idle_create
 .text.startup.init
                0x000000001001b8a0      0x160 ..\..\platform\libs\libplatform.a(startup.o)
                0x000000001001b8a0                platform_init
                0x000000001001b8a2                sys_startup
 .text.sys_hook_init
                0x000000001001ba00       0x12 ..\..\platform\libs\libplatform.a(sys_hook.o)
                0x000000001001ba00                sys_hook_init
 .text.charge_trim
                0x000000001001ba12       0x10 ..\..\platform\libs\libplatform.a(charge.o)
                0x000000001001ba12                charge_trim
 .text.charge_init_p
                0x000000001001ba22       0xbc ..\..\platform\libs\libplatform.a(charge.o)
                0x000000001001ba22                charge_init_p
 .text.internal_charge_disable
                0x000000001001bade       0x20 ..\..\platform\libs\libplatform.a(charge.o)
                0x000000001001bade                internal_charge_disable
 .text.debug_set
                0x000000001001bafe       0x1a ..\..\platform\libs\libplatform.a(debug.o)
                0x000000001001bafe                debug_set
 .text.gpio_cfg_init
                0x000000001001bb18       0x62 ..\..\platform\libs\libplatform.a(gpio.o)
                0x000000001001bb18                gpio_cfg_init
 .text.lowpwr.sleep
                0x000000001001bb7a      0x29c ..\..\platform\libs\libplatform.a(gpio.o)
                0x000000001001bb7a                adcch_io_wakeup_config
                0x000000001001bc80                wakeup_gpio_config
                0x000000001001bdbe                wakeup_wko_config
                0x000000001001be02                wakeup_disable
 .text.bsp.key.init
                0x000000001001be16       0x34 ..\..\platform\libs\libplatform.a(key.o)
                0x000000001001be16                key_var_init
 .text.lock_init
                0x000000001001be4a       0x14 ..\..\platform\libs\libplatform.a(lock.o)
                0x000000001001be4a                lock_init
 .text.unlock_whcode
                0x000000001001be5e       0x3a ..\..\platform\libs\libplatform.a(lock.o)
                0x000000001001be5e                unlock_whcode
 .text.lock_whcode
                0x000000001001be98       0x56 ..\..\platform\libs\libplatform.a(lock.o)
                0x000000001001be98                lock_whcode
 .text.lock_sleep
                0x000000001001beee       0x14 ..\..\platform\libs\libplatform.a(lock.o)
                0x000000001001beee                lock_sleep
 .text.unlock_sleep
                0x000000001001bf02        0x4 ..\..\platform\libs\libplatform.a(lock.o)
                0x000000001001bf02                unlock_sleep
 .text.unlock_dcode
                0x000000001001bf06       0x4c ..\..\platform\libs\libplatform.a(lock.o)
                0x000000001001bf06                unlock_dcode
 .text.lock_dcode
                0x000000001001bf52       0x56 ..\..\platform\libs\libplatform.a(lock.o)
                0x000000001001bf52                lock_dcode
 .text.lock_code_sbcdec
                0x000000001001bfa8       0x38 ..\..\platform\libs\libplatform.a(lock.o)
                0x000000001001bfa8                lock_code_sbcdec
 .text.lock_code_mp3dec
                0x000000001001bfe0       0x14 ..\..\platform\libs\libplatform.a(lock.o)
                0x000000001001bfe0                lock_code_mp3dec
 .text.lock_code_bt_voice
                0x000000001001bff4       0x5c ..\..\platform\libs\libplatform.a(lock.o)
                0x000000001001bff4                lock_code_bt_voice
 .text.unlock_code_bt_voice
                0x000000001001c050       0x36 ..\..\platform\libs\libplatform.a(lock.o)
                0x000000001001c050                unlock_code_bt_voice
 .text.lock_code_sniff
                0x000000001001c086       0x4e ..\..\platform\libs\libplatform.a(lock.o)
                0x000000001001c086                lock_code_sniff
 .text.unlock_code_sniff
                0x000000001001c0d4       0x36 ..\..\platform\libs\libplatform.a(lock.o)
                0x000000001001c0d4                unlock_code_sniff
 .text.lock_code_bb_test
                0x000000001001c10a       0x5c ..\..\platform\libs\libplatform.a(lock.o)
                0x000000001001c10a                lock_code_bb_test
 .text.unlock_code_bb_test
                0x000000001001c166       0x36 ..\..\platform\libs\libplatform.a(lock.o)
                0x000000001001c166                unlock_code_bb_test
 .text.pmu_buck_mode
                0x000000001001c19c       0xa4 ..\..\platform\libs\libplatform.a(power.o)
                0x000000001001c19c                pmu_buck_mode
 .text.pmu_ldo_mode
                0x000000001001c240       0x24 ..\..\platform\libs\libplatform.a(power.o)
                0x000000001001c240                pmu_ldo_mode
 .text.pmu_init
                0x000000001001c264      0x162 ..\..\platform\libs\libplatform.a(power.o)
                0x000000001001c264                pmu_init
 .text.sys_get_rand_key
                0x000000001001c3c6       0x76 ..\..\platform\libs\libplatform.a(sys.o)
                0x000000001001c3c6                sys_get_rand_key
 .text.xosc_init
                0x000000001001c43c       0xd8 ..\..\platform\libs\libplatform.a(sys.o)
                0x000000001001c43c                xosc_init
 .text.bsp.param
                0x000000001001c514       0x30 ..\..\platform\libs\libplatform.a(sys.o)
                0x000000001001c514                bt_save_xosc_cap
 .text.bt_restore_xosc_cap
                0x000000001001c544        0x4 ..\..\platform\libs\libplatform.a(sys.o)
                0x000000001001c544                bt_restore_xosc_cap
 .text.bt_get_xosc_cap
                0x000000001001c548       0x18 ..\..\platform\libs\libplatform.a(sys.o)
                0x000000001001c548                bt_get_xosc_cap
 .text.bt_set_xosc_cap
                0x000000001001c560       0x2a ..\..\platform\libs\libplatform.a(sys.o)
                0x000000001001c560                bt_set_xosc_cap
 .text.bt_adj_xosc_cap
                0x000000001001c58a       0x58 ..\..\platform\libs\libplatform.a(sys.o)
                0x000000001001c58a                bt_adj_xosc_cap
 .text.sys_clk  0x000000001001c5e2       0x72 ..\..\platform\libs\libplatform.a(sys_clk.o)
                0x000000001001c5e2                get_clksel_val
                0x000000001001c5f2                get_cur_sysclk
                0x000000001001c5fa                set_audec_clkdiv
                0x000000001001c61a                sysclk_update_baud
 *fill*         0x000000001001c654      0x1ac 
 .text.set_sys_clk_do
                0x000000001001c800      0x200 ..\..\platform\libs\libplatform.a(sys_clk.o)
                0x000000001001c800                set_sys_clk_do
 .text.set_peripherals_clkdiv
                0x000000001001ca00       0x9c ..\..\platform\libs\libplatform.a(sys_clk.o)
                0x000000001001ca00                set_peripherals_clkdiv
 .text.set_sys_clk
                0x000000001001ca9c       0xd6 ..\..\platform\libs\libplatform.a(sys_clk.o)
                0x000000001001ca9c                set_sys_clk
 *fill*         0x000000001001cb72        0x2 
 .text.sys_clk.table
                0x000000001001cb74       0x16 ..\..\platform\libs\libplatform.a(sys_clk.o)
                0x000000001001cb74                sysclk_sel_tbl
                0x000000001001cb80                sysclk_index
 .text.msg.queue.init
                0x000000001001cb8a       0x14 ..\..\platform\libs\libplatform.a(sys_msg.o)
                0x000000001001cb8a                msg_queue_init
 .text.voltage.trim
                0x000000001001cb9e       0x94 ..\..\platform\libs\libplatform.a(voltage_trim.o)
                0x000000001001cb9e                voltage_trim_value_init
 *fill*         0x000000001001cc32        0x2 
 .text.voltage.trim.table
                0x000000001001cc34       0x76 ..\..\platform\libs\libplatform.a(voltage_trim.o)
                0x000000001001cc34                charge_trim_step
                0x000000001001cc48                vddcore_trim_step
                0x000000001001cc68                vddio_trim_step
                0x000000001001cc88                vddbko_trim_step
 .text.music_eq_get_tbl
                0x000000001001ccaa        0x4 ..\..\platform\libs\libplatform.a(weak_symbol.o)
                0x000000001001ccaa                music_eq_get_tbl
 .text.bt_pf_init
                0x000000001001ccae       0x28 ..\..\platform\libs\libplatform.a(bt_ota.o)
                0x000000001001ccae                bt_pf_init
 .text.bt_pf_exit
                0x000000001001ccd6       0x12 ..\..\platform\libs\libplatform.a(bt_ota.o)
                0x000000001001ccd6                bt_pf_exit
 .text.bt_pf_read
                0x000000001001cce8       0x3c ..\..\platform\libs\libplatform.a(bt_ota.o)
                0x000000001001cce8                bt_pf_read
 .text.bt_pf_status
                0x000000001001cd24       0x34 ..\..\platform\libs\libplatform.a(bt_ota.o)
                0x000000001001cd24                bt_pf_status
 .text.bt_pf_get_info
                0x000000001001cd58       0x2a ..\..\platform\libs\libplatform.a(bt_ota.o)
                0x000000001001cd58                bt_pf_get_info
 .text.bt_pf_post
                0x000000001001cd82       0x12 ..\..\platform\libs\libplatform.a(bt_ota.o)
                0x000000001001cd82                bt_pf_post
 .text.bthw_get_heap_info
                0x000000001001cd94       0x12 ..\..\platform\libs\libbtstack.a(bb.o)
                0x000000001001cd94                bthw_get_heap_info
 .text.bb_init  0x000000001001cda6      0x112 ..\..\platform\libs\libbtstack.a(bb.o)
                0x000000001001cda6                bb_init
 .text.bb_reset
                0x000000001001ceb8       0x68 ..\..\platform\libs\libbtstack.a(bb.o)
                0x000000001001ceb8                bb_reset
 .text.bb_off   0x000000001001cf20       0x7c ..\..\platform\libs\libbtstack.a(bb.o)
                0x000000001001cf20                bb_off
 .text.rf_spi_tf
                0x000000001001cf9c       0x12 ..\..\platform\libs\libbtstack.a(bb_rf.o)
 .text.rf_rx_cacl_dc
                0x000000001001cfae       0xca ..\..\platform\libs\libbtstack.a(bb_rf.o)
 .text.rf_filter_init
                0x000000001001d078      0x244 ..\..\platform\libs\libbtstack.a(bb_rf.o)
 .text.rf_idle  0x000000001001d2bc       0x24 ..\..\platform\libs\libbtstack.a(bb_rf.o)
 .text.bt_get_hvbko
                0x000000001001d2e0       0x4c ..\..\platform\libs\libbtstack.a(bb_rf.o)
                0x000000001001d2e0                bt_get_hvbko
 .text.bt_get_packet
                0x000000001001d32c       0x54 ..\..\platform\libs\libbtstack.a(bb_rf.o)
                0x000000001001d32c                bt_get_packet
 .text.bt_get_rfparam
                0x000000001001d380       0x32 ..\..\platform\libs\libbtstack.a(bb_rf.o)
                0x000000001001d380                bt_get_rfparam
 .text.rf_reg_rd
                0x000000001001d3b2       0x20 ..\..\platform\libs\libbtstack.a(bb_rf.o)
                0x000000001001d3b2                rf_reg_rd
 .text.rf_reg_wr
                0x000000001001d3d2       0x22 ..\..\platform\libs\libbtstack.a(bb_rf.o)
                0x000000001001d3d2                rf_reg_wr
 .text.rf_txpwr_inc
                0x000000001001d3f4       0x28 ..\..\platform\libs\libbtstack.a(bb_rf.o)
                0x000000001001d3f4                rf_txpwr_inc
 .text.rf_txpwr_dec
                0x000000001001d41c       0x2c ..\..\platform\libs\libbtstack.a(bb_rf.o)
                0x000000001001d41c                rf_txpwr_dec
 .text.rf_txpwr_epc_req
                0x000000001001d448       0x8a ..\..\platform\libs\libbtstack.a(bb_rf.o)
                0x000000001001d448                rf_txpwr_epc_req
 .text.bb.rf    0x000000001001d4d2      0x124 ..\..\platform\libs\libbtstack.a(bb_rf.o)
                0x000000001001d4d2                rf_pll_afc
                0x000000001001d550                rf_tx_tone
                0x000000001001d586                rf_tx_pwr
                0x000000001001d5b2                rf_tx_channel
 .text.rf_sw_ctrl
                0x000000001001d5f6       0x16 ..\..\platform\libs\libbtstack.a(bb_rf.o)
                0x000000001001d5f6                rf_sw_ctrl
 .text.rf_reset
                0x000000001001d60c      0x5e2 ..\..\platform\libs\libbtstack.a(bb_rf.o)
                0x000000001001d60c                rf_reset
 .text.rf_off   0x000000001001dbee       0x2a ..\..\platform\libs\libbtstack.a(bb_rf.o)
                0x000000001001dbee                rf_off
 .text.rf_init  0x000000001001dc18       0x5e ..\..\platform\libs\libbtstack.a(bb_rf.o)
                0x000000001001dc18                rf_init
 .text.ble_init
                0x000000001001dc76       0x14 ..\..\platform\libs\libbtstack.a(ble.o)
                0x000000001001dc76                ble_init
 .text.ble_reset
                0x000000001001dc8a       0x32 ..\..\platform\libs\libbtstack.a(ble.o)
                0x000000001001dc8a                ble_reset
 .text.hwble_init
                0x000000001001dcbc      0x20c ..\..\platform\libs\libbtstack.a(ble_con.o)
                0x000000001001dcbc                hwble_init
 .text.hwble_reset
                0x000000001001dec8       0x2a ..\..\platform\libs\libbtstack.a(ble_con.o)
                0x000000001001dec8                hwble_reset
 .text.ble_evt_init
                0x000000001001def2       0x12 ..\..\platform\libs\libbtstack.a(ble_evt.o)
                0x000000001001def2                ble_evt_init
 .text.bt21_init
                0x000000001001df04       0x22 ..\..\platform\libs\libbtstack.a(bt21.o)
                0x000000001001df04                bt21_init
 .text.bt21_reset
                0x000000001001df26       0x3c ..\..\platform\libs\libbtstack.a(bt21.o)
                0x000000001001df26                bt21_reset
 .text.lc_flush_acl_buf
                0x000000001001df62       0xb2 ..\..\platform\libs\libbtstack.a(ext_flush.o)
                0x000000001001df62                lc_flush_acl_buf
 .text.hwbt_reset
                0x000000001001e014       0x56 ..\..\platform\libs\libbtstack.a(ext_init.o)
                0x000000001001e014                hwbt_reset
 .text.hwbt_init_radio
                0x000000001001e06a       0x3c ..\..\platform\libs\libbtstack.a(ext_init.o)
                0x000000001001e06a                hwbt_init_radio
 .text.hwbt_init
                0x000000001001e0a6      0x3e0 ..\..\platform\libs\libbtstack.a(ext_init.o)
                0x000000001001e0a6                hwbt_init
 .text.plc_init
                0x000000001001e486       0x9e ..\..\platform\libs\libbtstack.a(ext_plc.o)
                0x000000001001e486                plc_init
 .text.plc_exit
                0x000000001001e524       0x2e ..\..\platform\libs\libbtstack.a(ext_plc.o)
                0x000000001001e524                plc_exit
 .text.lc_sco_pkt_init
                0x000000001001e552       0x10 ..\..\platform\libs\libbtstack.a(ext_sco.o)
                0x000000001001e552                lc_sco_pkt_init
 .text.lc_sco_codec_init
                0x000000001001e562      0x126 ..\..\platform\libs\libbtstack.a(ext_sco.o)
                0x000000001001e562                lc_sco_codec_init
 .text.lc_sco_codec_exit
                0x000000001001e688       0x3c ..\..\platform\libs\libbtstack.a(ext_sco.o)
                0x000000001001e688                lc_sco_codec_exit
 .text.lc_tws_init
                0x000000001001e6c4       0x5a ..\..\platform\libs\libbtstack.a(ext_tws.o)
                0x000000001001e6c4                lc_tws_init
 *fill*         0x000000001001e71e       0xe2 
 .text.lc_tws_set_spr
                0x000000001001e800      0x1fe ..\..\platform\libs\libbtstack.a(ext_tws.o)
                0x000000001001e800                lc_tws_set_spr
 .text.lc_tws_set_ticks
                0x000000001001e9fe       0x2e ..\..\platform\libs\libbtstack.a(ext_tws.o)
                0x000000001001e9fe                lc_tws_set_ticks
 *fill*         0x000000001001ea2c       0x54 
 .text.lc_tws_stop_ticks
                0x000000001001ea80       0x80 ..\..\platform\libs\libbtstack.a(ext_tws.o)
                0x000000001001ea80                lc_tws_stop_ticks
 *fill*         0x000000001001eb00        0x0 
 .text.lc_tws_set_speed
                0x000000001001eb00       0x7c ..\..\platform\libs\libbtstack.a(ext_tws.o)
                0x000000001001eb00                lc_tws_set_speed
 .text.hwbt_set_bd_addr
                0x000000001001eb7c       0x54 ..\..\platform\libs\libbtstack.a(ext_util.o)
                0x000000001001eb7c                hwbt_set_bd_addr
 .text.hwbt_get_bd_addr
                0x000000001001ebd0       0x10 ..\..\platform\libs\libbtstack.a(ext_util.o)
                0x000000001001ebd0                hwbt_get_bd_addr
 .text.lc_read_features
                0x000000001001ebe0       0x1a ..\..\platform\libs\libbtstack.a(ext_util.o)
                0x000000001001ebe0                lc_read_features
 .text.lc_read_extended_features
                0x000000001001ebfa       0x68 ..\..\platform\libs\libbtstack.a(ext_util.o)
                0x000000001001ebfa                lc_read_extended_features
 .text.hwbt_set_class_of_device
                0x000000001001ec62       0x1e ..\..\platform\libs\libbtstack.a(ext_util.o)
                0x000000001001ec62                hwbt_set_class_of_device
 .text.lc_is_actived_test_mode
                0x000000001001ec80        0xc ..\..\platform\libs\libbtstack.a(ext_util.o)
                0x000000001001ec80                lc_is_actived_test_mode
 .text.lc_activate_test_mode
                0x000000001001ec8c       0x52 ..\..\platform\libs\libbtstack.a(ext_util.o)
                0x000000001001ec8c                lc_activate_test_mode
 .text.lc_test_mode_check
                0x000000001001ecde       0x86 ..\..\platform\libs\libbtstack.a(ext_util.o)
                0x000000001001ecde                lc_test_mode_check
 .text.lc_test_mode_set_payload
                0x000000001001ed64       0x9c ..\..\platform\libs\libbtstack.a(ext_util.o)
                0x000000001001ed64                lc_test_mode_set_payload
 .text.lc_get_cs_clock_offset
                0x000000001001ee00       0x12 ..\..\platform\libs\libbtstack.a(ext_util.o)
                0x000000001001ee00                lc_get_cs_clock_offset
 .text.lc_get_clock_offset
                0x000000001001ee12       0x16 ..\..\platform\libs\libbtstack.a(ext_util.o)
                0x000000001001ee12                lc_get_clock_offset
 .text.lc_get_slot_offset
                0x000000001001ee28       0x6e ..\..\platform\libs\libbtstack.a(ext_util.o)
                0x000000001001ee28                lc_get_slot_offset
 *fill*         0x000000001001ee96       0x6a 
 .text.lc_encrypt_bcst_rx
                0x000000001001ef00       0x80 ..\..\platform\libs\libbtstack.a(ext_util.o)
                0x000000001001ef00                lc_encrypt_bcst_rx
 .text.lc_disable_power_cntl
                0x000000001001ef80       0x16 ..\..\platform\libs\libbtstack.a(ext_util.o)
                0x000000001001ef80                lc_disable_power_cntl
 .text.lc_inc_power_requested
                0x000000001001ef96       0x3a ..\..\platform\libs\libbtstack.a(ext_util.o)
                0x000000001001ef96                lc_inc_power_requested
 .text.lc_set_timing_accuracy
                0x000000001001efd0       0x1c ..\..\platform\libs\libbtstack.a(ext_util.o)
                0x000000001001efd0                lc_set_timing_accuracy
 .text.lc_set_rx_max_slot
                0x000000001001efec       0x18 ..\..\platform\libs\libbtstack.a(ext_util.o)
                0x000000001001efec                lc_set_rx_max_slot
 .text.lc_get_nb_sco
                0x000000001001f004        0x8 ..\..\platform\libs\libbtstack.a(ext_util.o)
                0x000000001001f004                lc_get_nb_sco
 .text.lc_verify_nb_slaves
                0x000000001001f00c       0x24 ..\..\platform\libs\libbtstack.a(ext_util.o)
                0x000000001001f00c                lc_verify_nb_slaves
 .text.lc_convert_pref_rate_to_packet_type
                0x000000001001f030       0x9c ..\..\platform\libs\libbtstack.a(ext_util.o)
                0x000000001001f030                lc_convert_pref_rate_to_packet_type
 .text.lm_test_generate_prbs9
                0x000000001001f0cc       0x9e ..\..\platform\libs\libbtstack.a(ext_util.o)
                0x000000001001f0cc                lm_test_generate_prbs9
 .text.lc_disable_test_mode
                0x000000001001f16a       0x56 ..\..\platform\libs\libbtstack.a(ext_util.o)
                0x000000001001f16a                lc_disable_test_mode
 .text.lc_set_sp_feature_bit
                0x000000001001f1c0       0x1a ..\..\platform\libs\libbtstack.a(ext_util.o)
                0x000000001001f1c0                lc_set_sp_feature_bit
 .text.lc_set_le_host_features
                0x000000001001f1da       0x2a ..\..\platform\libs\libbtstack.a(ext_util.o)
                0x000000001001f1da                lc_set_le_host_features
 .text.lc_get_le_host_features
                0x000000001001f204       0x1a ..\..\platform\libs\libbtstack.a(ext_util.o)
                0x000000001001f204                lc_get_le_host_features
 .text.lc_acl_stop_link
                0x000000001001f21e       0x24 ..\..\platform\libs\libbtstack.a(ext_util.o)
                0x000000001001f21e                lc_acl_stop_link
 .text.lc_3dh1_pkt_is_en.isra.0
                0x000000001001f242       0x34 ..\..\platform\libs\libbtstack.a(lc.o)
 .text.lc_init  0x000000001001f276       0x68 ..\..\platform\libs\libbtstack.a(lc.o)
                0x000000001001f276                lc_init
 .text.lc_reset
                0x000000001001f2de       0x58 ..\..\platform\libs\libbtstack.a(lc.o)
                0x000000001001f2de                lc_reset
 .text.lc_chg_pkt_type_cmp
                0x000000001001f336       0xac ..\..\platform\libs\libbtstack.a(lc.o)
                0x000000001001f336                lc_chg_pkt_type_cmp
 .text.lc_chg_pkt_type_cont
                0x000000001001f3e2       0xa6 ..\..\platform\libs\libbtstack.a(lc.o)
                0x000000001001f3e2                lc_chg_pkt_type_cont
 .text.lc_chk_afh_switch_pos
                0x000000001001f488       0x72 ..\..\platform\libs\libbtstack.a(lc.o)
                0x000000001001f488                lc_chk_afh_switch_pos
 .text.lc_chk_to
                0x000000001001f4fa       0x82 ..\..\platform\libs\libbtstack.a(lc.o)
                0x000000001001f4fa                lc_chk_to
 .text.lc_common_cmd_status_send
                0x000000001001f57c       0x2c ..\..\platform\libs\libbtstack.a(lc.o)
                0x000000001001f57c                lc_common_cmd_status_send
 .text.lc_common_nb_of_pkt_comp_evt_send
                0x000000001001f5a8       0x58 ..\..\platform\libs\libbtstack.a(lc.o)
                0x000000001001f5a8                lc_common_nb_of_pkt_comp_evt_send
 .text.lc_con_cmp_evt_send
                0x000000001001f600       0xaa ..\..\platform\libs\libbtstack.a(lc.o)
                0x000000001001f600                lc_con_cmp_evt_send
 .text.lc_con_cmp
                0x000000001001f6aa      0x1a2 ..\..\platform\libs\libbtstack.a(lc.o)
                0x000000001001f6aa                lc_con_cmp
 .text.lc_rem_feats_cmp_evt_send
                0x000000001001f84c       0x7c ..\..\platform\libs\libbtstack.a(lc.o)
                0x000000001001f84c                lc_rem_feats_cmp_evt_send
 .text.lc_rem_ext_feats_cmp_evt_send
                0x000000001001f8c8       0x8c ..\..\platform\libs\libbtstack.a(lc.o)
                0x000000001001f8c8                lc_rem_ext_feats_cmp_evt_send
 .text.lc_clock_off_cmp_evt_send
                0x000000001001f954       0x6e ..\..\platform\libs\libbtstack.a(lc.o)
                0x000000001001f954                lc_clock_off_cmp_evt_send
 .text.lc_sp_cmp_evt_send
                0x000000001001f9c2       0x64 ..\..\platform\libs\libbtstack.a(lc.o)
                0x000000001001f9c2                lc_sp_cmp_evt_send
 .text.lc_mode_chg_evt_send
                0x000000001001fa26       0x72 ..\..\platform\libs\libbtstack.a(lc.o)
                0x000000001001fa26                lc_mode_chg_evt_send
 .text.lc_discon_event_complete_send
                0x000000001001fa98       0x4c ..\..\platform\libs\libbtstack.a(lc.o)
                0x000000001001fa98                lc_discon_event_complete_send
 .text.lc_locepr_rsw
                0x000000001001fae4       0xa4 ..\..\platform\libs\libbtstack.a(lc.o)
                0x000000001001fae4                lc_locepr_rsw
 .text.lc_locepr_lkref
                0x000000001001fb88       0xa0 ..\..\platform\libs\libbtstack.a(lc.o)
                0x000000001001fb88                lc_locepr_lkref
 .text.lc_enc_key_refresh
                0x000000001001fc28      0x118 ..\..\platform\libs\libbtstack.a(lc.o)
                0x000000001001fc28                lc_enc_key_refresh
 .text.lc_flow_stop_before_sniff_trans
                0x000000001001fd40       0x3c ..\..\platform\libs\libbtstack.a(lc.o)
                0x000000001001fd40                lc_flow_stop_before_sniff_trans
 .text.lc_free_tx_acl_buf
                0x000000001001fd7c       0x3a ..\..\platform\libs\libbtstack.a(lc.o)
                0x000000001001fd7c                lc_free_tx_acl_buf
 .text.lc_get_free_tid
                0x000000001001fdb6       0x30 ..\..\platform\libs\libbtstack.a(lc.o)
                0x000000001001fdb6                lc_get_free_tid
 .text.lc_initiator_epr
                0x000000001001fde6       0x58 ..\..\platform\libs\libbtstack.a(lc.o)
                0x000000001001fde6                lc_initiator_epr
 .text.lc_epr_resp
                0x000000001001fe3e       0x98 ..\..\platform\libs\libbtstack.a(lc.o)
                0x000000001001fe3e                lc_epr_resp
 .text.lc_free_link
                0x000000001001fed6      0x16a ..\..\platform\libs\libbtstack.a(lc.o)
                0x000000001001fed6                lc_free_link
 .text.lc_local_switch
                0x0000000010020040       0x3c ..\..\platform\libs\libbtstack.a(lc.o)
                0x0000000010020040                lc_local_switch
 .text.lc_max_slot_mgt
                0x000000001002007c      0x182 ..\..\platform\libs\libbtstack.a(lc.o)
                0x000000001002007c                lc_max_slot_mgt
 .text.lc_ptt   0x00000000100201fe      0x10a ..\..\platform\libs\libbtstack.a(lc.o)
                0x00000000100201fe                lc_ptt
 .text.lc_ptt_cmp
                0x0000000010020308       0x6e ..\..\platform\libs\libbtstack.a(lc.o)
                0x0000000010020308                lc_ptt_cmp
 .text.lc_restore_afh_reporting
                0x0000000010020376       0x54 ..\..\platform\libs\libbtstack.a(lc.o)
                0x0000000010020376                lc_restore_afh_reporting
 .text.lc_rem_switch
                0x00000000100203ca       0x3c ..\..\platform\libs\libbtstack.a(lc.o)
                0x00000000100203ca                lc_rem_switch
 .text.lc_rem_enc
                0x0000000010020406       0x46 ..\..\platform\libs\libbtstack.a(lc.o)
                0x0000000010020406                lc_rem_enc
 .text.lc_resp_auth
                0x000000001002044c      0x140 ..\..\platform\libs\libbtstack.a(lc.o)
                0x000000001002044c                lc_resp_auth
 .text.lc_free  0x000000001002058c      0x122 ..\..\platform\libs\libbtstack.a(lc.o)
                0x000000001002058c                lc_free
 .text.lc_get_curr_mode
                0x00000000100206ae       0x24 ..\..\platform\libs\libbtstack.a(lc.o)
                0x00000000100206ae                lc_get_curr_mode
 .text.lc_get_conn_feature
                0x00000000100206d2       0x9a ..\..\platform\libs\libbtstack.a(lc.o)
                0x00000000100206d2                lc_get_conn_feature
 .text.lc_get_nego_feat
                0x000000001002076c       0x28 ..\..\platform\libs\libbtstack.a(lc.o)
                0x000000001002076c                lc_get_nego_feat
 .text.lc_restore_to
                0x0000000010020794       0x60 ..\..\platform\libs\libbtstack.a(lc.o)
                0x0000000010020794                lc_restore_to
 .text.lc_rx_pref_rate
                0x00000000100207f4       0x4e ..\..\platform\libs\libbtstack.a(lc.o)
                0x00000000100207f4                lc_rx_pref_rate
 .text.lc_start
                0x0000000010020842       0xfc ..\..\platform\libs\libbtstack.a(lc.o)
                0x0000000010020842                lc_start
 .text.lc_stop  0x000000001002093e       0x38 ..\..\platform\libs\libbtstack.a(lc.o)
                0x000000001002093e                lc_stop
 .text.lc_start_lmp_to
                0x0000000010020976       0x52 ..\..\platform\libs\libbtstack.a(lc.o)
                0x0000000010020976                lc_start_lmp_to
 .text.lc_afh_switch_on
                0x00000000100209c8       0x80 ..\..\platform\libs\libbtstack.a(lc.o)
                0x00000000100209c8                lc_afh_switch_on
 .text.lc_comb_key_svr
                0x0000000010020a48      0x1c8 ..\..\platform\libs\libbtstack.a(lc.o)
                0x0000000010020a48                lc_comb_key_svr
 .text.lc_enter_sniff_mode
                0x0000000010020c10       0xf0 ..\..\platform\libs\libbtstack.a(lc.o)
                0x0000000010020c10                lc_enter_sniff_mode
 .text.lc_init_start_mutual_auth
                0x0000000010020d00       0x5e ..\..\platform\libs\libbtstack.a(lc.o)
                0x0000000010020d00                lc_init_start_mutual_auth
 .text.lc_mst_send_mst_key
                0x0000000010020d5e      0x176 ..\..\platform\libs\libbtstack.a(lc.o)
                0x0000000010020d5e                lc_mst_send_mst_key
 .text.lc_local_untrans_mode
                0x0000000010020ed4       0x52 ..\..\platform\libs\libbtstack.a(lc.o)
                0x0000000010020ed4                lc_local_untrans_mode
 .text.lc_pairing_cont
                0x0000000010020f26      0x18a ..\..\platform\libs\libbtstack.a(lc.o)
                0x0000000010020f26                lc_pairing_cont
 .text.lc_legacy_pair
                0x00000000100210b0       0x88 ..\..\platform\libs\libbtstack.a(lc.o)
                0x00000000100210b0                lc_legacy_pair
 .text.lc_rd_rem_name
                0x0000000010021138       0x76 ..\..\platform\libs\libbtstack.a(lc.o)
                0x0000000010021138                lc_rd_rem_name
 .text.lc_resp_oob_wait_nonce
                0x00000000100211ae       0x22 ..\..\platform\libs\libbtstack.a(lc.o)
                0x00000000100211ae                lc_resp_oob_wait_nonce
 .text.lc_start_enc
                0x00000000100211d0      0x180 ..\..\platform\libs\libbtstack.a(lc.o)
                0x00000000100211d0                lc_start_enc
 .text.lc_epr_rsw_cmp
                0x0000000010021350       0x8a ..\..\platform\libs\libbtstack.a(lc.o)
                0x0000000010021350                lc_epr_rsw_cmp
 .text.lc_start_enc_key_size
                0x00000000100213da       0x94 ..\..\platform\libs\libbtstack.a(lc.o)
                0x00000000100213da                lc_start_enc_key_size
 .text.lc_start_key_exch
                0x000000001002146e       0xdc ..\..\platform\libs\libbtstack.a(lc.o)
                0x000000001002146e                lc_start_key_exch
 .text.lc_stop_enc
                0x000000001002154a       0xa6 ..\..\platform\libs\libbtstack.a(lc.o)
                0x000000001002154a                lc_stop_enc
 .text.lc_stop_afh_report
                0x00000000100215f0       0x3e ..\..\platform\libs\libbtstack.a(lc.o)
                0x00000000100215f0                lc_stop_afh_report
 .text.lc_skip_hl_oob_req
                0x000000001002162e       0x70 ..\..\platform\libs\libbtstack.a(lc.o)
                0x000000001002162e                lc_skip_hl_oob_req
 .text.lc_start_oob
                0x000000001002169e       0x2c ..\..\platform\libs\libbtstack.a(lc.o)
                0x000000001002169e                lc_start_oob
 .text.lc_send_enc_mode
                0x00000000100216ca       0x4e ..\..\platform\libs\libbtstack.a(lc.o)
                0x00000000100216ca                lc_send_enc_mode
 .text.lc_restart_enc
                0x0000000010021718       0x54 ..\..\platform\libs\libbtstack.a(lc.o)
                0x0000000010021718                lc_restart_enc
 .text.lc_restart_enc_cont
                0x000000001002176c       0x7e ..\..\platform\libs\libbtstack.a(lc.o)
                0x000000001002176c                lc_restart_enc_cont
 .text.lc_send_detach
                0x00000000100217ea       0x40 ..\..\platform\libs\libbtstack.a(lc.o)
                0x00000000100217ea                lc_send_detach
 .text.lc_chg_pkt_type_retry
                0x000000001002182a      0x152 ..\..\platform\libs\libbtstack.a(lc.o)
                0x000000001002182a                lc_chg_pkt_type_retry
 .text.lc_rem_name_cont
                0x000000001002197c       0xa4 ..\..\platform\libs\libbtstack.a(lc.o)
                0x000000001002197c                lc_rem_name_cont
 .text.lc_semi_key_cmp
                0x0000000010021a20      0x10a ..\..\platform\libs\libbtstack.a(lc.o)
                0x0000000010021a20                lc_semi_key_cmp
 .text.lc_mst_key
                0x0000000010021b2a      0x160 ..\..\platform\libs\libbtstack.a(lc.o)
                0x0000000010021b2a                lc_mst_key
 .text.lc_upd_to
                0x0000000010021c8a       0x9a ..\..\platform\libs\libbtstack.a(lc.o)
                0x0000000010021c8a                lc_upd_to
 .text.lc_ret_sniff_max_slot_chg
                0x0000000010021d24       0x92 ..\..\platform\libs\libbtstack.a(lc.o)
                0x0000000010021d24                lc_ret_sniff_max_slot_chg
 .text.lc_sniff_max_slot_chg
                0x0000000010021db6       0xd6 ..\..\platform\libs\libbtstack.a(lc.o)
                0x0000000010021db6                lc_sniff_max_slot_chg
 .text.lc_local_trans_mode
                0x0000000010021e8c       0x88 ..\..\platform\libs\libbtstack.a(lc.o)
                0x0000000010021e8c                lc_local_trans_mode
 .text.lc_unit_key_svr
                0x0000000010021f14      0x13e ..\..\platform\libs\libbtstack.a(lc.o)
                0x0000000010021f14                lc_unit_key_svr
 .text.lc_link_supp
                0x0000000010022052       0x44 ..\..\platform\libs\libbtstack.a(lc.o)
                0x0000000010022052                lc_link_supp
 .text.lc_hl_rem_ext
                0x0000000010022096       0x76 ..\..\platform\libs\libbtstack.a(lc.o)
                0x0000000010022096                lc_hl_rem_ext
 .text.lc_rem_unsniff
                0x000000001002210c       0x86 ..\..\platform\libs\libbtstack.a(lc.o)
                0x000000001002210c                lc_rem_unsniff
 .text.lc_feat  0x0000000010022192       0xa6 ..\..\platform\libs\libbtstack.a(lc.o)
                0x0000000010022192                lc_feat
 .text.lc_hl_connect
                0x0000000010022238       0x70 ..\..\platform\libs\libbtstack.a(lc.o)
                0x0000000010022238                lc_hl_connect
 .text.lc_version
                0x00000000100222a8       0x40 ..\..\platform\libs\libbtstack.a(lc.o)
                0x00000000100222a8                lc_version
 .text.lc_vd_nego
                0x00000000100222e8       0xc8 ..\..\platform\libs\libbtstack.a(lc.o)
                0x00000000100222e8                lc_vd_nego
 .text.lc_vd_info
                0x00000000100223b0       0x68 ..\..\platform\libs\libbtstack.a(lc.o)
                0x00000000100223b0                lc_vd_info
 .text.lc_vd_msg
                0x0000000010022418       0x32 ..\..\platform\libs\libbtstack.a(lc.o)
                0x0000000010022418                lc_vd_msg
 .text.lc_send_vd_msg
                0x000000001002244a       0x82 ..\..\platform\libs\libbtstack.a(lc.o)
                0x000000001002244a                lc_send_vd_msg
 .text.lc_set_ticks
                0x00000000100224cc       0x10 ..\..\platform\libs\libbtstack.a(lc.o)
                0x00000000100224cc                lc_set_ticks
 .text.lc_loc_sniff
                0x00000000100224dc       0x92 ..\..\platform\libs\libbtstack.a(lc.o)
                0x00000000100224dc                lc_loc_sniff
 .text.lc_unsniff
                0x000000001002256e       0x62 ..\..\platform\libs\libbtstack.a(lc.o)
                0x000000001002256e                lc_unsniff
 .text.lc_clock_off
                0x00000000100225d0       0x92 ..\..\platform\libs\libbtstack.a(lc.o)
                0x00000000100225d0                lc_clock_off
 .text.lc_test_cntl
                0x0000000010022662       0x3e ..\..\platform\libs\libbtstack.a(lc.o)
                0x0000000010022662                lc_test_cntl
 .text.lc_ext_feat
                0x00000000100226a0       0x9e ..\..\platform\libs\libbtstack.a(lc.o)
                0x00000000100226a0                lc_ext_feat
 .text.lc_loc_auth
                0x000000001002273e      0x134 ..\..\platform\libs\libbtstack.a(lc.o)
                0x000000001002273e                lc_loc_auth
 .text.lc_packet_type
                0x0000000010022872       0xc4 ..\..\platform\libs\libbtstack.a(lc.o)
                0x0000000010022872                lc_packet_type
 .text.lc_sniff_slot_unchange
                0x0000000010022936      0x162 ..\..\platform\libs\libbtstack.a(lc.o)
                0x0000000010022936                lc_sniff_slot_unchange
 .text.lc_end_of_sniff_nego
                0x0000000010022a98       0xda ..\..\platform\libs\libbtstack.a(lc.o)
                0x0000000010022a98                lc_end_of_sniff_nego
 .text.lc_rem_trans_mode
                0x0000000010022b72       0x70 ..\..\platform\libs\libbtstack.a(lc.o)
                0x0000000010022b72                lc_rem_trans_mode
 .text.lc_rem_sniff
                0x0000000010022be2      0x110 ..\..\platform\libs\libbtstack.a(lc.o)
                0x0000000010022be2                lc_rem_sniff
 .text.lc_rem_nego_trans_mode
                0x0000000010022cf2       0xca ..\..\platform\libs\libbtstack.a(lc.o)
                0x0000000010022cf2                lc_rem_nego_trans_mode
 .text.lc_unsniff_cont
                0x0000000010022dbc       0x66 ..\..\platform\libs\libbtstack.a(lc.o)
                0x0000000010022dbc                lc_unsniff_cont
 .text.lc_rem_untrans_mode
                0x0000000010022e22       0x72 ..\..\platform\libs\libbtstack.a(lc.o)
                0x0000000010022e22                lc_rem_untrans_mode
 .text.lc_conn_seq_done
                0x0000000010022e94       0x20 ..\..\platform\libs\libbtstack.a(lc.o)
                0x0000000010022e94                lc_conn_seq_done
 .text.lc_rsw_clean_up
                0x0000000010022eb4      0x114 ..\..\platform\libs\libbtstack.a(lc.o)
                0x0000000010022eb4                lc_rsw_clean_up
 .text.lc_rsw_done
                0x0000000010022fc8      0x11a ..\..\platform\libs\libbtstack.a(lc.o)
                0x0000000010022fc8                lc_rsw_done
 .text.lc_switch_cmp
                0x00000000100230e2       0x3a ..\..\platform\libs\libbtstack.a(lc.o)
                0x00000000100230e2                lc_switch_cmp
 .text.lc_bcst_sync_ind
                0x000000001002311c       0x58 ..\..\platform\libs\libbtstack.a(lc.o)
                0x000000001002311c                lc_bcst_sync_ind
 .text.lc_max_slot_sync_ind
                0x0000000010023174       0x5e ..\..\platform\libs\libbtstack.a(lc.o)
                0x0000000010023174                lc_max_slot_sync_ind
 .text.lc_send_enc_evt
                0x00000000100231d2       0x4c ..\..\platform\libs\libbtstack.a(lc.o)
                0x00000000100231d2                lc_send_enc_evt
 .text.lc_auth_cmp
                0x000000001002321e      0x190 ..\..\platform\libs\libbtstack.a(lc.o)
                0x000000001002321e                lc_auth_cmp
 .text.lc_end_chk_colli
                0x00000000100233ae       0xa2 ..\..\platform\libs\libbtstack.a(lc.o)
                0x00000000100233ae                lc_end_chk_colli
 .text.lc_enc_cmp
                0x0000000010023450      0x13c ..\..\platform\libs\libbtstack.a(lc.o)
                0x0000000010023450                lc_enc_cmp
 .text.lc_mutual_auth_end2
                0x000000001002358c      0x1f0 ..\..\platform\libs\libbtstack.a(lc.o)
                0x000000001002358c                lc_mutual_auth_end2
 .text.lc_epr_change_lk
                0x000000001002377c       0x7a ..\..\platform\libs\libbtstack.a(lc.o)
                0x000000001002377c                lc_epr_change_lk
 .text.lc_epr_cmp
                0x00000000100237f6       0xec ..\..\platform\libs\libbtstack.a(lc.o)
                0x00000000100237f6                lc_epr_cmp
 .text.lc_mutual_auth_end
                0x00000000100238e2      0x10c ..\..\platform\libs\libbtstack.a(lc.o)
                0x00000000100238e2                lc_mutual_auth_end
 .text.lc_key_exch_end
                0x00000000100239ee      0x104 ..\..\platform\libs\libbtstack.a(lc.o)
                0x00000000100239ee                lc_key_exch_end
 .text.lc_sp_fail
                0x0000000010023af2       0x64 ..\..\platform\libs\libbtstack.a(lc.o)
                0x0000000010023af2                lc_sp_fail
 .text.lc_calc_link_key
                0x0000000010023b56       0xfe ..\..\platform\libs\libbtstack.a(lc.o)
                0x0000000010023b56                lc_calc_link_key
 .text.lc_init_calc_f3
                0x0000000010023c54       0x9c ..\..\platform\libs\libbtstack.a(lc.o)
                0x0000000010023c54                lc_init_calc_f3
 .text.lc_dhkey
                0x0000000010023cf0       0x52 ..\..\platform\libs\libbtstack.a(lc.o)
                0x0000000010023cf0                lc_dhkey
 .text.lc_init_passkey_loop
                0x0000000010023d42       0x9e ..\..\platform\libs\libbtstack.a(lc.o)
                0x0000000010023d42                lc_init_passkey_loop
 .text.lc_passkey_comm
                0x0000000010023de0       0xc8 ..\..\platform\libs\libbtstack.a(lc.o)
                0x0000000010023de0                lc_passkey_comm
 .text.lc_resp_calc_f3
                0x0000000010023ea8      0x14e ..\..\platform\libs\libbtstack.a(lc.o)
                0x0000000010023ea8                lc_resp_calc_f3
 .text.lc_resp_wait_dhkey_cont
                0x0000000010023ff6       0x2e ..\..\platform\libs\libbtstack.a(lc.o)
                0x0000000010023ff6                lc_resp_wait_dhkey_cont
 .text.lc_proc_rcv_dhkey
                0x0000000010024024       0x42 ..\..\platform\libs\libbtstack.a(lc.o)
                0x0000000010024024                lc_proc_rcv_dhkey
 .text.lc_start_passkey_loop
                0x0000000010024066       0x92 ..\..\platform\libs\libbtstack.a(lc.o)
                0x0000000010024066                lc_start_passkey_loop
 .text.lc_start_passkey
                0x00000000100240f8       0xe8 ..\..\platform\libs\libbtstack.a(lc.o)
                0x00000000100240f8                lc_start_passkey
 .text.lc_sp_oob_tid_fail
                0x00000000100241e0       0x34 ..\..\platform\libs\libbtstack.a(lc.o)
                0x00000000100241e0                lc_sp_oob_tid_fail
 .text.lc_resp_oob_nonce
                0x0000000010024214       0x98 ..\..\platform\libs\libbtstack.a(lc.o)
                0x0000000010024214                lc_resp_oob_nonce
 .text.lc_resp_pair
                0x00000000100242ac       0xe4 ..\..\platform\libs\libbtstack.a(lc.o)
                0x00000000100242ac                lc_resp_pair
 .text.lc_pair  0x0000000010024390       0xe0 ..\..\platform\libs\libbtstack.a(lc.o)
                0x0000000010024390                lc_pair
 .text.lc_sp_to
                0x0000000010024470       0x50 ..\..\platform\libs\libbtstack.a(lc.o)
                0x0000000010024470                lc_sp_to
 *fill*         0x00000000100244c0      0x140 
 .text.lc_acl_init_fifo
                0x0000000010024600      0x1fe ..\..\platform\libs\libbtstack.a(lc_acl.o)
                0x0000000010024600                lc_acl_init_fifo
 *fill*         0x00000000100247fe        0x2 
 .text.lc_acl_disconnect_ltaddr
                0x0000000010024800       0x7e ..\..\platform\libs\libbtstack.a(lc_acl.o)
                0x0000000010024800                lc_acl_disconnect_ltaddr
 *fill*         0x000000001002487e      0x182 
 .text.lc_acl_flush_all
                0x0000000010024a00      0x200 ..\..\platform\libs\libbtstack.a(lc_acl.o)
                0x0000000010024a00                lc_acl_flush_all
 *fill*         0x0000000010024c00        0x0 
 .text.lc_acl_flow_control
                0x0000000010024c00       0xfc ..\..\platform\libs\libbtstack.a(lc_acl.o)
                0x0000000010024c00                lc_acl_flow_control
 .text.lc_acl_flow_check
                0x0000000010024cfc       0x12 ..\..\platform\libs\libbtstack.a(lc_acl.o)
                0x0000000010024cfc                lc_acl_flow_check
 *fill*         0x0000000010024d0e       0xf2 
 .text.lc_acl_lmp_tx
                0x0000000010024e00      0x200 ..\..\platform\libs\libbtstack.a(lc_acl.o)
                0x0000000010024e00                lc_acl_lmp_tx
 *fill*         0x0000000010025000        0x0 
 .text.lc_acl_set_packet_type_table
                0x0000000010025000       0x7a ..\..\platform\libs\libbtstack.a(lc_acl.o)
                0x0000000010025000                lc_acl_set_packet_type_table
 *fill*         0x000000001002507a        0x6 
 .text.lc_acl_set_tx_packet_type_do
                0x0000000010025080       0x80 ..\..\platform\libs\libbtstack.a(lc_acl.o)
                0x0000000010025080                lc_acl_set_tx_packet_type_do
 .text.lc_ack_set_tx_packet_type
                0x0000000010025100       0x80 ..\..\platform\libs\libbtstack.a(lc_acl.o)
                0x0000000010025100                lc_ack_set_tx_packet_type
 .text.lc_acl_get_link_sup_timeout
                0x0000000010025180       0x12 ..\..\platform\libs\libbtstack.a(lc_acl.o)
                0x0000000010025180                lc_acl_get_link_sup_timeout
 .text.lc_acl_set_link_sup_timeout
                0x0000000010025192       0x18 ..\..\platform\libs\libbtstack.a(lc_acl.o)
                0x0000000010025192                lc_acl_set_link_sup_timeout
 .text.lc_acl_poll_int_update
                0x00000000100251aa        0x2 ..\..\platform\libs\libbtstack.a(lc_acl.o)
                0x00000000100251aa                lc_acl_poll_int_update
 .text.lc_acl_get_poll_intervall
                0x00000000100251ac       0x1c ..\..\platform\libs\libbtstack.a(lc_acl.o)
                0x00000000100251ac                lc_acl_get_poll_intervall
 .text.lc_afh_compute_freq_tab
                0x00000000100251c8       0xa6 ..\..\platform\libs\libbtstack.a(lc_afh.o)
 .text.lc_afh_init
                0x000000001002526e      0x178 ..\..\platform\libs\libbtstack.a(lc_afh.o)
                0x000000001002526e                lc_afh_init
 *fill*         0x00000000100253e6       0x1a 
 .text.lc_afh_set
                0x0000000010025400       0x80 ..\..\platform\libs\libbtstack.a(lc_afh.o)
                0x0000000010025400                lc_afh_set
 .text.lc_afh_compute_piconet_switch_instant
                0x0000000010025480       0xae ..\..\platform\libs\libbtstack.a(lc_afh.o)
                0x0000000010025480                lc_afh_compute_piconet_switch_instant
 .text.lc_afh_set_chnl_classif
                0x000000001002552e       0x3e ..\..\platform\libs\libbtstack.a(lc_afh.o)
                0x000000001002552e                lc_afh_set_chnl_classif
 .text.lc_afh_get_chnl_classif
                0x000000001002556c       0x40 ..\..\platform\libs\libbtstack.a(lc_afh.o)
                0x000000001002556c                lc_afh_get_chnl_classif
 .text.lc_afh_alloc_chnl_map
                0x00000000100255ac       0x68 ..\..\platform\libs\libbtstack.a(lc_afh.o)
                0x00000000100255ac                lc_afh_alloc_chnl_map
 .text.lc_afh_compute_afh_freq_tab
                0x0000000010025614       0x72 ..\..\platform\libs\libbtstack.a(lc_afh.o)
                0x0000000010025614                lc_afh_compute_afh_freq_tab
 .text.lc_afh_compute_piconet_tab
                0x0000000010025686      0x3c6 ..\..\platform\libs\libbtstack.a(lc_afh.o)
                0x0000000010025686                lc_afh_compute_piconet_tab
 .text.lc_afh_get_chnl_map
                0x0000000010025a4c       0x60 ..\..\platform\libs\libbtstack.a(lc_afh.o)
                0x0000000010025a4c                lc_afh_get_chnl_map
 .text.lc_afh_chnl_reassess
                0x0000000010025aac       0xbc ..\..\platform\libs\libbtstack.a(lc_afh.o)
                0x0000000010025aac                lc_afh_chnl_reassess
 .text.lc_afh_needed
                0x0000000010025b68       0x26 ..\..\platform\libs\libbtstack.a(lc_afh.o)
                0x0000000010025b68                lc_afh_needed
 .text.lc_afh_set_classif_intv
                0x0000000010025b8e        0x4 ..\..\platform\libs\libbtstack.a(lc_afh.o)
                0x0000000010025b8e                lc_afh_set_classif_intv
 .text.lc_afh_get_classif_intv
                0x0000000010025b92       0x18 ..\..\platform\libs\libbtstack.a(lc_afh.o)
                0x0000000010025b92                lc_afh_get_classif_intv
 .text.lc_afh_get_assess_intv
                0x0000000010025baa        0x8 ..\..\platform\libs\libbtstack.a(lc_afh.o)
                0x0000000010025baa                lc_afh_get_assess_intv
 .text.lc_afh_get_reassess_cnt
                0x0000000010025bb2       0x16 ..\..\platform\libs\libbtstack.a(lc_afh.o)
                0x0000000010025bb2                lc_afh_get_reassess_cnt
 .text.lc_init_cqddr
                0x0000000010025bc8        0x2 ..\..\platform\libs\libbtstack.a(lc_cqddr.o)
                0x0000000010025bc8                lc_init_cqddr
 .text.lc_set_pref_rate
                0x0000000010025bca        0x2 ..\..\platform\libs\libbtstack.a(lc_cqddr.o)
                0x0000000010025bca                lc_set_pref_rate
 .text.lc_send_lmp
                0x0000000010025bcc       0xda ..\..\platform\libs\libbtstack.a(lc_lmppdu.o)
                0x0000000010025bcc                lc_send_lmp
 .text.lc_forward_lmp
                0x0000000010025ca6       0x74 ..\..\platform\libs\libbtstack.a(lc_lmppdu.o)
                0x0000000010025ca6                lc_forward_lmp
 .text.lc_send_pdu_acc
                0x0000000010025d1a       0x5a ..\..\platform\libs\libbtstack.a(lc_lmppdu.o)
                0x0000000010025d1a                lc_send_pdu_acc
 .text.lc_send_pdu_acc_ext4
                0x0000000010025d74       0x60 ..\..\platform\libs\libbtstack.a(lc_lmppdu.o)
                0x0000000010025d74                lc_send_pdu_acc_ext4
 .text.lc_send_pdu_not_acc
                0x0000000010025dd4       0x64 ..\..\platform\libs\libbtstack.a(lc_lmppdu.o)
                0x0000000010025dd4                lc_send_pdu_not_acc
 .text.lc_send_pdu_not_acc_ext4
                0x0000000010025e38       0x6c ..\..\platform\libs\libbtstack.a(lc_lmppdu.o)
                0x0000000010025e38                lc_send_pdu_not_acc_ext4
 .text.lc_send_pdu_set_afh
                0x0000000010025ea4       0x98 ..\..\platform\libs\libbtstack.a(lc_lmppdu.o)
                0x0000000010025ea4                lc_send_pdu_set_afh
 .text.lc_send_pdu_au_rand
                0x0000000010025f3c       0x6c ..\..\platform\libs\libbtstack.a(lc_lmppdu.o)
                0x0000000010025f3c                lc_send_pdu_au_rand
 .text.lc_send_pdu_in_rand
                0x0000000010025fa8       0x6c ..\..\platform\libs\libbtstack.a(lc_lmppdu.o)
                0x0000000010025fa8                lc_send_pdu_in_rand
 .text.lc_send_pdu_comb_key
                0x0000000010026014       0x6c ..\..\platform\libs\libbtstack.a(lc_lmppdu.o)
                0x0000000010026014                lc_send_pdu_comb_key
 .text.lc_send_pdu_unit_key
                0x0000000010026080       0x6c ..\..\platform\libs\libbtstack.a(lc_lmppdu.o)
                0x0000000010026080                lc_send_pdu_unit_key
 .text.lc_send_pdu_max_slot
                0x00000000100260ec       0x5a ..\..\platform\libs\libbtstack.a(lc_lmppdu.o)
                0x00000000100260ec                lc_send_pdu_max_slot
 .text.lc_send_pdu_max_slot_req
                0x0000000010026146       0x5a ..\..\platform\libs\libbtstack.a(lc_lmppdu.o)
                0x0000000010026146                lc_send_pdu_max_slot_req
 .text.lc_send_pdu_encaps_payl
                0x00000000100261a0       0x6c ..\..\platform\libs\libbtstack.a(lc_lmppdu.o)
                0x00000000100261a0                lc_send_pdu_encaps_payl
 .text.lc_send_pdu_encaps_head
                0x000000001002620c       0x60 ..\..\platform\libs\libbtstack.a(lc_lmppdu.o)
                0x000000001002620c                lc_send_pdu_encaps_head
 .text.lc_send_pdu_ptt_req
                0x000000001002626c       0x5a ..\..\platform\libs\libbtstack.a(lc_lmppdu.o)
                0x000000001002626c                lc_send_pdu_ptt_req
 .text.lc_send_pdu_sp_nb
                0x00000000100262c6       0x6c ..\..\platform\libs\libbtstack.a(lc_lmppdu.o)
                0x00000000100262c6                lc_send_pdu_sp_nb
 .text.lc_send_pdu_sp_cfm
                0x0000000010026332       0x6c ..\..\platform\libs\libbtstack.a(lc_lmppdu.o)
                0x0000000010026332                lc_send_pdu_sp_cfm
 .text.lc_send_pdu_sres
                0x000000001002639e       0x6c ..\..\platform\libs\libbtstack.a(lc_lmppdu.o)
                0x000000001002639e                lc_send_pdu_sres
 .text.lc_send_pdu_sco_lk_rem_req
                0x000000001002640a       0x64 ..\..\platform\libs\libbtstack.a(lc_lmppdu.o)
                0x000000001002640a                lc_send_pdu_sco_lk_rem_req
 .text.lc_send_pdu_esco_lk_rem_req
                0x000000001002646e       0x62 ..\..\platform\libs\libbtstack.a(lc_lmppdu.o)
                0x000000001002646e                lc_send_pdu_esco_lk_rem_req
 .text.lc_send_pdu_auto_rate
                0x00000000100264d0       0x50 ..\..\platform\libs\libbtstack.a(lc_lmppdu.o)
                0x00000000100264d0                lc_send_pdu_auto_rate
 .text.lc_send_pdu_sniff_req
                0x0000000010026520       0xa4 ..\..\platform\libs\libbtstack.a(lc_lmppdu.o)
                0x0000000010026520                lc_send_pdu_sniff_req
 .text.lc_send_pdu_lsto
                0x00000000100265c4       0x60 ..\..\platform\libs\libbtstack.a(lc_lmppdu.o)
                0x00000000100265c4                lc_send_pdu_lsto
 .text.lc_send_pdu_enc_key_sz_req
                0x0000000010026624       0x5a ..\..\platform\libs\libbtstack.a(lc_lmppdu.o)
                0x0000000010026624                lc_send_pdu_enc_key_sz_req
 .text.lc_send_pdu_feats_res
                0x000000001002667e       0x5e ..\..\platform\libs\libbtstack.a(lc_lmppdu.o)
                0x000000001002667e                lc_send_pdu_feats_res
 .text.lc_send_pdu_tim_acc
                0x00000000100266dc       0x50 ..\..\platform\libs\libbtstack.a(lc_lmppdu.o)
                0x00000000100266dc                lc_send_pdu_tim_acc
 .text.lc_send_pdu_feats_ext_req
                0x000000001002672c       0x7e ..\..\platform\libs\libbtstack.a(lc_lmppdu.o)
                0x000000001002672c                lc_send_pdu_feats_ext_req
 .text.lc_send_pdu_io_cap_res
                0x00000000100267aa       0x66 ..\..\platform\libs\libbtstack.a(lc_lmppdu.o)
                0x00000000100267aa                lc_send_pdu_io_cap_res
 .text.lc_send_pdu_num_comp_fail
                0x0000000010026810       0x50 ..\..\platform\libs\libbtstack.a(lc_lmppdu.o)
                0x0000000010026810                lc_send_pdu_num_comp_fail
 .text.lc_send_pdu_paus_enc_req
                0x0000000010026860       0x50 ..\..\platform\libs\libbtstack.a(lc_lmppdu.o)
                0x0000000010026860                lc_send_pdu_paus_enc_req
 .text.lc_send_pdu_resu_enc_req
                0x00000000100268b0       0x50 ..\..\platform\libs\libbtstack.a(lc_lmppdu.o)
                0x00000000100268b0                lc_send_pdu_resu_enc_req
 .text.lc_send_pdu_setup_cmp
                0x0000000010026900       0x50 ..\..\platform\libs\libbtstack.a(lc_lmppdu.o)
                0x0000000010026900                lc_send_pdu_setup_cmp
 .text.lc_send_pdu_slot_off
                0x0000000010026950       0x80 ..\..\platform\libs\libbtstack.a(lc_lmppdu.o)
                0x0000000010026950                lc_send_pdu_slot_off
 .text.lc_send_pdu_unsniff_req
                0x00000000100269d0       0x50 ..\..\platform\libs\libbtstack.a(lc_lmppdu.o)
                0x00000000100269d0                lc_send_pdu_unsniff_req
 .text.lc_send_pdu_vers_req
                0x0000000010026a20       0x6e ..\..\platform\libs\libbtstack.a(lc_lmppdu.o)
                0x0000000010026a20                lc_send_pdu_vers_req
 .text.lc_send_pdu_dhkey_chk
                0x0000000010026a8e       0x6e ..\..\platform\libs\libbtstack.a(lc_lmppdu.o)
                0x0000000010026a8e                lc_send_pdu_dhkey_chk
 .text.lc_send_pdu_vd_ctrl_req
                0x0000000010026afc       0xbc ..\..\platform\libs\libbtstack.a(lc_lmppdu.o)
                0x0000000010026afc                lc_send_pdu_vd_ctrl_req
 .text.lc_role_disc_cmd_handler
                0x0000000010026bb8       0x6e ..\..\platform\libs\libbtstack.a(lc_proc.o)
 .text.lc_start_page_scan_req_handler
                0x0000000010026c26       0x48 ..\..\platform\libs\libbtstack.a(lc_proc.o)
 .text.lc_auto_repk_pvt_to_handler
                0x0000000010026c6e        0x4 ..\..\platform\libs\libbtstack.a(lc_proc.o)
 .text.lc_lmp_setup_cmp_handler
                0x0000000010026c72       0x38 ..\..\platform\libs\libbtstack.a(lc_proc.o)
 .text.lc_lmp_slot_off_handler
                0x0000000010026caa       0x38 ..\..\platform\libs\libbtstack.a(lc_proc.o)
 .text.lc_rem_con_req_handler
                0x0000000010026ce2       0x7c ..\..\platform\libs\libbtstack.a(lc_proc.o)
 .text.lc_sp_auth_stg1_randn_handler
                0x0000000010026d5e       0xc4 ..\..\platform\libs\libbtstack.a(lc_proc.o)
 .text.lc_lmp_feats_update
                0x0000000010026e22       0x54 ..\..\platform\libs\libbtstack.a(lc_proc.o)
 .text.lc_lmp_rate_auto_handler
                0x0000000010026e76       0x40 ..\..\platform\libs\libbtstack.a(lc_proc.o)
 .text.lc_tst_disc_to_handler
                0x0000000010026eb6       0x50 ..\..\platform\libs\libbtstack.a(lc_proc.o)
 .text.lc_lmp_vers_req_handler
                0x0000000010026f06       0xa6 ..\..\platform\libs\libbtstack.a(lc_proc.o)
 .text.lc_op_pwr_ctrl_to_handler
                0x0000000010026fac      0x192 ..\..\platform\libs\libbtstack.a(lc_proc.o)
 .text.lc_lmp_pwr_min_handler
                0x000000001002713e       0x32 ..\..\platform\libs\libbtstack.a(lc_proc.o)
 .text.lc_lmp_pwr_max_handler
                0x0000000010027170       0x32 ..\..\platform\libs\libbtstack.a(lc_proc.o)
 .text.lc_op_vd_msg_ind_handler
                0x00000000100271a2       0xc6 ..\..\platform\libs\libbtstack.a(lc_proc.o)
 .text.lc_send_key_press_notif_handler
                0x0000000010027268       0xac ..\..\platform\libs\libbtstack.a(lc_proc.o)
 .text.lc_rem_name_req_can_handler
                0x0000000010027314       0xd0 ..\..\platform\libs\libbtstack.a(lc_proc.o)
 .text.lc_lmp_key_press_notif_handler
                0x00000000100273e4       0xa4 ..\..\platform\libs\libbtstack.a(lc_proc.o)
 .text.lc_op_link_stop_ind_handler
                0x0000000010027488       0xd0 ..\..\platform\libs\libbtstack.a(lc_proc.o)
 .text.lc_op_max_slot_sync_ind_handler
                0x0000000010027558       0xd4 ..\..\platform\libs\libbtstack.a(lc_proc.o)
 .text.lc_lmp_max_slot_handler
                0x000000001002762c       0x84 ..\..\platform\libs\libbtstack.a(lc_proc.o)
 .text.lc_op_detach_ind_handler
                0x00000000100276b0       0xa8 ..\..\platform\libs\libbtstack.a(lc_proc.o)
 .text.ext_acl_data_rx_ind_handler
                0x0000000010027758      0x116 ..\..\platform\libs\libbtstack.a(lc_proc.o)
 .text.lc_rd_rem_name_req_handler
                0x000000001002786e      0x112 ..\..\platform\libs\libbtstack.a(lc_proc.o)
 .text.lc_op_set_cmp_ind_handler
                0x0000000010027980       0xca ..\..\platform\libs\libbtstack.a(lc_proc.o)
 .text.lc_op_epr_ind_handler
                0x0000000010027a4a       0x8c ..\..\platform\libs\libbtstack.a(lc_proc.o)
 .text.lc_op_auth_ind_handler
                0x0000000010027ad6       0xa0 ..\..\platform\libs\libbtstack.a(lc_proc.o)
 .text.lc_op_hl_cnx_cont_ind_handler
                0x0000000010027b76       0xda ..\..\platform\libs\libbtstack.a(lc_proc.o)
 .text.lc_op_pt_ind_handler
                0x0000000010027c50       0xb6 ..\..\platform\libs\libbtstack.a(lc_proc.o)
 .text.lc_auto_unsinff_handler
                0x0000000010027d06       0xd2 ..\..\platform\libs\libbtstack.a(lc_proc.o)
 .text.lc_slotoff_ind_handler
                0x0000000010027dd8       0x62 ..\..\platform\libs\libbtstack.a(lc_proc.o)
 .text.lc_unsniff_cfm_handler
                0x0000000010027e3a       0xf4 ..\..\platform\libs\libbtstack.a(lc_proc.o)
 .text.lc_sniff_start_handler
                0x0000000010027f2e       0xca ..\..\platform\libs\libbtstack.a(lc_proc.o)
 .text.lc_afh_switch_cfm_handler
                0x0000000010027ff8      0x136 ..\..\platform\libs\libbtstack.a(lc_proc.o)
 .text.lc_lmp_page_sc_mode_req_handler
                0x000000001002812e       0x3e ..\..\platform\libs\libbtstack.a(lc_proc.o)
 .text.lc_lmp_page_mode_req_handler
                0x000000001002816c       0x38 ..\..\platform\libs\libbtstack.a(lc_proc.o)
 .text.lc_lmp_tim_acc_req_handler
                0x00000000100281a4       0xac ..\..\platform\libs\libbtstack.a(lc_proc.o)
 .text.lc_unsupport_req_handler
                0x0000000010028250       0x22 ..\..\platform\libs\libbtstack.a(lc_proc.o)
 .text.lc_switch_fail_ind_handler
                0x0000000010028272       0x2e ..\..\platform\libs\libbtstack.a(lc_proc.o)
 .text.lc_acl_flow_stop_ind_handler
                0x00000000100282a0      0x51e ..\..\platform\libs\libbtstack.a(lc_proc.o)
 .text.lc_switch_cfm_handler
                0x00000000100287be       0xc6 ..\..\platform\libs\libbtstack.a(lc_proc.o)
 .text.lc_link_sup_to_ind_handler
                0x0000000010028884       0xf2 ..\..\platform\libs\libbtstack.a(lc_proc.o)
 .text.ext_acl_data_tx_cfm_handler
                0x0000000010028976       0x58 ..\..\platform\libs\libbtstack.a(lc_proc.o)
 .text.lc_flush_to_ind_handler
                0x00000000100289ce       0xe0 ..\..\platform\libs\libbtstack.a(lc_proc.o)
 .text.lc_lmp_detach_handler
                0x0000000010028aae      0x11c ..\..\platform\libs\libbtstack.a(lc_proc.o)
 .text.lc_disc_cfm_handler
                0x0000000010028bca       0x76 ..\..\platform\libs\libbtstack.a(lc_proc.o)
 .text.lc_page_fail_ind_handler
                0x0000000010028c40       0x68 ..\..\platform\libs\libbtstack.a(lc_proc.o)
 .text.lc_abort_req_handler
                0x0000000010028ca8       0x4e ..\..\platform\libs\libbtstack.a(lc_proc.o)
 .text.lc_page_scan_cfm_handler
                0x0000000010028cf6       0xe0 ..\..\platform\libs\libbtstack.a(lc_proc.o)
 .text.lc_rd_link_sup_to_cmd_handler
                0x0000000010028dd6       0x80 ..\..\platform\libs\libbtstack.a(lc_proc.o)
 .text.lc_page_cfm_handler
                0x0000000010028e56       0xc8 ..\..\platform\libs\libbtstack.a(lc_proc.o)
 .text.lc_afh_report_to_handler
                0x0000000010028f1e       0xe0 ..\..\platform\libs\libbtstack.a(lc_proc.o)
 .text.lc_pass_key_req_neg_rply_handler
                0x0000000010028ffe       0x6a ..\..\platform\libs\libbtstack.a(lc_proc.o)
 .text.lc_pass_key_req_rply_handler
                0x0000000010029068       0x8c ..\..\platform\libs\libbtstack.a(lc_proc.o)
 .text.lc_lmp_clk_off_res_handler
                0x00000000100290f4       0x90 ..\..\platform\libs\libbtstack.a(lc_proc.o)
 .text.lc_lmp_rsp_to_ind_handler
                0x0000000010029184      0x54e ..\..\platform\libs\libbtstack.a(lc_proc.o)
 .text.lc_comp_dhkey_handler
                0x00000000100296d2       0xe2 ..\..\platform\libs\libbtstack.a(lc_proc.o)
 .text.lc_sync_ind_handler
                0x00000000100297b4       0x9e ..\..\platform\libs\libbtstack.a(lc_proc.o)
 .text.lc_lmp_max_slot_req_handler
                0x0000000010029852      0x114 ..\..\platform\libs\libbtstack.a(lc_proc.o)
 .text.lc_trans_coll_handler
                0x0000000010029966       0x46 ..\..\platform\libs\libbtstack.a(lc_proc.o)
 .text.lc_io_capa_req_neg_rply_handler
                0x00000000100299ac       0x8c ..\..\platform\libs\libbtstack.a(lc_proc.o)
 .text.lc_unsupport_ext4_req_handler
                0x0000000010029a38       0x22 ..\..\platform\libs\libbtstack.a(lc_proc.o)
 .text.lc_user_cfm_req_neg_rply_handler
                0x0000000010029a5a       0xd6 ..\..\platform\libs\libbtstack.a(lc_proc.o)
 .text.lc_user_cfm_req_rply_handler
                0x0000000010029b30       0xda ..\..\platform\libs\libbtstack.a(lc_proc.o)
 .text.lc_io_capa_req_rply_handler
                0x0000000010029c0a       0xe8 ..\..\platform\libs\libbtstack.a(lc_proc.o)
 .text.lc_pin_code_req_neg_rply_handler
                0x0000000010029cf2      0x110 ..\..\platform\libs\libbtstack.a(lc_proc.o)
 .text.lc_pin_code_req_rply_handler
                0x0000000010029e02       0x9c ..\..\platform\libs\libbtstack.a(lc_proc.o)
 .text.lc_ltk_req_neg_rply_handler
                0x0000000010029e9e       0xbc ..\..\platform\libs\libbtstack.a(lc_proc.o)
 .text.lc_ltk_req_rply_handler
                0x0000000010029f5a      0x11e ..\..\platform\libs\libbtstack.a(lc_proc.o)
 .text.lc_rej_con_req_handler
                0x000000001002a078      0x104 ..\..\platform\libs\libbtstack.a(lc_proc.o)
 .text.lc_rd_rem_supp_feats_cmd_handler
                0x000000001002a17c       0xa2 ..\..\platform\libs\libbtstack.a(lc_proc.o)
 .text.lc_set_con_enc_cmd_handler
                0x000000001002a21e       0xf8 ..\..\platform\libs\libbtstack.a(lc_proc.o)
 .text.lc_rd_rem_ver_info_cmd_handler
                0x000000001002a316       0xd2 ..\..\platform\libs\libbtstack.a(lc_proc.o)
 .text.lc_acc_con_req_handler
                0x000000001002a3e8      0x1a4 ..\..\platform\libs\libbtstack.a(lc_proc.o)
 .text.lc_create_con_can_handler
                0x000000001002a58c       0xa8 ..\..\platform\libs\libbtstack.a(lc_proc.o)
 .text.lc_wr_link_sup_to_cmd_handler
                0x000000001002a634      0x122 ..\..\platform\libs\libbtstack.a(lc_proc.o)
 .text.lc_switch_role_handler
                0x000000001002a756      0x168 ..\..\platform\libs\libbtstack.a(lc_proc.o)
 .text.lc_sniff_mode_cmd_handler
                0x000000001002a8be      0x1d0 ..\..\platform\libs\libbtstack.a(lc_proc.o)
 .text.lc_auto_sinff_to_handler
                0x000000001002aa8e       0xfc ..\..\platform\libs\libbtstack.a(lc_proc.o)
 .text.lc_rd_clock_off_cmd_handler
                0x000000001002ab8a      0x104 ..\..\platform\libs\libbtstack.a(lc_proc.o)
 .text.lc_lmp_clk_off_req_handler
                0x000000001002ac8e       0xcc ..\..\platform\libs\libbtstack.a(lc_proc.o)
 .text.lc_rd_rem_ext_feats_cmd_handler
                0x000000001002ad5a      0x10a ..\..\platform\libs\libbtstack.a(lc_proc.o)
 .text.lc_lmp_feats_ext_res_handler
                0x000000001002ae64      0x11a ..\..\platform\libs\libbtstack.a(lc_proc.o)
 .text.lc_auth_req_cmd_handler
                0x000000001002af7e       0xd0 ..\..\platform\libs\libbtstack.a(lc_proc.o)
 .text.lc_disc_cmd_handler
                0x000000001002b04e      0x10c ..\..\platform\libs\libbtstack.a(lc_proc.o)
 .text.lc_acl_data_req_handler
                0x000000001002b15a      0x13c ..\..\platform\libs\libbtstack.a(lc_proc.o)
 .text.lc_lmp_sup_to_handler
                0x000000001002b296       0x9a ..\..\platform\libs\libbtstack.a(lc_proc.o)
 .text.lc_lmp_tx_cfm_handler
                0x000000001002b330      0x386 ..\..\platform\libs\libbtstack.a(lc_proc.o)
 .text.lc_lmp_pwr_cntl_res_handler
                0x000000001002b6b6       0x72 ..\..\platform\libs\libbtstack.a(lc_proc.o)
 .text.lc_lmp_pwr_cntl_req_handler
                0x000000001002b728       0x8a ..\..\platform\libs\libbtstack.a(lc_proc.o)
 .text.lc_lmp_io_cap_res_handler
                0x000000001002b7b2       0xf0 ..\..\platform\libs\libbtstack.a(lc_proc.o)
 .text.lc_lmp_io_cap_req_handler
                0x000000001002b8a2      0x24c ..\..\platform\libs\libbtstack.a(lc_proc.o)
 .text.lc_lmp_enc_resume_req_handler
                0x000000001002baee       0xb6 ..\..\platform\libs\libbtstack.a(lc_proc.o)
 .text.lc_lmp_enc_pause_req_handler
                0x000000001002bba4       0xfc ..\..\platform\libs\libbtstack.a(lc_proc.o)
 .text.lc_lmp_ch_class_handler
                0x000000001002bca0       0x5c ..\..\platform\libs\libbtstack.a(lc_proc.o)
 .text.lc_lmp_ch_class_req_handler
                0x000000001002bcfc      0x134 ..\..\platform\libs\libbtstack.a(lc_proc.o)
 .text.lc_lmp_pkt_typ_tbl_req_handler
                0x000000001002be30       0xce ..\..\platform\libs\libbtstack.a(lc_proc.o)
 .text.lc_lmp_feats_ext_req_handler
                0x000000001002befe       0xa6 ..\..\platform\libs\libbtstack.a(lc_proc.o)
 .text.lc_lmp_acc_ext_not_handler
                0x000000001002bfa4      0x240 ..\..\platform\libs\libbtstack.a(lc_proc.o)
 .text.lc_lmp_acc_ext_handler
                0x000000001002c1e4      0x11c ..\..\platform\libs\libbtstack.a(lc_proc.o)
 .text.lc_lmp_vd_ctrl_req_handler
                0x000000001002c300      0x280 ..\..\platform\libs\libbtstack.a(lc_proc.o)
 .text.lc_lmp_dhkey_chk_handler
                0x000000001002c580      0x1a4 ..\..\platform\libs\libbtstack.a(lc_proc.o)
 .text.lc_lmp_sp_nb_handler
                0x000000001002c724      0x374 ..\..\platform\libs\libbtstack.a(lc_proc.o)
 .text.lc_lmp_sp_cfm_handler
                0x000000001002ca98      0x162 ..\..\platform\libs\libbtstack.a(lc_proc.o)
 .text.lc_lmp_encaps_payl_handler
                0x000000001002cbfa      0x192 ..\..\platform\libs\libbtstack.a(lc_proc.o)
 .text.lc_lmp_encaps_head_handler
                0x000000001002cd8c      0x130 ..\..\platform\libs\libbtstack.a(lc_proc.o)
 .text.lc_lmp_set_afh_handler
                0x000000001002cebc       0xf0 ..\..\platform\libs\libbtstack.a(lc_proc.o)
 .text.lc_lmp_enc_key_sz_msk_res_handler
                0x000000001002cfac       0x5c ..\..\platform\libs\libbtstack.a(lc_proc.o)
 .text.lc_lmp_vers_res_handler
                0x000000001002d008      0x14e ..\..\platform\libs\libbtstack.a(lc_proc.o)
 .text.lc_lmp_enc_key_sz_msk_req_handler
                0x000000001002d156       0x92 ..\..\platform\libs\libbtstack.a(lc_proc.o)
 .text.lc_lmp_tst_cntl_handler
                0x000000001002d1e8      0x110 ..\..\platform\libs\libbtstack.a(lc_proc.o)
 .text.lc_lmp_tst_act_handler
                0x000000001002d2f8       0x70 ..\..\platform\libs\libbtstack.a(lc_proc.o)
 .text.lc_lmp_hl_con_req_handler
                0x000000001002d368       0xe2 ..\..\platform\libs\libbtstack.a(lc_proc.o)
 .text.lc_lmp_tim_acc_res_handler
                0x000000001002d44a       0xee ..\..\platform\libs\libbtstack.a(lc_proc.o)
 .text.lc_lmp_feats_res_handler
                0x000000001002d538       0xa6 ..\..\platform\libs\libbtstack.a(lc_proc.o)
 .text.lc_lmp_feats_req_handler
                0x000000001002d5de       0x78 ..\..\platform\libs\libbtstack.a(lc_proc.o)
 .text.lc_lmp_rate_pref_handler
                0x000000001002d656       0x4e ..\..\platform\libs\libbtstack.a(lc_proc.o)
 .text.lc_lmp_pwr_dec_req_handler
                0x000000001002d6a4       0x98 ..\..\platform\libs\libbtstack.a(lc_proc.o)
 .text.lc_lmp_pwr_inc_req_handler
                0x000000001002d73c       0x96 ..\..\platform\libs\libbtstack.a(lc_proc.o)
 .text.lc_lmp_unsniff_req_handler
                0x000000001002d7d2      0x110 ..\..\platform\libs\libbtstack.a(lc_proc.o)
 .text.lc_lmp_sniff_req_handler
                0x000000001002d8e2      0x166 ..\..\platform\libs\libbtstack.a(lc_proc.o)
 .text.lc_lmp_switch_req_handler
                0x000000001002da48      0x1d6 ..\..\platform\libs\libbtstack.a(lc_proc.o)
 .text.lc_lmp_enc_stop_req_handler
                0x000000001002dc1e      0x13a ..\..\platform\libs\libbtstack.a(lc_proc.o)
 .text.lc_lmp_enc_start_req_handler
                0x000000001002dd58      0x224 ..\..\platform\libs\libbtstack.a(lc_proc.o)
 .text.lc_lmp_enc_key_size_req_handler
                0x000000001002df7c      0x15e ..\..\platform\libs\libbtstack.a(lc_proc.o)
 .text.lc_lmp_enc_mode_req_handler
                0x000000001002e0da      0x206 ..\..\platform\libs\libbtstack.a(lc_proc.o)
 .text.lc_lmp_temp_key_handler
                0x000000001002e2e0       0x86 ..\..\platform\libs\libbtstack.a(lc_proc.o)
 .text.lc_lmp_temp_rand_handler
                0x000000001002e366      0x12a ..\..\platform\libs\libbtstack.a(lc_proc.o)
 .text.lc_lmp_sres_handler
                0x000000001002e490      0x340 ..\..\platform\libs\libbtstack.a(lc_proc.o)
 .text.lc_lmp_au_rand_handler
                0x000000001002e7d0      0x29e ..\..\platform\libs\libbtstack.a(lc_proc.o)
 .text.lc_lmp_unit_key_handler
                0x000000001002ea6e      0x160 ..\..\platform\libs\libbtstack.a(lc_proc.o)
 .text.lc_lmp_comb_key_handler
                0x000000001002ebce      0x1ce ..\..\platform\libs\libbtstack.a(lc_proc.o)
 .text.lc_lmp_in_rand_handler
                0x000000001002ed9c      0x18e ..\..\platform\libs\libbtstack.a(lc_proc.o)
 .text.lc_lmp_acc_not_handler
                0x000000001002ef2a      0x6d0 ..\..\platform\libs\libbtstack.a(lc_proc.o)
 .text.lc_lmp_acc_handler
                0x000000001002f5fa      0x93a ..\..\platform\libs\libbtstack.a(lc_proc.o)
 .text.lc_lmp_name_res_handler
                0x000000001002ff34       0xd0 ..\..\platform\libs\libbtstack.a(lc_proc.o)
 .text.lc_lmp_name_req_handler
                0x0000000010030004       0x7a ..\..\platform\libs\libbtstack.a(lc_proc.o)
 .text.lc_lmp_pass_key_fail_handler
                0x000000001003007e       0x7a ..\..\platform\libs\libbtstack.a(lc_proc.o)
 .text.lc_lmp_oob_fail_handler
                0x00000000100300f8       0x66 ..\..\platform\libs\libbtstack.a(lc_proc.o)
 .text.lc_op_vd_ind_handler
                0x000000001003015e       0xa2 ..\..\platform\libs\libbtstack.a(lc_proc.o)
 .text.lc_stop_page_scan_cfm_handler
                0x0000000010030200       0x44 ..\..\platform\libs\libbtstack.a(lc_proc.o)
 .text.lc_op_name_req_ind_handler
                0x0000000010030244       0x88 ..\..\platform\libs\libbtstack.a(lc_proc.o)
 .text.lc_op_enc_ind_handler
                0x00000000100302cc       0x8e ..\..\platform\libs\libbtstack.a(lc_proc.o)
 .text.lc_op_remauth_ind_handler
                0x000000001003035a       0x94 ..\..\platform\libs\libbtstack.a(lc_proc.o)
 .text.lc_op_hl_cnx_ind_handler
                0x00000000100303ee       0x9a ..\..\platform\libs\libbtstack.a(lc_proc.o)
 .text.lc_op_afh_ind_handler
                0x0000000010030488       0x7c ..\..\platform\libs\libbtstack.a(lc_proc.o)
 .text.lc_op_timacc_ind_handler
                0x0000000010030504       0xba ..\..\platform\libs\libbtstack.a(lc_proc.o)
 .text.lc_op_clkoff_ind_handler
                0x00000000100305be       0x8c ..\..\platform\libs\libbtstack.a(lc_proc.o)
 .text.lc_op_vers_ind_handler
                0x000000001003064a       0x8c ..\..\platform\libs\libbtstack.a(lc_proc.o)
 .text.lc_op_feat_ind_handler
                0x00000000100306d6       0x8c ..\..\platform\libs\libbtstack.a(lc_proc.o)
 .text.lc_bad_lmp_handler
                0x0000000010030762       0x50 ..\..\platform\libs\libbtstack.a(lc_proc.o)
 .text.lc_stop_page_cfm_handler
                0x00000000100307b2       0x62 ..\..\platform\libs\libbtstack.a(lc_proc.o)
 .text.lc_con_accept_to_handler
                0x0000000010030814       0x70 ..\..\platform\libs\libbtstack.a(lc_proc.o)
 .text.lc_rej_sync_con_handler
                0x0000000010030884       0x64 ..\..\platform\libs\libbtstack.a(lc_proc.o)
 .text.lc_acc_sync_con_handler
                0x00000000100308e8       0x6e ..\..\platform\libs\libbtstack.a(lc_proc.o)
 .text.lc_start_page_req_handler
                0x0000000010030956       0xba ..\..\platform\libs\libbtstack.a(lc_proc.o)
 .text.lc_setup_sync_con_cmd_handler
                0x0000000010030a10       0xd0 ..\..\platform\libs\libbtstack.a(lc_proc.o)
 .text.lc_lmp_msg_handler
                0x0000000010030ae0       0xc6 ..\..\platform\libs\libbtstack.a(lc_proc.o)
 .text.lc_lmp_esco_lk_rem_req_handler
                0x0000000010030ba6       0x3e ..\..\platform\libs\libbtstack.a(lc_proc.o)
 .text.lc_lmp_sco_lk_rem_req_handler
                0x0000000010030be4       0x3e ..\..\platform\libs\libbtstack.a(lc_proc.o)
 .text.lc_lmp_esco_lk_req_handler
                0x0000000010030c22      0x110 ..\..\platform\libs\libbtstack.a(lc_proc.o)
 .text.lc_lmp_sco_lk_req_handler
                0x0000000010030d32       0xb8 ..\..\platform\libs\libbtstack.a(lc_proc.o)
 .text.lc_page_scan_end_ind_handler
                0x0000000010030dea       0x44 ..\..\platform\libs\libbtstack.a(lc_proc.o)
 .text.lc_lmp_num_comp_fail_handler
                0x0000000010030e2e       0x46 ..\..\platform\libs\libbtstack.a(lc_proc.o)
 .text.lc_epc_response_ind
                0x0000000010030e74       0x78 ..\..\platform\libs\libbtstack.a(lc_pwrctrl.o)
                0x0000000010030e74                lc_epc_response_ind
 .text.lc_sco_alloc_link
                0x0000000010030eec       0x76 ..\..\platform\libs\libbtstack.a(lc_sco.o)
 .text.lc_sco_free_nego
                0x0000000010030f62       0x4a ..\..\platform\libs\libbtstack.a(lc_sco.o)
 .text.lc_sco_alloc_nego
                0x0000000010030fac       0x4c ..\..\platform\libs\libbtstack.a(lc_sco.o)
 .text.lc_sco_send_peer_disc
                0x0000000010030ff8       0x7c ..\..\platform\libs\libbtstack.a(lc_sco.o)
 .text.lc_sco_send_host_cmp_evt
                0x0000000010031074      0x17e ..\..\platform\libs\libbtstack.a(lc_sco.o)
 .text.lc_sco_send_peer_req
                0x00000000100311f2      0x1a0 ..\..\platform\libs\libbtstack.a(lc_sco.o)
 .text.lc_sco_send_peer_accept
                0x0000000010031392       0x2c ..\..\platform\libs\libbtstack.a(lc_sco.o)
 .text.lc_sco_send_peer_reject
                0x00000000100313be       0x1a ..\..\platform\libs\libbtstack.a(lc_sco.o)
 .text.lc_sco_free_link
                0x00000000100313d8       0x5a ..\..\platform\libs\libbtstack.a(lc_sco.o)
 .text.lc_sco_wrapper_lm_get_sync_param.isra.1
                0x0000000010031432       0x1e ..\..\platform\libs\libbtstack.a(lc_sco.o)
 .text.lc_sco_init
                0x0000000010031450       0x20 ..\..\platform\libs\libbtstack.a(lc_sco.o)
                0x0000000010031450                lc_sco_init
 .text.lc_sco_reset
                0x0000000010031470       0x54 ..\..\platform\libs\libbtstack.a(lc_sco.o)
                0x0000000010031470                lc_sco_reset
 .text.lc_sco_host_request
                0x00000000100314c4      0x10e ..\..\platform\libs\libbtstack.a(lc_sco.o)
                0x00000000100314c4                lc_sco_host_request
 .text.lc_sco_host_accept
                0x00000000100315d2      0x196 ..\..\platform\libs\libbtstack.a(lc_sco.o)
                0x00000000100315d2                lc_sco_host_accept
 .text.lc_sco_host_reject
                0x0000000010031768       0xee ..\..\platform\libs\libbtstack.a(lc_sco.o)
                0x0000000010031768                lc_sco_host_reject
 .text.lc_sco_peer_request
                0x0000000010031856      0x2a2 ..\..\platform\libs\libbtstack.a(lc_sco.o)
                0x0000000010031856                lc_sco_peer_request
 .text.lc_sco_is_exist
                0x0000000010031af8       0x14 ..\..\platform\libs\libbtstack.a(lc_sco.o)
                0x0000000010031af8                lc_sco_is_exist
 .text.lc_sco_peer_reject
                0x0000000010031b0c       0xb0 ..\..\platform\libs\libbtstack.a(lc_sco.o)
                0x0000000010031b0c                lc_sco_peer_reject
 .text.lc_sco_con_init
                0x0000000010031bbc       0x76 ..\..\platform\libs\libbtstack.a(lc_sco.o)
                0x0000000010031bbc                lc_sco_con_init
 *fill*         0x0000000010031c32        0xe 
 .text.lc_sco_con_port_sync
                0x0000000010031c40       0x40 ..\..\platform\libs\libbtstack.a(lc_sco.o)
                0x0000000010031c40                lc_sco_con_port_sync
 *fill*         0x0000000010031c80       0x80 
 .text.lc_sco_con_start
                0x0000000010031d00      0x100 ..\..\platform\libs\libbtstack.a(lc_sco.o)
                0x0000000010031d00                lc_sco_con_start
 *fill*         0x0000000010031e00        0x0 
 .text.lc_sco_con_remove
                0x0000000010031e00      0x1ee ..\..\platform\libs\libbtstack.a(lc_sco.o)
                0x0000000010031e00                lc_sco_con_remove
 .text.lc_sco_detach
                0x0000000010031fee       0xd2 ..\..\platform\libs\libbtstack.a(lc_sco.o)
                0x0000000010031fee                lc_sco_detach
 .text.lc_sco_peer_accept_disc
                0x00000000100320c0       0xfa ..\..\platform\libs\libbtstack.a(lc_sco.o)
                0x00000000100320c0                lc_sco_peer_accept_disc
 .text.lc_sco_release
                0x00000000100321ba       0x96 ..\..\platform\libs\libbtstack.a(lc_sco.o)
                0x00000000100321ba                lc_sco_release
 .text.lc_sco_host_request_disc
                0x0000000010032250       0x86 ..\..\platform\libs\libbtstack.a(lc_sco.o)
                0x0000000010032250                lc_sco_host_request_disc
 .text.lc_sco_peer_request_disc
                0x00000000100322d6      0x138 ..\..\platform\libs\libbtstack.a(lc_sco.o)
                0x00000000100322d6                lc_sco_peer_request_disc
 .text.lc_sco_peer_reject_disc
                0x000000001003240e      0x110 ..\..\platform\libs\libbtstack.a(lc_sco.o)
                0x000000001003240e                lc_sco_peer_reject_disc
 .text.lc_sco_timeout
                0x000000001003251e      0x104 ..\..\platform\libs\libbtstack.a(lc_sco.o)
                0x000000001003251e                lc_sco_timeout
 .text.lc_sco_con_configure
                0x0000000010032622      0x212 ..\..\platform\libs\libbtstack.a(lc_sco.o)
                0x0000000010032622                lc_sco_con_configure
 .text.lc_sco_con_add
                0x0000000010032834      0x30e ..\..\platform\libs\libbtstack.a(lc_sco.o)
                0x0000000010032834                lc_sco_con_add
 .text.lc_sco_start_link
                0x0000000010032b42      0x112 ..\..\platform\libs\libbtstack.a(lc_sco.o)
 .text.lc_sco_peer_accept
                0x0000000010032c54       0xa4 ..\..\platform\libs\libbtstack.a(lc_sco.o)
                0x0000000010032c54                lc_sco_peer_accept
 .text.lc_sco_baseband_ack
                0x0000000010032cf8      0x132 ..\..\platform\libs\libbtstack.a(lc_sco.o)
                0x0000000010032cf8                lc_sco_baseband_ack
 *fill*         0x0000000010032e2a       0xd6 
 .text.lc_sco_con_null_filtering
                0x0000000010032f00       0xfc ..\..\platform\libs\libbtstack.a(lc_sco.o)
                0x0000000010032f00                lc_sco_con_null_filtering
 .text.lc_util_set_loc_trans_coll
                0x0000000010032ffc       0x1e ..\..\platform\libs\libbtstack.a(lc_util.o)
                0x0000000010032ffc                lc_util_set_loc_trans_coll
 .text.lc_util_check_trans_coll
                0x000000001003301a       0xe0 ..\..\platform\libs\libbtstack.a(lc_util.o)
                0x000000001003301a                lc_util_check_trans_coll
 .text.lm_init  0x00000000100330fa      0x15a ..\..\platform\libs\libbtstack.a(lm.o)
                0x00000000100330fa                lm_init
 .text.lm_common_cmd_complete_send
                0x0000000010033254       0x2c ..\..\platform\libs\libbtstack.a(lm.o)
                0x0000000010033254                lm_common_cmd_complete_send
 .text.lm_common_cmd_status_send
                0x0000000010033280       0x2c ..\..\platform\libs\libbtstack.a(lm.o)
                0x0000000010033280                lm_common_cmd_status_send
 .text.lm_create_con
                0x00000000100332ac       0xda ..\..\platform\libs\libbtstack.a(lm.o)
                0x00000000100332ac                lm_create_con
 .text.lm_create_con_rem_name
                0x0000000010033386       0x74 ..\..\platform\libs\libbtstack.a(lm.o)
                0x0000000010033386                lm_create_con_rem_name
 .text.lm_page_sc
                0x00000000100333fa       0x84 ..\..\platform\libs\libbtstack.a(lm.o)
                0x00000000100333fa                lm_page_sc
 .text.lm_inquiry_sc
                0x000000001003347e      0x112 ..\..\platform\libs\libbtstack.a(lm.o)
                0x000000001003347e                lm_inquiry_sc
 .text.lm_set_iac_en
                0x0000000010033590       0x7e ..\..\platform\libs\libbtstack.a(lm.o)
                0x0000000010033590                lm_set_iac_en
 .text.lm_afh_restart_timer
                0x000000001003360e       0x3c ..\..\platform\libs\libbtstack.a(lm.o)
                0x000000001003360e                lm_afh_restart_timer
 .text.lm_afh_process
                0x000000001003364a       0x5c ..\..\platform\libs\libbtstack.a(lm.o)
                0x000000001003364a                lm_afh_process
 .text.lm_afh_init
                0x00000000100336a6       0x50 ..\..\platform\libs\libbtstack.a(lm.o)
                0x00000000100336a6                lm_afh_init
 .text.LM_ExpandAddr
                0x00000000100336f6       0x24 ..\..\platform\libs\libbtstack.a(lm_key.o)
                0x00000000100336f6                LM_ExpandAddr
 .text.LM_ExpandPIN
                0x000000001003371a       0x66 ..\..\platform\libs\libbtstack.a(lm_key.o)
                0x000000001003371a                LM_ExpandPIN
 .text.LM_ExpandCof
                0x0000000010033780       0x24 ..\..\platform\libs\libbtstack.a(lm_key.o)
                0x0000000010033780                LM_ExpandCof
 .text.LM_ExpLog
                0x00000000100337a4       0x4c ..\..\platform\libs\libbtstack.a(lm_key.o)
                0x00000000100337a4                LM_ExpLog
 .text.LM_Offset
                0x00000000100337f0       0xbe ..\..\platform\libs\libbtstack.a(lm_key.o)
                0x00000000100337f0                LM_Offset
 .text.LM_InitKeySchedule
                0x00000000100338ae       0x24 ..\..\platform\libs\libbtstack.a(lm_key.o)
                0x00000000100338ae                LM_InitKeySchedule
 .text.LM_CreateBiasVector
                0x00000000100338d2       0x38 ..\..\platform\libs\libbtstack.a(lm_key.o)
                0x00000000100338d2                LM_CreateBiasVector
 .text.LM_Add   0x000000001003390a       0x1e ..\..\platform\libs\libbtstack.a(lm_key.o)
                0x000000001003390a                LM_Add
 .text.LM_NextKeySchedule
                0x0000000010033928       0x86 ..\..\platform\libs\libbtstack.a(lm_key.o)
                0x0000000010033928                LM_NextKeySchedule
 .text.LM_Xor   0x00000000100339ae       0x1e ..\..\platform\libs\libbtstack.a(lm_key.o)
                0x00000000100339ae                LM_Xor
 .text.LM_XorAdd
                0x00000000100339cc       0x48 ..\..\platform\libs\libbtstack.a(lm_key.o)
                0x00000000100339cc                LM_XorAdd
 .text.LM_AddXor
                0x0000000010033a14       0x48 ..\..\platform\libs\libbtstack.a(lm_key.o)
                0x0000000010033a14                LM_AddXor
 .text.LM_Permute
                0x0000000010033a5c       0x4c ..\..\platform\libs\libbtstack.a(lm_key.o)
                0x0000000010033a5c                LM_Permute
 .text.LM_ArRound
                0x0000000010033aa8       0xae ..\..\platform\libs\libbtstack.a(lm_key.o)
                0x0000000010033aa8                LM_ArRound
 .text.LM_Ar    0x0000000010033b56       0x64 ..\..\platform\libs\libbtstack.a(lm_key.o)
                0x0000000010033b56                LM_Ar
 .text.LM_ArPrim
                0x0000000010033bba       0x8c ..\..\platform\libs\libbtstack.a(lm_key.o)
                0x0000000010033bba                LM_ArPrim
 .text.LM_E1    0x0000000010033c46       0x94 ..\..\platform\libs\libbtstack.a(lm_key.o)
                0x0000000010033c46                LM_E1
 .text.LM_E21   0x0000000010033cda       0x4a ..\..\platform\libs\libbtstack.a(lm_key.o)
                0x0000000010033cda                LM_E21
 .text.LM_E22   0x0000000010033d24       0x54 ..\..\platform\libs\libbtstack.a(lm_key.o)
                0x0000000010033d24                LM_E22
 .text.LM_E3    0x0000000010033d78       0x5c ..\..\platform\libs\libbtstack.a(lm_key.o)
                0x0000000010033d78                LM_E3
 .text.LM_ReverseVector
                0x0000000010033dd4       0x32 ..\..\platform\libs\libbtstack.a(lm_key.o)
                0x0000000010033dd4                LM_ReverseVector
 .text.LM_Modulo
                0x0000000010033e06      0x3dc ..\..\platform\libs\libbtstack.a(lm_key.o)
                0x0000000010033e06                LM_Modulo
 .text.LM_Multiply
                0x00000000100341e2      0x3ca ..\..\platform\libs\libbtstack.a(lm_key.o)
                0x00000000100341e2                LM_Multiply
 .text.LM_KPrimC
                0x00000000100345ac       0x8a ..\..\platform\libs\libbtstack.a(lm_key.o)
                0x00000000100345ac                LM_KPrimC
 .text.E1       0x0000000010034636       0x1a ..\..\platform\libs\libbtstack.a(lm_key.o)
                0x0000000010034636                E1
 .text.E21      0x0000000010034650       0x16 ..\..\platform\libs\libbtstack.a(lm_key.o)
                0x0000000010034650                E21
 .text.E22      0x0000000010034666       0x1a ..\..\platform\libs\libbtstack.a(lm_key.o)
                0x0000000010034666                E22
 .text.E3       0x0000000010034680        0xe ..\..\platform\libs\libbtstack.a(lm_key.o)
                0x0000000010034680                E3
 .text.KPrimC   0x000000001003468e        0xe ..\..\platform\libs\libbtstack.a(lm_key.o)
                0x000000001003468e                KPrimC
 .text.XorKey   0x000000001003469c        0xe ..\..\platform\libs\libbtstack.a(lm_key.o)
                0x000000001003469c                XorKey
 .text.lm_rd_loc_vers_info_cmd_handler
                0x00000000100346aa       0x5a ..\..\platform\libs\libbtstack.a(lm_proc.o)
 .text.lm_rd_buff_size_cmd_handler
                0x0000000010034704       0x54 ..\..\platform\libs\libbtstack.a(lm_proc.o)
 .text.lm_acl_link_rem_handler
                0x0000000010034758       0x24 ..\..\platform\libs\libbtstack.a(lm_proc.o)
 .text.lm_lsto_ind_handler
                0x000000001003477c       0x1a ..\..\platform\libs\libbtstack.a(lm_proc.o)
 .text.lm_reset_cmd_handler
                0x0000000010034796       0x28 ..\..\platform\libs\libbtstack.a(lm_proc.o)
 .text.lm_wr_inq_mode_cmd_handler
                0x00000000100347be       0x2a ..\..\platform\libs\libbtstack.a(lm_proc.o)
 .text.lm_wr_inq_sc_type_cmd_handler
                0x00000000100347e8       0x2a ..\..\platform\libs\libbtstack.a(lm_proc.o)
 .text.lm_wr_page_sc_type_cmd_handler
                0x0000000010034812       0x2a ..\..\platform\libs\libbtstack.a(lm_proc.o)
 .text.lm_rd_rem_name_cfm_handler
                0x000000001003483c       0x88 ..\..\platform\libs\libbtstack.a(lm_proc.o)
 .text.lm_chg_loc_name_cmd_handler
                0x00000000100348c4       0x48 ..\..\platform\libs\libbtstack.a(lm_proc.o)
 .text.lm_rd_loc_name_cmd_handler
                0x000000001003490c       0x50 ..\..\platform\libs\libbtstack.a(lm_proc.o)
 .text.lm_inq_per_mode_cmd_handler
                0x000000001003495c       0xd8 ..\..\platform\libs\libbtstack.a(lm_proc.o)
 .text.lm_page_scan_cfm_handler
                0x0000000010034a34       0x22 ..\..\platform\libs\libbtstack.a(lm_proc.o)
 .text.lm_afh_to_handler
                0x0000000010034a56       0x4e ..\..\platform\libs\libbtstack.a(lm_proc.o)
 .text.lm_remote_name_to_handler
                0x0000000010034aa4       0x8a ..\..\platform\libs\libbtstack.a(lm_proc.o)
 .text.lm_wr_le_host_supp_cmd_handler
                0x0000000010034b2e       0x26 ..\..\platform\libs\libbtstack.a(lm_proc.o)
 .text.lm_rd_le_host_supp_cmd_handler
                0x0000000010034b54       0x42 ..\..\platform\libs\libbtstack.a(lm_proc.o)
 .text.lm_wr_sp_dbg_mode_cmd_handler
                0x0000000010034b96       0x28 ..\..\platform\libs\libbtstack.a(lm_proc.o)
 .text.lm_send_key_press_notif_cmd_handler
                0x0000000010034bbe       0x84 ..\..\platform\libs\libbtstack.a(lm_proc.o)
 .text.lm_user_pass_key_req_reply_neg_cmd_handler
                0x0000000010034c42       0x72 ..\..\platform\libs\libbtstack.a(lm_proc.o)
 .text.lm_user_pass_key_req_reply_cmd_handler
                0x0000000010034cb4       0x6e ..\..\platform\libs\libbtstack.a(lm_proc.o)
 .text.lm_user_cfm_req_reply_neg_cmd_handler
                0x0000000010034d22       0x72 ..\..\platform\libs\libbtstack.a(lm_proc.o)
 .text.lm_user_cfm_req_reply_cmd_handler
                0x0000000010034d94       0x7a ..\..\platform\libs\libbtstack.a(lm_proc.o)
 .text.lm_io_cap_req_reply_neg_cmd_handler
                0x0000000010034e0e       0x72 ..\..\platform\libs\libbtstack.a(lm_proc.o)
 .text.lm_io_cap_req_reply_cmd_handler
                0x0000000010034e80       0x7a ..\..\platform\libs\libbtstack.a(lm_proc.o)
 .text.lm_rem_name_req_can_cmd_handler
                0x0000000010034efa       0x72 ..\..\platform\libs\libbtstack.a(lm_proc.o)
 .text.lm_pin_code_reply_neg_cmd_handler
                0x0000000010034f6c       0x76 ..\..\platform\libs\libbtstack.a(lm_proc.o)
 .text.lm_pin_code_reply_cmd_handler
                0x0000000010034fe2       0x86 ..\..\platform\libs\libbtstack.a(lm_proc.o)
 .text.lm_link_key_reply_neg_cmd_handler
                0x0000000010035068       0x76 ..\..\platform\libs\libbtstack.a(lm_proc.o)
 .text.lm_link_key_reply_cmd_handler
                0x00000000100350de       0x76 ..\..\platform\libs\libbtstack.a(lm_proc.o)
 .text.lm_create_cnx_can_cmd_handler
                0x0000000010035154       0x7c ..\..\platform\libs\libbtstack.a(lm_proc.o)
 .text.lm_inq_cmd_handler
                0x00000000100351d0       0xba ..\..\platform\libs\libbtstack.a(lm_proc.o)
 .text.lm_wr_sp_mode_cmd_handler
                0x000000001003528a       0x28 ..\..\platform\libs\libbtstack.a(lm_proc.o)
 .text.lm_rd_sp_mode_cmd_handler
                0x00000000100352b2       0x40 ..\..\platform\libs\libbtstack.a(lm_proc.o)
 .text.lm_wr_ext_inq_rsp_cmd_handler
                0x00000000100352f2       0x3c ..\..\platform\libs\libbtstack.a(lm_proc.o)
 .text.lm_rd_ext_inq_rsp_cmd_handler
                0x000000001003532e       0x44 ..\..\platform\libs\libbtstack.a(lm_proc.o)
 .text.lm_rd_loc_ext_feats_cmd_handler
                0x0000000010035372       0x56 ..\..\platform\libs\libbtstack.a(lm_proc.o)
 .text.lm_rd_loc_supp_feats_cmd_handler
                0x00000000100353c8       0x3e ..\..\platform\libs\libbtstack.a(lm_proc.o)
 .text.lm_wr_class_of_dev_cmd_handler
                0x0000000010035406       0x30 ..\..\platform\libs\libbtstack.a(lm_proc.o)
 .text.lm_wr_page_to_cmd_handler
                0x0000000010035436       0x2c ..\..\platform\libs\libbtstack.a(lm_proc.o)
 .text.lm_wr_pin_type_cmd_handler
                0x0000000010035462       0x28 ..\..\platform\libs\libbtstack.a(lm_proc.o)
 .text.lm_wr_scan_en_cmd_handler
                0x000000001003548a       0xe8 ..\..\platform\libs\libbtstack.a(lm_proc.o)
 .text.lm_create_cnx_cmd_handler
                0x0000000010035572       0x7c ..\..\platform\libs\libbtstack.a(lm_proc.o)
 .text.lm_host_buff_size_cmd_handler
                0x00000000100355ee       0x46 ..\..\platform\libs\libbtstack.a(lm_proc.o)
 .text.lm_set_evt_msk_cmd_handler
                0x0000000010035634       0x1e ..\..\platform\libs\libbtstack.a(lm_proc.o)
 .text.lm_rd_local_supp_cmds_cmd_handler
                0x0000000010035652       0x40 ..\..\platform\libs\libbtstack.a(lm_proc.o)
 .text.lm_rd_bd_addr_cmd_handler
                0x0000000010035692       0x3e ..\..\platform\libs\libbtstack.a(lm_proc.o)
 .text.lm_inq_end_ind_handler
                0x00000000100356d0       0x48 ..\..\platform\libs\libbtstack.a(lm_proc.o)
 .text.lm_page_scan_end_stop_handler
                0x0000000010035718       0x2c ..\..\platform\libs\libbtstack.a(lm_proc.o)
 .text.lm_inq_stop_cfm_handler
                0x0000000010035744       0x48 ..\..\platform\libs\libbtstack.a(lm_proc.o)
 .text.lm_inq_per_exit_cmd_handler
                0x000000001003578c       0x98 ..\..\platform\libs\libbtstack.a(lm_proc.o)
 .text.lm_inq_can_cmd_handler
                0x0000000010035824       0x4a ..\..\platform\libs\libbtstack.a(lm_proc.o)
 .text.lm_inq_rslt_ind_handler
                0x000000001003586e       0xf4 ..\..\platform\libs\libbtstack.a(lm_proc.o)
 .text.lm_page_can_cfm_handler
                0x0000000010035962       0xa0 ..\..\platform\libs\libbtstack.a(lm_proc.o)
 .text.lm_inq_rslt_ext_ind_handler
                0x0000000010035a02      0x186 ..\..\platform\libs\libbtstack.a(lm_proc.o)
 .text.lm_page_cfm_handler
                0x0000000010035b88       0x8a ..\..\platform\libs\libbtstack.a(lm_proc.o)
 .text.lm_page_fail_ind_handler
                0x0000000010035c12       0xbc ..\..\platform\libs\libbtstack.a(lm_proc.o)
 .text.lm_inq_scan_to_handler
                0x0000000010035cce       0x5a ..\..\platform\libs\libbtstack.a(lm_proc.o)
 .text.lm_inq_to_handler
                0x0000000010035d28       0x8c ..\..\platform\libs\libbtstack.a(lm_proc.o)
 .text.lm_page_scan_to_handler
                0x0000000010035db4       0x60 ..\..\platform\libs\libbtstack.a(lm_proc.o)
 .text.lm_switch_role_cmd_handler
                0x0000000010035e14       0x5a ..\..\platform\libs\libbtstack.a(lm_proc.o)
 .text.lm_reject_con_sync_cmd_handler
                0x0000000010035e6e       0x3a ..\..\platform\libs\libbtstack.a(lm_proc.o)
 .text.lm_reject_con_cmd_handler
                0x0000000010035ea8       0x3a ..\..\platform\libs\libbtstack.a(lm_proc.o)
 .text.lm_accept_con_sync_cmd_handler
                0x0000000010035ee2       0x3a ..\..\platform\libs\libbtstack.a(lm_proc.o)
 .text.lm_accept_con_cmd_handler
                0x0000000010035f1c       0x3a ..\..\platform\libs\libbtstack.a(lm_proc.o)
 .text.lm_remote_name_cmd_handler
                0x0000000010035f56      0x102 ..\..\platform\libs\libbtstack.a(lm_proc.o)
 .text.lm_host_nb_comp_pkts_cmd_handler
                0x0000000010036058       0x36 ..\..\platform\libs\libbtstack.a(lm_proc.o)
 .text.lm_lmp_rx_ind_handler
                0x000000001003608e       0x34 ..\..\platform\libs\libbtstack.a(lm_proc.o)
 .text.lm_inq_end_stop_handler
                0x00000000100360c2       0x2c ..\..\platform\libs\libbtstack.a(lm_proc.o)
 .text.lm_convert_flag_to_type
                0x00000000100360ee       0x56 ..\..\platform\libs\libbtstack.a(lm_sco.o)
 .text.lm_sync_get_best_win_cont
                0x0000000010036144       0x96 ..\..\platform\libs\libbtstack.a(lm_sco.o)
 .text.lm_get_sync_frame_size
                0x00000000100361da       0x90 ..\..\platform\libs\libbtstack.a(lm_sco.o)
 .text.lm_compute_nb_bytes
                0x000000001003626a       0x24 ..\..\platform\libs\libbtstack.a(lm_sco.o)
 .text.lm_check_packet_len
                0x000000001003628e       0x26 ..\..\platform\libs\libbtstack.a(lm_sco.o)
 .text.lm_check_esco_bandwidth
                0x00000000100362b4       0xd8 ..\..\platform\libs\libbtstack.a(lm_sco.o)
 .text.lm_get_total_pkt_type
                0x000000001003638c       0x48 ..\..\platform\libs\libbtstack.a(lm_sco.o)
 .text.lm_sync_get_best_win
                0x00000000100363d4       0x56 ..\..\platform\libs\libbtstack.a(lm_sco.o)
 .text.lm_get_common_pkt_types.isra.1
                0x000000001003642a       0x7a ..\..\platform\libs\libbtstack.a(lm_sco.o)
 .text.lm_get_allowed_intv_bitmask.part.2
                0x00000000100364a4       0x8a ..\..\platform\libs\libbtstack.a(lm_sco.o)
 .text.lm_sync_check_intv_allowed
                0x000000001003652e       0x86 ..\..\platform\libs\libbtstack.a(lm_sco.o)
 .text.lm_extract_tesco_bitmask.isra.4
                0x00000000100365b4       0xa8 ..\..\platform\libs\libbtstack.a(lm_sco.o)
 .text.lm_sync_check_pktAllowed
                0x000000001003665c       0xb4 ..\..\platform\libs\libbtstack.a(lm_sco.o)
 .text.lm_get_sync_offset.isra.12
                0x0000000010036710      0x102 ..\..\platform\libs\libbtstack.a(lm_sco.o)
 .text.lm_get_esco_params
                0x0000000010036812      0x43e ..\..\platform\libs\libbtstack.a(lm_sco.o)
 .text.lm_sync_check_params.isra.8
                0x0000000010036c50      0x114 ..\..\platform\libs\libbtstack.a(lm_sco.o)
 .text.lm_get_sync_param
                0x0000000010036d64      0xacc ..\..\platform\libs\libbtstack.a(lm_sco.o)
                0x0000000010036d64                lm_get_sync_param
 .text.lm_init_sync
                0x0000000010037830       0x4c ..\..\platform\libs\libbtstack.a(lm_sco.o)
                0x0000000010037830                lm_init_sync
 .text.lm_check_active_sync
                0x000000001003787c        0xc ..\..\platform\libs\libbtstack.a(lm_sco.o)
                0x000000001003787c                lm_check_active_sync
 .text.lm_add_sync
                0x0000000010037888      0x40a ..\..\platform\libs\libbtstack.a(lm_sco.o)
                0x0000000010037888                lm_add_sync
 .text.lm_check_sync_hl_rsp
                0x0000000010037c92      0x14c ..\..\platform\libs\libbtstack.a(lm_sco.o)
                0x0000000010037c92                lm_check_sync_hl_rsp
 .text.lm_look_for_sync
                0x0000000010037dde       0x6a ..\..\platform\libs\libbtstack.a(lm_sco.o)
                0x0000000010037dde                lm_look_for_sync
 .text.lm_remove_sync
                0x0000000010037e48       0x80 ..\..\platform\libs\libbtstack.a(lm_sco.o)
                0x0000000010037e48                lm_remove_sync
 .text.lm_get_sync_type
                0x0000000010037ec8       0x30 ..\..\platform\libs\libbtstack.a(lm_sco.o)
                0x0000000010037ec8                lm_get_sync_type
 .text.lm_check_sync_bandwidth
                0x0000000010037ef8       0x72 ..\..\platform\libs\libbtstack.a(lm_sco.o)
                0x0000000010037ef8                lm_check_sync_bandwidth
 .text.lm_sleep_init
                0x0000000010037f6a       0x1c ..\..\platform\libs\libbtstack.a(lm_sleep.o)
                0x0000000010037f6a                lm_sleep_init
 .text.unlikely.lm_get_sniff_timing
                0x0000000010037f86      0x1de ..\..\platform\libs\libbtstack.a(lm_sniff.o)
 .text.lm_init_sniff
                0x0000000010038164        0x2 ..\..\platform\libs\libbtstack.a(lm_sniff.o)
                0x0000000010038164                lm_init_sniff
 .text.lm_add_sniff
                0x0000000010038166      0x1c2 ..\..\platform\libs\libbtstack.a(lm_sniff.o)
                0x0000000010038166                lm_add_sniff
 .text.lm_remove_sniff
                0x0000000010038328       0x50 ..\..\platform\libs\libbtstack.a(lm_sniff.o)
                0x0000000010038328                lm_remove_sniff
 .text.lm_get_link_timeout
                0x0000000010038378       0x2c ..\..\platform\libs\libbtstack.a(lm_sniff.o)
                0x0000000010038378                lm_get_link_timeout
 .text.lm_convert_u32_to_u8
                0x00000000100383a4       0x68 ..\..\platform\libs\libbtstack.a(lm_sp.o)
 .text.lm_convert_u8_to_arr.isra.0
                0x000000001003840c       0x30 ..\..\platform\libs\libbtstack.a(lm_sp.o)
 .text.lm_get_pub_key
                0x000000001003843c       0x22 ..\..\platform\libs\libbtstack.a(lm_sp.o)
 .text.lm_sp_get_pairing_mode
                0x000000001003845e        0x8 ..\..\platform\libs\libbtstack.a(lm_sp.o)
                0x000000001003845e                lm_sp_get_pairing_mode
 .text.lm_sp_set_pairing_mode
                0x0000000010038466       0x12 ..\..\platform\libs\libbtstack.a(lm_sp.o)
                0x0000000010038466                lm_sp_set_pairing_mode
 .text.lm_get_encap_pdu_data
                0x0000000010038478       0x66 ..\..\platform\libs\libbtstack.a(lm_sp.o)
                0x0000000010038478                lm_get_encap_pdu_data
 .text.lm_set_encap_pdu_data
                0x00000000100384de      0x122 ..\..\platform\libs\libbtstack.a(lm_sp.o)
                0x00000000100384de                lm_set_encap_pdu_data
 .text.lm_check_encap_pdu_hdr
                0x0000000010038600       0x14 ..\..\platform\libs\libbtstack.a(lm_sp.o)
                0x0000000010038600                lm_check_encap_pdu_hdr
 .text.lm_get_auth_method
                0x0000000010038614       0x5e ..\..\platform\libs\libbtstack.a(lm_sp.o)
                0x0000000010038614                lm_get_auth_method
 .text.lm_is_debug_key
                0x0000000010038672       0x1e ..\..\platform\libs\libbtstack.a(lm_sp.o)
                0x0000000010038672                lm_is_debug_key
 .text.lm_get_nonce
                0x0000000010038690       0x72 ..\..\platform\libs\libbtstack.a(lm_sp.o)
                0x0000000010038690                lm_get_nonce
 .text.lm_compare_commit
                0x0000000010038702       0x18 ..\..\platform\libs\libbtstack.a(lm_sp.o)
                0x0000000010038702                lm_compare_commit
 .text.lm_dhkey_check_compare
                0x000000001003871a       0x18 ..\..\platform\libs\libbtstack.a(lm_sp.o)
                0x000000001003871a                lm_dhkey_check_compare
 .text.lm_passkey_req
                0x0000000010038732       0x36 ..\..\platform\libs\libbtstack.a(lm_sp.o)
                0x0000000010038732                lm_passkey_req
 .text.lm_get_passkey_bit
                0x0000000010038768       0x12 ..\..\platform\libs\libbtstack.a(lm_sp.o)
                0x0000000010038768                lm_get_passkey_bit
 .text.lm_passkey_generate
                0x000000001003877a       0x20 ..\..\platform\libs\libbtstack.a(lm_sp.o)
                0x000000001003877a                lm_passkey_generate
 .text.lm_sp_32bits_to_array
                0x000000001003879a       0x3e ..\..\platform\libs\libbtstack.a(lm_sp.o)
                0x000000001003879a                lm_sp_32bits_to_array
 .text.lm_get_oob_local_commit
                0x00000000100387d8       0x2e ..\..\platform\libs\libbtstack.a(lm_sp.o)
                0x00000000100387d8                lm_get_oob_local_commit
 .text.lm_f1    0x0000000010038806      0x1ae ..\..\platform\libs\libbtstack.a(lm_sp.o)
                0x0000000010038806                lm_f1
 .text.lm_oob_f1
                0x00000000100389b4      0x1b6 ..\..\platform\libs\libbtstack.a(lm_sp.o)
                0x00000000100389b4                lm_oob_f1
 .text.lm_init_sp
                0x0000000010038b6a       0x72 ..\..\platform\libs\libbtstack.a(lm_sp.o)
                0x0000000010038b6a                lm_init_sp
 .text.lm_sp_set_debug_pairing_mode
                0x0000000010038bdc       0x34 ..\..\platform\libs\libbtstack.a(lm_sp.o)
                0x0000000010038bdc                lm_sp_set_debug_pairing_mode
 .text.lm_g     0x0000000010038c10       0xf0 ..\..\platform\libs\libbtstack.a(lm_sp.o)
                0x0000000010038c10                lm_g
 .text.lm_f3    0x0000000010038d00      0x212 ..\..\platform\libs\libbtstack.a(lm_sp.o)
                0x0000000010038d00                lm_f3
 .text.lm_f2    0x0000000010038f12      0x1e4 ..\..\platform\libs\libbtstack.a(lm_sp.o)
                0x0000000010038f12                lm_f2
 .text.lm_dhkey_calc_init
                0x00000000100390f6       0xb6 ..\..\platform\libs\libbtstack.a(lm_sp.o)
                0x00000000100390f6                lm_dhkey_calc_init
 .text.lm_dhkey_compare
                0x00000000100391ac      0x12a ..\..\platform\libs\libbtstack.a(lm_sp.o)
                0x00000000100391ac                lm_dhkey_compare
 .text.lm_sp_dhkey_get_buffer_idx
                0x00000000100392d6       0x1e ..\..\platform\libs\libbtstack.a(lm_sp.o)
                0x00000000100392d6                lm_sp_dhkey_get_buffer_idx
 .text.lm_sp_dhkey_free_buffer
                0x00000000100392f4        0xa ..\..\platform\libs\libbtstack.a(lm_sp.o)
                0x00000000100392f4                lm_sp_dhkey_free_buffer
 .text.lm_util_get_offset_clkn
                0x00000000100392fe       0x14 ..\..\platform\libs\libbtstack.a(lm_util.o)
                0x00000000100392fe                lm_util_get_offset_clkn
 .text.lm_util_get_offset_clke
                0x0000000010039312       0x10 ..\..\platform\libs\libbtstack.a(lm_util.o)
                0x0000000010039312                lm_util_get_offset_clke
 .text.lm_util_update_event
                0x0000000010039322       0x2c ..\..\platform\libs\libbtstack.a(lm_util.o)
                0x0000000010039322                lm_util_update_event
 .text.lm_util_add_event
                0x000000001003934e      0x28c ..\..\platform\libs\libbtstack.a(lm_util.o)
                0x000000001003934e                lm_util_add_event
 .text.lm_util_delete_event
                0x00000000100395da       0x52 ..\..\platform\libs\libbtstack.a(lm_util.o)
                0x00000000100395da                lm_util_delete_event
 .text.lm_util_init_events
                0x000000001003962c       0x2c ..\..\platform\libs\libbtstack.a(lm_util.o)
                0x000000001003962c                lm_util_init_events
 .text.LM_ComputePacketType
                0x0000000010039658       0x20 ..\..\platform\libs\libbtstack.a(lm_util.o)
                0x0000000010039658                LM_ComputePacketType
 .text.LM_UpdateAclPacketType
                0x0000000010039678       0x70 ..\..\platform\libs\libbtstack.a(lm_util.o)
                0x0000000010039678                LM_UpdateAclPacketType
 .text.LM_UpdateAclEdrPacketType
                0x00000000100396e8       0xbc ..\..\platform\libs\libbtstack.a(lm_util.o)
                0x00000000100396e8                LM_UpdateAclEdrPacketType
 .text.LM_SuppressAclPacket
                0x00000000100397a4       0x4e ..\..\platform\libs\libbtstack.a(lm_util.o)
                0x00000000100397a4                LM_SuppressAclPacket
 .text.LM_GetInquiryPeriod
                0x00000000100397f2       0x28 ..\..\platform\libs\libbtstack.a(lm_util.o)
                0x00000000100397f2                LM_GetInquiryPeriod
 .text.LM_FormatEirResp
                0x000000001003981a       0x46 ..\..\platform\libs\libbtstack.a(lm_util.o)
                0x000000001003981a                LM_FormatEirResp
 .text.LM_SetPINType
                0x0000000010039860        0x8 ..\..\platform\libs\libbtstack.a(lm_util.o)
                0x0000000010039860                LM_SetPINType
 .text.LM_GetPINType
                0x0000000010039868        0x8 ..\..\platform\libs\libbtstack.a(lm_util.o)
                0x0000000010039868                LM_GetPINType
 .text.LM_GetConnectionAcceptTimeout
                0x0000000010039870        0x8 ..\..\platform\libs\libbtstack.a(lm_util.o)
                0x0000000010039870                LM_GetConnectionAcceptTimeout
 .text.LM_GetAuthenticationEnable
                0x0000000010039878        0x8 ..\..\platform\libs\libbtstack.a(lm_util.o)
                0x0000000010039878                LM_GetAuthenticationEnable
 .text.LM_GetLocalNameSeg
                0x0000000010039880       0x6a ..\..\platform\libs\libbtstack.a(lm_util.o)
                0x0000000010039880                LM_GetLocalNameSeg
 .text.LM_StoreRemoteNameSeg
                0x00000000100398ea       0x4c ..\..\platform\libs\libbtstack.a(lm_util.o)
                0x00000000100398ea                LM_StoreRemoteNameSeg
 .text.LM_MakeRandVec
                0x0000000010039936       0x30 ..\..\platform\libs\libbtstack.a(lm_util.o)
                0x0000000010039936                LM_MakeRandVec
 .text.LM_MaxSlot
                0x0000000010039966       0x5a ..\..\platform\libs\libbtstack.a(lm_util.o)
                0x0000000010039966                LM_MaxSlot
 .text.LM_CreateUnitKey
                0x00000000100399c0       0x34 ..\..\platform\libs\libbtstack.a(lm_util.o)
                0x00000000100399c0                LM_CreateUnitKey
 .text.LM_GetUnitKey
                0x00000000100399f4       0x10 ..\..\platform\libs\libbtstack.a(lm_util.o)
                0x00000000100399f4                LM_GetUnitKey
 .text.LM_GetMinEncKeySize
                0x0000000010039a04        0x8 ..\..\platform\libs\libbtstack.a(lm_util.o)
                0x0000000010039a04                LM_GetMinEncKeySize
 .text.LM_GetMaxEncKeySize
                0x0000000010039a0c        0x8 ..\..\platform\libs\libbtstack.a(lm_util.o)
                0x0000000010039a0c                LM_GetMaxEncKeySize
 .text.LM_GetEncryptionKeySizeMask
                0x0000000010039a14       0x2e ..\..\platform\libs\libbtstack.a(lm_util.o)
                0x0000000010039a14                LM_GetEncryptionKeySizeMask
 .text.LM_GetPreferredKey
                0x0000000010039a42        0x8 ..\..\platform\libs\libbtstack.a(lm_util.o)
                0x0000000010039a42                LM_GetPreferredKey
 .text.LM_GetSwitchInstant
                0x0000000010039a4a       0x4a ..\..\platform\libs\libbtstack.a(lm_util.o)
                0x0000000010039a4a                LM_GetSwitchInstant
 .text.LM_GetMasterKey
                0x0000000010039a94       0x10 ..\..\platform\libs\libbtstack.a(lm_util.o)
                0x0000000010039a94                LM_GetMasterKey
 .text.LM_GetMasterKeyRand
                0x0000000010039aa4       0x10 ..\..\platform\libs\libbtstack.a(lm_util.o)
                0x0000000010039aa4                LM_GetMasterKeyRand
 .text.LM_KeyToPin
                0x0000000010039ab4       0x1a ..\..\platform\libs\libbtstack.a(lm_util.o)
                0x0000000010039ab4                LM_KeyToPin
 .text.LM_GetMasterEncRand
                0x0000000010039ace       0x10 ..\..\platform\libs\libbtstack.a(lm_util.o)
                0x0000000010039ace                LM_GetMasterEncRand
 .text.LM_GetMasterEncKeySize
                0x0000000010039ade       0x12 ..\..\platform\libs\libbtstack.a(lm_util.o)
                0x0000000010039ade                LM_GetMasterEncKeySize
 .text.LM_MakeCof
                0x0000000010039af0       0x24 ..\..\platform\libs\libbtstack.a(lm_util.o)
                0x0000000010039af0                LM_MakeCof
 .text.lm_look_for_stored_link_key
                0x0000000010039b14        0x4 ..\..\platform\libs\libbtstack.a(lm_util.o)
                0x0000000010039b14                lm_look_for_stored_link_key
 .text.LM_ComputeAFHSwitchInstant
                0x0000000010039b18       0x14 ..\..\platform\libs\libbtstack.a(lm_util.o)
                0x0000000010039b18                LM_ComputeAFHSwitchInstant
 .text.LM_GetAFHSwitchInstant
                0x0000000010039b2c       0x5a ..\..\platform\libs\libbtstack.a(lm_util.o)
                0x0000000010039b2c                LM_GetAFHSwitchInstant
 .text.LM_GetFeature
                0x0000000010039b86       0x2a ..\..\platform\libs\libbtstack.a(lm_util.o)
                0x0000000010039b86                LM_GetFeature
 .text.LM_CheckSwitchInstant
                0x0000000010039bb0       0x42 ..\..\platform\libs\libbtstack.a(lm_util.o)
                0x0000000010039bb0                LM_CheckSwitchInstant
 .text.LM_GetDefaultPolicySettings
                0x0000000010039bf2        0x8 ..\..\platform\libs\libbtstack.a(lm_util.o)
                0x0000000010039bf2                LM_GetDefaultPolicySettings
 .text.LM_GetLocalSupportedCommands
                0x0000000010039bfa       0x2a ..\..\platform\libs\libbtstack.a(lm_util.o)
                0x0000000010039bfa                LM_GetLocalSupportedCommands
 .text.LM_CheckEdrFeatureRequest
                0x0000000010039c24       0x10 ..\..\platform\libs\libbtstack.a(lm_util.o)
                0x0000000010039c24                LM_CheckEdrFeatureRequest
 .text.LM_CheckTransactionID
                0x0000000010039c34       0x1a ..\..\platform\libs\libbtstack.a(lm_util.o)
                0x0000000010039c34                LM_CheckTransactionID
 .text.LM_CheckDisconnectParam
                0x0000000010039c4e       0x48 ..\..\platform\libs\libbtstack.a(lm_util.o)
                0x0000000010039c4e                LM_CheckDisconnectParam
 .text.buf.init
                0x0000000010039c96       0xf8 ..\..\platform\libs\libbtstack.a(bb_buf.o)
                0x0000000010039c96                bb_buf_init
 .text.bb_buf_rx_free
                0x0000000010039d8e       0x22 ..\..\platform\libs\libbtstack.a(bb_buf.o)
                0x0000000010039d8e                bb_buf_rx_free
 .text.bb_slot_to_ticks
                0x0000000010039db0       0x16 ..\..\platform\libs\libbtstack.a(bb_utils.o)
                0x0000000010039db0                bb_slot_to_ticks
 .text.bb_conhdl_init
                0x0000000010039dc6       0x10 ..\..\platform\libs\libbtstack.a(bb_utils.o)
                0x0000000010039dc6                bb_conhdl_init
 .text.bb_conhdl_get
                0x0000000010039dd6       0x6e ..\..\platform\libs\libbtstack.a(bb_utils.o)
                0x0000000010039dd6                bb_conhdl_get
 .text.bb_conhdl_acl_create
                0x0000000010039e44       0x3c ..\..\platform\libs\libbtstack.a(bb_utils.o)
                0x0000000010039e44                bb_conhdl_acl_create
 .text.bb_conhdl_acl_delete
                0x0000000010039e80       0x18 ..\..\platform\libs\libbtstack.a(bb_utils.o)
                0x0000000010039e80                bb_conhdl_acl_delete
 .text.bb_conhdl_bdaddr_to_tid
                0x0000000010039e98       0x24 ..\..\platform\libs\libbtstack.a(bb_utils.o)
                0x0000000010039e98                bb_conhdl_bdaddr_to_tid
 .text.bb_conhdl_index_to_conhdl
                0x0000000010039ebc       0x1c ..\..\platform\libs\libbtstack.a(bb_utils.o)
                0x0000000010039ebc                bb_conhdl_index_to_conhdl
 .text.bb_conhdl_active
                0x0000000010039ed8       0x26 ..\..\platform\libs\libbtstack.a(bb_utils.o)
                0x0000000010039ed8                bb_conhdl_active
 .text.bb_conhdl_database_empty
                0x0000000010039efe       0x14 ..\..\platform\libs\libbtstack.a(bb_utils.o)
                0x0000000010039efe                bb_conhdl_database_empty
 .text.bb_conhdl_type_get
                0x0000000010039f12       0x1a ..\..\platform\libs\libbtstack.a(bb_utils.o)
                0x0000000010039f12                bb_conhdl_type_get
 .text.bb_conhdl_to_tid
                0x0000000010039f2c       0x64 ..\..\platform\libs\libbtstack.a(bb_utils.o)
                0x0000000010039f2c                bb_conhdl_to_tid
 .text.bb_conhdl_to_lid
                0x0000000010039f90       0x3c ..\..\platform\libs\libbtstack.a(bb_utils.o)
                0x0000000010039f90                bb_conhdl_to_lid
 .text.complexSubtract
                0x0000000010039fcc        0xa ..\..\platform\libs\libbtstack.a(complex.o)
                0x0000000010039fcc                complexSubtract
 .text.complexMultiply
                0x0000000010039fd6       0x1c ..\..\platform\libs\libbtstack.a(complex.o)
                0x0000000010039fd6                complexMultiply
 .text.complexDivision
                0x0000000010039ff2       0x6c ..\..\platform\libs\libbtstack.a(complex.o)
                0x0000000010039ff2                complexDivision
 .text.nanos_msg_save
                0x000000001003a05e        0x4 ..\..\platform\libs\libbtstack.a(nanos.o)
                0x000000001003a05e                nanos_msg_save
 .text.nanos_hook_init
                0x000000001003a062       0x34 ..\..\platform\libs\libbtstack.a(nanos.o)
                0x000000001003a062                nanos_hook_init
 .text.hci_unkcmd_ccevt_send
                0x000000001003a096       0x4e ..\..\platform\libs\libbtstack.a(hcic.o)
 .text.hci_tx_start
                0x000000001003a0e4      0x17a ..\..\platform\libs\libbtstack.a(hcic.o)
 .text.hci_tx_done
                0x000000001003a25e       0x9e ..\..\platform\libs\libbtstack.a(hcic.o)
 .text.hci_host_buf_size_set
                0x000000001003a2fc       0x1a ..\..\platform\libs\libbtstack.a(hcic.o)
                0x000000001003a2fc                hci_host_buf_size_set
 .text.hci_pending_acl_reset
                0x000000001003a316       0x76 ..\..\platform\libs\libbtstack.a(hcic.o)
                0x000000001003a316                hci_pending_acl_reset
 .text.hci_get_cpk
                0x000000001003a38c       0x48 ..\..\platform\libs\libbtstack.a(hcic.o)
                0x000000001003a38c                hci_get_cpk
 .text.hci_cmd_alloc
                0x000000001003a3d4       0x3e ..\..\platform\libs\libbtstack.a(hcic.o)
                0x000000001003a3d4                hci_cmd_alloc
 .text.hci_cmd_dispatch_basic
                0x000000001003a412       0x34 ..\..\platform\libs\libbtstack.a(hcic.o)
                0x000000001003a412                hci_cmd_dispatch_basic
 .text.hci_cmd_dispatch
                0x000000001003a446       0x56 ..\..\platform\libs\libbtstack.a(hcic.o)
                0x000000001003a446                hci_cmd_dispatch
 .text.hcic_tx_done
                0x000000001003a49c        0xa ..\..\platform\libs\libbtstack.a(hcic.o)
                0x000000001003a49c                hcic_tx_done
 .text.hci_get_lc_taskid
                0x000000001003a4a6      0x166 ..\..\platform\libs\libbtstack.a(hcic.o)
                0x000000001003a4a6                hci_get_lc_taskid
 .text.hci_data_acl_alloc
                0x000000001003a60c       0xde ..\..\platform\libs\libbtstack.a(hcic.o)
                0x000000001003a60c                hci_data_acl_alloc
 .text.hci_data_acl_dispatch
                0x000000001003a6ea       0xc2 ..\..\platform\libs\libbtstack.a(hcic.o)
                0x000000001003a6ea                hci_data_acl_dispatch
 .text.hci_remove_remain_acl_cnt
                0x000000001003a7ac       0x24 ..\..\platform\libs\libbtstack.a(hcic.o)
                0x000000001003a7ac                hci_remove_remain_acl_cnt
 .text.hci_evt_mask_set
                0x000000001003a7d0       0x4e ..\..\platform\libs\libbtstack.a(hcic.o)
                0x000000001003a7d0                hci_evt_mask_set
 .text.hcic_reset
                0x000000001003a81e       0x3e ..\..\platform\libs\libbtstack.a(hcic.o)
                0x000000001003a81e                hcic_reset
 .text.hcic_init
                0x000000001003a85c       0x7e ..\..\platform\libs\libbtstack.a(hcic.o)
                0x000000001003a85c                hcic_init
 .text.hci_tx_trigger
                0x000000001003a8da       0x12 ..\..\platform\libs\libbtstack.a(hcic.o)
                0x000000001003a8da                hci_tx_trigger
 .text.hci_host_ack_pkt
                0x000000001003a8ec       0xcc ..\..\platform\libs\libbtstack.a(hcic.o)
                0x000000001003a8ec                hci_host_ack_pkt
 .text.hcic_send_command
                0x000000001003a9b8       0x9e ..\..\platform\libs\libbtstack.a(hcic.o)
                0x000000001003a9b8                hcic_send_command
 .text.hcic_acl_segment
                0x000000001003aa56       0xb6 ..\..\platform\libs\libbtstack.a(hcic.o)
                0x000000001003aa56                hcic_acl_segment
 .text.hci_cmd_aligned_unpk
                0x000000001003ab0c        0xa ..\..\platform\libs\libbtstack.a(hcic_msg.o)
                0x000000001003ab0c                hci_cmd_aligned_unpk
 .text.hci_lc_basic_cmd_unpk
                0x000000001003ab16       0x42 ..\..\platform\libs\libbtstack.a(hcic_msg.o)
                0x000000001003ab16                hci_lc_basic_cmd_unpk
 .text.hci_ccevt_hdr_pk
                0x000000001003ab58       0x62 ..\..\platform\libs\libbtstack.a(hcic_msg.o)
                0x000000001003ab58                hci_ccevt_hdr_pk
 .text.hci_csevt_pk
                0x000000001003abba       0x56 ..\..\platform\libs\libbtstack.a(hcic_msg.o)
                0x000000001003abba                hci_csevt_pk
 .text.hci_sp_ccevt_hdr_pk
                0x000000001003ac10       0x1c ..\..\platform\libs\libbtstack.a(hcic_msg.o)
                0x000000001003ac10                hci_sp_ccevt_hdr_pk
 .text.hci_polling_to_handler
                0x000000001003ac2c       0x16 ..\..\platform\libs\libbtstack.a(hcic_proc.o)
 .text.hci_get_epk
                0x000000001003ac42       0x84 ..\..\platform\libs\libbtstack.a(hcic_proc.o)
                0x000000001003ac42                hci_get_epk
 .text.hci_msg_send_handler
                0x000000001003acc6       0xd4 ..\..\platform\libs\libbtstack.a(hcic_proc.o)
 .text.vs_init  0x000000001003ad9a       0x46 ..\..\platform\libs\libbtstack.a(vs.o)
                0x000000001003ad9a                vs_init
 .text.vs_test_to_handler
                0x000000001003ade0        0x4 ..\..\platform\libs\libbtstack.a(vs_proc.o)
 .text.vs_hw_reg_rd_req_handler
                0x000000001003ade4       0x84 ..\..\platform\libs\libbtstack.a(vs_proc.o)
 .text.vs_hw_reg_wr_req_handler
                0x000000001003ae68       0xa2 ..\..\platform\libs\libbtstack.a(vs_proc.o)
 .text.vs_set_bd_addr_req_handler
                0x000000001003af0a       0x3c ..\..\platform\libs\libbtstack.a(vs_proc.o)
 .text.vs_test_ctrl_req_handler
                0x000000001003af46      0x284 ..\..\platform\libs\libbtstack.a(vs_proc.o)
 .text.vs_send_lmp_req_handler
                0x000000001003b1ca       0x4c ..\..\platform\libs\libbtstack.a(vs_proc.o)
 .text.vs_enter_tst_mode_req_handler
                0x000000001003b216       0x44 ..\..\platform\libs\libbtstack.a(vs_proc.o)
 .text.vs_rf_reg_wr_req_handler
                0x000000001003b25a       0x7e ..\..\platform\libs\libbtstack.a(vs_proc.o)
 .text.vs_rf_reg_rd_req_handler
                0x000000001003b2d8       0x7c ..\..\platform\libs\libbtstack.a(vs_proc.o)
 .text.vs_wr_mem_req_handler
                0x000000001003b354       0x7c ..\..\platform\libs\libbtstack.a(vs_proc.o)
 .text.vs_rd_mem_req_handler
                0x000000001003b3d0       0x9a ..\..\platform\libs\libbtstack.a(vs_proc.o)
 .text.dummy_func
                0x000000001003b46a        0x2 ..\..\platform\libs\libbtstack.a(btstack_api.o)
 .text.btstack_disconnect_for_handle
                0x000000001003b46c       0xaa ..\..\platform\libs\libbtstack.a(btstack_api.o)
 *fill*         0x000000001003b516       0xea 
 .text.stack.api
                0x000000001003b600      0xe94 ..\..\platform\libs\libbtstack.a(btstack_api.o)
                0x000000001003b600                btstack_disconnect
                0x000000001003b758                btstack_call_private_swich
                0x000000001003b7d4                btstack_scan_enable
                0x000000001003b858                btstack_scan_disable
                0x000000001003b898                btstack_tws_scan_enable
                0x000000001003b8d6                btstack_tws_scan_disable
                0x000000001003b914                btstack_hid_connect
                0x000000001003b99c                btstack_nor_disconnect
                0x000000001003b9d4                btstack_hid_disconnect
                0x000000001003ba7a                btstack_call_redial
                0x000000001003bac8                btstack_call_answer_incom
                0x000000001003baf0                btstack_call_terminate
                0x000000001003bb96                btstack_call_swap
                0x000000001003bc02                btstack_report_bat_state
                0x000000001003bc2a                btstack_set_hfp_mic_gain
                0x000000001003bc4a                btstack_switch_siri
                0x000000001003bc7c                bt_init
                0x000000001003bcba                btstack_off
                0x000000001003bcd2                btstack_connect_for_bd_addr
                0x000000001003bd86                btstack_connect
                0x000000001003be20                btstack_play_pause
                0x000000001003be4c                btstack_tws_disconnect_do
                0x000000001003be80                btstack_tws_disconnect
                0x000000001003be84                bt_hid_is_ready_to_discon
                0x000000001003bf00                bt_get_status_do
                0x000000001003c02c                btstack_set_l2cap_status
                0x000000001003c166                bt_get_call_indicate
                0x000000001003c21a                btstack_player_ctrl
                0x000000001003c24a                bt_is_playing
                0x000000001003c264                bt_is_ios_device
                0x000000001003c280                bt_is_ring
                0x000000001003c2c4                bt_is_connected
                0x000000001003c2de                bt_nor_is_connected
                0x000000001003c2fe                bt_tws_is_connected
                0x000000001003c31a                btstack_volume_change_do
                0x000000001003c334                btstack_volume_change
                0x000000001003c382                btstack_set_hfp_spk_gain
                0x000000001003c3c8                btstack_get_bt_scan_en
 .text.btstack_tws_key
                0x000000001003c494       0x36 ..\..\platform\libs\libbtstack.a(btstack_api.o)
 .text.btstack_tws_slave_key
                0x000000001003c4ca       0x18 ..\..\platform\libs\libbtstack.a(btstack_api.o)
 .text.stack.handler
                0x000000001003c4e2       0x42 ..\..\platform\libs\libbtstack.a(btstack_api.o)
 .text.btstack_audio_bypass
                0x000000001003c524       0x62 ..\..\platform\libs\libbtstack.a(btstack_api.o)
                0x000000001003c524                btstack_audio_bypass
 .text.btstack_audio_enable
                0x000000001003c586       0x72 ..\..\platform\libs\libbtstack.a(btstack_api.o)
                0x000000001003c586                btstack_audio_enable
 .text.stack.sleep
                0x000000001003c5f8       0x2e ..\..\platform\libs\libbtstack.a(btstack_api.o)
                0x000000001003c5f8                bt_enter_sleep
                0x000000001003c608                bt_exit_sleep
 .text.btstack_establish_service_connection
                0x000000001003c626       0x66 ..\..\platform\libs\libbtstack.a(btstack_api.o)
                0x000000001003c626                btstack_establish_service_connection
 .text.btstack_continue_establish_service_connection
                0x000000001003c68c       0xa8 ..\..\platform\libs\libbtstack.a(btstack_api.o)
                0x000000001003c68c                btstack_continue_establish_service_connection
 .text.btstack_tws_connect
                0x000000001003c734       0x82 ..\..\platform\libs\libbtstack.a(btstack_api.o)
                0x000000001003c734                btstack_tws_connect
 .text.btstack_nor_connect
                0x000000001003c7b6       0x62 ..\..\platform\libs\libbtstack.a(btstack_api.o)
                0x000000001003c7b6                btstack_nor_connect
 .text.btstack_tws_disc_continue
                0x000000001003c818       0x70 ..\..\platform\libs\libbtstack.a(btstack_api.o)
                0x000000001003c818                btstack_tws_disc_continue
 .text.btstack_clr_dis_flag
                0x000000001003c888       0x20 ..\..\platform\libs\libbtstack.a(btstack_api.o)
                0x000000001003c888                btstack_clr_dis_flag
 .text.btstack_get_ext_feature
                0x000000001003c8a8       0x32 ..\..\platform\libs\libbtstack.a(btstack_api.o)
                0x000000001003c8a8                btstack_get_ext_feature
 .text.btstack_clr_l2cap_status
                0x000000001003c8da       0xb6 ..\..\platform\libs\libbtstack.a(btstack_api.o)
                0x000000001003c8da                btstack_clr_l2cap_status
 .text.btstack_set_hfp_status_ptr
                0x000000001003c990       0x30 ..\..\platform\libs\libbtstack.a(btstack_api.o)
                0x000000001003c990                btstack_set_hfp_status_ptr
 .text.btstack_clr_hfp_status_ptr
                0x000000001003c9c0       0x4a ..\..\platform\libs\libbtstack.a(btstack_api.o)
                0x000000001003c9c0                btstack_clr_hfp_status_ptr
 .text.stack.setup
                0x000000001003ca0a       0xe4 ..\..\platform\libs\libbtstack.a(btstack_api.o)
                0x000000001003ca0a                btstack_setup
 .text.btstack_tws_search_slave
                0x000000001003caee       0x26 ..\..\platform\libs\libbtstack.a(btstack_api.o)
                0x000000001003caee                btstack_tws_search_slave
 .text.btstack_wait_wakeup
                0x000000001003cb14       0x74 ..\..\platform\libs\libbtstack.a(btstack_api.o)
                0x000000001003cb14                btstack_wait_wakeup
 .text.btstack_sco_setup
                0x000000001003cb88       0xd2 ..\..\platform\libs\libbtstack.a(btstack_api.o)
                0x000000001003cb88                btstack_sco_setup
 .text.btstack_sco_kill
                0x000000001003cc5a       0xb8 ..\..\platform\libs\libbtstack.a(btstack_api.o)
                0x000000001003cc5a                btstack_sco_kill
 .text.btstack_audio_is_busy
                0x000000001003cd12       0x14 ..\..\platform\libs\libbtstack.a(btstack_api.o)
                0x000000001003cd12                btstack_audio_is_busy
 .text.btstack_audio_set_busy
                0x000000001003cd26        0xe ..\..\platform\libs\libbtstack.a(btstack_api.o)
                0x000000001003cd26                btstack_audio_set_busy
 .text.btstack_plc_is_on
                0x000000001003cd34        0xe ..\..\platform\libs\libbtstack.a(btstack_api.o)
                0x000000001003cd34                btstack_plc_is_on
 .text.btstack_set_lmp_test
                0x000000001003cd42       0x14 ..\..\platform\libs\libbtstack.a(btstack_api.o)
                0x000000001003cd42                btstack_set_lmp_test
 .text.btstack_tws_hfp_vol
                0x000000001003cd56       0x1c ..\..\platform\libs\libbtstack.a(btstack_api.o)
                0x000000001003cd56                btstack_tws_hfp_vol
 .text.tws_remote_is_busy
                0x000000001003cd72       0x26 ..\..\platform\libs\libbtstack.a(btstack_api.o)
                0x000000001003cd72                tws_remote_is_busy
 .text.tws_remote_set_key
                0x000000001003cd98       0xf8 ..\..\platform\libs\libbtstack.a(btstack_api.o)
                0x000000001003cd98                tws_remote_set_key
 .text.tws_remote_set_status
                0x000000001003ce90      0x104 ..\..\platform\libs\libbtstack.a(btstack_api.o)
                0x000000001003ce90                tws_remote_set_status
 .text.tws_remote_set_profile_status
                0x000000001003cf94       0x2a ..\..\platform\libs\libbtstack.a(btstack_api.o)
                0x000000001003cf94                tws_remote_set_profile_status
 .text.btstack_get_conn_feature
                0x000000001003cfbe       0xa4 ..\..\platform\libs\libbtstack.a(btstack_api.o)
                0x000000001003cfbe                btstack_get_conn_feature
 .text.btstack_set_conn_feature
                0x000000001003d062       0x20 ..\..\platform\libs\libbtstack.a(btstack_api.o)
                0x000000001003d062                btstack_set_conn_feature
 .text.btstack_get_guid
                0x000000001003d082       0x5e ..\..\platform\libs\libbtstack.a(btstack_api.o)
                0x000000001003d082                btstack_get_guid
 .text.btstack_cmp_guid
                0x000000001003d0e0       0x62 ..\..\platform\libs\libbtstack.a(btstack_api.o)
                0x000000001003d0e0                btstack_cmp_guid
 .text.btstack_get_tws_scan_en
                0x000000001003d142       0x28 ..\..\platform\libs\libbtstack.a(btstack_api.o)
                0x000000001003d142                btstack_get_tws_scan_en
 .text.btstack_get_tws_info
                0x000000001003d16a        0x6 ..\..\platform\libs\libbtstack.a(btstack_api.o)
                0x000000001003d16a                btstack_get_tws_info
 .text.btstack_set_tws_info
                0x000000001003d170        0xa ..\..\platform\libs\libbtstack.a(btstack_api.o)
                0x000000001003d170                btstack_set_tws_info
 .text.btstack_tws_is_need_discon
                0x000000001003d17a        0x4 ..\..\platform\libs\libbtstack.a(btstack_api.o)
                0x000000001003d17a                btstack_tws_is_need_discon
 .text.chipset_init
                0x000000001003d17e        0x2 ..\..\platform\libs\libbtstack.a(btstack_chipset_inner.o)
 .text.chipset_set_bd_addr_command
                0x000000001003d180       0x18 ..\..\platform\libs\libbtstack.a(btstack_chipset_inner.o)
 .text.btstack_chipset_inner_instance
                0x000000001003d198        0xa ..\..\platform\libs\libbtstack.a(btstack_chipset_inner.o)
                0x000000001003d198                btstack_chipset_inner_instance
 .text.btstack_ble_send
                0x000000001003d1a2        0x2 ..\..\platform\libs\libbtstack.a(btstack_gatt_server.o)
                0x000000001003d1a2                btstack_ble_send
 .text.dummy_handler
                0x000000001003d1a4        0x2 ..\..\platform\libs\libbtstack.a(btstack_hal.o)
 .text.hal_tick_init
                0x000000001003d1a6        0x2 ..\..\platform\libs\libbtstack.a(btstack_hal.o)
                0x000000001003d1a6                hal_tick_init
 .text.hal_tick_set_handler
                0x000000001003d1a8       0x1a ..\..\platform\libs\libbtstack.a(btstack_hal.o)
                0x000000001003d1a8                hal_tick_set_handler
 .text.stack.handler
                0x000000001003d1c2       0xe0 ..\..\platform\libs\libbtstack.a(btstack_main.o)
 .text.stack.setup
                0x000000001003d2a2      0x160 ..\..\platform\libs\libbtstack.a(btstack_main.o)
                0x000000001003d2a2                btstack_main
 .text.stack.hcic
                0x000000001003d402      0x12a ..\..\platform\libs\libbtstack.a(hci_transport_hcic.o)
                0x000000001003d404                hcic_register_packet_handler
                0x000000001003d40c                hcic_send_packet
                0x000000001003d476                hcic_close
                0x000000001003d4ee                hcic_open
 .text.hcic_recv_packet
                0x000000001003d52c       0x1a ..\..\platform\libs\libbtstack.a(hci_transport_hcic.o)
                0x000000001003d52c                hcic_recv_packet
 .text.hci_init_var
                0x000000001003d546       0x10 ..\..\platform\libs\libbtstack.a(hci_transport_hcic.o)
                0x000000001003d546                hci_init_var
 .text.bt_sniff_featuer_disable
                0x000000001003d556        0x4 ..\..\platform\libs\libbtstack.a(weak_symbol.o)
                0x000000001003d556                bt_sniff_featuer_disable
 .text.bt_force_super_fast_status
                0x000000001003d55a        0x4 ..\..\platform\libs\libbtstack.a(weak_symbol.o)
                0x000000001003d55a                bt_force_super_fast_status
 .text.bt_support_ios_fast_status
                0x000000001003d55e        0x4 ..\..\platform\libs\libbtstack.a(weak_symbol.o)
                0x000000001003d55e                bt_support_ios_fast_status
 .text.bt_hid_get_compatibility
                0x000000001003d562        0x4 ..\..\platform\libs\libbtstack.a(weak_symbol.o)
                0x000000001003d562                bt_hid_get_compatibility
 .text.bt_get_class_of_device
                0x000000001003d566       0x3a ..\..\platform\libs\libbtstack.a(weak_symbol.o)
                0x000000001003d566                bt_get_class_of_device
 .text.bt_get_pin_code
                0x000000001003d5a0        0xa ..\..\platform\libs\libbtstack.a(weak_symbol.o)
                0x000000001003d5a0                bt_get_pin_code
 .text.bt_reconn_paly
                0x000000001003d5aa        0x4 ..\..\platform\libs\libbtstack.a(weak_symbol.o)
                0x000000001003d5aa                bt_reconn_paly
 .text.bt_tws_slave_dis_scan
                0x000000001003d5ae        0x4 ..\..\platform\libs\libbtstack.a(weak_symbol.o)
                0x000000001003d5ae                bt_tws_slave_dis_scan
 .text.bt_tws_get_force_role
                0x000000001003d5b2        0x4 ..\..\platform\libs\libbtstack.a(weak_symbol.o)
                0x000000001003d5b2                bt_tws_get_force_role
 .text.bt_tws_is_chk_link
                0x000000001003d5b6        0x4 ..\..\platform\libs\libbtstack.a(weak_symbol.o)
                0x000000001003d5b6                bt_tws_is_chk_link
 .text.bt_tsco_is_en
                0x000000001003d5ba        0x4 ..\..\platform\libs\libbtstack.a(weak_symbol.o)
                0x000000001003d5ba                bt_tsco_is_en
 .text.stack.linkctrl
                0x000000001003d5be      0x22c ..\..\platform\libs\libbtstack.a(btstack_link_ctrl.o)
                0x000000001003d5be                get_link_ctrl_context_for_bd_addr
                0x000000001003d61c                remove_link_ctrl_context
                0x000000001003d692                remove_waiting_link_ctrl_context_for_bd_addr
                0x000000001003d702                provide_link_ctrl_context_for_bd_addr
 .text.btstack_link_ctrl_stop_timer
                0x000000001003d7ea       0x1e ..\..\platform\libs\libbtstack.a(btstack_link_ctrl.o)
                0x000000001003d7ea                btstack_link_ctrl_stop_timer
 .text.btstack_link_ctrl_set_timer
                0x000000001003d808       0x3a ..\..\platform\libs\libbtstack.a(btstack_link_ctrl.o)
                0x000000001003d808                btstack_link_ctrl_set_timer
 .text.link_ctrl_timer_handler
                0x000000001003d842       0x98 ..\..\platform\libs\libbtstack.a(btstack_link_ctrl.o)
                0x000000001003d842                link_ctrl_timer_handler
 .text.btstack_link_ctrl_get_num
                0x000000001003d8da       0x1e ..\..\platform\libs\libbtstack.a(btstack_link_ctrl.o)
                0x000000001003d8da                btstack_link_ctrl_get_num
 .text.btstack_link_ctrl_get_recon_sta
                0x000000001003d8f8       0x2e ..\..\platform\libs\libbtstack.a(btstack_link_ctrl.o)
                0x000000001003d8f8                btstack_link_ctrl_get_recon_sta
 .text.btstack_link_ctrl_get_links
                0x000000001003d926        0x8 ..\..\platform\libs\libbtstack.a(btstack_link_ctrl.o)
                0x000000001003d926                btstack_link_ctrl_get_links
 .text.stack.setup
                0x000000001003d92e       0x14 ..\..\platform\libs\libbtstack.a(btstack_link_ctrl.o)
                0x000000001003d92e                btstack_link_ctrl_init
 .text.stack.memory
                0x000000001003d942       0x6c ..\..\platform\libs\libbtstack.a(btstack_memory.o)
                0x000000001003d942                btstack_memory_l2cap_service_get
                0x000000001003d94a                btstack_memory_l2cap_service_free
                0x000000001003d954                btstack_memory_l2cap_channel_get
                0x000000001003d95c                btstack_memory_l2cap_channel_free
                0x000000001003d966                btstack_memory_rfcomm_multiplexer_get
                0x000000001003d96e                btstack_memory_rfcomm_multiplexer_free
                0x000000001003d978                btstack_memory_rfcomm_service_get
                0x000000001003d980                btstack_memory_rfcomm_service_free
                0x000000001003d98a                btstack_memory_rfcomm_channel_get
                0x000000001003d992                btstack_memory_rfcomm_channel_free
                0x000000001003d99c                btstack_memory_service_record_item_get
                0x000000001003d9a4                btstack_memory_service_record_item_free
 .text.stack.setup
                0x000000001003d9ae       0x78 ..\..\platform\libs\libbtstack.a(btstack_memory.o)
                0x000000001003d9ae                btstack_memory_init
 .text.stack.memory
                0x000000001003da26       0x58 ..\..\platform\libs\libbtstack.a(btstack_memory_pool.o)
                0x000000001003da26                btstack_memory_pool_get
                0x000000001003da32                btstack_memory_pool_free
                0x000000001003da46                btstack_memory_pool_create
 *fill*         0x000000001003da7e        0x2 
 .text.stack.run_loop
                0x000000001003da80      0x176 ..\..\platform\libs\libbtstack.a(btstack_run_loop.o)
                0x000000001003da80                btstack_run_loop_set_timer_handler
                0x000000001003da84                btstack_run_loop_set_data_source_handler
                0x000000001003da88                btstack_run_loop_set_data_source_fd
                0x000000001003da8c                btstack_run_loop_get_data_source_fd
                0x000000001003da90                btstack_run_loop_enable_data_source_callbacks
                0x000000001003da9c                btstack_run_loop_disable_data_source_callbacks
                0x000000001003daac                btstack_run_loop_add_data_source
                0x000000001003dab8                btstack_run_loop_remove_data_source
                0x000000001003dac4                btstack_run_loop_set_timer
                0x000000001003dada                btstack_run_loop_set_timer_context
                0x000000001003dade                btstack_run_loop_get_timer_context
                0x000000001003db00                btstack_run_loop_set_trig_ticks
                0x000000001003db40                btstack_run_loop_add_timer
                0x000000001003db6e                btstack_run_loop_remove_timer
                0x000000001003db9c                btstack_run_loop_get_ticks
                0x000000001003dba6                btstack_run_loop_ticks_for_ms
                0x000000001003dbaa                btstack_run_loop_get_time_ms
                0x000000001003dbb6                btstack_run_loop_timer_dump
 .text.stack.setup
                0x000000001003dbf6       0x32 ..\..\platform\libs\libbtstack.a(btstack_run_loop.o)
                0x000000001003dbf6                btstack_run_loop_init
 .text.btstack_tws_set_timer
                0x000000001003dc28       0x50 ..\..\platform\libs\libbtstack.a(btstack_tws.o)
 .text.btstack_tws_connect
                0x000000001003dc78       0xe8 ..\..\platform\libs\libbtstack.a(btstack_tws.o)
 .text.btstack_nor_connect
                0x000000001003dd60       0x64 ..\..\platform\libs\libbtstack.a(btstack_tws.o)
 .text.btstack_tws_stop_timer
                0x000000001003ddc4       0x26 ..\..\platform\libs\libbtstack.a(btstack_tws.o)
 .text.tws_start_inq
                0x000000001003ddea       0x6e ..\..\platform\libs\libbtstack.a(btstack_tws.o)
 .text.tws_start_pair
                0x000000001003de58      0x144 ..\..\platform\libs\libbtstack.a(btstack_tws.o)
 .text.btstack_tws_timer_handler
                0x000000001003df9c      0x11c ..\..\platform\libs\libbtstack.a(btstack_tws.o)
 .text.btstack_tws_continue_connect
                0x000000001003e0b8       0xd6 ..\..\platform\libs\libbtstack.a(btstack_tws.o)
 .text.stack.handler
                0x000000001003e18e      0x6ca ..\..\platform\libs\libbtstack.a(btstack_tws.o)
 .text.tws.init
                0x000000001003e858       0x5e ..\..\platform\libs\libbtstack.a(btstack_tws.o)
                0x000000001003e858                btstack_tws_init
 .text.stack.util
                0x000000001003e8b6      0x14a ..\..\platform\libs\libbtstack.a(btstack_util.o)
                0x000000001003e8b6                bd_addr_cmp
                0x000000001003e8c0                bd_addr_copy
                0x000000001003e8ca                big_endian_read_16
                0x000000001003e8da                big_endian_read_32
                0x000000001003e8fa                big_endian_store_16
                0x000000001003e914                big_endian_store_32
                0x000000001003e952                reverse_bytes
                0x000000001003e96e                reverse_24
                0x000000001003e972                reverse_56
                0x000000001003e976                reverse_64
                0x000000001003e97a                reverse_128
                0x000000001003e97e                reverse_256
                0x000000001003e984                reverse_bd_addr
                0x000000001003e988                reverse_48
                0x000000001003e98a                btstack_min
                0x000000001003e994                btstack_max
                0x000000001003e99e                char_for_nibble
                0x000000001003e9c4                nibble_for_char
 .text.uuid_add_bluetooth_prefix
                0x000000001003ea00       0x28 ..\..\platform\libs\libbtstack.a(btstack_util.o)
                0x000000001003ea00                uuid_add_bluetooth_prefix
 .text.uuid_has_bluetooth_prefix
                0x000000001003ea28       0x22 ..\..\platform\libs\libbtstack.a(btstack_util.o)
                0x000000001003ea28                uuid_has_bluetooth_prefix
 .text.stack.hci_dump
                0x000000001003ea4a       0x66 ..\..\platform\libs\libbtstack.a(btstack_util.o)
                0x000000001003ea4a                bd_addr_to_str
 .text.a2dp_get_connections
                0x000000001003eab0        0x8 ..\..\platform\libs\libbtstack.a(a2dp.o)
                0x000000001003eab0                a2dp_get_connections
 .text.a2dp_get_playing_connection
                0x000000001003eab8       0x24 ..\..\platform\libs\libbtstack.a(a2dp.o)
                0x000000001003eab8                a2dp_get_playing_connection
 .text.a2dp_get_connections_for_index
                0x000000001003eadc       0x30 ..\..\platform\libs\libbtstack.a(a2dp.o)
                0x000000001003eadc                a2dp_get_connections_for_index
 .text.get_avdtp_media_connection_context_for_l2cap_cid
                0x000000001003eb0c       0x36 ..\..\platform\libs\libbtstack.a(a2dp.o)
                0x000000001003eb0c                get_avdtp_media_connection_context_for_l2cap_cid
 .text.get_avdtp_signal_connection_context_for_l2cap_cid
                0x000000001003eb42       0x36 ..\..\platform\libs\libbtstack.a(a2dp.o)
                0x000000001003eb42                get_avdtp_signal_connection_context_for_l2cap_cid
 .text.get_avctp_connection_context_for_l2cap_cid
                0x000000001003eb78       0x34 ..\..\platform\libs\libbtstack.a(a2dp.o)
                0x000000001003eb78                get_avctp_connection_context_for_l2cap_cid
 .text.get_a2dp_connection_context_for_handle
                0x000000001003ebac       0x30 ..\..\platform\libs\libbtstack.a(a2dp.o)
                0x000000001003ebac                get_a2dp_connection_context_for_handle
 .text.get_a2dp_connection_context_for_bd_addr
                0x000000001003ebdc       0x5a ..\..\platform\libs\libbtstack.a(a2dp.o)
                0x000000001003ebdc                get_a2dp_connection_context_for_bd_addr
 .text.handle_query_a2dp_event
                0x000000001003ec36       0x52 ..\..\platform\libs\libbtstack.a(a2dp.o)
 .text.remove_a2dp_connection_context
                0x000000001003ec88       0x5c ..\..\platform\libs\libbtstack.a(a2dp.o)
                0x000000001003ec88                remove_a2dp_connection_context
 .text.provide_a2dp_connection_context_for_bd_addr
                0x000000001003ece4       0x8c ..\..\platform\libs\libbtstack.a(a2dp.o)
                0x000000001003ece4                provide_a2dp_connection_context_for_bd_addr
 .text.a2dp_establish_service_level_connection
                0x000000001003ed70       0x12 ..\..\platform\libs\libbtstack.a(a2dp.o)
                0x000000001003ed70                a2dp_establish_service_level_connection
 .text.a2dp_run_for_release
                0x000000001003ed82       0x58 ..\..\platform\libs\libbtstack.a(a2dp.o)
                0x000000001003ed82                a2dp_run_for_release
 .text.a2dp_release_service_level_connection
                0x000000001003edda       0x6a ..\..\platform\libs\libbtstack.a(a2dp.o)
                0x000000001003edda                a2dp_release_service_level_connection
 .text.a2dp_search_os_capacity
                0x000000001003ee44       0x3c ..\..\platform\libs\libbtstack.a(a2dp.o)
                0x000000001003ee44                a2dp_search_os_capacity
 .text.a2dp_is_avctp_ctrl
                0x000000001003ee80       0x36 ..\..\platform\libs\libbtstack.a(a2dp.o)
                0x000000001003ee80                a2dp_is_avctp_ctrl
 .text.a2dp_is_playing_do
                0x000000001003eeb6       0x50 ..\..\platform\libs\libbtstack.a(a2dp.o)
                0x000000001003eeb6                a2dp_is_playing_do
 .text.a2dp_is_playing
                0x000000001003ef06       0x1c ..\..\platform\libs\libbtstack.a(a2dp.o)
                0x000000001003ef06                a2dp_is_playing
 .text.a2dp_init
                0x000000001003ef22       0x62 ..\..\platform\libs\libbtstack.a(a2dp.o)
                0x000000001003ef22                a2dp_init
 .text.a2dp_init_var
                0x000000001003ef84       0x30 ..\..\platform\libs\libbtstack.a(a2dp.o)
                0x000000001003ef84                a2dp_init_var
 .text.sbc.play
                0x000000001003efb4       0x66 ..\..\platform\libs\libbtstack.a(a2dp_play.o)
                0x000000001003efb4                sbc_play_init
 .text.tws_trigger_init
                0x000000001003f01a        0x8 ..\..\platform\libs\libbtstack.a(a2dp_play.o)
                0x000000001003f01a                tws_trigger_init
 .text.tws_remote_set_volume
                0x000000001003f022       0x2a ..\..\platform\libs\libbtstack.a(a2dp_play.o)
                0x000000001003f022                tws_remote_set_volume
 .text.tws_remote_set_func_id
                0x000000001003f04c       0x40 ..\..\platform\libs\libbtstack.a(a2dp_play.o)
                0x000000001003f04c                tws_remote_set_func_id
 .text.tws_set_volume
                0x000000001003f08c       0x2e ..\..\platform\libs\libbtstack.a(a2dp_play.o)
                0x000000001003f08c                tws_set_volume
 .text.tws_set_func_id
                0x000000001003f0ba       0x2a ..\..\platform\libs\libbtstack.a(a2dp_play.o)
                0x000000001003f0ba                tws_set_func_id
 .text.tws_send_key
                0x000000001003f0e4       0x34 ..\..\platform\libs\libbtstack.a(a2dp_play.o)
                0x000000001003f0e4                tws_send_key
 .text.tws_report_status
                0x000000001003f118       0x2a ..\..\platform\libs\libbtstack.a(a2dp_play.o)
                0x000000001003f118                tws_report_status
 .text.tws_report_profile_status
                0x000000001003f142       0x52 ..\..\platform\libs\libbtstack.a(a2dp_play.o)
                0x000000001003f142                tws_report_profile_status
 .text.tws_set_spr
                0x000000001003f194       0xce ..\..\platform\libs\libbtstack.a(a2dp_play.o)
                0x000000001003f194                tws_set_spr
 .text.tws_set_speed_thres
                0x000000001003f262       0x46 ..\..\platform\libs\libbtstack.a(a2dp_play.o)
                0x000000001003f262                tws_set_speed_thres
 .text.tws_set_speed
                0x000000001003f2a8       0x98 ..\..\platform\libs\libbtstack.a(a2dp_play.o)
                0x000000001003f2a8                tws_set_speed
 .text.tws_play_adj
                0x000000001003f340       0x5e ..\..\platform\libs\libbtstack.a(a2dp_play.o)
                0x000000001003f340                tws_play_adj
 .text.tws_play_stop
                0x000000001003f39e       0x44 ..\..\platform\libs\libbtstack.a(a2dp_play.o)
                0x000000001003f39e                tws_play_stop
 .text.tws_play_suspend
                0x000000001003f3e2       0x50 ..\..\platform\libs\libbtstack.a(a2dp_play.o)
                0x000000001003f3e2                tws_play_suspend
 .text.tws_play_resume
                0x000000001003f432       0x70 ..\..\platform\libs\libbtstack.a(a2dp_play.o)
                0x000000001003f432                tws_play_resume
 .text.sbc_res_init
                0x000000001003f4a2        0x2 ..\..\platform\libs\libbtstack.a(a2dp_send.o)
                0x000000001003f4a2                sbc_res_init
 .text.sbc_set_tx_cid
                0x000000001003f4a4       0x24 ..\..\platform\libs\libbtstack.a(a2dp_send.o)
                0x000000001003f4a4                sbc_set_tx_cid
 .text.sbc_clr_tx_cid
                0x000000001003f4c8       0x1e ..\..\platform\libs\libbtstack.a(a2dp_send.o)
                0x000000001003f4c8                sbc_clr_tx_cid
 .text.sbc_tx_init
                0x000000001003f4e6       0x2c ..\..\platform\libs\libbtstack.a(a2dp_send.o)
                0x000000001003f4e6                sbc_tx_init
 .text.avctp_timer_play_handler
                0x000000001003f512       0x58 ..\..\platform\libs\libbtstack.a(avctp.o)
 .text.avctp_send_req
                0x000000001003f56a       0xb8 ..\..\platform\libs\libbtstack.a(avctp.o)
                0x000000001003f56a                avctp_send_req
 .text.avctp_send_rsp
                0x000000001003f622       0xc0 ..\..\platform\libs\libbtstack.a(avctp.o)
                0x000000001003f622                avctp_send_rsp
 .text.avctp_send_vendordep_req
                0x000000001003f6e2        0xa ..\..\platform\libs\libbtstack.a(avctp.o)
                0x000000001003f6e2                avctp_send_vendordep_req
 .text.avctp_send_vendordep_rsq
                0x000000001003f6ec        0xa ..\..\platform\libs\libbtstack.a(avctp.o)
                0x000000001003f6ec                avctp_send_vendordep_rsq
 .text.avctp_send_status_change
                0x000000001003f6f6       0x52 ..\..\platform\libs\libbtstack.a(avctp.o)
                0x000000001003f6f6                avctp_send_status_change
 .text.avctp_send_passthrough
                0x000000001003f748       0x22 ..\..\platform\libs\libbtstack.a(avctp.o)
                0x000000001003f748                avctp_send_passthrough
 .text.avrcp_get_capabilities
                0x000000001003f76a       0x3a ..\..\platform\libs\libbtstack.a(avctp.o)
                0x000000001003f76a                avrcp_get_capabilities
 .text.avrcp_notify_event
                0x000000001003f7a4       0x3c ..\..\platform\libs\libbtstack.a(avctp.o)
                0x000000001003f7a4                avrcp_notify_event
 .text.avrcp_parse_cmd
                0x000000001003f7e0      0x31e ..\..\platform\libs\libbtstack.a(avctp.o)
                0x000000001003f7e0                avrcp_parse_cmd
 .text.avrtp_get_capability_bit
                0x000000001003fafe       0x26 ..\..\platform\libs\libbtstack.a(avctp.o)
                0x000000001003fafe                avrtp_get_capability_bit
 .text.avrtp_get_capability_event
                0x000000001003fb24       0x26 ..\..\platform\libs\libbtstack.a(avctp.o)
                0x000000001003fb24                avrtp_get_capability_event
 .text.avrtp_get_capability_allbit
                0x000000001003fb4a        0x4 ..\..\platform\libs\libbtstack.a(avctp.o)
                0x000000001003fb4a                avrtp_get_capability_allbit
 .text.avctp_ready_to_send
                0x000000001003fb4e       0x44 ..\..\platform\libs\libbtstack.a(avctp.o)
                0x000000001003fb4e                avctp_ready_to_send
 .text.avctp_state_machine
                0x000000001003fb92      0x122 ..\..\platform\libs\libbtstack.a(avctp.o)
                0x000000001003fb92                avctp_state_machine
 .text.avctp_play_pause_for_conn
                0x000000001003fcb4       0x3c ..\..\platform\libs\libbtstack.a(avctp.o)
                0x000000001003fcb4                avctp_play_pause_for_conn
 .text.avctp_player_ctrl_for_conn
                0x000000001003fcf0       0x38 ..\..\platform\libs\libbtstack.a(avctp.o)
                0x000000001003fcf0                avctp_player_ctrl_for_conn
 .text.avctp_volume_change_for_conn
                0x000000001003fd28       0x30 ..\..\platform\libs\libbtstack.a(avctp.o)
                0x000000001003fd28                avctp_volume_change_for_conn
 .text.avctp_stop_timer
                0x000000001003fd58       0x20 ..\..\platform\libs\libbtstack.a(avctp.o)
                0x000000001003fd58                avctp_stop_timer
 .text.avctp_delay_create
                0x000000001003fd78       0x58 ..\..\platform\libs\libbtstack.a(avctp.o)
                0x000000001003fd78                avctp_delay_create
 .text.avctp_delay_play
                0x000000001003fdd0       0x4e ..\..\platform\libs\libbtstack.a(avctp.o)
                0x000000001003fdd0                avctp_delay_play
 .text.avrcp_parse_rsp
                0x000000001003fe1e      0x1f8 ..\..\platform\libs\libbtstack.a(avctp.o)
                0x000000001003fe1e                avrcp_parse_rsp
 .text.avctp_packet_handler
                0x0000000010040016      0x1fc ..\..\platform\libs\libbtstack.a(avctp.o)
                0x0000000010040016                avctp_packet_handler
 .text.avctp_channel_create
                0x0000000010040212       0x50 ..\..\platform\libs\libbtstack.a(avctp.o)
                0x0000000010040212                avctp_channel_create
 .text.avctp_timer_create_handler
                0x0000000010040262        0xc ..\..\platform\libs\libbtstack.a(avctp.o)
 .text.avdtp_tx_accept_rsp
                0x000000001004026e       0x1a ..\..\platform\libs\libbtstack.a(avdtp.o)
 .text.avdtp_tws_set_spr
                0x0000000010040288       0x6c ..\..\platform\libs\libbtstack.a(avdtp.o)
 .text.avdtp_init
                0x00000000100402f4       0x20 ..\..\platform\libs\libbtstack.a(avdtp.o)
                0x00000000100402f4                avdtp_init
 .text.avdtp_tx_reject_rsp
                0x0000000010040314       0x1e ..\..\platform\libs\libbtstack.a(avdtp.o)
                0x0000000010040314                avdtp_tx_reject_rsp
 .text.avdtp_tx_conf_reject_rsp
                0x0000000010040332       0x22 ..\..\platform\libs\libbtstack.a(avdtp.o)
                0x0000000010040332                avdtp_tx_conf_reject_rsp
 .text.avdtp_tx_cmd
                0x0000000010040354       0x40 ..\..\platform\libs\libbtstack.a(avdtp.o)
                0x0000000010040354                avdtp_tx_cmd
 .text.avdtp_tx_discover_cmd
                0x0000000010040394       0x34 ..\..\platform\libs\libbtstack.a(avdtp.o)
                0x0000000010040394                avdtp_tx_discover_cmd
 .text.avdtp_tx_setconf_cmd
                0x00000000100403c8       0x82 ..\..\platform\libs\libbtstack.a(avdtp.o)
                0x00000000100403c8                avdtp_tx_setconf_cmd
 .text.avdtp_set_media_codec
                0x000000001004044a      0x150 ..\..\platform\libs\libbtstack.a(avdtp.o)
                0x000000001004044a                avdtp_set_media_codec
 .text.avdtp_get_capabilities_rsp
                0x000000001004059a       0xb2 ..\..\platform\libs\libbtstack.a(avdtp.o)
 .text.avdtp_signal_ready_to_send
                0x000000001004064c       0x2e ..\..\platform\libs\libbtstack.a(avdtp.o)
                0x000000001004064c                avdtp_signal_ready_to_send
 .text.avdtp_signal_state_machine
                0x000000001004067a       0xae ..\..\platform\libs\libbtstack.a(avdtp.o)
                0x000000001004067a                avdtp_signal_state_machine
 .text.avdtp_play_pause
                0x0000000010040728       0xba ..\..\platform\libs\libbtstack.a(avdtp.o)
                0x0000000010040728                avdtp_play_pause
 .text.avdtp_signal_channel_create
                0x00000000100407e2       0x76 ..\..\platform\libs\libbtstack.a(avdtp.o)
                0x00000000100407e2                avdtp_signal_channel_create
 .text.avdtp_media_channel_create
                0x0000000010040858       0x50 ..\..\platform\libs\libbtstack.a(avdtp.o)
                0x0000000010040858                avdtp_media_channel_create
 .text.sbc_rx_init
                0x00000000100408a8       0x14 ..\..\platform\libs\libbtstack.a(avdtp.o)
                0x00000000100408a8                sbc_rx_init
 .text.avdtp_end_of_play
                0x00000000100408bc       0xf0 ..\..\platform\libs\libbtstack.a(avdtp.o)
 .text.avdtp_packet_handler
                0x00000000100409ac      0x9da ..\..\platform\libs\libbtstack.a(avdtp.o)
                0x00000000100409ac                avdtp_packet_handler
 .text.avdtp_timer_handler
                0x0000000010041386       0x12 ..\..\platform\libs\libbtstack.a(avdtp.o)
 .text.stack.link_key
                0x0000000010041398      0x6d2 ..\..\platform\libs\libbtstack.a(btstack_link_key_db.o)
                0x00000000100414a6                btstack_get_link_addr
                0x000000001004157e                btstack_get_link_key
                0x000000001004162a                btstack_get_link_feature
                0x0000000010041660                btstack_delete_link_key
                0x0000000010041738                btstack_delete_all_link_key
                0x00000000100417c0                btstack_put_link_key
                0x0000000010041986                btstack_put_link_offset
                0x00000000100419e2                btstack_put_link_feature
 .text.stack.setup
                0x0000000010041a6a      0x1cc ..\..\platform\libs\libbtstack.a(btstack_link_key_db.o)
                0x0000000010041c02                btstack_open_link_info
 .text.remove_hfp_connection_context
                0x0000000010041c36       0x40 ..\..\platform\libs\libbtstack.a(hfp.o)
 .text.hfp_init
                0x0000000010041c76       0x18 ..\..\platform\libs\libbtstack.a(hfp.o)
                0x0000000010041c76                hfp_init
 .text.hfp_var_init
                0x0000000010041c8e       0x10 ..\..\platform\libs\libbtstack.a(hfp.o)
                0x0000000010041c8e                hfp_var_init
 .text.hfp_set_callback
                0x0000000010041c9e        0x8 ..\..\platform\libs\libbtstack.a(hfp.o)
                0x0000000010041c9e                hfp_set_callback
 .text.send_str_over_rfcomm
                0x0000000010041ca6       0x34 ..\..\platform\libs\libbtstack.a(hfp.o)
                0x0000000010041ca6                send_str_over_rfcomm
 .text.join     0x0000000010041cda       0x9a ..\..\platform\libs\libbtstack.a(hfp.o)
                0x0000000010041cda                join
 .text.join_bitmap
                0x0000000010041d74       0xaa ..\..\platform\libs\libbtstack.a(hfp.o)
                0x0000000010041d74                join_bitmap
 .text.hfp_emit_simple_event
                0x0000000010041e1e       0x28 ..\..\platform\libs\libbtstack.a(hfp.o)
                0x0000000010041e1e                hfp_emit_simple_event
 .text.hfp_emit_event
                0x0000000010041e46       0x2c ..\..\platform\libs\libbtstack.a(hfp.o)
                0x0000000010041e46                hfp_emit_event
 .text.hfp_emit_connection_event
                0x0000000010041e72       0x30 ..\..\platform\libs\libbtstack.a(hfp.o)
                0x0000000010041e72                hfp_emit_connection_event
 .text.hfp_get_connections
                0x0000000010041ea2        0x8 ..\..\platform\libs\libbtstack.a(hfp.o)
                0x0000000010041ea2                hfp_get_connections
 .text.hfp_get_connection_for_index
                0x0000000010041eaa       0x30 ..\..\platform\libs\libbtstack.a(hfp.o)
                0x0000000010041eaa                hfp_get_connection_for_index
 .text.get_hfp_connection_context_for_rfcomm_cid
                0x0000000010041eda       0x30 ..\..\platform\libs\libbtstack.a(hfp.o)
                0x0000000010041eda                get_hfp_connection_context_for_rfcomm_cid
 .text.get_hfp_connection_context_for_bd_addr
                0x0000000010041f0a       0x5a ..\..\platform\libs\libbtstack.a(hfp.o)
                0x0000000010041f0a                get_hfp_connection_context_for_bd_addr
 .text.handle_query_rfcomm_event
                0x0000000010041f64       0x9c ..\..\platform\libs\libbtstack.a(hfp.o)
 .text.get_hfp_connection_context_for_sco_handle
                0x0000000010042000       0x30 ..\..\platform\libs\libbtstack.a(hfp.o)
                0x0000000010042000                get_hfp_connection_context_for_sco_handle
 .text.hfp_reset_context_flags
                0x0000000010042030       0x2c ..\..\platform\libs\libbtstack.a(hfp.o)
                0x0000000010042030                hfp_reset_context_flags
 .text.create_hfp_connection_context
                0x000000001004205c       0x94 ..\..\platform\libs\libbtstack.a(hfp.o)
 .text.hfp_parse
                0x00000000100420f0      0x7ea ..\..\platform\libs\libbtstack.a(hfp.o)
                0x00000000100420f0                hfp_parse
 .text.hfp_establish_service_level_connection
                0x00000000100428da       0xb8 ..\..\platform\libs\libbtstack.a(hfp.o)
                0x00000000100428da                hfp_establish_service_level_connection
 .text.hfp_handle_hci_event
                0x0000000010042992      0x21e ..\..\platform\libs\libbtstack.a(hfp.o)
                0x0000000010042992                hfp_handle_hci_event
 .text.hfp_release_audio_connection
                0x0000000010042bb0       0x1a ..\..\platform\libs\libbtstack.a(hfp.o)
                0x0000000010042bb0                hfp_release_audio_connection
 .text.hfp_release_service_level_connection
                0x0000000010042bca       0x52 ..\..\platform\libs\libbtstack.a(hfp.o)
                0x0000000010042bca                hfp_release_service_level_connection
 .text.hfp_setup_synchronous_connection
                0x0000000010042c1c       0x54 ..\..\platform\libs\libbtstack.a(hfp.o)
                0x0000000010042c1c                hfp_setup_synchronous_connection
 .text.hfp_set_packet_handler_for_rfcomm_connections
                0x0000000010042c70        0x8 ..\..\platform\libs\libbtstack.a(hfp.o)
                0x0000000010042c70                hfp_set_packet_handler_for_rfcomm_connections
 .text.hfp_hf_send_chld
                0x0000000010042c78       0x34 ..\..\platform\libs\libbtstack.a(hfp_hf.o)
 .text.hfp_hf_cmd_notify_on_codecs
                0x0000000010042cac       0x7a ..\..\platform\libs\libbtstack.a(hfp_hf.o)
 .text.hfp_hf_switch_on_ok
                0x0000000010042d26      0x186 ..\..\platform\libs\libbtstack.a(hfp_hf.o)
 .text.func.outgoing
                0x0000000010042eac       0x14 ..\..\platform\libs\libbtstack.a(hfp_hf.o)
                0x0000000010042eac                hfp_get_outgoing_number
                0x0000000010042eb6                hfp_get_at_cmd
 .text.hfp_run_for_context
                0x0000000010042ec0      0x576 ..\..\platform\libs\libbtstack.a(hfp_hf.o)
 .text.func.btring
                0x0000000010043436        0x8 ..\..\platform\libs\libbtstack.a(hfp_hf.o)
                0x0000000010043438                hfp_is_list_curr_calls
                0x000000001004343c                hfp_hf_emit_curr_calls
 .text.hfp_hf_packet_handler
                0x000000001004343e      0x1ca ..\..\platform\libs\libbtstack.a(hfp_hf.o)
 .text.hfp_hf_init
                0x0000000010043608       0x5e ..\..\platform\libs\libbtstack.a(hfp_hf.o)
                0x0000000010043608                hfp_hf_init
 .text.hfp_hf_init_codecs
                0x0000000010043666       0x2e ..\..\platform\libs\libbtstack.a(hfp_hf.o)
                0x0000000010043666                hfp_hf_init_codecs
 .text.hfp_hf_init_supported_features
                0x0000000010043694        0x8 ..\..\platform\libs\libbtstack.a(hfp_hf.o)
                0x0000000010043694                hfp_hf_init_supported_features
 .text.hfp_hf_init_hf_indicators
                0x000000001004369c        0x2 ..\..\platform\libs\libbtstack.a(hfp_hf.o)
                0x000000001004369c                hfp_hf_init_hf_indicators
 .text.hfp_hf_establish_service_level_connection
                0x000000001004369e       0x1a ..\..\platform\libs\libbtstack.a(hfp_hf.o)
                0x000000001004369e                hfp_hf_establish_service_level_connection
 .text.hfp_hf_release_service_level_connection
                0x00000000100436b8       0x1c ..\..\platform\libs\libbtstack.a(hfp_hf.o)
                0x00000000100436b8                hfp_hf_release_service_level_connection
 .text.stack.api
                0x00000000100436d4      0x330 ..\..\platform\libs\libbtstack.a(hfp_hf.o)
                0x00000000100436d4                hfp_hf_switch_siri_do
                0x0000000010043714                hfp_hf_switch_siri
                0x0000000010043734                hfp_hf_is_calling
                0x0000000010043750                hfp_hf_answer_incoming_call
                0x00000000100437a0                hfp_hf_terminate_call
                0x00000000100437fc                hfp_hf_reject_incoming_call
                0x00000000100437fe                hfp_hf_swap_calls
                0x000000001004382e                hfp_hf_dial_number
                0x000000001004387a                hfp_hf_at_cmd
                0x00000000100438b8                hfp_hf_redial_last_number_do
                0x0000000010043908                hfp_hf_redial_last_number
                0x0000000010043928                hfp_hf_set_speaker_gain
                0x0000000010043970                hfp_hf_set_microphone_gain
                0x00000000100439b8                hfp_hf_report_bat_state
 .text.remove_hid_device_context
                0x0000000010043a04       0x34 ..\..\platform\libs\libbtstack.a(hid_device.o)
 .text.get_hid_device_context_for_l2cap_cid
                0x0000000010043a38       0x3a ..\..\platform\libs\libbtstack.a(hid_device.o)
 .text.get_hid_device_context_for_bd_addr
                0x0000000010043a72       0x4e ..\..\platform\libs\libbtstack.a(hid_device.o)
 .text.provide_hid_device_context_for_bd_addr.part.3
                0x0000000010043ac0       0x7a ..\..\platform\libs\libbtstack.a(hid_device.o)
 .text.hid_packet_handler
                0x0000000010043b3a      0x350 ..\..\platform\libs\libbtstack.a(hid_device.o)
 .text.bt_hid_is_connected
                0x0000000010043e8a       0x4a ..\..\platform\libs\libbtstack.a(hid_device.o)
                0x0000000010043e8a                bt_hid_is_connected
 .text.hid_device_init
                0x0000000010043ed4       0x46 ..\..\platform\libs\libbtstack.a(hid_device.o)
                0x0000000010043ed4                hid_device_init
 .text.hid_device_request_can_send_now_event
                0x0000000010043f1a        0x4 ..\..\platform\libs\libbtstack.a(hid_device.o)
                0x0000000010043f1a                hid_device_request_can_send_now_event
 .text.hid_device_send_interrupt_message
                0x0000000010043f1e        0x4 ..\..\platform\libs\libbtstack.a(hid_device.o)
                0x0000000010043f1e                hid_device_send_interrupt_message
 .text.hid_establish_service_level_connection
                0x0000000010043f22       0x92 ..\..\platform\libs\libbtstack.a(hid_device.o)
                0x0000000010043f22                hid_establish_service_level_connection
 .text.hid_release_service_level_connection
                0x0000000010043fb4       0x40 ..\..\platform\libs\libbtstack.a(hid_device.o)
                0x0000000010043fb4                hid_release_service_level_connection
 .text.hid_get_interrupt_cid
                0x0000000010043ff4       0x16 ..\..\platform\libs\libbtstack.a(hid_device.o)
                0x0000000010043ff4                hid_get_interrupt_cid
 .text.hid_report_init
                0x000000001004400a       0x12 ..\..\platform\libs\libbtstack.a(hid_usage.o)
                0x000000001004400a                hid_report_init
 .text.hid_send_report_callback
                0x000000001004401c       0x80 ..\..\platform\libs\libbtstack.a(hid_usage.o)
                0x000000001004401c                hid_send_report_callback
 .text.btstack_hid_key
                0x000000001004409c       0x86 ..\..\platform\libs\libbtstack.a(hid_usage.o)
                0x000000001004409c                btstack_hid_key
 .text.btstack_hid_consumer
                0x0000000010044122       0x70 ..\..\platform\libs\libbtstack.a(hid_usage.o)
                0x0000000010044122                btstack_hid_consumer
 .text.bt_hid_is_send_complete
                0x0000000010044192        0xc ..\..\platform\libs\libbtstack.a(hid_usage.o)
                0x0000000010044192                bt_hid_is_send_complete
 .text.rfcomm_emit_channel_closed
                0x000000001004419e       0x2c ..\..\platform\libs\libbtstack.a(rfcomm.o)
 .text.rfcomm_emit_can_send_now
                0x00000000100441ca       0x2a ..\..\platform\libs\libbtstack.a(rfcomm.o)
 .text.rfcomm_multiplexer_for_l2cap_cid
                0x00000000100441f4       0x1c ..\..\platform\libs\libbtstack.a(rfcomm.o)
 .text.rfcomm_channel_for_rfcomm_cid
                0x0000000010044210       0x1c ..\..\platform\libs\libbtstack.a(rfcomm.o)
 .text.rfcomm_channel_for_multiplexer_and_dlci
                0x000000001004422c       0x22 ..\..\platform\libs\libbtstack.a(rfcomm.o)
 .text.stack.rfcomm
                0x000000001004424e       0xd2 ..\..\platform\libs\libbtstack.a(rfcomm.o)
                0x00000000100442f0                rfcomm_register_service
 .text.rfcomm_channel_ready_to_send
                0x0000000010044320       0x56 ..\..\platform\libs\libbtstack.a(rfcomm.o)
 .text.rfcomm_emit_port_configuration
                0x0000000010044376       0x3e ..\..\platform\libs\libbtstack.a(rfcomm.o)
 .text.rfcomm_emit_connection_request
                0x00000000100443b4       0x5a ..\..\platform\libs\libbtstack.a(rfcomm.o)
 .text.rfcomm_multiplexer_for_addr
                0x000000001004440e       0x32 ..\..\platform\libs\libbtstack.a(rfcomm.o)
 .text.rfcomm_multiplexer_create_for_addr
                0x0000000010044440       0x60 ..\..\platform\libs\libbtstack.a(rfcomm.o)
 .text.rfcomm_channel_create
                0x00000000100444a0       0xfe ..\..\platform\libs\libbtstack.a(rfcomm.o)
 .text.rfcomm_channel_create_internal
                0x000000001004459e      0x11e ..\..\platform\libs\libbtstack.a(rfcomm.o)
 .text.rfcomm_multiplexer_ready_to_send
                0x00000000100446bc       0x4e ..\..\platform\libs\libbtstack.a(rfcomm.o)
 .text.rfcomm_channel_can_send.part.8
                0x000000001004470a       0x16 ..\..\platform\libs\libbtstack.a(rfcomm.o)
 .text.rfcomm_notify_channel_can_send
                0x0000000010044720       0x54 ..\..\platform\libs\libbtstack.a(rfcomm.o)
 .text.rfcomm_emit_channel_opened
                0x0000000010044774       0x8c ..\..\platform\libs\libbtstack.a(rfcomm.o)
 .text.rfcomm_multiplexer_prepare_idle_timer
                0x0000000010044800       0x64 ..\..\platform\libs\libbtstack.a(rfcomm.o)
 .text.rfcomm_channel_finalize
                0x0000000010044864       0x38 ..\..\platform\libs\libbtstack.a(rfcomm.o)
 .text.rfcomm_multiplexer_finalize
                0x000000001004489c       0x8c ..\..\platform\libs\libbtstack.a(rfcomm.o)
 .text.rfcomm_multiplexer_timer_handler
                0x0000000010044928       0x3a ..\..\platform\libs\libbtstack.a(rfcomm.o)
 .text.stack.setup
                0x0000000010044962       0x22 ..\..\platform\libs\libbtstack.a(rfcomm.o)
                0x0000000010044962                rfcomm_init
 .text.rfcomm_can_send_packet_now
                0x0000000010044984       0x20 ..\..\platform\libs\libbtstack.a(rfcomm.o)
                0x0000000010044984                rfcomm_can_send_packet_now
 .text.rfcomm_request_can_send_now_event
                0x00000000100449a4       0x24 ..\..\platform\libs\libbtstack.a(rfcomm.o)
                0x00000000100449a4                rfcomm_request_can_send_now_event
 .text.rfcomm_reserve_packet_buffer
                0x00000000100449c8        0x4 ..\..\platform\libs\libbtstack.a(rfcomm.o)
                0x00000000100449c8                rfcomm_reserve_packet_buffer
 .text.rfcomm_get_outgoing_buffer
                0x00000000100449cc       0x10 ..\..\platform\libs\libbtstack.a(rfcomm.o)
                0x00000000100449cc                rfcomm_get_outgoing_buffer
 .text.rfcomm_create_channel
                0x00000000100449dc        0xa ..\..\platform\libs\libbtstack.a(rfcomm.o)
                0x00000000100449dc                rfcomm_create_channel
 .text.rfcomm_disconnect
                0x00000000100449e6       0x2c ..\..\platform\libs\libbtstack.a(rfcomm.o)
                0x00000000100449e6                rfcomm_disconnect
 .text.rfcomm_accept_connection
                0x0000000010044a12       0x5c ..\..\platform\libs\libbtstack.a(rfcomm.o)
                0x0000000010044a12                rfcomm_accept_connection
 .text.crc8_calc
                0x0000000010044a6e       0x32 ..\..\platform\libs\libbtstack.a(rfcomm.o)
                0x0000000010044a6e                crc8_calc
 .text.rfcomm_send_prepared
                0x0000000010044aa0       0xce ..\..\platform\libs\libbtstack.a(rfcomm.o)
                0x0000000010044aa0                rfcomm_send_prepared
 .text.rfcomm_send
                0x0000000010044b6e       0x80 ..\..\platform\libs\libbtstack.a(rfcomm.o)
                0x0000000010044b6e                rfcomm_send
 .text.rfcomm_send_packet_for_multiplexer.isra.12
                0x0000000010044bee      0x102 ..\..\platform\libs\libbtstack.a(rfcomm.o)
 .text.rfcomm_send_uih_msc_cmd
                0x0000000010044cf0       0x42 ..\..\platform\libs\libbtstack.a(rfcomm.o)
 .text.rfcomm_send_disc
                0x0000000010044d32       0x22 ..\..\platform\libs\libbtstack.a(rfcomm.o)
 .text.rfcomm_send_dm_pf
                0x0000000010044d54       0x24 ..\..\platform\libs\libbtstack.a(rfcomm.o)
 .text.rfcomm_send_sabm
                0x0000000010044d78       0x22 ..\..\platform\libs\libbtstack.a(rfcomm.o)
 .text.rfcomm_send_ua
                0x0000000010044d9a       0x26 ..\..\platform\libs\libbtstack.a(rfcomm.o)
 .text.rfcomm_channel_send_credits
                0x0000000010044dc0       0x48 ..\..\platform\libs\libbtstack.a(rfcomm.o)
 .text.rfcomm_channel_state_machine_with_channel
                0x0000000010044e08      0x63e ..\..\platform\libs\libbtstack.a(rfcomm.o)
 .text.rfcomm_multiplexer_opened
                0x0000000010045446       0x5e ..\..\platform\libs\libbtstack.a(rfcomm.o)
 .text.rfcomm_channel_state_machine_with_dlci
                0x00000000100454a4       0x9c ..\..\platform\libs\libbtstack.a(rfcomm.o)
 .text.rfcomm_packet_handler
                0x0000000010045540      0x6f2 ..\..\platform\libs\libbtstack.a(rfcomm.o)
 .text.de_state_size
                0x0000000010045c32       0x62 ..\..\platform\libs\libbtstack.a(sdp_client.o)
                0x0000000010045c32                de_state_size
 .text.sdp_parser_init
                0x0000000010045c94       0x30 ..\..\platform\libs\libbtstack.a(sdp_client.o)
                0x0000000010045c94                sdp_parser_init
 .text.sdp_parser_handle_chunk
                0x0000000010045cc4      0x258 ..\..\platform\libs\libbtstack.a(sdp_client.o)
                0x0000000010045cc4                sdp_parser_handle_chunk
 .text.sdp_parser_handle_done
                0x0000000010045f1c       0x7c ..\..\platform\libs\libbtstack.a(sdp_client.o)
                0x0000000010045f1c                sdp_parser_handle_done
 .text.sdp_client_packet_handler
                0x0000000010045f98      0x33e ..\..\platform\libs\libbtstack.a(sdp_client.o)
                0x0000000010045f98                sdp_client_packet_handler
 .text.sdp_client_init
                0x00000000100462d6       0x1c ..\..\platform\libs\libbtstack.a(sdp_client.o)
                0x00000000100462d6                sdp_client_init
 .text.sdp_client_query
                0x00000000100462f2      0x106 ..\..\platform\libs\libbtstack.a(sdp_client.o)
                0x00000000100462f2                sdp_client_query
 .text.stack.sdp.server
                0x00000000100463f8      0x966 ..\..\platform\libs\libbtstack.a(sdp_server.o)
                0x0000000010046450                sdp_get_service_record_handle
                0x0000000010046490                sdp_get_record_for_handle
                0x00000000100464a4                sdp_create_service_record_handle
                0x00000000100464d0                sdp_register_service
                0x000000001004651c                sdp_unregister_service
                0x0000000010046548                sdp_handle_service_search_request
                0x000000001004674a                sdp_handle_service_attribute_request
                0x0000000010046904                sdp_handle_service_search_attribute_request
 .text.stack.setup
                0x0000000010046d5e       0x36 ..\..\platform\libs\libbtstack.a(sdp_server.o)
                0x0000000010046d5e                sdp_init
 .text.stack.sdp.util
                0x0000000010046d94      0x69c ..\..\platform\libs\libbtstack.a(sdp_util.o)
                0x0000000010046e5a                de_get_size_type
                0x0000000010046e62                de_get_element_type
                0x0000000010046e6a                de_get_header_size
                0x0000000010046e82                de_get_data_size
                0x0000000010046ebc                de_get_len
                0x0000000010046fd2                de_element_get_uint16
                0x000000001004700c                de_get_normalized_uuid
                0x0000000010047072                de_get_uuid32
                0x0000000010047098                de_store_descriptor_with_len
                0x00000000100470ce                des_iterator_init
                0x0000000010047108                des_iterator_get_type
                0x0000000010047118                des_iterator_get_size
                0x000000001004714a                des_iterator_has_more
                0x0000000010047158                des_iterator_get_element
                0x000000001004716e                des_iterator_next
                0x0000000010047192                sdp_attribute_list_constains_id
                0x00000000100472e0                sdp_filter_attributes_in_attributeIDList
                0x0000000010047318                spd_get_filtered_size
                0x0000000010047338                sdp_get_attribute_value_for_attribute_id
                0x0000000010047356                sdp_set_attribute_value_for_attribute_id
                0x000000001004737a                sdp_record_contains_UUID128
                0x00000000100473de                sdp_traversal_match_pattern
                0x000000001004740c                sdp_record_matches_service_search_pattern
                0x000000001004742e                de_dump_data_element
 .text.remove_spp_connection_context
                0x0000000010047430       0x38 ..\..\platform\libs\libbtstack.a(spp.o)
 .text.spp_run_for_context
                0x0000000010047468       0x42 ..\..\platform\libs\libbtstack.a(spp.o)
 .text.provide_spp_connection_context_for_bd_addr.part.1
                0x00000000100474aa       0x7a ..\..\platform\libs\libbtstack.a(spp.o)
 .text.bt_spp_tx
                0x0000000010047524       0x1e ..\..\platform\libs\libbtstack.a(spp.o)
                0x0000000010047524                bt_spp_tx
 .text.get_spp_connection_context_for_rfcomm_cid
                0x0000000010047542       0x2e ..\..\platform\libs\libbtstack.a(spp.o)
                0x0000000010047542                get_spp_connection_context_for_rfcomm_cid
 .text.get_spp_connection_context_for_bd_addr
                0x0000000010047570       0x58 ..\..\platform\libs\libbtstack.a(spp.o)
                0x0000000010047570                get_spp_connection_context_for_bd_addr
 .text.handle_query_rfcomm_event
                0x00000000100475c8       0x9c ..\..\platform\libs\libbtstack.a(spp.o)
 .text.stack.spp.handler
                0x0000000010047664      0x108 ..\..\platform\libs\libbtstack.a(spp.o)
 .text.spp_establish_service_level_connection
                0x000000001004776c       0xb4 ..\..\platform\libs\libbtstack.a(spp.o)
                0x000000001004776c                spp_establish_service_level_connection
 .text.spp_release_service_level_connection
                0x0000000010047820       0x58 ..\..\platform\libs\libbtstack.a(spp.o)
                0x0000000010047820                spp_release_service_level_connection
 .text.spp_init
                0x0000000010047878       0x46 ..\..\platform\libs\libbtstack.a(spp.o)
                0x0000000010047878                spp_init
 .text.spp_var_init
                0x00000000100478be        0x8 ..\..\platform\libs\libbtstack.a(spp.o)
                0x00000000100478be                spp_var_init
 *fill*         0x00000000100478c6      0x13a 
 .text.stack.hci
                0x0000000010047a00      0xe82 ..\..\platform\libs\libbtstack.a(hci.o)
                0x0000000010047b28                hci_authentication_active_for_handle
                0x0000000010047b4a                gap_drop_link_key_for_bd_addr
                0x0000000010047b66                gap_store_link_key_for_bd_addr
                0x0000000010047b8a                gap_get_link_feature_for_bd_addr
                0x0000000010047ba8                gap_store_link_feature_for_bd_addr
                0x0000000010047bc6                gap_get_link_addr_by_order
                0x0000000010047bca                hci_number_free_acl_slots_for_handle
                0x0000000010047be6                hci_can_send_acl_classic_packet_now
                0x0000000010047c14                hci_can_send_acl_le_packet_now
                0x0000000010047c40                hci_can_send_prepared_acl_packet_now
                0x0000000010047d44                hci_can_send_acl_packet_now
                0x0000000010047d56                hci_can_send_prepared_sco_packet_now
                0x0000000010047d96                hci_can_send_sco_packet_now
                0x0000000010047da8                hci_is_packet_buffer_reserved
                0x0000000010047db4                hci_reserve_packet_buffer
                0x0000000010047dcc                hci_release_packet_buffer
                0x0000000010047dd8                hci_send_acl_packet_buffer
                0x0000000010047e4a                hci_usable_acl_packet_types
                0x0000000010047e56                hci_get_outgoing_packet_buffer
                0x0000000010047e60                hci_max_acl_data_packet_length
                0x0000000010047e6c                hci_non_flushable_packet_boundary_flag_supported
                0x0000000010047e7c                hci_disconnect_security_block
                0x0000000010047e98                gap_ssp_set_enable
                0x0000000010047ea4                hci_run_lowpwr_state
                0x0000000010047f0e                hci_remote_esco_supported
                0x0000000010047f2a                gap_ssp_supported_on_both_sides
                0x0000000010047f64                gap_security_level_for_link_key_type
                0x0000000010047f90                hci_run_pend_connection
                0x00000000100485cc                gap_w_scan_control
                0x000000001004862c                hci_run_w2_connection
                0x00000000100486ce                gap_mitm_protection_required_for_security_level
                0x00000000100486d8                gap_security_level
                0x00000000100486f2                gap_request_security_level
 .text.stack.hci_init
                0x0000000010048882      0x3d6 ..\..\platform\libs\libbtstack.a(hci.o)
                0x0000000010048be0                hci_power_control
                0x0000000010048c4e                gap_set_local_name
 .text.stack.handler.acl
                0x0000000010048c58       0x1a ..\..\platform\libs\libbtstack.a(hci.o)
 .text.stack.setup
                0x0000000010048c72      0x1ce ..\..\platform\libs\libbtstack.a(hci.o)
                0x0000000010048cee                hci_add_event_handler
                0x0000000010048cfe                hci_register_acl_packet_handler
                0x0000000010048d08                hci_init
                0x0000000010048dbc                hci_set_chipset
                0x0000000010048dd4                hci_set_control
                0x0000000010048de8                gap_set_class_of_device
                0x0000000010048df2                hci_set_bd_addr
                0x0000000010048e1c                gap_ssp_set_io_capability
                0x0000000010048e28                gap_ssp_set_authentication_requirement
                0x0000000010048e34                gap_ssp_set_auto_accept
 .text.hci_shutdown_connection
                0x0000000010048e40       0x42 ..\..\platform\libs\libbtstack.a(hci.o)
 .text.stack.hci_emit
                0x0000000010048e82      0x136 ..\..\platform\libs\libbtstack.a(hci.o)
                0x0000000010048f42                hci_emit_state
                0x0000000010048f70                hci_emit_scan_ctrl
                0x0000000010048f94                hci_emit_inquiry_ctrl
 .text.stack.hci.conn
                0x0000000010048fb8      0x218 ..\..\platform\libs\libbtstack.a(hci.o)
                0x00000000100490b0                gap_get_connection_parameter_range
                0x00000000100490ce                gap_set_connection_parameter_range
                0x00000000100490ee                hci_get_connections
                0x00000000100490f8                hci_connection_for_bd_addr_and_type
                0x000000001004914e                hci_connection_get_other_for_bd_addr_and_type
                0x00000000100491a4                hci_connection_for_index
 .text.stack.hci.sco
                0x00000000100491d0       0x40 ..\..\platform\libs\libbtstack.a(hci.o)
 .text.hci_free_connect_waiting
                0x0000000010049210       0x78 ..\..\platform\libs\libbtstack.a(hci.o)
                0x0000000010049210                hci_free_connect_waiting
 .text.stack.hci_send
                0x0000000010049288      0x262 ..\..\platform\libs\libbtstack.a(hci.o)
                0x0000000010049288                hci_send_cmd_packet
                0x00000000100493f0                hci_send_cmd
                0x0000000010049446                hci_send_create_connection_cmd
 .text.hci_emit_start_action
                0x00000000100494ea       0x36 ..\..\platform\libs\libbtstack.a(hci.o)
                0x00000000100494ea                hci_emit_start_action
 .text.hci_initialization_timeout_handler
                0x0000000010049520       0x5c ..\..\platform\libs\libbtstack.a(hci.o)
 .text.hci_event_scan_ctrl
                0x000000001004957c       0x58 ..\..\platform\libs\libbtstack.a(hci.o)
 .text.gap_inquiry
                0x00000000100495d4       0x16 ..\..\platform\libs\libbtstack.a(hci.o)
                0x00000000100495d4                gap_inquiry
 .text.gap_inquiry_cancel
                0x00000000100495ea       0x16 ..\..\platform\libs\libbtstack.a(hci.o)
                0x00000000100495ea                gap_inquiry_cancel
 .text.gap_disconnect
                0x0000000010049600       0x38 ..\..\platform\libs\libbtstack.a(hci.o)
                0x0000000010049600                gap_disconnect
 .text.gap_get_connection_type
                0x0000000010049638       0x3a ..\..\platform\libs\libbtstack.a(hci.o)
                0x0000000010049638                gap_get_connection_type
 .text.hci_set_sco_voice_setting
                0x0000000010049672        0xc ..\..\platform\libs\libbtstack.a(hci.o)
                0x0000000010049672                hci_set_sco_voice_setting
 .text.hci_setup_sync
                0x000000001004967e       0x64 ..\..\platform\libs\libbtstack.a(hci.o)
                0x000000001004967e                hci_setup_sync
 .text.stack.handler.event
                0x00000000100496e2      0xbd6 ..\..\platform\libs\libbtstack.a(hci.o)
 .text.stack.hci_send
                0x000000001004a2b8      0x280 ..\..\platform\libs\libbtstack.a(hci_cmd.o)
                0x000000001004a2b8                hci_cmd_create_from_template
 .text.stack.setup
                0x000000001004a538        0x2 ..\..\platform\libs\libbtstack.a(hci_dump.o)
                0x000000001004a538                hci_dump_open
 .text.sco_buffer_init
                0x000000001004a53a       0x34 ..\..\platform\libs\libbtstack.a(hci_sco.o)
                0x000000001004a53a                sco_buffer_init
 .text.stack.setup
                0x000000001004a56e       0xaa ..\..\platform\libs\libbtstack.a(l2cap.o)
                0x000000001004a59e                l2cap_init
                0x000000001004a5f2                l2cap_register_fixed_channel
 .text.stack.handler.l2cap
                0x000000001004a618      0xa1c ..\..\platform\libs\libbtstack.a(l2cap.o)
                0x000000001004af84                l2cap_request_can_send_now_event
                0x000000001004afa6                l2cap_request_can_send_fix_channel_now_event
                0x000000001004afd4                l2cap_can_send_packet_now
                0x000000001004aff4                l2cap_can_send_prepared_packet_now
                0x000000001004b014                l2cap_can_send_fixed_channel_packet_now
                0x000000001004b018                l2cap_get_remote_mtu_for_local_cid
 .text.stack.l2cap
                0x000000001004b034      0x79e ..\..\platform\libs\libbtstack.a(l2cap.o)
                0x000000001004b638                l2cap_send_prepared
                0x000000001004b6b8                l2cap_send
                0x000000001004b722                l2cap_accept_connection
                0x000000001004b740                l2cap_decline_connection
                0x000000001004b764                l2cap_register_service
 .text.l2cap_send_test_cmd
                0x000000001004b7d2       0x6e ..\..\platform\libs\libbtstack.a(l2cap.o)
                0x000000001004b7d2                l2cap_send_test_cmd
 .text.l2cap_send_test_key
                0x000000001004b840       0x30 ..\..\platform\libs\libbtstack.a(l2cap.o)
                0x000000001004b840                l2cap_send_test_key
 .text.l2cap_get_outgoing_buffer
                0x000000001004b870       0x10 ..\..\platform\libs\libbtstack.a(l2cap.o)
                0x000000001004b870                l2cap_get_outgoing_buffer
 .text.l2cap_reserve_packet_buffer
                0x000000001004b880        0x4 ..\..\platform\libs\libbtstack.a(l2cap.o)
                0x000000001004b880                l2cap_reserve_packet_buffer
 .text.l2cap_release_packet_buffer
                0x000000001004b884        0x4 ..\..\platform\libs\libbtstack.a(l2cap.o)
                0x000000001004b884                l2cap_release_packet_buffer
 .text.l2cap_send_prepared_connectionless
                0x000000001004b888       0x6e ..\..\platform\libs\libbtstack.a(l2cap.o)
                0x000000001004b888                l2cap_send_prepared_connectionless
 .text.l2cap_max_mtu
                0x000000001004b8f6        0x6 ..\..\platform\libs\libbtstack.a(l2cap.o)
                0x000000001004b8f6                l2cap_max_mtu
 .text.l2cap_create_channel
                0x000000001004b8fc      0x116 ..\..\platform\libs\libbtstack.a(l2cap.o)
                0x000000001004b8fc                l2cap_create_channel
 .text.l2cap_disconnect
                0x000000001004ba12       0x1a ..\..\platform\libs\libbtstack.a(l2cap.o)
                0x000000001004ba12                l2cap_disconnect
 .text.stack.l2cap_sig
                0x000000001004ba2c      0x168 ..\..\platform\libs\libbtstack.a(l2cap_signaling.o)
                0x000000001004bb4c                l2cap_next_sig_id
                0x000000001004bb6c                l2cap_next_local_cid
                0x000000001004bb92                l2cap_create_signaling_classic
 .text.l2cap_end_of_test
                0x000000001004bb94       0x34 ..\..\platform\libs\libbtstack.a(l2cap_test.o)
                0x000000001004bb94                l2cap_end_of_test
 .text.l2cap_test_cmd
                0x000000001004bbc8      0x148 ..\..\platform\libs\libbtstack.a(l2cap_test.o)
                0x000000001004bbc8                l2cap_test_cmd
 .text.l2cap_test_rsp
                0x000000001004bd10        0x2 ..\..\platform\libs\libbtstack.a(l2cap_test.o)
                0x000000001004bd10                l2cap_test_rsp
 .text.l2cap_vd_test_packet_handle
                0x000000001004bd12       0x38 ..\..\platform\libs\libbtstack.a(l2cap_test.o)
                0x000000001004bd12                l2cap_vd_test_packet_handle
 .text.l2cap_vd_test_can_send_now
                0x000000001004bd4a       0x64 ..\..\platform\libs\libbtstack.a(l2cap_test.o)
                0x000000001004bd4a                l2cap_vd_test_can_send_now
 .text.vd_test_packet_handler
                0x000000001004bdae       0x5a ..\..\platform\libs\libbtstack.a(l2cap_test.o)
 .text.l2cap_test_init
                0x000000001004be08       0x10 ..\..\platform\libs\libbtstack.a(l2cap_test.o)
                0x000000001004be08                l2cap_test_init
 .text.btstack_ota_read
                0x000000001004be18       0x8e ..\..\platform\libs\libbtstack.a(l2cap_test.o)
                0x000000001004be18                btstack_ota_read
 .text.btstack_ota_status
                0x000000001004bea6       0x72 ..\..\platform\libs\libbtstack.a(l2cap_test.o)
                0x000000001004bea6                btstack_ota_status
 *fill*         0x000000001004bf18       0xe8 
 .text.bb.sw    0x000000001004c000      0x1fe ..\..\platform\libs\libbtstack.a(ext_rsw.o)
                0x000000001004c000                lc_rsw_req
 *fill*         0x000000001004c1fe        0x2 
 .text.lc_sniff_abort_transition_mode
                0x000000001004c200       0x40 ..\..\platform\libs\libbtstack.a(ext_sniff.o)
                0x000000001004c200                lc_sniff_abort_transition_mode
 *fill*         0x000000001004c240        0x0 
 .text.lc_sniff_exit_transition_mode
                0x000000001004c240       0x40 ..\..\platform\libs\libbtstack.a(ext_sniff.o)
                0x000000001004c240                lc_sniff_exit_transition_mode
 .text.lc_sniff_exit_ready
                0x000000001004c280       0x18 ..\..\platform\libs\libbtstack.a(ext_sniff.o)
                0x000000001004c280                lc_sniff_exit_ready
 .text.lc_sniff_exit_fail
                0x000000001004c298       0x1a ..\..\platform\libs\libbtstack.a(ext_sniff.o)
                0x000000001004c298                lc_sniff_exit_fail
 *fill*         0x000000001004c2b2       0x4e 
 .text.lc_sniff_exit
                0x000000001004c300       0x7e ..\..\platform\libs\libbtstack.a(ext_sniff.o)
                0x000000001004c300                lc_sniff_exit
 .text.lc_tsco_remote_setup
                0x000000001004c37e       0x7a ..\..\platform\libs\libbtstack.a(ext_tsco.o)
                0x000000001004c37e                lc_tsco_remote_setup
 .text.lc_tsco_remote_kill
                0x000000001004c3f8       0x22 ..\..\platform\libs\libbtstack.a(ext_tsco.o)
                0x000000001004c3f8                lc_tsco_remote_kill
 .text.lc_scan_set_eir
                0x000000001004c41a       0xf2 ..\..\platform\libs\libbtstack.a(lc_scan.o)
                0x000000001004c41a                lc_scan_set_eir
 .text.lc_scan_get_eir
                0x000000001004c50c       0x52 ..\..\platform\libs\libbtstack.a(lc_scan.o)
                0x000000001004c50c                lc_scan_get_eir
 .text.lc_scan_set_page_timeout
                0x000000001004c55e        0x8 ..\..\platform\libs\libbtstack.a(lc_scan.o)
                0x000000001004c55e                lc_scan_set_page_timeout
 .text.lm_word_add
                0x000000001004c566       0x36 ..\..\platform\libs\libbtstack.a(lm_hmac.o)
 .text.lm_n192_ucmp
                0x000000001004c59c       0x26 ..\..\platform\libs\libbtstack.a(lm_hmac.o)
 .text.lm_word_mul.part.1
                0x000000001004c5c2       0x6c ..\..\platform\libs\libbtstack.a(lm_hmac.o)
 .text.lm_word_mul_add.part.2
                0x000000001004c62e       0x6c ..\..\platform\libs\libbtstack.a(lm_hmac.o)
 .text.lm_n_zero.part.3
                0x000000001004c69a        0xe ..\..\platform\libs\libbtstack.a(lm_hmac.o)
 .text.lm_n_zero
                0x000000001004c6a8       0x16 ..\..\platform\libs\libbtstack.a(lm_hmac.o)
 .text.lm_n192_rshift
                0x000000001004c6be       0x9c ..\..\platform\libs\libbtstack.a(lm_hmac.o)
 .text.lm_n_copy.constprop.11
                0x000000001004c75a       0x3a ..\..\platform\libs\libbtstack.a(lm_hmac.o)
 .text.lm_n192_lshift1
                0x000000001004c794       0x56 ..\..\platform\libs\libbtstack.a(lm_hmac.o)
 .text.lm_n_is_one.constprop.12
                0x000000001004c7ea       0x20 ..\..\platform\libs\libbtstack.a(lm_hmac.o)
 .text.lm_word_sub.part.0.constprop.15
                0x000000001004c80a       0x2c ..\..\platform\libs\libbtstack.a(lm_hmac.o)
 .text.lm_n384_192_sub.constprop.5
                0x000000001004c836       0x38 ..\..\platform\libs\libbtstack.a(lm_hmac.o)
 .text.lm_n192_usub
                0x000000001004c86e       0x32 ..\..\platform\libs\libbtstack.a(lm_hmac.o)
 .text.lm_n192_add.constprop.7
                0x000000001004c8a0       0x76 ..\..\platform\libs\libbtstack.a(lm_hmac.o)
 .text.lm_n192_sqr
                0x000000001004c916      0x13e ..\..\platform\libs\libbtstack.a(lm_hmac.o)
 .text.lm_n192_mod_sub
                0x000000001004ca54       0xac ..\..\platform\libs\libbtstack.a(lm_hmac.o)
 .text.lm_n_is_zero
                0x000000001004cb00       0x26 ..\..\platform\libs\libbtstack.a(lm_hmac.o)
                0x000000001004cb00                lm_n_is_zero
 .text.lm_n_num_bits
                0x000000001004cb26       0x80 ..\..\platform\libs\libbtstack.a(lm_hmac.o)
 .text.lm_n192_384_cmp.constprop.8
                0x000000001004cba6       0x3c ..\..\platform\libs\libbtstack.a(lm_hmac.o)
 .text.unlikely.lm_n192_mod_lshift_quick
                0x000000001004cbe2      0x116 ..\..\platform\libs\libbtstack.a(lm_hmac.o)
 .text.lm_n192_mod_lshift1_quick
                0x000000001004ccf8       0x3c ..\..\platform\libs\libbtstack.a(lm_hmac.o)
 .text.lm_n192_mod_add
                0x000000001004cd34       0x7c ..\..\platform\libs\libbtstack.a(lm_hmac.o)
 .text.lm_sp_n192_n_mod
                0x000000001004cdb0      0x158 ..\..\platform\libs\libbtstack.a(lm_hmac.o)
 .text.lm_n192_mod_sqr
                0x000000001004cf08       0x2a ..\..\platform\libs\libbtstack.a(lm_hmac.o)
 .text.lm_n192_mod_mul
                0x000000001004cf32      0x110 ..\..\platform\libs\libbtstack.a(lm_hmac.o)
 .text.lm_n192_rshift1
                0x000000001004d042       0x74 ..\..\platform\libs\libbtstack.a(lm_hmac.o)
 .text.lm_sp_sha256_calculate
                0x000000001004d0b6      0x2a6 ..\..\platform\libs\libbtstack.a(lm_hmac.o)
                0x000000001004d0b6                lm_sp_sha256_calculate
 .text.lm_sp_n_one
                0x000000001004d35c       0x2a ..\..\platform\libs\libbtstack.a(lm_hmac.o)
                0x000000001004d35c                lm_sp_n_one
 .text.lm_n192_mod_inverse
                0x000000001004d386      0x1de ..\..\platform\libs\libbtstack.a(lm_hmac.o)
 .text.lm_sp_n192_convert_wnaf
                0x000000001004d564       0xb4 ..\..\platform\libs\libbtstack.a(lm_hmac.o)
                0x000000001004d564                lm_sp_n192_convert_wnaf
 .text.lm_sp_p192_point_to_inf
                0x000000001004d618       0x16 ..\..\platform\libs\libbtstack.a(lm_hmac.o)
                0x000000001004d618                lm_sp_p192_point_to_inf
 .text.lm_sp_p192_point_jacobian_to_affine
                0x000000001004d62e       0x98 ..\..\platform\libs\libbtstack.a(lm_hmac.o)
                0x000000001004d62e                lm_sp_p192_point_jacobian_to_affine
 .text.lm_sp_p192_points_jacobian_to_affine
                0x000000001004d6c6      0x18c ..\..\platform\libs\libbtstack.a(lm_hmac.o)
                0x000000001004d6c6                lm_sp_p192_points_jacobian_to_affine
 .text.lm_sp_p192_dbl
                0x000000001004d852      0x1bc ..\..\platform\libs\libbtstack.a(lm_hmac.o)
                0x000000001004d852                lm_sp_p192_dbl
 .text.lm_sp_p192_add
                0x000000001004da0e      0x2e4 ..\..\platform\libs\libbtstack.a(lm_hmac.o)
                0x000000001004da0e                lm_sp_p192_add
 .text.lm_sp_pre_compute_points
                0x000000001004dcf2       0x52 ..\..\platform\libs\libbtstack.a(lm_hmac.o)
                0x000000001004dcf2                lm_sp_pre_compute_points
 .text.lm_sp_p192_invert
                0x000000001004dd44       0x4c ..\..\platform\libs\libbtstack.a(lm_hmac.o)
                0x000000001004dd44                lm_sp_p192_invert
 .text.stack.linked_list
                0x000000001004dd90       0x6e ..\..\platform\libs\libbtstack.a(btstack_linked_list.o)
                0x000000001004dd90                btstack_linked_list_get_last_item
                0x000000001004dd9e                btstack_linked_list_add
                0x000000001004ddb2                btstack_linked_list_add_tail
                0x000000001004ddc6                btstack_linked_list_remove
                0x000000001004dde0                btstack_linked_list_count
                0x000000001004ddee                btstack_linked_list_iterator_remove
 .text.disk_readp
                0x000000001004ddfe       0x22 ..\..\platform\libs\libdrivers.a(diskio.o)
                0x000000001004ddfe                disk_readp
 .text.disk_writep
                0x000000001004de20       0x22 ..\..\platform\libs\libdrivers.a(diskio.o)
                0x000000001004de20                disk_writep
 .text.st_clust
                0x000000001004de42       0x1c ..\..\platform\libs\libdrivers.a(pff.o)
 .text.get_clust
                0x000000001004de5e       0x22 ..\..\platform\libs\libdrivers.a(pff.o)
 .text.xdir_sum
                0x000000001004de80       0x38 ..\..\platform\libs\libdrivers.a(pff.o)
 .text.xname_hash
                0x000000001004deb8       0x40 ..\..\platform\libs\libdrivers.a(pff.o)
 .text.sync_window
                0x000000001004def8       0x50 ..\..\platform\libs\libdrivers.a(pff.o)
 .text.move_window
                0x000000001004df48       0x44 ..\..\platform\libs\libdrivers.a(pff.o)
 .text.get_fat_exfat
                0x000000001004df8c       0xde ..\..\platform\libs\libdrivers.a(pff.o)
 .text.get_fattime
                0x000000001004e06a       0x10 ..\..\platform\libs\libdrivers.a(pff.o)
                0x000000001004e06a                get_fattime
 .text.get_fat  0x000000001004e07a      0x11a ..\..\platform\libs\libdrivers.a(pff.o)
                0x000000001004e07a                get_fat
 .text.clust2sect
                0x000000001004e194       0x20 ..\..\platform\libs\libdrivers.a(pff.o)
                0x000000001004e194                clust2sect
 .text.dir_sdi  0x000000001004e1b4       0xd0 ..\..\platform\libs\libdrivers.a(pff.o)
 .text.put_fat  0x000000001004e284      0x1ba ..\..\platform\libs\libdrivers.a(pff.o)
                0x000000001004e284                put_fat
 .text.remove_chain
                0x000000001004e43e       0xa2 ..\..\platform\libs\libdrivers.a(pff.o)
 .text.get_next_free
                0x000000001004e4e0       0xa0 ..\..\platform\libs\libdrivers.a(pff.o)
                0x000000001004e4e0                get_next_free
 .text.create_chain
                0x000000001004e580       0x8e ..\..\platform\libs\libdrivers.a(pff.o)
 .text.dir_next
                0x000000001004e60e      0x126 ..\..\platform\libs\libdrivers.a(pff.o)
 .text.dir_alloc
                0x000000001004e734       0xf2 ..\..\platform\libs\libdrivers.a(pff.o)
 .text.dir_rewind
                0x000000001004e826       0x50 ..\..\platform\libs\libdrivers.a(pff.o)
                0x000000001004e826                dir_rewind
 .text.follow_path
                0x000000001004e876      0x2b2 ..\..\platform\libs\libdrivers.a(pff.o)
 .text.dir_register_exfat
                0x000000001004eb28      0x16e ..\..\platform\libs\libdrivers.a(pff.o)
                0x000000001004eb28                dir_register_exfat
 .text.dir_register
                0x000000001004ec96      0x226 ..\..\platform\libs\libdrivers.a(pff.o)
 .text.pf_open  0x000000001004eebc      0x330 ..\..\platform\libs\libdrivers.a(pff.o)
                0x000000001004eebc                pf_open
 .text.pf_read_do
                0x000000001004f1ec      0x346 ..\..\platform\libs\libdrivers.a(pff.o)
                0x000000001004f1ec                pf_read_do
 .text.pf_read  0x000000001004f532       0x26 ..\..\platform\libs\libdrivers.a(pff.o)
                0x000000001004f532                pf_read
 .text.pf_lseek
                0x000000001004f558       0x6c ..\..\platform\libs\libdrivers.a(pff.o)
                0x000000001004f558                pf_lseek
 .text.fclst_init
                0x000000001004f5c4       0x14 ..\..\platform\libs\libdrivers.a(pff_fat.o)
                0x000000001004f5c4                fclst_init
 .text.save_clust
                0x000000001004f5d8       0x90 ..\..\platform\libs\libdrivers.a(pff_fat.o)
                0x000000001004f5d8                save_clust
 .text.load_clust
                0x000000001004f668       0xdc ..\..\platform\libs\libdrivers.a(pff_fat.o)
                0x000000001004f668                load_clust
 .text.pf_window_counter
                0x000000001004f744       0x1c ..\..\platform\libs\libdrivers.a(pff_fat.o)
                0x000000001004f744                pf_window_counter
 .text.fs_open  0x000000001004f760       0x4c ..\..\platform\libs\libdrivers.a(pff_fat.o)
                0x000000001004f760                fs_open
 .text.aviobuf  0x000000001004f7ac       0x92 ..\..\platform\libs\libcodecs.a(aviobuf.o)
                0x000000001004f7ac                avio_get_sample_index
                0x000000001004f7d8                avio_buf_init
 *fill*         0x000000001004f83e        0x2 
 .text.spr.table
                0x000000001004f840       0x16 ..\..\platform\libs\libcodecs.a(aviobuf.o)
                0x000000001004f840                tbl_sample_rate
 .text.deccom   0x000000001004f856       0x16 ..\..\platform\libs\libcodecs.a(codecs_com.o)
                0x000000001004f856                calc_frame_count
 .text.qskip    0x000000001004f86c      0x128 ..\..\platform\libs\libcodecs.a(codecs_com.o)
                0x000000001004f86c                codec_qskip_init
                0x000000001004f8b0                music_qskip
                0x000000001004f916                calc_qskip_target_offset
                0x000000001004f948                music_qskip_end
                0x000000001004f970                music_set_jump
 .text.dac.drc.init
                0x000000001004f994       0x60 ..\..\platform\libs\libcodecs.a(drc.o)
                0x000000001004f994                drc_init
 .text.msbc.init
                0x000000001004f9f4       0x4e ..\..\platform\libs\libcodecs.a(bt_sbc.o)
                0x000000001004f9f4                msbc_dec_init
 .text          0x000000001004fa42        0x4 ..\..\platform\libs\libcodecs.a(sbc.o)
                0x000000001004fa42                sbc_get_trig_len
 .text.msbc.init
                0x000000001004fa46       0x72 ..\..\platform\libs\libcodecs.a(sbc_dec.o)
                0x000000001004fa46                sbcdec_init_msbc
 *(.rodata*)
 *fill*         0x000000001004fab8        0x0 
 .rodata        0x000000001004fab8       0x48 Output\obj\platform\bsp\bsp_audio.o
                0x000000001004fab8                rec_cfg_tbl
 .rodata        0x000000001004fb00       0x5c Output\obj\platform\bsp\bsp_bt.o
                0x000000001004fb4c                bt_local_guid
 .rodata        0x000000001004fb5c        0xa Output\obj\platform\bsp\bsp_eq.o
                0x000000001004fb5c                tbl_eq_version
 *fill*         0x000000001004fb66        0x2 
 .rodata        0x000000001004fb68        0xc Output\obj\platform\bsp\bsp_spp.o
 .rodata        0x000000001004fb74       0x28 Output\obj\platform\functions\func_bt.o
 .rodata.func.table
                0x000000001004fb9c        0x2 Output\obj\projects\earphone\config.o
                0x000000001004fb9c                func_sort_table
 *fill*         0x000000001004fb9e        0x2 
 .rodata        0x000000001004fba0       0x32 Output\obj\projects\earphone\main.o
 *fill*         0x000000001004fbd2        0x2 
 .rodata        0x000000001004fbd4      0x230 Output\obj\projects\earphone\plugin\multi_lang.o
                0x000000001004fbd4                mul_lang_tbl
 .rodata        0x000000001004fe04       0xdc ..\..\platform\libs\libplatform.a(audio_eq.o)
                0x000000001004fecc                eq_param_normal_tbl
 .rodata.str1.4
                0x000000001004fee0       0x30 ..\..\platform\libs\libplatform.a(audio_eq.o)
                                         0x38 (size before relaxing)
 .rodata.str1.4
                0x000000001004ff10        0xd ..\..\platform\libs\libplatform.a(bt.o)
 *fill*         0x000000001004ff1d        0x3 
 .rodata.str1.4
                0x000000001004ff20        0xd ..\..\platform\libs\libplatform.a(bt_aec.o)
 *fill*         0x000000001004ff2d        0x3 
 .rodata.alc    0x000000001004ff30       0x18 ..\..\platform\libs\libplatform.a(bt_alc.o)
                0x000000001004ff30                tbl_alc_fade_delay
                0x000000001004ff3c                tbl_alc_fade_step
 .rodata.str1.4
                0x000000001004ff48        0xd ..\..\platform\libs\libplatform.a(bt_alc.o)
 *fill*         0x000000001004ff55        0x3 
 .rodata.str1.4
                0x000000001004ff58       0x5c ..\..\platform\libs\libplatform.a(cm.o)
 .rodata.str1.4
                0x000000001004ffb4       0x10 ..\..\platform\libs\libplatform.a(main.o)
 .rodata        0x000000001004ffc4       0x1c ..\..\platform\libs\libplatform.a(music.o)
 .rodata        0x000000001004ffe0       0x20 ..\..\platform\libs\libplatform.a(music_res.o)
                0x000000001004ffe0                tbl_header
 .rodata.str1.4
                0x0000000010050000       0x87 ..\..\platform\libs\libplatform.a(startup.o)
 *fill*         0x0000000010050087        0x1 
 .rodata.str1.4
                0x0000000010050088       0x65 ..\..\platform\libs\libplatform.a(sys_hook.o)
 *fill*         0x00000000100500ed        0x3 
 .rodata.str1.4
                0x00000000100500f0       0xaa ..\..\platform\libs\libplatform.a(lock.o)
 *fill*         0x000000001005019a        0x2 
 .rodata        0x000000001005019c       0x28 ..\..\platform\libs\libplatform.a(sys_clk.o)
 .rodata        0x00000000100501c4        0xb ..\..\platform\libs\libplatform.a(update.o)
 *fill*         0x00000000100501cf        0x1 
 .rodata        0x00000000100501d0       0x20 ..\..\platform\libs\libplatform.a(thread_driver.o)
 .rodata        0x00000000100501f0       0x1c ..\..\platform\libs\libplatform.a(audio_pcm.o)
 .rodata.str1.4
                0x000000001005020c        0x4 ..\..\platform\libs\libplatform.a(bt_ota.o)
 .rodata        0x0000000010050210       0x59 ..\..\platform\libs\libbtstack.a(bb_rf.o)
 *fill*         0x0000000010050269        0x3 
 .rodata.bb.ble
                0x000000001005026c       0x1c ..\..\platform\libs\libbtstack.a(ble_con.o)
 .rodata.bb.tbl
                0x0000000010050288       0x48 ..\..\platform\libs\libbtstack.a(ext_init.o)
 .rodata        0x00000000100502d0       0x40 ..\..\platform\libs\libbtstack.a(ext_util.o)
                0x00000000100502d0                ext_util_prbs_64bytes
 .rodata.bb.tbl
                0x0000000010050310       0x14 ..\..\platform\libs\libbtstack.a(lc.o)
 .rodata.bb.tbl
                0x0000000010050324       0x69 ..\..\platform\libs\libbtstack.a(lc_lmppdu.o)
 *fill*         0x000000001005038d        0x3 
 .rodata        0x0000000010050390      0x2e3 ..\..\platform\libs\libbtstack.a(lc_proc.o)
 *fill*         0x0000000010050673        0x1 
 .rodata.bb.tbl
                0x0000000010050674      0x464 ..\..\platform\libs\libbtstack.a(lc_proc.o)
                0x0000000010050808                lc_default_handler
 .rodata.str1.4
                0x0000000010050ad8       0x2e ..\..\platform\libs\libbtstack.a(lc_proc.o)
 *fill*         0x0000000010050b06        0x2 
 .rodata.bb.sco
                0x0000000010050b08       0x2c ..\..\platform\libs\libbtstack.a(lc_sco.o)
 .rodata.str1.4
                0x0000000010050b34       0x29 ..\..\platform\libs\libbtstack.a(lc_sco.o)
 *fill*         0x0000000010050b5d        0x3 
 .rodata.bb.tbl
                0x0000000010050b60       0x14 ..\..\platform\libs\libbtstack.a(lm.o)
 .rodata.bb.lm_key
                0x0000000010050b74      0x430 ..\..\platform\libs\libbtstack.a(lm_key.o)
 .rodata.bb.tbl
                0x0000000010050fa4      0x2e8 ..\..\platform\libs\libbtstack.a(lm_proc.o)
                0x0000000010050fa4                lm_default_handler
                0x0000000010050fac                lm_state_handler
 .rodata        0x000000001005128c       0x9c ..\..\platform\libs\libbtstack.a(lm_sco.o)
 .rodata.bb.lm  0x0000000010051328        0x4 ..\..\platform\libs\libbtstack.a(lm_sco.o)
                0x0000000010051328                vx_set_to_air_mode
 .rodata        0x000000001005132c       0x10 ..\..\platform\libs\libbtstack.a(lm_sp.o)
 .rodata.bb.lm_sp
                0x000000001005133c      0x240 ..\..\platform\libs\libbtstack.a(lm_sp.o)
 .rodata.bb.lm  0x000000001005157c       0x1e ..\..\platform\libs\libbtstack.a(lm_util.o)
 *fill*         0x000000001005159a        0x2 
 .rodata.bb.tbl
                0x000000001005159c      0xd34 ..\..\platform\libs\libbtstack.a(hcic.o)
                0x000000001005159c                hci_cpk_ogf
                0x00000000100515ec                hci_vs_cpk
                0x000000001005164c                hci_le_cpk
                0x00000000100516cc                hci_test_cpk
                0x00000000100516e0                hci_stat_cpk
                0x0000000010051704                hci_info_cpk
                0x0000000010051734                hci_bb_cpk
                0x00000000100518ec                hci_lk_pol_cpk
                0x000000001005191c                hci_lk_ctrl_cpk
                0x00000000100519f0                hci_vs_epk
                0x0000000010051a88                hci_llc_epk
                0x0000000010051b40                hci_llm_epk
                0x0000000010051c70                hci_lc_epk
                0x0000000010051f28                hci_lm_epk
 .rodata.str1.4
                0x00000000100522d0       0x31 ..\..\platform\libs\libbtstack.a(hcic.o)
 *fill*         0x0000000010052301        0x3 
 .rodata        0x0000000010052304       0x20 ..\..\platform\libs\libbtstack.a(hcic_proc.o)
 .rodata.bb.tbl
                0x0000000010052324       0x18 ..\..\platform\libs\libbtstack.a(hcic_proc.o)
                0x0000000010052324                hci_default_handler
                0x000000001005232c                hci_default_state
 .rodata.str1.4
                0x000000001005233c       0x16 ..\..\platform\libs\libbtstack.a(hcic_proc.o)
 *fill*         0x0000000010052352        0x2 
 .rodata.bb.tbl
                0x0000000010052354       0x14 ..\..\platform\libs\libbtstack.a(vs.o)
 .rodata.bb.tbl
                0x0000000010052368       0x60 ..\..\platform\libs\libbtstack.a(vs_proc.o)
                0x0000000010052368                vs_default_handler
 .rodata.stack.api
                0x00000000100523c8       0xa8 ..\..\platform\libs\libbtstack.a(btstack_api.o)
                0x00000000100523c8                btstack_api
 .rodata.stack.setup
                0x0000000010052470       0x14 ..\..\platform\libs\libbtstack.a(btstack_api.o)
 .rodata.str1.4
                0x0000000010052484       0x34 ..\..\platform\libs\libbtstack.a(btstack_api.o)
 .rodata        0x00000000100524b8       0x14 ..\..\platform\libs\libbtstack.a(btstack_chipset_inner.o)
 .rodata.str1.4
                0x00000000100524cc        0x6 ..\..\platform\libs\libbtstack.a(btstack_chipset_inner.o)
 *fill*         0x00000000100524d2        0x2 
 .rodata.str1.4
                0x00000000100524d4        0x9 ..\..\platform\libs\libbtstack.a(btstack_main.o)
 *fill*         0x00000000100524dd        0x3 
 .rodata.str1.4
                0x00000000100524e0        0x5 ..\..\platform\libs\libbtstack.a(weak_symbol.o)
 *fill*         0x00000000100524e5        0x3 
 .rodata        0x00000000100524e8       0x30 ..\..\platform\libs\libbtstack.a(btstack_tws.o)
 .rodata.str1.4
                0x0000000010052518       0x67 ..\..\platform\libs\libbtstack.a(btstack_tws.o)
                                         0x6f (size before relaxing)
 *fill*         0x000000001005257f        0x1 
 .rodata        0x0000000010052580       0x10 ..\..\platform\libs\libbtstack.a(btstack_util.o)
                0x0000000010052580                bluetooth_base_uuid
 .rodata.stack.a2dp
                0x0000000010052590       0x1c ..\..\platform\libs\libbtstack.a(a2dp.o)
 .rodata        0x00000000100525ac        0xe ..\..\platform\libs\libbtstack.a(a2dp_play.o)
 *fill*         0x00000000100525ba        0x2 
 .rodata.str1.4
                0x00000000100525bc       0x19 ..\..\platform\libs\libbtstack.a(a2dp_play.o)
 *fill*         0x00000000100525d5        0x3 
 .rodata.stack.avctp
                0x00000000100525d8        0x9 ..\..\platform\libs\libbtstack.a(avctp.o)
                0x00000000100525d8                remote_capability_events
                0x00000000100525dc                local_capability_events_len
                0x00000000100525e0                local_capability_events
 *fill*         0x00000000100525e1        0x3 
 .rodata        0x00000000100525e4       0x6c ..\..\platform\libs\libbtstack.a(avdtp.o)
 .rodata        0x0000000010052650       0x18 ..\..\platform\libs\libbtstack.a(btstack_link_key_db.o)
 .rodata        0x0000000010052668       0xe6 ..\..\platform\libs\libbtstack.a(hfp.o)
 *fill*         0x000000001005274e        0x2 
 .rodata.str1.4
                0x0000000010052750       0xc5 ..\..\platform\libs\libbtstack.a(hfp.o)
 *fill*         0x0000000010052815        0x3 
 .rodata        0x0000000010052818       0x70 ..\..\platform\libs\libbtstack.a(hfp_hf.o)
 .rodata.str1.4
                0x0000000010052888       0xba ..\..\platform\libs\libbtstack.a(hfp_hf.o)
                                        0x12e (size before relaxing)
 *fill*         0x0000000010052942        0x2 
 .rodata        0x0000000010052944      0x134 ..\..\platform\libs\libbtstack.a(rfcomm.o)
 .rodata        0x0000000010052a78       0x2c ..\..\platform\libs\libbtstack.a(sdp_client.o)
 .rodata.sdp.tbl
                0x0000000010052aa4      0x397 ..\..\platform\libs\libbtstack.a(sdp_tbl.o)
                0x0000000010052aa4                device_id_sdp_service_buffer
                0x0000000010052ae4                hid_service_buffer2
                0x0000000010052bb0                hid_service_buffer
                0x0000000010052cc0                avctp_target_service_buffer
                0x0000000010052d04                avctp_controller_service_buffer
                0x0000000010052d48                avdtp_service_buffer
                0x0000000010052d8c                hfp_service_buffer
                0x0000000010052de4                spp_service_buffer
 *fill*         0x0000000010052e3b        0x1 
 .rodata        0x0000000010052e3c       0x18 ..\..\platform\libs\libbtstack.a(spp.o)
 .rodata.stack.spp
                0x0000000010052e54       0x12 ..\..\platform\libs\libbtstack.a(spp.o)
 *fill*         0x0000000010052e66        0x2 
 .rodata        0x0000000010052e68       0x9a ..\..\platform\libs\libbtstack.a(hci.o)
 *fill*         0x0000000010052f02        0x2 
 .rodata.stack.hci_send
                0x0000000010052f04      0x1a0 ..\..\platform\libs\libbtstack.a(hci_cmd.o)
                0x0000000010052f04                hci_test_mode_emul
                0x0000000010052f0c                hci_read_rssi
                0x0000000010052f14                hci_read_bd_addr
                0x0000000010052f1c                hci_read_buffer_size
                0x0000000010052f24                hci_read_local_supported_features
                0x0000000010052f2c                hci_read_local_supported_commands
                0x0000000010052f34                hci_write_loopback_mode
                0x0000000010052f3c                hci_read_loopback_mode
                0x0000000010052f44                hci_write_le_host_supported
                0x0000000010052f4c                hci_read_le_host_supported
                0x0000000010052f54                hci_write_simple_pairing_mode
                0x0000000010052f5c                hci_write_extended_inquiry_response
                0x0000000010052f64                hci_write_inquiry_scan_type
                0x0000000010052f6c                hci_write_inquiry_mode
                0x0000000010052f74                hci_write_link_supervision_timeout
                0x0000000010052f7c                hci_host_buffer_size
                0x0000000010052f84                hci_write_class_of_device
                0x0000000010052f8c                hci_write_scan_enable
                0x0000000010052f94                hci_write_page_timeout
                0x0000000010052f9c                hci_write_local_name
                0x0000000010052fa4                hci_reset
                0x0000000010052fac                hci_set_event_mask
                0x0000000010052fb4                hci_switch_role_command
                0x0000000010052fbc                hci_role_discovery
                0x0000000010052fc4                hci_io_capability_request_negative_reply
                0x0000000010052fcc                hci_remote_oob_data_request_negative_reply
                0x0000000010052fd4                hci_user_passkey_request_negative_reply
                0x0000000010052fdc                hci_user_passkey_request_reply
                0x0000000010052fe4                hci_user_confirmation_request_negative_reply
                0x0000000010052fec                hci_user_confirmation_request_reply
                0x0000000010052ff4                hci_io_capability_request_reply
                0x0000000010052ffc                hci_accept_synchronous_connection
                0x0000000010053004                hci_setup_synchronous_connection
                0x000000001005300c                hci_read_clock_offset_command
                0x0000000010053014                hci_read_remote_version_info_command
                0x000000001005301c                hci_read_remote_supported_features_command
                0x0000000010053024                hci_remote_name_request_cancel
                0x000000001005302c                hci_remote_name_request
                0x0000000010053034                hci_change_connection_link_key
                0x000000001005303c                hci_set_connection_encryption
                0x0000000010053044                hci_authentication_requested
                0x000000001005304c                hci_pin_code_request_negative_reply
                0x0000000010053054                hci_pin_code_request_reply
                0x000000001005305c                hci_link_key_request_negative_reply
                0x0000000010053064                hci_link_key_request_reply
                0x000000001005306c                hci_reject_connection_request
                0x0000000010053074                hci_accept_connection_request
                0x000000001005307c                hci_create_connection_cancel
                0x0000000010053084                hci_disconnect
                0x000000001005308c                hci_create_connection
                0x0000000010053094                hci_inquiry_cancel
                0x000000001005309c                hci_inquiry
 .rodata.str1.4
                0x00000000100530a4       0x78 ..\..\platform\libs\libbtstack.a(hci_cmd.o)
                                         0x80 (size before relaxing)
 .rodata        0x000000001005311c       0x70 ..\..\platform\libs\libbtstack.a(l2cap.o)
 .rodata        0x000000001005318c       0x2c ..\..\platform\libs\libbtstack.a(l2cap_signaling.o)
 .rodata.str1.4
                0x00000000100531b8       0x1c ..\..\platform\libs\libbtstack.a(l2cap_signaling.o)
                                         0x22 (size before relaxing)
 .rodata.bb.lm_hmac
                0x00000000100531d4      0x1ac ..\..\platform\libs\libbtstack.a(lm_hmac.o)
 .rodata        0x0000000010053380       0x2c ..\..\platform\libs\libcodecs.a(frame.o)
 *(.rela*)
 .rela.text.audio_path_init
                0x00000000100533ac        0x0 Output\obj\platform\bsp\bsp_audio.o
 .rela.text.audio_path_start
                0x00000000100533ac        0x0 Output\obj\platform\bsp\bsp_audio.o
 .rela.text.audio_path_exit
                0x00000000100533ac        0x0 Output\obj\platform\bsp\bsp_audio.o
 .rela.rodata   0x00000000100533ac        0x0 Output\obj\platform\bsp\bsp_audio.o
 .rela.text.bsp.aux
                0x00000000100533ac        0x0 Output\obj\platform\bsp\bsp_audio.o
 .rela.text.bsp_bt_init
                0x00000000100533ac        0x0 Output\obj\platform\bsp\bsp_audio.o
 .rela.text.bsp_bt_w4_connect
                0x00000000100533ac        0x0 Output\obj\platform\bsp\bsp_audio.o
 .rela.text.bsp_bt_pwrkey5s_check
                0x00000000100533ac        0x0 Output\obj\platform\bsp\bsp_audio.o
 .rela.text.bsp_bt_pwrkey5s_clr
                0x00000000100533ac        0x0 Output\obj\platform\bsp\bsp_audio.o
 .rela.text.bsp_bt_vol_change
                0x00000000100533ac        0x0 Output\obj\platform\bsp\bsp_audio.o
 .rela.text.bsp_bt_hid_tog_conn
                0x00000000100533ac        0x0 Output\obj\platform\bsp\bsp_audio.o
 .rela.text.bsp_bt_hid_photo
                0x00000000100533ac        0x0 Output\obj\platform\bsp\bsp_audio.o
 .rela.text.a2dp_get_vol
                0x00000000100533ac        0x0 Output\obj\platform\bsp\bsp_audio.o
 .rela.text.hfp_get_spk_gain
                0x00000000100533ac        0x0 Output\obj\platform\bsp\bsp_audio.o
 .rela.text.hfp_get_bat_level
                0x00000000100533ac        0x0 Output\obj\platform\bsp\bsp_audio.o
 .rela.text.bt_get_tws_info
                0x00000000100533ac        0x0 Output\obj\platform\bsp\bsp_audio.o
 .rela.text.bt_set_tws_info
                0x00000000100533ac        0x0 Output\obj\platform\bsp\bsp_audio.o
 .rela.text.bt_emit_notice
                0x00000000100533ac        0x0 Output\obj\platform\bsp\bsp_audio.o
 .rela.text.bt_get_func_sta
                0x00000000100533ac        0x0 Output\obj\platform\bsp\bsp_audio.o
 .rela.text.bt_set_func_sta
                0x00000000100533ac        0x0 Output\obj\platform\bsp\bsp_audio.o
 .rela.text.bt_get_local_name
                0x00000000100533ac        0x0 Output\obj\platform\bsp\bsp_audio.o
 .rela.text.bt_get_local_bd_addr
                0x00000000100533ac        0x0 Output\obj\platform\bsp\bsp_audio.o
 .rela.text.bt_get_rand_seed
                0x00000000100533ac        0x0 Output\obj\platform\bsp\bsp_audio.o
 .rela.text.bt_get_guid
                0x00000000100533ac        0x0 Output\obj\platform\bsp\bsp_audio.o
 .rela.text.bt_get_link_info
                0x00000000100533ac        0x0 Output\obj\platform\bsp\bsp_audio.o
 .rela.text.bt_put_link_info
                0x00000000100533ac        0x0 Output\obj\platform\bsp\bsp_audio.o
 .rela.text.bt_get_ext_link_info
                0x00000000100533ac        0x0 Output\obj\platform\bsp\bsp_audio.o
 .rela.text.bt_put_ext_link_info
                0x00000000100533ac        0x0 Output\obj\platform\bsp\bsp_audio.o
 .rela.text.bt_sync_link_info
                0x00000000100533ac        0x0 Output\obj\platform\bsp\bsp_audio.o
 .rela.com_text.charge
                0x00000000100533ac        0x0 Output\obj\platform\bsp\bsp_audio.o
 .rela.text.charge_off
                0x00000000100533ac        0x0 Output\obj\platform\bsp\bsp_audio.o
 .rela.text.charge_init
                0x00000000100533ac        0x0 Output\obj\platform\bsp\bsp_audio.o
 .rela.text.cm_loadparam
                0x00000000100533ac        0x0 Output\obj\platform\bsp\bsp_audio.o
 .rela.text.cm_factory
                0x00000000100533ac        0x0 Output\obj\platform\bsp\bsp_audio.o
 .rela.text.bsp.dac
                0x00000000100533ac        0x0 Output\obj\platform\bsp\bsp_audio.o
 .rela.text.dac
                0x00000000100533ac        0x0 Output\obj\platform\bsp\bsp_audio.o
 .rela.com_text.dac
                0x00000000100533ac        0x0 Output\obj\platform\bsp\bsp_audio.o
 .rela.text.tx_ack.constprop.0
                0x00000000100533ac        0x0 Output\obj\platform\bsp\bsp_audio.o
 .rela.text.music
                0x00000000100533ac        0x0 Output\obj\platform\bsp\bsp_audio.o
 .rela.text.eq_tx_version
                0x00000000100533ac        0x0 Output\obj\platform\bsp\bsp_audio.o
 .rela.text.eq_parse_cmd
                0x00000000100533ac        0x0 Output\obj\platform\bsp\bsp_audio.o
 .rela.text.eq_dbg_init
                0x00000000100533ac        0x0 Output\obj\platform\bsp\bsp_audio.o
 .rela.text.wait_eq_set_done
                0x00000000100533ac        0x0 Output\obj\platform\bsp\bsp_audio.o
 .rela.com_text.port.key
                0x00000000100533ac        0x0 Output\obj\platform\bsp\bsp_audio.o
 .rela.text.bsp.power
                0x00000000100533ac        0x0 Output\obj\platform\bsp\bsp_audio.o
 .rela.com_text.port.vbat
                0x00000000100533ac        0x0 Output\obj\platform\bsp\bsp_audio.o
 .rela.saradc_text.init
                0x00000000100533ac        0x0 Output\obj\platform\bsp\bsp_audio.o
 .rela.text.is_lowpower_vbat_warning
                0x00000000100533ac        0x0 Output\obj\platform\bsp\bsp_audio.o
 .rela.com_text.bsp.key
                0x00000000100533ac        0x0 Output\obj\platform\bsp\bsp_audio.o
 .rela.text.get_double_key_time
                0x00000000100533ac        0x0 Output\obj\platform\bsp\bsp_audio.o
 .rela.text.bsp.key.init
                0x00000000100533ac        0x0 Output\obj\platform\bsp\bsp_audio.o
 .rela.com_text.led_disp
                0x00000000100533ac        0x0 Output\obj\platform\bsp\bsp_audio.o
 .rela.text.led_disp
                0x00000000100533ac        0x0 Output\obj\platform\bsp\bsp_audio.o
 .rela.sleep_text.led
                0x00000000100533ac        0x0 Output\obj\platform\bsp\bsp_audio.o
 .rela.text.charge_bled_on
                0x00000000100533ac        0x0 Output\obj\platform\bsp\bsp_audio.o
 .rela.text.mp3_res_play
                0x00000000100533ac        0x0 Output\obj\platform\bsp\bsp_audio.o
 .rela.text.wav_res_play
                0x00000000100533ac        0x0 Output\obj\platform\bsp\bsp_audio.o
 .rela.text.bsp.param
                0x00000000100533ac        0x0 Output\obj\platform\bsp\bsp_audio.o
 .rela.text.bt_app_cmd_process
                0x00000000100533ac        0x0 Output\obj\platform\bsp\bsp_audio.o
 .rela.text.bsp.sys.init
                0x00000000100533ac        0x0 Output\obj\platform\bsp\bsp_audio.o
 .rela.com_text.detect
                0x00000000100533ac        0x0 Output\obj\platform\bsp\bsp_audio.o
 .rela.com_text.timer
                0x00000000100533ac        0x0 Output\obj\platform\bsp\bsp_audio.o
 .rela.com_text.bsp.sys
                0x00000000100533ac        0x0 Output\obj\platform\bsp\bsp_audio.o
 .rela.text.bsp.sys
                0x00000000100533ac        0x0 Output\obj\platform\bsp\bsp_audio.o
 .rela.text.bsp_get_xosc_xcfg
                0x00000000100533ac        0x0 Output\obj\platform\bsp\bsp_audio.o
 .rela.text.func.msg
                0x00000000100533ac        0x0 Output\obj\platform\bsp\bsp_audio.o
 .rela.text.func
                0x00000000100533ac        0x0 Output\obj\platform\bsp\bsp_audio.o
 .rela.text.func_bt_mp3_res_play
                0x00000000100533ac        0x0 Output\obj\platform\bsp\bsp_audio.o
 .rela.text.func_bt_tws_set_channel
                0x00000000100533ac        0x0 Output\obj\platform\bsp\bsp_audio.o
 .rela.text.func_bt_chkclr_warning
                0x00000000100533ac        0x0 Output\obj\platform\bsp\bsp_audio.o
 .rela.text.func_bt_switch_voice_lang
                0x00000000100533ac        0x0 Output\obj\platform\bsp\bsp_audio.o
 .rela.text.func_bt_warning
                0x00000000100533ac        0x0 Output\obj\platform\bsp\bsp_audio.o
 .rela.text.func_bt_disp_status
                0x00000000100533ac        0x0 Output\obj\platform\bsp\bsp_audio.o
 .rela.text.func.bt
                0x00000000100533ac        0x0 Output\obj\platform\bsp\bsp_audio.o
 .rela.com_text.bthid
                0x00000000100533ac        0x0 Output\obj\platform\bsp\bsp_audio.o
 .rela.text.func_bt_hid_warning
                0x00000000100533ac        0x0 Output\obj\platform\bsp\bsp_audio.o
 .rela.sleep_text.timer
                0x00000000100533ac        0x0 Output\obj\platform\bsp\bsp_audio.o
 .rela.text.lowpwr.sleep
                0x00000000100533ac        0x0 Output\obj\platform\bsp\bsp_audio.o
 .rela.text.lowpwr.pwroff
                0x00000000100533ac        0x0 Output\obj\platform\bsp\bsp_audio.o
 .rela.text.sco_audio_init
                0x00000000100533ac        0x0 Output\obj\platform\bsp\bsp_audio.o
 .rela.text.sco_audio_exit
                0x00000000100533ac        0x0 Output\obj\platform\bsp\bsp_audio.o
 .rela.text.func.btring
                0x00000000100533ac        0x0 Output\obj\platform\bsp\bsp_audio.o
 .rela.text.gui_init
                0x00000000100533ac        0x0 Output\obj\platform\bsp\bsp_audio.o
 .rela.com_text.display
                0x00000000100533ac        0x0 Output\obj\platform\bsp\bsp_audio.o
 .rela.text.gui
                0x00000000100533ac        0x0 Output\obj\platform\bsp\bsp_audio.o
 .rela.text.gui_box_flicker_clr
                0x00000000100533ac        0x0 Output\obj\platform\bsp\bsp_audio.o
 .rela.text.bt_get_rf_param
                0x00000000100533ac        0x0 Output\obj\platform\bsp\bsp_audio.o
 .rela.text.func.bt.msg
                0x00000000100533ac        0x0 Output\obj\platform\bsp\bsp_audio.o
 .rela.text.func.btring.msg
                0x00000000100533ac        0x0 Output\obj\platform\bsp\bsp_audio.o
 .rela.text.sfunc_bt_call_message
                0x00000000100533ac        0x0 Output\obj\platform\bsp\bsp_audio.o
 .rela.text.plugin_init
                0x00000000100533ac        0x0 Output\obj\platform\bsp\bsp_audio.o
 .rela.text.plugin_var_init
                0x00000000100533ac        0x0 Output\obj\platform\bsp\bsp_audio.o
 .rela.com_text.plugin
                0x00000000100533ac        0x0 Output\obj\platform\bsp\bsp_audio.o
 .rela.text.sleep_wakeup_config
                0x00000000100533ac        0x0 Output\obj\platform\bsp\bsp_audio.o
 .rela.text.maxvol_tone_play
                0x00000000100533ac        0x0 Output\obj\platform\bsp\bsp_audio.o
 .rela.text.minvol_tone_play
                0x00000000100533ac        0x0 Output\obj\platform\bsp\bsp_audio.o
 .rela.com_text.key
                0x00000000100533ac        0x0 Output\obj\platform\bsp\bsp_audio.o
 .rela.com_text.adkey
                0x00000000100533ac        0x0 Output\obj\platform\bsp\bsp_audio.o
 .rela.com_text.pwrkey
                0x00000000100533ac        0x0 Output\obj\platform\bsp\bsp_audio.o
 .rela.text.key.init
                0x00000000100533ac        0x0 Output\obj\platform\bsp\bsp_audio.o
 .rela.text.led_func_init
                0x00000000100533ac        0x0 Output\obj\platform\bsp\bsp_audio.o
 .rela.text.linein_detect_init
                0x00000000100533ac        0x0 Output\obj\platform\bsp\bsp_audio.o
 .rela.com_text.linein
                0x00000000100533ac        0x0 Output\obj\platform\bsp\bsp_audio.o
 .rela.text.loudspeaker_mute_init
                0x00000000100533ac        0x0 Output\obj\platform\bsp\bsp_audio.o
 .rela.com_text.mute
                0x00000000100533ac        0x0 Output\obj\platform\bsp\bsp_audio.o
 .rela.text.adpll_init
                0x00000000100533ac        0x0 Output\obj\platform\bsp\bsp_audio.o
 .rela.text.adpll_spr_set
                0x00000000100533ac        0x0 Output\obj\platform\bsp\bsp_audio.o
 .rela.wmadec.windows
                0x00000000100533ac        0x0 Output\obj\platform\bsp\bsp_audio.o
 .rela.text.audio
                0x00000000100533ac        0x0 Output\obj\platform\bsp\bsp_audio.o
 .rela.com_text.sdadc
                0x00000000100533ac        0x0 Output\obj\platform\bsp\bsp_audio.o
 .rela.text.func.speaker
                0x00000000100533ac        0x0 Output\obj\platform\bsp\bsp_audio.o
 .rela.text.iir_lp_filter_init
                0x00000000100533ac        0x0 Output\obj\platform\bsp\bsp_audio.o
 .rela.text.thread_echo_set_priority
                0x00000000100533ac        0x0 Output\obj\platform\bsp\bsp_audio.o
 .rela.text.rec_no_echo_fun
                0x00000000100533ac        0x0 Output\obj\platform\bsp\bsp_audio.o
 .rela.com_text.karaok.proc
                0x00000000100533ac        0x0 Output\obj\platform\bsp\bsp_audio.o
 .rela.text.karaok_mic_first_music_vol_fade_enable
                0x00000000100533ac        0x0 Output\obj\platform\bsp\bsp_audio.o
 .rela.text.karaok_mic_first_music_vol_fade_disable
                0x00000000100533ac        0x0 Output\obj\platform\bsp\bsp_audio.o
 .rela.text.karaok
                0x00000000100533ac        0x0 Output\obj\platform\bsp\bsp_audio.o
 .rela.text.karaok.var
                0x00000000100533ac        0x0 Output\obj\platform\bsp\bsp_audio.o
 .rela.text.func.process
                0x00000000100533ac        0x0 Output\obj\platform\bsp\bsp_audio.o
 .rela.text.karaok_voice_rm_enable
                0x00000000100533ac        0x0 Output\obj\platform\bsp\bsp_audio.o
 .rela.com_text.karaok
                0x00000000100533ac        0x0 Output\obj\platform\bsp\bsp_audio.o
 .rela.text.karaok_aux_rec_enable
                0x00000000100533ac        0x0 Output\obj\platform\bsp\bsp_audio.o
 .rela.text.karaok_aux_rec_disable
                0x00000000100533ac        0x0 Output\obj\platform\bsp\bsp_audio.o
 .rela.text.karaok_fmrx_rec_enable
                0x00000000100533ac        0x0 Output\obj\platform\bsp\bsp_audio.o
 .rela.text.karaok_fmrx_rec_disable
                0x00000000100533ac        0x0 Output\obj\platform\bsp\bsp_audio.o
 .rela.com_text.karaok.rec
                0x00000000100533ac        0x0 Output\obj\platform\bsp\bsp_audio.o
 .rela.text.karaok_rec_init
                0x00000000100533ac        0x0 Output\obj\platform\bsp\bsp_audio.o
 .rela.text.kara_rec_stop
                0x00000000100533ac        0x0 Output\obj\platform\bsp\bsp_audio.o
 .rela.text.kara_rec_start
                0x00000000100533ac        0x0 Output\obj\platform\bsp\bsp_audio.o
 .rela.text.kara_sco_start
                0x00000000100533ac        0x0 Output\obj\platform\bsp\bsp_audio.o
 .rela.text.kara_sco_stop
                0x00000000100533ac        0x0 Output\obj\platform\bsp\bsp_audio.o
 .rela.text.sdadc.eq
                0x00000000100533ac        0x0 Output\obj\platform\bsp\bsp_audio.o
 .rela.text.eq.msc
                0x00000000100533ac        0x0 Output\obj\platform\bsp\bsp_audio.o
 .rela.text.eq.mic
                0x00000000100533ac        0x0 Output\obj\platform\bsp\bsp_audio.o
 .rela.text.huart_eq_init
                0x00000000100533ac        0x0 Output\obj\platform\bsp\bsp_audio.o
 .rela.com_text.audio
                0x00000000100533ac        0x0 Output\obj\platform\bsp\bsp_audio.o
 .rela.text.dac_digital_enable
                0x00000000100533ac        0x0 Output\obj\platform\bsp\bsp_audio.o
 .rela.text.dac_digital_disable
                0x00000000100533ac        0x0 Output\obj\platform\bsp\bsp_audio.o
 .rela.text.sdadc
                0x00000000100533ac        0x0 Output\obj\platform\bsp\bsp_audio.o
 .rela.com_text.isr.sdadc
                0x00000000100533ac        0x0 Output\obj\platform\bsp\bsp_audio.o
 .rela.text.sdadc_var_init
                0x00000000100533ac        0x0 Output\obj\platform\bsp\bsp_audio.o
 .rela.text.bt_hid_wait_tx_complete
                0x00000000100533ac        0x0 Output\obj\platform\bsp\bsp_audio.o
 .rela.bt_voice.plc
                0x00000000100533ac        0x0 Output\obj\platform\bsp\bsp_audio.o
 .rela.com_text.bthw
                0x00000000100533ac        0x0 Output\obj\platform\bsp\bsp_audio.o
 .rela.text.stack.api
                0x00000000100533ac        0x0 Output\obj\platform\bsp\bsp_audio.o
 .rela.text.bt_wait_disconnect
                0x00000000100533ac        0x0 Output\obj\platform\bsp\bsp_audio.o
 .rela.text.stack.api.tws_search
                0x00000000100533ac        0x0 Output\obj\platform\bsp\bsp_audio.o
 .rela.text.stack.api.tws_conn
                0x00000000100533ac        0x0 Output\obj\platform\bsp\bsp_audio.o
 .rela.text.stack.api.tws_dis
                0x00000000100533ac        0x0 Output\obj\platform\bsp\bsp_audio.o
 .rela.com_text.stack.thread
                0x00000000100533ac        0x0 Output\obj\platform\bsp\bsp_audio.o
 .rela.com_text.stack.run_loop
                0x00000000100533ac        0x0 Output\obj\platform\bsp\bsp_audio.o
 .rela.bt_voice.aec
                0x00000000100533ac        0x0 Output\obj\platform\bsp\bsp_audio.o
 .rela.com_text.aec
                0x00000000100533ac        0x0 Output\obj\platform\bsp\bsp_audio.o
 .rela.com_text.bb.cvsd
                0x00000000100533ac        0x0 Output\obj\platform\bsp\bsp_audio.o
 .rela.text.aec_init
                0x00000000100533ac        0x0 Output\obj\platform\bsp\bsp_audio.o
 .rela.bt_voice.alc
                0x00000000100533ac        0x0 Output\obj\platform\bsp\bsp_audio.o
 .rela.text.alc
                0x00000000100533ac        0x0 Output\obj\platform\bsp\bsp_audio.o
 .rela.text.bt_music_rec_start
                0x00000000100533ac        0x0 Output\obj\platform\bsp\bsp_audio.o
 .rela.text.bt_music_rec_stop
                0x00000000100533ac        0x0 Output\obj\platform\bsp\bsp_audio.o
 .rela.text.bt_sco_rec_start
                0x00000000100533ac        0x0 Output\obj\platform\bsp\bsp_audio.o
 .rela.text.bt_sco_rec_stop
                0x00000000100533ac        0x0 Output\obj\platform\bsp\bsp_audio.o
 .rela.com_text.bt_rec.isr
                0x00000000100533ac        0x0 Output\obj\platform\bsp\bsp_audio.o
 .rela.com_text.bt_rec
                0x00000000100533ac        0x0 Output\obj\platform\bsp\bsp_audio.o
 .rela.text.bt_sbc_src_init
                0x00000000100533ac        0x0 Output\obj\platform\bsp\bsp_audio.o
 .rela.text.bt_src_exit
                0x00000000100533ac        0x0 Output\obj\platform\bsp\bsp_audio.o
 .rela.com_text.bt_rec.
                0x00000000100533ac        0x0 Output\obj\platform\bsp\bsp_audio.o
 .rela.bt_voice.sco
                0x00000000100533ac        0x0 Output\obj\platform\bsp\bsp_audio.o
 .rela.text.bt_voice_init
                0x00000000100533ac        0x0 Output\obj\platform\bsp\bsp_audio.o
 .rela.text.bt_voice_exit
                0x00000000100533ac        0x0 Output\obj\platform\bsp\bsp_audio.o
 .rela.text.cm_loadpage
                0x00000000100533ac        0x0 Output\obj\platform\bsp\bsp_audio.o
 .rela.text.cm_write_cfgpage
                0x00000000100533ac        0x0 Output\obj\platform\bsp\bsp_audio.o
 .rela.text.cm_check_loadpage
                0x00000000100533ac        0x0 Output\obj\platform\bsp\bsp_audio.o
 .rela.text.cm_check_page
                0x00000000100533ac        0x0 Output\obj\platform\bsp\bsp_audio.o
 .rela.text.cm_movepage
                0x00000000100533ac        0x0 Output\obj\platform\bsp\bsp_audio.o
 .rela.text.cm_release
                0x00000000100533ac        0x0 Output\obj\platform\bsp\bsp_audio.o
 .rela.text.cm_release_all
                0x00000000100533ac        0x0 Output\obj\platform\bsp\bsp_audio.o
 .rela.text.cm_sync
                0x00000000100533ac        0x0 Output\obj\platform\bsp\bsp_audio.o
 .rela.text.cm_read
                0x00000000100533ac        0x0 Output\obj\platform\bsp\bsp_audio.o
 .rela.text.cm_write
                0x00000000100533ac        0x0 Output\obj\platform\bsp\bsp_audio.o
 .rela.text.cm_clear
                0x00000000100533ac        0x0 Output\obj\platform\bsp\bsp_audio.o
 .rela.text.cm_init
                0x00000000100533ac        0x0 Output\obj\platform\bsp\bsp_audio.o
 .rela.com_text.spiflash
                0x00000000100533ac        0x0 Output\obj\platform\bsp\bsp_audio.o
 .rela.text.device.init
                0x00000000100533ac        0x0 Output\obj\platform\bsp\bsp_audio.o
 .rela.text.device
                0x00000000100533ac        0x0 Output\obj\platform\bsp\bsp_audio.o
 .rela.text.fmrx_analog_init
                0x00000000100533ac        0x0 Output\obj\platform\bsp\bsp_audio.o
 .rela.com_text.delay
                0x00000000100533ac        0x0 Output\obj\platform\bsp\bsp_audio.o
 .rela.com_text.exception
                0x00000000100533ac        0x0 Output\obj\platform\bsp\bsp_audio.o
 .rela.com_text.ledseg
                0x00000000100533ac        0x0 Output\obj\platform\bsp\bsp_audio.o
 .rela.text.platform_main
                0x00000000100533ac        0x0 Output\obj\platform\bsp\bsp_audio.o
 .rela.com_text.music
                0x00000000100533ac        0x0 Output\obj\platform\bsp\bsp_audio.o
 .rela.text.music.init
                0x00000000100533ac        0x0 Output\obj\platform\bsp\bsp_audio.o
 .rela.text.thread_pff_take
                0x00000000100533ac        0x0 Output\obj\platform\bsp\bsp_audio.o
 .rela.text.thread_pff_release
                0x00000000100533ac        0x0 Output\obj\platform\bsp\bsp_audio.o
 .rela.com_text.sbc
                0x00000000100533ac        0x0 Output\obj\platform\bsp\bsp_audio.o
 .rela.mp3dec.sync
                0x00000000100533ac        0x0 Output\obj\platform\bsp\bsp_audio.o
 .rela.text.spires
                0x00000000100533ac        0x0 Output\obj\platform\bsp\bsp_audio.o
 .rela.text.wav_res_play_kick
                0x00000000100533ac        0x0 Output\obj\platform\bsp\bsp_audio.o
 .rela.com_text.stream
                0x00000000100533ac        0x0 Output\obj\platform\bsp\bsp_audio.o
 .rela.text.msc_stream_start
                0x00000000100533ac        0x0 Output\obj\platform\bsp\bsp_audio.o
 .rela.text.msc_stream_end
                0x00000000100533ac        0x0 Output\obj\platform\bsp\bsp_audio.o
 .rela.com_text.irq
                0x00000000100533ac        0x0 Output\obj\platform\bsp\bsp_audio.o
 .rela.com_text.tws.isr
                0x00000000100533ac        0x0 Output\obj\platform\bsp\bsp_audio.o
 .rela.text.timer0_init
                0x00000000100533ac        0x0 Output\obj\platform\bsp\bsp_audio.o
 .rela.text.soft_irq_init
                0x00000000100533ac        0x0 Output\obj\platform\bsp\bsp_audio.o
 .rela.text.bthw_irq_init
                0x00000000100533ac        0x0 Output\obj\platform\bsp\bsp_audio.o
 .rela.text.i2s_irq_init
                0x00000000100533ac        0x0 Output\obj\platform\bsp\bsp_audio.o
 .rela.text.thread_main_entry
                0x00000000100533ac        0x0 Output\obj\platform\bsp\bsp_audio.o
 .rela.com_text.usb.api
                0x00000000100533ac        0x0 Output\obj\platform\bsp\bsp_audio.o
 .rela.text.bt_set_timer_enable
                0x00000000100533ac        0x0 Output\obj\platform\bsp\bsp_audio.o
 .rela.text.sys_set_tmr_enable
                0x00000000100533ac        0x0 Output\obj\platform\bsp\bsp_audio.o
 .rela.text.startup.init
                0x00000000100533ac        0x0 Output\obj\platform\bsp\bsp_audio.o
 .rela.com_text.stack
                0x00000000100533ac        0x0 Output\obj\platform\bsp\bsp_audio.o
 .rela.reset    0x00000000100533ac        0x0 Output\obj\platform\bsp\bsp_audio.o
 .rela.com_text.irtc
                0x00000000100533ac        0x0 Output\obj\platform\bsp\bsp_audio.o
 .rela.text.charge_init_p
                0x00000000100533ac        0x0 Output\obj\platform\bsp\bsp_audio.o
 .rela.com_text.debug
                0x00000000100533ac        0x0 Output\obj\platform\bsp\bsp_audio.o
 .rela.text.lock_wh_rlc44q
                0x00000000100533ac        0x0 Output\obj\platform\bsp\bsp_audio.o
 .rela.text.lock_wh_rlc44o
                0x00000000100533ac        0x0 Output\obj\platform\bsp\bsp_audio.o
 .rela.text.lock_wh_rlc16
                0x00000000100533ac        0x0 Output\obj\platform\bsp\bsp_audio.o
 .rela.text.lock_sleep
                0x00000000100533ac        0x0 Output\obj\platform\bsp\bsp_audio.o
 .rela.text.lock_code_sbcdec
                0x00000000100533ac        0x0 Output\obj\platform\bsp\bsp_audio.o
 .rela.text.lock_code_mp3dec
                0x00000000100533ac        0x0 Output\obj\platform\bsp\bsp_audio.o
 .rela.text.lock_code_wavdec
                0x00000000100533ac        0x0 Output\obj\platform\bsp\bsp_audio.o
 .rela.text.lock_code_wmadec
                0x00000000100533ac        0x0 Output\obj\platform\bsp\bsp_audio.o
 .rela.text.lock_code_apedec
                0x00000000100533ac        0x0 Output\obj\platform\bsp\bsp_audio.o
 .rela.text.lock_code_flacdec
                0x00000000100533ac        0x0 Output\obj\platform\bsp\bsp_audio.o
 .rela.text.lock_code_mp3enc
                0x00000000100533ac        0x0 Output\obj\platform\bsp\bsp_audio.o
 .rela.text.unlock_code_mp3enc
                0x00000000100533ac        0x0 Output\obj\platform\bsp\bsp_audio.o
 .rela.text.lock_code_mp2enc
                0x00000000100533ac        0x0 Output\obj\platform\bsp\bsp_audio.o
 .rela.com_text.cache
                0x00000000100533ac        0x0 Output\obj\platform\bsp\bsp_audio.o
 .rela.text.lock_code_bt_voice
                0x00000000100533ac        0x0 Output\obj\platform\bsp\bsp_audio.o
 .rela.text.lock_code_usbdev
                0x00000000100533ac        0x0 Output\obj\platform\bsp\bsp_audio.o
 .rela.text.lock_code_sniff
                0x00000000100533ac        0x0 Output\obj\platform\bsp\bsp_audio.o
 .rela.text.lock_code_bb_test
                0x00000000100533ac        0x0 Output\obj\platform\bsp\bsp_audio.o
 .rela.text.pmu_init
                0x00000000100533ac        0x0 Output\obj\platform\bsp\bsp_audio.o
 .rela.com_text.voltage.trim
                0x00000000100533ac        0x0 Output\obj\platform\bsp\bsp_audio.o
 .rela.com_text.bsp
                0x00000000100533ac        0x0 Output\obj\platform\bsp\bsp_audio.o
 .rela.text.sys_get_rand_key
                0x00000000100533ac        0x0 Output\obj\platform\bsp\bsp_audio.o
 .rela.text.get_random
                0x00000000100533ac        0x0 Output\obj\platform\bsp\bsp_audio.o
 .rela.text.random_init
                0x00000000100533ac        0x0 Output\obj\platform\bsp\bsp_audio.o
 .rela.text.sys_clk
                0x00000000100533ac        0x0 Output\obj\platform\bsp\bsp_audio.o
 .rela.text.set_sys_clk_do
                0x00000000100533ac        0x0 Output\obj\platform\bsp\bsp_audio.o
 .rela.text.set_peripherals_clkdiv
                0x00000000100533ac        0x0 Output\obj\platform\bsp\bsp_audio.o
 .rela.text.update_sd0baud
                0x00000000100533ac        0x0 Output\obj\platform\bsp\bsp_audio.o
 .rela.text.set_sys_clk
                0x00000000100533ac        0x0 Output\obj\platform\bsp\bsp_audio.o
 .rela.text.set_uart0_baud
                0x00000000100533ac        0x0 Output\obj\platform\bsp\bsp_audio.o
 .rela.text.update
                0x00000000100533ac        0x0 Output\obj\platform\bsp\bsp_audio.o
 .rela.text.voltage.trim
                0x00000000100533ac        0x0 Output\obj\platform\bsp\bsp_audio.o
 .rela.usbdev.com
                0x00000000100533ac        0x0 Output\obj\platform\bsp\bsp_audio.o
 .rela.com_text.thread.driver
                0x00000000100533ac        0x0 Output\obj\platform\bsp\bsp_audio.o
 .rela.com_text.aupcm
                0x00000000100533ac        0x0 Output\obj\platform\bsp\bsp_audio.o
 .rela.com_text.mav
                0x00000000100533ac        0x0 Output\obj\platform\bsp\bsp_audio.o
 .rela.com_text.thread.aupcm
                0x00000000100533ac        0x0 Output\obj\platform\bsp\bsp_audio.o
 .rela.com_text.bb.btisr
                0x00000000100533ac        0x0 Output\obj\platform\bsp\bsp_audio.o
 .rela.text.bb_init
                0x00000000100533ac        0x0 Output\obj\platform\bsp\bsp_audio.o
 .rela.text.bb_reset
                0x00000000100533ac        0x0 Output\obj\platform\bsp\bsp_audio.o
 .rela.text.bb_off
                0x00000000100533ac        0x0 Output\obj\platform\bsp\bsp_audio.o
 .rela.sleep_text.bb
                0x00000000100533ac        0x0 Output\obj\platform\bsp\bsp_audio.o
 .rela.com_text.bb.sleep
                0x00000000100533ac        0x0 Output\obj\platform\bsp\bsp_audio.o
 .rela.text.rf_txpwr_dbm_get
                0x00000000100533ac        0x0 Output\obj\platform\bsp\bsp_audio.o
 .rela.text.rf_reset
                0x00000000100533ac        0x0 Output\obj\platform\bsp\bsp_audio.o
 .rela.text.rf_init
                0x00000000100533ac        0x0 Output\obj\platform\bsp\bsp_audio.o
 .rela.text.ble_init
                0x00000000100533ac        0x0 Output\obj\platform\bsp\bsp_audio.o
 .rela.text.ble_reset
                0x00000000100533ac        0x0 Output\obj\platform\bsp\bsp_audio.o
 .rela.text.hwble_init
                0x00000000100533ac        0x0 Output\obj\platform\bsp\bsp_audio.o
 .rela.rodata.bb.ble
                0x00000000100533ac        0x0 Output\obj\platform\bsp\bsp_audio.o
 .rela.text.bt21_init
                0x00000000100533ac        0x0 Output\obj\platform\bsp\bsp_audio.o
 .rela.text.bt21_reset
                0x00000000100533ac        0x0 Output\obj\platform\bsp\bsp_audio.o
 .rela.com_text.bb.bttx
                0x00000000100533ac        0x0 Output\obj\platform\bsp\bsp_audio.o
 .rela.com_text.bb.btrx
                0x00000000100533ac        0x0 Output\obj\platform\bsp\bsp_audio.o
 .rela.com_text.bb.sco
                0x00000000100533ac        0x0 Output\obj\platform\bsp\bsp_audio.o
 .rela.com_text.sbc.tx
                0x00000000100533ac        0x0 Output\obj\platform\bsp\bsp_audio.o
 .rela.text.hwbt_init
                0x00000000100533ac        0x0 Output\obj\platform\bsp\bsp_audio.o
 .rela.rodata.bb.tbl
                0x00000000100533ac        0x0 Output\obj\platform\bsp\bsp_audio.o
 .rela.text.plc_init
                0x00000000100533ac        0x0 Output\obj\platform\bsp\bsp_audio.o
 .rela.text.plc_exit
                0x00000000100533ac        0x0 Output\obj\platform\bsp\bsp_audio.o
 .rela.text.lc_sco_codec_init
                0x00000000100533ac        0x0 Output\obj\platform\bsp\bsp_audio.o
 .rela.com_text.bb.tws
                0x00000000100533ac        0x0 Output\obj\platform\bsp\bsp_audio.o
 .rela.text.lc_tws_init
                0x00000000100533ac        0x0 Output\obj\platform\bsp\bsp_audio.o
 .rela.text.lc_tws_set_spr
                0x00000000100533ac        0x0 Output\obj\platform\bsp\bsp_audio.o
 .rela.text.lc_tws_set_ticks
                0x00000000100533ac        0x0 Output\obj\platform\bsp\bsp_audio.o
 .rela.text.lc_tws_stop_ticks
                0x00000000100533ac        0x0 Output\obj\platform\bsp\bsp_audio.o
 .rela.text.lc_tws_set_speed
                0x00000000100533ac        0x0 Output\obj\platform\bsp\bsp_audio.o
 .rela.bb_test.lmp
                0x00000000100533ac        0x0 Output\obj\platform\bsp\bsp_audio.o
 .rela.text.lc_acl_stop_link
                0x00000000100533ac        0x0 Output\obj\platform\bsp\bsp_audio.o
 .rela.text.lc_3dh1_pkt_is_en.isra.0
                0x00000000100533ac        0x0 Output\obj\platform\bsp\bsp_audio.o
 .rela.text.lc_init
                0x00000000100533ac        0x0 Output\obj\platform\bsp\bsp_audio.o
 .rela.text.lc_reset
                0x00000000100533ac        0x0 Output\obj\platform\bsp\bsp_audio.o
 .rela.text.lc_chg_pkt_type_cont
                0x00000000100533ac        0x0 Output\obj\platform\bsp\bsp_audio.o
 .rela.text.lc_chk_afh_switch_pos
                0x00000000100533ac        0x0 Output\obj\platform\bsp\bsp_audio.o
 .rela.text.lc_chk_to
                0x00000000100533ac        0x0 Output\obj\platform\bsp\bsp_audio.o
 .rela.text.lc_con_cmp_evt_send
                0x00000000100533ac        0x0 Output\obj\platform\bsp\bsp_audio.o
 .rela.text.lc_con_cmp
                0x00000000100533ac        0x0 Output\obj\platform\bsp\bsp_audio.o
 .rela.text.lc_locepr_rsw
                0x00000000100533ac        0x0 Output\obj\platform\bsp\bsp_audio.o
 .rela.text.lc_locepr_lkref
                0x00000000100533ac        0x0 Output\obj\platform\bsp\bsp_audio.o
 .rela.text.lc_enc_key_refresh
                0x00000000100533ac        0x0 Output\obj\platform\bsp\bsp_audio.o
 .rela.text.lc_flow_stop_before_sniff_trans
                0x00000000100533ac        0x0 Output\obj\platform\bsp\bsp_audio.o
 .rela.text.lc_initiator_epr
                0x00000000100533ac        0x0 Output\obj\platform\bsp\bsp_audio.o
 .rela.text.lc_epr_resp
                0x00000000100533ac        0x0 Output\obj\platform\bsp\bsp_audio.o
 .rela.text.lc_free_link
                0x00000000100533ac        0x0 Output\obj\platform\bsp\bsp_audio.o
 .rela.text.lc_local_switch
                0x00000000100533ac        0x0 Output\obj\platform\bsp\bsp_audio.o
 .rela.text.lc_max_slot_mgt
                0x00000000100533ac        0x0 Output\obj\platform\bsp\bsp_audio.o
 .rela.text.lc_ptt
                0x00000000100533ac        0x0 Output\obj\platform\bsp\bsp_audio.o
 .rela.text.lc_ptt_cmp
                0x00000000100533ac        0x0 Output\obj\platform\bsp\bsp_audio.o
 .rela.text.lc_rem_switch
                0x00000000100533ac        0x0 Output\obj\platform\bsp\bsp_audio.o
 .rela.text.lc_rem_enc
                0x00000000100533ac        0x0 Output\obj\platform\bsp\bsp_audio.o
 .rela.text.lc_resp_auth
                0x00000000100533ac        0x0 Output\obj\platform\bsp\bsp_audio.o
 .rela.text.lc_free
                0x00000000100533ac        0x0 Output\obj\platform\bsp\bsp_audio.o
 .rela.text.lc_restore_to
                0x00000000100533ac        0x0 Output\obj\platform\bsp\bsp_audio.o
 .rela.text.lc_rx_pref_rate
                0x00000000100533ac        0x0 Output\obj\platform\bsp\bsp_audio.o
 .rela.text.lc_start
                0x00000000100533ac        0x0 Output\obj\platform\bsp\bsp_audio.o
 .rela.text.lc_start_lmp_to
                0x00000000100533ac        0x0 Output\obj\platform\bsp\bsp_audio.o
 .rela.text.lc_afh_switch_off
                0x00000000100533ac        0x0 Output\obj\platform\bsp\bsp_audio.o
 .rela.text.lc_afh_switch_on
                0x00000000100533ac        0x0 Output\obj\platform\bsp\bsp_audio.o
 .rela.text.lc_comb_key_svr
                0x00000000100533ac        0x0 Output\obj\platform\bsp\bsp_audio.o
 .rela.text.lc_enter_sniff_mode
                0x00000000100533ac        0x0 Output\obj\platform\bsp\bsp_audio.o
 .rela.text.lc_init_start_mutual_auth
                0x00000000100533ac        0x0 Output\obj\platform\bsp\bsp_audio.o
 .rela.text.lc_mst_send_mst_key
                0x00000000100533ac        0x0 Output\obj\platform\bsp\bsp_audio.o
 .rela.text.lc_local_untrans_mode
                0x00000000100533ac        0x0 Output\obj\platform\bsp\bsp_audio.o
 .rela.text.lc_pairing_cont
                0x00000000100533ac        0x0 Output\obj\platform\bsp\bsp_audio.o
 .rela.text.lc_rd_rem_name
                0x00000000100533ac        0x0 Output\obj\platform\bsp\bsp_audio.o
 .rela.text.lc_start_enc
                0x00000000100533ac        0x0 Output\obj\platform\bsp\bsp_audio.o
 .rela.text.lc_epr_rsw_cmp
                0x00000000100533ac        0x0 Output\obj\platform\bsp\bsp_audio.o
 .rela.text.lc_start_enc_key_size
                0x00000000100533ac        0x0 Output\obj\platform\bsp\bsp_audio.o
 .rela.text.lc_start_key_exch
                0x00000000100533ac        0x0 Output\obj\platform\bsp\bsp_audio.o
 .rela.text.lc_stop_enc
                0x00000000100533ac        0x0 Output\obj\platform\bsp\bsp_audio.o
 .rela.text.lc_skip_hl_oob_req
                0x00000000100533ac        0x0 Output\obj\platform\bsp\bsp_audio.o
 .rela.text.lc_send_enc_mode
                0x00000000100533ac        0x0 Output\obj\platform\bsp\bsp_audio.o
 .rela.text.lc_send_detach
                0x00000000100533ac        0x0 Output\obj\platform\bsp\bsp_audio.o
 .rela.text.lc_chg_pkt_type_retry
                0x00000000100533ac        0x0 Output\obj\platform\bsp\bsp_audio.o
 .rela.text.lc_mst_key
                0x00000000100533ac        0x0 Output\obj\platform\bsp\bsp_audio.o
 .rela.text.lc_upd_to
                0x00000000100533ac        0x0 Output\obj\platform\bsp\bsp_audio.o
 .rela.text.lc_ret_sniff_max_slot_chg
                0x00000000100533ac        0x0 Output\obj\platform\bsp\bsp_audio.o
 .rela.text.lc_sniff_max_slot_chg
                0x00000000100533ac        0x0 Output\obj\platform\bsp\bsp_audio.o
 .rela.text.lc_local_trans_mode
                0x00000000100533ac        0x0 Output\obj\platform\bsp\bsp_audio.o
 .rela.text.lc_unit_key_svr
                0x00000000100533ac        0x0 Output\obj\platform\bsp\bsp_audio.o
 .rela.text.lc_link_supp
                0x00000000100533ac        0x0 Output\obj\platform\bsp\bsp_audio.o
 .rela.text.lc_hl_rem_ext
                0x00000000100533ac        0x0 Output\obj\platform\bsp\bsp_audio.o
 .rela.text.lc_rem_unsniff
                0x00000000100533ac        0x0 Output\obj\platform\bsp\bsp_audio.o
 .rela.text.lc_feat
                0x00000000100533ac        0x0 Output\obj\platform\bsp\bsp_audio.o
 .rela.text.lc_hl_connect
                0x00000000100533ac        0x0 Output\obj\platform\bsp\bsp_audio.o
 .rela.text.lc_version
                0x00000000100533ac        0x0 Output\obj\platform\bsp\bsp_audio.o
 .rela.text.lc_vd_nego
                0x00000000100533ac        0x0 Output\obj\platform\bsp\bsp_audio.o
 .rela.text.lc_vd_info
                0x00000000100533ac        0x0 Output\obj\platform\bsp\bsp_audio.o
 .rela.text.lc_vd_msg
                0x00000000100533ac        0x0 Output\obj\platform\bsp\bsp_audio.o
 .rela.text.lc_loc_sniff
                0x00000000100533ac        0x0 Output\obj\platform\bsp\bsp_audio.o
 .rela.text.lc_unsniff
                0x00000000100533ac        0x0 Output\obj\platform\bsp\bsp_audio.o
 .rela.text.lc_clock_off
                0x00000000100533ac        0x0 Output\obj\platform\bsp\bsp_audio.o
 .rela.text.lc_test_cntl
                0x00000000100533ac        0x0 Output\obj\platform\bsp\bsp_audio.o
 .rela.text.lc_ext_feat
                0x00000000100533ac        0x0 Output\obj\platform\bsp\bsp_audio.o
 .rela.text.lc_loc_auth
                0x00000000100533ac        0x0 Output\obj\platform\bsp\bsp_audio.o
 .rela.text.lc_packet_type
                0x00000000100533ac        0x0 Output\obj\platform\bsp\bsp_audio.o
 .rela.text.lc_sniff_slot_unchange
                0x00000000100533ac        0x0 Output\obj\platform\bsp\bsp_audio.o
 .rela.text.lc_end_of_sniff_nego
                0x00000000100533ac        0x0 Output\obj\platform\bsp\bsp_audio.o
 .rela.text.lc_rem_trans_mode
                0x00000000100533ac        0x0 Output\obj\platform\bsp\bsp_audio.o
 .rela.text.lc_rem_sniff
                0x00000000100533ac        0x0 Output\obj\platform\bsp\bsp_audio.o
 .rela.text.lc_rem_nego_trans_mode
                0x00000000100533ac        0x0 Output\obj\platform\bsp\bsp_audio.o
 .rela.text.lc_unsniff_cont
                0x00000000100533ac        0x0 Output\obj\platform\bsp\bsp_audio.o
 .rela.text.lc_rem_untrans_mode
                0x00000000100533ac        0x0 Output\obj\platform\bsp\bsp_audio.o
 .rela.text.lc_rsw_clean_up
                0x00000000100533ac        0x0 Output\obj\platform\bsp\bsp_audio.o
 .rela.text.lc_switch_cmp
                0x00000000100533ac        0x0 Output\obj\platform\bsp\bsp_audio.o
 .rela.text.lc_bcst_sync_ind
                0x00000000100533ac        0x0 Output\obj\platform\bsp\bsp_audio.o
 .rela.text.lc_max_slot_sync_ind
                0x00000000100533ac        0x0 Output\obj\platform\bsp\bsp_audio.o
 .rela.text.lc_end_chk_colli
                0x00000000100533ac        0x0 Output\obj\platform\bsp\bsp_audio.o
 .rela.text.lc_enc_cmp
                0x00000000100533ac        0x0 Output\obj\platform\bsp\bsp_audio.o
 .rela.text.lc_epr_cmp
                0x00000000100533ac        0x0 Output\obj\platform\bsp\bsp_audio.o
 .rela.text.lc_mutual_auth_end
                0x00000000100533ac        0x0 Output\obj\platform\bsp\bsp_audio.o
 .rela.text.lc_key_exch_end
                0x00000000100533ac        0x0 Output\obj\platform\bsp\bsp_audio.o
 .rela.text.lc_sp_fail
                0x00000000100533ac        0x0 Output\obj\platform\bsp\bsp_audio.o
 .rela.text.lc_calc_link_key
                0x00000000100533ac        0x0 Output\obj\platform\bsp\bsp_audio.o
 .rela.text.lc_init_calc_f3
                0x00000000100533ac        0x0 Output\obj\platform\bsp\bsp_audio.o
 .rela.text.lc_init_passkey_loop
                0x00000000100533ac        0x0 Output\obj\platform\bsp\bsp_audio.o
 .rela.text.lc_passkey_comm
                0x00000000100533ac        0x0 Output\obj\platform\bsp\bsp_audio.o
 .rela.text.lc_resp_calc_f3
                0x00000000100533ac        0x0 Output\obj\platform\bsp\bsp_audio.o
 .rela.text.lc_proc_rcv_dhkey
                0x00000000100533ac        0x0 Output\obj\platform\bsp\bsp_audio.o
 .rela.text.lc_start_passkey_loop
                0x00000000100533ac        0x0 Output\obj\platform\bsp\bsp_audio.o
 .rela.text.lc_start_passkey
                0x00000000100533ac        0x0 Output\obj\platform\bsp\bsp_audio.o
 .rela.text.lc_resp_num_comp
                0x00000000100533ac        0x0 Output\obj\platform\bsp\bsp_audio.o
 .rela.text.lc_sp_oob_tid_fail
                0x00000000100533ac        0x0 Output\obj\platform\bsp\bsp_audio.o
 .rela.text.lc_resp_oob_nonce
                0x00000000100533ac        0x0 Output\obj\platform\bsp\bsp_audio.o
 .rela.text.lc_resp_pair
                0x00000000100533ac        0x0 Output\obj\platform\bsp\bsp_audio.o
 .rela.text.lc_pair
                0x00000000100533ac        0x0 Output\obj\platform\bsp\bsp_audio.o
 .rela.text.lc_sp_to
                0x00000000100533ac        0x0 Output\obj\platform\bsp\bsp_audio.o
 .rela.text.lc_acl_flush_all
                0x00000000100533ac        0x0 Output\obj\platform\bsp\bsp_audio.o
 .rela.text.lc_acl_set_packet_type_table
                0x00000000100533ac        0x0 Output\obj\platform\bsp\bsp_audio.o
 .rela.text.lc_send_pdu_vd_ctrl_req
                0x00000000100533ac        0x0 Output\obj\platform\bsp\bsp_audio.o
 .rela.text.lc_sp_auth_stg1_randn_handler
                0x00000000100533ac        0x0 Output\obj\platform\bsp\bsp_audio.o
 .rela.text.lc_lmp_feats_update
                0x00000000100533ac        0x0 Output\obj\platform\bsp\bsp_audio.o
 .rela.text.lc_lmp_rate_auto_handler
                0x00000000100533ac        0x0 Output\obj\platform\bsp\bsp_audio.o
 .rela.text.lc_op_pwr_ctrl_to_handler
                0x00000000100533ac        0x0 Output\obj\platform\bsp\bsp_audio.o
 .rela.text.lc_op_max_slot_sync_ind_handler
                0x00000000100533ac        0x0 Output\obj\platform\bsp\bsp_audio.o
 .rela.text.lc_op_hl_cnx_cont_ind_handler
                0x00000000100533ac        0x0 Output\obj\platform\bsp\bsp_audio.o
 .rela.text.lc_op_pt_ind_handler
                0x00000000100533ac        0x0 Output\obj\platform\bsp\bsp_audio.o
 .rela.text.lc_unsniff_cfm_handler
                0x00000000100533ac        0x0 Output\obj\platform\bsp\bsp_audio.o
 .rela.text.lc_afh_switch_cfm_handler
                0x00000000100533ac        0x0 Output\obj\platform\bsp\bsp_audio.o
 .rela.text.lc_lmp_tim_acc_req_handler
                0x00000000100533ac        0x0 Output\obj\platform\bsp\bsp_audio.o
 .rela.text.lc_acl_flow_stop_ind_handler
                0x00000000100533ac        0x0 Output\obj\platform\bsp\bsp_audio.o
 .rela.text.lc_link_sup_to_ind_handler
                0x00000000100533ac        0x0 Output\obj\platform\bsp\bsp_audio.o
 .rela.text.lc_page_fail_ind_handler
                0x00000000100533ac        0x0 Output\obj\platform\bsp\bsp_audio.o
 .rela.text.lc_abort_req_handler
                0x00000000100533ac        0x0 Output\obj\platform\bsp\bsp_audio.o
 .rela.text.lc_page_scan_cfm_handler
                0x00000000100533ac        0x0 Output\obj\platform\bsp\bsp_audio.o
 .rela.text.lc_page_cfm_handler
                0x00000000100533ac        0x0 Output\obj\platform\bsp\bsp_audio.o
 .rela.text.lc_lmp_clk_off_res_handler
                0x00000000100533ac        0x0 Output\obj\platform\bsp\bsp_audio.o
 .rela.text.lc_lmp_rsp_to_ind_handler
                0x00000000100533ac        0x0 Output\obj\platform\bsp\bsp_audio.o
 .rela.text.lc_comp_dhkey_handler
                0x00000000100533ac        0x0 Output\obj\platform\bsp\bsp_audio.o
 .rela.text.lc_sync_ind_handler
                0x00000000100533ac        0x0 Output\obj\platform\bsp\bsp_audio.o
 .rela.text.lc_lmp_max_slot_req_handler
                0x00000000100533ac        0x0 Output\obj\platform\bsp\bsp_audio.o
 .rela.text.lc_ltk_req_rply_handler
                0x00000000100533ac        0x0 Output\obj\platform\bsp\bsp_audio.o
 .rela.text.lc_rej_con_req_handler
                0x00000000100533ac        0x0 Output\obj\platform\bsp\bsp_audio.o
 .rela.text.lc_acc_con_req_handler
                0x00000000100533ac        0x0 Output\obj\platform\bsp\bsp_audio.o
 .rela.text.lc_create_con_can_handler
                0x00000000100533ac        0x0 Output\obj\platform\bsp\bsp_audio.o
 .rela.text.lc_switch_role_handler
                0x00000000100533ac        0x0 Output\obj\platform\bsp\bsp_audio.o
 .rela.text.lc_sniff_mode_cmd_handler
                0x00000000100533ac        0x0 Output\obj\platform\bsp\bsp_audio.o
 .rela.text.lc_auto_sinff_to_handler
                0x00000000100533ac        0x0 Output\obj\platform\bsp\bsp_audio.o
 .rela.text.lc_rd_rem_ext_feats_cmd_handler
                0x00000000100533ac        0x0 Output\obj\platform\bsp\bsp_audio.o
 .rela.text.lc_auth_req_cmd_handler
                0x00000000100533ac        0x0 Output\obj\platform\bsp\bsp_audio.o
 .rela.text.lc_disc_cmd_handler
                0x00000000100533ac        0x0 Output\obj\platform\bsp\bsp_audio.o
 .rela.text.lc_lmp_tx_cfm_handler
                0x00000000100533ac        0x0 Output\obj\platform\bsp\bsp_audio.o
 .rela.text.lc_lmp_pwr_cntl_res_handler
                0x00000000100533ac        0x0 Output\obj\platform\bsp\bsp_audio.o
 .rela.text.lc_lmp_io_cap_req_handler
                0x00000000100533ac        0x0 Output\obj\platform\bsp\bsp_audio.o
 .rela.text.lc_lmp_enc_resume_req_handler
                0x00000000100533ac        0x0 Output\obj\platform\bsp\bsp_audio.o
 .rela.text.lc_lmp_enc_pause_req_handler
                0x00000000100533ac        0x0 Output\obj\platform\bsp\bsp_audio.o
 .rela.text.lc_lmp_ch_class_req_handler
                0x00000000100533ac        0x0 Output\obj\platform\bsp\bsp_audio.o
 .rela.text.lc_lmp_acc_ext_not_handler
                0x00000000100533ac        0x0 Output\obj\platform\bsp\bsp_audio.o
 .rela.text.lc_lmp_acc_ext_handler
                0x00000000100533ac        0x0 Output\obj\platform\bsp\bsp_audio.o
 .rela.text.lc_lmp_vd_ctrl_req_handler
                0x00000000100533ac        0x0 Output\obj\platform\bsp\bsp_audio.o
 .rela.text.lc_lmp_dhkey_chk_handler
                0x00000000100533ac        0x0 Output\obj\platform\bsp\bsp_audio.o
 .rela.text.lc_lmp_sp_nb_handler
                0x00000000100533ac        0x0 Output\obj\platform\bsp\bsp_audio.o
 .rela.text.lc_lmp_encaps_payl_handler
                0x00000000100533ac        0x0 Output\obj\platform\bsp\bsp_audio.o
 .rela.text.lc_lmp_encaps_head_handler
                0x00000000100533ac        0x0 Output\obj\platform\bsp\bsp_audio.o
 .rela.text.lc_lmp_set_afh_handler
                0x00000000100533ac        0x0 Output\obj\platform\bsp\bsp_audio.o
 .rela.text.lc_lmp_enc_key_sz_msk_req_handler
                0x00000000100533ac        0x0 Output\obj\platform\bsp\bsp_audio.o
 .rela.text.lc_lmp_tst_act_handler
                0x00000000100533ac        0x0 Output\obj\platform\bsp\bsp_audio.o
 .rela.text.lc_lmp_hl_con_req_handler
                0x00000000100533ac        0x0 Output\obj\platform\bsp\bsp_audio.o
 .rela.text.lc_lmp_rate_pref_handler
                0x00000000100533ac        0x0 Output\obj\platform\bsp\bsp_audio.o
 .rela.text.lc_lmp_pwr_dec_req_handler
                0x00000000100533ac        0x0 Output\obj\platform\bsp\bsp_audio.o
 .rela.text.lc_lmp_pwr_inc_req_handler
                0x00000000100533ac        0x0 Output\obj\platform\bsp\bsp_audio.o
 .rela.text.lc_lmp_sniff_req_handler
                0x00000000100533ac        0x0 Output\obj\platform\bsp\bsp_audio.o
 .rela.text.lc_lmp_switch_req_handler
                0x00000000100533ac        0x0 Output\obj\platform\bsp\bsp_audio.o
 .rela.text.lc_lmp_enc_stop_req_handler
                0x00000000100533ac        0x0 Output\obj\platform\bsp\bsp_audio.o
 .rela.text.lc_lmp_enc_start_req_handler
                0x00000000100533ac        0x0 Output\obj\platform\bsp\bsp_audio.o
 .rela.text.lc_lmp_enc_key_size_req_handler
                0x00000000100533ac        0x0 Output\obj\platform\bsp\bsp_audio.o
 .rela.text.lc_lmp_enc_mode_req_handler
                0x00000000100533ac        0x0 Output\obj\platform\bsp\bsp_audio.o
 .rela.text.lc_lmp_temp_key_handler
                0x00000000100533ac        0x0 Output\obj\platform\bsp\bsp_audio.o
 .rela.text.lc_lmp_temp_rand_handler
                0x00000000100533ac        0x0 Output\obj\platform\bsp\bsp_audio.o
 .rela.text.lc_lmp_sres_handler
                0x00000000100533ac        0x0 Output\obj\platform\bsp\bsp_audio.o
 .rela.text.lc_lmp_au_rand_handler
                0x00000000100533ac        0x0 Output\obj\platform\bsp\bsp_audio.o
 .rela.text.lc_lmp_unit_key_handler
                0x00000000100533ac        0x0 Output\obj\platform\bsp\bsp_audio.o
 .rela.text.lc_lmp_comb_key_handler
                0x00000000100533ac        0x0 Output\obj\platform\bsp\bsp_audio.o
 .rela.text.lc_lmp_in_rand_handler
                0x00000000100533ac        0x0 Output\obj\platform\bsp\bsp_audio.o
 .rela.text.lc_lmp_acc_not_handler
                0x00000000100533ac        0x0 Output\obj\platform\bsp\bsp_audio.o
 .rela.text.lc_lmp_acc_handler
                0x00000000100533ac        0x0 Output\obj\platform\bsp\bsp_audio.o
 .rela.text.lc_lmp_name_res_handler
                0x00000000100533ac        0x0 Output\obj\platform\bsp\bsp_audio.o
 .rela.text.lc_lmp_name_req_handler
                0x00000000100533ac        0x0 Output\obj\platform\bsp\bsp_audio.o
 .rela.text.lc_op_timacc_ind_handler
                0x00000000100533ac        0x0 Output\obj\platform\bsp\bsp_audio.o
 .rela.text.lc_con_accept_to_handler
                0x00000000100533ac        0x0 Output\obj\platform\bsp\bsp_audio.o
 .rela.text.lc_rej_sync_con_handler
                0x00000000100533ac        0x0 Output\obj\platform\bsp\bsp_audio.o
 .rela.text.lc_acc_sync_con_handler
                0x00000000100533ac        0x0 Output\obj\platform\bsp\bsp_audio.o
 .rela.text.lc_start_page_req_handler
                0x00000000100533ac        0x0 Output\obj\platform\bsp\bsp_audio.o
 .rela.text.lc_setup_sync_con_cmd_handler
                0x00000000100533ac        0x0 Output\obj\platform\bsp\bsp_audio.o
 .rela.text.lc_lmp_esco_lk_rem_req_handler
                0x00000000100533ac        0x0 Output\obj\platform\bsp\bsp_audio.o
 .rela.text.lc_lmp_sco_lk_rem_req_handler
                0x00000000100533ac        0x0 Output\obj\platform\bsp\bsp_audio.o
 .rela.text.lc_lmp_esco_lk_req_handler
                0x00000000100533ac        0x0 Output\obj\platform\bsp\bsp_audio.o
 .rela.text.lc_lmp_sco_lk_req_handler
                0x00000000100533ac        0x0 Output\obj\platform\bsp\bsp_audio.o
 .rela.text.lc_sco_send_peer_disc
                0x00000000100533ac        0x0 Output\obj\platform\bsp\bsp_audio.o
 .rela.text.lc_sco_send_peer_req
                0x00000000100533ac        0x0 Output\obj\platform\bsp\bsp_audio.o
 .rela.text.lc_sco_free_link
                0x00000000100533ac        0x0 Output\obj\platform\bsp\bsp_audio.o
 .rela.text.lc_sco_wrapper_lm_get_sync_param.isra.1
                0x00000000100533ac        0x0 Output\obj\platform\bsp\bsp_audio.o
 .rela.text.lc_sco_host_request
                0x00000000100533ac        0x0 Output\obj\platform\bsp\bsp_audio.o
 .rela.text.lc_sco_host_accept
                0x00000000100533ac        0x0 Output\obj\platform\bsp\bsp_audio.o
 .rela.text.lc_sco_peer_request
                0x00000000100533ac        0x0 Output\obj\platform\bsp\bsp_audio.o
 .rela.text.lc_sco_con_remove
                0x00000000100533ac        0x0 Output\obj\platform\bsp\bsp_audio.o
 .rela.text.lc_sco_con_add
                0x00000000100533ac        0x0 Output\obj\platform\bsp\bsp_audio.o
 .rela.text.lc_sco_start_link
                0x00000000100533ac        0x0 Output\obj\platform\bsp\bsp_audio.o
 .rela.text.lm_init
                0x00000000100533ac        0x0 Output\obj\platform\bsp\bsp_audio.o
 .rela.text.lm_create_con
                0x00000000100533ac        0x0 Output\obj\platform\bsp\bsp_audio.o
 .rela.text.lm_inquiry_sc
                0x00000000100533ac        0x0 Output\obj\platform\bsp\bsp_audio.o
 .rela.text.lm_afh_restart_timer
                0x00000000100533ac        0x0 Output\obj\platform\bsp\bsp_audio.o
 .rela.text.lm_afh_process
                0x00000000100533ac        0x0 Output\obj\platform\bsp\bsp_audio.o
 .rela.text.lm_afh_init
                0x00000000100533ac        0x0 Output\obj\platform\bsp\bsp_audio.o
 .rela.text.lm_wr_sp_dbg_mode_cmd_handler
                0x00000000100533ac        0x0 Output\obj\platform\bsp\bsp_audio.o
 .rela.text.lm_send_key_press_notif_cmd_handler
                0x00000000100533ac        0x0 Output\obj\platform\bsp\bsp_audio.o
 .rela.text.lm_user_pass_key_req_reply_neg_cmd_handler
                0x00000000100533ac        0x0 Output\obj\platform\bsp\bsp_audio.o
 .rela.text.lm_user_pass_key_req_reply_cmd_handler
                0x00000000100533ac        0x0 Output\obj\platform\bsp\bsp_audio.o
 .rela.text.lm_user_cfm_req_reply_neg_cmd_handler
                0x00000000100533ac        0x0 Output\obj\platform\bsp\bsp_audio.o
 .rela.text.lm_user_cfm_req_reply_cmd_handler
                0x00000000100533ac        0x0 Output\obj\platform\bsp\bsp_audio.o
 .rela.text.lm_io_cap_req_reply_neg_cmd_handler
                0x00000000100533ac        0x0 Output\obj\platform\bsp\bsp_audio.o
 .rela.text.lm_io_cap_req_reply_cmd_handler
                0x00000000100533ac        0x0 Output\obj\platform\bsp\bsp_audio.o
 .rela.text.lm_rem_name_req_can_cmd_handler
                0x00000000100533ac        0x0 Output\obj\platform\bsp\bsp_audio.o
 .rela.text.lm_pin_code_reply_neg_cmd_handler
                0x00000000100533ac        0x0 Output\obj\platform\bsp\bsp_audio.o
 .rela.text.lm_pin_code_reply_cmd_handler
                0x00000000100533ac        0x0 Output\obj\platform\bsp\bsp_audio.o
 .rela.text.lm_link_key_reply_neg_cmd_handler
                0x00000000100533ac        0x0 Output\obj\platform\bsp\bsp_audio.o
 .rela.text.lm_link_key_reply_cmd_handler
                0x00000000100533ac        0x0 Output\obj\platform\bsp\bsp_audio.o
 .rela.text.lm_create_cnx_can_cmd_handler
                0x00000000100533ac        0x0 Output\obj\platform\bsp\bsp_audio.o
 .rela.text.lm_wr_sp_mode_cmd_handler
                0x00000000100533ac        0x0 Output\obj\platform\bsp\bsp_audio.o
 .rela.text.lm_rd_sp_mode_cmd_handler
                0x00000000100533ac        0x0 Output\obj\platform\bsp\bsp_audio.o
 .rela.text.lm_wr_ext_inq_rsp_cmd_handler
                0x00000000100533ac        0x0 Output\obj\platform\bsp\bsp_audio.o
 .rela.text.lm_rd_ext_inq_rsp_cmd_handler
                0x00000000100533ac        0x0 Output\obj\platform\bsp\bsp_audio.o
 .rela.text.lm_wr_page_to_cmd_handler
                0x00000000100533ac        0x0 Output\obj\platform\bsp\bsp_audio.o
 .rela.text.lm_wr_pin_type_cmd_handler
                0x00000000100533ac        0x0 Output\obj\platform\bsp\bsp_audio.o
 .rela.text.lm_create_cnx_cmd_handler
                0x00000000100533ac        0x0 Output\obj\platform\bsp\bsp_audio.o
 .rela.text.lm_host_buff_size_cmd_handler
                0x00000000100533ac        0x0 Output\obj\platform\bsp\bsp_audio.o
 .rela.text.lm_set_evt_msk_cmd_handler
                0x00000000100533ac        0x0 Output\obj\platform\bsp\bsp_audio.o
 .rela.text.lm_rd_local_supp_cmds_cmd_handler
                0x00000000100533ac        0x0 Output\obj\platform\bsp\bsp_audio.o
 .rela.text.lm_inq_rslt_ext_ind_handler
                0x00000000100533ac        0x0 Output\obj\platform\bsp\bsp_audio.o
 .rela.text.lm_page_fail_ind_handler
                0x00000000100533ac        0x0 Output\obj\platform\bsp\bsp_audio.o
 .rela.text.lm_inq_scan_to_handler
                0x00000000100533ac        0x0 Output\obj\platform\bsp\bsp_audio.o
 .rela.text.lm_inq_to_handler
                0x00000000100533ac        0x0 Output\obj\platform\bsp\bsp_audio.o
 .rela.text.lm_switch_role_cmd_handler
                0x00000000100533ac        0x0 Output\obj\platform\bsp\bsp_audio.o
 .rela.text.lm_reject_con_sync_cmd_handler
                0x00000000100533ac        0x0 Output\obj\platform\bsp\bsp_audio.o
 .rela.text.lm_reject_con_cmd_handler
                0x00000000100533ac        0x0 Output\obj\platform\bsp\bsp_audio.o
 .rela.text.lm_accept_con_sync_cmd_handler
                0x00000000100533ac        0x0 Output\obj\platform\bsp\bsp_audio.o
 .rela.text.lm_accept_con_cmd_handler
                0x00000000100533ac        0x0 Output\obj\platform\bsp\bsp_audio.o
 .rela.text.lm_remote_name_cmd_handler
                0x00000000100533ac        0x0 Output\obj\platform\bsp\bsp_audio.o
 .rela.text.lm_host_nb_comp_pkts_cmd_handler
                0x00000000100533ac        0x0 Output\obj\platform\bsp\bsp_audio.o
 .rela.text.lm_get_sync_offset.isra.12
                0x00000000100533ac        0x0 Output\obj\platform\bsp\bsp_audio.o
 .rela.text.lm_remove_sync
                0x00000000100533ac        0x0 Output\obj\platform\bsp\bsp_audio.o
 .rela.text.unlikely.lm_get_sniff_timing
                0x00000000100533ac        0x0 Output\obj\platform\bsp\bsp_audio.o
 .rela.text.lm_add_sniff
                0x00000000100533ac        0x0 Output\obj\platform\bsp\bsp_audio.o
 .rela.text.lm_remove_sniff
                0x00000000100533ac        0x0 Output\obj\platform\bsp\bsp_audio.o
 .rela.text.lm_set_encap_pdu_data
                0x00000000100533ac        0x0 Output\obj\platform\bsp\bsp_audio.o
 .rela.text.lm_get_nonce
                0x00000000100533ac        0x0 Output\obj\platform\bsp\bsp_audio.o
 .rela.text.lm_f1
                0x00000000100533ac        0x0 Output\obj\platform\bsp\bsp_audio.o
 .rela.text.lm_oob_f1
                0x00000000100533ac        0x0 Output\obj\platform\bsp\bsp_audio.o
 .rela.text.lm_g
                0x00000000100533ac        0x0 Output\obj\platform\bsp\bsp_audio.o
 .rela.text.lm_f3
                0x00000000100533ac        0x0 Output\obj\platform\bsp\bsp_audio.o
 .rela.text.lm_f2
                0x00000000100533ac        0x0 Output\obj\platform\bsp\bsp_audio.o
 .rela.text.lm_dhkey_calc_init
                0x00000000100533ac        0x0 Output\obj\platform\bsp\bsp_audio.o
 .rela.text.lm_dhkey_compare
                0x00000000100533ac        0x0 Output\obj\platform\bsp\bsp_audio.o
 .rela.text.bb_conhdl_acl_delete
                0x00000000100533ac        0x0 Output\obj\platform\bsp\bsp_audio.o
 .rela.com_text.nanos
                0x00000000100533ac        0x0 Output\obj\platform\bsp\bsp_audio.o
 .rela.text.hci_tx_start
                0x00000000100533ac        0x0 Output\obj\platform\bsp\bsp_audio.o
 .rela.text.hci_cmd_dispatch
                0x00000000100533ac        0x0 Output\obj\platform\bsp\bsp_audio.o
 .rela.text.btstack_disconnect_for_handle
                0x00000000100533ac        0x0 Output\obj\platform\bsp\bsp_audio.o
 .rela.text.btstack_tws_key
                0x00000000100533ac        0x0 Output\obj\platform\bsp\bsp_audio.o
 .rela.text.btstack_tws_slave_key
                0x00000000100533ac        0x0 Output\obj\platform\bsp\bsp_audio.o
 .rela.text.stack.handler
                0x00000000100533ac        0x0 Output\obj\platform\bsp\bsp_audio.o
 .rela.text.btstack_audio_bypass
                0x00000000100533ac        0x0 Output\obj\platform\bsp\bsp_audio.o
 .rela.text.btstack_audio_enable
                0x00000000100533ac        0x0 Output\obj\platform\bsp\bsp_audio.o
 .rela.text.stack.sleep
                0x00000000100533ac        0x0 Output\obj\platform\bsp\bsp_audio.o
 .rela.com_text.stack.api
                0x00000000100533ac        0x0 Output\obj\platform\bsp\bsp_audio.o
 .rela.text.btstack_establish_service_connection
                0x00000000100533ac        0x0 Output\obj\platform\bsp\bsp_audio.o
 .rela.text.btstack_continue_establish_service_connection
                0x00000000100533ac        0x0 Output\obj\platform\bsp\bsp_audio.o
 .rela.text.btstack_tws_connect
                0x00000000100533ac        0x0 Output\obj\platform\bsp\bsp_audio.o
 .rela.text.btstack_nor_connect
                0x00000000100533ac        0x0 Output\obj\platform\bsp\bsp_audio.o
 .rela.text.btstack_tws_disc_continue
                0x00000000100533ac        0x0 Output\obj\platform\bsp\bsp_audio.o
 .rela.text.btstack_clr_dis_flag
                0x00000000100533ac        0x0 Output\obj\platform\bsp\bsp_audio.o
 .rela.text.btstack_clr_l2cap_status
                0x00000000100533ac        0x0 Output\obj\platform\bsp\bsp_audio.o
 .rela.text.btstack_set_hfp_status_ptr
                0x00000000100533ac        0x0 Output\obj\platform\bsp\bsp_audio.o
 .rela.text.btstack_clr_hfp_status_ptr
                0x00000000100533ac        0x0 Output\obj\platform\bsp\bsp_audio.o
 .rela.text.le_is_connect
                0x00000000100533ac        0x0 Output\obj\platform\bsp\bsp_audio.o
 .rela.text.stack.setup
                0x00000000100533ac        0x0 Output\obj\platform\bsp\bsp_audio.o
 .rela.text.btstack_tws_search_slave
                0x00000000100533ac        0x0 Output\obj\platform\bsp\bsp_audio.o
 .rela.com_text.sco
                0x00000000100533ac        0x0 Output\obj\platform\bsp\bsp_audio.o
 .rela.text.btstack_wait_wakeup
                0x00000000100533ac        0x0 Output\obj\platform\bsp\bsp_audio.o
 .rela.text.btstack_sco_setup
                0x00000000100533ac        0x0 Output\obj\platform\bsp\bsp_audio.o
 .rela.text.btstack_sco_kill
                0x00000000100533ac        0x0 Output\obj\platform\bsp\bsp_audio.o
 .rela.text.btstack_audio_is_busy
                0x00000000100533ac        0x0 Output\obj\platform\bsp\bsp_audio.o
 .rela.text.btstack_audio_set_busy
                0x00000000100533ac        0x0 Output\obj\platform\bsp\bsp_audio.o
 .rela.text.btstack_set_lmp_test
                0x00000000100533ac        0x0 Output\obj\platform\bsp\bsp_audio.o
 .rela.text.btstack_tws_hfp_vol
                0x00000000100533ac        0x0 Output\obj\platform\bsp\bsp_audio.o
 .rela.text.tws_remote_is_busy
                0x00000000100533ac        0x0 Output\obj\platform\bsp\bsp_audio.o
 .rela.text.tws_remote_set_key
                0x00000000100533ac        0x0 Output\obj\platform\bsp\bsp_audio.o
 .rela.text.tws_remote_set_status
                0x00000000100533ac        0x0 Output\obj\platform\bsp\bsp_audio.o
 .rela.text.tws_remote_set_profile_status
                0x00000000100533ac        0x0 Output\obj\platform\bsp\bsp_audio.o
 .rela.text.btstack_get_conn_feature
                0x00000000100533ac        0x0 Output\obj\platform\bsp\bsp_audio.o
 .rela.text.btstack_set_conn_feature
                0x00000000100533ac        0x0 Output\obj\platform\bsp\bsp_audio.o
 .rela.text.btstack_get_tws_scan_en
                0x00000000100533ac        0x0 Output\obj\platform\bsp\bsp_audio.o
 .rela.rodata.stack.api
                0x00000000100533ac        0x0 Output\obj\platform\bsp\bsp_audio.o
 .rela.text.chipset_set_bd_addr_command
                0x00000000100533ac        0x0 Output\obj\platform\bsp\bsp_audio.o
 .rela.com_text.stack.ticks
                0x00000000100533ac        0x0 Output\obj\platform\bsp\bsp_audio.o
 .rela.com_text.stack.uart_isr
                0x00000000100533ac        0x0 Output\obj\platform\bsp\bsp_audio.o
 .rela.text.stack.hal
                0x00000000100533ac        0x0 Output\obj\platform\bsp\bsp_audio.o
 .rela.text.stack.hcic
                0x00000000100533ac        0x0 Output\obj\platform\bsp\bsp_audio.o
 .rela.text.hcic_recv_packet
                0x00000000100533ac        0x0 Output\obj\platform\bsp\bsp_audio.o
 .rela.text.hci_init_var
                0x00000000100533ac        0x0 Output\obj\platform\bsp\bsp_audio.o
 .rela.text.bt_get_class_of_device
                0x00000000100533ac        0x0 Output\obj\platform\bsp\bsp_audio.o
 .rela.text.stack.linkctrl
                0x00000000100533ac        0x0 Output\obj\platform\bsp\bsp_audio.o
 .rela.text.btstack_link_ctrl_stop_timer
                0x00000000100533ac        0x0 Output\obj\platform\bsp\bsp_audio.o
 .rela.text.btstack_link_ctrl_set_timer
                0x00000000100533ac        0x0 Output\obj\platform\bsp\bsp_audio.o
 .rela.text.link_ctrl_timer_handler
                0x00000000100533ac        0x0 Output\obj\platform\bsp\bsp_audio.o
 .rela.text.stack.memory
                0x00000000100533ac        0x0 Output\obj\platform\bsp\bsp_audio.o
 .rela.text.stack.run_loop
                0x00000000100533ac        0x0 Output\obj\platform\bsp\bsp_audio.o
 .rela.text.tws_start_inq
                0x00000000100533ac        0x0 Output\obj\platform\bsp\bsp_audio.o
 .rela.text.tws_start_pair
                0x00000000100533ac        0x0 Output\obj\platform\bsp\bsp_audio.o
 .rela.text.btstack_tws_timer_handler
                0x00000000100533ac        0x0 Output\obj\platform\bsp\bsp_audio.o
 .rela.text.btstack_tws_continue_connect
                0x00000000100533ac        0x0 Output\obj\platform\bsp\bsp_audio.o
 .rela.text.tws.init
                0x00000000100533ac        0x0 Output\obj\platform\bsp\bsp_audio.o
 .rela.text.handle_query_a2dp_event
                0x00000000100533ac        0x0 Output\obj\platform\bsp\bsp_audio.o
 .rela.text.remove_a2dp_connection_context
                0x00000000100533ac        0x0 Output\obj\platform\bsp\bsp_audio.o
 .rela.text.provide_a2dp_connection_context_for_bd_addr
                0x00000000100533ac        0x0 Output\obj\platform\bsp\bsp_audio.o
 .rela.text.a2dp_establish_service_level_connection
                0x00000000100533ac        0x0 Output\obj\platform\bsp\bsp_audio.o
 .rela.text.a2dp_run_for_release
                0x00000000100533ac        0x0 Output\obj\platform\bsp\bsp_audio.o
 .rela.text.a2dp_search_os_capacity
                0x00000000100533ac        0x0 Output\obj\platform\bsp\bsp_audio.o
 .rela.text.a2dp_is_avctp_ctrl
                0x00000000100533ac        0x0 Output\obj\platform\bsp\bsp_audio.o
 .rela.text.a2dp_init
                0x00000000100533ac        0x0 Output\obj\platform\bsp\bsp_audio.o
 .rela.text.a2dp_init_var
                0x00000000100533ac        0x0 Output\obj\platform\bsp\bsp_audio.o
 .rela.com_text.sbc.play
                0x00000000100533ac        0x0 Output\obj\platform\bsp\bsp_audio.o
 .rela.text.sbc.play
                0x00000000100533ac        0x0 Output\obj\platform\bsp\bsp_audio.o
 .rela.com_text.sbc_cache
                0x00000000100533ac        0x0 Output\obj\platform\bsp\bsp_audio.o
 .rela.sbcdec.code
                0x00000000100533ac        0x0 Output\obj\platform\bsp\bsp_audio.o
 .rela.com_text.sbc_play
                0x00000000100533ac        0x0 Output\obj\platform\bsp\bsp_audio.o
 .rela.text.tws_remote_set_volume
                0x00000000100533ac        0x0 Output\obj\platform\bsp\bsp_audio.o
 .rela.text.tws_remote_set_func_id
                0x00000000100533ac        0x0 Output\obj\platform\bsp\bsp_audio.o
 .rela.text.tws_set_volume
                0x00000000100533ac        0x0 Output\obj\platform\bsp\bsp_audio.o
 .rela.text.tws_set_func_id
                0x00000000100533ac        0x0 Output\obj\platform\bsp\bsp_audio.o
 .rela.text.tws_send_key
                0x00000000100533ac        0x0 Output\obj\platform\bsp\bsp_audio.o
 .rela.text.tws_report_status
                0x00000000100533ac        0x0 Output\obj\platform\bsp\bsp_audio.o
 .rela.text.tws_report_profile_status
                0x00000000100533ac        0x0 Output\obj\platform\bsp\bsp_audio.o
 .rela.text.tws_set_spr
                0x00000000100533ac        0x0 Output\obj\platform\bsp\bsp_audio.o
 .rela.com_text.a2dp_play
                0x00000000100533ac        0x0 Output\obj\platform\bsp\bsp_audio.o
 .rela.text.tws_set_speed_thres
                0x00000000100533ac        0x0 Output\obj\platform\bsp\bsp_audio.o
 .rela.text.tws_set_speed
                0x00000000100533ac        0x0 Output\obj\platform\bsp\bsp_audio.o
 .rela.text.tws_play_adj
                0x00000000100533ac        0x0 Output\obj\platform\bsp\bsp_audio.o
 .rela.text.tws_play_stop
                0x00000000100533ac        0x0 Output\obj\platform\bsp\bsp_audio.o
 .rela.text.tws_play_suspend
                0x00000000100533ac        0x0 Output\obj\platform\bsp\bsp_audio.o
 .rela.text.tws_play_resume
                0x00000000100533ac        0x0 Output\obj\platform\bsp\bsp_audio.o
 .rela.com_text.sbc.send
                0x00000000100533ac        0x0 Output\obj\platform\bsp\bsp_audio.o
 .rela.text.avctp_timer_play_handler
                0x00000000100533ac        0x0 Output\obj\platform\bsp\bsp_audio.o
 .rela.text.avctp_send_req
                0x00000000100533ac        0x0 Output\obj\platform\bsp\bsp_audio.o
 .rela.text.avctp_send_rsp
                0x00000000100533ac        0x0 Output\obj\platform\bsp\bsp_audio.o
 .rela.text.avrcp_parse_cmd
                0x00000000100533ac        0x0 Output\obj\platform\bsp\bsp_audio.o
 .rela.text.avctp_state_machine
                0x00000000100533ac        0x0 Output\obj\platform\bsp\bsp_audio.o
 .rela.text.avctp_play_pause_for_conn
                0x00000000100533ac        0x0 Output\obj\platform\bsp\bsp_audio.o
 .rela.text.avctp_player_ctrl_for_conn
                0x00000000100533ac        0x0 Output\obj\platform\bsp\bsp_audio.o
 .rela.text.avctp_volume_change_for_conn
                0x00000000100533ac        0x0 Output\obj\platform\bsp\bsp_audio.o
 .rela.text.avrcp_parse_rsp
                0x00000000100533ac        0x0 Output\obj\platform\bsp\bsp_audio.o
 .rela.text.avctp_packet_handler
                0x00000000100533ac        0x0 Output\obj\platform\bsp\bsp_audio.o
 .rela.text.avctp_channel_create
                0x00000000100533ac        0x0 Output\obj\platform\bsp\bsp_audio.o
 .rela.text.avdtp_tws_set_spr
                0x00000000100533ac        0x0 Output\obj\platform\bsp\bsp_audio.o
 .rela.text.avdtp_tx_cmd
                0x00000000100533ac        0x0 Output\obj\platform\bsp\bsp_audio.o
 .rela.text.avdtp_tx_discover_cmd
                0x00000000100533ac        0x0 Output\obj\platform\bsp\bsp_audio.o
 .rela.text.avdtp_tx_setconf_cmd
                0x00000000100533ac        0x0 Output\obj\platform\bsp\bsp_audio.o
 .rela.text.avdtp_signal_state_machine
                0x00000000100533ac        0x0 Output\obj\platform\bsp\bsp_audio.o
 .rela.text.avdtp_signal_channel_create
                0x00000000100533ac        0x0 Output\obj\platform\bsp\bsp_audio.o
 .rela.text.avdtp_media_channel_create
                0x00000000100533ac        0x0 Output\obj\platform\bsp\bsp_audio.o
 .rela.com_text.stack.sbc
                0x00000000100533ac        0x0 Output\obj\platform\bsp\bsp_audio.o
 .rela.text.avdtp_end_of_play
                0x00000000100533ac        0x0 Output\obj\platform\bsp\bsp_audio.o
 .rela.text.avdtp_packet_handler
                0x00000000100533ac        0x0 Output\obj\platform\bsp\bsp_audio.o
 .rela.text.remove_hfp_connection_context
                0x00000000100533ac        0x0 Output\obj\platform\bsp\bsp_audio.o
 .rela.text.send_str_over_rfcomm
                0x00000000100533ac        0x0 Output\obj\platform\bsp\bsp_audio.o
 .rela.text.handle_query_rfcomm_event
                0x00000000100533ac        0x0 Output\obj\platform\bsp\bsp_audio.o
 .rela.text.create_hfp_connection_context
                0x00000000100533ac        0x0 Output\obj\platform\bsp\bsp_audio.o
 .rela.text.hfp_parse
                0x00000000100533ac        0x0 Output\obj\platform\bsp\bsp_audio.o
 .rela.text.hfp_establish_service_level_connection
                0x00000000100533ac        0x0 Output\obj\platform\bsp\bsp_audio.o
 .rela.text.hfp_handle_hci_event
                0x00000000100533ac        0x0 Output\obj\platform\bsp\bsp_audio.o
 .rela.text.hfp_release_service_level_connection
                0x00000000100533ac        0x0 Output\obj\platform\bsp\bsp_audio.o
 .rela.text.hfp_setup_synchronous_connection
                0x00000000100533ac        0x0 Output\obj\platform\bsp\bsp_audio.o
 .rela.text.hfp_hf_switch_on_ok
                0x00000000100533ac        0x0 Output\obj\platform\bsp\bsp_audio.o
 .rela.text.hfp_run_for_context
                0x00000000100533ac        0x0 Output\obj\platform\bsp\bsp_audio.o
 .rela.text.hfp_hf_packet_handler
                0x00000000100533ac        0x0 Output\obj\platform\bsp\bsp_audio.o
 .rela.text.hfp_hf_init
                0x00000000100533ac        0x0 Output\obj\platform\bsp\bsp_audio.o
 .rela.text.hid_packet_handler
                0x00000000100533ac        0x0 Output\obj\platform\bsp\bsp_audio.o
 .rela.text.bt_hid_is_connected
                0x00000000100533ac        0x0 Output\obj\platform\bsp\bsp_audio.o
 .rela.text.hid_device_init
                0x00000000100533ac        0x0 Output\obj\platform\bsp\bsp_audio.o
 .rela.text.hid_device_request_can_send_now_event
                0x00000000100533ac        0x0 Output\obj\platform\bsp\bsp_audio.o
 .rela.text.hid_device_send_interrupt_message
                0x00000000100533ac        0x0 Output\obj\platform\bsp\bsp_audio.o
 .rela.text.hid_device_send_contro_message
                0x00000000100533ac        0x0 Output\obj\platform\bsp\bsp_audio.o
 .rela.text.hid_establish_service_level_connection
                0x00000000100533ac        0x0 Output\obj\platform\bsp\bsp_audio.o
 .rela.text.hid_release_service_level_connection
                0x00000000100533ac        0x0 Output\obj\platform\bsp\bsp_audio.o
 .rela.text.stack.rfcomm
                0x00000000100533ac        0x0 Output\obj\platform\bsp\bsp_audio.o
 .rela.text.rfcomm_multiplexer_create_for_addr
                0x00000000100533ac        0x0 Output\obj\platform\bsp\bsp_audio.o
 .rela.text.rfcomm_channel_create
                0x00000000100533ac        0x0 Output\obj\platform\bsp\bsp_audio.o
 .rela.text.rfcomm_channel_create_internal
                0x00000000100533ac        0x0 Output\obj\platform\bsp\bsp_audio.o
 .rela.text.rfcomm_channel_can_send.part.8
                0x00000000100533ac        0x0 Output\obj\platform\bsp\bsp_audio.o
 .rela.text.rfcomm_notify_channel_can_send
                0x00000000100533ac        0x0 Output\obj\platform\bsp\bsp_audio.o
 .rela.text.rfcomm_channel_finalize
                0x00000000100533ac        0x0 Output\obj\platform\bsp\bsp_audio.o
 .rela.text.rfcomm_multiplexer_finalize
                0x00000000100533ac        0x0 Output\obj\platform\bsp\bsp_audio.o
 .rela.text.rfcomm_multiplexer_timer_handler
                0x00000000100533ac        0x0 Output\obj\platform\bsp\bsp_audio.o
 .rela.text.rfcomm_request_can_send_now_event
                0x00000000100533ac        0x0 Output\obj\platform\bsp\bsp_audio.o
 .rela.text.rfcomm_reserve_packet_buffer
                0x00000000100533ac        0x0 Output\obj\platform\bsp\bsp_audio.o
 .rela.text.rfcomm_release_packet_buffer
                0x00000000100533ac        0x0 Output\obj\platform\bsp\bsp_audio.o
 .rela.text.rfcomm_get_outgoing_buffer
                0x00000000100533ac        0x0 Output\obj\platform\bsp\bsp_audio.o
 .rela.text.rfcomm_disconnect
                0x00000000100533ac        0x0 Output\obj\platform\bsp\bsp_audio.o
 .rela.text.rfcomm_unregister_service
                0x00000000100533ac        0x0 Output\obj\platform\bsp\bsp_audio.o
 .rela.text.rfcomm_accept_connection
                0x00000000100533ac        0x0 Output\obj\platform\bsp\bsp_audio.o
 .rela.text.rfcomm_decline_connection
                0x00000000100533ac        0x0 Output\obj\platform\bsp\bsp_audio.o
 .rela.text.rfcomm_grant_credits
                0x00000000100533ac        0x0 Output\obj\platform\bsp\bsp_audio.o
 .rela.text.rfcomm_send_prepared
                0x00000000100533ac        0x0 Output\obj\platform\bsp\bsp_audio.o
 .rela.text.rfcomm_send
                0x00000000100533ac        0x0 Output\obj\platform\bsp\bsp_audio.o
 .rela.text.rfcomm_send_packet_for_multiplexer.isra.12
                0x00000000100533ac        0x0 Output\obj\platform\bsp\bsp_audio.o
 .rela.text.rfcomm_channel_state_machine_with_channel
                0x00000000100533ac        0x0 Output\obj\platform\bsp\bsp_audio.o
 .rela.text.rfcomm_multiplexer_opened
                0x00000000100533ac        0x0 Output\obj\platform\bsp\bsp_audio.o
 .rela.text.rfcomm_channel_state_machine_with_dlci
                0x00000000100533ac        0x0 Output\obj\platform\bsp\bsp_audio.o
 .rela.text.rfcomm_packet_handler
                0x00000000100533ac        0x0 Output\obj\platform\bsp\bsp_audio.o
 .rela.text.de_state_size
                0x00000000100533ac        0x0 Output\obj\platform\bsp\bsp_audio.o
 .rela.text.sdp_parser_handle_done
                0x00000000100533ac        0x0 Output\obj\platform\bsp\bsp_audio.o
 .rela.text.sdp_client_packet_handler
                0x00000000100533ac        0x0 Output\obj\platform\bsp\bsp_audio.o
 .rela.text.sdp_client_query
                0x00000000100533ac        0x0 Output\obj\platform\bsp\bsp_audio.o
 .rela.text.stack.sdp.server
                0x00000000100533ac        0x0 Output\obj\platform\bsp\bsp_audio.o
 .rela.text.remove_spp_connection_context
                0x00000000100533ac        0x0 Output\obj\platform\bsp\bsp_audio.o
 .rela.text.provide_spp_connection_context_for_bd_addr.part.1
                0x00000000100533ac        0x0 Output\obj\platform\bsp\bsp_audio.o
 .rela.text.spp_release_service_level_connection
                0x00000000100533ac        0x0 Output\obj\platform\bsp\bsp_audio.o
 .rela.text.spp_init
                0x00000000100533ac        0x0 Output\obj\platform\bsp\bsp_audio.o
 .rela.text.stack.hci
                0x00000000100533ac        0x0 Output\obj\platform\bsp\bsp_audio.o
 .rela.text.stack.hci_init
                0x00000000100533ac        0x0 Output\obj\platform\bsp\bsp_audio.o
 .rela.text.hci_shutdown_connection
                0x00000000100533ac        0x0 Output\obj\platform\bsp\bsp_audio.o
 .rela.text.stack.hci.conn
                0x00000000100533ac        0x0 Output\obj\platform\bsp\bsp_audio.o
 .rela.com_text.stack.hci
                0x00000000100533ac        0x0 Output\obj\platform\bsp\bsp_audio.o
 .rela.text.stack.hci_send
                0x00000000100533ac        0x0 Output\obj\platform\bsp\bsp_audio.o
 .rela.text.hci_initialization_timeout_handler
                0x00000000100533ac        0x0 Output\obj\platform\bsp\bsp_audio.o
 .rela.text.hci_event_scan_ctrl
                0x00000000100533ac        0x0 Output\obj\platform\bsp\bsp_audio.o
 .rela.text.hci_setup_sync
                0x00000000100533ac        0x0 Output\obj\platform\bsp\bsp_audio.o
 .rela.text.stack.handler.event
                0x00000000100533ac        0x0 Output\obj\platform\bsp\bsp_audio.o
 .rela.text.stack.handler.l2cap
                0x00000000100533ac        0x0 Output\obj\platform\bsp\bsp_audio.o
 .rela.text.stack.l2cap
                0x00000000100533ac        0x0 Output\obj\platform\bsp\bsp_audio.o
 .rela.text.l2cap_send_test_cmd
                0x00000000100533ac        0x0 Output\obj\platform\bsp\bsp_audio.o
 .rela.text.l2cap_send_test_key
                0x00000000100533ac        0x0 Output\obj\platform\bsp\bsp_audio.o
 .rela.text.l2cap_create_channel
                0x00000000100533ac        0x0 Output\obj\platform\bsp\bsp_audio.o
 .rela.text.l2cap_unregister_service
                0x00000000100533ac        0x0 Output\obj\platform\bsp\bsp_audio.o
 .rela.text.l2cap_end_of_test
                0x00000000100533ac        0x0 Output\obj\platform\bsp\bsp_audio.o
 .rela.text.l2cap_test_cmd
                0x00000000100533ac        0x0 Output\obj\platform\bsp\bsp_audio.o
 .rela.text.l2cap_vd_test_can_send_now
                0x00000000100533ac        0x0 Output\obj\platform\bsp\bsp_audio.o
 .rela.text.vd_test_packet_handler
                0x00000000100533ac        0x0 Output\obj\platform\bsp\bsp_audio.o
 .rela.text.btstack_ota_read
                0x00000000100533ac        0x0 Output\obj\platform\bsp\bsp_audio.o
 .rela.text.btstack_ota_status
                0x00000000100533ac        0x0 Output\obj\platform\bsp\bsp_audio.o
 .rela.text.fsdisk_callback_init
                0x00000000100533ac        0x0 Output\obj\platform\bsp\bsp_audio.o
 .rela.text.disk_initialize
                0x00000000100533ac        0x0 Output\obj\platform\bsp\bsp_audio.o
 .rela.text.disk_readp
                0x00000000100533ac        0x0 Output\obj\platform\bsp\bsp_audio.o
 .rela.text.disk_writep
                0x00000000100533ac        0x0 Output\obj\platform\bsp\bsp_audio.o
 .rela.text.move_window
                0x00000000100533ac        0x0 Output\obj\platform\bsp\bsp_audio.o
 .rela.text.dir_register_exfat
                0x00000000100533ac        0x0 Output\obj\platform\bsp\bsp_audio.o
 .rela.text.pf_mount
                0x00000000100533ac        0x0 Output\obj\platform\bsp\bsp_audio.o
 .rela.text.pf_open
                0x00000000100533ac        0x0 Output\obj\platform\bsp\bsp_audio.o
 .rela.text.pf_mkdir
                0x00000000100533ac        0x0 Output\obj\platform\bsp\bsp_audio.o
 .rela.text.pf_read_do
                0x00000000100533ac        0x0 Output\obj\platform\bsp\bsp_audio.o
 .rela.text.pf_lseek
                0x00000000100533ac        0x0 Output\obj\platform\bsp\bsp_audio.o
 .rela.text.usb_device_init
                0x00000000100533ac        0x0 Output\obj\platform\bsp\bsp_audio.o
 .rela.text.usb_device_enter
                0x00000000100533ac        0x0 Output\obj\platform\bsp\bsp_audio.o
 .rela.com_text.usb.device
                0x00000000100533ac        0x0 Output\obj\platform\bsp\bsp_audio.o
 .rela.text.usb_host_var_init
                0x00000000100533ac        0x0 Output\obj\platform\bsp\bsp_audio.o
 .rela.text.uhs_is_iphone
                0x00000000100533ac        0x0 Output\obj\platform\bsp\bsp_audio.o
 .rela.text.usb.host.init
                0x00000000100533ac        0x0 Output\obj\platform\bsp\bsp_audio.o
 .rela.text.udisk_suspend
                0x00000000100533ac        0x0 Output\obj\platform\bsp\bsp_audio.o
 .rela.text.udisk_resume
                0x00000000100533ac        0x0 Output\obj\platform\bsp\bsp_audio.o
 .rela.com_text.usb.host
                0x00000000100533ac        0x0 Output\obj\platform\bsp\bsp_audio.o
 .rela.text.udisk_read
                0x00000000100533ac        0x0 Output\obj\platform\bsp\bsp_audio.o
 .rela.text.udisk_write
                0x00000000100533ac        0x0 Output\obj\platform\bsp\bsp_audio.o
 .rela.text.do_receive
                0x00000000100533ac        0x0 Output\obj\platform\bsp\bsp_audio.o
 .rela.text.uhs_start
                0x00000000100533ac        0x0 Output\obj\platform\bsp\bsp_audio.o
 .rela.text.uhs_init
                0x00000000100533ac        0x0 Output\obj\platform\bsp\bsp_audio.o
 .rela.text.usb_init
                0x00000000100533ac        0x0 Output\obj\platform\bsp\bsp_audio.o
 .rela.text.usb_host_enter
                0x00000000100533ac        0x0 Output\obj\platform\bsp\bsp_audio.o
 .rela.com_text.usbdev
                0x00000000100533ac        0x0 Output\obj\platform\bsp\bsp_audio.o
 .rela.com_text.avio
                0x00000000100533ac        0x0 Output\obj\platform\bsp\bsp_audio.o
 .rela.com_text.dac.drc
                0x00000000100533ac        0x0 Output\obj\platform\bsp\bsp_audio.o
 .rela.text.dac.drc.init
                0x00000000100533ac        0x0 Output\obj\platform\bsp\bsp_audio.o
 .rela.text.mav
                0x00000000100533ac        0x0 Output\obj\platform\bsp\bsp_audio.o
 .rela.mp3dec.dec
                0x00000000100533ac        0x0 Output\obj\platform\bsp\bsp_audio.o
 .rela.sbcdec.init
                0x00000000100533ac        0x0 Output\obj\platform\bsp\bsp_audio.o
 .rela.text.msbc.init
                0x00000000100533ac        0x0 Output\obj\platform\bsp\bsp_audio.o
 .rela.text     0x00000000100533ac        0x0 Output\obj\platform\bsp\bsp_audio.o
 .rela.mp3dec.frame
                0x00000000100533ac        0x0 Output\obj\platform\bsp\bsp_audio.o
 .rela.mp3dec.layer2
                0x00000000100533ac        0x0 Output\obj\platform\bsp\bsp_audio.o
 .rela.mp3dec.layer1
                0x00000000100533ac        0x0 Output\obj\platform\bsp\bsp_audio.o
 .rela.mp3dec.layer3
                0x00000000100533ac        0x0 Output\obj\platform\bsp\bsp_audio.o
                0x00000000100533ac        0x4 LONG 0x0
                0x0000000010053400                . = ALIGN (0x200)
 *fill*         0x00000000100533b0       0x50 

.stack          0x0000000000010800      0x400
                0x0000000000010800                __irq_stack_start = .
                0x0000000000000400                . = 0x400
 *fill*         0x0000000000010800      0x400 
                0x0000000000010c00                __irq_stack = .
                0x0000000000000400                __irq_stack_size = (__irq_stack - __irq_stack_start)

.fram_a2dp      0x0000000000017000      0xf78
 *(.bss.a2dp_play)
 .bss.a2dp_play
                0x0000000000017000      0xf78 ..\..\platform\libs\libbtstack.a(a2dp_play.o)

.fram_buf       0x0000000000017000      0x4cc
 *(.buf.mp3)
 .buf.mp3       0x0000000000017000      0x406 ..\..\platform\libs\libcodecs.a(mp3_dec.o)
                0x0000000000017000                mp3_bitpool
 *(.buf.deccom)
 *fill*         0x0000000000017406        0x2 
 .buf.deccom    0x0000000000017408       0x1c ..\..\platform\libs\libcodecs.a(codecs_com.o)
                0x0000000000017408                codec_info
                0x000000000001740c                qskip
 *(.buf.fmrx.cb)
 .buf.fmrx.cb   0x0000000000017424       0x24 Output\obj\platform\functions\func_fmrx.o
                0x0000000000017424                fmrx_cb
 *(.buf.sbcen)
 .buf.sbcen     0x0000000000017448       0x84 ..\..\platform\libs\libcodecs.a(sbcen_io.o)
                0x0000000000017448                sbcen_obuf
 *(.rec.wave.header)

.bss            0x0000000000010c00     0x4388
                0x0000000000010c00                __bss_start = .
 *(COMMON)
 COMMON         0x0000000000010c00        0x8 Output\obj\platform\bsp\bsp_bt.o
                0x0000000000010c00                rf_cfg
 COMMON         0x0000000000010c08        0x8 Output\obj\platform\bsp\bsp_dac.o
                0x0000000000010c08                dac_avol_table
                0x0000000000010c0c                dac_dvol_table
 COMMON         0x0000000000010c10      0x116 Output\obj\platform\bsp\bsp_eq.o
                0x0000000000010c10                eq_dbg_cb
                0x0000000000010c18                eq_rx_buf
 *fill*         0x0000000000010d26        0x2 
 COMMON         0x0000000000010d28      0x11d Output\obj\platform\bsp\bsp_sys.o
                0x0000000000010d28                micl2gnd_flag
                0x0000000000010d2c                xcfg_cb
 *fill*         0x0000000000010e45        0x3 
 COMMON         0x0000000000010e48        0x6 Output\obj\platform\functions\func_bt.o
                0x0000000000010e48                f_bt
 *fill*         0x0000000000010e4e        0x2 
 COMMON         0x0000000000010e50       0x20 Output\obj\platform\functions\sfunc_bt_ring.o
                0x0000000000010e50                f_bt_ring
 COMMON         0x0000000000010e70        0xc Output\obj\platform\gui\gui.o
                0x0000000000010e70                box_cb
 COMMON         0x0000000000010e7c       0x20 Output\obj\projects\earphone\port\port_key.o
                0x0000000000010e7c                iokey2_gpio
                0x0000000000010e84                iokey1_gpio
                0x0000000000010e8c                iokey3_gpio
                0x0000000000010e94                iokey0_gpio
 COMMON         0x0000000000010e9c        0x5 Output\obj\projects\earphone\port\port_led.o
                0x0000000000010e9c                fft_led_flag
                0x0000000000010ea0                dac_pow_level
 *fill*         0x0000000000010ea1        0x3 
 COMMON         0x0000000000010ea4        0xc Output\obj\projects\earphone\port\port_linein.o
                0x0000000000010ea4                linein_gpio
                0x0000000000010eac                adc_linein_flag
 COMMON         0x0000000000010eb0       0x60 ..\..\platform\libs\libplatform.a(audio_echo.o)
                0x0000000000010eb0                kara_cb
                0x0000000000010ed8                iir_coef
 COMMON         0x0000000000010f10       0x14 ..\..\platform\libs\libplatform.a(sdadc.o)
                0x0000000000010f10                sdadc_cb
 COMMON         0x0000000000010f24        0x8 ..\..\platform\libs\libplatform.a(bt.o)
                0x0000000000010f24                bthw_soft_flag
                0x0000000000010f28                bt_thread_res
 COMMON         0x0000000000010f2c        0x8 ..\..\platform\libs\libplatform.a(bt_aec.o)
                0x0000000000010f2c                temp_fifo_cnt
                0x0000000000010f30                temp_far_rptr
 COMMON         0x0000000000010f34        0xc ..\..\platform\libs\libplatform.a(bt_rec.o)
                0x0000000000010f34                bt_sco_rec_en
                0x0000000000010f38                bt_rec_en
                0x0000000000010f3c                bt_src_done_flag
 COMMON         0x0000000000010f40        0xc ..\..\platform\libs\libplatform.a(main.o)
                0x0000000000010f40                sys
 COMMON         0x0000000000010f4c        0x4 ..\..\platform\libs\libplatform.a(music.o)
                0x0000000000010f4c                sbcdec_frame
 COMMON         0x0000000000010f50       0x24 ..\..\platform\libs\libplatform.a(stream.o)
                0x0000000000010f50                stm_avio
                0x0000000000010f5c                stm_cb
 COMMON         0x0000000000010f74       0x10 ..\..\platform\libs\libplatform.a(interrupt.o)
                0x0000000000010f74                tmr5ms_cnt
                0x0000000000010f78                tmr0_counter
                0x0000000000010f7c                ms_tick
                0x0000000000010f80                src_isr_process
 COMMON         0x0000000000010f84       0x58 ..\..\platform\libs\libplatform.a(startup.o)
                0x0000000000010f84                pmutex_dac
                0x0000000000010f88                pmutex_cm
                0x0000000000010f8c                psem_aubuf1
                0x0000000000010f90                psem_src
                0x0000000000010f94                pmq_btstack
                0x0000000000010f98                psem_usb
                0x0000000000010f9c                psem_sd
                0x0000000000010fa0                pmq_music
                0x0000000000010fa4                pmutex_pff
                0x0000000000010fa8                pmq_aupcm
                0x0000000000010fac                pmq_driver
                0x0000000000010fb0                psem_mschw
                0x0000000000010fb4                user_timer_isr_en
                0x0000000000010fb8                bt_timer_isr_en
                0x0000000000010fbc                psem_aec
                0x0000000000010fc0                psem_aubuf
                0x0000000000010fc4                psem_btstack
                0x0000000000010fc8                psem_plc
                0x0000000000010fcc                pmutex_irtc
                0x0000000000010fd0                psem_bthw
                0x0000000000010fd4                psem_twshw
                0x0000000000010fd8                pmutex_uart
 COMMON         0x0000000000010fdc        0x8 ..\..\platform\libs\libplatform.a(voltage_trim.o)
                0x0000000000010fdc                sys_trim
 COMMON         0x0000000000010fe4       0x24 ..\..\platform\libs\libbtstack.a(ble_con.o)
                0x0000000000010fe4                hwble_env
 COMMON         0x0000000000011008      0x698 ..\..\platform\libs\libbtstack.a(ext_plc.o)
                0x0000000000011008                plc_buf
                0x000000000001165c                ext_plc_cb
 COMMON         0x00000000000116a0      0x3c0 ..\..\platform\libs\libbtstack.a(ext_sco.o)
                0x00000000000116a0                sco_hci_rx_buf
 COMMON         0x0000000000011a60       0x24 ..\..\platform\libs\libbtstack.a(ext_tws.o)
                0x0000000000011a60                tws_ticks_env
 COMMON         0x0000000000011a84       0x34 ..\..\platform\libs\libbtstack.a(btstack_api.o)
                0x0000000000011a84                btstack_cb
                0x0000000000011a8c                btstack_st
 COMMON         0x0000000000011ab8        0x4 ..\..\platform\libs\libbtstack.a(hci_transport_hcic.o)
                0x0000000000011ab8                p_hci_transport
 COMMON         0x0000000000011abc      0x214 ..\..\platform\libs\libdrivers.a(diskio.o)
                0x0000000000011abc                win_buf
                0x0000000000011cbc                diskio
                0x0000000000011ccc                dsk_cb
 COMMON         0x0000000000011cd0       0x70 ..\..\platform\libs\libdrivers.a(usb_host_manage.o)
                0x0000000000011cd0                uhe_0
                0x0000000000011cf8                uhs_0
 COMMON         0x0000000000011d40       0x40 ..\..\platform\libs\libcodecs.a(drc.o)
                0x0000000000011d40                sum
                0x0000000000011d48                m_drc
 COMMON         0x0000000000011d80      0x1e4 ..\..\platform\libs\libcodecs.a(bt_sbc.o)
                0x0000000000011d80                bt_sbc_flag
                0x0000000000011d84                bt_plc_buf
 COMMON         0x0000000000011f64        0x4 ..\..\platform\libs\libcodecs.a(sbc_dec.o)
                0x0000000000011f64                unpack_header
 *(.bss*)
 .bss           0x0000000000011f68        0xc Output\obj\platform\bsp\bsp_eq.o
 .bss           0x0000000000011f74       0x40 ..\..\platform\libs\libplatform.a(audio_echo.o)
 .bss           0x0000000000011fb4       0x22 ..\..\platform\libs\libplatform.a(dac_dnr.o)
 *fill*         0x0000000000011fd6        0x2 
 .bss           0x0000000000011fd8      0x11c ..\..\platform\libs\libplatform.a(cm.o)
 .bss.irq_tbl   0x00000000000120f4       0x60 ..\..\platform\libs\libplatform.a(interrupt.o)
                0x00000000000120f4                tbl_irq_vector
                0x0000000000012150                irq_mask
 .bss           0x0000000000012154       0x28 ..\..\platform\libs\libplatform.a(startup.o)
 .bss           0x000000000001217c        0xa ..\..\platform\libs\libplatform.a(charge.o)
 *fill*         0x0000000000012186        0x2 
 .bss           0x0000000000012188       0x48 ..\..\platform\libs\libplatform.a(lock.o)
 .bss           0x00000000000121d0       0x24 ..\..\platform\libs\libbtstack.a(ext_plc.o)
 .bss           0x00000000000121f4      0x5a8 ..\..\platform\libs\libbtstack.a(btstack_memory.o)
 .bss           0x000000000001279c       0x78 ..\..\platform\libs\libbtstack.a(btstack_tws.o)
 .bss           0x0000000000012814       0x3e ..\..\platform\libs\libbtstack.a(btstack_link_key_db.o)
 *fill*         0x0000000000012852        0x2 
 .bss           0x0000000000012854      0x598 ..\..\platform\libs\libbtstack.a(hci.o)
 .bss           0x0000000000012dec       0x48 ..\..\platform\libs\libbtstack.a(ext_tsco.o)
 *(.sbss*)
 .sbss          0x0000000000012e34        0x6 Output\obj\platform\bsp\bsp_charge.o
 *fill*         0x0000000000012e3a        0x2 
 .sbss          0x0000000000012e3c        0x8 Output\obj\platform\bsp\bsp_eq.o
 .sbss          0x0000000000012e44        0x2 Output\obj\platform\bsp\bsp_key.o
 *fill*         0x0000000000012e46        0x2 
 .sbss          0x0000000000012e48        0xc Output\obj\platform\bsp\bsp_sys.o
 .sbss          0x0000000000012e54        0x1 Output\obj\platform\functions\func_bt.o
 *fill*         0x0000000000012e55        0x3 
 .sbss          0x0000000000012e58        0x9 Output\obj\projects\earphone\port\port_led.o
 *fill*         0x0000000000012e61        0x3 
 .sbss          0x0000000000012e64        0x8 Output\obj\projects\earphone\port\port_mute.o
 .sbss          0x0000000000012e6c        0xc ..\..\platform\libs\libplatform.a(audio_eq.o)
 .sbss          0x0000000000012e78       0x1c ..\..\platform\libs\libplatform.a(dac.o)
 .sbss          0x0000000000012e94        0x1 ..\..\platform\libs\libplatform.a(bt_aec.o)
                0x0000000000012e94                aec_isr_type
 .sbss          0x0000000000012e95        0x2 ..\..\platform\libs\libplatform.a(bt_alc.o)
 *fill*         0x0000000000012e97        0x1 
 .sbss          0x0000000000012e98        0x4 ..\..\platform\libs\libplatform.a(bt_sco.o)
                0x0000000000012e98                bt_voice_cfg
 .sbss          0x0000000000012e9c        0x4 ..\..\platform\libs\libplatform.a(bt_wnr.o)
                0x0000000000012e9c                ratio
 .sbss          0x0000000000012ea0        0x8 ..\..\platform\libs\libplatform.a(music_res.o)
 .sbss          0x0000000000012ea8        0x8 ..\..\platform\libs\libplatform.a(startup.o)
 .sbss          0x0000000000012eb0        0xc ..\..\platform\libs\libplatform.a(charge.o)
 .sbss          0x0000000000012ebc        0x4 ..\..\platform\libs\libbtstack.a(bb.o)
 .sbss          0x0000000000012ec0        0x3 ..\..\platform\libs\libbtstack.a(ext_bt.o)
 *fill*         0x0000000000012ec3        0x1 
 .sbss          0x0000000000012ec4        0x8 ..\..\platform\libs\libbtstack.a(btstack_api.o)
 .sbss          0x0000000000012ecc        0x8 ..\..\platform\libs\libbtstack.a(btstack_hal.o)
 .sbss          0x0000000000012ed4        0x8 ..\..\platform\libs\libbtstack.a(btstack_main.o)
 .sbss          0x0000000000012edc        0x4 ..\..\platform\libs\libbtstack.a(hci_transport_hcic.o)
 .sbss          0x0000000000012ee0       0x18 ..\..\platform\libs\libbtstack.a(btstack_memory.o)
 .sbss          0x0000000000012ef8        0x8 ..\..\platform\libs\libbtstack.a(btstack_tws.o)
 .sbss          0x0000000000012f00        0x4 ..\..\platform\libs\libbtstack.a(a2dp_play.o)
 .sbss          0x0000000000012f04       0x14 ..\..\platform\libs\libbtstack.a(hfp_hf.o)
 .sbss          0x0000000000012f18       0x12 ..\..\platform\libs\libbtstack.a(rfcomm.o)
 *fill*         0x0000000000012f2a        0x2 
 .sbss          0x0000000000012f2c        0x4 ..\..\platform\libs\libbtstack.a(sdp_server.o)
 .sbss          0x0000000000012f30        0x4 ..\..\platform\libs\libbtstack.a(hci.o)
 .sbss          0x0000000000012f34        0xc ..\..\platform\libs\libdrivers.a(pff.o)
 .sbss          0x0000000000012f40        0x8 ..\..\platform\libs\libcodecs.a(bt_sbc.o)
 *(.buf*)
 .buf.aux       0x0000000000012f48        0x1 Output\obj\platform\bsp\bsp_aux.o
 *fill*         0x0000000000012f49        0x3 
 .buf.key.cb    0x0000000000012f4c       0x18 Output\obj\platform\bsp\bsp_key.o
                0x0000000000012f4c                adc_cb
 .buf.led       0x0000000000012f64       0x14 Output\obj\platform\bsp\bsp_led.o
                0x0000000000012f64                led_cb
                0x0000000000012f6c                port2led_sta
                0x0000000000012f70                led_bak
 .buf.bsp.sys_cb
                0x0000000000012f78       0x3c Output\obj\platform\bsp\bsp_sys.o
                0x0000000000012f78                sys_cb
 .buf.func_cb   0x0000000000012fb4        0xc Output\obj\platform\functions\func.o
                0x0000000000012fb4                func_cb
 .buf.func.music
                0x0000000000012fc0       0x14 Output\obj\platform\functions\func_music.o
                0x0000000000012fc0                f_msc
 .buf.led       0x0000000000012fd4       0x28 Output\obj\projects\earphone\port\port_led.o
                0x0000000000012fd4                bled_gpio
                0x0000000000012fdc                bled_func
                0x0000000000012fe8                rled_gpio
                0x0000000000012ff0                rled_func
 .buf.dac       0x0000000000012ffc       0x16 ..\..\platform\libs\libplatform.a(dac.o)
                0x0000000000012ffc                dac_cb
 *fill*         0x0000000000013012        0x2 
 .buf.device.cb
                0x0000000000013014       0x15 ..\..\platform\libs\libplatform.a(device.o)
                0x0000000000013014                dev_cb
 *fill*         0x0000000000013029        0x3 
 .buf.music.cb  0x000000000001302c        0x8 ..\..\platform\libs\libplatform.a(music.o)
                0x000000000001302c                music_cb
 .buf.spires    0x0000000000013034       0x10 ..\..\platform\libs\libplatform.a(music_res.o)
                0x0000000000013034                spires_cb
 .buf.key.cb    0x0000000000013044        0xa ..\..\platform\libs\libplatform.a(key.o)
 *fill*         0x000000000001304e        0x2 
 .buf.msg.queue
                0x0000000000013050       0x40 ..\..\platform\libs\libplatform.a(sys_msg.o)
                0x0000000000013050                msg_cb
 .buf.pff       0x0000000000013090      0x2c6 ..\..\platform\libs\libdrivers.a(pff_fat.o)
                0x0000000000013090                fp_cb
                0x000000000001309c                dpath_cb
                0x00000000000130b0                fat_fs
                0x0000000000013110                file_info
                0x0000000000013148                file_dir
                0x0000000000013160                pf_apiinfo
                0x000000000001316c                fclst
                0x00000000000131b4                dp_cb
                0x00000000000131c8                fscan_cb
                0x00000000000131d4                file_info_dir
                0x000000000001320c                fp_item_buf
 *fill*         0x0000000000013356        0x2 
 .buf.usbchk.cb
                0x0000000000013358        0x2 ..\..\platform\libs\libdrivers.a(usb_detect.o)
                0x0000000000013358                usbchk_cb
 *fill*         0x000000000001335a        0x2 
 .buf.avio      0x000000000001335c      0x22c ..\..\platform\libs\libcodecs.a(aviobuf.o)
                0x000000000001335c                avio_buf
 *(.sdadc_buf)
 .sdadc_buf     0x0000000000013588      0x400 ..\..\platform\libs\libplatform.a(sdadc.o)
                0x0000000000013588                sdadc_buf
 *(.dac_obuf)
 .dac_obuf      0x0000000000013988     0x1600 ..\..\platform\libs\libplatform.a(dac.o)
                0x0000000000013988                dac_obuf
                0x0000000000014b88                dac_src1_obuf
                0x0000000000014f88                __bss_end = .
                0x0000000000004388                __bss_size = (__bss_end - __bss_start)

.heap           0x0000000000028800     0x3000
 *(.mem_heap)
 .mem_heap      0x0000000000028800     0x3000 ..\..\platform\libs\libplatform.a(startup.o)
                0x0000000000028800                mem_heap

.bram           0x0000000000018000     0x5e98
 *(.btmem.bthw)
 .btmem.bthw    0x0000000000018000     0x2bd2 ..\..\platform\libs\libbtstack.a(bb.o)
                0x0000000000018000                bt_mem_buf
 *(.btmem*)
 *fill*         0x000000000001abd2        0x2 
 .btmem.bb.buf  0x000000000001abd4     0x1530 ..\..\platform\libs\libbtstack.a(bb.o)
 .btmem.bb.sniff
                0x000000000001c104       0x34 ..\..\platform\libs\libbtstack.a(bb.o)
 .btmem.bb.ble  0x000000000001c138       0x18 ..\..\platform\libs\libbtstack.a(ble_evt.o)
                0x000000000001c138                ble_evt_env
 .btmem.bb      0x000000000001c150       0x20 ..\..\platform\libs\libbtstack.a(ext_acl.o)
                0x000000000001c150                p_acl_conn
                0x000000000001c158                acl_conn_ext
 .btmem.bb.acl  0x000000000001c170        0xc ..\..\platform\libs\libbtstack.a(ext_acl.o)
                0x000000000001c170                p_acl_dlink
                0x000000000001c178                p_acl_buf
 .btmem.bb.afh  0x000000000001c17c      0x232 ..\..\platform\libs\libbtstack.a(ext_afh.o)
                0x000000000001c17c                lc_afh_map
                0x000000000001c1b0                lc_afh
 *fill*         0x000000000001c3ae        0x2 
 .btmem.bb      0x000000000001c3b0       0x88 ..\..\platform\libs\libbtstack.a(ext_bt.o)
                0x000000000001c3b0                hwbt_env
 .btmem.bb.acl  0x000000000001c438       0x60 ..\..\platform\libs\libbtstack.a(ext_init.o)
 .btmem.bb.acl_buf
                0x000000000001c498       0x4c ..\..\platform\libs\libbtstack.a(ext_init.o)
 .btmem.bb.conn
                0x000000000001c4e4      0x190 ..\..\platform\libs\libbtstack.a(ext_init.o)
 .btmem.bb.rf   0x000000000001c674        0x2 ..\..\platform\libs\libbtstack.a(ext_init.o)
                0x000000000001c674                bt_edr_enabled
                0x000000000001c675                bt_con_pause
 *fill*         0x000000000001c676        0x2 
 .btmem.bb.sco  0x000000000001c678       0x48 ..\..\platform\libs\libbtstack.a(ext_init.o)
 .btmem.bb.scan
                0x000000000001c6c0       0x68 ..\..\platform\libs\libbtstack.a(ext_scan.o)
                0x000000000001c6c0                lc_scan_env
 .btmem.bb.sco  0x000000000001c728      0x388 ..\..\platform\libs\libbtstack.a(ext_sco.o)
                0x000000000001caa8                p_sco_conn
 .btmem.bb.lc   0x000000000001cab0      0x3a8 ..\..\platform\libs\libbtstack.a(lc.o)
                0x000000000001cab0                lc_env
 .btmem.bb.lc   0x000000000001ce58        0x2 ..\..\platform\libs\libbtstack.a(lc_proc.o)
                0x000000000001ce58                lc_state
 *fill*         0x000000000001ce5a        0x2 
 .btmem.bb.lc_sco
                0x000000000001ce5c       0x12 ..\..\platform\libs\libbtstack.a(lc_sco.o)
 *fill*         0x000000000001ce6e        0x2 
 .btmem.bb.lm   0x000000000001ce70      0x228 ..\..\platform\libs\libbtstack.a(lm.o)
                0x000000000001ce70                lm_env
 .btmem.bb.lc   0x000000000001d098        0x1 ..\..\platform\libs\libbtstack.a(lm_proc.o)
                0x000000000001d098                lm_state
 *fill*         0x000000000001d099        0x3 
 .btmem.bb.lm_sco
                0x000000000001d09c       0x8f ..\..\platform\libs\libbtstack.a(lm_sco.o)
 *fill*         0x000000000001d12b        0x1 
 .btmem.bb.lm_sniff
                0x000000000001d12c       0x20 ..\..\platform\libs\libbtstack.a(lm_sniff.o)
 .btmem.bb.lm_sp
                0x000000000001d14c      0x4d0 ..\..\platform\libs\libbtstack.a(lm_sp.o)
 .btmem.bb.lm   0x000000000001d61c       0xb8 ..\..\platform\libs\libbtstack.a(lm_util.o)
                0x000000000001d680                lm_util_env
 .btmem.bb.util
                0x000000000001d6d4       0x50 ..\..\platform\libs\libbtstack.a(bb_buf.o)
                0x000000000001d6d4                p_le_buf
                0x000000000001d6d8                p_bt_buf
                0x000000000001d6dc                le_tx_node
 .btmem.bb.util
                0x000000000001d724       0x18 ..\..\platform\libs\libbtstack.a(bb_utils.o)
 .btmem.bb.hcic
                0x000000000001d73c       0x5c ..\..\platform\libs\libbtstack.a(hcic.o)
                0x000000000001d73c                hci_env
 .btmem.bb.hcic
                0x000000000001d798        0x1 ..\..\platform\libs\libbtstack.a(hcic_proc.o)
                0x000000000001d798                hci_state
 *fill*         0x000000000001d799        0x3 
 .btmem.bb.test
                0x000000000001d79c        0xa ..\..\platform\libs\libbtstack.a(vs.o)
                0x000000000001d79c                vs_fcc_env
 *fill*         0x000000000001d7a6        0x2 
 .btmem.bb.vs   0x000000000001d7a8        0x1 ..\..\platform\libs\libbtstack.a(vs_proc.o)
                0x000000000001d7a8                vs_state
 *fill*         0x000000000001d7a9        0x3 
 .btmem.hci.transport
                0x000000000001d7ac       0x20 ..\..\platform\libs\libbtstack.a(hci_transport_hcic.o)
 .btmem.stack.linkctrl
                0x000000000001d7cc       0x49 ..\..\platform\libs\libbtstack.a(btstack_link_ctrl.o)
 *fill*         0x000000000001d815        0x3 
 .btmem.stack   0x000000000001d818       0x14 ..\..\platform\libs\libbtstack.a(btstack_run_loop.o)
 .btmem.stack.util
                0x000000000001d82c       0x12 ..\..\platform\libs\libbtstack.a(btstack_util.o)
 *fill*         0x000000000001d83e        0x2 
 .btmem.stack.a2dp
                0x000000000001d840      0x146 ..\..\platform\libs\libbtstack.a(a2dp.o)
                0x000000000001d844                a2dp_media_index
                0x000000000001d978                a2dp_media_l2cap
                0x000000000001d984                a2dp_media_handle
 *fill*         0x000000000001d986        0x2 
 .btmem.stack.a2dp
                0x000000000001d988       0x29 ..\..\platform\libs\libbtstack.a(a2dp_send.o)
                0x000000000001d9b0                avdtp_tx_enable
 *fill*         0x000000000001d9b1        0x3 
 .btmem.stack.a2dp
                0x000000000001d9b4       0x44 ..\..\platform\libs\libbtstack.a(avdtp.o)
 .btmem.stack.hfp
                0x000000000001d9f8      0x190 ..\..\platform\libs\libbtstack.a(hfp.o)
                0x000000000001db74                hfp_index
 .btmem.stack.hid
                0x000000000001db88       0x38 ..\..\platform\libs\libbtstack.a(hid_device.o)
 .btmem.hid.usage
                0x000000000001dbc0        0xb ..\..\platform\libs\libbtstack.a(hid_usage.o)
                0x000000000001dbc0                hrpt_cb
 *fill*         0x000000000001dbcb        0x1 
 .btmem.stack.sdp
                0x000000000001dbcc       0xba ..\..\platform\libs\libbtstack.a(sdp_client.o)
 *fill*         0x000000000001dc86        0x2 
 .btmem.stack.sdp
                0x000000000001dc88      0x10c ..\..\platform\libs\libbtstack.a(sdp_server.o)
 .btmem.stack.spp
                0x000000000001dd94       0x54 ..\..\platform\libs\libbtstack.a(spp.o)
 .btmem.stack.l2cap
                0x000000000001dde8       0xb0 ..\..\platform\libs\libbtstack.a(l2cap.o)

.bram_echo
 *(.bram_echo)

.cram_flac
 *(.flac_decoded_buf)

.cram_upd       0x000000000002b800      0x5d8
 *(.upd_buf*)
 .upd_buf       0x000000000002b800      0x5b0 ..\..\platform\libs\libplatform.a(update.o)
                0x000000000002b800                run_ram_addr
                0x000000000002b804                run_driver_length
                0x000000000002bb08                upd_cb
                0x000000000002bd80                upd_head
 .upd_buf       0x000000000002bdb0       0x10 ..\..\platform\libs\libplatform.a(bt_ota.o)
 .upd_buf.ota   0x000000000002bdc0       0x18 ..\..\platform\libs\libbtstack.a(l2cap_test.o)
                0x000000000002bdc0                vd_test
 *(.fcc_buf*)

.cram_wma
 *(.wma_coefs_buf)
 *(.wma_ctx_buf)
 *(.wma_wincb_buf)

.cram_mp3enc
 *(.mp3_enc_buf)
 *(.recenc.obuf)

.cram_mp2enc    0x000000000002b800     0x2400
 *(.l2enc_sb_buf)
                0x0000000000002400                . = 0x2400
 *fill*         0x000000000002b800     0x2400 

.cram_echo
 *(.cram_echo)

.cram_fmrx
 *(.fmrx_pcm_buf)

.aec_ram        0x0000000000050000     0x334c
 *(.aec_buf)
 .aec_buf       0x0000000000050000     0x334c ..\..\platform\libs\libplatform.a(bt_aec.o)
                0x0000000000050000                aec_ram

.echo_ram
 *(.echo_buf)

.sbc_cache      0x0000000000050000     0x4000
 *(.sbc_cache_buf)
 .sbc_cache_buf
                0x0000000000050000     0x4000 ..\..\platform\libs\libcodecs.a(bt_sbc.o)
                0x0000000000050000                sbc_inbuf

.aram_music     0x0000000000050000     0x1b78
 *(.mp3buf.dec)
 .mp3buf.dec    0x0000000000050000     0x1000 ..\..\platform\libs\libplatform.a(stream.o)
                0x0000000000050000                stream_cache
 .mp3buf.dec    0x0000000000051000      0x1dc ..\..\platform\libs\libcodecs.a(mp3_dec.o)
                0x0000000000051000                mp3_frame
                0x00000000000511b0                mp3_ctx
 .mp3buf.dec    0x00000000000511dc      0x99c ..\..\platform\libs\libcodecs.a(layer3.o)
                0x00000000000511dc                xr_tmp
                0x0000000000051adc                exp_tmp
 *(.mp3_id3_buf)
 *(.pff.scan.tempbuf)
 *(.fmrx_cb_buf)
 *(.mp3enbuf.cb)

.dram_mp3       0x0000000000054000     0x3000
 *(.mp3_decram_buf)
 .mp3_decram_buf
                0x0000000000054000     0x2c38 ..\..\platform\libs\libcodecs.a(layer3.o)
                0x0000000000054000                mp3ram
                0x0000000000003000                . = 0x3000
 *fill*         0x0000000000056c38      0x3c8 

.dram_ape       0x0000000000054000     0x3000
 *(.apebuf.cb)
 *(.apebuf.filter)
 *(.apebuf.decode)
 *(.apebuf.seektbl)
                0x0000000000003000                . = 0x3000
 *fill*         0x0000000000054000     0x3000 

.dram_wma       0x0000000000054000     0x3000
 *(.wmabuf*)
                0x0000000000003000                . = 0x3000
 *fill*         0x0000000000054000     0x3000 

.dram_flac      0x0000000000054000     0x3000
 *(.flacbuf*)
 *(.wavbuf.dec)
                0x0000000000003000                . = 0x3000
 *fill*         0x0000000000054000     0x3000 

.dram_sco       0x0000000000054000     0x3000
 *(.sbc_decram_buf)
 .sbc_decram_buf
                0x0000000000054000      0xd38 ..\..\platform\libs\libcodecs.a(sbc_dec.o)
                0x0000000000054000                sbchw_cb
 *(.sbcbuf.dec)
 .sbcbuf.dec    0x0000000000054d38      0x124 ..\..\platform\libs\libcodecs.a(bt_sbc.o)
                0x0000000000054d38                sbc_cache
                0x0000000000054d48                sbc_dec
 .sbcbuf.dec    0x0000000000054e5c      0x584 ..\..\platform\libs\libcodecs.a(sbc_dec.o)
                0x0000000000054e5c                unpack_cb
                0x0000000000054f6c                sbcdec_priv
                0x00000000000553d0                bits
 *(.sco_data)
 .sco_data      0x00000000000553e0       0x10 Output\obj\platform\functions\sfunc_bt_call.o
 .sco_data      0x00000000000553f0        0xc ..\..\platform\libs\libplatform.a(bt_aec.o)
 .sco_data      0x00000000000553fc        0xc ..\..\platform\libs\libplatform.a(bt_alc.o)
 .sco_data      0x0000000000055408       0x18 ..\..\platform\libs\libbtstack.a(hci_sco.o)
                0x0000000000055408                sco_far_len
                0x000000000005540c                sco_far_wptr
                0x0000000000055410                sco_far_rptr
                0x0000000000055414                sco_far_end
                0x0000000000055418                sco_near_cb
 *(.sco_cache)
 .sco_cache     0x0000000000055420     0x17e8 ..\..\platform\libs\libbtstack.a(hci_sco.o)
                0x0000000000055420                sco_far_pcm
                0x0000000000003000                . = 0x3000
 *fill*         0x0000000000056c08      0x3f8 

.dram_rec       0x0000000000054000     0x3000
 *(.rec.sco)
                0x0000000000001400                . = 0x1400
 *fill*         0x0000000000054000     0x1400 
 *(.recbuf.cb)
 *(.rec.obuf)
 *(.mp3enbuf*)
 *(.l2enc_smr_buf)
                0x0000000000003000                . = 0x3000
 *fill*         0x0000000000055400     0x1c00 

.dram_usb       0x0000000000054000     0x3000
 *(.usb.device.desc.buf)
 *(.ude.aubuf)
                0x0000000000001400                . = 0x1400
 *fill*         0x0000000000054000     0x1400 
                0x0000000000003000                . = 0x3000
 *fill*         0x0000000000055400     0x1c00 

.dram_spf       0x0000000000054000     0x3000
 *(.spf_buf)
                0x0000000000001400                . = 0x1400
 *fill*         0x0000000000054000     0x1400 
                0x0000000000003000                . = 0x3000
 *fill*         0x0000000000055400     0x1c00 

.eram_mp3enc    0x0000000000057000      0xa00
 *(.mp3_enc_hwbuf)
                0x0000000000000a00                . = 0xa00
 *fill*         0x0000000000057000      0xa00 

.eram_mp2enc    0x0000000000057000      0xa00
 *(.l2enc.buf*)
                0x0000000000000a00                . = 0xa00
 *fill*         0x0000000000057000      0xa00 

.eram_adpcmenc  0x0000000000057000      0xa00
 *(.adpcmenc.buf)
                0x0000000000000a00                . = 0xa00
 *fill*         0x0000000000057000      0xa00 

.eram_wavres    0x0000000000057000      0xa00
 *(.wavres.buf)
 .wavres.buf    0x0000000000057000      0x208 ..\..\platform\libs\libplatform.a(music_res.o)
                0x0000000000057000                wavres_cb
                0x0000000000000a00                . = 0xa00
 *fill*         0x0000000000057208      0x7f8 

.fram_mav       0x0000000000017000     0x1000
                0x0000000000000200                . = 0x200
 *fill*         0x0000000000017000      0x200 
 *(.mav*)
 .mav.spf       0x0000000000017200      0xe00 ..\..\platform\libs\libplatform.a(music.o)
                0x0000000000017200                spf_buf
                0x000000000004a800                __bank_size = SIZEOF (.flash)
                0x0000000010002200                __comm_lma = LOADADDR (.comm)
                0x0000000000006a00                __comm_size = SIZEOF (.comm)
                0x0000000010000200                __bcomm_lma = LOADADDR (.bcomm)
                0x0000000000002000                __bcomm_size = SIZEOF (.bcomm)
LOAD ..\..\platform\libs\libplatform.a
LOAD ..\..\platform\libs\libbtstack.a
LOAD ..\..\platform\libs\libdrivers.a
LOAD ..\..\platform\libs\libcodecs.a
OUTPUT(Output\bin\app.rv32 elf32-littleriscv)

.comment        0x0000000000000000       0x11
 .comment       0x0000000000000000       0x11 Output\obj\platform\bsp\bsp_audio.o
                                         0x12 (size before relaxing)
 .comment       0x0000000000000011       0x12 Output\obj\platform\bsp\bsp_aux.o
 .comment       0x0000000000000011       0x12 Output\obj\platform\bsp\bsp_bt.o
 .comment       0x0000000000000011       0x12 Output\obj\platform\bsp\bsp_charge.o
 .comment       0x0000000000000011       0x12 Output\obj\platform\bsp\bsp_cm.o
 .comment       0x0000000000000011       0x12 Output\obj\platform\bsp\bsp_dac.o
 .comment       0x0000000000000011       0x12 Output\obj\platform\bsp\bsp_eq.o
 .comment       0x0000000000000011       0x12 Output\obj\platform\bsp\bsp_fs.o
 .comment       0x0000000000000011       0x12 Output\obj\platform\bsp\bsp_key.o
 .comment       0x0000000000000011       0x12 Output\obj\platform\bsp\bsp_led.o
 .comment       0x0000000000000011       0x12 Output\obj\platform\bsp\bsp_music.o
 .comment       0x0000000000000011       0x12 Output\obj\platform\bsp\bsp_param.o
 .comment       0x0000000000000011       0x12 Output\obj\platform\bsp\bsp_spp.o
 .comment       0x0000000000000011       0x12 Output\obj\platform\bsp\bsp_sys.o
 .comment       0x0000000000000011       0x12 Output\obj\platform\functions\func.o
 .comment       0x0000000000000011       0x12 Output\obj\platform\functions\func_bt.o
 .comment       0x0000000000000011       0x12 Output\obj\platform\functions\func_bt_hid.o
 .comment       0x0000000000000011       0x12 Output\obj\platform\functions\func_fmrx.o
 .comment       0x0000000000000011       0x12 Output\obj\platform\functions\func_lowpwr.o
 .comment       0x0000000000000011       0x12 Output\obj\platform\functions\func_music.o
 .comment       0x0000000000000011       0x12 Output\obj\platform\functions\sfunc_bt_call.o
 .comment       0x0000000000000011       0x12 Output\obj\platform\functions\sfunc_bt_ota.o
 .comment       0x0000000000000011       0x12 Output\obj\platform\functions\sfunc_bt_ring.o
 .comment       0x0000000000000011       0x12 Output\obj\platform\functions\sfunc_record.o
 .comment       0x0000000000000011       0x12 Output\obj\platform\gui\gui.o
 .comment       0x0000000000000011       0x12 Output\obj\platform\libs\strong_symbol.o
 .comment       0x0000000000000011       0x12 Output\obj\projects\earphone\config.o
 .comment       0x0000000000000011       0x12 Output\obj\projects\earphone\main.o
 .comment       0x0000000000000011       0x12 Output\obj\projects\earphone\message\msg_bt.o
 .comment       0x0000000000000011       0x12 Output\obj\projects\earphone\plugin\eq_table.o
 .comment       0x0000000000000011       0x12 Output\obj\projects\earphone\plugin\multi_lang.o
 .comment       0x0000000000000011       0x12 Output\obj\projects\earphone\plugin\plugin.o
 .comment       0x0000000000000011       0x12 Output\obj\projects\earphone\port\port_key.o
 .comment       0x0000000000000011       0x12 Output\obj\projects\earphone\port\port_led.o
 .comment       0x0000000000000011       0x12 Output\obj\projects\earphone\port\port_linein.o
 .comment       0x0000000000000011       0x12 Output\obj\projects\earphone\port\port_mute.o
 .comment       0x0000000000000011       0x12 Output\obj\projects\earphone\port\port_update.o
 .comment       0x0000000000000011       0x12 ..\..\platform\libs\libplatform.a(audio.o)
 .comment       0x0000000000000011       0x12 ..\..\platform\libs\libplatform.a(audio_echo.o)
 .comment       0x0000000000000011       0x12 ..\..\platform\libs\libplatform.a(audio_eq.o)
 .comment       0x0000000000000011       0x12 ..\..\platform\libs\libplatform.a(dac.o)
 .comment       0x0000000000000011       0x12 ..\..\platform\libs\libplatform.a(dac_dnr.o)
 .comment       0x0000000000000011       0x12 ..\..\platform\libs\libplatform.a(sdadc.o)
 .comment       0x0000000000000011       0x12 ..\..\platform\libs\libplatform.a(bt.o)
 .comment       0x0000000000000011       0x12 ..\..\platform\libs\libplatform.a(bt_aec.o)
 .comment       0x0000000000000011       0x12 ..\..\platform\libs\libplatform.a(bt_alc.o)
 .comment       0x0000000000000011       0x12 ..\..\platform\libs\libplatform.a(bt_rec.o)
 .comment       0x0000000000000011       0x12 ..\..\platform\libs\libplatform.a(bt_sco.o)
 .comment       0x0000000000000011       0x12 ..\..\platform\libs\libplatform.a(bt_wnr.o)
 .comment       0x0000000000000011       0x12 ..\..\platform\libs\libplatform.a(cm.o)
 .comment       0x0000000000000011       0x12 ..\..\platform\libs\libplatform.a(os_flash.o)
 .comment       0x0000000000000011       0x12 ..\..\platform\libs\libplatform.a(xcfg.o)
 .comment       0x0000000000000011       0x12 ..\..\platform\libs\libplatform.a(device.o)
 .comment       0x0000000000000011       0x12 ..\..\platform\libs\libplatform.a(fmrx_ang.o)
 .comment       0x0000000000000011       0x12 ..\..\platform\libs\libplatform.a(main.o)
 .comment       0x0000000000000011       0x12 ..\..\platform\libs\libplatform.a(music.o)
 .comment       0x0000000000000011       0x12 ..\..\platform\libs\libplatform.a(music_res.o)
 .comment       0x0000000000000011       0x12 ..\..\platform\libs\libplatform.a(stream.o)
 .comment       0x0000000000000011       0x12 ..\..\platform\libs\libplatform.a(interrupt.o)
 .comment       0x0000000000000011       0x12 ..\..\platform\libs\libplatform.a(startup.o)
 .comment       0x0000000000000011       0x12 ..\..\platform\libs\libplatform.a(sys_hook.o)
 .comment       0x0000000000000011       0x12 ..\..\platform\libs\libplatform.a(rtc.o)
 .comment       0x0000000000000011       0x12 ..\..\platform\libs\libplatform.a(spiflash.o)
 .comment       0x0000000000000011       0x12 ..\..\platform\libs\libplatform.a(charge.o)
 .comment       0x0000000000000011       0x12 ..\..\platform\libs\libplatform.a(debug.o)
 .comment       0x0000000000000011       0x12 ..\..\platform\libs\libplatform.a(gpio.o)
 .comment       0x0000000000000011       0x12 ..\..\platform\libs\libplatform.a(key.o)
 .comment       0x0000000000000011       0x12 ..\..\platform\libs\libplatform.a(lock.o)
 .comment       0x0000000000000011       0x12 ..\..\platform\libs\libplatform.a(power.o)
 .comment       0x0000000000000011       0x12 ..\..\platform\libs\libplatform.a(saradc.o)
 .comment       0x0000000000000011       0x12 ..\..\platform\libs\libplatform.a(sys.o)
 .comment       0x0000000000000011       0x12 ..\..\platform\libs\libplatform.a(sys_clk.o)
 .comment       0x0000000000000011       0x12 ..\..\platform\libs\libplatform.a(sys_msg.o)
 .comment       0x0000000000000011       0x12 ..\..\platform\libs\libplatform.a(update.o)
 .comment       0x0000000000000011       0x12 ..\..\platform\libs\libplatform.a(voltage_trim.o)
 .comment       0x0000000000000011       0x12 ..\..\platform\libs\libplatform.a(weak_symbol.o)
 .comment       0x0000000000000011       0x12 ..\..\platform\libs\libplatform.a(thread_driver.o)
 .comment       0x0000000000000011       0x12 ..\..\platform\libs\libplatform.a(audio_pcm.o)
 .comment       0x0000000000000011       0x12 ..\..\platform\libs\libplatform.a(bt_ota.o)
 .comment       0x0000000000000011       0x12 ..\..\platform\libs\libbtstack.a(bb.o)
 .comment       0x0000000000000011       0x12 ..\..\platform\libs\libbtstack.a(bb_rf.o)
 .comment       0x0000000000000011       0x12 ..\..\platform\libs\libbtstack.a(ble.o)
 .comment       0x0000000000000011       0x12 ..\..\platform\libs\libbtstack.a(ble_con.o)
 .comment       0x0000000000000011       0x12 ..\..\platform\libs\libbtstack.a(ble_evt.o)
 .comment       0x0000000000000011       0x12 ..\..\platform\libs\libbtstack.a(ble_lc.o)
 .comment       0x0000000000000011       0x12 ..\..\platform\libs\libbtstack.a(ble_lm.o)
 .comment       0x0000000000000011       0x12 ..\..\platform\libs\libbtstack.a(ble_sleep.o)
 .comment       0x0000000000000011       0x12 ..\..\platform\libs\libbtstack.a(bt21.o)
 .comment       0x0000000000000011       0x12 ..\..\platform\libs\libbtstack.a(ext_acl.o)
 .comment       0x0000000000000011       0x12 ..\..\platform\libs\libbtstack.a(ext_afh.o)
 .comment       0x0000000000000011       0x12 ..\..\platform\libs\libbtstack.a(ext_bt.o)
 .comment       0x0000000000000011       0x12 ..\..\platform\libs\libbtstack.a(ext_flush.o)
 .comment       0x0000000000000011       0x12 ..\..\platform\libs\libbtstack.a(ext_init.o)
 .comment       0x0000000000000011       0x12 ..\..\platform\libs\libbtstack.a(ext_plc.o)
 .comment       0x0000000000000011       0x12 ..\..\platform\libs\libbtstack.a(ext_scan.o)
 .comment       0x0000000000000011       0x12 ..\..\platform\libs\libbtstack.a(ext_sco.o)
 .comment       0x0000000000000011       0x12 ..\..\platform\libs\libbtstack.a(ext_tws.o)
 .comment       0x0000000000000011       0x12 ..\..\platform\libs\libbtstack.a(ext_util.o)
 .comment       0x0000000000000011       0x12 ..\..\platform\libs\libbtstack.a(lc.o)
 .comment       0x0000000000000011       0x12 ..\..\platform\libs\libbtstack.a(lc_acl.o)
 .comment       0x0000000000000011       0x12 ..\..\platform\libs\libbtstack.a(lc_afh.o)
 .comment       0x0000000000000011       0x12 ..\..\platform\libs\libbtstack.a(lc_cqddr.o)
 .comment       0x0000000000000011       0x12 ..\..\platform\libs\libbtstack.a(lc_lmppdu.o)
 .comment       0x0000000000000011       0x12 ..\..\platform\libs\libbtstack.a(lc_proc.o)
 .comment       0x0000000000000011       0x12 ..\..\platform\libs\libbtstack.a(lc_pwrctrl.o)
 .comment       0x0000000000000011       0x12 ..\..\platform\libs\libbtstack.a(lc_sco.o)
 .comment       0x0000000000000011       0x12 ..\..\platform\libs\libbtstack.a(lc_util.o)
 .comment       0x0000000000000011       0x12 ..\..\platform\libs\libbtstack.a(lm.o)
 .comment       0x0000000000000011       0x12 ..\..\platform\libs\libbtstack.a(lm_key.o)
 .comment       0x0000000000000011       0x12 ..\..\platform\libs\libbtstack.a(lm_proc.o)
 .comment       0x0000000000000011       0x12 ..\..\platform\libs\libbtstack.a(lm_sco.o)
 .comment       0x0000000000000011       0x12 ..\..\platform\libs\libbtstack.a(lm_sleep.o)
 .comment       0x0000000000000011       0x12 ..\..\platform\libs\libbtstack.a(lm_sniff.o)
 .comment       0x0000000000000011       0x12 ..\..\platform\libs\libbtstack.a(lm_sp.o)
 .comment       0x0000000000000011       0x12 ..\..\platform\libs\libbtstack.a(lm_util.o)
 .comment       0x0000000000000011       0x12 ..\..\platform\libs\libbtstack.a(bb_buf.o)
 .comment       0x0000000000000011       0x12 ..\..\platform\libs\libbtstack.a(bb_utils.o)
 .comment       0x0000000000000011       0x12 ..\..\platform\libs\libbtstack.a(complex.o)
 .comment       0x0000000000000011       0x12 ..\..\platform\libs\libbtstack.a(nanos.o)
 .comment       0x0000000000000011       0x12 ..\..\platform\libs\libbtstack.a(hcic.o)
 .comment       0x0000000000000011       0x12 ..\..\platform\libs\libbtstack.a(hcic_msg.o)
 .comment       0x0000000000000011       0x12 ..\..\platform\libs\libbtstack.a(hcic_proc.o)
 .comment       0x0000000000000011       0x12 ..\..\platform\libs\libbtstack.a(vs.o)
 .comment       0x0000000000000011       0x12 ..\..\platform\libs\libbtstack.a(vs_proc.o)
 .comment       0x0000000000000011       0x12 ..\..\platform\libs\libbtstack.a(btstack_api.o)
 .comment       0x0000000000000011       0x12 ..\..\platform\libs\libbtstack.a(btstack_chipset_inner.o)
 .comment       0x0000000000000011       0x12 ..\..\platform\libs\libbtstack.a(btstack_gatt_server.o)
 .comment       0x0000000000000011       0x12 ..\..\platform\libs\libbtstack.a(btstack_hal.o)
 .comment       0x0000000000000011       0x12 ..\..\platform\libs\libbtstack.a(btstack_main.o)
 .comment       0x0000000000000011       0x12 ..\..\platform\libs\libbtstack.a(btstack_misc.o)
 .comment       0x0000000000000011       0x12 ..\..\platform\libs\libbtstack.a(hci_transport_hcic.o)
 .comment       0x0000000000000011       0x12 ..\..\platform\libs\libbtstack.a(weak_symbol.o)
 .comment       0x0000000000000011       0x12 ..\..\platform\libs\libbtstack.a(btstack_link_ctrl.o)
 .comment       0x0000000000000011       0x12 ..\..\platform\libs\libbtstack.a(btstack_memory.o)
 .comment       0x0000000000000011       0x12 ..\..\platform\libs\libbtstack.a(btstack_memory_pool.o)
 .comment       0x0000000000000011       0x12 ..\..\platform\libs\libbtstack.a(btstack_run_loop.o)
 .comment       0x0000000000000011       0x12 ..\..\platform\libs\libbtstack.a(btstack_tws.o)
 .comment       0x0000000000000011       0x12 ..\..\platform\libs\libbtstack.a(btstack_util.o)
 .comment       0x0000000000000011       0x12 ..\..\platform\libs\libbtstack.a(a2dp.o)
 .comment       0x0000000000000011       0x12 ..\..\platform\libs\libbtstack.a(a2dp_play.o)
 .comment       0x0000000000000011       0x12 ..\..\platform\libs\libbtstack.a(a2dp_send.o)
 .comment       0x0000000000000011       0x12 ..\..\platform\libs\libbtstack.a(avctp.o)
 .comment       0x0000000000000011       0x12 ..\..\platform\libs\libbtstack.a(avdtp.o)
 .comment       0x0000000000000011       0x12 ..\..\platform\libs\libbtstack.a(btstack_link_key_db.o)
 .comment       0x0000000000000011       0x12 ..\..\platform\libs\libbtstack.a(hfp.o)
 .comment       0x0000000000000011       0x12 ..\..\platform\libs\libbtstack.a(hfp_hf.o)
 .comment       0x0000000000000011       0x12 ..\..\platform\libs\libbtstack.a(hid_device.o)
 .comment       0x0000000000000011       0x12 ..\..\platform\libs\libbtstack.a(hid_usage.o)
 .comment       0x0000000000000011       0x12 ..\..\platform\libs\libbtstack.a(rfcomm.o)
 .comment       0x0000000000000011       0x12 ..\..\platform\libs\libbtstack.a(sdp_client.o)
 .comment       0x0000000000000011       0x12 ..\..\platform\libs\libbtstack.a(sdp_server.o)
 .comment       0x0000000000000011       0x12 ..\..\platform\libs\libbtstack.a(sdp_tbl.o)
 .comment       0x0000000000000011       0x12 ..\..\platform\libs\libbtstack.a(sdp_util.o)
 .comment       0x0000000000000011       0x12 ..\..\platform\libs\libbtstack.a(spp.o)
 .comment       0x0000000000000011       0x12 ..\..\platform\libs\libbtstack.a(hci.o)
 .comment       0x0000000000000011       0x12 ..\..\platform\libs\libbtstack.a(hci_cmd.o)
 .comment       0x0000000000000011       0x12 ..\..\platform\libs\libbtstack.a(hci_dump.o)
 .comment       0x0000000000000011       0x12 ..\..\platform\libs\libbtstack.a(hci_sco.o)
 .comment       0x0000000000000011       0x12 ..\..\platform\libs\libbtstack.a(l2cap.o)
 .comment       0x0000000000000011       0x12 ..\..\platform\libs\libbtstack.a(l2cap_signaling.o)
 .comment       0x0000000000000011       0x12 ..\..\platform\libs\libbtstack.a(l2cap_test.o)
 .comment       0x0000000000000011       0x12 ..\..\platform\libs\libbtstack.a(ext_rsw.o)
 .comment       0x0000000000000011       0x12 ..\..\platform\libs\libbtstack.a(ext_sniff.o)
 .comment       0x0000000000000011       0x12 ..\..\platform\libs\libbtstack.a(ext_tsco.o)
 .comment       0x0000000000000011       0x12 ..\..\platform\libs\libbtstack.a(lc_scan.o)
 .comment       0x0000000000000011       0x12 ..\..\platform\libs\libbtstack.a(lm_hmac.o)
 .comment       0x0000000000000011       0x12 ..\..\platform\libs\libbtstack.a(btstack_linked_list.o)
 .comment       0x0000000000000011       0x12 ..\..\platform\libs\libdrivers.a(diskio.o)
 .comment       0x0000000000000011       0x12 ..\..\platform\libs\libdrivers.a(pff.o)
 .comment       0x0000000000000011       0x12 ..\..\platform\libs\libdrivers.a(pff_fat.o)
 .comment       0x0000000000000011       0x12 ..\..\platform\libs\libdrivers.a(usb_host_manage.o)
 .comment       0x0000000000000011       0x12 ..\..\platform\libs\libdrivers.a(usb_detect.o)
 .comment       0x0000000000000011       0x12 ..\..\platform\libs\libcodecs.a(aviobuf.o)
 .comment       0x0000000000000011       0x12 ..\..\platform\libs\libcodecs.a(codecs_com.o)
 .comment       0x0000000000000011       0x12 ..\..\platform\libs\libcodecs.a(drc.o)
 .comment       0x0000000000000011       0x12 ..\..\platform\libs\libcodecs.a(mp3_dec.o)
 .comment       0x0000000000000011       0x12 ..\..\platform\libs\libcodecs.a(bt_sbc.o)
 .comment       0x0000000000000011       0x12 ..\..\platform\libs\libcodecs.a(sbc.o)
 .comment       0x0000000000000011       0x12 ..\..\platform\libs\libcodecs.a(sbc_dec.o)
 .comment       0x0000000000000011       0x12 ..\..\platform\libs\libcodecs.a(sbcen_io.o)
 .comment       0x0000000000000011       0x12 ..\..\platform\libs\libcodecs.a(bit.o)
 .comment       0x0000000000000011       0x12 ..\..\platform\libs\libcodecs.a(frame.o)
 .comment       0x0000000000000011       0x12 ..\..\platform\libs\libcodecs.a(layer12.o)
 .comment       0x0000000000000011       0x12 ..\..\platform\libs\libcodecs.a(layer3.o)
 .comment       0x0000000000000011       0x12 ..\..\platform\libs\libcodecs.a(huffman.o)

.debug_frame    0x0000000000000000     0x5da0
 .debug_frame   0x0000000000000000      0x3ac ..\..\platform\libs\libplatform.a(audio.o)
 .debug_frame   0x00000000000003ac      0x608 ..\..\platform\libs\libplatform.a(audio_echo.o)
 .debug_frame   0x00000000000009b4      0x4f8 ..\..\platform\libs\libplatform.a(audio_eq.o)
 .debug_frame   0x0000000000000eac      0x9c4 ..\..\platform\libs\libplatform.a(dac.o)
 .debug_frame   0x0000000000001870       0x90 ..\..\platform\libs\libplatform.a(dac_dnr.o)
 .debug_frame   0x0000000000001900      0x220 ..\..\platform\libs\libplatform.a(sdadc.o)
 .debug_frame   0x0000000000001b20      0x588 ..\..\platform\libs\libplatform.a(bt.o)
 .debug_frame   0x00000000000020a8      0x1f0 ..\..\platform\libs\libplatform.a(bt_aec.o)
 .debug_frame   0x0000000000002298      0x204 ..\..\platform\libs\libplatform.a(bt_alc.o)
 .debug_frame   0x000000000000249c      0x2dc ..\..\platform\libs\libplatform.a(bt_rec.o)
 .debug_frame   0x0000000000002778       0xec ..\..\platform\libs\libplatform.a(bt_sco.o)
 .debug_frame   0x0000000000002864       0x30 ..\..\platform\libs\libplatform.a(bt_wnr.o)
 .debug_frame   0x0000000000002894      0x520 ..\..\platform\libs\libplatform.a(cm.o)
 .debug_frame   0x0000000000002db4       0xb8 ..\..\platform\libs\libplatform.a(os_flash.o)
 .debug_frame   0x0000000000002e6c       0x58 ..\..\platform\libs\libplatform.a(xcfg.o)
 .debug_frame   0x0000000000002ec4      0x188 ..\..\platform\libs\libplatform.a(device.o)
 .debug_frame   0x000000000000304c       0x74 ..\..\platform\libs\libplatform.a(fmrx_ang.o)
 .debug_frame   0x00000000000030c0      0x150 ..\..\platform\libs\libplatform.a(main.o)
 .debug_frame   0x0000000000003210      0x5d8 ..\..\platform\libs\libplatform.a(music.o)
 .debug_frame   0x00000000000037e8      0x2f4 ..\..\platform\libs\libplatform.a(music_res.o)
 .debug_frame   0x0000000000003adc      0x294 ..\..\platform\libs\libplatform.a(stream.o)
 .debug_frame   0x0000000000003d70      0x4c0 ..\..\platform\libs\libplatform.a(interrupt.o)
 .debug_frame   0x0000000000004230      0x1d8 ..\..\platform\libs\libplatform.a(startup.o)
 .debug_frame   0x0000000000004408       0x74 ..\..\platform\libs\libplatform.a(sys_hook.o)
 .debug_frame   0x000000000000447c      0x228 ..\..\platform\libs\libplatform.a(rtc.o)
 .debug_frame   0x00000000000046a4      0x148 ..\..\platform\libs\libplatform.a(spiflash.o)
 .debug_frame   0x00000000000047ec      0x1c8 ..\..\platform\libs\libplatform.a(charge.o)
 .debug_frame   0x00000000000049b4      0x118 ..\..\platform\libs\libplatform.a(debug.o)
 .debug_frame   0x0000000000004acc       0x9c ..\..\platform\libs\libplatform.a(gpio.o)
 .debug_frame   0x0000000000004b68       0xe0 ..\..\platform\libs\libplatform.a(key.o)
 .debug_frame   0x0000000000004c48      0x4a0 ..\..\platform\libs\libplatform.a(lock.o)
 .debug_frame   0x00000000000050e8      0x258 ..\..\platform\libs\libplatform.a(power.o)
 .debug_frame   0x0000000000005340       0xa8 ..\..\platform\libs\libplatform.a(saradc.o)
 .debug_frame   0x00000000000053e8      0x140 ..\..\platform\libs\libplatform.a(sys.o)
 .debug_frame   0x0000000000005528      0x140 ..\..\platform\libs\libplatform.a(sys_clk.o)
 .debug_frame   0x0000000000005668       0x60 ..\..\platform\libs\libplatform.a(sys_msg.o)
 .debug_frame   0x00000000000056c8      0x300 ..\..\platform\libs\libplatform.a(update.o)
 .debug_frame   0x00000000000059c8       0x20 ..\..\platform\libs\libplatform.a(voltage_trim.o)
 .debug_frame   0x00000000000059e8       0xa0 ..\..\platform\libs\libplatform.a(weak_symbol.o)
 .debug_frame   0x0000000000005a88      0x1a0 ..\..\platform\libs\libplatform.a(thread_driver.o)
 .debug_frame   0x0000000000005c28       0x9c ..\..\platform\libs\libplatform.a(audio_pcm.o)
 .debug_frame   0x0000000000005cc4       0xdc ..\..\platform\libs\libplatform.a(bt_ota.o)

.debug_info     0x0000000000000000    0x32030
 .debug_info    0x0000000000000000     0x14b4 ..\..\platform\libs\libplatform.a(audio.o)
 .debug_info    0x00000000000014b4     0x20bd ..\..\platform\libs\libplatform.a(audio_echo.o)
 .debug_info    0x0000000000003571     0x1adf ..\..\platform\libs\libplatform.a(audio_eq.o)
 .debug_info    0x0000000000005050     0x1eb8 ..\..\platform\libs\libplatform.a(dac.o)
 .debug_info    0x0000000000006f08      0xe52 ..\..\platform\libs\libplatform.a(dac_dnr.o)
 .debug_info    0x0000000000007d5a       0xbf ..\..\platform\libs\libplatform.a(s_dac.o)
 .debug_info    0x0000000000007e19     0x1521 ..\..\platform\libs\libplatform.a(sdadc.o)
 .debug_info    0x000000000000933a     0x1a13 ..\..\platform\libs\libplatform.a(bt.o)
 .debug_info    0x000000000000ad4d     0x17d2 ..\..\platform\libs\libplatform.a(bt_aec.o)
 .debug_info    0x000000000000c51f     0x1692 ..\..\platform\libs\libplatform.a(bt_alc.o)
 .debug_info    0x000000000000dbb1     0x159e ..\..\platform\libs\libplatform.a(bt_rec.o)
 .debug_info    0x000000000000f14f      0xe2a ..\..\platform\libs\libplatform.a(bt_sco.o)
 .debug_info    0x000000000000ff79      0xc1e ..\..\platform\libs\libplatform.a(bt_wnr.o)
 .debug_info    0x0000000000010b97       0xc0 ..\..\platform\libs\libplatform.a(s_wnr.o)
 .debug_info    0x0000000000010c57     0x1a98 ..\..\platform\libs\libplatform.a(cm.o)
 .debug_info    0x00000000000126ef      0xd08 ..\..\platform\libs\libplatform.a(os_flash.o)
 .debug_info    0x00000000000133f7      0xc89 ..\..\platform\libs\libplatform.a(xcfg.o)
 .debug_info    0x0000000000014080      0xeee ..\..\platform\libs\libplatform.a(device.o)
 .debug_info    0x0000000000014f6e      0xc89 ..\..\platform\libs\libplatform.a(fmrx_ang.o)
 .debug_info    0x0000000000015bf7     0x1095 ..\..\platform\libs\libplatform.a(main.o)
 .debug_info    0x0000000000016c8c     0x2031 ..\..\platform\libs\libplatform.a(music.o)
 .debug_info    0x0000000000018cbd     0x15b3 ..\..\platform\libs\libplatform.a(music_res.o)
 .debug_info    0x000000000001a270     0x1083 ..\..\platform\libs\libplatform.a(stream.o)
 .debug_info    0x000000000001b2f3     0x13df ..\..\platform\libs\libplatform.a(interrupt.o)
 .debug_info    0x000000000001c6d2     0x1daa ..\..\platform\libs\libplatform.a(startup.o)
 .debug_info    0x000000000001e47c      0xf78 ..\..\platform\libs\libplatform.a(sys_hook.o)
 .debug_info    0x000000000001f3f4       0xb9 ..\..\platform\libs\libplatform.a(reset.o)
 .debug_info    0x000000000001f4ad     0x11ec ..\..\platform\libs\libplatform.a(rtc.o)
 .debug_info    0x0000000000020699      0xee9 ..\..\platform\libs\libplatform.a(spiflash.o)
 .debug_info    0x0000000000021582     0x108f ..\..\platform\libs\libplatform.a(charge.o)
 .debug_info    0x0000000000022611     0x1446 ..\..\platform\libs\libplatform.a(debug.o)
 .debug_info    0x0000000000023a57      0xcfa ..\..\platform\libs\libplatform.a(gpio.o)
 .debug_info    0x0000000000024751      0xda7 ..\..\platform\libs\libplatform.a(key.o)
 .debug_info    0x00000000000254f8     0x16ce ..\..\platform\libs\libplatform.a(lock.o)
 .debug_info    0x0000000000026bc6     0x1310 ..\..\platform\libs\libplatform.a(power.o)
 .debug_info    0x0000000000027ed6       0xc1 ..\..\platform\libs\libplatform.a(s_sys.o)
 .debug_info    0x0000000000027f97      0xd35 ..\..\platform\libs\libplatform.a(saradc.o)
 .debug_info    0x0000000000028ccc     0x101c ..\..\platform\libs\libplatform.a(sys.o)
 .debug_info    0x0000000000029ce8      0xfe9 ..\..\platform\libs\libplatform.a(sys_clk.o)
 .debug_info    0x000000000002acd1      0xd54 ..\..\platform\libs\libplatform.a(sys_msg.o)
 .debug_info    0x000000000002ba25     0x1c77 ..\..\platform\libs\libplatform.a(update.o)
 .debug_info    0x000000000002d69c      0xc95 ..\..\platform\libs\libplatform.a(voltage_trim.o)
 .debug_info    0x000000000002e331      0xd28 ..\..\platform\libs\libplatform.a(weak_symbol.o)
 .debug_info    0x000000000002f059     0x107b ..\..\platform\libs\libplatform.a(thread_driver.o)
 .debug_info    0x00000000000300d4      0xe9c ..\..\platform\libs\libplatform.a(audio_pcm.o)
 .debug_info    0x0000000000030f70     0x10c0 ..\..\platform\libs\libplatform.a(bt_ota.o)

.debug_abbrev   0x0000000000000000     0x89e0
 .debug_abbrev  0x0000000000000000      0x30d ..\..\platform\libs\libplatform.a(audio.o)
 .debug_abbrev  0x000000000000030d      0x4c6 ..\..\platform\libs\libplatform.a(audio_echo.o)
 .debug_abbrev  0x00000000000007d3      0x4be ..\..\platform\libs\libplatform.a(audio_eq.o)
 .debug_abbrev  0x0000000000000c91      0x52a ..\..\platform\libs\libplatform.a(dac.o)
 .debug_abbrev  0x00000000000011bb      0x28a ..\..\platform\libs\libplatform.a(dac_dnr.o)
 .debug_abbrev  0x0000000000001445       0x12 ..\..\platform\libs\libplatform.a(s_dac.o)
 .debug_abbrev  0x0000000000001457      0x3eb ..\..\platform\libs\libplatform.a(sdadc.o)
 .debug_abbrev  0x0000000000001842      0x3ad ..\..\platform\libs\libplatform.a(bt.o)
 .debug_abbrev  0x0000000000001bef      0x39c ..\..\platform\libs\libplatform.a(bt_aec.o)
 .debug_abbrev  0x0000000000001f8b      0x3d3 ..\..\platform\libs\libplatform.a(bt_alc.o)
 .debug_abbrev  0x000000000000235e      0x360 ..\..\platform\libs\libplatform.a(bt_rec.o)
 .debug_abbrev  0x00000000000026be      0x2b0 ..\..\platform\libs\libplatform.a(bt_sco.o)
 .debug_abbrev  0x000000000000296e      0x233 ..\..\platform\libs\libplatform.a(bt_wnr.o)
 .debug_abbrev  0x0000000000002ba1       0x14 ..\..\platform\libs\libplatform.a(s_wnr.o)
 .debug_abbrev  0x0000000000002bb5      0x4a4 ..\..\platform\libs\libplatform.a(cm.o)
 .debug_abbrev  0x0000000000003059      0x271 ..\..\platform\libs\libplatform.a(os_flash.o)
 .debug_abbrev  0x00000000000032ca      0x247 ..\..\platform\libs\libplatform.a(xcfg.o)
 .debug_abbrev  0x0000000000003511      0x329 ..\..\platform\libs\libplatform.a(device.o)
 .debug_abbrev  0x000000000000383a      0x25b ..\..\platform\libs\libplatform.a(fmrx_ang.o)
 .debug_abbrev  0x0000000000003a95      0x2e6 ..\..\platform\libs\libplatform.a(main.o)
 .debug_abbrev  0x0000000000003d7b      0x4d6 ..\..\platform\libs\libplatform.a(music.o)
 .debug_abbrev  0x0000000000004251      0x3d8 ..\..\platform\libs\libplatform.a(music_res.o)
 .debug_abbrev  0x0000000000004629      0x310 ..\..\platform\libs\libplatform.a(stream.o)
 .debug_abbrev  0x0000000000004939      0x3b2 ..\..\platform\libs\libplatform.a(interrupt.o)
 .debug_abbrev  0x0000000000004ceb      0x3e0 ..\..\platform\libs\libplatform.a(startup.o)
 .debug_abbrev  0x00000000000050cb      0x2c8 ..\..\platform\libs\libplatform.a(sys_hook.o)
 .debug_abbrev  0x0000000000005393       0x12 ..\..\platform\libs\libplatform.a(reset.o)
 .debug_abbrev  0x00000000000053a5      0x28e ..\..\platform\libs\libplatform.a(rtc.o)
 .debug_abbrev  0x0000000000005633      0x309 ..\..\platform\libs\libplatform.a(spiflash.o)
 .debug_abbrev  0x000000000000593c      0x36c ..\..\platform\libs\libplatform.a(charge.o)
 .debug_abbrev  0x0000000000005ca8      0x3ef ..\..\platform\libs\libplatform.a(debug.o)
 .debug_abbrev  0x0000000000006097      0x27a ..\..\platform\libs\libplatform.a(gpio.o)
 .debug_abbrev  0x0000000000006311      0x291 ..\..\platform\libs\libplatform.a(key.o)
 .debug_abbrev  0x00000000000065a2      0x38d ..\..\platform\libs\libplatform.a(lock.o)
 .debug_abbrev  0x000000000000692f      0x34f ..\..\platform\libs\libplatform.a(power.o)
 .debug_abbrev  0x0000000000006c7e       0x14 ..\..\platform\libs\libplatform.a(s_sys.o)
 .debug_abbrev  0x0000000000006c92      0x29a ..\..\platform\libs\libplatform.a(saradc.o)
 .debug_abbrev  0x0000000000006f2c      0x3ec ..\..\platform\libs\libplatform.a(sys.o)
 .debug_abbrev  0x0000000000007318      0x398 ..\..\platform\libs\libplatform.a(sys_clk.o)
 .debug_abbrev  0x00000000000076b0      0x2b2 ..\..\platform\libs\libplatform.a(sys_msg.o)
 .debug_abbrev  0x0000000000007962      0x43c ..\..\platform\libs\libplatform.a(update.o)
 .debug_abbrev  0x0000000000007d9e      0x246 ..\..\platform\libs\libplatform.a(voltage_trim.o)
 .debug_abbrev  0x0000000000007fe4      0x2b2 ..\..\platform\libs\libplatform.a(weak_symbol.o)
 .debug_abbrev  0x0000000000008296      0x258 ..\..\platform\libs\libplatform.a(thread_driver.o)
 .debug_abbrev  0x00000000000084ee      0x258 ..\..\platform\libs\libplatform.a(audio_pcm.o)
 .debug_abbrev  0x0000000000008746      0x29a ..\..\platform\libs\libplatform.a(bt_ota.o)

.debug_loc      0x0000000000000000     0x7d00
 .debug_loc     0x0000000000000000      0x71a ..\..\platform\libs\libplatform.a(audio.o)
 .debug_loc     0x000000000000071a      0xaff ..\..\platform\libs\libplatform.a(audio_echo.o)
 .debug_loc     0x0000000000001219      0xeda ..\..\platform\libs\libplatform.a(audio_eq.o)
 .debug_loc     0x00000000000020f3      0x573 ..\..\platform\libs\libplatform.a(dac.o)
 .debug_loc     0x0000000000002666      0x113 ..\..\platform\libs\libplatform.a(dac_dnr.o)
 .debug_loc     0x0000000000002779      0x567 ..\..\platform\libs\libplatform.a(sdadc.o)
 .debug_loc     0x0000000000002ce0      0x1f8 ..\..\platform\libs\libplatform.a(bt.o)
 .debug_loc     0x0000000000002ed8      0x1e2 ..\..\platform\libs\libplatform.a(bt_aec.o)
 .debug_loc     0x00000000000030ba      0x26a ..\..\platform\libs\libplatform.a(bt_alc.o)
 .debug_loc     0x0000000000003324      0x281 ..\..\platform\libs\libplatform.a(bt_rec.o)
 .debug_loc     0x00000000000035a5       0xbb ..\..\platform\libs\libplatform.a(bt_sco.o)
 .debug_loc     0x0000000000003660       0x94 ..\..\platform\libs\libplatform.a(bt_wnr.o)
 .debug_loc     0x00000000000036f4      0x8a4 ..\..\platform\libs\libplatform.a(cm.o)
 .debug_loc     0x0000000000003f98      0x15a ..\..\platform\libs\libplatform.a(os_flash.o)
 .debug_loc     0x00000000000040f2       0x58 ..\..\platform\libs\libplatform.a(xcfg.o)
 .debug_loc     0x000000000000414a      0x173 ..\..\platform\libs\libplatform.a(device.o)
 .debug_loc     0x00000000000042bd       0x76 ..\..\platform\libs\libplatform.a(fmrx_ang.o)
 .debug_loc     0x0000000000004333      0x1a8 ..\..\platform\libs\libplatform.a(main.o)
 .debug_loc     0x00000000000044db      0x29e ..\..\platform\libs\libplatform.a(music.o)
 .debug_loc     0x0000000000004779      0x574 ..\..\platform\libs\libplatform.a(music_res.o)
 .debug_loc     0x0000000000004ced      0x1fa ..\..\platform\libs\libplatform.a(stream.o)
 .debug_loc     0x0000000000004ee7      0x335 ..\..\platform\libs\libplatform.a(interrupt.o)
 .debug_loc     0x000000000000521c      0x110 ..\..\platform\libs\libplatform.a(startup.o)
 .debug_loc     0x000000000000532c       0xed ..\..\platform\libs\libplatform.a(sys_hook.o)
 .debug_loc     0x0000000000005419      0x215 ..\..\platform\libs\libplatform.a(rtc.o)
 .debug_loc     0x000000000000562e      0x1af ..\..\platform\libs\libplatform.a(spiflash.o)
 .debug_loc     0x00000000000057dd      0x18f ..\..\platform\libs\libplatform.a(charge.o)
 .debug_loc     0x000000000000596c      0x14b ..\..\platform\libs\libplatform.a(debug.o)
 .debug_loc     0x0000000000005ab7      0x17b ..\..\platform\libs\libplatform.a(gpio.o)
 .debug_loc     0x0000000000005c32      0x1f5 ..\..\platform\libs\libplatform.a(key.o)
 .debug_loc     0x0000000000005e27      0x309 ..\..\platform\libs\libplatform.a(lock.o)
 .debug_loc     0x0000000000006130      0x46d ..\..\platform\libs\libplatform.a(power.o)
 .debug_loc     0x000000000000659d       0xec ..\..\platform\libs\libplatform.a(saradc.o)
 .debug_loc     0x0000000000006689      0x546 ..\..\platform\libs\libplatform.a(sys.o)
 .debug_loc     0x0000000000006bcf      0x515 ..\..\platform\libs\libplatform.a(sys_clk.o)
 .debug_loc     0x00000000000070e4       0x78 ..\..\platform\libs\libplatform.a(sys_msg.o)
 .debug_loc     0x000000000000715c      0x9b0 ..\..\platform\libs\libplatform.a(update.o)
 .debug_loc     0x0000000000007b0c       0x2e ..\..\platform\libs\libplatform.a(voltage_trim.o)
 .debug_loc     0x0000000000007b3a       0x42 ..\..\platform\libs\libplatform.a(weak_symbol.o)
 .debug_loc     0x0000000000007b7c       0x21 ..\..\platform\libs\libplatform.a(thread_driver.o)
 .debug_loc     0x0000000000007b9d       0x4c ..\..\platform\libs\libplatform.a(audio_pcm.o)
 .debug_loc     0x0000000000007be9      0x117 ..\..\platform\libs\libplatform.a(bt_ota.o)

.debug_aranges  0x0000000000000000     0x1550
 .debug_aranges
                0x0000000000000000       0xe8 ..\..\platform\libs\libplatform.a(audio.o)
 .debug_aranges
                0x00000000000000e8      0x188 ..\..\platform\libs\libplatform.a(audio_echo.o)
 .debug_aranges
                0x0000000000000270       0xb0 ..\..\platform\libs\libplatform.a(audio_eq.o)
 .debug_aranges
                0x0000000000000320      0x1a8 ..\..\platform\libs\libplatform.a(dac.o)
 .debug_aranges
                0x00000000000004c8       0x58 ..\..\platform\libs\libplatform.a(dac_dnr.o)
 .debug_aranges
                0x0000000000000520       0x28 ..\..\platform\libs\libplatform.a(s_dac.o)
 .debug_aranges
                0x0000000000000548       0x78 ..\..\platform\libs\libplatform.a(sdadc.o)
 .debug_aranges
                0x00000000000005c0      0x100 ..\..\platform\libs\libplatform.a(bt.o)
 .debug_aranges
                0x00000000000006c0       0x58 ..\..\platform\libs\libplatform.a(bt_aec.o)
 .debug_aranges
                0x0000000000000718       0x58 ..\..\platform\libs\libplatform.a(bt_alc.o)
 .debug_aranges
                0x0000000000000770       0x88 ..\..\platform\libs\libplatform.a(bt_rec.o)
 .debug_aranges
                0x00000000000007f8       0x38 ..\..\platform\libs\libplatform.a(bt_sco.o)
 .debug_aranges
                0x0000000000000830       0x28 ..\..\platform\libs\libplatform.a(bt_wnr.o)
 .debug_aranges
                0x0000000000000858       0x20 ..\..\platform\libs\libplatform.a(s_wnr.o)
 .debug_aranges
                0x0000000000000878       0xc0 ..\..\platform\libs\libplatform.a(cm.o)
 .debug_aranges
                0x0000000000000938       0x30 ..\..\platform\libs\libplatform.a(os_flash.o)
 .debug_aranges
                0x0000000000000968       0x20 ..\..\platform\libs\libplatform.a(xcfg.o)
 .debug_aranges
                0x0000000000000988       0x88 ..\..\platform\libs\libplatform.a(device.o)
 .debug_aranges
                0x0000000000000a10       0x30 ..\..\platform\libs\libplatform.a(fmrx_ang.o)
 .debug_aranges
                0x0000000000000a40       0x60 ..\..\platform\libs\libplatform.a(main.o)
 .debug_aranges
                0x0000000000000aa0      0x158 ..\..\platform\libs\libplatform.a(music.o)
 .debug_aranges
                0x0000000000000bf8       0x88 ..\..\platform\libs\libplatform.a(music_res.o)
 .debug_aranges
                0x0000000000000c80       0x68 ..\..\platform\libs\libplatform.a(stream.o)
 .debug_aranges
                0x0000000000000ce8      0x110 ..\..\platform\libs\libplatform.a(interrupt.o)
 .debug_aranges
                0x0000000000000df8       0x80 ..\..\platform\libs\libplatform.a(startup.o)
 .debug_aranges
                0x0000000000000e78       0x28 ..\..\platform\libs\libplatform.a(sys_hook.o)
 .debug_aranges
                0x0000000000000ea0       0x38 ..\..\platform\libs\libplatform.a(reset.o)
 .debug_aranges
                0x0000000000000ed8       0x48 ..\..\platform\libs\libplatform.a(rtc.o)
 .debug_aranges
                0x0000000000000f20       0x50 ..\..\platform\libs\libplatform.a(spiflash.o)
 .debug_aranges
                0x0000000000000f70       0x58 ..\..\platform\libs\libplatform.a(charge.o)
 .debug_aranges
                0x0000000000000fc8       0x50 ..\..\platform\libs\libplatform.a(debug.o)
 .debug_aranges
                0x0000000000001018       0x50 ..\..\platform\libs\libplatform.a(gpio.o)
 .debug_aranges
                0x0000000000001068       0x30 ..\..\platform\libs\libplatform.a(key.o)
 .debug_aranges
                0x0000000000001098      0x108 ..\..\platform\libs\libplatform.a(lock.o)
 .debug_aranges
                0x00000000000011a0       0x78 ..\..\platform\libs\libplatform.a(power.o)
 .debug_aranges
                0x0000000000001218       0x20 ..\..\platform\libs\libplatform.a(s_sys.o)
 .debug_aranges
                0x0000000000001238       0x48 ..\..\platform\libs\libplatform.a(saradc.o)
 .debug_aranges
                0x0000000000001280       0x70 ..\..\platform\libs\libplatform.a(sys.o)
 .debug_aranges
                0x00000000000012f0       0x70 ..\..\platform\libs\libplatform.a(sys_clk.o)
 .debug_aranges
                0x0000000000001360       0x40 ..\..\platform\libs\libplatform.a(sys_msg.o)
 .debug_aranges
                0x00000000000013a0       0x70 ..\..\platform\libs\libplatform.a(update.o)
 .debug_aranges
                0x0000000000001410       0x20 ..\..\platform\libs\libplatform.a(voltage_trim.o)
 .debug_aranges
                0x0000000000001430       0x48 ..\..\platform\libs\libplatform.a(weak_symbol.o)
 .debug_aranges
                0x0000000000001478       0x60 ..\..\platform\libs\libplatform.a(thread_driver.o)
 .debug_aranges
                0x00000000000014d8       0x30 ..\..\platform\libs\libplatform.a(audio_pcm.o)
 .debug_aranges
                0x0000000000001508       0x48 ..\..\platform\libs\libplatform.a(bt_ota.o)

.debug_ranges   0x0000000000000000     0x1948
 .debug_ranges  0x0000000000000000       0xd8 ..\..\platform\libs\libplatform.a(audio.o)
 .debug_ranges  0x00000000000000d8      0x2b8 ..\..\platform\libs\libplatform.a(audio_echo.o)
 .debug_ranges  0x0000000000000390      0x168 ..\..\platform\libs\libplatform.a(audio_eq.o)
 .debug_ranges  0x00000000000004f8      0x260 ..\..\platform\libs\libplatform.a(dac.o)
 .debug_ranges  0x0000000000000758       0x48 ..\..\platform\libs\libplatform.a(dac_dnr.o)
 .debug_ranges  0x00000000000007a0       0x20 ..\..\platform\libs\libplatform.a(s_dac.o)
 .debug_ranges  0x00000000000007c0       0x98 ..\..\platform\libs\libplatform.a(sdadc.o)
 .debug_ranges  0x0000000000000858       0xf0 ..\..\platform\libs\libplatform.a(bt.o)
 .debug_ranges  0x0000000000000948       0x48 ..\..\platform\libs\libplatform.a(bt_aec.o)
 .debug_ranges  0x0000000000000990       0x60 ..\..\platform\libs\libplatform.a(bt_alc.o)
 .debug_ranges  0x00000000000009f0       0xc0 ..\..\platform\libs\libplatform.a(bt_rec.o)
 .debug_ranges  0x0000000000000ab0       0x28 ..\..\platform\libs\libplatform.a(bt_sco.o)
 .debug_ranges  0x0000000000000ad8       0x18 ..\..\platform\libs\libplatform.a(bt_wnr.o)
 .debug_ranges  0x0000000000000af0      0x158 ..\..\platform\libs\libplatform.a(cm.o)
 .debug_ranges  0x0000000000000c48       0x20 ..\..\platform\libs\libplatform.a(os_flash.o)
 .debug_ranges  0x0000000000000c68       0x10 ..\..\platform\libs\libplatform.a(xcfg.o)
 .debug_ranges  0x0000000000000c78       0x78 ..\..\platform\libs\libplatform.a(device.o)
 .debug_ranges  0x0000000000000cf0       0x38 ..\..\platform\libs\libplatform.a(fmrx_ang.o)
 .debug_ranges  0x0000000000000d28       0x50 ..\..\platform\libs\libplatform.a(main.o)
 .debug_ranges  0x0000000000000d78      0x148 ..\..\platform\libs\libplatform.a(music.o)
 .debug_ranges  0x0000000000000ec0       0xc8 ..\..\platform\libs\libplatform.a(music_res.o)
 .debug_ranges  0x0000000000000f88       0x58 ..\..\platform\libs\libplatform.a(stream.o)
 .debug_ranges  0x0000000000000fe0      0x100 ..\..\platform\libs\libplatform.a(interrupt.o)
 .debug_ranges  0x00000000000010e0       0x88 ..\..\platform\libs\libplatform.a(startup.o)
 .debug_ranges  0x0000000000001168       0x48 ..\..\platform\libs\libplatform.a(sys_hook.o)
 .debug_ranges  0x00000000000011b0       0x30 ..\..\platform\libs\libplatform.a(reset.o)
 .debug_ranges  0x00000000000011e0       0x38 ..\..\platform\libs\libplatform.a(rtc.o)
 .debug_ranges  0x0000000000001218       0x70 ..\..\platform\libs\libplatform.a(spiflash.o)
 .debug_ranges  0x0000000000001288       0x78 ..\..\platform\libs\libplatform.a(charge.o)
 .debug_ranges  0x0000000000001300       0xb8 ..\..\platform\libs\libplatform.a(debug.o)
 .debug_ranges  0x00000000000013b8       0x40 ..\..\platform\libs\libplatform.a(gpio.o)
 .debug_ranges  0x00000000000013f8       0x20 ..\..\platform\libs\libplatform.a(key.o)
 .debug_ranges  0x0000000000001418      0x138 ..\..\platform\libs\libplatform.a(lock.o)
 .debug_ranges  0x0000000000001550       0x68 ..\..\platform\libs\libplatform.a(power.o)
 .debug_ranges  0x00000000000015b8       0x50 ..\..\platform\libs\libplatform.a(saradc.o)
 .debug_ranges  0x0000000000001608       0x80 ..\..\platform\libs\libplatform.a(sys.o)
 .debug_ranges  0x0000000000001688       0x78 ..\..\platform\libs\libplatform.a(sys_clk.o)
 .debug_ranges  0x0000000000001700       0x30 ..\..\platform\libs\libplatform.a(sys_msg.o)
 .debug_ranges  0x0000000000001730      0x128 ..\..\platform\libs\libplatform.a(update.o)
 .debug_ranges  0x0000000000001858       0x10 ..\..\platform\libs\libplatform.a(voltage_trim.o)
 .debug_ranges  0x0000000000001868       0x38 ..\..\platform\libs\libplatform.a(weak_symbol.o)
 .debug_ranges  0x00000000000018a0       0x50 ..\..\platform\libs\libplatform.a(thread_driver.o)
 .debug_ranges  0x00000000000018f0       0x20 ..\..\platform\libs\libplatform.a(audio_pcm.o)
 .debug_ranges  0x0000000000001910       0x38 ..\..\platform\libs\libplatform.a(bt_ota.o)

.debug_line     0x0000000000000000     0x96d0
 .debug_line    0x0000000000000000      0x564 ..\..\platform\libs\libplatform.a(audio.o)
 .debug_line    0x0000000000000564      0x764 ..\..\platform\libs\libplatform.a(audio_echo.o)
 .debug_line    0x0000000000000cc8      0x559 ..\..\platform\libs\libplatform.a(audio_eq.o)
 .debug_line    0x0000000000001221      0x6f5 ..\..\platform\libs\libplatform.a(dac.o)
 .debug_line    0x0000000000001916      0x256 ..\..\platform\libs\libplatform.a(dac_dnr.o)
 .debug_line    0x0000000000001b6c       0xb2 ..\..\platform\libs\libplatform.a(s_dac.o)
 .debug_line    0x0000000000001c1e      0x45b ..\..\platform\libs\libplatform.a(sdadc.o)
 .debug_line    0x0000000000002079      0x3dc ..\..\platform\libs\libplatform.a(bt.o)
 .debug_line    0x0000000000002455      0x3dc ..\..\platform\libs\libplatform.a(bt_aec.o)
 .debug_line    0x0000000000002831      0x404 ..\..\platform\libs\libplatform.a(bt_alc.o)
 .debug_line    0x0000000000002c35      0x3d0 ..\..\platform\libs\libplatform.a(bt_rec.o)
 .debug_line    0x0000000000003005      0x293 ..\..\platform\libs\libplatform.a(bt_sco.o)
 .debug_line    0x0000000000003298      0x237 ..\..\platform\libs\libplatform.a(bt_wnr.o)
 .debug_line    0x00000000000034cf       0xc7 ..\..\platform\libs\libplatform.a(s_wnr.o)
 .debug_line    0x0000000000003596      0x554 ..\..\platform\libs\libplatform.a(cm.o)
 .debug_line    0x0000000000003aea      0x236 ..\..\platform\libs\libplatform.a(os_flash.o)
 .debug_line    0x0000000000003d20      0x224 ..\..\platform\libs\libplatform.a(xcfg.o)
 .debug_line    0x0000000000003f44      0x2ce ..\..\platform\libs\libplatform.a(device.o)
 .debug_line    0x0000000000004212      0x2dd ..\..\platform\libs\libplatform.a(fmrx_ang.o)
 .debug_line    0x00000000000044ef      0x325 ..\..\platform\libs\libplatform.a(main.o)
 .debug_line    0x0000000000004814      0x4d5 ..\..\platform\libs\libplatform.a(music.o)
 .debug_line    0x0000000000004ce9      0x3a2 ..\..\platform\libs\libplatform.a(music_res.o)
 .debug_line    0x000000000000508b      0x322 ..\..\platform\libs\libplatform.a(stream.o)
 .debug_line    0x00000000000053ad      0x482 ..\..\platform\libs\libplatform.a(interrupt.o)
 .debug_line    0x000000000000582f      0x365 ..\..\platform\libs\libplatform.a(startup.o)
 .debug_line    0x0000000000005b94      0x267 ..\..\platform\libs\libplatform.a(sys_hook.o)
 .debug_line    0x0000000000005dfb      0x106 ..\..\platform\libs\libplatform.a(reset.o)
 .debug_line    0x0000000000005f01      0x27d ..\..\platform\libs\libplatform.a(rtc.o)
 .debug_line    0x000000000000617e      0x2a1 ..\..\platform\libs\libplatform.a(spiflash.o)
 .debug_line    0x000000000000641f      0x367 ..\..\platform\libs\libplatform.a(charge.o)
 .debug_line    0x0000000000006786      0x30d ..\..\platform\libs\libplatform.a(debug.o)
 .debug_line    0x0000000000006a93      0x2e1 ..\..\platform\libs\libplatform.a(gpio.o)
 .debug_line    0x0000000000006d74      0x2a7 ..\..\platform\libs\libplatform.a(key.o)
 .debug_line    0x000000000000701b      0x4f1 ..\..\platform\libs\libplatform.a(lock.o)
 .debug_line    0x000000000000750c      0x3b8 ..\..\platform\libs\libplatform.a(power.o)
 .debug_line    0x00000000000078c4       0x97 ..\..\platform\libs\libplatform.a(s_sys.o)
 .debug_line    0x000000000000795b      0x285 ..\..\platform\libs\libplatform.a(saradc.o)
 .debug_line    0x0000000000007be0      0x39d ..\..\platform\libs\libplatform.a(sys.o)
 .debug_line    0x0000000000007f7d      0x393 ..\..\platform\libs\libplatform.a(sys_clk.o)
 .debug_line    0x0000000000008310      0x260 ..\..\platform\libs\libplatform.a(sys_msg.o)
 .debug_line    0x0000000000008570      0x4ea ..\..\platform\libs\libplatform.a(update.o)
 .debug_line    0x0000000000008a5a      0x232 ..\..\platform\libs\libplatform.a(voltage_trim.o)
 .debug_line    0x0000000000008c8c      0x26c ..\..\platform\libs\libplatform.a(weak_symbol.o)
 .debug_line    0x0000000000008ef8      0x2b3 ..\..\platform\libs\libplatform.a(thread_driver.o)
 .debug_line    0x00000000000091ab      0x289 ..\..\platform\libs\libplatform.a(audio_pcm.o)
 .debug_line    0x0000000000009434      0x29c ..\..\platform\libs\libplatform.a(bt_ota.o)

.debug_str      0x0000000000000000     0x6b0c
 .debug_str     0x0000000000000000      0x9dd ..\..\platform\libs\libplatform.a(audio.o)
                                        0xaef (size before relaxing)
 .debug_str     0x00000000000009dd      0x973 ..\..\platform\libs\libplatform.a(audio_echo.o)
                                       0x1128 (size before relaxing)
 .debug_str     0x0000000000001350      0x40e ..\..\platform\libs\libplatform.a(audio_eq.o)
                                        0xb79 (size before relaxing)
 .debug_str     0x000000000000175e      0x60d ..\..\platform\libs\libplatform.a(dac.o)
                                        0xe6d (size before relaxing)
 .debug_str     0x0000000000001d6b       0xf2 ..\..\platform\libs\libplatform.a(dac_dnr.o)
                                        0x822 (size before relaxing)
 .debug_str     0x0000000000001e5d      0x288 ..\..\platform\libs\libplatform.a(sdadc.o)
                                        0xb61 (size before relaxing)
 .debug_str     0x00000000000020e5      0x7bf ..\..\platform\libs\libplatform.a(bt.o)
                                       0x114b (size before relaxing)
 .debug_str     0x00000000000028a4      0x55c ..\..\platform\libs\libplatform.a(bt_aec.o)
                                        0xd6c (size before relaxing)
 .debug_str     0x0000000000002e00      0x144 ..\..\platform\libs\libplatform.a(bt_alc.o)
                                        0xdf0 (size before relaxing)
 .debug_str     0x0000000000002f44      0x21f ..\..\platform\libs\libplatform.a(bt_rec.o)
                                        0xccf (size before relaxing)
 .debug_str     0x0000000000003163       0xab ..\..\platform\libs\libplatform.a(bt_sco.o)
                                        0x8eb (size before relaxing)
 .debug_str     0x000000000000320e       0x65 ..\..\platform\libs\libplatform.a(bt_wnr.o)
                                        0x750 (size before relaxing)
 .debug_str     0x0000000000003273      0x293 ..\..\platform\libs\libplatform.a(cm.o)
                                        0xbae (size before relaxing)
 .debug_str     0x0000000000003506       0x69 ..\..\platform\libs\libplatform.a(os_flash.o)
                                        0x76d (size before relaxing)
 .debug_str     0x000000000000356f       0xac ..\..\platform\libs\libplatform.a(xcfg.o)
                                        0x767 (size before relaxing)
 .debug_str     0x000000000000361b      0x18e ..\..\platform\libs\libplatform.a(device.o)
                                        0x888 (size before relaxing)
 .debug_str     0x00000000000037a9       0x8c ..\..\platform\libs\libplatform.a(fmrx_ang.o)
                                        0x72a (size before relaxing)
 .debug_str     0x0000000000003835      0x213 ..\..\platform\libs\libplatform.a(main.o)
                                        0x98a (size before relaxing)
 .debug_str     0x0000000000003a48      0x62c ..\..\platform\libs\libplatform.a(music.o)
                                       0x11cc (size before relaxing)
 .debug_str     0x0000000000004074      0x22b ..\..\platform\libs\libplatform.a(music_res.o)
                                        0xb38 (size before relaxing)
 .debug_str     0x000000000000429f      0x1d1 ..\..\platform\libs\libplatform.a(stream.o)
                                        0x919 (size before relaxing)
 .debug_str     0x0000000000004470      0x2c4 ..\..\platform\libs\libplatform.a(interrupt.o)
                                        0xb1a (size before relaxing)
 .debug_str     0x0000000000004734      0x3b1 ..\..\platform\libs\libplatform.a(startup.o)
                                        0xf06 (size before relaxing)
 .debug_str     0x0000000000004ae5       0xc5 ..\..\platform\libs\libplatform.a(sys_hook.o)
                                        0x8f9 (size before relaxing)
 .debug_str     0x0000000000004baa      0x10d ..\..\platform\libs\libplatform.a(rtc.o)
                                        0x9a9 (size before relaxing)
 .debug_str     0x0000000000004cb7       0xdd ..\..\platform\libs\libplatform.a(spiflash.o)
                                        0x7af (size before relaxing)
 .debug_str     0x0000000000004d94      0x25f ..\..\platform\libs\libplatform.a(charge.o)
                                        0x992 (size before relaxing)
 .debug_str     0x0000000000004ff3      0x5fe ..\..\platform\libs\libplatform.a(debug.o)
                                        0xe61 (size before relaxing)
 .debug_str     0x00000000000055f1       0xf8 ..\..\platform\libs\libplatform.a(gpio.o)
                                        0x7b0 (size before relaxing)
 .debug_str     0x00000000000056e9      0x16d ..\..\platform\libs\libplatform.a(key.o)
                                        0x85a (size before relaxing)
 .debug_str     0x0000000000005856      0x3dd ..\..\platform\libs\libplatform.a(lock.o)
                                        0xf05 (size before relaxing)
 .debug_str     0x0000000000005c33      0x1ee ..\..\platform\libs\libplatform.a(power.o)
                                        0x91c (size before relaxing)
 .debug_str     0x0000000000005e21       0xc0 ..\..\platform\libs\libplatform.a(saradc.o)
                                        0x7c4 (size before relaxing)
 .debug_str     0x0000000000005ee1      0x1c5 ..\..\platform\libs\libplatform.a(sys.o)
                                        0x88f (size before relaxing)
 .debug_str     0x00000000000060a6      0x1c0 ..\..\platform\libs\libplatform.a(sys_clk.o)
                                        0x93e (size before relaxing)
 .debug_str     0x0000000000006266       0xb9 ..\..\platform\libs\libplatform.a(sys_msg.o)
                                        0x7b1 (size before relaxing)
 .debug_str     0x000000000000631f      0x409 ..\..\platform\libs\libplatform.a(update.o)
                                        0xc05 (size before relaxing)
 .debug_str     0x0000000000006728       0xc2 ..\..\platform\libs\libplatform.a(voltage_trim.o)
                                        0x7bc (size before relaxing)
 .debug_str     0x00000000000067ea       0x58 ..\..\platform\libs\libplatform.a(weak_symbol.o)
                                        0x846 (size before relaxing)
 .debug_str     0x0000000000006842      0x19e ..\..\platform\libs\libplatform.a(thread_driver.o)
                                        0xa13 (size before relaxing)
 .debug_str     0x00000000000069e0       0x7f ..\..\platform\libs\libplatform.a(audio_pcm.o)
                                        0x926 (size before relaxing)
 .debug_str     0x0000000000006a5f       0xad ..\..\platform\libs\libplatform.a(bt_ota.o)
                                        0xbf8 (size before relaxing)
